ARM GAS  /tmp/ccNpzD1x.s 			page 1


   1              		.cpu cortex-m4
   2              		.eabi_attribute 27, 1
   3              		.eabi_attribute 28, 1
   4              		.eabi_attribute 20, 1
   5              		.eabi_attribute 21, 1
   6              		.eabi_attribute 23, 3
   7              		.eabi_attribute 24, 1
   8              		.eabi_attribute 25, 1
   9              		.eabi_attribute 26, 1
  10              		.eabi_attribute 30, 2
  11              		.eabi_attribute 34, 1
  12              		.eabi_attribute 18, 4
  13              		.file	"canard_driver.c"
  14              		.text
  15              	.Ltext0:
  16              		.cfi_sections	.debug_frame
  17              		.section	.text.shouldAcceptTransfer,"ax",%progbits
  18              		.align	1
  19              		.p2align 4,,15
  20              		.syntax unified
  21              		.thumb
  22              		.thumb_func
  23              		.fpu fpv4-sp-d16
  24              		.type	shouldAcceptTransfer, %function
  25              	shouldAcceptTransfer:
  26              	.LFB264:
  27              		.file 1 "libcanard/canard_driver.c"
  28              		.loc 1 253 0
  29              		.cfi_startproc
  30              		@ args = 4, pretend = 0, frame = 0
  31              		@ frame_needed = 0, uses_anonymous_args = 0
  32              	.LVL0:
  33 0000 F8B5     		push	{r3, r4, r5, r6, r7, lr}
  34              		.cfi_def_cfa_offset 24
  35              		.cfi_offset 3, -24
  36              		.cfi_offset 4, -20
  37              		.cfi_offset 5, -16
  38              		.cfi_offset 6, -12
  39              		.cfi_offset 7, -8
  40              		.cfi_offset 14, -4
  41              		.loc 1 257 0
  42 0002 2748     		ldr	r0, .L16+32
  43              	.LVL1:
  44              		.loc 1 253 0
  45 0004 9DF81860 		ldrb	r6, [sp, #24]	@ zero_extendqisi2
  46              		.loc 1 257 0
  47 0008 0068     		ldr	r0, [r0]
  48 000a 0028     		cmp	r0, #0
  49              		.loc 1 253 0
  50 000c 0F46     		mov	r7, r1
  51 000e 1446     		mov	r4, r2
  52 0010 1D46     		mov	r5, r3
  53              		.loc 1 257 0
  54 0012 05DD     		ble	.L2
  55              		.loc 1 258 0
  56 0014 1346     		mov	r3, r2
  57              	.LVL2:
ARM GAS  /tmp/ccNpzD1x.s 			page 2


  58 0016 3146     		mov	r1, r6
  59              	.LVL3:
  60 0018 2A46     		mov	r2, r5
  61              	.LVL4:
  62 001a 2248     		ldr	r0, .L16+36
  63 001c FFF7FEFF 		bl	commands_printf
  64              	.LVL5:
  65              	.L2:
  66              		.loc 1 262 0
  67 0020 012D     		cmp	r5, #1
  68 0022 16D0     		beq	.L12
  69              		.loc 1 267 0
  70 0024 022D     		cmp	r5, #2
  71 0026 01D0     		beq	.L13
  72              	.L9:
  73              		.loc 1 282 0
  74 0028 0020     		movs	r0, #0
  75              		.loc 1 283 0
  76 002a F8BD     		pop	{r3, r4, r5, r6, r7, pc}
  77              	.LVL6:
  78              	.L13:
  79              		.loc 1 267 0 discriminator 1
  80 002c 40F20643 		movw	r3, #1030
  81 0030 9C42     		cmp	r4, r3
  82 0032 1ED0     		beq	.L14
  83              		.loc 1 272 0 discriminator 1
  84 0034 40F20743 		movw	r3, #1031
  85 0038 9C42     		cmp	r4, r3
  86 003a 13D0     		beq	.L15
  87              		.loc 1 277 0 discriminator 1
  88 003c 40F20A43 		movw	r3, #1034
  89 0040 9C42     		cmp	r4, r3
  90 0042 F1D1     		bne	.L9
  91              		.loc 1 278 0
  92 0044 0EA3     		adr	r3, .L16
  93 0046 D3E90023 		ldrd	r2, [r3]
  94              		.loc 1 279 0
  95 004a 0120     		movs	r0, #1
  96              		.loc 1 278 0
  97 004c C7E90023 		strd	r2, [r7]
  98              		.loc 1 283 0
  99 0050 F8BD     		pop	{r3, r4, r5, r6, r7, pc}
 100              	.LVL7:
 101              	.L12:
 102              		.loc 1 262 0 discriminator 1
 103 0052 012C     		cmp	r4, #1
 104 0054 E8D1     		bne	.L9
 105              		.loc 1 263 0
 106 0056 0CA3     		adr	r3, .L16+8
 107 0058 D3E90023 		ldrd	r2, [r3]
 108              		.loc 1 264 0
 109 005c 2046     		mov	r0, r4
 110              		.loc 1 263 0
 111 005e C7E90023 		strd	r2, [r7]
 112              		.loc 1 283 0
 113 0062 F8BD     		pop	{r3, r4, r5, r6, r7, pc}
 114              	.LVL8:
ARM GAS  /tmp/ccNpzD1x.s 			page 3


 115              	.L15:
 116              		.loc 1 273 0
 117 0064 0AA3     		adr	r3, .L16+16
 118 0066 D3E90023 		ldrd	r2, [r3]
 119              		.loc 1 274 0
 120 006a 0120     		movs	r0, #1
 121              		.loc 1 273 0
 122 006c C7E90023 		strd	r2, [r7]
 123              		.loc 1 283 0
 124 0070 F8BD     		pop	{r3, r4, r5, r6, r7, pc}
 125              	.LVL9:
 126              	.L14:
 127              		.loc 1 268 0
 128 0072 09A3     		adr	r3, .L16+24
 129 0074 D3E90023 		ldrd	r2, [r3]
 130              		.loc 1 269 0
 131 0078 0120     		movs	r0, #1
 132              		.loc 1 268 0
 133 007a C7E90023 		strd	r2, [r7]
 134              		.loc 1 283 0
 135 007e F8BD     		pop	{r3, r4, r5, r6, r7, pc}
 136              	.LVL10:
 137              	.L17:
 138              		.align	3
 139              	.L16:
 140 0080 54B2FBA2 		.word	-1560563116
 141 0084 AE28AFA9 		.word	-1448138578
 142 0088 9E6AC421 		.word	566520478
 143 008c 818A46EE 		.word	-297366911
 144 0090 0BE7F71C 		.word	486008587
 145 0094 629F0FCE 		.word	-837836958
 146 0098 1D95ECD7 		.word	-672361187
 147 009c 875C7F21 		.word	561994887
 148 00a0 00000000 		.word	.LANCHOR0
 149 00a4 00000000 		.word	.LC0
 150              		.cfi_endproc
 151              	.LFE264:
 152              		.size	shouldAcceptTransfer, .-shouldAcceptTransfer
 153              		.section	.text.makeNodeStatusMessage,"ax",%progbits
 154              		.align	1
 155              		.p2align 4,,15
 156              		.syntax unified
 157              		.thumb
 158              		.thumb_func
 159              		.fpu fpv4-sp-d16
 160              		.type	makeNodeStatusMessage, %function
 161              	makeNodeStatusMessage:
 162              	.LFB262:
 163              		.loc 1 141 0
 164              		.cfi_startproc
 165              		@ args = 0, pretend = 0, frame = 8
 166              		@ frame_needed = 0, uses_anonymous_args = 0
 167              	.LVL11:
 168 0000 10B5     		push	{r4, lr}
 169              		.cfi_def_cfa_offset 8
 170              		.cfi_offset 4, -8
 171              		.cfi_offset 14, -4
ARM GAS  /tmp/ccNpzD1x.s 			page 4


 172              		.loc 1 142 0
 173 0002 0021     		movs	r1, #0
 174              	.LBB40:
 175              	.LBB41:
 176              		.file 2 "ChibiOS_3.0.2/os/rt/include/chvt.h"
 177              		.loc 2 231 0
 178 0004 104B     		ldr	r3, .L20
 179              	.LBE41:
 180              	.LBE40:
 181              		.loc 1 142 0
 182 0006 0160     		str	r1, [r0]
 183 0008 C0F80310 		str	r1, [r0, #3]	@ unaligned
 184              	.LBB43:
 185              	.LBB42:
 186              		.loc 2 231 0
 187 000c 9B6A     		ldr	r3, [r3, #40]
 188              	.LBE42:
 189              	.LBE43:
 190              		.loc 1 143 0
 191 000e 0F4A     		ldr	r2, .L20+4
 192 0010 03F51C53 		add	r3, r3, #9984
 193              		.loc 1 141 0
 194 0014 82B0     		sub	sp, sp, #8
 195              		.cfi_def_cfa_offset 16
 196              		.loc 1 143 0
 197 0016 0F33     		adds	r3, r3, #15
 198 0018 A2FB0332 		umull	r3, r2, r2, r3
 199 001c 02AB     		add	r3, sp, #8
 200 001e 520B     		lsrs	r2, r2, #13
 201              		.loc 1 141 0
 202 0020 0446     		mov	r4, r0
 203              		.loc 1 143 0
 204 0022 43F8042D 		str	r2, [r3, #-4]!
 205              		.loc 1 144 0
 206 0026 2022     		movs	r2, #32
 207 0028 FFF7FEFF 		bl	canardEncodeScalar
 208              	.LVL12:
 209              		.loc 1 145 0
 210 002c 2046     		mov	r0, r4
 211 002e 084B     		ldr	r3, .L20+8
 212 0030 0222     		movs	r2, #2
 213 0032 2021     		movs	r1, #32
 214 0034 FFF7FEFF 		bl	canardEncodeScalar
 215              	.LVL13:
 216              		.loc 1 146 0
 217 0038 2046     		mov	r0, r4
 218 003a 064B     		ldr	r3, .L20+12
 219 003c 0322     		movs	r2, #3
 220 003e 2221     		movs	r1, #34
 221 0040 FFF7FEFF 		bl	canardEncodeScalar
 222              	.LVL14:
 223              		.loc 1 147 0
 224 0044 02B0     		add	sp, sp, #8
 225              		.cfi_def_cfa_offset 8
 226              		@ sp needed
 227 0046 10BD     		pop	{r4, pc}
 228              	.LVL15:
ARM GAS  /tmp/ccNpzD1x.s 			page 5


 229              	.L21:
 230              		.align	2
 231              	.L20:
 232 0048 00000000 		.word	ch
 233 004c 5917B7D1 		.word	-776530087
 234 0050 00000000 		.word	.LANCHOR1
 235 0054 00000000 		.word	.LANCHOR2
 236              		.cfi_endproc
 237              	.LFE262:
 238              		.size	makeNodeStatusMessage, .-makeNodeStatusMessage
 239              		.section	.text.onTransferReceived,"ax",%progbits
 240              		.align	1
 241              		.p2align 4,,15
 242              		.syntax unified
 243              		.thumb
 244              		.thumb_func
 245              		.fpu fpv4-sp-d16
 246              		.type	onTransferReceived, %function
 247              	onTransferReceived:
 248              	.LFB263:
 249              		.loc 1 152 0
 250              		.cfi_startproc
 251              		@ args = 0, pretend = 0, frame = 392
 252              		@ frame_needed = 0, uses_anonymous_args = 0
 253              	.LVL16:
 254 0000 F0B5     		push	{r4, r5, r6, r7, lr}
 255              		.cfi_def_cfa_offset 20
 256              		.cfi_offset 4, -20
 257              		.cfi_offset 5, -16
 258              		.cfi_offset 6, -12
 259              		.cfi_offset 7, -8
 260              		.cfi_offset 14, -4
 261              		.loc 1 153 0
 262 0002 754B     		ldr	r3, .L49+8
 263 0004 0D7E     		ldrb	r5, [r1, #24]	@ zero_extendqisi2
 264 0006 1B68     		ldr	r3, [r3]
 265 0008 002B     		cmp	r3, #0
 266              		.loc 1 152 0
 267 000a E9B0     		sub	sp, sp, #420
 268              		.cfi_def_cfa_offset 440
 269              		.loc 1 152 0
 270 000c 0C46     		mov	r4, r1
 271 000e 0746     		mov	r7, r0
 272              		.loc 1 153 0
 273 0010 06DD     		ble	.L23
 274              		.loc 1 154 0
 275 0012 2A46     		mov	r2, r5
 276 0014 CB8A     		ldrh	r3, [r1, #22]
 277 0016 7148     		ldr	r0, .L49+12
 278              	.LVL17:
 279 0018 C97E     		ldrb	r1, [r1, #27]	@ zero_extendqisi2
 280              	.LVL18:
 281 001a FFF7FEFF 		bl	commands_printf
 282              	.LVL19:
 283 001e 257E     		ldrb	r5, [r4, #24]	@ zero_extendqisi2
 284              	.L23:
 285              		.loc 1 158 0
ARM GAS  /tmp/ccNpzD1x.s 			page 6


 286 0020 012D     		cmp	r5, #1
 287 0022 2ED0     		beq	.L45
 288              		.loc 1 199 0
 289 0024 022D     		cmp	r5, #2
 290 0026 01D0     		beq	.L46
 291              	.LVL20:
 292              	.L22:
 293              		.loc 1 240 0
 294 0028 69B0     		add	sp, sp, #420
 295              		.cfi_remember_state
 296              		.cfi_def_cfa_offset 20
 297              		@ sp needed
 298 002a F0BD     		pop	{r4, r5, r6, r7, pc}
 299              	.LVL21:
 300              	.L46:
 301              		.cfi_restore_state
 302              		.loc 1 200 0 discriminator 1
 303 002c E38A     		ldrh	r3, [r4, #22]
 304              		.loc 1 199 0 discriminator 1
 305 002e 40F20642 		movw	r2, #1030
 306 0032 9342     		cmp	r3, r2
 307 0034 66D0     		beq	.L47
 308              		.loc 1 212 0 discriminator 1
 309 0036 40F20742 		movw	r2, #1031
 310 003a 9342     		cmp	r3, r2
 311 003c 00F08D80 		beq	.L48
 312              		.loc 1 225 0 discriminator 1
 313 0040 40F20A42 		movw	r2, #1034
 314 0044 9342     		cmp	r3, r2
 315 0046 EFD1     		bne	.L22
 316              	.LBB44:
 317              		.loc 1 228 0
 318 0048 0025     		movs	r5, #0
 319 004a 0123     		movs	r3, #1
 320 004c 09AE     		add	r6, sp, #36
 321 004e A18A     		ldrh	r1, [r4, #20]
 322 0050 3246     		mov	r2, r6
 323 0052 CDE90053 		strd	r5, r3, [sp]
 324 0056 2046     		mov	r0, r4
 325 0058 2B46     		mov	r3, r5
 326 005a FFF7FEFF 		bl	uavcan_equipment_esc_Status_decode_internal
 327              	.LVL22:
 328 005e A842     		cmp	r0, r5
 329 0060 E2DB     		blt	.L22
 330 0062 94F81BC0 		ldrb	ip, [r4, #27]	@ zero_extendqisi2
 331 0066 5E4F     		ldr	r7, .L49+16
 332              	.LVL23:
 333              	.LBB45:
 334              		.loc 1 229 0
 335 0068 2B46     		mov	r3, r5
 336              	.LVL24:
 337              	.L38:
 338              	.LBB46:
 339              		.loc 1 231 0
 340 006a 5C01     		lsls	r4, r3, #5
 341              	.LBE46:
 342              		.loc 1 229 0
ARM GAS  /tmp/ccNpzD1x.s 			page 7


 343 006c 0133     		adds	r3, r3, #1
 344              	.LVL25:
 345              	.LBB51:
 346              		.loc 1 231 0
 347 006e 3A59     		ldr	r2, [r7, r4]
 348 0070 511C     		adds	r1, r2, #1
 349 0072 00F09D80 		beq	.L36
 350              		.loc 1 231 0 is_stmt 0 discriminator 1
 351 0076 6245     		cmp	r2, ip
 352 0078 00F09A80 		beq	.L36
 353              	.LBE51:
 354              		.loc 1 229 0 is_stmt 1 discriminator 2
 355 007c 0A2B     		cmp	r3, #10
 356 007e F4D1     		bne	.L38
 357 0080 D2E7     		b	.L22
 358              	.LVL26:
 359              	.L45:
 360              	.LBE45:
 361              	.LBE44:
 362              		.loc 1 158 0 discriminator 1
 363 0082 E38A     		ldrh	r3, [r4, #22]
 364 0084 012B     		cmp	r3, #1
 365 0086 CFD1     		bne	.L22
 366              	.LBB54:
 367              		.loc 1 162 0
 368 0088 09AE     		add	r6, sp, #36
 369 008a 40F27912 		movw	r2, #377
 370 008e 0021     		movs	r1, #0
 371 0090 3046     		mov	r0, r6
 372 0092 FFF7FEFF 		bl	memset
 373              	.LVL27:
 374              		.loc 1 165 0
 375 0096 3046     		mov	r0, r6
 376 0098 FFF7FEFF 		bl	makeNodeStatusMessage
 377              	.LVL28:
 378              		.loc 1 168 0
 379 009c 0322     		movs	r2, #3
 380              		.loc 1 169 0
 381 009e 3F21     		movs	r1, #63
 382              		.loc 1 172 0
 383 00a0 07AB     		add	r3, sp, #28
 384              		.loc 1 170 0
 385 00a2 7572     		strb	r5, [r6, #9]
 386              		.loc 1 168 0
 387 00a4 F271     		strb	r2, [r6, #7]
 388              		.loc 1 171 0
 389 00a6 0025     		movs	r5, #0
 390              		.loc 1 172 0
 391 00a8 2022     		movs	r2, #32
 392              		.loc 1 169 0
 393 00aa 3172     		strb	r1, [r6, #8]
 394              		.loc 1 172 0
 395 00ac 3046     		mov	r0, r6
 396 00ae 5021     		movs	r1, #80
 397              		.loc 1 171 0
 398 00b0 0795     		str	r5, [sp, #28]
 399              		.loc 1 172 0
ARM GAS  /tmp/ccNpzD1x.s 			page 8


 400 00b2 FFF7FEFF 		bl	canardEncodeScalar
 401              	.LVL29:
 402 00b6 2B46     		mov	r3, r5
 403 00b8 0FAA     		add	r2, sp, #60
 404              	.LVL30:
 405              	.L26:
 406              	.LBB55:
 407              	.LBB56:
 408              		.loc 1 137 0
 409 00ba 02F8013B 		strb	r3, [r2], #1
 410              	.LVL31:
 411 00be 0133     		adds	r3, r3, #1
 412              	.LVL32:
 413              		.loc 1 136 0
 414 00c0 102B     		cmp	r3, #16
 415 00c2 FAD1     		bne	.L26
 416              	.LVL33:
 417              	.LBE56:
 418              	.LBE55:
 419              		.loc 1 183 0
 420 00c4 474B     		ldr	r3, .L49+20
 421              		.loc 1 190 0
 422 00c6 0496     		str	r6, [sp, #16]
 423              		.loc 1 183 0
 424 00c8 07CB     		ldmia	r3!, {r0, r1, r2}
 425              		.loc 1 190 0
 426 00ca 94F81BC0 		ldrb	ip, [r4, #27]	@ zero_extendqisi2
 427              		.loc 1 183 0
 428 00ce 1D78     		ldrb	r5, [r3]	@ zero_extendqisi2
 429 00d0 CDF85520 		str	r2, [sp, #85]	@ unaligned
 430              		.loc 1 190 0
 431 00d4 3623     		movs	r3, #54
 432 00d6 A27E     		ldrb	r2, [r4, #26]	@ zero_extendqisi2
 433 00d8 0593     		str	r3, [sp, #20]
 434 00da 0026     		movs	r6, #0
 435 00dc 1934     		adds	r4, r4, #25
 436              	.LVL34:
 437 00de 0123     		movs	r3, #1
 438              		.loc 1 183 0
 439 00e0 CDF84D00 		str	r0, [sp, #77]	@ unaligned
 440 00e4 CDF85110 		str	r1, [sp, #81]	@ unaligned
 441              		.loc 1 190 0
 442 00e8 CDE90226 		strd	r2, r6, [sp, #8]
 443 00ec CDE90034 		strd	r3, r4, [sp]
 444 00f0 3846     		mov	r0, r7
 445 00f2 6146     		mov	r1, ip
 446 00f4 36A3     		adr	r3, .L49
 447 00f6 D3E90023 		ldrd	r2, [r3]
 448              		.loc 1 183 0
 449 00fa 8DF85950 		strb	r5, [sp, #89]
 450              	.LVL35:
 451              		.loc 1 190 0
 452 00fe FFF7FEFF 		bl	canardRequestOrRespond
 453              	.LVL36:
 454              	.LBE54:
 455              		.loc 1 159 0
 456 0102 91E7     		b	.L22
ARM GAS  /tmp/ccNpzD1x.s 			page 9


 457              	.LVL37:
 458              	.L47:
 459              	.LBB57:
 460              		.loc 1 203 0
 461 0104 09AD     		add	r5, sp, #36
 462 0106 2422     		movs	r2, #36
 463 0108 0021     		movs	r1, #0
 464 010a 2846     		mov	r0, r5
 465 010c FFF7FEFF 		bl	memset
 466              	.LVL38:
 467              		.loc 1 206 0
 468 0110 0122     		movs	r2, #1
 469 0112 0023     		movs	r3, #0
 470 0114 A18A     		ldrh	r1, [r4, #20]
 471              		.loc 1 204 0
 472 0116 0695     		str	r5, [sp, #24]
 473              		.loc 1 206 0
 474 0118 CDE90032 		strd	r3, r2, [sp]
 475 011c 2046     		mov	r0, r4
 476 011e 06AB     		add	r3, sp, #24
 477 0120 07AA     		add	r2, sp, #28
 478 0122 FFF7FEFF 		bl	uavcan_equipment_esc_RawCommand_decode_internal
 479              	.LVL39:
 480 0126 0028     		cmp	r0, #0
 481 0128 FFF67EAF 		blt	.L22
 482              		.loc 1 207 0
 483 012c 9DF81C40 		ldrb	r4, [sp, #28]	@ zero_extendqisi2
 484              	.LVL40:
 485 0130 FFF7FEFF 		bl	app_get_configuration
 486              	.LVL41:
 487 0134 437E     		ldrb	r3, [r0, #25]	@ zero_extendqisi2
 488 0136 A342     		cmp	r3, r4
 489 0138 BFF476AF 		bcs	.L22
 490              		.loc 1 208 0
 491 013c 089C     		ldr	r4, [sp, #32]
 492 013e FFF7FEFF 		bl	app_get_configuration
 493              	.LVL42:
 494 0142 437E     		ldrb	r3, [r0, #25]	@ zero_extendqisi2
 495 0144 34F91330 		ldrsh	r3, [r4, r3, lsl #1]
 496 0148 00EE103A 		vmov	s0, r3	@ int
 497 014c BAEEE90A 		vcvt.f32.s32	s0, s0, #13
 498 0150 FFF7FEFF 		bl	mc_interface_set_duty
 499              	.LVL43:
 500              		.loc 1 209 0
 501 0154 FFF7FEFF 		bl	timeout_reset
 502              	.LVL44:
 503              	.LBE57:
 504              		.loc 1 200 0
 505 0158 66E7     		b	.L22
 506              	.LVL45:
 507              	.L48:
 508              	.LBB58:
 509              		.loc 1 216 0
 510 015a 09AD     		add	r5, sp, #36
 511 015c 2E22     		movs	r2, #46
 512 015e 0021     		movs	r1, #0
 513 0160 2846     		mov	r0, r5
ARM GAS  /tmp/ccNpzD1x.s 			page 10


 514 0162 FFF7FEFF 		bl	memset
 515              	.LVL46:
 516              		.loc 1 219 0
 517 0166 0122     		movs	r2, #1
 518 0168 0023     		movs	r3, #0
 519 016a A18A     		ldrh	r1, [r4, #20]
 520              		.loc 1 217 0
 521 016c 0695     		str	r5, [sp, #24]
 522              		.loc 1 219 0
 523 016e CDE90032 		strd	r3, r2, [sp]
 524 0172 2046     		mov	r0, r4
 525 0174 06AB     		add	r3, sp, #24
 526 0176 07AA     		add	r2, sp, #28
 527 0178 FFF7FEFF 		bl	uavcan_equipment_esc_RPMCommand_decode_internal
 528              	.LVL47:
 529 017c 0028     		cmp	r0, #0
 530 017e FFF653AF 		blt	.L22
 531              		.loc 1 220 0
 532 0182 9DF81C40 		ldrb	r4, [sp, #28]	@ zero_extendqisi2
 533              	.LVL48:
 534 0186 FFF7FEFF 		bl	app_get_configuration
 535              	.LVL49:
 536 018a 437E     		ldrb	r3, [r0, #25]	@ zero_extendqisi2
 537 018c A342     		cmp	r3, r4
 538 018e BFF44BAF 		bcs	.L22
 539              		.loc 1 221 0
 540 0192 089C     		ldr	r4, [sp, #32]
 541 0194 FFF7FEFF 		bl	app_get_configuration
 542              	.LVL50:
 543 0198 437E     		ldrb	r3, [r0, #25]	@ zero_extendqisi2
 544 019a 54F82330 		ldr	r3, [r4, r3, lsl #2]
 545 019e 00EE103A 		vmov	s0, r3	@ int
 546 01a2 B8EEC00A 		vcvt.f32.s32	s0, s0
 547 01a6 FFF7FEFF 		bl	mc_interface_set_pid_speed
 548              	.LVL51:
 549              		.loc 1 222 0
 550 01aa FFF7FEFF 		bl	timeout_reset
 551              	.LVL52:
 552              	.LBE58:
 553              		.loc 1 213 0
 554 01ae 3BE7     		b	.L22
 555              	.LVL53:
 556              	.L36:
 557              	.LBB59:
 558              	.LBB53:
 559              	.LBB52:
 560              		.loc 1 234 0
 561 01b0 0FCE     		ldmia	r6!, {r0, r1, r2, r3}
 562              	.LVL54:
 563              		.loc 1 232 0
 564 01b2 3D19     		adds	r5, r7, r4
 565 01b4 47F804C0 		str	ip, [r7, r4]
 566              		.loc 1 234 0
 567 01b8 05F10804 		add	r4, r5, #8
 568 01bc 0FC4     		stmia	r4!, {r0, r1, r2, r3}
 569              	.LBB47:
 570              	.LBB48:
ARM GAS  /tmp/ccNpzD1x.s 			page 11


 571              		.loc 2 231 0
 572 01be 0A4B     		ldr	r3, .L49+24
 573              	.LBE48:
 574              	.LBE47:
 575              		.loc 1 234 0
 576 01c0 96E80300 		ldm	r6, {r0, r1}
 577              	.LBB50:
 578              	.LBB49:
 579              		.loc 2 231 0
 580 01c4 9B6A     		ldr	r3, [r3, #40]
 581              	.LBE49:
 582              	.LBE50:
 583              		.loc 1 233 0
 584 01c6 6B60     		str	r3, [r5, #4]
 585              		.loc 1 234 0
 586 01c8 84E80300 		stm	r4, {r0, r1}
 587              		.loc 1 235 0
 588 01cc 2CE7     		b	.L22
 589              	.L50:
 590 01ce 00BF     		.align	3
 591              	.L49:
 592 01d0 9E6AC421 		.word	566520478
 593 01d4 818A46EE 		.word	-297366911
 594 01d8 00000000 		.word	.LANCHOR0
 595 01dc 00000000 		.word	.LC1
 596 01e0 00000000 		.word	.LANCHOR3
 597 01e4 30000000 		.word	.LC2
 598 01e8 00000000 		.word	ch
 599              	.LBE52:
 600              	.LBE53:
 601              	.LBE59:
 602              		.cfi_endproc
 603              	.LFE263:
 604              		.size	onTransferReceived, .-onTransferReceived
 605              		.section	.text.canard_thread,"ax",%progbits
 606              		.align	1
 607              		.p2align 4,,15
 608              		.syntax unified
 609              		.thumb
 610              		.thumb_func
 611              		.fpu fpv4-sp-d16
 612              		.type	canard_thread, %function
 613              	canard_thread:
 614              	.LFB266:
 615              		.loc 1 301 0
 616              		.cfi_startproc
 617              		@ args = 0, pretend = 0, frame = 40
 618              		@ frame_needed = 0, uses_anonymous_args = 0
 619              	.LVL55:
 620 0000 2DE9F04F 		push	{r4, r5, r6, r7, r8, r9, r10, fp, lr}
 621              		.cfi_def_cfa_offset 36
 622              		.cfi_offset 4, -36
 623              		.cfi_offset 5, -32
 624              		.cfi_offset 6, -28
 625              		.cfi_offset 7, -24
 626              		.cfi_offset 8, -20
 627              		.cfi_offset 9, -16
ARM GAS  /tmp/ccNpzD1x.s 			page 12


 628              		.cfi_offset 10, -12
 629              		.cfi_offset 11, -8
 630              		.cfi_offset 14, -4
 631              	.LBB84:
 632              	.LBB85:
 633              		.file 3 "ChibiOS_3.0.2/os/rt/include/chregistry.h"
 634              		.loc 3 135 0
 635 0004 884C     		ldr	r4, .L72+16
 636              	.LBE85:
 637              	.LBE84:
 638              		.loc 1 305 0
 639 0006 894B     		ldr	r3, .L72+20
 640              	.LBB88:
 641              	.LBB86:
 642              		.loc 3 135 0
 643 0008 A269     		ldr	r2, [r4, #24]
 644 000a 8949     		ldr	r1, .L72+24
 645              	.LBE86:
 646              	.LBE88:
 647              		.loc 1 305 0
 648 000c 8948     		ldr	r0, .L72+28
 649              	.LVL56:
 650              	.LBB89:
 651              	.LBB90:
 652              		.loc 1 333 0
 653 000e 8A4D     		ldr	r5, .L72+32
 654              	.LBE90:
 655              	.LBE89:
 656              		.loc 1 301 0
 657 0010 2DED048B 		vpush.64	{d8, d9}
 658              		.cfi_def_cfa_offset 52
 659              		.cfi_offset 80, -52
 660              		.cfi_offset 81, -48
 661              		.cfi_offset 82, -44
 662              		.cfi_offset 83, -40
 663              		.loc 1 305 0
 664 0014 0026     		movs	r6, #0
 665              		.loc 1 301 0
 666 0016 91B0     		sub	sp, sp, #68
 667              		.cfi_def_cfa_offset 120
 668              	.LBB118:
 669              	.LBB87:
 670              		.loc 3 135 0
 671 0018 9161     		str	r1, [r2, #24]
 672              	.LVL57:
 673              	.LBE87:
 674              	.LBE118:
 675              		.loc 1 305 0
 676 001a CDE90036 		strd	r3, r6, [sp]
 677 001e 8749     		ldr	r1, .L72+36
 678 0020 874B     		ldr	r3, .L72+40
 679              	.LBB119:
 680              	.LBB93:
 681              	.LBB94:
 682              		.loc 1 117 0
 683 0022 9FED889A 		vldr.32	s18, .L72+44
 684              		.loc 1 119 0
ARM GAS  /tmp/ccNpzD1x.s 			page 13


 685 0026 DFED888A 		vldr.32	s17, .L72+48
 686              	.LBE94:
 687              	.LBE93:
 688              	.LBE119:
 689              		.loc 1 305 0
 690 002a 4FF48062 		mov	r2, #1024
 691 002e FFF7FEFF 		bl	canardInit
 692              	.LVL58:
 693              		.loc 1 308 0
 694 0032 B346     		mov	fp, r6
 695              		.loc 1 307 0
 696 0034 B246     		mov	r10, r6
 697 0036 0DF12808 		add	r8, sp, #40
 698              	.LVL59:
 699              	.L52:
 700              	.LBB120:
 701              		.loc 1 311 0
 702 003a FFF7FEFF 		bl	app_get_configuration
 703              	.LVL60:
 704              		.loc 1 313 0
 705 003e 037E     		ldrb	r3, [r0, #24]	@ zero_extendqisi2
 706              		.loc 1 311 0
 707 0040 8146     		mov	r9, r0
 708              	.LVL61:
 709              		.loc 1 313 0
 710 0042 4BB9     		cbnz	r3, .L53
 711              	.L67:
 712              		.loc 1 314 0
 713 0044 4FF47A70 		mov	r0, #1000
 714              	.LVL62:
 715 0048 FFF7FEFF 		bl	chThdSleep
 716              	.LVL63:
 717              		.loc 1 311 0
 718 004c FFF7FEFF 		bl	app_get_configuration
 719              	.LVL64:
 720              		.loc 1 313 0
 721 0050 037E     		ldrb	r3, [r0, #24]	@ zero_extendqisi2
 722              		.loc 1 311 0
 723 0052 8146     		mov	r9, r0
 724              	.LVL65:
 725              		.loc 1 313 0
 726 0054 002B     		cmp	r3, #0
 727 0056 F5D0     		beq	.L67
 728              	.L53:
 729              		.loc 1 318 0
 730 0058 0178     		ldrb	r1, [r0]	@ zero_extendqisi2
 731 005a 7648     		ldr	r0, .L72+28
 732              	.LVL66:
 733              	.LBB96:
 734              		.loc 1 333 0
 735 005c 7B4F     		ldr	r7, .L72+52
 736 005e 754E     		ldr	r6, .L72+28
 737              	.LBE96:
 738              		.loc 1 318 0
 739 0060 FFF7FEFF 		bl	canardSetLocalNodeID
 740              	.LVL67:
 741              		.loc 1 321 0
ARM GAS  /tmp/ccNpzD1x.s 			page 14


 742 0064 1CE0     		b	.L55
 743              	.LVL68:
 744              	.L69:
 745              	.LBB97:
 746              		.loc 1 325 0
 747 0066 8268     		ldr	r2, [r0, #8]
 748 0068 C2F31C02 		ubfx	r2, r2, #0, #29
 749 006c 42F00042 		orr	r2, r2, #-2147483648
 750 0070 0A92     		str	r2, [sp, #40]
 751              	.L57:
 752              		.loc 1 330 0
 753 0072 C3F30303 		ubfx	r3, r3, #0, #4
 754              		.loc 1 331 0
 755 0076 1A46     		mov	r2, r3
 756 0078 00F10C01 		add	r1, r0, #12
 757 007c 0BA8     		add	r0, sp, #44
 758              	.LVL69:
 759              		.loc 1 330 0
 760 007e 8DF83430 		strb	r3, [sp, #52]
 761              		.loc 1 331 0
 762 0082 FFF7FEFF 		bl	memcpy
 763              	.LVL70:
 764              	.LBB91:
 765              	.LBB92:
 766              		.loc 2 231 0
 767 0086 A26A     		ldr	r2, [r4, #40]
 768              	.LBE92:
 769              	.LBE91:
 770              		.loc 1 333 0
 771 0088 42F20F73 		movw	r3, #9999
 772 008c 07FB0232 		mla	r2, r7, r2, r3
 773 0090 A5FB0232 		umull	r3, r2, r5, r2
 774 0094 520B     		lsrs	r2, r2, #13
 775 0096 0023     		movs	r3, #0
 776 0098 4146     		mov	r1, r8
 777 009a 3046     		mov	r0, r6
 778 009c FFF7FEFF 		bl	canardHandleRxFrame
 779              	.LVL71:
 780              	.L55:
 781              	.LBE97:
 782              		.loc 1 321 0
 783 00a0 FFF7FEFF 		bl	comm_can_get_rx_frame
 784              	.LVL72:
 785 00a4 38B1     		cbz	r0, .L68
 786              	.LBB98:
 787              		.loc 1 324 0
 788 00a6 0379     		ldrb	r3, [r0, #4]	@ zero_extendqisi2
 789 00a8 9A06     		lsls	r2, r3, #26
 790 00aa DCD4     		bmi	.L69
 791              		.loc 1 327 0
 792 00ac 0289     		ldrh	r2, [r0, #8]
 793 00ae C2F30A02 		ubfx	r2, r2, #0, #11
 794 00b2 0A92     		str	r2, [sp, #40]
 795 00b4 DDE7     		b	.L57
 796              	.L68:
 797              	.LBE98:
 798              	.LBB99:
ARM GAS  /tmp/ccNpzD1x.s 			page 15


 799              		.loc 1 336 0
 800 00b6 5F4E     		ldr	r6, .L72+28
 801 00b8 06E0     		b	.L59
 802              	.LVL73:
 803              	.L60:
 804              		.loc 1 337 0
 805 00ba 027B     		ldrb	r2, [r0, #12]	@ zero_extendqisi2
 806 00bc 0068     		ldr	r0, [r0]
 807              	.LVL74:
 808 00be FFF7FEFF 		bl	comm_can_transmit_eid
 809              	.LVL75:
 810              		.loc 1 338 0
 811 00c2 3046     		mov	r0, r6
 812 00c4 FFF7FEFF 		bl	canardPopTxQueue
 813              	.LVL76:
 814              	.L59:
 815              		.loc 1 336 0 discriminator 1
 816 00c8 3046     		mov	r0, r6
 817 00ca FFF7FEFF 		bl	canardPeekTxQueue
 818              	.LVL77:
 819              		.loc 1 337 0 discriminator 1
 820 00ce 011D     		adds	r1, r0, #4
 821              		.loc 1 336 0 discriminator 1
 822 00d0 0028     		cmp	r0, #0
 823 00d2 F2D1     		bne	.L60
 824              	.LVL78:
 825              	.LBE99:
 826              	.LBB100:
 827              	.LBB101:
 828              	.LBB102:
 829              	.LBB103:
 830              		.loc 2 231 0
 831 00d4 A26A     		ldr	r2, [r4, #40]
 832              	.LVL79:
 833 00d6 0346     		mov	r3, r0
 834              	.LBE103:
 835              	.LBE102:
 836              		.loc 2 267 0
 837 00d8 A2EB0A02 		sub	r2, r2, r10
 838              	.LBE101:
 839              	.LBE100:
 840              		.loc 1 341 0
 841 00dc 4FF47A70 		mov	r0, #1000
 842              	.LVL80:
 843 00e0 42F20F71 		movw	r1, #9999
 844 00e4 00FB0212 		mla	r2, r0, r2, r1
 845 00e8 5948     		ldr	r0, .L72+56
 846 00ea 8242     		cmp	r2, r0
 847 00ec 18D8     		bhi	.L70
 848              	.LVL81:
 849              	.L61:
 850              	.LBB104:
 851              	.LBB105:
 852              	.LBB106:
 853              	.LBB107:
 854              		.loc 2 231 0
 855 00ee A36A     		ldr	r3, [r4, #40]
ARM GAS  /tmp/ccNpzD1x.s 			page 16


 856              	.LVL82:
 857              	.LBE107:
 858              	.LBE106:
 859              	.LBE105:
 860              	.LBE104:
 861              		.loc 1 358 0
 862 00f0 D9F81020 		ldr	r2, [r9, #16]
 863 00f4 4FF47A71 		mov	r1, #1000
 864 00f8 42F20F70 		movw	r0, #9999
 865              	.LBB109:
 866              	.LBB108:
 867              		.loc 2 267 0
 868 00fc A3EB0B03 		sub	r3, r3, fp
 869              	.LBE108:
 870              	.LBE109:
 871              		.loc 1 358 0
 872 0100 01FB0303 		mla	r3, r1, r3, r0
 873 0104 A5FB0303 		umull	r0, r3, r5, r3
 874 0108 B1FBF2F2 		udiv	r2, r1, r2
 875 010c B2EB533F 		cmp	r2, r3, lsr #13
 876 0110 02D8     		bhi	.L62
 877              		.loc 1 358 0 is_stmt 0 discriminator 1
 878 0112 99F80C30 		ldrb	r3, [r9, #12]	@ zero_extendqisi2
 879 0116 23BB     		cbnz	r3, .L71
 880              	.LVL83:
 881              	.L62:
 882              		.loc 1 364 0 is_stmt 1
 883 0118 0A20     		movs	r0, #10
 884 011a FFF7FEFF 		bl	chThdSleep
 885              	.LVL84:
 886 011e 8CE7     		b	.L52
 887              	.LVL85:
 888              	.L70:
 889              	.LBB110:
 890              	.LBB111:
 891              	.LBB112:
 892              		.loc 2 231 0
 893 0120 D4F828A0 		ldr	r10, [r4, #40]
 894              	.LVL86:
 895              	.LBE112:
 896              	.LBE111:
 897              		.loc 1 343 0
 898 0124 494E     		ldr	r6, .L72+52
 899              	.LBB113:
 900              	.LBB114:
 901              		.loc 2 231 0
 902 0126 A26A     		ldr	r2, [r4, #40]
 903              	.LBE114:
 904              	.LBE113:
 905              		.loc 1 343 0
 906 0128 4248     		ldr	r0, .L72+28
 907 012a 06FB0212 		mla	r2, r6, r2, r1
 908 012e A5FB0212 		umull	r1, r2, r5, r2
 909 0132 520B     		lsrs	r2, r2, #13
 910 0134 FFF7FEFF 		bl	canardCleanupStaleTransfers
 911              	.LVL87:
 912              		.loc 1 346 0
ARM GAS  /tmp/ccNpzD1x.s 			page 17


 913 0138 4046     		mov	r0, r8
 914 013a FFF7FEFF 		bl	makeNodeStatusMessage
 915              	.LVL88:
 916              		.loc 1 349 0
 917 013e 0721     		movs	r1, #7
 918 0140 1822     		movs	r2, #24
 919 0142 40F25513 		movw	r3, #341
 920 0146 4348     		ldr	r0, .L72+60
 921 0148 0190     		str	r0, [sp, #4]
 922 014a 0292     		str	r2, [sp, #8]
 923 014c 0093     		str	r3, [sp]
 924 014e CDF80C80 		str	r8, [sp, #12]
 925 0152 0491     		str	r1, [sp, #16]
 926 0154 30A3     		adr	r3, .L72
 927 0156 D3E90023 		ldrd	r2, [r3]
 928 015a 3648     		ldr	r0, .L72+28
 929 015c FFF7FEFF 		bl	canardBroadcast
 930              	.LVL89:
 931 0160 C5E7     		b	.L61
 932              	.LVL90:
 933              	.L71:
 934              	.LBE110:
 935              	.LBB115:
 936              	.LBB116:
 937              		.loc 2 231 0
 938 0162 D4F828B0 		ldr	fp, [r4, #40]
 939              	.LVL91:
 940              	.LBE116:
 941              	.LBE115:
 942              	.LBB117:
 943              	.LBB95:
 944              		.loc 1 112 0
 945 0166 FFF7FEFF 		bl	mc_interface_get_tot_current
 946              	.LVL92:
 947 016a 8DED0C0A 		vstr.32	s0, [sp, #48]
 948              		.loc 1 113 0
 949 016e FFF7FEFF 		bl	mc_interface_get_fault
 950              	.LVL93:
 951 0172 0A90     		str	r0, [sp, #40]
 952              		.loc 1 114 0
 953 0174 FFF7FEFF 		bl	app_get_configuration
 954              	.LVL94:
 955 0178 437E     		ldrb	r3, [r0, #25]	@ zero_extendqisi2
 956 017a 8DF83D30 		strb	r3, [sp, #61]
 957              		.loc 1 115 0
 958 017e FFF7FEFF 		bl	mc_interface_get_tot_current
 959              	.LVL95:
 960 0182 B0EE408A 		vmov.f32	s16, s0
 961              		.loc 1 116 0
 962 0186 FFF7FEFF 		bl	mc_interface_get_configuration
 963              	.LVL96:
 964 018a D0ED017A 		vldr.32	s15, [r0, #4]
 965              		.loc 1 115 0
 966 018e B0EEC80A 		vabs.f32	s0, s16
 967 0192 80EE278A 		vdiv.f32	s16, s0, s15
 968              		.loc 1 117 0
 969 0196 FFF7FEFF 		bl	mc_interface_get_configuration
ARM GAS  /tmp/ccNpzD1x.s 			page 18


 970              	.LVL97:
 971 019a D0ED197A 		vldr.32	s15, [r0, #100]
 972              		.loc 1 116 0
 973 019e 68EE277A 		vmul.f32	s15, s16, s15
 974              		.loc 1 117 0
 975 01a2 67EE897A 		vmul.f32	s15, s15, s18
 976              		.loc 1 115 0
 977 01a6 FCEEE77A 		vcvt.u32.f32	s15, s15
 978 01aa 17EE903A 		vmov	r3, s15	@ int
 979 01ae 8DF83C30 		strb	r3, [sp, #60]
 980              		.loc 1 118 0
 981 01b2 FFF7FEFF 		bl	mc_interface_get_rpm
 982              	.LVL98:
 983 01b6 BDEEC00A 		vcvt.s32.f32	s0, s0
 984 01ba 8DED0E0A 		vstr.32	s0, [sp, #56]	@ int
 985              		.loc 1 119 0
 986 01be FFF7FEFF 		bl	mc_interface_temp_fet_filtered
 987              	.LVL99:
 988              		.loc 1 120 0
 989 01c2 254B     		ldr	r3, .L72+64
 990 01c4 9FED257A 		vldr.32	s14, .L72+68
 991 01c8 DB8A     		ldrh	r3, [r3, #22]
 992 01ca DFED257A 		vldr.32	s15, .L72+72
 993 01ce 06EE903A 		vmov	s13, r3	@ int
 994 01d2 F8EE666A 		vcvt.f32.u32	s13, s13
 995              		.loc 1 119 0
 996 01d6 30EE280A 		vadd.f32	s0, s0, s17
 997              		.loc 1 120 0
 998 01da 26EE877A 		vmul.f32	s14, s13, s14
 999              		.loc 1 122 0
 1000 01de 06A9     		add	r1, sp, #24
 1001              		.loc 1 120 0
 1002 01e0 67EE277A 		vmul.f32	s15, s14, s15
 1003              		.loc 1 122 0
 1004 01e4 4046     		mov	r0, r8
 1005              		.loc 1 119 0
 1006 01e6 8DED0D0A 		vstr.32	s0, [sp, #52]
 1007              		.loc 1 120 0
 1008 01ea CDED0B7A 		vstr.32	s15, [sp, #44]
 1009              		.loc 1 122 0
 1010 01ee FFF7FEFF 		bl	uavcan_equipment_esc_Status_encode
 1011              	.LVL100:
 1012              		.loc 1 126 0
 1013 01f2 1822     		movs	r2, #24
 1014 01f4 0DEB0200 		add	r0, sp, r2
 1015 01f8 0E21     		movs	r1, #14
 1016 01fa 40F20A43 		movw	r3, #1034
 1017 01fe 0390     		str	r0, [sp, #12]
 1018 0200 1848     		ldr	r0, .L72+76
 1019 0202 0190     		str	r0, [sp, #4]
 1020 0204 0292     		str	r2, [sp, #8]
 1021 0206 0093     		str	r3, [sp]
 1022 0208 0491     		str	r1, [sp, #16]
 1023 020a 05A3     		adr	r3, .L72+8
 1024 020c D3E90023 		ldrd	r2, [r3]
 1025 0210 0848     		ldr	r0, .L72+28
 1026 0212 FFF7FEFF 		bl	canardBroadcast
ARM GAS  /tmp/ccNpzD1x.s 			page 19


 1027              	.LVL101:
 1028 0216 7FE7     		b	.L62
 1029              	.L73:
 1030              		.align	3
 1031              	.L72:
 1032 0218 F1C6A7C1 		.word	-1045969167
 1033 021c D068080F 		.word	252209360
 1034 0220 54B2FBA2 		.word	-1560563116
 1035 0224 AE28AFA9 		.word	-1448138578
 1036 0228 00000000 		.word	ch
 1037 022c 00000000 		.word	shouldAcceptTransfer
 1038 0230 00000000 		.word	.LC3
 1039 0234 00000000 		.word	.LANCHOR5
 1040 0238 5917B7D1 		.word	-776530087
 1041 023c 00000000 		.word	.LANCHOR4
 1042 0240 00000000 		.word	onTransferReceived
 1043 0244 0000C842 		.word	1120403456
 1044 0248 33938843 		.word	1133024051
 1045 024c 40420F00 		.word	1000000
 1046 0250 7F969800 		.word	9999999
 1047 0254 00000000 		.word	.LANCHOR6
 1048 0258 00000000 		.word	ADC_Value
 1049 025c C07B523A 		.word	978484160
 1050 0260 BAE8B241 		.word	1102244026
 1051 0264 00000000 		.word	.LANCHOR7
 1052              	.LBE95:
 1053              	.LBE117:
 1054              	.LBE120:
 1055              		.cfi_endproc
 1056              	.LFE266:
 1057              		.size	canard_thread, .-canard_thread
 1058              		.section	.text.terminal_debug_on,"ax",%progbits
 1059              		.align	1
 1060              		.p2align 4,,15
 1061              		.syntax unified
 1062              		.thumb
 1063              		.thumb_func
 1064              		.fpu fpv4-sp-d16
 1065              		.type	terminal_debug_on, %function
 1066              	terminal_debug_on:
 1067              	.LFB265:
 1068              		.loc 1 285 0
 1069              		.cfi_startproc
 1070              		@ args = 0, pretend = 0, frame = 8
 1071              		@ frame_needed = 0, uses_anonymous_args = 0
 1072              	.LVL102:
 1073 0000 00B5     		push	{lr}
 1074              		.cfi_def_cfa_offset 4
 1075              		.cfi_offset 14, -4
 1076              		.loc 1 286 0
 1077 0002 0228     		cmp	r0, #2
 1078              		.loc 1 285 0
 1079 0004 83B0     		sub	sp, sp, #12
 1080              		.cfi_def_cfa_offset 16
 1081              		.loc 1 286 0
 1082 0006 05D0     		beq	.L80
 1083              		.loc 1 297 0
ARM GAS  /tmp/ccNpzD1x.s 			page 20


 1084 0008 0F48     		ldr	r0, .L81
 1085              	.LVL103:
 1086 000a FFF7FEFF 		bl	commands_printf
 1087              	.LVL104:
 1088              		.loc 1 299 0
 1089 000e 03B0     		add	sp, sp, #12
 1090              		.cfi_remember_state
 1091              		.cfi_def_cfa_offset 4
 1092              		@ sp needed
 1093 0010 5DF804FB 		ldr	pc, [sp], #4
 1094              	.LVL105:
 1095              	.L80:
 1096              		.cfi_restore_state
 1097              	.LBB124:
 1098              	.LBB125:
 1099              		.loc 1 287 0
 1100 0014 02AA     		add	r2, sp, #8
 1101 0016 4FF0FF33 		mov	r3, #-1
 1102              		.loc 1 288 0
 1103 001a 4868     		ldr	r0, [r1, #4]
 1104              	.LVL106:
 1105              		.loc 1 287 0
 1106 001c 42F8043D 		str	r3, [r2, #-4]!
 1107              		.loc 1 288 0
 1108 0020 0A49     		ldr	r1, .L81+4
 1109              	.LVL107:
 1110 0022 FFF7FEFF 		bl	sscanf
 1111              	.LVL108:
 1112              		.loc 1 290 0
 1113 0026 0199     		ldr	r1, [sp, #4]
 1114 0028 0029     		cmp	r1, #0
 1115 002a 07DB     		blt	.L76
 1116              		.loc 1 291 0
 1117 002c 084B     		ldr	r3, .L81+8
 1118              		.loc 1 292 0
 1119 002e 0948     		ldr	r0, .L81+12
 1120              		.loc 1 291 0
 1121 0030 1960     		str	r1, [r3]
 1122              		.loc 1 292 0
 1123 0032 FFF7FEFF 		bl	commands_printf
 1124              	.LVL109:
 1125              	.LBE125:
 1126              	.LBE124:
 1127              		.loc 1 299 0
 1128 0036 03B0     		add	sp, sp, #12
 1129              		.cfi_remember_state
 1130              		.cfi_def_cfa_offset 4
 1131              		@ sp needed
 1132 0038 5DF804FB 		ldr	pc, [sp], #4
 1133              	.L76:
 1134              		.cfi_restore_state
 1135              	.LBB127:
 1136              	.LBB126:
 1137              		.loc 1 294 0
 1138 003c 0648     		ldr	r0, .L81+16
 1139 003e FFF7FEFF 		bl	commands_printf
 1140              	.LVL110:
ARM GAS  /tmp/ccNpzD1x.s 			page 21


 1141              	.LBE126:
 1142              	.LBE127:
 1143              		.loc 1 299 0
 1144 0042 03B0     		add	sp, sp, #12
 1145              		.cfi_def_cfa_offset 4
 1146              		@ sp needed
 1147 0044 5DF804FB 		ldr	pc, [sp], #4
 1148              	.L82:
 1149              		.align	2
 1150              	.L81:
 1151 0048 3C000000 		.word	.LC7
 1152 004c 00000000 		.word	.LC4
 1153 0050 00000000 		.word	.LANCHOR0
 1154 0054 04000000 		.word	.LC5
 1155 0058 24000000 		.word	.LC6
 1156              		.cfi_endproc
 1157              	.LFE265:
 1158              		.size	terminal_debug_on, .-terminal_debug_on
 1159              		.section	.text.canard_driver_init,"ax",%progbits
 1160              		.align	1
 1161              		.p2align 4,,15
 1162              		.global	canard_driver_init
 1163              		.syntax unified
 1164              		.thumb
 1165              		.thumb_func
 1166              		.fpu fpv4-sp-d16
 1167              		.type	canard_driver_init, %function
 1168              	canard_driver_init:
 1169              	.LFB259:
 1170              		.loc 1 93 0
 1171              		.cfi_startproc
 1172              		@ args = 0, pretend = 0, frame = 0
 1173              		@ frame_needed = 0, uses_anonymous_args = 0
 1174 0000 00B5     		push	{lr}
 1175              		.cfi_def_cfa_offset 4
 1176              		.cfi_offset 14, -4
 1177              		.loc 1 94 0
 1178 0002 0F4A     		ldr	r2, .L87
 1179 0004 0F4B     		ldr	r3, .L87+4
 1180 0006 0021     		movs	r1, #0
 1181 0008 1160     		str	r1, [r2]
 1182              	.LVL111:
 1183              		.loc 1 93 0
 1184 000a 83B0     		sub	sp, sp, #12
 1185              		.cfi_def_cfa_offset 16
 1186 000c 03F5A071 		add	r1, r3, #320
 1187              	.LBB128:
 1188              		.loc 1 97 0
 1189 0010 4FF0FF32 		mov	r2, #-1
 1190              	.LVL112:
 1191              	.L84:
 1192              		.loc 1 97 0 is_stmt 0 discriminator 3
 1193 0014 43F8202B 		str	r2, [r3], #32
 1194              		.loc 1 96 0 is_stmt 1 discriminator 3
 1195 0018 8B42     		cmp	r3, r1
 1196 001a FBD1     		bne	.L84
 1197              	.LBE128:
ARM GAS  /tmp/ccNpzD1x.s 			page 22


 1198              		.loc 1 100 0
 1199 001c 0023     		movs	r3, #0
 1200 001e 0093     		str	r3, [sp]
 1201 0020 4022     		movs	r2, #64
 1202 0022 094B     		ldr	r3, .L87+8
 1203 0024 0948     		ldr	r0, .L87+12
 1204 0026 40F69811 		movw	r1, #2456
 1205 002a FFF7FEFF 		bl	chThdCreateStatic
 1206              	.LVL113:
 1207              		.loc 1 102 0
 1208 002e 084B     		ldr	r3, .L87+16
 1209 0030 084A     		ldr	r2, .L87+20
 1210 0032 0949     		ldr	r1, .L87+24
 1211 0034 0948     		ldr	r0, .L87+28
 1212              		.loc 1 107 0
 1213 0036 03B0     		add	sp, sp, #12
 1214              		.cfi_def_cfa_offset 4
 1215              		@ sp needed
 1216 0038 5DF804EB 		ldr	lr, [sp], #4
 1217              		.cfi_restore 14
 1218              		.cfi_def_cfa_offset 0
 1219              		.loc 1 102 0
 1220 003c FFF7FEBF 		b	terminal_register_command_callback
 1221              	.LVL114:
 1222              	.L88:
 1223              		.align	2
 1224              	.L87:
 1225 0040 00000000 		.word	.LANCHOR0
 1226 0044 00000000 		.word	.LANCHOR3
 1227 0048 00000000 		.word	canard_thread
 1228 004c 00000000 		.word	.LANCHOR8
 1229 0050 00000000 		.word	terminal_debug_on
 1230 0054 00000000 		.word	.LC8
 1231 0058 08000000 		.word	.LC9
 1232 005c 30000000 		.word	.LC10
 1233              		.cfi_endproc
 1234              	.LFE259:
 1235              		.size	canard_driver_init, .-canard_driver_init
 1236              		.section	.bss.canard,"aw",%nobits
 1237              		.align	2
 1238              		.set	.LANCHOR5,. + 0
 1239              		.type	canard, %object
 1240              		.size	canard, 36
 1241              	canard:
 1242 0000 00000000 		.space	36
 1242      00000000 
 1242      00000000 
 1242      00000000 
 1242      00000000 
 1243              		.section	.bss.canard_memory_pool,"aw",%nobits
 1244              		.align	2
 1245              		.set	.LANCHOR4,. + 0
 1246              		.type	canard_memory_pool, %object
 1247              		.size	canard_memory_pool, 1024
 1248              	canard_memory_pool:
 1249 0000 00000000 		.space	1024
 1249      00000000 
ARM GAS  /tmp/ccNpzD1x.s 			page 23


 1249      00000000 
 1249      00000000 
 1249      00000000 
 1250              		.section	.bss.canard_thread_wa,"aw",%nobits
 1251              		.align	3
 1252              		.set	.LANCHOR8,. + 0
 1253              		.type	canard_thread_wa, %object
 1254              		.size	canard_thread_wa, 2456
 1255              	canard_thread_wa:
 1256 0000 00000000 		.space	2456
 1256      00000000 
 1256      00000000 
 1256      00000000 
 1256      00000000 
 1257              		.section	.bss.debug_level,"aw",%nobits
 1258              		.align	2
 1259              		.set	.LANCHOR0,. + 0
 1260              		.type	debug_level, %object
 1261              		.size	debug_level, 4
 1262              	debug_level:
 1263 0000 00000000 		.space	4
 1264              		.section	.bss.node_health,"aw",%nobits
 1265              		.set	.LANCHOR1,. + 0
 1266              		.type	node_health, %object
 1267              		.size	node_health, 1
 1268              	node_health:
 1269 0000 00       		.space	1
 1270              		.section	.bss.node_mode,"aw",%nobits
 1271              		.set	.LANCHOR2,. + 0
 1272              		.type	node_mode, %object
 1273              		.size	node_mode, 1
 1274              	node_mode:
 1275 0000 00       		.space	1
 1276              		.section	.bss.stat_msgs,"aw",%nobits
 1277              		.align	2
 1278              		.set	.LANCHOR3,. + 0
 1279              		.type	stat_msgs, %object
 1280              		.size	stat_msgs, 320
 1281              	stat_msgs:
 1282 0000 00000000 		.space	320
 1282      00000000 
 1282      00000000 
 1282      00000000 
 1282      00000000 
 1283              		.section	.bss.transfer_id.13323,"aw",%nobits
 1284              		.set	.LANCHOR7,. + 0
 1285              		.type	transfer_id.13323, %object
 1286              		.size	transfer_id.13323, 1
 1287              	transfer_id.13323:
 1288 0000 00       		.space	1
 1289              		.section	.bss.transfer_id.13384,"aw",%nobits
 1290              		.set	.LANCHOR6,. + 0
 1291              		.type	transfer_id.13384, %object
 1292              		.size	transfer_id.13384, 1
 1293              	transfer_id.13384:
 1294 0000 00       		.space	1
 1295              		.section	.rodata.canard_driver_init.str1.4,"aMS",%progbits,1
ARM GAS  /tmp/ccNpzD1x.s 			page 24


 1296              		.align	2
 1297              	.LC8:
 1298 0000 5B6C6576 		.ascii	"[level]\000"
 1298      656C5D00 
 1299              	.LC9:
 1300 0008 456E6162 		.ascii	"Enable UAVCAN debug prints (0 = off)\000"
 1300      6C652055 
 1300      41564341 
 1300      4E206465 
 1300      62756720 
 1301 002d 000000   		.space	3
 1302              	.LC10:
 1303 0030 75617663 		.ascii	"uavcan_debug\000"
 1303      616E5F64 
 1303      65627567 
 1303      00
 1304              		.section	.rodata.canard_thread.str1.4,"aMS",%progbits,1
 1305              		.align	2
 1306              	.LC3:
 1307 0000 55415643 		.ascii	"UAVCAN\000"
 1307      414E00
 1308              		.section	.rodata.onTransferReceived.str1.4,"aMS",%progbits,1
 1309              		.align	2
 1310              	.LC1:
 1311 0000 55415643 		.ascii	"UAVCAN transfer RX: NODE: %d Type: %d ID: %d\000"
 1311      414E2074 
 1311      72616E73 
 1311      66657220 
 1311      52583A20 
 1312 002d 000000   		.space	3
 1313              	.LC2:
 1314 0030 6F72672E 		.ascii	"org.vesc.SV30\000"
 1314      76657363 
 1314      2E535633 
 1314      3000
 1315              		.section	.rodata.shouldAcceptTransfer.str1.4,"aMS",%progbits,1
 1316              		.align	2
 1317              	.LC0:
 1318 0000 55415643 		.ascii	"UAVCAN shouldAccept: NODE: %d Type: %d ID: %d\000"
 1318      414E2073 
 1318      686F756C 
 1318      64416363 
 1318      6570743A 
 1319              		.section	.rodata.terminal_debug_on.str1.4,"aMS",%progbits,1
 1320              		.align	2
 1321              	.LC4:
 1322 0000 256400   		.ascii	"%d\000"
 1323 0003 00       		.space	1
 1324              	.LC5:
 1325 0004 55415643 		.ascii	"UAVCAN debug level is now %d\000"
 1325      414E2064 
 1325      65627567 
 1325      206C6576 
 1325      656C2069 
 1326 0021 000000   		.space	3
 1327              	.LC6:
 1328 0024 496E7661 		.ascii	"Invalid argument(s).\012\000"
ARM GAS  /tmp/ccNpzD1x.s 			page 25


 1328      6C696420 
 1328      61726775 
 1328      6D656E74 
 1328      2873292E 
 1329 003a 0000     		.space	2
 1330              	.LC7:
 1331 003c 54686973 		.ascii	"This command requires one argument.\012\000"
 1331      20636F6D 
 1331      6D616E64 
 1331      20726571 
 1331      75697265 
 1332              		.text
 1333              	.Letext0:
 1334              		.file 4 "/usr/lib/gcc/arm-none-eabi/7.3.1/include/stddef.h"
 1335              		.file 5 "/usr/arm-none-eabi/include/machine/_default_types.h"
 1336              		.file 6 "/usr/arm-none-eabi/include/sys/lock.h"
 1337              		.file 7 "/usr/arm-none-eabi/include/sys/_types.h"
 1338              		.file 8 "/usr/arm-none-eabi/include/sys/reent.h"
 1339              		.file 9 "/usr/arm-none-eabi/include/math.h"
 1340              		.file 10 "/usr/arm-none-eabi/include/sys/_stdint.h"
 1341              		.file 11 "ChibiOS_3.0.2/os/rt/ports/ARMCMx/compilers/GCC/chtypes.h"
 1342              		.file 12 "ChibiOS_3.0.2/os/rt/include/chsystypes.h"
 1343              		.file 13 "ChibiOS_3.0.2/os/rt/include/chschd.h"
 1344              		.file 14 "ChibiOS_3.0.2/os/ext/CMSIS/include/core_cm4.h"
 1345              		.file 15 "ChibiOS_3.0.2/os/ext/CMSIS/ST/system_stm32f4xx.h"
 1346              		.file 16 "ChibiOS_3.0.2/os/ext/CMSIS/ST/stm32f407xx.h"
 1347              		.file 17 "ChibiOS_3.0.2/os/rt/ports/ARMCMx/chcore.h"
 1348              		.file 18 "ChibiOS_3.0.2/os/rt/ports/ARMCMx/chcore_v7m.h"
 1349              		.file 19 "ChibiOS_3.0.2/os/rt/include/chtm.h"
 1350              		.file 20 "ChibiOS_3.0.2/os/rt/include/chsem.h"
 1351              		.file 21 "ChibiOS_3.0.2/os/rt/include/chmtx.h"
 1352              		.file 22 "ChibiOS_3.0.2/os/rt/include/chevents.h"
 1353              		.file 23 "ChibiOS_3.0.2/os/rt/include/chqueues.h"
 1354              		.file 24 "./datatypes.h"
 1355              		.file 25 "./conf_general.h"
 1356              		.file 26 "ChibiOS_3.0.2/os/hal/ports/STM32/STM32F4xx/stm32_dma.h"
 1357              		.file 27 "ChibiOS_3.0.2/os/hal/ports/STM32/LLD/GPIOv2/pal_lld.h"
 1358              		.file 28 "ChibiOS_3.0.2/os/hal/include/can.h"
 1359              		.file 29 "ChibiOS_3.0.2/os/hal/ports/STM32/LLD/can_lld.h"
 1360              		.file 30 "ChibiOS_3.0.2/os/hal/include/i2c.h"
 1361              		.file 31 "ChibiOS_3.0.2/os/hal/ports/STM32/LLD/I2Cv1/i2c_lld.h"
 1362              		.file 32 "ChibiOS_3.0.2/os/hal/include/icu.h"
 1363              		.file 33 "ChibiOS_3.0.2/os/hal/ports/STM32/LLD/TIMv1/icu_lld.h"
 1364              		.file 34 "ChibiOS_3.0.2/os/hal/ports/STM32/LLD/TIMv1/stm32_tim.h"
 1365              		.file 35 "ChibiOS_3.0.2/os/hal/include/serial.h"
 1366              		.file 36 "ChibiOS_3.0.2/os/hal/ports/STM32/LLD/USARTv1/serial_lld.h"
 1367              		.file 37 "ChibiOS_3.0.2/os/hal/include/spi.h"
 1368              		.file 38 "ChibiOS_3.0.2/os/hal/ports/STM32/LLD/SPIv1/spi_lld.h"
 1369              		.file 39 "ChibiOS_3.0.2/os/hal/include/usb.h"
 1370              		.file 40 "ChibiOS_3.0.2/os/hal/ports/STM32/LLD/OTGv1/usb_lld.h"
 1371              		.file 41 "ChibiOS_3.0.2/os/hal/ports/STM32/LLD/OTGv1/stm32_otg.h"
 1372              		.file 42 "libcanard/canard.h"
 1373              		.file 43 "libcanard/dsdl/uavcan/equipment/esc/Status.h"
 1374              		.file 44 "libcanard/dsdl/uavcan/equipment/esc/RawCommand.h"
 1375              		.file 45 "libcanard/dsdl/uavcan/equipment/esc/RPMCommand.h"
 1376              		.file 46 "./mc_interface.h"
 1377              		.file 47 "./comm_can.h"
ARM GAS  /tmp/ccNpzD1x.s 			page 26


 1378              		.file 48 "applications/app.h"
 1379              		.file 49 "ChibiOS_3.0.2/os/rt/include/chthreads.h"
 1380              		.file 50 "./commands.h"
 1381              		.file 51 "<built-in>"
 1382              		.file 52 "./timeout.h"
 1383              		.file 53 "./terminal.h"
 1384              		.file 54 "/usr/arm-none-eabi/include/stdio.h"