ARM GAS  /tmp/ccLJt9WM.s 			page 1


   1              		.cpu cortex-m4
   2              		.eabi_attribute 27, 1
   3              		.eabi_attribute 28, 1
   4              		.eabi_attribute 20, 1
   5              		.eabi_attribute 21, 1
   6              		.eabi_attribute 23, 3
   7              		.eabi_attribute 24, 1
   8              		.eabi_attribute 25, 1
   9              		.eabi_attribute 26, 1
  10              		.eabi_attribute 30, 2
  11              		.eabi_attribute 34, 1
  12              		.eabi_attribute 18, 4
  13              		.file	"main.c"
  14              		.text
  15              	.Ltext0:
  16              		.cfi_sections	.debug_frame
  17              		.section	.text.flash_integrity_check_thread,"ax",%progbits
  18              		.align	1
  19              		.p2align 4,,15
  20              		.syntax unified
  21              		.thumb
  22              		.thumb_func
  23              		.fpu fpv4-sp-d16
  24              		.type	flash_integrity_check_thread, %function
  25              	flash_integrity_check_thread:
  26              	.LFB269:
  27              		.file 1 "main.c"
  28              		.loc 1 84 0
  29              		.cfi_startproc
  30              		@ Volatile: function does not return.
  31              		@ args = 0, pretend = 0, frame = 0
  32              		@ frame_needed = 0, uses_anonymous_args = 0
  33              	.LVL0:
  34 0000 08B5     		push	{r3, lr}
  35              		.cfi_def_cfa_offset 8
  36              		.cfi_offset 3, -8
  37              		.cfi_offset 14, -4
  38              	.LBB33:
  39              	.LBB34:
  40              		.file 2 "ChibiOS_3.0.2/os/rt/include/chregistry.h"
  41              		.loc 2 135 0
  42 0002 0F4B     		ldr	r3, .L7
  43 0004 0F4A     		ldr	r2, .L7+4
  44 0006 9B69     		ldr	r3, [r3, #24]
  45              	.LBE34:
  46              	.LBE33:
  47              		.loc 1 88 0
  48 0008 0121     		movs	r1, #1
  49              	.LBB36:
  50              	.LBB35:
  51              		.loc 2 135 0
  52 000a 9A61     		str	r2, [r3, #24]
  53              	.LVL1:
  54              	.LBE35:
  55              	.LBE36:
  56              		.loc 1 88 0
  57 000c 4FF48050 		mov	r0, #4096
ARM GAS  /tmp/ccLJt9WM.s 			page 2


  58              	.LVL2:
  59 0010 FFF7FEFF 		bl	RCC_AHB1PeriphClockCmd
  60              	.LVL3:
  61 0014 01E0     		b	.L4
  62              	.L2:
  63              		.loc 1 95 0
  64 0016 FFF7FEFF 		bl	chThdSleep
  65              	.LVL4:
  66              	.L4:
  67              		.loc 1 91 0
  68 001a FFF7FEFF 		bl	flash_helper_verify_flash_memory_chunk
  69              	.LVL5:
  70 001e 0E28     		cmp	r0, #14
  71              		.loc 1 95 0
  72 0020 4FF03C00 		mov	r0, #60
  73              		.loc 1 91 0
  74 0024 F7D1     		bne	.L2
  75              	.LBB37:
  76              	.LBB38:
  77              	.LBB39:
  78              	.LBB40:
  79              		.file 3 "ChibiOS_3.0.2/os/ext/CMSIS/include/core_cmInstr.h"
  80              		.loc 3 382 0
  81              		.syntax unified
  82              	@ 382 "ChibiOS_3.0.2/os/ext/CMSIS/include/core_cmInstr.h" 1
  83 0026 BFF34F8F 		dsb
  84              	@ 0 "" 2
  85              		.thumb
  86              		.syntax unified
  87              	.LBE40:
  88              	.LBE39:
  89              		.file 4 "ChibiOS_3.0.2/os/ext/CMSIS/include/core_cm4.h"
  90              		.loc 4 1643 0
  91 002a 0749     		ldr	r1, .L7+8
  92 002c 074B     		ldr	r3, .L7+12
  93 002e CA68     		ldr	r2, [r1, #12]
  94 0030 02F4E062 		and	r2, r2, #1792
  95 0034 1343     		orrs	r3, r3, r2
  96              		.loc 4 1642 0
  97 0036 CB60     		str	r3, [r1, #12]
  98              	.LBB41:
  99              	.LBB42:
 100              		.loc 3 382 0
 101              		.syntax unified
 102              	@ 382 "ChibiOS_3.0.2/os/ext/CMSIS/include/core_cmInstr.h" 1
 103 0038 BFF34F8F 		dsb
 104              	@ 0 "" 2
 105              		.thumb
 106              		.syntax unified
 107              	.L3:
 108 003c FEE7     		b	.L3
 109              	.L8:
 110 003e 00BF     		.align	2
 111              	.L7:
 112 0040 00000000 		.word	ch
 113 0044 00000000 		.word	.LC0
 114 0048 00ED00E0 		.word	-536810240
ARM GAS  /tmp/ccLJt9WM.s 			page 3


 115 004c 0400FA05 		.word	100270084
 116              	.LBE42:
 117              	.LBE41:
 118              	.LBE38:
 119              	.LBE37:
 120              		.cfi_endproc
 121              	.LFE269:
 122              		.size	flash_integrity_check_thread, .-flash_integrity_check_thread
 123              		.section	.text.timer_thread,"ax",%progbits
 124              		.align	1
 125              		.p2align 4,,15
 126              		.syntax unified
 127              		.thumb
 128              		.thumb_func
 129              		.fpu fpv4-sp-d16
 130              		.type	timer_thread, %function
 131              	timer_thread:
 132              	.LFB271:
 133              		.loc 1 167 0
 134              		.cfi_startproc
 135              		@ Volatile: function does not return.
 136              		@ args = 0, pretend = 0, frame = 0
 137              		@ frame_needed = 0, uses_anonymous_args = 0
 138              	.LVL6:
 139 0000 08B5     		push	{r3, lr}
 140              		.cfi_def_cfa_offset 8
 141              		.cfi_offset 3, -8
 142              		.cfi_offset 14, -4
 143              	.LBB43:
 144              	.LBB44:
 145              		.loc 2 135 0
 146 0002 064B     		ldr	r3, .L12
 147 0004 064A     		ldr	r2, .L12+4
 148 0006 9B69     		ldr	r3, [r3, #24]
 149 0008 9A61     		str	r2, [r3, #24]
 150              	.LVL7:
 151              	.L10:
 152              	.LBE44:
 153              	.LBE43:
 154              		.loc 1 173 0 discriminator 1
 155 000a FFF7FEFF 		bl	packet_timerfunc
 156              	.LVL8:
 157              		.loc 1 174 0 discriminator 1
 158 000e 0220     		movs	r0, #2
 159 0010 FFF7FEFF 		bl	timeout_feed_WDT
 160              	.LVL9:
 161              		.loc 1 175 0 discriminator 1
 162 0014 0A20     		movs	r0, #10
 163 0016 FFF7FEFF 		bl	chThdSleep
 164              	.LVL10:
 165 001a F6E7     		b	.L10
 166              	.L13:
 167              		.align	2
 168              	.L12:
 169 001c 00000000 		.word	ch
 170 0020 00000000 		.word	.LC1
 171              		.cfi_endproc
ARM GAS  /tmp/ccLJt9WM.s 			page 4


 172              	.LFE271:
 173              		.size	timer_thread, .-timer_thread
 174              		.section	.text.periodic_thread,"ax",%progbits
 175              		.align	1
 176              		.p2align 4,,15
 177              		.syntax unified
 178              		.thumb
 179              		.thumb_func
 180              		.fpu fpv4-sp-d16
 181              		.type	periodic_thread, %function
 182              	periodic_thread:
 183              	.LFB270:
 184              		.loc 1 99 0
 185              		.cfi_startproc
 186              		@ args = 0, pretend = 0, frame = 0
 187              		@ frame_needed = 0, uses_anonymous_args = 0
 188              	.LVL11:
 189 0000 38B5     		push	{r3, r4, r5, lr}
 190              		.cfi_def_cfa_offset 16
 191              		.cfi_offset 3, -16
 192              		.cfi_offset 4, -12
 193              		.cfi_offset 5, -8
 194              		.cfi_offset 14, -4
 195              	.LBB45:
 196              	.LBB46:
 197              		.loc 2 135 0
 198 0002 474B     		ldr	r3, .L38
 199 0004 474A     		ldr	r2, .L38+4
 200 0006 9B69     		ldr	r3, [r3, #24]
 201              	.LBE46:
 202              	.LBE45:
 203              		.loc 1 99 0
 204 0008 2DED048B 		vpush.64	{d8, d9}
 205              		.cfi_def_cfa_offset 32
 206              		.cfi_offset 80, -32
 207              		.cfi_offset 81, -28
 208              		.cfi_offset 82, -24
 209              		.cfi_offset 83, -20
 210              	.LBB48:
 211              		.loc 1 108 0
 212 000c DFED468A 		vldr.32	s17, .L38+8
 213              	.LBB49:
 214              		.loc 1 116 0
 215 0010 9FED468A 		vldr.32	s16, .L38+12
 216              	.LBE49:
 217              	.LBE48:
 218              	.LBB51:
 219              	.LBB47:
 220              		.loc 2 135 0
 221 0014 9A61     		str	r2, [r3, #24]
 222 0016 2BE0     		b	.L28
 223              	.LVL12:
 224              	.L33:
 225              	.LBE47:
 226              	.LBE51:
 227              	.LBB52:
 228              		.loc 1 122 0
ARM GAS  /tmp/ccLJt9WM.s 			page 5


 229 0018 B0EE480A 		vmov.f32	s0, s16
 230 001c 0120     		movs	r0, #1
 231              	.LVL13:
 232 001e FFF7FEFF 		bl	ledpwm_set_intensity
 233              	.LVL14:
 234              		.loc 1 125 0
 235 0022 FFF7FEFF 		bl	mc_interface_get_state
 236              	.LVL15:
 237 0026 0128     		cmp	r0, #1
 238 0028 50D0     		beq	.L35
 239              	.L19:
 240              		.loc 1 129 0
 241 002a FFF7FEFF 		bl	commands_get_disp_pos_mode
 242              	.LVL16:
 243              		.loc 1 131 0
 244 002e 0428     		cmp	r0, #4
 245              		.loc 1 129 0
 246 0030 0446     		mov	r4, r0
 247              	.LVL17:
 248              		.loc 1 131 0
 249 0032 54D0     		beq	.L21
 250              	.L37:
 251 0034 0528     		cmp	r0, #5
 252 0036 5FD0     		beq	.L22
 253 0038 0328     		cmp	r0, #3
 254 003a 55D0     		beq	.L36
 255              		.loc 1 148 0
 256 003c FFF7FEFF 		bl	mc_interface_get_configuration
 257              	.LVL18:
 258 0040 8378     		ldrb	r3, [r0, #2]	@ zero_extendqisi2
 259 0042 022B     		cmp	r3, #2
 260 0044 11D1     		bne	.L25
 261              		.loc 1 149 0
 262 0046 022C     		cmp	r4, #2
 263 0048 65D0     		beq	.L26
 264 004a 062C     		cmp	r4, #6
 265 004c 0DD1     		bne	.L25
 266              		.loc 1 155 0
 267 004e FFF7FEFF 		bl	mcpwm_foc_get_phase_observer
 268              	.LVL19:
 269 0052 B0EE409A 		vmov.f32	s18, s0
 270 0056 FFF7FEFF 		bl	mcpwm_foc_get_phase_encoder
 271              	.LVL20:
 272 005a F0EE400A 		vmov.f32	s1, s0
 273 005e B0EE490A 		vmov.f32	s0, s18
 274 0062 FFF7FEFF 		bl	utils_angle_difference
 275              	.LVL21:
 276 0066 FFF7FEFF 		bl	commands_send_rotor_pos
 277              	.LVL22:
 278              	.L25:
 279              		.loc 1 163 0
 280 006a 6420     		movs	r0, #100
 281 006c FFF7FEFF 		bl	chThdSleep
 282              	.LVL23:
 283              	.L28:
 284              		.loc 1 105 0
 285 0070 FFF7FEFF 		bl	mc_interface_get_state
ARM GAS  /tmp/ccLJt9WM.s 			page 6


 286              	.LVL24:
 287 0074 0228     		cmp	r0, #2
 288              		.loc 1 106 0
 289 0076 0CBF     		ite	eq
 290 0078 B7EE000A 		vmoveq.f32	s0, #1.0e+0
 291              		.loc 1 108 0
 292 007c B0EE680A 		vmovne.f32	s0, s17
 293 0080 0020     		movs	r0, #0
 294 0082 FFF7FEFF 		bl	ledpwm_set_intensity
 295              	.LVL25:
 296              		.loc 1 111 0
 297 0086 FFF7FEFF 		bl	mc_interface_get_fault
 298              	.LVL26:
 299              		.loc 1 112 0
 300 008a 0546     		mov	r5, r0
 301 008c 0028     		cmp	r0, #0
 302 008e C3D0     		beq	.L33
 303              	.LVL27:
 304              	.LBB50:
 305              		.loc 1 113 0
 306 0090 0024     		movs	r4, #0
 307              	.LVL28:
 308              	.L17:
 309              		.loc 1 114 0 discriminator 3
 310 0092 B7EE000A 		vmov.f32	s0, #1.0e+0
 311 0096 0120     		movs	r0, #1
 312 0098 FFF7FEFF 		bl	ledpwm_set_intensity
 313              	.LVL29:
 314              		.loc 1 115 0 discriminator 3
 315 009c 40F6C410 		movw	r0, #2500
 316 00a0 FFF7FEFF 		bl	chThdSleep
 317              	.LVL30:
 318              		.loc 1 116 0 discriminator 3
 319 00a4 0120     		movs	r0, #1
 320 00a6 B0EE480A 		vmov.f32	s0, s16
 321              		.loc 1 113 0 discriminator 3
 322 00aa 0444     		add	r4, r4, r0
 323              	.LVL31:
 324              		.loc 1 116 0 discriminator 3
 325 00ac FFF7FEFF 		bl	ledpwm_set_intensity
 326              	.LVL32:
 327              		.loc 1 117 0 discriminator 3
 328 00b0 40F6C410 		movw	r0, #2500
 329 00b4 FFF7FEFF 		bl	chThdSleep
 330              	.LVL33:
 331              		.loc 1 113 0 discriminator 3
 332 00b8 AC42     		cmp	r4, r5
 333 00ba EAD1     		bne	.L17
 334              	.LBE50:
 335              		.loc 1 120 0
 336 00bc 41F28830 		movw	r0, #5000
 337 00c0 FFF7FEFF 		bl	chThdSleep
 338              	.LVL34:
 339              		.loc 1 125 0
 340 00c4 FFF7FEFF 		bl	mc_interface_get_state
 341              	.LVL35:
 342 00c8 0128     		cmp	r0, #1
ARM GAS  /tmp/ccLJt9WM.s 			page 7


 343 00ca AED1     		bne	.L19
 344              	.LVL36:
 345              	.L35:
 346              		.loc 1 126 0
 347 00cc FFF7FEFF 		bl	mcpwm_get_detect_pos
 348              	.LVL37:
 349 00d0 FFF7FEFF 		bl	commands_send_rotor_pos
 350              	.LVL38:
 351              		.loc 1 129 0
 352 00d4 FFF7FEFF 		bl	commands_get_disp_pos_mode
 353              	.LVL39:
 354              		.loc 1 131 0
 355 00d8 0428     		cmp	r0, #4
 356              		.loc 1 129 0
 357 00da 0446     		mov	r4, r0
 358              	.LVL40:
 359              		.loc 1 131 0
 360 00dc AAD1     		bne	.L37
 361              	.L21:
 362              		.loc 1 137 0
 363 00de FFF7FEFF 		bl	mc_interface_get_pid_pos_now
 364              	.LVL41:
 365 00e2 FFF7FEFF 		bl	commands_send_rotor_pos
 366              	.LVL42:
 367              		.loc 1 138 0
 368 00e6 03E0     		b	.L24
 369              	.LVL43:
 370              	.L36:
 371              		.loc 1 133 0
 372 00e8 FFF7FEFF 		bl	encoder_read_deg
 373              	.LVL44:
 374 00ec FFF7FEFF 		bl	commands_send_rotor_pos
 375              	.LVL45:
 376              	.L24:
 377              		.loc 1 148 0
 378 00f0 FFF7FEFF 		bl	mc_interface_get_configuration
 379              	.LVL46:
 380 00f4 8378     		ldrb	r3, [r0, #2]	@ zero_extendqisi2
 381 00f6 B8E7     		b	.L25
 382              	.LVL47:
 383              	.L22:
 384              		.loc 1 141 0
 385 00f8 FFF7FEFF 		bl	mc_interface_get_pid_pos_set
 386              	.LVL48:
 387 00fc B0EE409A 		vmov.f32	s18, s0
 388 0100 FFF7FEFF 		bl	mc_interface_get_pid_pos_now
 389              	.LVL49:
 390 0104 F0EE400A 		vmov.f32	s1, s0
 391 0108 B0EE490A 		vmov.f32	s0, s18
 392 010c FFF7FEFF 		bl	utils_angle_difference
 393              	.LVL50:
 394 0110 FFF7FEFF 		bl	commands_send_rotor_pos
 395              	.LVL51:
 396              		.loc 1 142 0
 397 0114 ECE7     		b	.L24
 398              	.L26:
 399              		.loc 1 151 0
ARM GAS  /tmp/ccLJt9WM.s 			page 8


 400 0116 FFF7FEFF 		bl	mcpwm_foc_get_phase_observer
 401              	.LVL52:
 402 011a FFF7FEFF 		bl	commands_send_rotor_pos
 403              	.LVL53:
 404              		.loc 1 152 0
 405 011e A4E7     		b	.L25
 406              	.L39:
 407              		.align	2
 408              	.L38:
 409 0120 00000000 		.word	ch
 410 0124 00000000 		.word	.LC2
 411 0128 CDCC4C3E 		.word	1045220557
 412 012c 00000000 		.word	0
 413              	.LBE52:
 414              		.cfi_endproc
 415              	.LFE270:
 416              		.size	periodic_thread, .-periodic_thread
 417              		.section	.text.crchil,"ax",%progbits
 418              		.align	1
 419              		.p2align 4,,15
 420              		.global	crchil
 421              		.syntax unified
 422              		.thumb
 423              		.thumb_func
 424              		.fpu fpv4-sp-d16
 425              		.type	crchil, %function
 426              	crchil:
 427              	.LFB259:
 428              		.file 5 "spi_hil.c"
 429              		.loc 5 4 0
 430              		.cfi_startproc
 431              		@ args = 0, pretend = 0, frame = 0
 432              		@ frame_needed = 0, uses_anonymous_args = 0
 433              		@ link register save eliminated.
 434              	.LVL54:
 435              	.LBB53:
 436              		.loc 5 6 0
 437 0000 B9B1     		cbz	r1, .L45
 438              	.LBE53:
 439              		.loc 5 4 0
 440 0002 30B4     		push	{r4, r5}
 441              		.cfi_def_cfa_offset 8
 442              		.cfi_offset 4, -8
 443              		.cfi_offset 5, -4
 444 0004 451E     		subs	r5, r0, #1
 445              	.LBB56:
 446              	.LBB54:
 447              		.loc 5 10 0
 448 0006 0C4C     		ldr	r4, .L55
 449 0008 2944     		add	r1, r1, r5
 450              	.LVL55:
 451              	.LBE54:
 452              	.LBE56:
 453              		.loc 5 5 0
 454 000a 4FF0FF30 		mov	r0, #-1
 455              	.LVL56:
 456              	.L44:
ARM GAS  /tmp/ccLJt9WM.s 			page 9


 457              	.LBB57:
 458              		.loc 5 7 0
 459 000e 15F8012F 		ldrb	r2, [r5, #1]!	@ zero_extendqisi2
 460              	.LVL57:
 461 0012 0823     		movs	r3, #8
 462 0014 5040     		eors	r0, r0, r2
 463              	.LVL58:
 464              	.L43:
 465              	.LBB55:
 466              		.loc 5 9 0
 467 0016 00F00102 		and	r2, r0, #1
 468 001a 013B     		subs	r3, r3, #1
 469              	.LVL59:
 470 001c 4008     		lsrs	r0, r0, #1
 471              	.LVL60:
 472 001e 02B1     		cbz	r2, .L42
 473              		.loc 5 10 0
 474 0020 6040     		eors	r0, r0, r4
 475              	.LVL61:
 476              	.L42:
 477              		.loc 5 8 0 discriminator 2
 478 0022 13F0FF03 		ands	r3, r3, #255
 479 0026 F6D1     		bne	.L43
 480              	.LVL62:
 481              	.LBE55:
 482              		.loc 5 6 0 discriminator 2
 483 0028 8D42     		cmp	r5, r1
 484 002a F0D1     		bne	.L44
 485 002c C043     		mvns	r0, r0
 486              	.LVL63:
 487              	.LBE57:
 488              		.loc 5 16 0
 489 002e 30BC     		pop	{r4, r5}
 490              		.cfi_restore 5
 491              		.cfi_restore 4
 492              		.cfi_def_cfa_offset 0
 493              	.LVL64:
 494 0030 7047     		bx	lr
 495              	.LVL65:
 496              	.L45:
 497              	.LBB58:
 498              		.loc 5 6 0
 499 0032 0846     		mov	r0, r1
 500              	.LVL66:
 501              	.LBE58:
 502              		.loc 5 16 0
 503 0034 7047     		bx	lr
 504              	.L56:
 505 0036 00BF     		.align	2
 506              	.L55:
 507 0038 2083B8ED 		.word	-306674912
 508              		.cfi_endproc
 509              	.LFE259:
 510              		.size	crchil, .-crchil
 511              		.section	.text.arraybau,"ax",%progbits
 512              		.align	1
 513              		.p2align 4,,15
ARM GAS  /tmp/ccLJt9WM.s 			page 10


 514              		.global	arraybau
 515              		.syntax unified
 516              		.thumb
 517              		.thumb_func
 518              		.fpu fpv4-sp-d16
 519              		.type	arraybau, %function
 520              	arraybau:
 521              	.LFB260:
 522              		.loc 5 19 0
 523              		.cfi_startproc
 524              		@ args = 0, pretend = 0, frame = 0
 525              		@ frame_needed = 0, uses_anonymous_args = 0
 526              		@ link register save eliminated.
 527              	.LVL67:
 528              		.loc 5 27 0
 529 0000 024B     		ldr	r3, .L58
 530              		.loc 5 30 0
 531 0002 0349     		ldr	r1, .L58+4
 532 0004 034A     		ldr	r2, .L58+8
 533 0006 C3E90012 		strd	r1, r2, [r3]
 534              		.loc 5 39 0
 535 000a 7047     		bx	lr
 536              	.L59:
 537              		.align	2
 538              	.L58:
 539 000c 00000000 		.word	.LANCHOR0
 540 0010 00000929 		.word	688455680
 541 0014 00001ED4 		.word	-736231424
 542              		.cfi_endproc
 543              	.LFE260:
 544              		.size	arraybau, .-arraybau
 545              		.section	.text.SPI_Config,"ax",%progbits
 546              		.align	1
 547              		.p2align 4,,15
 548              		.global	SPI_Config
 549              		.syntax unified
 550              		.thumb
 551              		.thumb_func
 552              		.fpu fpv4-sp-d16
 553              		.type	SPI_Config, %function
 554              	SPI_Config:
 555              	.LFB261:
 556              		.loc 5 42 0
 557              		.cfi_startproc
 558              		@ args = 0, pretend = 0, frame = 0
 559              		@ frame_needed = 0, uses_anonymous_args = 0
 560              		@ link register save eliminated.
 561              		.loc 5 43 0
 562 0000 1249     		ldr	r1, .L61
 563              		.loc 5 45 0
 564 0002 134B     		ldr	r3, .L61+4
 565              		.loc 5 43 0
 566 0004 4A6C     		ldr	r2, [r1, #68]
 567 0006 42F48052 		orr	r2, r2, #4096
 568 000a 4A64     		str	r2, [r1, #68]
 569              		.loc 5 45 0
 570 000c 1A68     		ldr	r2, [r3]
ARM GAS  /tmp/ccLJt9WM.s 			page 11


 571 000e 42F00302 		orr	r2, r2, #3
 572 0012 1A60     		str	r2, [r3]
 573              		.loc 5 47 0
 574 0014 1A68     		ldr	r2, [r3]
 575 0016 42F00402 		orr	r2, r2, #4
 576 001a 1A60     		str	r2, [r3]
 577              		.loc 5 49 0
 578 001c 1A68     		ldr	r2, [r3]
 579 001e 42F03802 		orr	r2, r2, #56
 580 0022 1A60     		str	r2, [r3]
 581              		.loc 5 51 0
 582 0024 1A68     		ldr	r2, [r3]
 583 0026 22F08002 		bic	r2, r2, #128
 584 002a 1A60     		str	r2, [r3]
 585              		.loc 5 53 0
 586 002c 1A68     		ldr	r2, [r3]
 587 002e 42F44072 		orr	r2, r2, #768
 588 0032 1A60     		str	r2, [r3]
 589              		.loc 5 55 0
 590 0034 1A68     		ldr	r2, [r3]
 591 0036 22F48062 		bic	r2, r2, #1024
 592 003a 1A60     		str	r2, [r3]
 593              		.loc 5 57 0
 594 003c 1A68     		ldr	r2, [r3]
 595              		.loc 5 59 0
 596 003e 0021     		movs	r1, #0
 597              		.loc 5 57 0
 598 0040 22F40062 		bic	r2, r2, #2048
 599 0044 1A60     		str	r2, [r3]
 600              		.loc 5 59 0
 601 0046 5960     		str	r1, [r3, #4]
 602              		.loc 5 60 0
 603 0048 7047     		bx	lr
 604              	.L62:
 605 004a 00BF     		.align	2
 606              	.L61:
 607 004c 00380240 		.word	1073887232
 608 0050 00300140 		.word	1073819648
 609              		.cfi_endproc
 610              	.LFE261:
 611              		.size	SPI_Config, .-SPI_Config
 612              		.section	.text.GPIOConfig,"ax",%progbits
 613              		.align	1
 614              		.p2align 4,,15
 615              		.global	GPIOConfig
 616              		.syntax unified
 617              		.thumb
 618              		.thumb_func
 619              		.fpu fpv4-sp-d16
 620              		.type	GPIOConfig, %function
 621              	GPIOConfig:
 622              	.LFB262:
 623              		.loc 5 63 0
 624              		.cfi_startproc
 625              		@ args = 0, pretend = 0, frame = 0
 626              		@ frame_needed = 0, uses_anonymous_args = 0
 627              		@ link register save eliminated.
ARM GAS  /tmp/ccLJt9WM.s 			page 12


 628              		.loc 5 64 0
 629 0000 0A49     		ldr	r1, .L64
 630              		.loc 5 66 0
 631 0002 0B4B     		ldr	r3, .L64+4
 632              		.loc 5 64 0
 633 0004 0A6B     		ldr	r2, [r1, #48]
 634 0006 42F00102 		orr	r2, r2, #1
 635 000a 0A63     		str	r2, [r1, #48]
 636              		.loc 5 66 0
 637 000c 1A68     		ldr	r2, [r3]
 638 000e 42F42942 		orr	r2, r2, #43264
 639 0012 1A60     		str	r2, [r3]
 640              		.loc 5 68 0
 641 0014 9A68     		ldr	r2, [r3, #8]
 642 0016 42F47F42 		orr	r2, r2, #65280
 643 001a 9A60     		str	r2, [r3, #8]
 644              		.loc 5 70 0
 645 001c 1A6A     		ldr	r2, [r3, #32]
 646 001e 42F0AA42 		orr	r2, r2, #1426063360
 647 0022 42F4A002 		orr	r2, r2, #5242880
 648 0026 1A62     		str	r2, [r3, #32]
 649              		.loc 5 71 0
 650 0028 7047     		bx	lr
 651              	.L65:
 652 002a 00BF     		.align	2
 653              	.L64:
 654 002c 00380240 		.word	1073887232
 655 0030 00000240 		.word	1073872896
 656              		.cfi_endproc
 657              	.LFE262:
 658              		.size	GPIOConfig, .-GPIOConfig
 659              		.section	.text.SPI_Enable,"ax",%progbits
 660              		.align	1
 661              		.p2align 4,,15
 662              		.global	SPI_Enable
 663              		.syntax unified
 664              		.thumb
 665              		.thumb_func
 666              		.fpu fpv4-sp-d16
 667              		.type	SPI_Enable, %function
 668              	SPI_Enable:
 669              	.LFB263:
 670              		.loc 5 74 0
 671              		.cfi_startproc
 672              		@ args = 0, pretend = 0, frame = 0
 673              		@ frame_needed = 0, uses_anonymous_args = 0
 674              		@ link register save eliminated.
 675              		.loc 5 75 0
 676 0000 024A     		ldr	r2, .L67
 677 0002 1368     		ldr	r3, [r2]
 678 0004 43F04003 		orr	r3, r3, #64
 679 0008 1360     		str	r3, [r2]
 680              		.loc 5 76 0
 681 000a 7047     		bx	lr
 682              	.L68:
 683              		.align	2
 684              	.L67:
ARM GAS  /tmp/ccLJt9WM.s 			page 13


 685 000c 00300140 		.word	1073819648
 686              		.cfi_endproc
 687              	.LFE263:
 688              		.size	SPI_Enable, .-SPI_Enable
 689              		.section	.text.SPI_Disable,"ax",%progbits
 690              		.align	1
 691              		.p2align 4,,15
 692              		.global	SPI_Disable
 693              		.syntax unified
 694              		.thumb
 695              		.thumb_func
 696              		.fpu fpv4-sp-d16
 697              		.type	SPI_Disable, %function
 698              	SPI_Disable:
 699              	.LFB264:
 700              		.loc 5 79 0
 701              		.cfi_startproc
 702              		@ args = 0, pretend = 0, frame = 0
 703              		@ frame_needed = 0, uses_anonymous_args = 0
 704              		@ link register save eliminated.
 705              		.loc 5 80 0
 706 0000 024A     		ldr	r2, .L70
 707 0002 1368     		ldr	r3, [r2]
 708 0004 23F04003 		bic	r3, r3, #64
 709 0008 1360     		str	r3, [r2]
 710              		.loc 5 81 0
 711 000a 7047     		bx	lr
 712              	.L71:
 713              		.align	2
 714              	.L70:
 715 000c 00300140 		.word	1073819648
 716              		.cfi_endproc
 717              	.LFE264:
 718              		.size	SPI_Disable, .-SPI_Disable
 719              		.section	.text.CS_Enable,"ax",%progbits
 720              		.align	1
 721              		.p2align 4,,15
 722              		.global	CS_Enable
 723              		.syntax unified
 724              		.thumb
 725              		.thumb_func
 726              		.fpu fpv4-sp-d16
 727              		.type	CS_Enable, %function
 728              	CS_Enable:
 729              	.LFB265:
 730              		.loc 5 84 0
 731              		.cfi_startproc
 732              		@ args = 0, pretend = 0, frame = 0
 733              		@ frame_needed = 0, uses_anonymous_args = 0
 734              		@ link register save eliminated.
 735              		.loc 5 85 0
 736 0000 014B     		ldr	r3, .L73
 737 0002 1022     		movs	r2, #16
 738 0004 5A83     		strh	r2, [r3, #26]	@ movhi
 739              		.loc 5 86 0
 740 0006 7047     		bx	lr
 741              	.L74:
ARM GAS  /tmp/ccLJt9WM.s 			page 14


 742              		.align	2
 743              	.L73:
 744 0008 00000240 		.word	1073872896
 745              		.cfi_endproc
 746              	.LFE265:
 747              		.size	CS_Enable, .-CS_Enable
 748              		.section	.text.CS_Disable,"ax",%progbits
 749              		.align	1
 750              		.p2align 4,,15
 751              		.global	CS_Disable
 752              		.syntax unified
 753              		.thumb
 754              		.thumb_func
 755              		.fpu fpv4-sp-d16
 756              		.type	CS_Disable, %function
 757              	CS_Disable:
 758              	.LFB266:
 759              		.loc 5 89 0
 760              		.cfi_startproc
 761              		@ args = 0, pretend = 0, frame = 0
 762              		@ frame_needed = 0, uses_anonymous_args = 0
 763              		@ link register save eliminated.
 764              		.loc 5 90 0
 765 0000 014B     		ldr	r3, .L76
 766 0002 1022     		movs	r2, #16
 767 0004 1A83     		strh	r2, [r3, #24]	@ movhi
 768              		.loc 5 91 0
 769 0006 7047     		bx	lr
 770              	.L77:
 771              		.align	2
 772              	.L76:
 773 0008 00000240 		.word	1073872896
 774              		.cfi_endproc
 775              	.LFE266:
 776              		.size	CS_Disable, .-CS_Disable
 777              		.section	.text.SPI_Transmit,"ax",%progbits
 778              		.align	1
 779              		.p2align 4,,15
 780              		.global	SPI_Transmit
 781              		.syntax unified
 782              		.thumb
 783              		.thumb_func
 784              		.fpu fpv4-sp-d16
 785              		.type	SPI_Transmit, %function
 786              	SPI_Transmit:
 787              	.LFB267:
 788              		.loc 5 94 0
 789              		.cfi_startproc
 790              		@ args = 0, pretend = 0, frame = 8
 791              		@ frame_needed = 0, uses_anonymous_args = 0
 792              		@ link register save eliminated.
 793              	.LVL68:
 794              		.loc 5 104 0
 795 0000 0029     		cmp	r1, #0
 796              		.loc 5 94 0
 797 0002 82B0     		sub	sp, sp, #8
 798              		.cfi_def_cfa_offset 8
ARM GAS  /tmp/ccLJt9WM.s 			page 15


 799              		.loc 5 104 0
 800 0004 0ADD     		ble	.L79
 801 0006 0138     		subs	r0, r0, #1
 802              	.LVL69:
 803              		.loc 5 106 0
 804 0008 0D4A     		ldr	r2, .L91
 805 000a 0144     		add	r1, r1, r0
 806              	.LVL70:
 807              	.L80:
 808              		.loc 5 106 0 is_stmt 0 discriminator 1
 809 000c 9368     		ldr	r3, [r2, #8]
 810 000e 9B07     		lsls	r3, r3, #30
 811 0010 FCD5     		bpl	.L80
 812              		.loc 5 107 0 is_stmt 1
 813 0012 10F8013F 		ldrb	r3, [r0, #1]!	@ zero_extendqisi2
 814 0016 D360     		str	r3, [r2, #12]
 815              	.LVL71:
 816              		.loc 5 104 0
 817 0018 8842     		cmp	r0, r1
 818 001a F7D1     		bne	.L80
 819              	.LVL72:
 820              	.L79:
 821              		.loc 5 117 0
 822 001c 084A     		ldr	r2, .L91
 823              	.L82:
 824              		.loc 5 117 0 is_stmt 0 discriminator 1
 825 001e 9368     		ldr	r3, [r2, #8]
 826 0020 9907     		lsls	r1, r3, #30
 827 0022 FCD5     		bpl	.L82
 828              		.loc 5 118 0 is_stmt 1
 829 0024 064A     		ldr	r2, .L91
 830              	.L83:
 831              		.loc 5 118 0 is_stmt 0 discriminator 1
 832 0026 9368     		ldr	r3, [r2, #8]
 833 0028 1B06     		lsls	r3, r3, #24
 834 002a FCD4     		bmi	.L83
 835              		.loc 5 121 0 is_stmt 1
 836 002c D368     		ldr	r3, [r2, #12]
 837 002e DBB2     		uxtb	r3, r3
 838 0030 8DF80730 		strb	r3, [sp, #7]
 839              		.loc 5 122 0
 840 0034 9368     		ldr	r3, [r2, #8]
 841 0036 DBB2     		uxtb	r3, r3
 842 0038 8DF80730 		strb	r3, [sp, #7]
 843              		.loc 5 123 0
 844 003c 02B0     		add	sp, sp, #8
 845              		.cfi_def_cfa_offset 0
 846              		@ sp needed
 847 003e 7047     		bx	lr
 848              	.L92:
 849              		.align	2
 850              	.L91:
 851 0040 00300140 		.word	1073819648
 852              		.cfi_endproc
 853              	.LFE267:
 854              		.size	SPI_Transmit, .-SPI_Transmit
 855              		.section	.text.senddebugdata,"ax",%progbits
ARM GAS  /tmp/ccLJt9WM.s 			page 16


 856              		.align	1
 857              		.p2align 4,,15
 858              		.global	senddebugdata
 859              		.syntax unified
 860              		.thumb
 861              		.thumb_func
 862              		.fpu fpv4-sp-d16
 863              		.type	senddebugdata, %function
 864              	senddebugdata:
 865              	.LFB268:
 866              		.loc 5 126 0
 867              		.cfi_startproc
 868              		@ args = 0, pretend = 0, frame = 0
 869              		@ frame_needed = 0, uses_anonymous_args = 0
 870              	.LVL73:
 871 0000 38B5     		push	{r3, r4, r5, lr}
 872              		.cfi_def_cfa_offset 16
 873              		.cfi_offset 3, -16
 874              		.cfi_offset 4, -12
 875              		.cfi_offset 5, -8
 876              		.cfi_offset 14, -4
 877              	.LBB59:
 878              	.LBB60:
 879              		.loc 5 27 0
 880 0002 074B     		ldr	r3, .L95
 881              	.LBE60:
 882              	.LBE59:
 883              	.LBB64:
 884              	.LBB65:
 885              		.loc 5 85 0
 886 0004 074C     		ldr	r4, .L95+4
 887              	.LBE65:
 888              	.LBE64:
 889              	.LBB68:
 890              	.LBB61:
 891              		.loc 5 27 0
 892 0006 084A     		ldr	r2, .L95+8
 893 0008 1A60     		str	r2, [r3]
 894              	.LBE61:
 895              	.LBE68:
 896              	.LBB69:
 897              	.LBB66:
 898              		.loc 5 85 0
 899 000a 1025     		movs	r5, #16
 900              	.LBE66:
 901              	.LBE69:
 902              	.LBB70:
 903              	.LBB62:
 904              		.loc 5 30 0
 905 000c 074A     		ldr	r2, .L95+12
 906              	.LBE62:
 907              	.LBE70:
 908              	.LBB71:
 909              	.LBB67:
 910              		.loc 5 85 0
 911 000e 6583     		strh	r5, [r4, #26]	@ movhi
 912              	.LBE67:
ARM GAS  /tmp/ccLJt9WM.s 			page 17


 913              	.LBE71:
 914              		.loc 5 129 0
 915 0010 1846     		mov	r0, r3
 916 0012 0821     		movs	r1, #8
 917              	.LBB72:
 918              	.LBB63:
 919              		.loc 5 30 0
 920 0014 5A60     		str	r2, [r3, #4]
 921              	.LBE63:
 922              	.LBE72:
 923              		.loc 5 129 0
 924 0016 FFF7FEFF 		bl	SPI_Transmit
 925              	.LVL74:
 926              	.LBB73:
 927              	.LBB74:
 928              		.loc 5 90 0
 929 001a 2583     		strh	r5, [r4, #24]	@ movhi
 930              	.LBE74:
 931              	.LBE73:
 932              		.loc 5 131 0
 933 001c 38BD     		pop	{r3, r4, r5, pc}
 934              	.L96:
 935 001e 00BF     		.align	2
 936              	.L95:
 937 0020 00000000 		.word	.LANCHOR0
 938 0024 00000240 		.word	1073872896
 939 0028 00000929 		.word	688455680
 940 002c 00001ED4 		.word	-736231424
 941              		.cfi_endproc
 942              	.LFE268:
 943              		.size	senddebugdata, .-senddebugdata
 944              		.section	.text.assert_failed,"ax",%progbits
 945              		.align	1
 946              		.p2align 4,,15
 947              		.global	assert_failed
 948              		.syntax unified
 949              		.thumb
 950              		.thumb_func
 951              		.fpu fpv4-sp-d16
 952              		.type	assert_failed, %function
 953              	assert_failed:
 954              	.LFB272:
 955              		.loc 1 180 0
 956              		.cfi_startproc
 957              		@ Volatile: function does not return.
 958              		@ args = 0, pretend = 0, frame = 0
 959              		@ frame_needed = 0, uses_anonymous_args = 0
 960              	.LVL75:
 961              		.loc 1 181 0
 962 0000 0A46     		mov	r2, r1
 963              		.loc 1 180 0
 964 0002 08B5     		push	{r3, lr}
 965              		.cfi_def_cfa_offset 8
 966              		.cfi_offset 3, -8
 967              		.cfi_offset 14, -4
 968              		.loc 1 181 0
 969 0004 0146     		mov	r1, r0
ARM GAS  /tmp/ccLJt9WM.s 			page 18


 970              	.LVL76:
 971 0006 0448     		ldr	r0, .L100
 972              	.LVL77:
 973 0008 FFF7FEFF 		bl	commands_printf
 974              	.LVL78:
 975              		.loc 1 182 0
 976 000c FFF7FEFF 		bl	mc_interface_release_motor
 977              	.LVL79:
 978              	.L98:
 979              		.loc 1 184 0 discriminator 1
 980 0010 0A20     		movs	r0, #10
 981 0012 FFF7FEFF 		bl	chThdSleep
 982              	.LVL80:
 983 0016 FBE7     		b	.L98
 984              	.L101:
 985              		.align	2
 986              	.L100:
 987 0018 00000000 		.word	.LC3
 988              		.cfi_endproc
 989              	.LFE272:
 990              		.size	assert_failed, .-assert_failed
 991              		.section	.text.startup.main,"ax",%progbits
 992              		.align	1
 993              		.p2align 4,,15
 994              		.global	main
 995              		.syntax unified
 996              		.thumb
 997              		.thumb_func
 998              		.fpu fpv4-sp-d16
 999              		.type	main, %function
 1000              	main:
 1001              	.LFB273:
 1002              		.loc 1 188 0
 1003              		.cfi_startproc
 1004              		@ args = 0, pretend = 0, frame = 840
 1005              		@ frame_needed = 0, uses_anonymous_args = 0
 1006 0000 70B5     		push	{r4, r5, r6, lr}
 1007              		.cfi_def_cfa_offset 16
 1008              		.cfi_offset 4, -16
 1009              		.cfi_offset 5, -12
 1010              		.cfi_offset 6, -8
 1011              		.cfi_offset 14, -4
 1012 0002 ADF5547D 		sub	sp, sp, #848
 1013              		.cfi_def_cfa_offset 864
 1014              		.loc 1 189 0
 1015 0006 FFF7FEFF 		bl	halInit
 1016              	.LVL81:
 1017              		.loc 1 190 0
 1018 000a FFF7FEFF 		bl	chSysInit
 1019              	.LVL82:
 1020              	.LBB75:
 1021              	.LBB76:
 1022              		.loc 5 64 0
 1023 000e 4249     		ldr	r1, .L109
 1024              		.loc 5 66 0
 1025 0010 424B     		ldr	r3, .L109+4
 1026              		.loc 5 64 0
ARM GAS  /tmp/ccLJt9WM.s 			page 19


 1027 0012 0A6B     		ldr	r2, [r1, #48]
 1028 0014 42F00102 		orr	r2, r2, #1
 1029 0018 0A63     		str	r2, [r1, #48]
 1030              		.loc 5 66 0
 1031 001a 1A68     		ldr	r2, [r3]
 1032 001c 42F42942 		orr	r2, r2, #43264
 1033 0020 1A60     		str	r2, [r3]
 1034              		.loc 5 68 0
 1035 0022 9A68     		ldr	r2, [r3, #8]
 1036 0024 42F47F42 		orr	r2, r2, #65280
 1037 0028 9A60     		str	r2, [r3, #8]
 1038              		.loc 5 70 0
 1039 002a 1A6A     		ldr	r2, [r3, #32]
 1040 002c 42F0AA42 		orr	r2, r2, #1426063360
 1041 0030 42F4A002 		orr	r2, r2, #5242880
 1042 0034 1A62     		str	r2, [r3, #32]
 1043              	.LBE76:
 1044              	.LBE75:
 1045              		.loc 1 192 0
 1046 0036 FFF7FEFF 		bl	SPI_Config
 1047              	.LVL83:
 1048              	.LBB77:
 1049              	.LBB78:
 1050              		.loc 5 75 0
 1051 003a 394A     		ldr	r2, .L109+8
 1052 003c 1368     		ldr	r3, [r2]
 1053 003e 43F04003 		orr	r3, r3, #64
 1054 0042 1360     		str	r3, [r2]
 1055              	.LVL84:
 1056 0044 6426     		movs	r6, #100
 1057              	.LVL85:
 1058              	.L103:
 1059              	.LBE78:
 1060              	.LBE77:
 1061              	.LBB79:
 1062              		.loc 1 199 0 discriminator 3
 1063 0046 FFF7FEFF 		bl	senddebugdata
 1064              	.LVL86:
 1065              		.loc 1 200 0 discriminator 3
 1066 004a 0A20     		movs	r0, #10
 1067 004c FFF7FEFF 		bl	chThdSleep
 1068              	.LVL87:
 1069              		.loc 1 197 0 discriminator 3
 1070 0050 013E     		subs	r6, r6, #1
 1071              	.LVL88:
 1072 0052 F8D1     		bne	.L103
 1073              	.LBE79:
 1074              		.loc 1 213 0
 1075 0054 4FF47A70 		mov	r0, #1000
 1076              		.loc 1 216 0
 1077 0058 324D     		ldr	r5, .L109+12
 1078              		.loc 1 213 0
 1079 005a FFF7FEFF 		bl	chThdSleep
 1080              	.LVL89:
 1081              		.loc 1 216 0
 1082 005e 0224     		movs	r4, #2
 1083              		.loc 1 215 0
ARM GAS  /tmp/ccLJt9WM.s 			page 20


 1084 0060 FFF7FEFF 		bl	hw_init_gpio
 1085              	.LVL90:
 1086              		.loc 1 217 0
 1087 0064 0123     		movs	r3, #1
 1088              		.loc 1 216 0
 1089 0066 6C83     		strh	r4, [r5, #26]	@ movhi
 1090              		.loc 1 217 0
 1091 0068 6B83     		strh	r3, [r5, #26]	@ movhi
 1092              		.loc 1 219 0
 1093 006a FFF7FEFF 		bl	timer_init
 1094              	.LVL91:
 1095              		.loc 1 220 0
 1096 006e FFF7FEFF 		bl	conf_general_init
 1097              	.LVL92:
 1098              		.loc 1 222 0
 1099 0072 FFF7FEFF 		bl	flash_helper_verify_flash_memory
 1100              	.LVL93:
 1101 0076 0E28     		cmp	r0, #14
 1102 0078 43D0     		beq	.L105
 1103              		.loc 1 232 0
 1104 007a FFF7FEFF 		bl	ledpwm_init
 1105              	.LVL94:
 1106              		.loc 1 235 0
 1107 007e 62A8     		add	r0, sp, #392
 1108 0080 FFF7FEFF 		bl	conf_general_read_mc_configuration
 1109              	.LVL95:
 1110              		.loc 1 237 0
 1111 0084 62A8     		add	r0, sp, #392
 1112 0086 FFF7FEFF 		bl	mc_interface_init
 1113              	.LVL96:
 1114              		.loc 1 240 0
 1115 008a 03A8     		add	r0, sp, #12
 1116 008c FFF7FEFF 		bl	conf_general_read_custom_configuration
 1117              	.LVL97:
 1118              		.loc 1 242 0
 1119 0090 FFF7FEFF 		bl	commands_init
 1120              	.LVL98:
 1121              		.loc 1 246 0
 1122 0094 FFF7FEFF 		bl	comm_usb_init
 1123              	.LVL99:
 1124              		.loc 1 250 0
 1125 0098 FFF7FEFF 		bl	comm_can_init
 1126              	.LVL100:
 1127              		.loc 1 254 0
 1128 009c 04A8     		add	r0, sp, #16
 1129 009e FFF7FEFF 		bl	conf_general_read_app_configuration
 1130              	.LVL101:
 1131              		.loc 1 255 0
 1132 00a2 04A8     		add	r0, sp, #16
 1133 00a4 FFF7FEFF 		bl	app_set_configuration
 1134              	.LVL102:
 1135              		.loc 1 261 0
 1136 00a8 0398     		ldr	r0, [sp, #12]
 1137 00aa FFF7FEFF 		bl	mc_interface_set_odo_value
 1138              	.LVL103:
 1139              		.loc 1 263 0
 1140 00ae FFF7FEFF 		bl	app_uartcomm_start_permanent
ARM GAS  /tmp/ccLJt9WM.s 			page 21


 1141              	.LVL104:
 1142              		.loc 1 294 0
 1143 00b2 1D4B     		ldr	r3, .L109+16
 1144 00b4 0096     		str	r6, [sp]
 1145 00b6 4022     		movs	r2, #64
 1146 00b8 4FF4B361 		mov	r1, #1432
 1147 00bc 1B48     		ldr	r0, .L109+20
 1148 00be FFF7FEFF 		bl	chThdCreateStatic
 1149              	.LVL105:
 1150              		.loc 1 295 0
 1151 00c2 1B4B     		ldr	r3, .L109+24
 1152 00c4 0096     		str	r6, [sp]
 1153 00c6 4022     		movs	r2, #64
 1154 00c8 4FF40671 		mov	r1, #536
 1155 00cc 1948     		ldr	r0, .L109+28
 1156 00ce FFF7FEFF 		bl	chThdCreateStatic
 1157              	.LVL106:
 1158              		.loc 1 296 0
 1159 00d2 2246     		mov	r2, r4
 1160 00d4 184B     		ldr	r3, .L109+32
 1161 00d6 0096     		str	r6, [sp]
 1162 00d8 4FF42671 		mov	r1, #664
 1163 00dc 1748     		ldr	r0, .L109+36
 1164 00de FFF7FEFF 		bl	chThdCreateStatic
 1165              	.LVL107:
 1166              		.loc 1 358 0
 1167 00e2 FFF7FEFF 		bl	timeout_init
 1168              	.LVL108:
 1169              		.loc 1 359 0
 1170 00e6 9DED060A 		vldr.32	s0, [sp, #24]
 1171 00ea 0598     		ldr	r0, [sp, #20]
 1172 00ec FFF7FEFF 		bl	timeout_configure
 1173              	.LVL109:
 1174              		.loc 1 360 0
 1175 00f0 4FA8     		add	r0, sp, #316
 1176 00f2 FFF7FEFF 		bl	imu_init
 1177              	.LVL110:
 1178              		.loc 1 363 0
 1179 00f6 FFF7FEFF 		bl	bm_init
 1180              	.LVL111:
 1181              	.L106:
 1182              		.loc 1 371 0 discriminator 1
 1183 00fa 6420     		movs	r0, #100
 1184 00fc FFF7FEFF 		bl	chThdSleep
 1185              	.LVL112:
 1186 0100 FBE7     		b	.L106
 1187              	.L105:
 1188              		.loc 1 225 0 discriminator 1
 1189 0102 4FF47A70 		mov	r0, #1000
 1190 0106 FFF7FEFF 		bl	chThdSleep
 1191              	.LVL113:
 1192              		.loc 1 226 0 discriminator 1
 1193 010a 2C83     		strh	r4, [r5, #24]	@ movhi
 1194              		.loc 1 227 0 discriminator 1
 1195 010c 40F2EE20 		movw	r0, #750
 1196 0110 FFF7FEFF 		bl	chThdSleep
 1197              	.LVL114:
ARM GAS  /tmp/ccLJt9WM.s 			page 22


 1198              		.loc 1 228 0 discriminator 1
 1199 0114 6C83     		strh	r4, [r5, #26]	@ movhi
 1200 0116 F4E7     		b	.L105
 1201              	.L110:
 1202              		.align	2
 1203              	.L109:
 1204 0118 00380240 		.word	1073887232
 1205 011c 00000240 		.word	1073872896
 1206 0120 00300140 		.word	1073819648
 1207 0124 00040240 		.word	1073873920
 1208 0128 00000000 		.word	periodic_thread
 1209 012c 00000000 		.word	.LANCHOR1
 1210 0130 00000000 		.word	timer_thread
 1211 0134 00000000 		.word	.LANCHOR2
 1212 0138 00000000 		.word	flash_integrity_check_thread
 1213 013c 00000000 		.word	.LANCHOR3
 1214              		.cfi_endproc
 1215              	.LFE273:
 1216              		.size	main, .-main
 1217              		.global	spi_data
 1218              		.section	.bss.flash_integrity_check_thread_wa,"aw",%nobits
 1219              		.align	3
 1220              		.set	.LANCHOR3,. + 0
 1221              		.type	flash_integrity_check_thread_wa, %object
 1222              		.size	flash_integrity_check_thread_wa, 664
 1223              	flash_integrity_check_thread_wa:
 1224 0000 00000000 		.space	664
 1224      00000000 
 1224      00000000 
 1224      00000000 
 1224      00000000 
 1225              		.section	.bss.periodic_thread_wa,"aw",%nobits
 1226              		.align	3
 1227              		.set	.LANCHOR1,. + 0
 1228              		.type	periodic_thread_wa, %object
 1229              		.size	periodic_thread_wa, 1432
 1230              	periodic_thread_wa:
 1231 0000 00000000 		.space	1432
 1231      00000000 
 1231      00000000 
 1231      00000000 
 1231      00000000 
 1232              		.section	.bss.spi_data,"aw",%nobits
 1233              		.align	2
 1234              		.set	.LANCHOR0,. + 0
 1235              		.type	spi_data, %object
 1236              		.size	spi_data, 8
 1237              	spi_data:
 1238 0000 00000000 		.space	8
 1238      00000000 
 1239              		.section	.bss.timer_thread_wa,"aw",%nobits
 1240              		.align	3
 1241              		.set	.LANCHOR2,. + 0
 1242              		.type	timer_thread_wa, %object
 1243              		.size	timer_thread_wa, 536
 1244              	timer_thread_wa:
 1245 0000 00000000 		.space	536
ARM GAS  /tmp/ccLJt9WM.s 			page 23


 1245      00000000 
 1245      00000000 
 1245      00000000 
 1245      00000000 
 1246              		.section	.rodata.assert_failed.str1.4,"aMS",%progbits,1
 1247              		.align	2
 1248              	.LC3:
 1249 0000 57726F6E 		.ascii	"Wrong parameters value: file %s on line %d\015\012\000"
 1249      67207061 
 1249      72616D65 
 1249      74657273 
 1249      2076616C 
 1250              		.section	.rodata.flash_integrity_check_thread.str1.4,"aMS",%progbits,1
 1251              		.align	2
 1252              	.LC0:
 1253 0000 466C6173 		.ascii	"Flash check\000"
 1253      68206368 
 1253      65636B00 
 1254              		.section	.rodata.periodic_thread.str1.4,"aMS",%progbits,1
 1255              		.align	2
 1256              	.LC2:
 1257 0000 4D61696E 		.ascii	"Main periodic\000"
 1257      20706572 
 1257      696F6469 
 1257      6300
 1258              		.section	.rodata.timer_thread.str1.4,"aMS",%progbits,1
 1259              		.align	2
 1260              	.LC1:
 1261 0000 6D736563 		.ascii	"msec_timer\000"
 1261      5F74696D 
 1261      657200
 1262              		.text
 1263              	.Letext0:
 1264              		.file 6 "/usr/lib/gcc/arm-none-eabi/7.3.1/include/stddef.h"
 1265              		.file 7 "/usr/arm-none-eabi/include/machine/_default_types.h"
 1266              		.file 8 "/usr/arm-none-eabi/include/sys/_stdint.h"
 1267              		.file 9 "ChibiOS_3.0.2/os/rt/ports/ARMCMx/compilers/GCC/chtypes.h"
 1268              		.file 10 "ChibiOS_3.0.2/os/rt/include/chsystypes.h"
 1269              		.file 11 "ChibiOS_3.0.2/os/rt/include/chschd.h"
 1270              		.file 12 "ChibiOS_3.0.2/os/ext/CMSIS/ST/system_stm32f4xx.h"
 1271              		.file 13 "ChibiOS_3.0.2/os/ext/CMSIS/ST/stm32f407xx.h"
 1272              		.file 14 "ChibiOS_3.0.2/os/rt/ports/ARMCMx/chcore.h"
 1273              		.file 15 "ChibiOS_3.0.2/os/rt/ports/ARMCMx/chcore_v7m.h"
 1274              		.file 16 "ChibiOS_3.0.2/os/rt/include/chtm.h"
 1275              		.file 17 "ChibiOS_3.0.2/os/rt/include/chsem.h"
 1276              		.file 18 "ChibiOS_3.0.2/os/rt/include/chmtx.h"
 1277              		.file 19 "ChibiOS_3.0.2/os/rt/include/chevents.h"
 1278              		.file 20 "ChibiOS_3.0.2/os/rt/include/chqueues.h"
 1279              		.file 21 "ChibiOS_3.0.2/os/ext/CMSIS/ST/stm32f4xx.h"
 1280              		.file 22 "./datatypes.h"
 1281              		.file 23 "./conf_general.h"
 1282              		.file 24 "ChibiOS_3.0.2/os/hal/ports/STM32/STM32F4xx/stm32_dma.h"
 1283              		.file 25 "ChibiOS_3.0.2/os/hal/ports/STM32/LLD/GPIOv2/pal_lld.h"
 1284              		.file 26 "ChibiOS_3.0.2/os/hal/include/can.h"
 1285              		.file 27 "ChibiOS_3.0.2/os/hal/ports/STM32/LLD/can_lld.h"
 1286              		.file 28 "ChibiOS_3.0.2/os/hal/include/i2c.h"
 1287              		.file 29 "ChibiOS_3.0.2/os/hal/ports/STM32/LLD/I2Cv1/i2c_lld.h"
ARM GAS  /tmp/ccLJt9WM.s 			page 24


 1288              		.file 30 "ChibiOS_3.0.2/os/hal/include/icu.h"
 1289              		.file 31 "ChibiOS_3.0.2/os/hal/ports/STM32/LLD/TIMv1/icu_lld.h"
 1290              		.file 32 "ChibiOS_3.0.2/os/hal/ports/STM32/LLD/TIMv1/stm32_tim.h"
 1291              		.file 33 "ChibiOS_3.0.2/os/hal/include/serial.h"
 1292              		.file 34 "ChibiOS_3.0.2/os/hal/ports/STM32/LLD/USARTv1/serial_lld.h"
 1293              		.file 35 "ChibiOS_3.0.2/os/hal/include/spi.h"
 1294              		.file 36 "ChibiOS_3.0.2/os/hal/ports/STM32/LLD/SPIv1/spi_lld.h"
 1295              		.file 37 "ChibiOS_3.0.2/os/hal/include/usb.h"
 1296              		.file 38 "ChibiOS_3.0.2/os/hal/ports/STM32/LLD/OTGv1/usb_lld.h"
 1297              		.file 39 "ChibiOS_3.0.2/os/hal/ports/STM32/LLD/OTGv1/stm32_otg.h"
 1298              		.file 40 "/usr/arm-none-eabi/include/sys/lock.h"
 1299              		.file 41 "/usr/arm-none-eabi/include/sys/_types.h"
 1300              		.file 42 "/usr/arm-none-eabi/include/sys/reent.h"
 1301              		.file 43 "/usr/arm-none-eabi/include/math.h"
 1302              		.file 44 "/usr/arm-none-eabi/include/stdlib.h"
 1303              		.file 45 "mc_interface.h"
 1304              		.file 46 "mcpwm.h"
 1305              		.file 47 "timeout.h"
 1306              		.file 48 "ChibiOS_3.0.2/os/rt/include/chthreads.h"
 1307              		.file 49 "ChibiOS_3.0.2/os/hal/include/hal.h"
 1308              		.file 50 "ChibiOS_3.0.2/os/rt/include/chsys.h"
 1309              		.file 51 "hwconf/hw.h"
 1310              		.file 52 "timer.h"
 1311              		.file 53 "flash_helper.h"
 1312              		.file 54 "ledpwm.h"
 1313              		.file 55 "commands.h"
 1314              		.file 56 "comm_usb.h"
 1315              		.file 57 "comm_can.h"
 1316              		.file 58 "applications/app.h"
 1317              		.file 59 "imu/imu.h"
 1318              		.file 60 "blackmagic/bm_if.h"
 1319              		.file 61 "packet.h"
 1320              		.file 62 "mcpwm_foc.h"
 1321              		.file 63 "utils.h"
 1322              		.file 64 "encoder.h"
 1323              		.file 65 "ChibiOS_3.0.2/ext/stdperiph_stm32f4/inc/stm32f4xx_rcc.h"