ARM GAS  /tmp/cclp9RuQ.s 			page 1


   1              		.cpu cortex-m4
   2              		.eabi_attribute 27, 1
   3              		.eabi_attribute 28, 1
   4              		.eabi_attribute 20, 1
   5              		.eabi_attribute 21, 1
   6              		.eabi_attribute 23, 3
   7              		.eabi_attribute 24, 1
   8              		.eabi_attribute 25, 1
   9              		.eabi_attribute 26, 1
  10              		.eabi_attribute 30, 2
  11              		.eabi_attribute 34, 1
  12              		.eabi_attribute 18, 4
  13              		.file	"mc_interface.c"
  14              		.text
  15              	.Ltext0:
  16              		.cfi_sections	.debug_frame
  17              		.section	.text.sample_send_thread,"ax",%progbits
  18              		.align	1
  19              		.p2align 4,,15
  20              		.syntax unified
  21              		.thumb
  22              		.thumb_func
  23              		.fpu fpv4-sp-d16
  24              		.type	sample_send_thread, %function
  25              	sample_send_thread:
  26              	.LFB363:
  27              		.file 1 "mc_interface.c"
  28              		.loc 1 2866 0
  29              		.cfi_startproc
  30              		@ args = 0, pretend = 0, frame = 48
  31              		@ frame_needed = 0, uses_anonymous_args = 0
  32              	.LVL0:
  33 0000 2DE9F04F 		push	{r4, r5, r6, r7, r8, r9, r10, fp, lr}
  34              		.cfi_def_cfa_offset 36
  35              		.cfi_offset 4, -36
  36              		.cfi_offset 5, -32
  37              		.cfi_offset 6, -28
  38              		.cfi_offset 7, -24
  39              		.cfi_offset 8, -20
  40              		.cfi_offset 9, -16
  41              		.cfi_offset 10, -12
  42              		.cfi_offset 11, -8
  43              		.cfi_offset 14, -4
  44              	.LBB265:
  45              	.LBB266:
  46              		.file 2 "ChibiOS_3.0.2/os/rt/include/chregistry.h"
  47              		.loc 2 135 0
  48 0004 774B     		ldr	r3, .L21
  49              	.LBE266:
  50              	.LBE265:
  51              		.loc 1 2871 0
  52 0006 784A     		ldr	r2, .L21+4
  53              	.LBB269:
  54              	.LBB267:
  55              		.loc 2 135 0
  56 0008 9B69     		ldr	r3, [r3, #24]
  57 000a 7849     		ldr	r1, .L21+8
ARM GAS  /tmp/cclp9RuQ.s 			page 2


  58 000c DFF80C82 		ldr	r8, .L21+56
  59 0010 774F     		ldr	r7, .L21+12
  60              	.LBE267:
  61              	.LBE269:
  62              		.loc 1 2866 0
  63 0012 2DED068B 		vpush.64	{d8, d9, d10}
  64              		.cfi_def_cfa_offset 60
  65              		.cfi_offset 80, -60
  66              		.cfi_offset 81, -56
  67              		.cfi_offset 82, -52
  68              		.cfi_offset 83, -48
  69              		.cfi_offset 84, -44
  70              		.cfi_offset 85, -40
  71              	.LBB270:
  72              	.LBB271:
  73              	.LBB272:
  74              		.loc 1 2912 0
  75 0016 DFED779A 		vldr.32	s19, .L21+16
  76              		.loc 1 2914 0
  77 001a 9FED779A 		vldr.32	s18, .L21+20
  78 001e DFED778A 		vldr.32	s17, .L21+24
  79 0022 9FED778A 		vldr.32	s16, .L21+28
  80              		.loc 1 2921 0
  81 0026 9FED77AA 		vldr.32	s20, .L21+32
  82              	.LBE272:
  83              	.LBE271:
  84              	.LBE270:
  85              	.LBB280:
  86              	.LBB268:
  87              		.loc 2 135 0
  88 002a 9961     		str	r1, [r3, #24]
  89              	.LVL1:
  90              	.LBE268:
  91              	.LBE280:
  92              		.loc 1 2866 0
  93 002c 8DB0     		sub	sp, sp, #52
  94              		.cfi_def_cfa_offset 112
  95              		.loc 1 2871 0
  96 002e 1360     		str	r3, [r2]
  97              	.LVL2:
  98              	.L13:
  99              	.LBB281:
 100              		.loc 1 2874 0
 101 0030 0120     		movs	r0, #1
 102 0032 FFF7FEFF 		bl	chEvtWaitAny
 103              	.LVL3:
 104              		.loc 1 2879 0
 105 0036 744B     		ldr	r3, .L21+36
 106 0038 1B78     		ldrb	r3, [r3]	@ zero_extendqisi2
 107 003a 013B     		subs	r3, r3, #1
 108 003c 052B     		cmp	r3, #5
 109 003e F7D8     		bhi	.L13
 110 0040 DFE803F0 		tbb	[pc, r3]
 111              	.L4:
 112 0044 03       		.byte	(.L3-.L4)/2
 113 0045 03       		.byte	(.L3-.L4)/2
 114 0046 C7       		.byte	(.L5-.L4)/2
ARM GAS  /tmp/cclp9RuQ.s 			page 3


 115 0047 C7       		.byte	(.L5-.L4)/2
 116 0048 C7       		.byte	(.L5-.L4)/2
 117 0049 C7       		.byte	(.L5-.L4)/2
 118              		.p2align 1
 119              	.L3:
 120              		.loc 1 2882 0
 121 004a 704B     		ldr	r3, .L21+40
 122 004c D3F80090 		ldr	r9, [r3]
 123              	.LVL4:
 124              	.LBB277:
 125              		.loc 1 2897 0
 126 0050 B9F1000F 		cmp	r9, #0
 127              	.LBE277:
 128              		.loc 1 2877 0
 129 0054 C8BF     		it	gt
 130 0056 4FF0000A 		movgt	r10, #0
 131              	.LBB278:
 132              		.loc 1 2897 0
 133 005a E9DD     		ble	.L13
 134              	.LVL5:
 135              	.L6:
 136              	.LBB273:
 137              		.loc 1 2902 0
 138 005c BAF57A7F 		cmp	r10, #1000
 139              	.LBE273:
 140              	.LBE278:
 141              		.loc 1 2889 0
 142 0060 4FF00006 		mov	r6, #0
 143              	.LVL6:
 144              	.LBB279:
 145              	.LBB274:
 146              		.loc 1 2900 0
 147 0064 5446     		mov	r4, r10
 148              	.LVL7:
 149              		.loc 1 2902 0
 150 0066 C0F2AC80 		blt	.L7
 151              	.L8:
 152              		.loc 1 2903 0
 153 006a A4F57A74 		sub	r4, r4, #1000
 154              	.LVL8:
 155              		.loc 1 2902 0
 156 006e B4F57A7F 		cmp	r4, #1000
 157 0072 FADA     		bge	.L8
 158              	.L9:
 159              		.loc 1 2912 0 discriminator 2
 160 0074 38F81430 		ldrh	r3, [r8, r4, lsl #1]
 161 0078 1BB2     		sxth	r3, r3
 162 007a 07EE903A 		vmov	s15, r3	@ int
 163              		.loc 1 2910 0 discriminator 2
 164 007e 0122     		movs	r2, #1
 165              		.loc 1 2913 0 discriminator 2
 166 0080 04FA02F5 		lsl	r5, r4, r2
 167              		.loc 1 2912 0 discriminator 2
 168 0084 B8EEE70A 		vcvt.f32.s32	s0, s15
 169              		.loc 1 2913 0 discriminator 2
 170 0088 08EB050B 		add	fp, r8, r5
 171              		.loc 1 2910 0 discriminator 2
ARM GAS  /tmp/cclp9RuQ.s 			page 4


 172 008c 1323     		movs	r3, #19
 173              		.loc 1 2912 0 discriminator 2
 174 008e 20EE290A 		vmul.f32	s0, s0, s19
 175 0092 01A9     		add	r1, sp, #4
 176 0094 02A8     		add	r0, sp, #8
 177              		.loc 1 2910 0 discriminator 2
 178 0096 0192     		str	r2, [sp, #4]
 179 0098 8DF80830 		strb	r3, [sp, #8]
 180              		.loc 1 2912 0 discriminator 2
 181 009c FFF7FEFF 		bl	buffer_append_float32_auto
 182              	.LVL9:
 183              		.loc 1 2913 0 discriminator 2
 184 00a0 BBF8D037 		ldrh	r3, [fp, #2000]
 185 00a4 1BB2     		sxth	r3, r3
 186 00a6 07EE903A 		vmov	s15, r3	@ int
 187 00aa B8EEE70A 		vcvt.f32.s32	s0, s15
 188 00ae 01A9     		add	r1, sp, #4
 189 00b0 20EE290A 		vmul.f32	s0, s0, s19
 190 00b4 02A8     		add	r0, sp, #8
 191 00b6 FFF7FEFF 		bl	buffer_append_float32_auto
 192              	.LVL10:
 193              		.loc 1 2914 0 discriminator 2
 194 00ba BBF8A03F 		ldrh	r3, [fp, #4000]
 195 00be 1BB2     		sxth	r3, r3
 196 00c0 00EE103A 		vmov	s0, r3	@ int
 197 00c4 B8EEC00A 		vcvt.f32.s32	s0, s0
 198              		.loc 1 2915 0 discriminator 2
 199 00c8 514B     		ldr	r3, .L21+44
 200              		.loc 1 2914 0 discriminator 2
 201 00ca 20EE090A 		vmul.f32	s0, s0, s18
 202              		.loc 1 2915 0 discriminator 2
 203 00ce 03EB050B 		add	fp, r3, r5
 204              		.loc 1 2914 0 discriminator 2
 205 00d2 20EE280A 		vmul.f32	s0, s0, s17
 206 00d6 01A9     		add	r1, sp, #4
 207 00d8 02A8     		add	r0, sp, #8
 208 00da 20EE080A 		vmul.f32	s0, s0, s16
 209 00de FFF7FEFF 		bl	buffer_append_float32_auto
 210              	.LVL11:
 211              		.loc 1 2915 0 discriminator 2
 212 00e2 BBF87836 		ldrh	r3, [fp, #1656]
 213 00e6 1BB2     		sxth	r3, r3
 214 00e8 00EE103A 		vmov	s0, r3	@ int
 215 00ec B8EEC00A 		vcvt.f32.s32	s0, s0
 216 00f0 01A9     		add	r1, sp, #4
 217 00f2 20EE090A 		vmul.f32	s0, s0, s18
 218 00f6 02A8     		add	r0, sp, #8
 219 00f8 20EE280A 		vmul.f32	s0, s0, s17
 220              		.loc 1 2924 0 discriminator 2
 221 00fc 3C44     		add	r4, r4, r7
 222              	.LVL12:
 223              		.loc 1 2915 0 discriminator 2
 224 00fe 20EE080A 		vmul.f32	s0, s0, s16
 225 0102 FFF7FEFF 		bl	buffer_append_float32_auto
 226              	.LVL13:
 227              		.loc 1 2916 0 discriminator 2
 228 0106 BBF8483E 		ldrh	r3, [fp, #3656]
ARM GAS  /tmp/cclp9RuQ.s 			page 5


 229 010a 1BB2     		sxth	r3, r3
 230 010c 00EE103A 		vmov	s0, r3	@ int
 231 0110 B8EEC00A 		vcvt.f32.s32	s0, s0
 232              		.loc 1 2917 0 discriminator 2
 233 0114 3F4B     		ldr	r3, .L21+48
 234              		.loc 1 2916 0 discriminator 2
 235 0116 20EE090A 		vmul.f32	s0, s0, s18
 236              		.loc 1 2917 0 discriminator 2
 237 011a 03EB050B 		add	fp, r3, r5
 238              		.loc 1 2916 0 discriminator 2
 239 011e 20EE280A 		vmul.f32	s0, s0, s17
 240 0122 01A9     		add	r1, sp, #4
 241 0124 02A8     		add	r0, sp, #8
 242 0126 20EE080A 		vmul.f32	s0, s0, s16
 243 012a FFF7FEFF 		bl	buffer_append_float32_auto
 244              	.LVL14:
 245              		.loc 1 2917 0 discriminator 2
 246 012e BBF82035 		ldrh	r3, [fp, #1312]
 247 0132 1BB2     		sxth	r3, r3
 248 0134 00EE103A 		vmov	s0, r3	@ int
 249 0138 B8EEC00A 		vcvt.f32.s32	s0, s0
 250 013c 01A9     		add	r1, sp, #4
 251 013e 20EE090A 		vmul.f32	s0, s0, s18
 252 0142 02A8     		add	r0, sp, #8
 253 0144 20EE280A 		vmul.f32	s0, s0, s17
 254              		.loc 1 2923 0 discriminator 2
 255 0148 3D44     		add	r5, r5, r7
 256              		.loc 1 2917 0 discriminator 2
 257 014a 20EE080A 		vmul.f32	s0, s0, s16
 258 014e FFF7FEFF 		bl	buffer_append_float32_auto
 259              	.LVL15:
 260              		.loc 1 2921 0 discriminator 2
 261 0152 BBF8F03C 		ldrh	r3, [fp, #3312]
 262 0156 1BB2     		sxth	r3, r3
 263 0158 07EE903A 		vmov	s15, r3	@ int
 264 015c B8EEE70A 		vcvt.f32.s32	s0, s15
 265 0160 01A9     		add	r1, sp, #4
 266 0162 80EE0A0A 		vdiv.f32	s0, s0, s20
 267 0166 02A8     		add	r0, sp, #8
 268 0168 FFF7FEFF 		bl	buffer_append_float32_auto
 269              	.LVL16:
 270              		.loc 1 2923 0 discriminator 2
 271 016c B5F8C833 		ldrh	r3, [r5, #968]
 272 0170 1BB2     		sxth	r3, r3
 273 0172 01A9     		add	r1, sp, #4
 274 0174 02A8     		add	r0, sp, #8
 275              	.LBE274:
 276              		.loc 1 2897 0 discriminator 2
 277 0176 0136     		adds	r6, r6, #1
 278              	.LVL17:
 279 0178 0AF1010A 		add	r10, r10, #1
 280              	.LBB275:
 281              		.loc 1 2923 0 discriminator 2
 282 017c 07EE903A 		vmov	s15, r3	@ int
 283 0180 F8EEE77A 		vcvt.f32.s32	s15, s15
 284 0184 B2EE040A 		vmov.f32	s0, #1.0e+1
 285 0188 27EE800A 		vmul.f32	s0, s15, s0
ARM GAS  /tmp/cclp9RuQ.s 			page 6


 286 018c FFF7FEFF 		bl	buffer_append_float32_auto
 287              	.LVL18:
 288              		.loc 1 2924 0 discriminator 2
 289 0190 019B     		ldr	r3, [sp, #4]
 290 0192 94F8981B 		ldrb	r1, [r4, #2968]	@ zero_extendqisi2
 291              		.loc 1 2925 0 discriminator 2
 292 0196 94F8804F 		ldrb	r4, [r4, #3968]	@ zero_extendqisi2
 293              		.loc 1 2924 0 discriminator 2
 294 019a 0CAA     		add	r2, sp, #48
 295 019c 1A44     		add	r2, r2, r3
 296              		.loc 1 2925 0 discriminator 2
 297 019e 0233     		adds	r3, r3, #2
 298              		.loc 1 2924 0 discriminator 2
 299 01a0 02F8281C 		strb	r1, [r2, #-40]
 300              		.loc 1 2928 0 discriminator 2
 301 01a4 02A8     		add	r0, sp, #8
 302 01a6 1946     		mov	r1, r3
 303              		.loc 1 2925 0 discriminator 2
 304 01a8 02F8274C 		strb	r4, [r2, #-39]
 305 01ac 0193     		str	r3, [sp, #4]
 306              		.loc 1 2928 0 discriminator 2
 307 01ae FFF7FEFF 		bl	commands_send_packet
 308              	.LVL19:
 309              	.LBE275:
 310              		.loc 1 2897 0 discriminator 2
 311 01b2 4E45     		cmp	r6, r9
 312 01b4 BFF63CAF 		bge	.L13
 313              	.LBB276:
 314              		.loc 1 2902 0
 315 01b8 BAF57A7F 		cmp	r10, #1000
 316              		.loc 1 2900 0
 317 01bc 5446     		mov	r4, r10
 318              	.LVL20:
 319              		.loc 1 2902 0
 320 01be BFF654AF 		bge	.L8
 321              	.L7:
 322              		.loc 1 2906 0
 323 01c2 BAF1000F 		cmp	r10, #0
 324 01c6 BFF655AF 		bge	.L9
 325              	.L10:
 326              	.LVL21:
 327 01ca 14F57A74 		adds	r4, r4, #1000
 328              	.LVL22:
 329 01ce FCD4     		bmi	.L10
 330 01d0 50E7     		b	.L9
 331              	.LVL23:
 332              	.L5:
 333              	.LBE276:
 334              	.LBE279:
 335              		.loc 1 2890 0
 336 01d2 114B     		ldr	r3, .L21+52
 337 01d4 0D4A     		ldr	r2, .L21+40
 338 01d6 1B68     		ldr	r3, [r3]
 339 01d8 1268     		ldr	r2, [r2]
 340              		.loc 1 2889 0
 341 01da 4FF47A79 		mov	r9, #1000
 342              		.loc 1 2890 0
ARM GAS  /tmp/cclp9RuQ.s 			page 7


 343 01de A3EB020A 		sub	r10, r3, r2
 344              	.LVL24:
 345 01e2 3BE7     		b	.L6
 346              	.L22:
 347              		.align	2
 348              	.L21:
 349 01e4 00000000 		.word	ch
 350 01e8 00000000 		.word	.LANCHOR0
 351 01ec 00000000 		.word	.LC0
 352 01f0 E8320000 		.word	.LANCHOR7
 353 01f4 AD70243E 		.word	1042575533
 354 01f8 00008039 		.word	964689920
 355 01fc 986E5240 		.word	1079144088
 356 0200 BAE8B241 		.word	1102244026
 357 0204 24454742 		.word	1111967012
 358 0208 00000000 		.word	.LANCHOR1
 359 020c 00000000 		.word	.LANCHOR2
 360 0210 F8100000 		.word	.LANCHOR5
 361 0214 F0210000 		.word	.LANCHOR6
 362 0218 00000000 		.word	.LANCHOR3
 363 021c 00000000 		.word	.LANCHOR4
 364              	.LBE281:
 365              		.cfi_endproc
 366              	.LFE363:
 367              		.size	sample_send_thread, .-sample_send_thread
 368              		.section	.text.mc_interface_set_handbrake.part.4,"ax",%progbits
 369              		.align	1
 370              		.p2align 4,,15
 371              		.syntax unified
 372              		.thumb
 373              		.thumb_func
 374              		.fpu fpv4-sp-d16
 375              		.type	mc_interface_set_handbrake.part.4, %function
 376              	mc_interface_set_handbrake.part.4:
 377              	.LFB368:
 378              		.loc 1 967 0
 379              		.cfi_startproc
 380              		@ args = 0, pretend = 0, frame = 0
 381              		@ frame_needed = 0, uses_anonymous_args = 0
 382              		@ link register save eliminated.
 383              	.LVL25:
 384              		.loc 1 976 0
 385 0000 054B     		ldr	r3, .L29
 386 0002 9B78     		ldrb	r3, [r3, #2]	@ zero_extendqisi2
 387 0004 DBB2     		uxtb	r3, r3
 388 0006 012B     		cmp	r3, #1
 389 0008 04D9     		bls	.L25
 390 000a 022B     		cmp	r3, #2
 391 000c 01D1     		bne	.L28
 392              		.loc 1 984 0
 393 000e FFF7FEBF 		b	mcpwm_foc_set_handbrake
 394              	.LVL26:
 395              	.L28:
 396 0012 7047     		bx	lr
 397              	.L25:
 398              		.loc 1 980 0
 399 0014 FFF7FEBF 		b	mcpwm_set_brake_current
ARM GAS  /tmp/cclp9RuQ.s 			page 8


 400              	.LVL27:
 401              	.L30:
 402              		.align	2
 403              	.L29:
 404 0018 00000000 		.word	.LANCHOR8
 405              		.cfi_endproc
 406              	.LFE368:
 407              		.size	mc_interface_set_handbrake.part.4, .-mc_interface_set_handbrake.part.4
 408              		.section	.text.mc_interface_init,"ax",%progbits
 409              		.align	1
 410              		.p2align 4,,15
 411              		.global	mc_interface_init
 412              		.syntax unified
 413              		.thumb
 414              		.thumb_func
 415              		.fpu fpv4-sp-d16
 416              		.type	mc_interface_init, %function
 417              	mc_interface_init:
 418              	.LFB256:
 419              		.loc 1 150 0
 420              		.cfi_startproc
 421              		@ args = 0, pretend = 0, frame = 0
 422              		@ frame_needed = 0, uses_anonymous_args = 0
 423              	.LVL28:
 424 0000 2DE9F041 		push	{r4, r5, r6, r7, r8, lr}
 425              		.cfi_def_cfa_offset 24
 426              		.cfi_offset 4, -24
 427              		.cfi_offset 5, -20
 428              		.cfi_offset 6, -16
 429              		.cfi_offset 7, -12
 430              		.cfi_offset 8, -8
 431              		.cfi_offset 14, -4
 432              		.loc 1 152 0
 433 0004 0146     		mov	r1, r0
 434              		.loc 1 150 0
 435 0006 82B0     		sub	sp, sp, #8
 436              		.cfi_def_cfa_offset 32
 437              		.loc 1 150 0
 438 0008 0546     		mov	r5, r0
 439              		.loc 1 152 0
 440 000a 4FF4E472 		mov	r2, #456
 441              		.loc 1 157 0
 442 000e 744F     		ldr	r7, .L51
 443              		.loc 1 152 0
 444 0010 7448     		ldr	r0, .L51+4
 445              	.LVL29:
 446              		.loc 1 156 0
 447 0012 DFF87882 		ldr	r8, .L51+172
 448              		.loc 1 154 0
 449 0016 744E     		ldr	r6, .L51+8
 450              		.loc 1 152 0
 451 0018 FFF7FEFF 		bl	memcpy
 452              	.LVL30:
 453              		.loc 1 153 0
 454 001c 0024     		movs	r4, #0
 455              		.loc 1 158 0
 456 001e 734B     		ldr	r3, .L51+12
ARM GAS  /tmp/cclp9RuQ.s 			page 9


 457              		.loc 1 156 0
 458 0020 C8F80040 		str	r4, [r8]
 459              		.loc 1 155 0
 460 0024 7249     		ldr	r1, .L51+16
 461              		.loc 1 157 0
 462 0026 3C70     		strb	r4, [r7]
 463              		.loc 1 159 0
 464 0028 7248     		ldr	r0, .L51+20
 465              		.loc 1 160 0
 466 002a DFF864C2 		ldr	ip, .L51+176
 467              		.loc 1 161 0
 468 002e 724F     		ldr	r7, .L51+24
 469              		.loc 1 158 0
 470 0030 1C70     		strb	r4, [r3]
 471              		.loc 1 159 0
 472 0032 0022     		movs	r2, #0
 473              		.loc 1 162 0
 474 0034 714B     		ldr	r3, .L51+28
 475              		.loc 1 159 0
 476 0036 0260     		str	r2, [r0]	@ float
 477              		.loc 1 155 0
 478 0038 0C60     		str	r4, [r1]
 479              		.loc 1 160 0
 480 003a CCF80020 		str	r2, [ip]	@ float
 481              		.loc 1 163 0
 482 003e 7049     		ldr	r1, .L51+32
 483              		.loc 1 161 0
 484 0040 3A60     		str	r2, [r7]	@ float
 485              		.loc 1 164 0
 486 0042 7048     		ldr	r0, .L51+36
 487              		.loc 1 165 0
 488 0044 DFF84CC2 		ldr	ip, .L51+180
 489              		.loc 1 166 0
 490 0048 6F4F     		ldr	r7, .L51+40
 491              		.loc 1 162 0
 492 004a 1A60     		str	r2, [r3]	@ float
 493              		.loc 1 167 0
 494 004c 6F4B     		ldr	r3, .L51+44
 495              		.loc 1 163 0
 496 004e 0A60     		str	r2, [r1]	@ float
 497              		.loc 1 164 0
 498 0050 0260     		str	r2, [r0]	@ float
 499              		.loc 1 168 0
 500 0052 6F49     		ldr	r1, .L51+48
 501              		.loc 1 165 0
 502 0054 CCF80020 		str	r2, [ip]	@ float
 503              		.loc 1 169 0
 504 0058 6E48     		ldr	r0, .L51+52
 505              		.loc 1 166 0
 506 005a 3A60     		str	r2, [r7]	@ float
 507              		.loc 1 170 0
 508 005c DFF838C2 		ldr	ip, .L51+184
 509              		.loc 1 171 0
 510 0060 6D4F     		ldr	r7, .L51+56
 511              		.loc 1 167 0
 512 0062 1A60     		str	r2, [r3]	@ float
 513              		.loc 1 172 0
ARM GAS  /tmp/cclp9RuQ.s 			page 10


 514 0064 6D4B     		ldr	r3, .L51+60
 515              		.loc 1 168 0
 516 0066 0A60     		str	r2, [r1]	@ float
 517              		.loc 1 169 0
 518 0068 0260     		str	r2, [r0]	@ float
 519              		.loc 1 173 0
 520 006a 6D49     		ldr	r1, .L51+64
 521              		.loc 1 170 0
 522 006c CCF80020 		str	r2, [ip]	@ float
 523              		.loc 1 174 0
 524 0070 6C48     		ldr	r0, .L51+68
 525              		.loc 1 171 0
 526 0072 3A60     		str	r2, [r7]	@ float
 527              		.loc 1 175 0
 528 0074 DFF824C2 		ldr	ip, .L51+188
 529              		.loc 1 176 0
 530 0078 6B4F     		ldr	r7, .L51+72
 531              		.loc 1 172 0
 532 007a 1A60     		str	r2, [r3]	@ float
 533              		.loc 1 177 0
 534 007c 6B4B     		ldr	r3, .L51+76
 535              		.loc 1 173 0
 536 007e 0A60     		str	r2, [r1]	@ float
 537              		.loc 1 174 0
 538 0080 0260     		str	r2, [r0]	@ float
 539              		.loc 1 178 0
 540 0082 6B49     		ldr	r1, .L51+80
 541              		.loc 1 175 0
 542 0084 CCF80020 		str	r2, [ip]	@ float
 543              		.loc 1 179 0
 544 0088 6A48     		ldr	r0, .L51+84
 545              		.loc 1 176 0
 546 008a 3A60     		str	r2, [r7]	@ float
 547              		.loc 1 180 0
 548 008c DFF810C2 		ldr	ip, .L51+192
 549              		.loc 1 181 0
 550 0090 694F     		ldr	r7, .L51+88
 551              		.loc 1 177 0
 552 0092 1A60     		str	r2, [r3]	@ float
 553              		.loc 1 183 0
 554 0094 694B     		ldr	r3, .L51+92
 555              		.loc 1 178 0
 556 0096 0A60     		str	r2, [r1]	@ float
 557              		.loc 1 179 0
 558 0098 0260     		str	r2, [r0]	@ float
 559              		.loc 1 184 0
 560 009a 6949     		ldr	r1, .L51+96
 561              		.loc 1 180 0
 562 009c CCF80020 		str	r2, [ip]	@ float
 563              		.loc 1 185 0
 564 00a0 6848     		ldr	r0, .L51+100
 565              		.loc 1 181 0
 566 00a2 3A60     		str	r2, [r7]	@ float
 567              		.loc 1 183 0
 568 00a4 4FF47A77 		mov	r7, #1000
 569 00a8 1F60     		str	r7, [r3]
 570              		.loc 1 153 0
ARM GAS  /tmp/cclp9RuQ.s 			page 11


 571 00aa DFF8F8E1 		ldr	lr, .L51+196
 572              		.loc 1 186 0
 573 00ae DFF8F8C1 		ldr	ip, .L51+200
 574              		.loc 1 187 0
 575 00b2 654B     		ldr	r3, .L51+104
 576              		.loc 1 153 0
 577 00b4 8EF80040 		strb	r4, [lr]
 578              		.loc 1 184 0
 579 00b8 0127     		movs	r7, #1
 580 00ba 0F60     		str	r7, [r1]
 581              		.loc 1 188 0
 582 00bc 6349     		ldr	r1, .L51+108
 583              		.loc 1 185 0
 584 00be 0460     		str	r4, [r0]
 585              		.loc 1 190 0
 586 00c0 6348     		ldr	r0, .L51+112
 587              		.loc 1 154 0
 588 00c2 3470     		strb	r4, [r6]
 589              		.loc 1 186 0
 590 00c4 CCF80040 		str	r4, [ip]
 591              		.loc 1 191 0
 592 00c8 DFF8E0C1 		ldr	ip, .L51+204
 593              		.loc 1 208 0
 594 00cc 0094     		str	r4, [sp]
 595              		.loc 1 187 0
 596 00ce 1C70     		strb	r4, [r3]
 597              		.loc 1 188 0
 598 00d0 0C70     		strb	r4, [r1]
 599              		.loc 1 192 0
 600 00d2 604B     		ldr	r3, .L51+116
 601              		.loc 1 190 0
 602 00d4 0260     		str	r2, [r0]	@ float
 603              		.loc 1 194 0
 604 00d6 6048     		ldr	r0, .L51+120
 605              		.loc 1 191 0
 606 00d8 ACF80040 		strh	r4, [ip]	@ movhi
 607              		.loc 1 192 0
 608 00dc 5F49     		ldr	r1, .L51+124
 609              		.loc 1 195 0
 610 00de DFF8D0C1 		ldr	ip, .L51+208
 611              		.loc 1 192 0
 612 00e2 1960     		str	r1, [r3]	@ float
 613              		.loc 1 194 0
 614 00e4 0480     		strh	r4, [r0]	@ movhi
 615              		.loc 1 197 0
 616 00e6 5E4B     		ldr	r3, .L51+128
 617              		.loc 1 198 0
 618 00e8 5E48     		ldr	r0, .L51+132
 619              		.loc 1 195 0
 620 00ea ACF80040 		strh	r4, [ip]	@ movhi
 621              		.loc 1 197 0
 622 00ee 5E49     		ldr	r1, .L51+136
 623              		.loc 1 199 0
 624 00f0 DFF8C0C1 		ldr	ip, .L51+212
 625              		.loc 1 197 0
 626 00f4 1960     		str	r1, [r3]	@ float
 627              		.loc 1 198 0
ARM GAS  /tmp/cclp9RuQ.s 			page 12


 628 00f6 0260     		str	r2, [r0]	@ float
 629              		.loc 1 202 0
 630 00f8 5C4B     		ldr	r3, .L51+140
 631              		.loc 1 203 0
 632 00fa 5D49     		ldr	r1, .L51+144
 633              		.loc 1 205 0
 634 00fc 5D48     		ldr	r0, .L51+148
 635              		.loc 1 199 0
 636 00fe CCF80020 		str	r2, [ip]	@ float
 637              		.loc 1 205 0
 638 0102 4FF0630C 		mov	ip, #99
 639              		.loc 1 202 0
 640 0106 1A60     		str	r2, [r3]	@ float
 641              		.loc 1 203 0
 642 0108 0A60     		str	r2, [r1]	@ float
 643              		.loc 1 208 0
 644 010a 5B4B     		ldr	r3, .L51+152
 645              		.loc 1 205 0
 646 010c A0F800C0 		strh	ip, [r0]	@ movhi
 647              		.loc 1 208 0
 648 0110 4022     		movs	r2, #64
 649 0112 4FF4B361 		mov	r1, #1432
 650 0116 5948     		ldr	r0, .L51+156
 651 0118 FFF7FEFF 		bl	chThdCreateStatic
 652              	.LVL31:
 653              		.loc 1 209 0
 654 011c 584B     		ldr	r3, .L51+160
 655 011e 0094     		str	r4, [sp]
 656 0120 3F22     		movs	r2, #63
 657 0122 4FF4B361 		mov	r1, #1432
 658 0126 5748     		ldr	r0, .L51+164
 659 0128 FFF7FEFF 		bl	chThdCreateStatic
 660              	.LVL32:
 661              		.loc 1 221 0
 662 012c 95F89A01 		ldrb	r0, [r5, #410]	@ zero_extendqisi2
 663 0130 FFF7FEFF 		bl	drv8350_set_oc_mode
 664              	.LVL33:
 665              		.loc 1 222 0
 666 0134 D5F89C01 		ldr	r0, [r5, #412]
 667 0138 FFF7FEFF 		bl	drv8350_set_oc_adj
 668              	.LVL34:
 669 013c 00B1     		cbz	r0, .L32
 670              		.loc 1 223 0
 671 013e 3770     		strb	r7, [r6]
 672              	.L32:
 673              		.loc 1 229 0
 674 0140 284C     		ldr	r4, .L51+4
 675 0142 94F89831 		ldrb	r3, [r4, #408]	@ zero_extendqisi2
 676 0146 013B     		subs	r3, r3, #1
 677 0148 042B     		cmp	r3, #4
 678 014a 0ED8     		bhi	.L33
 679 014c DFE803F0 		tbb	[pc, r3]
 680              	.L35:
 681 0150 29       		.byte	(.L34-.L35)/2
 682 0151 3E       		.byte	(.L36-.L35)/2
 683 0152 2E       		.byte	(.L37-.L35)/2
 684 0153 31       		.byte	(.L38-.L35)/2
ARM GAS  /tmp/cclp9RuQ.s 			page 13


 685 0154 03       		.byte	(.L39-.L35)/2
 686 0155 00       		.p2align 1
 687              	.L39:
 688              		.loc 1 249 0
 689 0156 4C4D     		ldr	r5, .L51+168
 690              	.LVL35:
 691 0158 2846     		mov	r0, r5
 692 015a FFF7FEFF 		bl	conf_general_read_app_configuration
 693              	.LVL36:
 694              		.loc 1 252 0
 695 015e AB7E     		ldrb	r3, [r5, #26]	@ zero_extendqisi2
 696              		.loc 1 250 0
 697 0160 023B     		subs	r3, r3, #2
 698 0162 032B     		cmp	r3, #3
 699 0164 35D9     		bls	.L50
 700              	.L40:
 701              		.loc 1 257 0
 702 0166 FFF7FEFF 		bl	encoder_init_ts5700n8501
 703              	.LVL37:
 704              	.L33:
 705              		.loc 1 266 0
 706 016a A378     		ldrb	r3, [r4, #2]	@ zero_extendqisi2
 707 016c 032B     		cmp	r3, #3
 708 016e 15D8     		bhi	.L31
 709 0170 DFE803F0 		tbb	[pc, r3]
 710              	.L43:
 711 0174 0E       		.byte	(.L42-.L43)/2
 712 0175 0E       		.byte	(.L42-.L43)/2
 713 0176 08       		.byte	(.L44-.L43)/2
 714 0177 02       		.byte	(.L45-.L43)/2
 715              		.p2align 1
 716              	.L45:
 717              		.loc 1 277 0
 718 0178 1A48     		ldr	r0, .L51+4
 719              		.loc 1 283 0
 720 017a 02B0     		add	sp, sp, #8
 721              		.cfi_remember_state
 722              		.cfi_def_cfa_offset 24
 723              		@ sp needed
 724 017c BDE8F041 		pop	{r4, r5, r6, r7, r8, lr}
 725              		.cfi_restore 14
 726              		.cfi_restore 8
 727              		.cfi_restore 7
 728              		.cfi_restore 6
 729              		.cfi_restore 5
 730              		.cfi_restore 4
 731              		.cfi_def_cfa_offset 0
 732              		.loc 1 277 0
 733 0180 FFF7FEBF 		b	gpdrive_init
 734              	.LVL38:
 735              	.L44:
 736              		.cfi_restore_state
 737              		.loc 1 273 0
 738 0184 1748     		ldr	r0, .L51+4
 739              		.loc 1 283 0
 740 0186 02B0     		add	sp, sp, #8
 741              		.cfi_remember_state
ARM GAS  /tmp/cclp9RuQ.s 			page 14


 742              		.cfi_def_cfa_offset 24
 743              		@ sp needed
 744 0188 BDE8F041 		pop	{r4, r5, r6, r7, r8, lr}
 745              		.cfi_restore 14
 746              		.cfi_restore 8
 747              		.cfi_restore 7
 748              		.cfi_restore 6
 749              		.cfi_restore 5
 750              		.cfi_restore 4
 751              		.cfi_def_cfa_offset 0
 752              		.loc 1 273 0
 753 018c FFF7FEBF 		b	mcpwm_foc_init
 754              	.LVL39:
 755              	.L42:
 756              		.cfi_restore_state
 757              		.loc 1 269 0
 758 0190 1448     		ldr	r0, .L51+4
 759              		.loc 1 283 0
 760 0192 02B0     		add	sp, sp, #8
 761              		.cfi_remember_state
 762              		.cfi_def_cfa_offset 24
 763              		@ sp needed
 764 0194 BDE8F041 		pop	{r4, r5, r6, r7, r8, lr}
 765              		.cfi_restore 14
 766              		.cfi_restore 8
 767              		.cfi_restore 7
 768              		.cfi_restore 6
 769              		.cfi_restore 5
 770              		.cfi_restore 4
 771              		.cfi_def_cfa_offset 0
 772              		.loc 1 269 0
 773 0198 FFF7FEBF 		b	mcpwm_init
 774              	.LVL40:
 775              	.L31:
 776              		.loc 1 283 0
 777 019c 02B0     		add	sp, sp, #8
 778              		@ sp needed
 779 019e BDE8F081 		pop	{r4, r5, r6, r7, r8, pc}
 780              	.LVL41:
 781              	.L34:
 782              		.cfi_restore_state
 783              		.loc 1 231 0
 784 01a2 D4F89401 		ldr	r0, [r4, #404]
 785 01a6 FFF7FEFF 		bl	encoder_init_abi
 786              	.LVL42:
 787              		.loc 1 232 0
 788 01aa DEE7     		b	.L33
 789              	.L37:
 790              		.loc 1 239 0
 791 01ac FFF7FEFF 		bl	encoder_init_ad2s1205_spi
 792              	.LVL43:
 793              		.loc 1 240 0
 794 01b0 DBE7     		b	.L33
 795              	.L38:
 796              		.loc 1 243 0
 797 01b2 94ED330A 		vldr.32	s0, [r4, #204]
 798 01b6 D4ED320A 		vldr.32	s1, [r4, #200]
ARM GAS  /tmp/cclp9RuQ.s 			page 15


 799 01ba 94ED351A 		vldr.32	s2, [r4, #212]
 800 01be D4ED341A 		vldr.32	s3, [r4, #208]
 801 01c2 94ED362A 		vldr.32	s4, [r4, #216]
 802 01c6 FFF7FEFF 		bl	encoder_init_sincos
 803              	.LVL44:
 804              		.loc 1 246 0
 805 01ca CEE7     		b	.L33
 806              	.L36:
 807              		.loc 1 235 0
 808 01cc FFF7FEFF 		bl	encoder_init_as5047p_spi
 809              	.LVL45:
 810              		.loc 1 236 0
 811 01d0 CBE7     		b	.L33
 812              	.LVL46:
 813              	.L50:
 814              		.loc 1 254 0
 815 01d2 0023     		movs	r3, #0
 816              		.loc 1 255 0
 817 01d4 2846     		mov	r0, r5
 818              		.loc 1 254 0
 819 01d6 AB76     		strb	r3, [r5, #26]
 820              		.loc 1 255 0
 821 01d8 FFF7FEFF 		bl	conf_general_store_app_configuration
 822              	.LVL47:
 823 01dc C3E7     		b	.L40
 824              	.L52:
 825 01de 00BF     		.align	2
 826              	.L51:
 827 01e0 00000000 		.word	.LANCHOR13
 828 01e4 00000000 		.word	.LANCHOR8
 829 01e8 00000000 		.word	.LANCHOR10
 830 01ec 00000000 		.word	.LANCHOR14
 831 01f0 00000000 		.word	.LANCHOR11
 832 01f4 00000000 		.word	.LANCHOR15
 833 01f8 00000000 		.word	.LANCHOR17
 834 01fc 00000000 		.word	.LANCHOR18
 835 0200 00000000 		.word	.LANCHOR19
 836 0204 00000000 		.word	.LANCHOR20
 837 0208 00000000 		.word	.LANCHOR22
 838 020c 00000000 		.word	.LANCHOR23
 839 0210 00000000 		.word	.LANCHOR24
 840 0214 00000000 		.word	.LANCHOR25
 841 0218 00000000 		.word	.LANCHOR27
 842 021c 00000000 		.word	.LANCHOR28
 843 0220 00000000 		.word	.LANCHOR29
 844 0224 00000000 		.word	.LANCHOR30
 845 0228 00000000 		.word	.LANCHOR32
 846 022c 00000000 		.word	.LANCHOR33
 847 0230 00000000 		.word	.LANCHOR34
 848 0234 00000000 		.word	.LANCHOR35
 849 0238 00000000 		.word	.LANCHOR37
 850 023c 00000000 		.word	.LANCHOR2
 851 0240 00000000 		.word	.LANCHOR38
 852 0244 00000000 		.word	.LANCHOR39
 853 0248 00000000 		.word	.LANCHOR40
 854 024c 00000000 		.word	.LANCHOR1
 855 0250 00000000 		.word	.LANCHOR41
ARM GAS  /tmp/cclp9RuQ.s 			page 16


 856 0254 00000000 		.word	.LANCHOR43
 857 0258 00000000 		.word	.LANCHOR44
 858 025c 0000B642 		.word	1119223808
 859 0260 00000000 		.word	.LANCHOR46
 860 0264 00000000 		.word	.LANCHOR47
 861 0268 9A3F1C46 		.word	1176256410
 862 026c 00000000 		.word	.LANCHOR49
 863 0270 00000000 		.word	.LANCHOR50
 864 0274 00000000 		.word	.LANCHOR51
 865 0278 00000000 		.word	timer_thread
 866 027c 00000000 		.word	.LANCHOR52
 867 0280 00000000 		.word	sample_send_thread
 868 0284 00000000 		.word	.LANCHOR53
 869 0288 00000000 		.word	.LANCHOR54
 870 028c 00000000 		.word	.LANCHOR12
 871 0290 00000000 		.word	.LANCHOR16
 872 0294 00000000 		.word	.LANCHOR21
 873 0298 00000000 		.word	.LANCHOR26
 874 029c 00000000 		.word	.LANCHOR31
 875 02a0 00000000 		.word	.LANCHOR36
 876 02a4 00000000 		.word	.LANCHOR9
 877 02a8 00000000 		.word	.LANCHOR3
 878 02ac 00000000 		.word	.LANCHOR42
 879 02b0 00000000 		.word	.LANCHOR45
 880 02b4 00000000 		.word	.LANCHOR48
 881              		.cfi_endproc
 882              	.LFE256:
 883              		.size	mc_interface_init, .-mc_interface_init
 884              		.section	.text.mc_interface_get_configuration,"ax",%progbits
 885              		.align	1
 886              		.p2align 4,,15
 887              		.global	mc_interface_get_configuration
 888              		.syntax unified
 889              		.thumb
 890              		.thumb_func
 891              		.fpu fpv4-sp-d16
 892              		.type	mc_interface_get_configuration, %function
 893              	mc_interface_get_configuration:
 894              	.LFB257:
 895              		.loc 1 285 0
 896              		.cfi_startproc
 897              		@ args = 0, pretend = 0, frame = 0
 898              		@ frame_needed = 0, uses_anonymous_args = 0
 899              		@ link register save eliminated.
 900              		.loc 1 287 0
 901 0000 0048     		ldr	r0, .L54
 902 0002 7047     		bx	lr
 903              	.L55:
 904              		.align	2
 905              	.L54:
 906 0004 00000000 		.word	.LANCHOR8
 907              		.cfi_endproc
 908              	.LFE257:
 909              		.size	mc_interface_get_configuration, .-mc_interface_get_configuration
 910              		.section	.text.mc_interface_dccal_done,"ax",%progbits
 911              		.align	1
 912              		.p2align 4,,15
ARM GAS  /tmp/cclp9RuQ.s 			page 17


 913              		.global	mc_interface_dccal_done
 914              		.syntax unified
 915              		.thumb
 916              		.thumb_func
 917              		.fpu fpv4-sp-d16
 918              		.type	mc_interface_dccal_done, %function
 919              	mc_interface_dccal_done:
 920              	.LFB259:
 921              		.loc 1 402 0
 922              		.cfi_startproc
 923              		@ args = 0, pretend = 0, frame = 0
 924              		@ frame_needed = 0, uses_anonymous_args = 0
 925              		@ link register save eliminated.
 926              	.LVL48:
 927              		.loc 1 404 0
 928 0000 074B     		ldr	r3, .L62
 929 0002 9B78     		ldrb	r3, [r3, #2]	@ zero_extendqisi2
 930 0004 032B     		cmp	r3, #3
 931 0006 09D8     		bhi	.L57
 932 0008 DFE803F0 		tbb	[pc, r3]
 933              	.L59:
 934 000c 06       		.byte	(.L58-.L59)/2
 935 000d 06       		.byte	(.L58-.L59)/2
 936 000e 04       		.byte	(.L60-.L59)/2
 937 000f 02       		.byte	(.L61-.L59)/2
 938              		.p2align 1
 939              	.L61:
 940              		.loc 1 415 0
 941 0010 FFF7FEBF 		b	gpdrive_is_dccal_done
 942              	.LVL49:
 943              	.L60:
 944              		.loc 1 411 0
 945 0014 FFF7FEBF 		b	mcpwm_foc_is_dccal_done
 946              	.LVL50:
 947              	.L58:
 948              		.loc 1 407 0
 949 0018 FFF7FEBF 		b	mcpwm_is_dccal_done
 950              	.LVL51:
 951              	.L57:
 952              		.loc 1 423 0
 953 001c 0020     		movs	r0, #0
 954 001e 7047     		bx	lr
 955              	.L63:
 956              		.align	2
 957              	.L62:
 958 0020 00000000 		.word	.LANCHOR8
 959              		.cfi_endproc
 960              	.LFE259:
 961              		.size	mc_interface_dccal_done, .-mc_interface_dccal_done
 962              		.section	.text.mc_interface_set_pwm_callback,"ax",%progbits
 963              		.align	1
 964              		.p2align 4,,15
 965              		.global	mc_interface_set_pwm_callback
 966              		.syntax unified
 967              		.thumb
 968              		.thumb_func
 969              		.fpu fpv4-sp-d16
ARM GAS  /tmp/cclp9RuQ.s 			page 18


 970              		.type	mc_interface_set_pwm_callback, %function
 971              	mc_interface_set_pwm_callback:
 972              	.LFB260:
 973              		.loc 1 433 0
 974              		.cfi_startproc
 975              		@ args = 0, pretend = 0, frame = 0
 976              		@ frame_needed = 0, uses_anonymous_args = 0
 977              		@ link register save eliminated.
 978              	.LVL52:
 979              		.loc 1 434 0
 980 0000 014B     		ldr	r3, .L65
 981 0002 1860     		str	r0, [r3]
 982              		.loc 1 435 0
 983 0004 7047     		bx	lr
 984              	.L66:
 985 0006 00BF     		.align	2
 986              	.L65:
 987 0008 00000000 		.word	.LANCHOR55
 988              		.cfi_endproc
 989              	.LFE260:
 990              		.size	mc_interface_set_pwm_callback, .-mc_interface_set_pwm_callback
 991              		.section	.text.mc_interface_lock,"ax",%progbits
 992              		.align	1
 993              		.p2align 4,,15
 994              		.global	mc_interface_lock
 995              		.syntax unified
 996              		.thumb
 997              		.thumb_func
 998              		.fpu fpv4-sp-d16
 999              		.type	mc_interface_lock, %function
 1000              	mc_interface_lock:
 1001              	.LFB261:
 1002              		.loc 1 440 0
 1003              		.cfi_startproc
 1004              		@ args = 0, pretend = 0, frame = 0
 1005              		@ frame_needed = 0, uses_anonymous_args = 0
 1006              		@ link register save eliminated.
 1007              		.loc 1 441 0
 1008 0000 014B     		ldr	r3, .L68
 1009 0002 0122     		movs	r2, #1
 1010 0004 1A70     		strb	r2, [r3]
 1011              		.loc 1 442 0
 1012 0006 7047     		bx	lr
 1013              	.L69:
 1014              		.align	2
 1015              	.L68:
 1016 0008 00000000 		.word	.LANCHOR13
 1017              		.cfi_endproc
 1018              	.LFE261:
 1019              		.size	mc_interface_lock, .-mc_interface_lock
 1020              		.section	.text.mc_interface_unlock,"ax",%progbits
 1021              		.align	1
 1022              		.p2align 4,,15
 1023              		.global	mc_interface_unlock
 1024              		.syntax unified
 1025              		.thumb
 1026              		.thumb_func
ARM GAS  /tmp/cclp9RuQ.s 			page 19


 1027              		.fpu fpv4-sp-d16
 1028              		.type	mc_interface_unlock, %function
 1029              	mc_interface_unlock:
 1030              	.LFB262:
 1031              		.loc 1 447 0
 1032              		.cfi_startproc
 1033              		@ args = 0, pretend = 0, frame = 0
 1034              		@ frame_needed = 0, uses_anonymous_args = 0
 1035              		@ link register save eliminated.
 1036              		.loc 1 448 0
 1037 0000 014B     		ldr	r3, .L71
 1038 0002 0022     		movs	r2, #0
 1039 0004 1A70     		strb	r2, [r3]
 1040              		.loc 1 449 0
 1041 0006 7047     		bx	lr
 1042              	.L72:
 1043              		.align	2
 1044              	.L71:
 1045 0008 00000000 		.word	.LANCHOR13
 1046              		.cfi_endproc
 1047              	.LFE262:
 1048              		.size	mc_interface_unlock, .-mc_interface_unlock
 1049              		.section	.text.mc_interface_lock_override_once,"ax",%progbits
 1050              		.align	1
 1051              		.p2align 4,,15
 1052              		.global	mc_interface_lock_override_once
 1053              		.syntax unified
 1054              		.thumb
 1055              		.thumb_func
 1056              		.fpu fpv4-sp-d16
 1057              		.type	mc_interface_lock_override_once, %function
 1058              	mc_interface_lock_override_once:
 1059              	.LFB263:
 1060              		.loc 1 454 0
 1061              		.cfi_startproc
 1062              		@ args = 0, pretend = 0, frame = 0
 1063              		@ frame_needed = 0, uses_anonymous_args = 0
 1064              		@ link register save eliminated.
 1065              		.loc 1 455 0
 1066 0000 014B     		ldr	r3, .L74
 1067 0002 0122     		movs	r2, #1
 1068 0004 1A70     		strb	r2, [r3]
 1069              		.loc 1 456 0
 1070 0006 7047     		bx	lr
 1071              	.L75:
 1072              		.align	2
 1073              	.L74:
 1074 0008 00000000 		.word	.LANCHOR14
 1075              		.cfi_endproc
 1076              	.LFE263:
 1077              		.size	mc_interface_lock_override_once, .-mc_interface_lock_override_once
 1078              		.section	.text.mc_interface_get_fault,"ax",%progbits
 1079              		.align	1
 1080              		.p2align 4,,15
 1081              		.global	mc_interface_get_fault
 1082              		.syntax unified
 1083              		.thumb
ARM GAS  /tmp/cclp9RuQ.s 			page 20


 1084              		.thumb_func
 1085              		.fpu fpv4-sp-d16
 1086              		.type	mc_interface_get_fault, %function
 1087              	mc_interface_get_fault:
 1088              	.LFB264:
 1089              		.loc 1 458 0
 1090              		.cfi_startproc
 1091              		@ args = 0, pretend = 0, frame = 0
 1092              		@ frame_needed = 0, uses_anonymous_args = 0
 1093              		@ link register save eliminated.
 1094              		.loc 1 459 0
 1095 0000 014B     		ldr	r3, .L77
 1096              		.loc 1 460 0
 1097 0002 1878     		ldrb	r0, [r3]	@ zero_extendqisi2
 1098 0004 7047     		bx	lr
 1099              	.L78:
 1100 0006 00BF     		.align	2
 1101              	.L77:
 1102 0008 00000000 		.word	.LANCHOR9
 1103              		.cfi_endproc
 1104              	.LFE264:
 1105              		.size	mc_interface_get_fault, .-mc_interface_get_fault
 1106              		.section	.text.mc_interface_fault_to_string,"ax",%progbits
 1107              		.align	1
 1108              		.p2align 4,,15
 1109              		.global	mc_interface_fault_to_string
 1110              		.syntax unified
 1111              		.thumb
 1112              		.thumb_func
 1113              		.fpu fpv4-sp-d16
 1114              		.type	mc_interface_fault_to_string, %function
 1115              	mc_interface_fault_to_string:
 1116              	.LFB265:
 1117              		.loc 1 462 0
 1118              		.cfi_startproc
 1119              		@ args = 0, pretend = 0, frame = 0
 1120              		@ frame_needed = 0, uses_anonymous_args = 0
 1121              		@ link register save eliminated.
 1122              	.LVL53:
 1123 0000 1728     		cmp	r0, #23
 1124 0002 9ABF     		itte	ls
 1125 0004 024B     		ldrls	r3, .L82
 1126 0006 53F82000 		ldrls	r0, [r3, r0, lsl #2]
 1127              	.LVL54:
 1128              		.loc 1 462 0
 1129 000a 0248     		ldrhi	r0, .L82+4
 1130              		.loc 1 490 0
 1131 000c 7047     		bx	lr
 1132              	.L83:
 1133 000e 00BF     		.align	2
 1134              	.L82:
 1135 0010 00000000 		.word	.LANCHOR56
 1136 0014 00000000 		.word	.LC1
 1137              		.cfi_endproc
 1138              	.LFE265:
 1139              		.size	mc_interface_fault_to_string, .-mc_interface_fault_to_string
 1140              		.section	.text.mc_interface_get_state,"ax",%progbits
ARM GAS  /tmp/cclp9RuQ.s 			page 21


 1141              		.align	1
 1142              		.p2align 4,,15
 1143              		.global	mc_interface_get_state
 1144              		.syntax unified
 1145              		.thumb
 1146              		.thumb_func
 1147              		.fpu fpv4-sp-d16
 1148              		.type	mc_interface_get_state, %function
 1149              	mc_interface_get_state:
 1150              	.LFB266:
 1151              		.loc 1 492 0
 1152              		.cfi_startproc
 1153              		@ args = 0, pretend = 0, frame = 0
 1154              		@ frame_needed = 0, uses_anonymous_args = 0
 1155              		@ link register save eliminated.
 1156              	.LVL55:
 1157              		.loc 1 494 0
 1158 0000 064B     		ldr	r3, .L90
 1159 0002 9B78     		ldrb	r3, [r3, #2]	@ zero_extendqisi2
 1160 0004 DBB2     		uxtb	r3, r3
 1161 0006 012B     		cmp	r3, #1
 1162 0008 05D9     		bls	.L86
 1163 000a 022B     		cmp	r3, #2
 1164 000c 01D1     		bne	.L89
 1165              		.loc 1 501 0
 1166 000e FFF7FEBF 		b	mcpwm_foc_get_state
 1167              	.LVL56:
 1168              	.L89:
 1169              		.loc 1 509 0
 1170 0012 0020     		movs	r0, #0
 1171 0014 7047     		bx	lr
 1172              	.L86:
 1173              		.loc 1 497 0
 1174 0016 FFF7FEBF 		b	mcpwm_get_state
 1175              	.LVL57:
 1176              	.L91:
 1177 001a 00BF     		.align	2
 1178              	.L90:
 1179 001c 00000000 		.word	.LANCHOR8
 1180              		.cfi_endproc
 1181              	.LFE266:
 1182              		.size	mc_interface_get_state, .-mc_interface_get_state
 1183              		.section	.text.mc_interface_set_enviro,"ax",%progbits
 1184              		.align	1
 1185              		.p2align 4,,15
 1186              		.global	mc_interface_set_enviro
 1187              		.syntax unified
 1188              		.thumb
 1189              		.thumb_func
 1190              		.fpu fpv4-sp-d16
 1191              		.type	mc_interface_set_enviro, %function
 1192              	mc_interface_set_enviro:
 1193              	.LFB267:
 1194              		.loc 1 511 0
 1195              		.cfi_startproc
 1196              		@ args = 0, pretend = 0, frame = 0
 1197              		@ frame_needed = 0, uses_anonymous_args = 0
ARM GAS  /tmp/cclp9RuQ.s 			page 22


 1198              		@ link register save eliminated.
 1199              	.LVL58:
 1200              		.loc 1 512 0
 1201 0000 1F4B     		ldr	r3, .L113
 1202 0002 1880     		strh	r0, [r3]	@ movhi
 1203              		.loc 1 515 0
 1204 0004 1F4B     		ldr	r3, .L113+4
 1205 0006 0822     		movs	r2, #8
 1206              		.loc 1 514 0
 1207 0008 C107     		lsls	r1, r0, #31
 1208              		.loc 1 515 0
 1209 000a 4CBF     		ite	mi
 1210 000c 1A83     		strhmi	r2, [r3, #24]	@ movhi
 1211              		.loc 1 517 0
 1212 000e 5A83     		strhpl	r2, [r3, #26]	@ movhi
 1213              		.loc 1 521 0
 1214 0010 1C4B     		ldr	r3, .L113+4
 1215 0012 1022     		movs	r2, #16
 1216              		.loc 1 520 0
 1217 0014 8107     		lsls	r1, r0, #30
 1218              		.loc 1 521 0
 1219 0016 4CBF     		ite	mi
 1220 0018 1A83     		strhmi	r2, [r3, #24]	@ movhi
 1221              		.loc 1 523 0
 1222 001a 5A83     		strhpl	r2, [r3, #26]	@ movhi
 1223              		.loc 1 527 0
 1224 001c 1A4B     		ldr	r3, .L113+8
 1225 001e 4FF48042 		mov	r2, #16384
 1226              		.loc 1 526 0
 1227 0022 4107     		lsls	r1, r0, #29
 1228              		.loc 1 527 0
 1229 0024 4CBF     		ite	mi
 1230 0026 1A83     		strhmi	r2, [r3, #24]	@ movhi
 1231              		.loc 1 529 0
 1232 0028 5A83     		strhpl	r2, [r3, #26]	@ movhi
 1233              		.loc 1 533 0
 1234 002a 174B     		ldr	r3, .L113+8
 1235 002c 4FF40042 		mov	r2, #32768
 1236              		.loc 1 532 0
 1237 0030 0107     		lsls	r1, r0, #28
 1238              		.loc 1 533 0
 1239 0032 4CBF     		ite	mi
 1240 0034 1A83     		strhmi	r2, [r3, #24]	@ movhi
 1241              		.loc 1 535 0
 1242 0036 5A83     		strhpl	r2, [r3, #26]	@ movhi
 1243              		.loc 1 539 0
 1244 0038 134B     		ldr	r3, .L113+8
 1245 003a 2022     		movs	r2, #32
 1246              		.loc 1 538 0
 1247 003c C106     		lsls	r1, r0, #27
 1248              		.loc 1 539 0
 1249 003e 4CBF     		ite	mi
 1250 0040 5A83     		strhmi	r2, [r3, #26]	@ movhi
 1251              		.loc 1 541 0
 1252 0042 1A83     		strhpl	r2, [r3, #24]	@ movhi
 1253              		.loc 1 544 0
 1254 0044 114B     		ldr	r3, .L113+12
ARM GAS  /tmp/cclp9RuQ.s 			page 23


 1255 0046 93F8B021 		ldrb	r2, [r3, #432]	@ zero_extendqisi2
 1256 004a 032A     		cmp	r2, #3
 1257 004c 12D0     		beq	.L92
 1258              		.loc 1 545 0
 1259 004e 10F02002 		ands	r2, r0, #32
 1260              		.loc 1 546 0
 1261 0052 18BF     		it	ne
 1262 0054 0122     		movne	r2, #1
 1263              		.loc 1 548 0
 1264 0056 83F86021 		strb	r2, [r3, #352]
 1265              		.loc 1 552 0
 1266 005a 0A4A     		ldr	r2, .L113+4
 1267              		.loc 1 551 0
 1268 005c 10F0400F 		tst	r0, #64
 1269              		.loc 1 552 0
 1270 0060 4FF04001 		mov	r1, #64
 1271 0064 14BF     		ite	ne
 1272 0066 1183     		strhne	r1, [r2, #24]	@ movhi
 1273              		.loc 1 554 0
 1274 0068 5183     		strheq	r1, [r2, #26]	@ movhi
 1275              		.loc 1 557 0
 1276 006a C205     		lsls	r2, r0, #23
 1277 006c 03D4     		bmi	.L112
 1278              		.loc 1 560 0
 1279 006e 0222     		movs	r2, #2
 1280 0070 83F8B021 		strb	r2, [r3, #432]
 1281              	.L92:
 1282              		.loc 1 587 0
 1283 0074 7047     		bx	lr
 1284              	.L112:
 1285              		.loc 1 558 0
 1286 0076 0022     		movs	r2, #0
 1287 0078 83F8B021 		strb	r2, [r3, #432]
 1288 007c 7047     		bx	lr
 1289              	.L114:
 1290 007e 00BF     		.align	2
 1291              	.L113:
 1292 0080 00000000 		.word	.LANCHOR42
 1293 0084 00040240 		.word	1073873920
 1294 0088 00080240 		.word	1073874944
 1295 008c 00000000 		.word	.LANCHOR8
 1296              		.cfi_endproc
 1297              	.LFE267:
 1298              		.size	mc_interface_set_enviro, .-mc_interface_set_enviro
 1299              		.section	.text.mc_interface_get_enviro,"ax",%progbits
 1300              		.align	1
 1301              		.p2align 4,,15
 1302              		.global	mc_interface_get_enviro
 1303              		.syntax unified
 1304              		.thumb
 1305              		.thumb_func
 1306              		.fpu fpv4-sp-d16
 1307              		.type	mc_interface_get_enviro, %function
 1308              	mc_interface_get_enviro:
 1309              	.LFB268:
 1310              		.loc 1 588 0
 1311              		.cfi_startproc
ARM GAS  /tmp/cclp9RuQ.s 			page 24


 1312              		@ args = 0, pretend = 0, frame = 0
 1313              		@ frame_needed = 0, uses_anonymous_args = 0
 1314              		@ link register save eliminated.
 1315              		.loc 1 589 0
 1316 0000 014B     		ldr	r3, .L116
 1317 0002 1888     		ldrh	r0, [r3]
 1318              		.loc 1 590 0
 1319 0004 7047     		bx	lr
 1320              	.L117:
 1321 0006 00BF     		.align	2
 1322              	.L116:
 1323 0008 00000000 		.word	.LANCHOR42
 1324              		.cfi_endproc
 1325              	.LFE268:
 1326              		.size	mc_interface_get_enviro, .-mc_interface_get_enviro
 1327              		.section	.text.mc_interface_set_wheely_crtl,"ax",%progbits
 1328              		.align	1
 1329              		.p2align 4,,15
 1330              		.global	mc_interface_set_wheely_crtl
 1331              		.syntax unified
 1332              		.thumb
 1333              		.thumb_func
 1334              		.fpu fpv4-sp-d16
 1335              		.type	mc_interface_set_wheely_crtl, %function
 1336              	mc_interface_set_wheely_crtl:
 1337              	.LFB269:
 1338              		.loc 1 593 0
 1339              		.cfi_startproc
 1340              		@ args = 0, pretend = 0, frame = 0
 1341              		@ frame_needed = 0, uses_anonymous_args = 0
 1342              		@ link register save eliminated.
 1343              	.LVL59:
 1344              		.loc 1 594 0
 1345 0000 07EE900A 		vmov	s15, r0	@ int
 1346 0004 024B     		ldr	r3, .L119
 1347 0006 F8EE677A 		vcvt.f32.u32	s15, s15
 1348 000a C3ED007A 		vstr.32	s15, [r3]
 1349              		.loc 1 595 0
 1350 000e 7047     		bx	lr
 1351              	.L120:
 1352              		.align	2
 1353              	.L119:
 1354 0010 00000000 		.word	.LANCHOR43
 1355              		.cfi_endproc
 1356              	.LFE269:
 1357              		.size	mc_interface_set_wheely_crtl, .-mc_interface_set_wheely_crtl
 1358              		.section	.text.mc_interface_get_wheely_crtl,"ax",%progbits
 1359              		.align	1
 1360              		.p2align 4,,15
 1361              		.global	mc_interface_get_wheely_crtl
 1362              		.syntax unified
 1363              		.thumb
 1364              		.thumb_func
 1365              		.fpu fpv4-sp-d16
 1366              		.type	mc_interface_get_wheely_crtl, %function
 1367              	mc_interface_get_wheely_crtl:
 1368              	.LFB270:
ARM GAS  /tmp/cclp9RuQ.s 			page 25


 1369              		.loc 1 596 0
 1370              		.cfi_startproc
 1371              		@ args = 0, pretend = 0, frame = 0
 1372              		@ frame_needed = 0, uses_anonymous_args = 0
 1373              		@ link register save eliminated.
 1374              		.loc 1 597 0
 1375 0000 014B     		ldr	r3, .L122
 1376 0002 93ED000A 		vldr.32	s0, [r3]
 1377              		.loc 1 598 0
 1378 0006 7047     		bx	lr
 1379              	.L123:
 1380              		.align	2
 1381              	.L122:
 1382 0008 00000000 		.word	.LANCHOR43
 1383              		.cfi_endproc
 1384              	.LFE270:
 1385              		.size	mc_interface_get_wheely_crtl, .-mc_interface_get_wheely_crtl
 1386              		.section	.text.mc_interface_set_fractional_front,"ax",%progbits
 1387              		.align	1
 1388              		.p2align 4,,15
 1389              		.global	mc_interface_set_fractional_front
 1390              		.syntax unified
 1391              		.thumb
 1392              		.thumb_func
 1393              		.fpu fpv4-sp-d16
 1394              		.type	mc_interface_set_fractional_front, %function
 1395              	mc_interface_set_fractional_front:
 1396              	.LFB271:
 1397              		.loc 1 601 0
 1398              		.cfi_startproc
 1399              		@ args = 0, pretend = 0, frame = 8
 1400              		@ frame_needed = 0, uses_anonymous_args = 0
 1401              	.LVL60:
 1402 0000 00B5     		push	{lr}
 1403              		.cfi_def_cfa_offset 4
 1404              		.cfi_offset 14, -4
 1405 0002 83B0     		sub	sp, sp, #12
 1406              		.cfi_def_cfa_offset 16
 1407              		.loc 1 601 0
 1408 0004 02A8     		add	r0, sp, #8
 1409 0006 20ED010A 		vstmdb.32	r0!, {s0}
 1410              		.loc 1 602 0
 1411 000a F7EE000A 		vmov.f32	s1, #1.0e+0
 1412 000e 9FED050A 		vldr.32	s0, .L126
 1413              	.LVL61:
 1414 0012 FFF7FEFF 		bl	utils_truncate_number
 1415              	.LVL62:
 1416              		.loc 1 603 0
 1417 0016 019A     		ldr	r2, [sp, #4]	@ float
 1418 0018 034B     		ldr	r3, .L126+4
 1419 001a 1A60     		str	r2, [r3]	@ float
 1420              		.loc 1 604 0
 1421 001c 03B0     		add	sp, sp, #12
 1422              		.cfi_def_cfa_offset 4
 1423              		@ sp needed
 1424 001e 5DF804FB 		ldr	pc, [sp], #4
 1425              	.L127:
ARM GAS  /tmp/cclp9RuQ.s 			page 26


 1426 0022 00BF     		.align	2
 1427              	.L126:
 1428 0024 00000000 		.word	0
 1429 0028 00000000 		.word	.LANCHOR57
 1430              		.cfi_endproc
 1431              	.LFE271:
 1432              		.size	mc_interface_set_fractional_front, .-mc_interface_set_fractional_front
 1433              		.section	.text.mc_interface_get_fractional_front,"ax",%progbits
 1434              		.align	1
 1435              		.p2align 4,,15
 1436              		.global	mc_interface_get_fractional_front
 1437              		.syntax unified
 1438              		.thumb
 1439              		.thumb_func
 1440              		.fpu fpv4-sp-d16
 1441              		.type	mc_interface_get_fractional_front, %function
 1442              	mc_interface_get_fractional_front:
 1443              	.LFB272:
 1444              		.loc 1 605 0
 1445              		.cfi_startproc
 1446              		@ args = 0, pretend = 0, frame = 0
 1447              		@ frame_needed = 0, uses_anonymous_args = 0
 1448              		@ link register save eliminated.
 1449              		.loc 1 606 0
 1450 0000 014B     		ldr	r3, .L129
 1451 0002 93ED000A 		vldr.32	s0, [r3]
 1452              		.loc 1 607 0
 1453 0006 7047     		bx	lr
 1454              	.L130:
 1455              		.align	2
 1456              	.L129:
 1457 0008 00000000 		.word	.LANCHOR57
 1458              		.cfi_endproc
 1459              	.LFE272:
 1460              		.size	mc_interface_get_fractional_front, .-mc_interface_get_fractional_front
 1461              		.section	.text.mc_interface_set_fractional_rear,"ax",%progbits
 1462              		.align	1
 1463              		.p2align 4,,15
 1464              		.global	mc_interface_set_fractional_rear
 1465              		.syntax unified
 1466              		.thumb
 1467              		.thumb_func
 1468              		.fpu fpv4-sp-d16
 1469              		.type	mc_interface_set_fractional_rear, %function
 1470              	mc_interface_set_fractional_rear:
 1471              	.LFB273:
 1472              		.loc 1 609 0
 1473              		.cfi_startproc
 1474              		@ args = 0, pretend = 0, frame = 8
 1475              		@ frame_needed = 0, uses_anonymous_args = 0
 1476              	.LVL63:
 1477 0000 00B5     		push	{lr}
 1478              		.cfi_def_cfa_offset 4
 1479              		.cfi_offset 14, -4
 1480 0002 83B0     		sub	sp, sp, #12
 1481              		.cfi_def_cfa_offset 16
 1482              		.loc 1 609 0
ARM GAS  /tmp/cclp9RuQ.s 			page 27


 1483 0004 02A8     		add	r0, sp, #8
 1484 0006 20ED010A 		vstmdb.32	r0!, {s0}
 1485              		.loc 1 610 0
 1486 000a F7EE000A 		vmov.f32	s1, #1.0e+0
 1487 000e 9FED050A 		vldr.32	s0, .L133
 1488              	.LVL64:
 1489 0012 FFF7FEFF 		bl	utils_truncate_number
 1490              	.LVL65:
 1491              		.loc 1 611 0
 1492 0016 019A     		ldr	r2, [sp, #4]	@ float
 1493 0018 034B     		ldr	r3, .L133+4
 1494 001a 1A60     		str	r2, [r3]	@ float
 1495              		.loc 1 612 0
 1496 001c 03B0     		add	sp, sp, #12
 1497              		.cfi_def_cfa_offset 4
 1498              		@ sp needed
 1499 001e 5DF804FB 		ldr	pc, [sp], #4
 1500              	.L134:
 1501 0022 00BF     		.align	2
 1502              	.L133:
 1503 0024 00000000 		.word	0
 1504 0028 00000000 		.word	.LANCHOR58
 1505              		.cfi_endproc
 1506              	.LFE273:
 1507              		.size	mc_interface_set_fractional_rear, .-mc_interface_set_fractional_rear
 1508              		.section	.text.mc_interface_get_fractional_rear,"ax",%progbits
 1509              		.align	1
 1510              		.p2align 4,,15
 1511              		.global	mc_interface_get_fractional_rear
 1512              		.syntax unified
 1513              		.thumb
 1514              		.thumb_func
 1515              		.fpu fpv4-sp-d16
 1516              		.type	mc_interface_get_fractional_rear, %function
 1517              	mc_interface_get_fractional_rear:
 1518              	.LFB274:
 1519              		.loc 1 613 0
 1520              		.cfi_startproc
 1521              		@ args = 0, pretend = 0, frame = 0
 1522              		@ frame_needed = 0, uses_anonymous_args = 0
 1523              		@ link register save eliminated.
 1524              		.loc 1 614 0
 1525 0000 014B     		ldr	r3, .L136
 1526 0002 93ED000A 		vldr.32	s0, [r3]
 1527              		.loc 1 615 0
 1528 0006 7047     		bx	lr
 1529              	.L137:
 1530              		.align	2
 1531              	.L136:
 1532 0008 00000000 		.word	.LANCHOR58
 1533              		.cfi_endproc
 1534              	.LFE274:
 1535              		.size	mc_interface_get_fractional_rear, .-mc_interface_get_fractional_rear
 1536              		.section	.text.mc_interface_set_brk_reku,"ax",%progbits
 1537              		.align	1
 1538              		.p2align 4,,15
 1539              		.global	mc_interface_set_brk_reku
ARM GAS  /tmp/cclp9RuQ.s 			page 28


 1540              		.syntax unified
 1541              		.thumb
 1542              		.thumb_func
 1543              		.fpu fpv4-sp-d16
 1544              		.type	mc_interface_set_brk_reku, %function
 1545              	mc_interface_set_brk_reku:
 1546              	.LFB275:
 1547              		.loc 1 618 0
 1548              		.cfi_startproc
 1549              		@ args = 0, pretend = 0, frame = 0
 1550              		@ frame_needed = 0, uses_anonymous_args = 0
 1551              		@ link register save eliminated.
 1552              	.LVL66:
 1553              		.loc 1 625 0
 1554 0000 6428     		cmp	r0, #100
 1555 0002 28BF     		it	cs
 1556 0004 6420     		movcs	r0, #100
 1557              	.LVL67:
 1558 0006 07EE900A 		vmov	s15, r0	@ int
 1559 000a 034B     		ldr	r3, .L139
 1560 000c F8EE677A 		vcvt.f32.u32	s15, s15
 1561 0010 C3ED007A 		vstr.32	s15, [r3]
 1562              		.loc 1 626 0
 1563 0014 7047     		bx	lr
 1564              	.L140:
 1565 0016 00BF     		.align	2
 1566              	.L139:
 1567 0018 00000000 		.word	.LANCHOR41
 1568              		.cfi_endproc
 1569              	.LFE275:
 1570              		.size	mc_interface_set_brk_reku, .-mc_interface_set_brk_reku
 1571              		.section	.text.mc_interface_get_brk_reku,"ax",%progbits
 1572              		.align	1
 1573              		.p2align 4,,15
 1574              		.global	mc_interface_get_brk_reku
 1575              		.syntax unified
 1576              		.thumb
 1577              		.thumb_func
 1578              		.fpu fpv4-sp-d16
 1579              		.type	mc_interface_get_brk_reku, %function
 1580              	mc_interface_get_brk_reku:
 1581              	.LFB276:
 1582              		.loc 1 627 0
 1583              		.cfi_startproc
 1584              		@ args = 0, pretend = 0, frame = 0
 1585              		@ frame_needed = 0, uses_anonymous_args = 0
 1586              		@ link register save eliminated.
 1587              		.loc 1 628 0
 1588 0000 044B     		ldr	r3, .L142
 1589 0002 D3ED007A 		vldr.32	s15, [r3]
 1590 0006 FCEEE77A 		vcvt.u32.f32	s15, s15
 1591              		.loc 1 629 0
 1592 000a 17EE903A 		vmov	r3, s15	@ int
 1593 000e 98B2     		uxth	r0, r3
 1594 0010 7047     		bx	lr
 1595              	.L143:
 1596 0012 00BF     		.align	2
ARM GAS  /tmp/cclp9RuQ.s 			page 29


 1597              	.L142:
 1598 0014 00000000 		.word	.LANCHOR41
 1599              		.cfi_endproc
 1600              	.LFE276:
 1601              		.size	mc_interface_get_brk_reku, .-mc_interface_get_brk_reku
 1602              		.section	.text.mc_interface_get_brk_reku_float,"ax",%progbits
 1603              		.align	1
 1604              		.p2align 4,,15
 1605              		.global	mc_interface_get_brk_reku_float
 1606              		.syntax unified
 1607              		.thumb
 1608              		.thumb_func
 1609              		.fpu fpv4-sp-d16
 1610              		.type	mc_interface_get_brk_reku_float, %function
 1611              	mc_interface_get_brk_reku_float:
 1612              	.LFB277:
 1613              		.loc 1 630 0
 1614              		.cfi_startproc
 1615              		@ args = 0, pretend = 0, frame = 0
 1616              		@ frame_needed = 0, uses_anonymous_args = 0
 1617              		@ link register save eliminated.
 1618              		.loc 1 632 0
 1619 0000 034B     		ldr	r3, .L145
 1620 0002 DFED047A 		vldr.32	s15, .L145+4
 1621 0006 93ED000A 		vldr.32	s0, [r3]
 1622              		.loc 1 633 0
 1623 000a 80EE270A 		vdiv.f32	s0, s0, s15
 1624 000e 7047     		bx	lr
 1625              	.L146:
 1626              		.align	2
 1627              	.L145:
 1628 0010 00000000 		.word	.LANCHOR41
 1629 0014 0000C842 		.word	1120403456
 1630              		.cfi_endproc
 1631              	.LFE277:
 1632              		.size	mc_interface_get_brk_reku_float, .-mc_interface_get_brk_reku_float
 1633              		.section	.text.mc_interface_set_gas,"ax",%progbits
 1634              		.align	1
 1635              		.p2align 4,,15
 1636              		.global	mc_interface_set_gas
 1637              		.syntax unified
 1638              		.thumb
 1639              		.thumb_func
 1640              		.fpu fpv4-sp-d16
 1641              		.type	mc_interface_set_gas, %function
 1642              	mc_interface_set_gas:
 1643              	.LFB278:
 1644              		.loc 1 636 0
 1645              		.cfi_startproc
 1646              		@ args = 0, pretend = 0, frame = 0
 1647              		@ frame_needed = 0, uses_anonymous_args = 0
 1648              		@ link register save eliminated.
 1649              	.LVL68:
 1650              		.loc 1 637 0
 1651 0000 014B     		ldr	r3, .L148
 1652 0002 1880     		strh	r0, [r3]	@ movhi
 1653              		.loc 1 638 0
ARM GAS  /tmp/cclp9RuQ.s 			page 30


 1654 0004 7047     		bx	lr
 1655              	.L149:
 1656 0006 00BF     		.align	2
 1657              	.L148:
 1658 0008 00000000 		.word	.LANCHOR45
 1659              		.cfi_endproc
 1660              	.LFE278:
 1661              		.size	mc_interface_set_gas, .-mc_interface_set_gas
 1662              		.section	.text.mc_interface_get_gas,"ax",%progbits
 1663              		.align	1
 1664              		.p2align 4,,15
 1665              		.global	mc_interface_get_gas
 1666              		.syntax unified
 1667              		.thumb
 1668              		.thumb_func
 1669              		.fpu fpv4-sp-d16
 1670              		.type	mc_interface_get_gas, %function
 1671              	mc_interface_get_gas:
 1672              	.LFB279:
 1673              		.loc 1 639 0
 1674              		.cfi_startproc
 1675              		@ args = 0, pretend = 0, frame = 0
 1676              		@ frame_needed = 0, uses_anonymous_args = 0
 1677              		@ link register save eliminated.
 1678              		.loc 1 640 0
 1679 0000 014B     		ldr	r3, .L151
 1680 0002 1888     		ldrh	r0, [r3]
 1681              		.loc 1 641 0
 1682 0004 7047     		bx	lr
 1683              	.L152:
 1684 0006 00BF     		.align	2
 1685              	.L151:
 1686 0008 00000000 		.word	.LANCHOR45
 1687              		.cfi_endproc
 1688              	.LFE279:
 1689              		.size	mc_interface_get_gas, .-mc_interface_get_gas
 1690              		.section	.text.mc_interface_get_gas_float,"ax",%progbits
 1691              		.align	1
 1692              		.p2align 4,,15
 1693              		.global	mc_interface_get_gas_float
 1694              		.syntax unified
 1695              		.thumb
 1696              		.thumb_func
 1697              		.fpu fpv4-sp-d16
 1698              		.type	mc_interface_get_gas_float, %function
 1699              	mc_interface_get_gas_float:
 1700              	.LFB280:
 1701              		.loc 1 642 0
 1702              		.cfi_startproc
 1703              		@ args = 0, pretend = 0, frame = 0
 1704              		@ frame_needed = 0, uses_anonymous_args = 0
 1705              		@ link register save eliminated.
 1706              		.loc 1 643 0
 1707 0000 034B     		ldr	r3, .L154
 1708 0002 1B88     		ldrh	r3, [r3]
 1709 0004 00EE103A 		vmov	s0, r3	@ int
 1710              		.loc 1 644 0
ARM GAS  /tmp/cclp9RuQ.s 			page 31


 1711 0008 B8EE400A 		vcvt.f32.u32	s0, s0
 1712 000c 7047     		bx	lr
 1713              	.L155:
 1714 000e 00BF     		.align	2
 1715              	.L154:
 1716 0010 00000000 		.word	.LANCHOR45
 1717              		.cfi_endproc
 1718              	.LFE280:
 1719              		.size	mc_interface_get_gas_float, .-mc_interface_get_gas_float
 1720              		.section	.text.mc_interface_set_reku,"ax",%progbits
 1721              		.align	1
 1722              		.p2align 4,,15
 1723              		.global	mc_interface_set_reku
 1724              		.syntax unified
 1725              		.thumb
 1726              		.thumb_func
 1727              		.fpu fpv4-sp-d16
 1728              		.type	mc_interface_set_reku, %function
 1729              	mc_interface_set_reku:
 1730              	.LFB281:
 1731              		.loc 1 647 0
 1732              		.cfi_startproc
 1733              		@ args = 0, pretend = 0, frame = 0
 1734              		@ frame_needed = 0, uses_anonymous_args = 0
 1735              		@ link register save eliminated.
 1736              	.LVL69:
 1737              		.loc 1 648 0
 1738 0000 014B     		ldr	r3, .L157
 1739 0002 1880     		strh	r0, [r3]	@ movhi
 1740              		.loc 1 649 0
 1741 0004 7047     		bx	lr
 1742              	.L158:
 1743 0006 00BF     		.align	2
 1744              	.L157:
 1745 0008 00000000 		.word	.LANCHOR44
 1746              		.cfi_endproc
 1747              	.LFE281:
 1748              		.size	mc_interface_set_reku, .-mc_interface_set_reku
 1749              		.section	.text.mc_interface_get_reku,"ax",%progbits
 1750              		.align	1
 1751              		.p2align 4,,15
 1752              		.global	mc_interface_get_reku
 1753              		.syntax unified
 1754              		.thumb
 1755              		.thumb_func
 1756              		.fpu fpv4-sp-d16
 1757              		.type	mc_interface_get_reku, %function
 1758              	mc_interface_get_reku:
 1759              	.LFB282:
 1760              		.loc 1 650 0
 1761              		.cfi_startproc
 1762              		@ args = 0, pretend = 0, frame = 0
 1763              		@ frame_needed = 0, uses_anonymous_args = 0
 1764              		@ link register save eliminated.
 1765              		.loc 1 651 0
 1766 0000 014B     		ldr	r3, .L160
 1767 0002 1888     		ldrh	r0, [r3]
ARM GAS  /tmp/cclp9RuQ.s 			page 32


 1768              		.loc 1 652 0
 1769 0004 7047     		bx	lr
 1770              	.L161:
 1771 0006 00BF     		.align	2
 1772              	.L160:
 1773 0008 00000000 		.word	.LANCHOR44
 1774              		.cfi_endproc
 1775              	.LFE282:
 1776              		.size	mc_interface_get_reku, .-mc_interface_get_reku
 1777              		.section	.text.mc_interface_get_reku_float,"ax",%progbits
 1778              		.align	1
 1779              		.p2align 4,,15
 1780              		.global	mc_interface_get_reku_float
 1781              		.syntax unified
 1782              		.thumb
 1783              		.thumb_func
 1784              		.fpu fpv4-sp-d16
 1785              		.type	mc_interface_get_reku_float, %function
 1786              	mc_interface_get_reku_float:
 1787              	.LFB283:
 1788              		.loc 1 653 0
 1789              		.cfi_startproc
 1790              		@ args = 0, pretend = 0, frame = 0
 1791              		@ frame_needed = 0, uses_anonymous_args = 0
 1792              		@ link register save eliminated.
 1793              		.loc 1 654 0
 1794 0000 034B     		ldr	r3, .L163
 1795 0002 1B88     		ldrh	r3, [r3]
 1796 0004 00EE103A 		vmov	s0, r3	@ int
 1797              		.loc 1 655 0
 1798 0008 B8EE400A 		vcvt.f32.u32	s0, s0
 1799 000c 7047     		bx	lr
 1800              	.L164:
 1801 000e 00BF     		.align	2
 1802              	.L163:
 1803 0010 00000000 		.word	.LANCHOR44
 1804              		.cfi_endproc
 1805              	.LFE283:
 1806              		.size	mc_interface_get_reku_float, .-mc_interface_get_reku_float
 1807              		.section	.text.mc_interface_set_voltage_display,"ax",%progbits
 1808              		.align	1
 1809              		.p2align 4,,15
 1810              		.global	mc_interface_set_voltage_display
 1811              		.syntax unified
 1812              		.thumb
 1813              		.thumb_func
 1814              		.fpu fpv4-sp-d16
 1815              		.type	mc_interface_set_voltage_display, %function
 1816              	mc_interface_set_voltage_display:
 1817              	.LFB284:
 1818              		.loc 1 658 0
 1819              		.cfi_startproc
 1820              		@ args = 0, pretend = 0, frame = 0
 1821              		@ frame_needed = 0, uses_anonymous_args = 0
 1822              		@ link register save eliminated.
 1823              	.LVL70:
 1824              		.loc 1 659 0
ARM GAS  /tmp/cclp9RuQ.s 			page 33


 1825 0000 014B     		ldr	r3, .L166
 1826 0002 83ED000A 		vstr.32	s0, [r3]
 1827              		.loc 1 660 0
 1828 0006 7047     		bx	lr
 1829              	.L167:
 1830              		.align	2
 1831              	.L166:
 1832 0008 00000000 		.word	.LANCHOR48
 1833              		.cfi_endproc
 1834              	.LFE284:
 1835              		.size	mc_interface_set_voltage_display, .-mc_interface_set_voltage_display
 1836              		.section	.text.mc_interface_get_voltage_display,"ax",%progbits
 1837              		.align	1
 1838              		.p2align 4,,15
 1839              		.global	mc_interface_get_voltage_display
 1840              		.syntax unified
 1841              		.thumb
 1842              		.thumb_func
 1843              		.fpu fpv4-sp-d16
 1844              		.type	mc_interface_get_voltage_display, %function
 1845              	mc_interface_get_voltage_display:
 1846              	.LFB285:
 1847              		.loc 1 661 0
 1848              		.cfi_startproc
 1849              		@ args = 0, pretend = 0, frame = 0
 1850              		@ frame_needed = 0, uses_anonymous_args = 0
 1851              		@ link register save eliminated.
 1852              		.loc 1 662 0
 1853 0000 014B     		ldr	r3, .L169
 1854 0002 93ED000A 		vldr.32	s0, [r3]
 1855              		.loc 1 663 0
 1856 0006 7047     		bx	lr
 1857              	.L170:
 1858              		.align	2
 1859              	.L169:
 1860 0008 00000000 		.word	.LANCHOR48
 1861              		.cfi_endproc
 1862              	.LFE285:
 1863              		.size	mc_interface_get_voltage_display, .-mc_interface_get_voltage_display
 1864              		.section	.text.mc_interface_set_voltage_bms,"ax",%progbits
 1865              		.align	1
 1866              		.p2align 4,,15
 1867              		.global	mc_interface_set_voltage_bms
 1868              		.syntax unified
 1869              		.thumb
 1870              		.thumb_func
 1871              		.fpu fpv4-sp-d16
 1872              		.type	mc_interface_set_voltage_bms, %function
 1873              	mc_interface_set_voltage_bms:
 1874              	.LFB286:
 1875              		.loc 1 667 0
 1876              		.cfi_startproc
 1877              		@ args = 0, pretend = 0, frame = 0
 1878              		@ frame_needed = 0, uses_anonymous_args = 0
 1879              		@ link register save eliminated.
 1880              	.LVL71:
 1881              		.loc 1 668 0
ARM GAS  /tmp/cclp9RuQ.s 			page 34


 1882 0000 014B     		ldr	r3, .L172
 1883 0002 83ED000A 		vstr.32	s0, [r3]
 1884              		.loc 1 669 0
 1885 0006 7047     		bx	lr
 1886              	.L173:
 1887              		.align	2
 1888              	.L172:
 1889 0008 00000000 		.word	.LANCHOR47
 1890              		.cfi_endproc
 1891              	.LFE286:
 1892              		.size	mc_interface_set_voltage_bms, .-mc_interface_set_voltage_bms
 1893              		.section	.text.mc_interface_get_voltage_bms,"ax",%progbits
 1894              		.align	1
 1895              		.p2align 4,,15
 1896              		.global	mc_interface_get_voltage_bms
 1897              		.syntax unified
 1898              		.thumb
 1899              		.thumb_func
 1900              		.fpu fpv4-sp-d16
 1901              		.type	mc_interface_get_voltage_bms, %function
 1902              	mc_interface_get_voltage_bms:
 1903              	.LFB287:
 1904              		.loc 1 670 0
 1905              		.cfi_startproc
 1906              		@ args = 0, pretend = 0, frame = 0
 1907              		@ frame_needed = 0, uses_anonymous_args = 0
 1908              		@ link register save eliminated.
 1909              		.loc 1 671 0
 1910 0000 014B     		ldr	r3, .L175
 1911 0002 93ED000A 		vldr.32	s0, [r3]
 1912              		.loc 1 672 0
 1913 0006 7047     		bx	lr
 1914              	.L176:
 1915              		.align	2
 1916              	.L175:
 1917 0008 00000000 		.word	.LANCHOR47
 1918              		.cfi_endproc
 1919              	.LFE287:
 1920              		.size	mc_interface_get_voltage_bms, .-mc_interface_get_voltage_bms
 1921              		.section	.text.mc_interface_set_current_bms,"ax",%progbits
 1922              		.align	1
 1923              		.p2align 4,,15
 1924              		.global	mc_interface_set_current_bms
 1925              		.syntax unified
 1926              		.thumb
 1927              		.thumb_func
 1928              		.fpu fpv4-sp-d16
 1929              		.type	mc_interface_set_current_bms, %function
 1930              	mc_interface_set_current_bms:
 1931              	.LFB288:
 1932              		.loc 1 675 0
 1933              		.cfi_startproc
 1934              		@ args = 0, pretend = 0, frame = 0
 1935              		@ frame_needed = 0, uses_anonymous_args = 0
 1936              		@ link register save eliminated.
 1937              	.LVL72:
 1938              		.loc 1 676 0
ARM GAS  /tmp/cclp9RuQ.s 			page 35


 1939 0000 014B     		ldr	r3, .L178
 1940 0002 83ED000A 		vstr.32	s0, [r3]
 1941              		.loc 1 677 0
 1942 0006 7047     		bx	lr
 1943              	.L179:
 1944              		.align	2
 1945              	.L178:
 1946 0008 00000000 		.word	.LANCHOR46
 1947              		.cfi_endproc
 1948              	.LFE288:
 1949              		.size	mc_interface_set_current_bms, .-mc_interface_set_current_bms
 1950              		.section	.text.mc_interface_get_current_bms,"ax",%progbits
 1951              		.align	1
 1952              		.p2align 4,,15
 1953              		.global	mc_interface_get_current_bms
 1954              		.syntax unified
 1955              		.thumb
 1956              		.thumb_func
 1957              		.fpu fpv4-sp-d16
 1958              		.type	mc_interface_get_current_bms, %function
 1959              	mc_interface_get_current_bms:
 1960              	.LFB289:
 1961              		.loc 1 678 0
 1962              		.cfi_startproc
 1963              		@ args = 0, pretend = 0, frame = 0
 1964              		@ frame_needed = 0, uses_anonymous_args = 0
 1965              		@ link register save eliminated.
 1966              		.loc 1 679 0
 1967 0000 014B     		ldr	r3, .L181
 1968 0002 93ED000A 		vldr.32	s0, [r3]
 1969              		.loc 1 680 0
 1970 0006 7047     		bx	lr
 1971              	.L182:
 1972              		.align	2
 1973              	.L181:
 1974 0008 00000000 		.word	.LANCHOR46
 1975              		.cfi_endproc
 1976              	.LFE289:
 1977              		.size	mc_interface_get_current_bms, .-mc_interface_get_current_bms
 1978              		.section	.text.mc_interface_set_cell_voltage_bms,"ax",%progbits
 1979              		.align	1
 1980              		.p2align 4,,15
 1981              		.global	mc_interface_set_cell_voltage_bms
 1982              		.syntax unified
 1983              		.thumb
 1984              		.thumb_func
 1985              		.fpu fpv4-sp-d16
 1986              		.type	mc_interface_set_cell_voltage_bms, %function
 1987              	mc_interface_set_cell_voltage_bms:
 1988              	.LFB290:
 1989              		.loc 1 683 0
 1990              		.cfi_startproc
 1991              		@ args = 0, pretend = 0, frame = 0
 1992              		@ frame_needed = 0, uses_anonymous_args = 0
 1993              		@ link register save eliminated.
 1994              	.LVL73:
 1995              		.loc 1 684 0
ARM GAS  /tmp/cclp9RuQ.s 			page 36


 1996 0000 024B     		ldr	r3, .L184
 1997 0002 03EB8000 		add	r0, r3, r0, lsl #2
 1998              	.LVL74:
 1999 0006 80ED000A 		vstr.32	s0, [r0]
 2000              		.loc 1 685 0
 2001 000a 7047     		bx	lr
 2002              	.L185:
 2003              		.align	2
 2004              	.L184:
 2005 000c 00000000 		.word	.LANCHOR59
 2006              		.cfi_endproc
 2007              	.LFE290:
 2008              		.size	mc_interface_set_cell_voltage_bms, .-mc_interface_set_cell_voltage_bms
 2009              		.section	.text.mc_interface_get_min_cell_voltage_bms,"ax",%progbits
 2010              		.align	1
 2011              		.p2align 4,,15
 2012              		.global	mc_interface_get_min_cell_voltage_bms
 2013              		.syntax unified
 2014              		.thumb
 2015              		.thumb_func
 2016              		.fpu fpv4-sp-d16
 2017              		.type	mc_interface_get_min_cell_voltage_bms, %function
 2018              	mc_interface_get_min_cell_voltage_bms:
 2019              	.LFB291:
 2020              		.loc 1 686 0
 2021              		.cfi_startproc
 2022              		@ args = 0, pretend = 0, frame = 0
 2023              		@ frame_needed = 0, uses_anonymous_args = 0
 2024              		@ link register save eliminated.
 2025              	.LVL75:
 2026              		.loc 1 687 0
 2027 0000 9FED0D0A 		vldr.32	s0, .L194
 2028 0004 0D49     		ldr	r1, .L194+4
 2029              	.LBB282:
 2030              		.loc 1 689 0
 2031 0006 0023     		movs	r3, #0
 2032              	.LVL76:
 2033              	.L190:
 2034              		.loc 1 690 0
 2035 0008 01EB8302 		add	r2, r1, r3, lsl #2
 2036 000c D2ED007A 		vldr.32	s15, [r2]
 2037 0010 F4EEC07A 		vcmpe.f32	s15, s0
 2038 0014 F1EE10FA 		vmrs	APSR_nzcv, FPSCR
 2039              		.loc 1 689 0
 2040 0018 03F10103 		add	r3, r3, #1
 2041              	.LVL77:
 2042              		.loc 1 690 0
 2043 001c 08D5     		bpl	.L187
 2044              		.loc 1 690 0 is_stmt 0 discriminator 1
 2045 001e D2ED007A 		vldr.32	s15, [r2]
 2046 0022 F5EEC07A 		vcmpe.f32	s15, #0
 2047 0026 F1EE10FA 		vmrs	APSR_nzcv, FPSCR
 2048              		.loc 1 691 0 is_stmt 1 discriminator 1
 2049 002a C8BF     		it	gt
 2050 002c 92ED000A 		vldrgt.32	s0, [r2]
 2051              	.LVL78:
 2052              	.L187:
ARM GAS  /tmp/cclp9RuQ.s 			page 37


 2053              		.loc 1 689 0 discriminator 2
 2054 0030 112B     		cmp	r3, #17
 2055 0032 E9D1     		bne	.L190
 2056              	.LBE282:
 2057              		.loc 1 695 0
 2058 0034 7047     		bx	lr
 2059              	.L195:
 2060 0036 00BF     		.align	2
 2061              	.L194:
 2062 0038 E7FB1F41 		.word	1092615143
 2063 003c 00000000 		.word	.LANCHOR59
 2064              		.cfi_endproc
 2065              	.LFE291:
 2066              		.size	mc_interface_get_min_cell_voltage_bms, .-mc_interface_get_min_cell_voltage_bms
 2067              		.section	.text.mc_interface_get_max_cell_voltage_bms,"ax",%progbits
 2068              		.align	1
 2069              		.p2align 4,,15
 2070              		.global	mc_interface_get_max_cell_voltage_bms
 2071              		.syntax unified
 2072              		.thumb
 2073              		.thumb_func
 2074              		.fpu fpv4-sp-d16
 2075              		.type	mc_interface_get_max_cell_voltage_bms, %function
 2076              	mc_interface_get_max_cell_voltage_bms:
 2077              	.LFB292:
 2078              		.loc 1 696 0
 2079              		.cfi_startproc
 2080              		@ args = 0, pretend = 0, frame = 0
 2081              		@ frame_needed = 0, uses_anonymous_args = 0
 2082              		@ link register save eliminated.
 2083              	.LVL79:
 2084              		.loc 1 697 0
 2085 0000 9FED0E0A 		vldr.32	s0, .L204
 2086 0004 0E49     		ldr	r1, .L204+4
 2087              	.LBB283:
 2088              		.loc 1 699 0
 2089 0006 0023     		movs	r3, #0
 2090              		.loc 1 700 0
 2091 0008 B1EE087A 		vmov.f32	s14, #6.0e+0
 2092              	.LVL80:
 2093              	.L200:
 2094 000c 01EB8302 		add	r2, r1, r3, lsl #2
 2095 0010 D2ED007A 		vldr.32	s15, [r2]
 2096 0014 F4EEC07A 		vcmpe.f32	s15, s0
 2097 0018 F1EE10FA 		vmrs	APSR_nzcv, FPSCR
 2098              		.loc 1 699 0
 2099 001c 03F10103 		add	r3, r3, #1
 2100              	.LVL81:
 2101              		.loc 1 700 0
 2102 0020 08DD     		ble	.L197
 2103              		.loc 1 700 0 is_stmt 0 discriminator 1
 2104 0022 D2ED007A 		vldr.32	s15, [r2]
 2105 0026 F4EEC77A 		vcmpe.f32	s15, s14
 2106 002a F1EE10FA 		vmrs	APSR_nzcv, FPSCR
 2107              		.loc 1 701 0 is_stmt 1 discriminator 1
 2108 002e 48BF     		it	mi
 2109 0030 92ED000A 		vldrmi.32	s0, [r2]
ARM GAS  /tmp/cclp9RuQ.s 			page 38


 2110              	.LVL82:
 2111              	.L197:
 2112              		.loc 1 699 0 discriminator 2
 2113 0034 112B     		cmp	r3, #17
 2114 0036 E9D1     		bne	.L200
 2115              	.LBE283:
 2116              		.loc 1 705 0
 2117 0038 7047     		bx	lr
 2118              	.L205:
 2119 003a 00BF     		.align	2
 2120              	.L204:
 2121 003c 00000000 		.word	0
 2122 0040 00000000 		.word	.LANCHOR59
 2123              		.cfi_endproc
 2124              	.LFE292:
 2125              		.size	mc_interface_get_max_cell_voltage_bms, .-mc_interface_get_max_cell_voltage_bms
 2126              		.section	.text.mc_interface_set_NTC_bms,"ax",%progbits
 2127              		.align	1
 2128              		.p2align 4,,15
 2129              		.global	mc_interface_set_NTC_bms
 2130              		.syntax unified
 2131              		.thumb
 2132              		.thumb_func
 2133              		.fpu fpv4-sp-d16
 2134              		.type	mc_interface_set_NTC_bms, %function
 2135              	mc_interface_set_NTC_bms:
 2136              	.LFB293:
 2137              		.loc 1 708 0
 2138              		.cfi_startproc
 2139              		@ args = 0, pretend = 0, frame = 0
 2140              		@ frame_needed = 0, uses_anonymous_args = 0
 2141              		@ link register save eliminated.
 2142              	.LVL83:
 2143              		.loc 1 709 0
 2144 0000 0528     		cmp	r0, #5
 2145 0002 05D0     		beq	.L209
 2146              		.loc 1 712 0
 2147 0004 064B     		ldr	r3, .L210
 2148 0006 03EB8000 		add	r0, r3, r0, lsl #2
 2149              	.LVL84:
 2150 000a 80ED000A 		vstr.32	s0, [r0]
 2151              		.loc 1 714 0
 2152 000e 7047     		bx	lr
 2153              	.LVL85:
 2154              	.L209:
 2155              		.loc 1 710 0
 2156 0010 F3EE047A 		vmov.f32	s15, #2.0e+1
 2157 0014 30EE670A 		vsub.f32	s0, s0, s15
 2158              	.LVL86:
 2159 0018 014B     		ldr	r3, .L210
 2160 001a 83ED050A 		vstr.32	s0, [r3, #20]
 2161 001e 7047     		bx	lr
 2162              	.L211:
 2163              		.align	2
 2164              	.L210:
 2165 0020 00000000 		.word	.LANCHOR60
 2166              		.cfi_endproc
ARM GAS  /tmp/cclp9RuQ.s 			page 39


 2167              	.LFE293:
 2168              		.size	mc_interface_set_NTC_bms, .-mc_interface_set_NTC_bms
 2169              		.section	.text.mc_interface_get_min_NTC_bms,"ax",%progbits
 2170              		.align	1
 2171              		.p2align 4,,15
 2172              		.global	mc_interface_get_min_NTC_bms
 2173              		.syntax unified
 2174              		.thumb
 2175              		.thumb_func
 2176              		.fpu fpv4-sp-d16
 2177              		.type	mc_interface_get_min_NTC_bms, %function
 2178              	mc_interface_get_min_NTC_bms:
 2179              	.LFB294:
 2180              		.loc 1 715 0
 2181              		.cfi_startproc
 2182              		@ args = 0, pretend = 0, frame = 0
 2183              		@ frame_needed = 0, uses_anonymous_args = 0
 2184              		@ link register save eliminated.
 2185              	.LVL87:
 2186              		.loc 1 716 0
 2187 0000 9FED0E0A 		vldr.32	s0, .L220
 2188 0004 0E49     		ldr	r1, .L220+4
 2189              	.LBB284:
 2190              		.loc 1 719 0
 2191 0006 9FED0F7A 		vldr.32	s14, .L220+8
 2192              		.loc 1 718 0
 2193 000a 0023     		movs	r3, #0
 2194              	.LVL88:
 2195              	.L216:
 2196              		.loc 1 719 0
 2197 000c 01EB8302 		add	r2, r1, r3, lsl #2
 2198 0010 D2ED007A 		vldr.32	s15, [r2]
 2199 0014 F4EEC07A 		vcmpe.f32	s15, s0
 2200 0018 F1EE10FA 		vmrs	APSR_nzcv, FPSCR
 2201              		.loc 1 718 0
 2202 001c 03F10103 		add	r3, r3, #1
 2203              	.LVL89:
 2204              		.loc 1 719 0
 2205 0020 08D5     		bpl	.L213
 2206              		.loc 1 719 0 is_stmt 0 discriminator 1
 2207 0022 D2ED007A 		vldr.32	s15, [r2]
 2208 0026 F4EEC77A 		vcmpe.f32	s15, s14
 2209 002a F1EE10FA 		vmrs	APSR_nzcv, FPSCR
 2210              		.loc 1 720 0 is_stmt 1 discriminator 1
 2211 002e C8BF     		it	gt
 2212 0030 92ED000A 		vldrgt.32	s0, [r2]
 2213              	.LVL90:
 2214              	.L213:
 2215              		.loc 1 718 0 discriminator 2
 2216 0034 052B     		cmp	r3, #5
 2217 0036 E9D1     		bne	.L216
 2218              	.LBE284:
 2219              		.loc 1 724 0
 2220 0038 7047     		bx	lr
 2221              	.L221:
 2222 003a 00BF     		.align	2
 2223              	.L220:
ARM GAS  /tmp/cclp9RuQ.s 			page 40


 2224 003c 00C07944 		.word	1148829696
 2225 0040 00000000 		.word	.LANCHOR60
 2226 0044 008088C3 		.word	3280502784
 2227              		.cfi_endproc
 2228              	.LFE294:
 2229              		.size	mc_interface_get_min_NTC_bms, .-mc_interface_get_min_NTC_bms
 2230              		.section	.text.mc_interface_get_max_NTC_bms,"ax",%progbits
 2231              		.align	1
 2232              		.p2align 4,,15
 2233              		.global	mc_interface_get_max_NTC_bms
 2234              		.syntax unified
 2235              		.thumb
 2236              		.thumb_func
 2237              		.fpu fpv4-sp-d16
 2238              		.type	mc_interface_get_max_NTC_bms, %function
 2239              	mc_interface_get_max_NTC_bms:
 2240              	.LFB295:
 2241              		.loc 1 725 0
 2242              		.cfi_startproc
 2243              		@ args = 0, pretend = 0, frame = 0
 2244              		@ frame_needed = 0, uses_anonymous_args = 0
 2245              		@ link register save eliminated.
 2246              	.LVL91:
 2247              		.loc 1 726 0
 2248 0000 9FED0E0A 		vldr.32	s0, .L230
 2249 0004 0E49     		ldr	r1, .L230+4
 2250              	.LBB285:
 2251              		.loc 1 729 0
 2252 0006 B0EE407A 		vmov.f32	s14, s0
 2253              		.loc 1 728 0
 2254 000a 0023     		movs	r3, #0
 2255              	.LVL92:
 2256              	.L226:
 2257              		.loc 1 729 0
 2258 000c 01EB8302 		add	r2, r1, r3, lsl #2
 2259 0010 D2ED007A 		vldr.32	s15, [r2]
 2260 0014 F4EEC07A 		vcmpe.f32	s15, s0
 2261 0018 F1EE10FA 		vmrs	APSR_nzcv, FPSCR
 2262              		.loc 1 728 0
 2263 001c 03F10103 		add	r3, r3, #1
 2264              	.LVL93:
 2265              		.loc 1 729 0
 2266 0020 08DD     		ble	.L223
 2267              		.loc 1 729 0 is_stmt 0 discriminator 1
 2268 0022 D2ED007A 		vldr.32	s15, [r2]
 2269 0026 F4EEC77A 		vcmpe.f32	s15, s14
 2270 002a F1EE10FA 		vmrs	APSR_nzcv, FPSCR
 2271              		.loc 1 730 0 is_stmt 1 discriminator 1
 2272 002e C8BF     		it	gt
 2273 0030 92ED000A 		vldrgt.32	s0, [r2]
 2274              	.LVL94:
 2275              	.L223:
 2276              		.loc 1 728 0 discriminator 2
 2277 0034 062B     		cmp	r3, #6
 2278 0036 E9D1     		bne	.L226
 2279              	.LBE285:
 2280              		.loc 1 734 0
ARM GAS  /tmp/cclp9RuQ.s 			page 41


 2281 0038 7047     		bx	lr
 2282              	.L231:
 2283 003a 00BF     		.align	2
 2284              	.L230:
 2285 003c 008088C3 		.word	3280502784
 2286 0040 00000000 		.word	.LANCHOR60
 2287              		.cfi_endproc
 2288              	.LFE295:
 2289              		.size	mc_interface_get_max_NTC_bms, .-mc_interface_get_max_NTC_bms
 2290              		.section	.text.mc_interface_set_bms_fet_status,"ax",%progbits
 2291              		.align	1
 2292              		.p2align 4,,15
 2293              		.global	mc_interface_set_bms_fet_status
 2294              		.syntax unified
 2295              		.thumb
 2296              		.thumb_func
 2297              		.fpu fpv4-sp-d16
 2298              		.type	mc_interface_set_bms_fet_status, %function
 2299              	mc_interface_set_bms_fet_status:
 2300              	.LFB296:
 2301              		.loc 1 737 0
 2302              		.cfi_startproc
 2303              		@ args = 0, pretend = 0, frame = 0
 2304              		@ frame_needed = 0, uses_anonymous_args = 0
 2305              		@ link register save eliminated.
 2306              	.LVL95:
 2307              		.loc 1 738 0
 2308 0000 014B     		ldr	r3, .L233
 2309 0002 1880     		strh	r0, [r3]	@ movhi
 2310              		.loc 1 739 0
 2311 0004 7047     		bx	lr
 2312              	.L234:
 2313 0006 00BF     		.align	2
 2314              	.L233:
 2315 0008 00000000 		.word	.LANCHOR51
 2316              		.cfi_endproc
 2317              	.LFE296:
 2318              		.size	mc_interface_set_bms_fet_status, .-mc_interface_set_bms_fet_status
 2319              		.section	.text.mc_interface_get_bms_fet_status,"ax",%progbits
 2320              		.align	1
 2321              		.p2align 4,,15
 2322              		.global	mc_interface_get_bms_fet_status
 2323              		.syntax unified
 2324              		.thumb
 2325              		.thumb_func
 2326              		.fpu fpv4-sp-d16
 2327              		.type	mc_interface_get_bms_fet_status, %function
 2328              	mc_interface_get_bms_fet_status:
 2329              	.LFB297:
 2330              		.loc 1 740 0
 2331              		.cfi_startproc
 2332              		@ args = 0, pretend = 0, frame = 0
 2333              		@ frame_needed = 0, uses_anonymous_args = 0
 2334              		@ link register save eliminated.
 2335              		.loc 1 741 0
 2336 0000 014B     		ldr	r3, .L236
 2337 0002 1888     		ldrh	r0, [r3]
ARM GAS  /tmp/cclp9RuQ.s 			page 42


 2338              		.loc 1 742 0
 2339 0004 7047     		bx	lr
 2340              	.L237:
 2341 0006 00BF     		.align	2
 2342              	.L236:
 2343 0008 00000000 		.word	.LANCHOR51
 2344              		.cfi_endproc
 2345              	.LFE297:
 2346              		.size	mc_interface_get_bms_fet_status, .-mc_interface_get_bms_fet_status
 2347              		.section	.text.mc_interface_get_cell_count,"ax",%progbits
 2348              		.align	1
 2349              		.p2align 4,,15
 2350              		.global	mc_interface_get_cell_count
 2351              		.syntax unified
 2352              		.thumb
 2353              		.thumb_func
 2354              		.fpu fpv4-sp-d16
 2355              		.type	mc_interface_get_cell_count, %function
 2356              	mc_interface_get_cell_count:
 2357              	.LFB299:
 2358              		.loc 1 767 0
 2359              		.cfi_startproc
 2360              		@ args = 0, pretend = 0, frame = 0
 2361              		@ frame_needed = 0, uses_anonymous_args = 0
 2362              		@ link register save eliminated.
 2363              		.loc 1 769 0
 2364 0000 024B     		ldr	r3, .L239
 2365 0002 D3F8C001 		ldr	r0, [r3, #448]
 2366              		.loc 1 770 0
 2367 0006 80B2     		uxth	r0, r0
 2368 0008 7047     		bx	lr
 2369              	.L240:
 2370 000a 00BF     		.align	2
 2371              	.L239:
 2372 000c 00000000 		.word	.LANCHOR8
 2373              		.cfi_endproc
 2374              	.LFE299:
 2375              		.size	mc_interface_get_cell_count, .-mc_interface_get_cell_count
 2376              		.section	.text.mc_interface_get_lo_current_motor_max_now,"ax",%progbits
 2377              		.align	1
 2378              		.p2align 4,,15
 2379              		.global	mc_interface_get_lo_current_motor_max_now
 2380              		.syntax unified
 2381              		.thumb
 2382              		.thumb_func
 2383              		.fpu fpv4-sp-d16
 2384              		.type	mc_interface_get_lo_current_motor_max_now, %function
 2385              	mc_interface_get_lo_current_motor_max_now:
 2386              	.LFB307:
 2387              		.loc 1 940 0
 2388              		.cfi_startproc
 2389              		@ args = 0, pretend = 0, frame = 0
 2390              		@ frame_needed = 0, uses_anonymous_args = 0
 2391              		@ link register save eliminated.
 2392              		.loc 1 941 0
 2393 0000 014B     		ldr	r3, .L242
 2394 0002 93ED1F0A 		vldr.32	s0, [r3, #124]
ARM GAS  /tmp/cclp9RuQ.s 			page 43


 2395              		.loc 1 942 0
 2396 0006 7047     		bx	lr
 2397              	.L243:
 2398              		.align	2
 2399              	.L242:
 2400 0008 00000000 		.word	.LANCHOR8
 2401              		.cfi_endproc
 2402              	.LFE307:
 2403              		.size	mc_interface_get_lo_current_motor_max_now, .-mc_interface_get_lo_current_motor_max_now
 2404              		.section	.text.mc_interface_get_duty_cycle_set,"ax",%progbits
 2405              		.align	1
 2406              		.p2align 4,,15
 2407              		.global	mc_interface_get_duty_cycle_set
 2408              		.syntax unified
 2409              		.thumb
 2410              		.thumb_func
 2411              		.fpu fpv4-sp-d16
 2412              		.type	mc_interface_get_duty_cycle_set, %function
 2413              	mc_interface_get_duty_cycle_set:
 2414              	.LFB313:
 2415              		.loc 1 1022 0
 2416              		.cfi_startproc
 2417              		@ args = 0, pretend = 0, frame = 0
 2418              		@ frame_needed = 0, uses_anonymous_args = 0
 2419              	.LVL96:
 2420 0000 10B5     		push	{r4, lr}
 2421              		.cfi_def_cfa_offset 8
 2422              		.cfi_offset 4, -8
 2423              		.cfi_offset 14, -4
 2424              		.loc 1 1025 0
 2425 0002 0B4C     		ldr	r4, .L256
 2426 0004 A378     		ldrb	r3, [r4, #2]	@ zero_extendqisi2
 2427 0006 DBB2     		uxtb	r3, r3
 2428 0008 012B     		cmp	r3, #1
 2429 000a 0DD9     		bls	.L246
 2430 000c 022B     		cmp	r3, #2
 2431 000e 08D0     		beq	.L247
 2432              		.loc 1 1023 0
 2433 0010 9FED080A 		vldr.32	s0, .L256+4
 2434              	.LVL97:
 2435              	.L245:
 2436              		.loc 1 1039 0
 2437 0014 94F89931 		ldrb	r3, [r4, #409]	@ zero_extendqisi2
 2438 0018 03B9     		cbnz	r3, .L255
 2439              		.loc 1 1040 0
 2440 001a 10BD     		pop	{r4, pc}
 2441              	.L255:
 2442 001c B1EE400A 		vneg.f32	s0, s0
 2443              	.LVL98:
 2444 0020 10BD     		pop	{r4, pc}
 2445              	.LVL99:
 2446              	.L247:
 2447              		.loc 1 1032 0
 2448 0022 FFF7FEFF 		bl	mcpwm_foc_get_duty_cycle_set
 2449              	.LVL100:
 2450              		.loc 1 1033 0
 2451 0026 F5E7     		b	.L245
ARM GAS  /tmp/cclp9RuQ.s 			page 44


 2452              	.LVL101:
 2453              	.L246:
 2454              		.loc 1 1028 0
 2455 0028 FFF7FEFF 		bl	mcpwm_get_duty_cycle_set
 2456              	.LVL102:
 2457              		.loc 1 1029 0
 2458 002c F2E7     		b	.L245
 2459              	.L257:
 2460 002e 00BF     		.align	2
 2461              	.L256:
 2462 0030 00000000 		.word	.LANCHOR8
 2463 0034 00000000 		.word	0
 2464              		.cfi_endproc
 2465              	.LFE313:
 2466              		.size	mc_interface_get_duty_cycle_set, .-mc_interface_get_duty_cycle_set
 2467              		.section	.text.mc_interface_get_duty_cycle_now,"ax",%progbits
 2468              		.align	1
 2469              		.p2align 4,,15
 2470              		.global	mc_interface_get_duty_cycle_now
 2471              		.syntax unified
 2472              		.thumb
 2473              		.thumb_func
 2474              		.fpu fpv4-sp-d16
 2475              		.type	mc_interface_get_duty_cycle_now, %function
 2476              	mc_interface_get_duty_cycle_now:
 2477              	.LFB314:
 2478              		.loc 1 1042 0
 2479              		.cfi_startproc
 2480              		@ args = 0, pretend = 0, frame = 0
 2481              		@ frame_needed = 0, uses_anonymous_args = 0
 2482              	.LVL103:
 2483 0000 10B5     		push	{r4, lr}
 2484              		.cfi_def_cfa_offset 8
 2485              		.cfi_offset 4, -8
 2486              		.cfi_offset 14, -4
 2487              		.loc 1 1045 0
 2488 0002 0B4C     		ldr	r4, .L270
 2489 0004 A378     		ldrb	r3, [r4, #2]	@ zero_extendqisi2
 2490 0006 DBB2     		uxtb	r3, r3
 2491 0008 012B     		cmp	r3, #1
 2492 000a 0DD9     		bls	.L260
 2493 000c 022B     		cmp	r3, #2
 2494 000e 08D0     		beq	.L261
 2495              		.loc 1 1043 0
 2496 0010 9FED080A 		vldr.32	s0, .L270+4
 2497              	.LVL104:
 2498              	.L259:
 2499              		.loc 1 1059 0
 2500 0014 94F89931 		ldrb	r3, [r4, #409]	@ zero_extendqisi2
 2501 0018 03B9     		cbnz	r3, .L269
 2502              		.loc 1 1060 0
 2503 001a 10BD     		pop	{r4, pc}
 2504              	.L269:
 2505 001c B1EE400A 		vneg.f32	s0, s0
 2506              	.LVL105:
 2507 0020 10BD     		pop	{r4, pc}
 2508              	.LVL106:
ARM GAS  /tmp/cclp9RuQ.s 			page 45


 2509              	.L261:
 2510              		.loc 1 1052 0
 2511 0022 FFF7FEFF 		bl	mcpwm_foc_get_duty_cycle_now
 2512              	.LVL107:
 2513              		.loc 1 1053 0
 2514 0026 F5E7     		b	.L259
 2515              	.LVL108:
 2516              	.L260:
 2517              		.loc 1 1048 0
 2518 0028 FFF7FEFF 		bl	mcpwm_get_duty_cycle_now
 2519              	.LVL109:
 2520              		.loc 1 1049 0
 2521 002c F2E7     		b	.L259
 2522              	.L271:
 2523 002e 00BF     		.align	2
 2524              	.L270:
 2525 0030 00000000 		.word	.LANCHOR8
 2526 0034 00000000 		.word	0
 2527              		.cfi_endproc
 2528              	.LFE314:
 2529              		.size	mc_interface_get_duty_cycle_now, .-mc_interface_get_duty_cycle_now
 2530              		.section	.text.mc_interface_get_sampling_frequency_now,"ax",%progbits
 2531              		.align	1
 2532              		.p2align 4,,15
 2533              		.global	mc_interface_get_sampling_frequency_now
 2534              		.syntax unified
 2535              		.thumb
 2536              		.thumb_func
 2537              		.fpu fpv4-sp-d16
 2538              		.type	mc_interface_get_sampling_frequency_now, %function
 2539              	mc_interface_get_sampling_frequency_now:
 2540              	.LFB315:
 2541              		.loc 1 1062 0
 2542              		.cfi_startproc
 2543              		@ args = 0, pretend = 0, frame = 0
 2544              		@ frame_needed = 0, uses_anonymous_args = 0
 2545              		@ link register save eliminated.
 2546              	.LVL110:
 2547              		.loc 1 1065 0
 2548 0000 084B     		ldr	r3, .L278
 2549 0002 9B78     		ldrb	r3, [r3, #2]	@ zero_extendqisi2
 2550 0004 032B     		cmp	r3, #3
 2551 0006 09D8     		bhi	.L273
 2552 0008 DFE803F0 		tbb	[pc, r3]
 2553              	.L275:
 2554 000c 06       		.byte	(.L274-.L275)/2
 2555 000d 06       		.byte	(.L274-.L275)/2
 2556 000e 04       		.byte	(.L276-.L275)/2
 2557 000f 02       		.byte	(.L277-.L275)/2
 2558              		.p2align 1
 2559              	.L277:
 2560              		.loc 1 1076 0
 2561 0010 FFF7FEBF 		b	gpdrive_get_switching_frequency_now
 2562              	.LVL111:
 2563              	.L276:
 2564              		.loc 1 1072 0
 2565 0014 FFF7FEBF 		b	mcpwm_foc_get_sampling_frequency_now
ARM GAS  /tmp/cclp9RuQ.s 			page 46


 2566              	.LVL112:
 2567              	.L274:
 2568              		.loc 1 1068 0
 2569 0018 FFF7FEBF 		b	mcpwm_get_switching_frequency_now
 2570              	.LVL113:
 2571              	.L273:
 2572              		.loc 1 1084 0
 2573 001c 9FED020A 		vldr.32	s0, .L278+4
 2574 0020 7047     		bx	lr
 2575              	.L279:
 2576 0022 00BF     		.align	2
 2577              	.L278:
 2578 0024 00000000 		.word	.LANCHOR8
 2579 0028 00000000 		.word	0
 2580              		.cfi_endproc
 2581              	.LFE315:
 2582              		.size	mc_interface_get_sampling_frequency_now, .-mc_interface_get_sampling_frequency_now
 2583              		.section	.text.mc_interface_get_rpm,"ax",%progbits
 2584              		.align	1
 2585              		.p2align 4,,15
 2586              		.global	mc_interface_get_rpm
 2587              		.syntax unified
 2588              		.thumb
 2589              		.thumb_func
 2590              		.fpu fpv4-sp-d16
 2591              		.type	mc_interface_get_rpm, %function
 2592              	mc_interface_get_rpm:
 2593              	.LFB316:
 2594              		.loc 1 1086 0
 2595              		.cfi_startproc
 2596              		@ args = 0, pretend = 0, frame = 0
 2597              		@ frame_needed = 0, uses_anonymous_args = 0
 2598 0000 10B5     		push	{r4, lr}
 2599              		.cfi_def_cfa_offset 8
 2600              		.cfi_offset 4, -8
 2601              		.cfi_offset 14, -4
 2602              		.loc 1 1090 0
 2603 0002 0C4C     		ldr	r4, .L292
 2604              		.loc 1 1087 0
 2605 0004 FFF7FEFF 		bl	senddebugdata
 2606              	.LVL114:
 2607              		.loc 1 1090 0
 2608 0008 A378     		ldrb	r3, [r4, #2]	@ zero_extendqisi2
 2609 000a DBB2     		uxtb	r3, r3
 2610 000c 012B     		cmp	r3, #1
 2611 000e 0DD9     		bls	.L282
 2612 0010 022B     		cmp	r3, #2
 2613 0012 08D0     		beq	.L283
 2614              		.loc 1 1088 0
 2615 0014 9FED080A 		vldr.32	s0, .L292+4
 2616              	.LVL115:
 2617              	.L281:
 2618              		.loc 1 1104 0
 2619 0018 94F89931 		ldrb	r3, [r4, #409]	@ zero_extendqisi2
 2620 001c 03B9     		cbnz	r3, .L291
 2621              		.loc 1 1105 0
 2622 001e 10BD     		pop	{r4, pc}
ARM GAS  /tmp/cclp9RuQ.s 			page 47


 2623              	.L291:
 2624 0020 B1EE400A 		vneg.f32	s0, s0
 2625              	.LVL116:
 2626 0024 10BD     		pop	{r4, pc}
 2627              	.LVL117:
 2628              	.L283:
 2629              		.loc 1 1097 0
 2630 0026 FFF7FEFF 		bl	mcpwm_foc_get_rpm
 2631              	.LVL118:
 2632              		.loc 1 1098 0
 2633 002a F5E7     		b	.L281
 2634              	.LVL119:
 2635              	.L282:
 2636              		.loc 1 1093 0
 2637 002c FFF7FEFF 		bl	mcpwm_get_rpm
 2638              	.LVL120:
 2639              		.loc 1 1094 0
 2640 0030 F2E7     		b	.L281
 2641              	.L293:
 2642 0032 00BF     		.align	2
 2643              	.L292:
 2644 0034 00000000 		.word	.LANCHOR8
 2645 0038 00000000 		.word	0
 2646              		.cfi_endproc
 2647              	.LFE316:
 2648              		.size	mc_interface_get_rpm, .-mc_interface_get_rpm
 2649              		.section	.text.mc_interface_get_amp_hours,"ax",%progbits
 2650              		.align	1
 2651              		.p2align 4,,15
 2652              		.global	mc_interface_get_amp_hours
 2653              		.syntax unified
 2654              		.thumb
 2655              		.thumb_func
 2656              		.fpu fpv4-sp-d16
 2657              		.type	mc_interface_get_amp_hours, %function
 2658              	mc_interface_get_amp_hours:
 2659              	.LFB317:
 2660              		.loc 1 1116 0
 2661              		.cfi_startproc
 2662              		@ args = 0, pretend = 0, frame = 0
 2663              		@ frame_needed = 0, uses_anonymous_args = 0
 2664              		@ link register save eliminated.
 2665              	.LVL121:
 2666              		.loc 1 1117 0
 2667 0000 054B     		ldr	r3, .L299
 2668 0002 DFED067A 		vldr.32	s15, .L299+4
 2669 0006 93ED007A 		vldr.32	s14, [r3]
 2670 000a 87EE270A 		vdiv.f32	s0, s14, s15
 2671              	.LVL122:
 2672              		.loc 1 1119 0
 2673 000e 08B1     		cbz	r0, .L294
 2674              		.loc 1 1120 0
 2675 0010 0022     		movs	r2, #0
 2676 0012 1A60     		str	r2, [r3]	@ float
 2677              	.L294:
 2678              		.loc 1 1124 0
 2679 0014 7047     		bx	lr
ARM GAS  /tmp/cclp9RuQ.s 			page 48


 2680              	.L300:
 2681 0016 00BF     		.align	2
 2682              	.L299:
 2683 0018 00000000 		.word	.LANCHOR27
 2684 001c 00006145 		.word	1163984896
 2685              		.cfi_endproc
 2686              	.LFE317:
 2687              		.size	mc_interface_get_amp_hours, .-mc_interface_get_amp_hours
 2688              		.section	.text.mc_interface_get_amp_hours_charged,"ax",%progbits
 2689              		.align	1
 2690              		.p2align 4,,15
 2691              		.global	mc_interface_get_amp_hours_charged
 2692              		.syntax unified
 2693              		.thumb
 2694              		.thumb_func
 2695              		.fpu fpv4-sp-d16
 2696              		.type	mc_interface_get_amp_hours_charged, %function
 2697              	mc_interface_get_amp_hours_charged:
 2698              	.LFB318:
 2699              		.loc 1 1135 0
 2700              		.cfi_startproc
 2701              		@ args = 0, pretend = 0, frame = 0
 2702              		@ frame_needed = 0, uses_anonymous_args = 0
 2703              		@ link register save eliminated.
 2704              	.LVL123:
 2705              		.loc 1 1136 0
 2706 0000 054B     		ldr	r3, .L306
 2707 0002 DFED067A 		vldr.32	s15, .L306+4
 2708 0006 93ED007A 		vldr.32	s14, [r3]
 2709 000a 87EE270A 		vdiv.f32	s0, s14, s15
 2710              	.LVL124:
 2711              		.loc 1 1138 0
 2712 000e 08B1     		cbz	r0, .L301
 2713              		.loc 1 1139 0
 2714 0010 0022     		movs	r2, #0
 2715 0012 1A60     		str	r2, [r3]	@ float
 2716              	.L301:
 2717              		.loc 1 1143 0
 2718 0014 7047     		bx	lr
 2719              	.L307:
 2720 0016 00BF     		.align	2
 2721              	.L306:
 2722 0018 00000000 		.word	.LANCHOR28
 2723 001c 00006145 		.word	1163984896
 2724              		.cfi_endproc
 2725              	.LFE318:
 2726              		.size	mc_interface_get_amp_hours_charged, .-mc_interface_get_amp_hours_charged
 2727              		.section	.text.mc_interface_get_watt_hours,"ax",%progbits
 2728              		.align	1
 2729              		.p2align 4,,15
 2730              		.global	mc_interface_get_watt_hours
 2731              		.syntax unified
 2732              		.thumb
 2733              		.thumb_func
 2734              		.fpu fpv4-sp-d16
 2735              		.type	mc_interface_get_watt_hours, %function
 2736              	mc_interface_get_watt_hours:
ARM GAS  /tmp/cclp9RuQ.s 			page 49


 2737              	.LFB319:
 2738              		.loc 1 1154 0
 2739              		.cfi_startproc
 2740              		@ args = 0, pretend = 0, frame = 0
 2741              		@ frame_needed = 0, uses_anonymous_args = 0
 2742              		@ link register save eliminated.
 2743              	.LVL125:
 2744              		.loc 1 1155 0
 2745 0000 054B     		ldr	r3, .L313
 2746 0002 DFED067A 		vldr.32	s15, .L313+4
 2747 0006 93ED007A 		vldr.32	s14, [r3]
 2748 000a 87EE270A 		vdiv.f32	s0, s14, s15
 2749              	.LVL126:
 2750              		.loc 1 1157 0
 2751 000e 08B1     		cbz	r0, .L308
 2752              		.loc 1 1158 0
 2753 0010 0022     		movs	r2, #0
 2754 0012 1A60     		str	r2, [r3]	@ float
 2755              	.L308:
 2756              		.loc 1 1162 0
 2757 0014 7047     		bx	lr
 2758              	.L314:
 2759 0016 00BF     		.align	2
 2760              	.L313:
 2761 0018 00000000 		.word	.LANCHOR29
 2762 001c 00006145 		.word	1163984896
 2763              		.cfi_endproc
 2764              	.LFE319:
 2765              		.size	mc_interface_get_watt_hours, .-mc_interface_get_watt_hours
 2766              		.section	.text.mc_interface_get_watt_hours_charged,"ax",%progbits
 2767              		.align	1
 2768              		.p2align 4,,15
 2769              		.global	mc_interface_get_watt_hours_charged
 2770              		.syntax unified
 2771              		.thumb
 2772              		.thumb_func
 2773              		.fpu fpv4-sp-d16
 2774              		.type	mc_interface_get_watt_hours_charged, %function
 2775              	mc_interface_get_watt_hours_charged:
 2776              	.LFB320:
 2777              		.loc 1 1173 0
 2778              		.cfi_startproc
 2779              		@ args = 0, pretend = 0, frame = 0
 2780              		@ frame_needed = 0, uses_anonymous_args = 0
 2781              		@ link register save eliminated.
 2782              	.LVL127:
 2783              		.loc 1 1174 0
 2784 0000 054B     		ldr	r3, .L320
 2785 0002 DFED067A 		vldr.32	s15, .L320+4
 2786 0006 93ED007A 		vldr.32	s14, [r3]
 2787 000a 87EE270A 		vdiv.f32	s0, s14, s15
 2788              	.LVL128:
 2789              		.loc 1 1176 0
 2790 000e 08B1     		cbz	r0, .L315
 2791              		.loc 1 1177 0
 2792 0010 0022     		movs	r2, #0
 2793 0012 1A60     		str	r2, [r3]	@ float
ARM GAS  /tmp/cclp9RuQ.s 			page 50


 2794              	.L315:
 2795              		.loc 1 1181 0
 2796 0014 7047     		bx	lr
 2797              	.L321:
 2798 0016 00BF     		.align	2
 2799              	.L320:
 2800 0018 00000000 		.word	.LANCHOR30
 2801 001c 00006145 		.word	1163984896
 2802              		.cfi_endproc
 2803              	.LFE320:
 2804              		.size	mc_interface_get_watt_hours_charged, .-mc_interface_get_watt_hours_charged
 2805              		.section	.text.mc_interface_get_tot_current,"ax",%progbits
 2806              		.align	1
 2807              		.p2align 4,,15
 2808              		.global	mc_interface_get_tot_current
 2809              		.syntax unified
 2810              		.thumb
 2811              		.thumb_func
 2812              		.fpu fpv4-sp-d16
 2813              		.type	mc_interface_get_tot_current, %function
 2814              	mc_interface_get_tot_current:
 2815              	.LFB321:
 2816              		.loc 1 1183 0
 2817              		.cfi_startproc
 2818              		@ args = 0, pretend = 0, frame = 0
 2819              		@ frame_needed = 0, uses_anonymous_args = 0
 2820              		@ link register save eliminated.
 2821              	.LVL129:
 2822              		.loc 1 1186 0
 2823 0000 064B     		ldr	r3, .L328
 2824 0002 9B78     		ldrb	r3, [r3, #2]	@ zero_extendqisi2
 2825 0004 DBB2     		uxtb	r3, r3
 2826 0006 012B     		cmp	r3, #1
 2827 0008 06D9     		bls	.L324
 2828 000a 022B     		cmp	r3, #2
 2829 000c 01D1     		bne	.L327
 2830              		.loc 1 1193 0
 2831 000e FFF7FEBF 		b	mcpwm_foc_get_tot_current
 2832              	.LVL130:
 2833              	.L327:
 2834              		.loc 1 1201 0
 2835 0012 9FED030A 		vldr.32	s0, .L328+4
 2836 0016 7047     		bx	lr
 2837              	.L324:
 2838              		.loc 1 1189 0
 2839 0018 FFF7FEBF 		b	mcpwm_get_tot_current
 2840              	.LVL131:
 2841              	.L329:
 2842              		.align	2
 2843              	.L328:
 2844 001c 00000000 		.word	.LANCHOR8
 2845 0020 00000000 		.word	0
 2846              		.cfi_endproc
 2847              	.LFE321:
 2848              		.size	mc_interface_get_tot_current, .-mc_interface_get_tot_current
 2849              		.section	.text.mc_interface_get_tot_current_filtered,"ax",%progbits
 2850              		.align	1
ARM GAS  /tmp/cclp9RuQ.s 			page 51


 2851              		.p2align 4,,15
 2852              		.global	mc_interface_get_tot_current_filtered
 2853              		.syntax unified
 2854              		.thumb
 2855              		.thumb_func
 2856              		.fpu fpv4-sp-d16
 2857              		.type	mc_interface_get_tot_current_filtered, %function
 2858              	mc_interface_get_tot_current_filtered:
 2859              	.LFB322:
 2860              		.loc 1 1203 0
 2861              		.cfi_startproc
 2862              		@ args = 0, pretend = 0, frame = 0
 2863              		@ frame_needed = 0, uses_anonymous_args = 0
 2864              		@ link register save eliminated.
 2865              	.LVL132:
 2866              		.loc 1 1206 0
 2867 0000 064B     		ldr	r3, .L336
 2868 0002 9B78     		ldrb	r3, [r3, #2]	@ zero_extendqisi2
 2869 0004 DBB2     		uxtb	r3, r3
 2870 0006 012B     		cmp	r3, #1
 2871 0008 06D9     		bls	.L332
 2872 000a 022B     		cmp	r3, #2
 2873 000c 01D1     		bne	.L335
 2874              		.loc 1 1213 0
 2875 000e FFF7FEBF 		b	mcpwm_foc_get_tot_current_filtered
 2876              	.LVL133:
 2877              	.L335:
 2878              		.loc 1 1221 0
 2879 0012 9FED030A 		vldr.32	s0, .L336+4
 2880 0016 7047     		bx	lr
 2881              	.L332:
 2882              		.loc 1 1209 0
 2883 0018 FFF7FEBF 		b	mcpwm_get_tot_current_filtered
 2884              	.LVL134:
 2885              	.L337:
 2886              		.align	2
 2887              	.L336:
 2888 001c 00000000 		.word	.LANCHOR8
 2889 0020 00000000 		.word	0
 2890              		.cfi_endproc
 2891              	.LFE322:
 2892              		.size	mc_interface_get_tot_current_filtered, .-mc_interface_get_tot_current_filtered
 2893              		.section	.text.mc_interface_get_tot_current_directional,"ax",%progbits
 2894              		.align	1
 2895              		.p2align 4,,15
 2896              		.global	mc_interface_get_tot_current_directional
 2897              		.syntax unified
 2898              		.thumb
 2899              		.thumb_func
 2900              		.fpu fpv4-sp-d16
 2901              		.type	mc_interface_get_tot_current_directional, %function
 2902              	mc_interface_get_tot_current_directional:
 2903              	.LFB323:
 2904              		.loc 1 1223 0
 2905              		.cfi_startproc
 2906              		@ args = 0, pretend = 0, frame = 0
 2907              		@ frame_needed = 0, uses_anonymous_args = 0
ARM GAS  /tmp/cclp9RuQ.s 			page 52


 2908              	.LVL135:
 2909 0000 10B5     		push	{r4, lr}
 2910              		.cfi_def_cfa_offset 8
 2911              		.cfi_offset 4, -8
 2912              		.cfi_offset 14, -4
 2913              		.loc 1 1226 0
 2914 0002 0B4C     		ldr	r4, .L350
 2915 0004 A378     		ldrb	r3, [r4, #2]	@ zero_extendqisi2
 2916 0006 DBB2     		uxtb	r3, r3
 2917 0008 012B     		cmp	r3, #1
 2918 000a 0DD9     		bls	.L340
 2919 000c 022B     		cmp	r3, #2
 2920 000e 08D0     		beq	.L341
 2921              		.loc 1 1224 0
 2922 0010 9FED080A 		vldr.32	s0, .L350+4
 2923              	.LVL136:
 2924              	.L339:
 2925              		.loc 1 1240 0
 2926 0014 94F89931 		ldrb	r3, [r4, #409]	@ zero_extendqisi2
 2927 0018 03B9     		cbnz	r3, .L349
 2928              		.loc 1 1241 0
 2929 001a 10BD     		pop	{r4, pc}
 2930              	.L349:
 2931 001c B1EE400A 		vneg.f32	s0, s0
 2932              	.LVL137:
 2933 0020 10BD     		pop	{r4, pc}
 2934              	.LVL138:
 2935              	.L341:
 2936              		.loc 1 1233 0
 2937 0022 FFF7FEFF 		bl	mcpwm_foc_get_tot_current_directional
 2938              	.LVL139:
 2939              		.loc 1 1234 0
 2940 0026 F5E7     		b	.L339
 2941              	.LVL140:
 2942              	.L340:
 2943              		.loc 1 1229 0
 2944 0028 FFF7FEFF 		bl	mcpwm_get_tot_current_directional
 2945              	.LVL141:
 2946              		.loc 1 1230 0
 2947 002c F2E7     		b	.L339
 2948              	.L351:
 2949 002e 00BF     		.align	2
 2950              	.L350:
 2951 0030 00000000 		.word	.LANCHOR8
 2952 0034 00000000 		.word	0
 2953              		.cfi_endproc
 2954              	.LFE323:
 2955              		.size	mc_interface_get_tot_current_directional, .-mc_interface_get_tot_current_directional
 2956              		.section	.text.mc_interface_get_tot_current_directional_filtered,"ax",%progbits
 2957              		.align	1
 2958              		.p2align 4,,15
 2959              		.global	mc_interface_get_tot_current_directional_filtered
 2960              		.syntax unified
 2961              		.thumb
 2962              		.thumb_func
 2963              		.fpu fpv4-sp-d16
 2964              		.type	mc_interface_get_tot_current_directional_filtered, %function
ARM GAS  /tmp/cclp9RuQ.s 			page 53


 2965              	mc_interface_get_tot_current_directional_filtered:
 2966              	.LFB324:
 2967              		.loc 1 1243 0
 2968              		.cfi_startproc
 2969              		@ args = 0, pretend = 0, frame = 0
 2970              		@ frame_needed = 0, uses_anonymous_args = 0
 2971              	.LVL142:
 2972 0000 10B5     		push	{r4, lr}
 2973              		.cfi_def_cfa_offset 8
 2974              		.cfi_offset 4, -8
 2975              		.cfi_offset 14, -4
 2976              		.loc 1 1246 0
 2977 0002 0B4C     		ldr	r4, .L364
 2978 0004 A378     		ldrb	r3, [r4, #2]	@ zero_extendqisi2
 2979 0006 DBB2     		uxtb	r3, r3
 2980 0008 012B     		cmp	r3, #1
 2981 000a 0DD9     		bls	.L354
 2982 000c 022B     		cmp	r3, #2
 2983 000e 08D0     		beq	.L355
 2984              		.loc 1 1244 0
 2985 0010 9FED080A 		vldr.32	s0, .L364+4
 2986              	.LVL143:
 2987              	.L353:
 2988              		.loc 1 1260 0
 2989 0014 94F89931 		ldrb	r3, [r4, #409]	@ zero_extendqisi2
 2990 0018 03B9     		cbnz	r3, .L363
 2991              		.loc 1 1261 0
 2992 001a 10BD     		pop	{r4, pc}
 2993              	.L363:
 2994 001c B1EE400A 		vneg.f32	s0, s0
 2995              	.LVL144:
 2996 0020 10BD     		pop	{r4, pc}
 2997              	.LVL145:
 2998              	.L355:
 2999              		.loc 1 1253 0
 3000 0022 FFF7FEFF 		bl	mcpwm_foc_get_tot_current_directional_filtered
 3001              	.LVL146:
 3002              		.loc 1 1254 0
 3003 0026 F5E7     		b	.L353
 3004              	.LVL147:
 3005              	.L354:
 3006              		.loc 1 1249 0
 3007 0028 FFF7FEFF 		bl	mcpwm_get_tot_current_directional_filtered
 3008              	.LVL148:
 3009              		.loc 1 1250 0
 3010 002c F2E7     		b	.L353
 3011              	.L365:
 3012 002e 00BF     		.align	2
 3013              	.L364:
 3014 0030 00000000 		.word	.LANCHOR8
 3015 0034 00000000 		.word	0
 3016              		.cfi_endproc
 3017              	.LFE324:
 3018              		.size	mc_interface_get_tot_current_directional_filtered, .-mc_interface_get_tot_current_directiona
 3019              		.section	.text.mc_interface_get_max_proz_now,"ax",%progbits
 3020              		.align	1
 3021              		.p2align 4,,15
ARM GAS  /tmp/cclp9RuQ.s 			page 54


 3022              		.global	mc_interface_get_max_proz_now
 3023              		.syntax unified
 3024              		.thumb
 3025              		.thumb_func
 3026              		.fpu fpv4-sp-d16
 3027              		.type	mc_interface_get_max_proz_now, %function
 3028              	mc_interface_get_max_proz_now:
 3029              	.LFB325:
 3030              		.loc 1 1264 0
 3031              		.cfi_startproc
 3032              		@ args = 0, pretend = 0, frame = 0
 3033              		@ frame_needed = 0, uses_anonymous_args = 0
 3034              		@ link register save eliminated.
 3035              	.LVL149:
 3036              		.loc 1 1266 0
 3037 0000 0A4B     		ldr	r3, .L367
 3038 0002 DFED0B7A 		vldr.32	s15, .L367+4
 3039 0006 D3ED1B5A 		vldr.32	s11, [r3, #108]
 3040 000a 93ED016A 		vldr.32	s12, [r3, #4]
 3041 000e D3ED1D6A 		vldr.32	s13, [r3, #116]
 3042 0012 93ED037A 		vldr.32	s14, [r3, #12]
 3043 0016 85EE860A 		vdiv.f32	s0, s11, s12
 3044 001a C6EE870A 		vdiv.f32	s1, s13, s14
 3045 001e 20EE270A 		vmul.f32	s0, s0, s15
 3046 0022 60EEA70A 		vmul.f32	s1, s1, s15
 3047 0026 FFF7FEBF 		b	utils_min_abs
 3048              	.LVL150:
 3049              	.L368:
 3050 002a 00BF     		.align	2
 3051              	.L367:
 3052 002c 00000000 		.word	.LANCHOR8
 3053 0030 0000C842 		.word	1120403456
 3054              		.cfi_endproc
 3055              	.LFE325:
 3056              		.size	mc_interface_get_max_proz_now, .-mc_interface_get_max_proz_now
 3057              		.section	.text.mc_interface_get_min_proz_now,"ax",%progbits
 3058              		.align	1
 3059              		.p2align 4,,15
 3060              		.global	mc_interface_get_min_proz_now
 3061              		.syntax unified
 3062              		.thumb
 3063              		.thumb_func
 3064              		.fpu fpv4-sp-d16
 3065              		.type	mc_interface_get_min_proz_now, %function
 3066              	mc_interface_get_min_proz_now:
 3067              	.LFB326:
 3068              		.loc 1 1270 0
 3069              		.cfi_startproc
 3070              		@ args = 0, pretend = 0, frame = 0
 3071              		@ frame_needed = 0, uses_anonymous_args = 0
 3072              		@ link register save eliminated.
 3073              	.LVL151:
 3074              		.loc 1 1272 0
 3075 0000 0A4B     		ldr	r3, .L370
 3076 0002 DFED0B7A 		vldr.32	s15, .L370+4
 3077 0006 D3ED1C5A 		vldr.32	s11, [r3, #112]
 3078 000a 93ED026A 		vldr.32	s12, [r3, #8]
ARM GAS  /tmp/cclp9RuQ.s 			page 55


 3079 000e D3ED1E6A 		vldr.32	s13, [r3, #120]
 3080 0012 93ED047A 		vldr.32	s14, [r3, #16]
 3081 0016 85EE860A 		vdiv.f32	s0, s11, s12
 3082 001a C6EE870A 		vdiv.f32	s1, s13, s14
 3083 001e 20EE270A 		vmul.f32	s0, s0, s15
 3084 0022 60EEA70A 		vmul.f32	s1, s1, s15
 3085 0026 FFF7FEBF 		b	utils_min_abs
 3086              	.LVL152:
 3087              	.L371:
 3088 002a 00BF     		.align	2
 3089              	.L370:
 3090 002c 00000000 		.word	.LANCHOR8
 3091 0030 0000C842 		.word	1120403456
 3092              		.cfi_endproc
 3093              	.LFE326:
 3094              		.size	mc_interface_get_min_proz_now, .-mc_interface_get_min_proz_now
 3095              		.section	.text.mc_interface_get_tot_current_in,"ax",%progbits
 3096              		.align	1
 3097              		.p2align 4,,15
 3098              		.global	mc_interface_get_tot_current_in
 3099              		.syntax unified
 3100              		.thumb
 3101              		.thumb_func
 3102              		.fpu fpv4-sp-d16
 3103              		.type	mc_interface_get_tot_current_in, %function
 3104              	mc_interface_get_tot_current_in:
 3105              	.LFB327:
 3106              		.loc 1 1276 0
 3107              		.cfi_startproc
 3108              		@ args = 0, pretend = 0, frame = 0
 3109              		@ frame_needed = 0, uses_anonymous_args = 0
 3110              		@ link register save eliminated.
 3111              	.LVL153:
 3112              		.loc 1 1279 0
 3113 0000 064B     		ldr	r3, .L378
 3114 0002 9B78     		ldrb	r3, [r3, #2]	@ zero_extendqisi2
 3115 0004 DBB2     		uxtb	r3, r3
 3116 0006 012B     		cmp	r3, #1
 3117 0008 06D9     		bls	.L374
 3118 000a 022B     		cmp	r3, #2
 3119 000c 01D1     		bne	.L377
 3120              		.loc 1 1286 0
 3121 000e FFF7FEBF 		b	mcpwm_foc_get_tot_current_in
 3122              	.LVL154:
 3123              	.L377:
 3124              		.loc 1 1294 0
 3125 0012 9FED030A 		vldr.32	s0, .L378+4
 3126 0016 7047     		bx	lr
 3127              	.L374:
 3128              		.loc 1 1282 0
 3129 0018 FFF7FEBF 		b	mcpwm_get_tot_current_in
 3130              	.LVL155:
 3131              	.L379:
 3132              		.align	2
 3133              	.L378:
 3134 001c 00000000 		.word	.LANCHOR8
 3135 0020 00000000 		.word	0
ARM GAS  /tmp/cclp9RuQ.s 			page 56


 3136              		.cfi_endproc
 3137              	.LFE327:
 3138              		.size	mc_interface_get_tot_current_in, .-mc_interface_get_tot_current_in
 3139              		.section	.text.mc_interface_get_tot_current_in_filtered,"ax",%progbits
 3140              		.align	1
 3141              		.p2align 4,,15
 3142              		.global	mc_interface_get_tot_current_in_filtered
 3143              		.syntax unified
 3144              		.thumb
 3145              		.thumb_func
 3146              		.fpu fpv4-sp-d16
 3147              		.type	mc_interface_get_tot_current_in_filtered, %function
 3148              	mc_interface_get_tot_current_in_filtered:
 3149              	.LFB328:
 3150              		.loc 1 1296 0
 3151              		.cfi_startproc
 3152              		@ args = 0, pretend = 0, frame = 0
 3153              		@ frame_needed = 0, uses_anonymous_args = 0
 3154              		@ link register save eliminated.
 3155              	.LVL156:
 3156              		.loc 1 1299 0
 3157 0000 0B4B     		ldr	r3, .L386
 3158 0002 9B78     		ldrb	r3, [r3, #2]	@ zero_extendqisi2
 3159 0004 DBB2     		uxtb	r3, r3
 3160 0006 012B     		cmp	r3, #1
 3161 0008 10D9     		bls	.L382
 3162 000a 022B     		cmp	r3, #2
 3163 000c 02D0     		beq	.L383
 3164              		.loc 1 1297 0
 3165 000e 9FED090A 		vldr.32	s0, .L386+4
 3166              	.L380:
 3167              		.loc 1 1317 0
 3168 0012 7047     		bx	lr
 3169              	.L383:
 3170              	.LBB290:
 3171              	.LBB291:
 3172              	.LBB292:
 3173              	.LBB293:
 3174              		.loc 1 679 0
 3175 0014 084B     		ldr	r3, .L386+8
 3176              	.LBE293:
 3177              	.LBE292:
 3178              		.loc 1 1307 0
 3179 0016 DFED097A 		vldr.32	s15, .L386+12
 3180              	.LBB295:
 3181              	.LBB294:
 3182              		.loc 1 679 0
 3183 001a 93ED000A 		vldr.32	s0, [r3]
 3184              	.LBE294:
 3185              	.LBE295:
 3186              		.loc 1 1307 0
 3187 001e B4EE670A 		vcmp.f32	s0, s15
 3188 0022 F1EE10FA 		vmrs	APSR_nzcv, FPSCR
 3189 0026 F4D1     		bne	.L380
 3190              		.loc 1 1308 0
 3191 0028 FFF7FEBF 		b	mcpwm_foc_get_tot_current_in_filtered
 3192              	.LVL157:
ARM GAS  /tmp/cclp9RuQ.s 			page 57


 3193              	.L382:
 3194              	.LBE291:
 3195              	.LBE290:
 3196              		.loc 1 1302 0
 3197 002c FFF7FEBF 		b	mcpwm_get_tot_current_in_filtered
 3198              	.LVL158:
 3199              	.L387:
 3200              		.align	2
 3201              	.L386:
 3202 0030 00000000 		.word	.LANCHOR8
 3203 0034 00000000 		.word	0
 3204 0038 00000000 		.word	.LANCHOR46
 3205 003c 9A3F1C46 		.word	1176256410
 3206              		.cfi_endproc
 3207              	.LFE328:
 3208              		.size	mc_interface_get_tot_current_in_filtered, .-mc_interface_get_tot_current_in_filtered
 3209              		.section	.text.mc_interface_get_abs_motor_current_unbalance,"ax",%progbits
 3210              		.align	1
 3211              		.p2align 4,,15
 3212              		.global	mc_interface_get_abs_motor_current_unbalance
 3213              		.syntax unified
 3214              		.thumb
 3215              		.thumb_func
 3216              		.fpu fpv4-sp-d16
 3217              		.type	mc_interface_get_abs_motor_current_unbalance, %function
 3218              	mc_interface_get_abs_motor_current_unbalance:
 3219              	.LFB329:
 3220              		.loc 1 1319 0
 3221              		.cfi_startproc
 3222              		@ args = 0, pretend = 0, frame = 0
 3223              		@ frame_needed = 0, uses_anonymous_args = 0
 3224              		@ link register save eliminated.
 3225              	.LVL159:
 3226              		.loc 1 1323 0
 3227 0000 044B     		ldr	r3, .L392
 3228 0002 9B78     		ldrb	r3, [r3, #2]	@ zero_extendqisi2
 3229 0004 022B     		cmp	r3, #2
 3230 0006 01D1     		bne	.L391
 3231              		.loc 1 1329 0
 3232 0008 FFF7FEBF 		b	mcpwm_foc_get_abs_motor_current_unbalance
 3233              	.LVL160:
 3234              	.L391:
 3235              		.loc 1 1337 0
 3236 000c 9FED020A 		vldr.32	s0, .L392+4
 3237 0010 7047     		bx	lr
 3238              	.L393:
 3239 0012 00BF     		.align	2
 3240              	.L392:
 3241 0014 00000000 		.word	.LANCHOR8
 3242 0018 00000000 		.word	0
 3243              		.cfi_endproc
 3244              	.LFE329:
 3245              		.size	mc_interface_get_abs_motor_current_unbalance, .-mc_interface_get_abs_motor_current_unbalance
 3246              		.section	.text.mc_interface_set_tachometer_value,"ax",%progbits
 3247              		.align	1
 3248              		.p2align 4,,15
 3249              		.global	mc_interface_set_tachometer_value
ARM GAS  /tmp/cclp9RuQ.s 			page 58


 3250              		.syntax unified
 3251              		.thumb
 3252              		.thumb_func
 3253              		.fpu fpv4-sp-d16
 3254              		.type	mc_interface_set_tachometer_value, %function
 3255              	mc_interface_set_tachometer_value:
 3256              	.LFB330:
 3257              		.loc 1 1340 0
 3258              		.cfi_startproc
 3259              		@ args = 0, pretend = 0, frame = 8
 3260              		@ frame_needed = 0, uses_anonymous_args = 0
 3261              	.LVL161:
 3262 0000 10B5     		push	{r4, lr}
 3263              		.cfi_def_cfa_offset 8
 3264              		.cfi_offset 4, -8
 3265              		.cfi_offset 14, -4
 3266              		.loc 1 1342 0
 3267 0002 264C     		ldr	r4, .L409
 3268 0004 A378     		ldrb	r3, [r4, #2]	@ zero_extendqisi2
 3269              		.loc 1 1340 0
 3270 0006 82B0     		sub	sp, sp, #8
 3271              		.cfi_def_cfa_offset 16
 3272              		.loc 1 1342 0
 3273 0008 DBB2     		uxtb	r3, r3
 3274 000a 012B     		cmp	r3, #1
 3275              		.loc 1 1340 0
 3276 000c 0190     		str	r0, [sp, #4]
 3277              		.loc 1 1342 0
 3278 000e 29D9     		bls	.L396
 3279 0010 022B     		cmp	r3, #2
 3280 0012 0CD0     		beq	.L397
 3281 0014 DFED227A 		vldr.32	s15, .L409+4
 3282              	.LVL162:
 3283              	.L395:
 3284              		.loc 1 1357 0
 3285 0018 94F89931 		ldrb	r3, [r4, #409]	@ zero_extendqisi2
 3286 001c 0BB1     		cbz	r3, .L400
 3287 001e F1EE677A 		vneg.f32	s15, s15
 3288              	.L400:
 3289              		.loc 1 1358 0 discriminator 4
 3290 0022 FDEEE77A 		vcvt.s32.f32	s15, s15
 3291 0026 17EE900A 		vmov	r0, s15	@ int
 3292 002a 02B0     		add	sp, sp, #8
 3293              		.cfi_remember_state
 3294              		.cfi_def_cfa_offset 8
 3295              		@ sp needed
 3296 002c 10BD     		pop	{r4, pc}
 3297              	.LVL163:
 3298              	.L397:
 3299              		.cfi_restore_state
 3300              		.loc 1 1350 0
 3301 002e 94F89931 		ldrb	r3, [r4, #409]	@ zero_extendqisi2
 3302 0032 DDED017A 		vldr.32	s15, [sp, #4]	@ int
 3303 0036 002B     		cmp	r3, #0
 3304 0038 FFEE006A 		vmov.f32	s13, #-1.0e+0
 3305 003c B7EE007A 		vmov.f32	s14, #1.0e+0
 3306 0040 F8EEE77A 		vcvt.f32.s32	s15, s15
ARM GAS  /tmp/cclp9RuQ.s 			page 59


 3307 0044 18BF     		it	ne
 3308 0046 B0EE667A 		vmovne.f32	s14, s13
 3309 004a 67EE877A 		vmul.f32	s15, s15, s14
 3310 004e FDEEE77A 		vcvt.s32.f32	s15, s15
 3311 0052 17EE900A 		vmov	r0, s15	@ int
 3312              	.LVL164:
 3313 0056 FFF7FEFF 		bl	mcpwm_foc_set_tachometer_value
 3314              	.LVL165:
 3315 005a 07EE900A 		vmov	s15, r0	@ int
 3316 005e F8EEE77A 		vcvt.f32.s32	s15, s15
 3317              		.loc 1 1351 0
 3318 0062 D9E7     		b	.L395
 3319              	.LVL166:
 3320              	.L396:
 3321              		.loc 1 1346 0
 3322 0064 94F89931 		ldrb	r3, [r4, #409]	@ zero_extendqisi2
 3323 0068 DDED017A 		vldr.32	s15, [sp, #4]	@ int
 3324 006c 002B     		cmp	r3, #0
 3325 006e FFEE006A 		vmov.f32	s13, #-1.0e+0
 3326 0072 B7EE007A 		vmov.f32	s14, #1.0e+0
 3327 0076 F8EEE77A 		vcvt.f32.s32	s15, s15
 3328 007a 18BF     		it	ne
 3329 007c B0EE667A 		vmovne.f32	s14, s13
 3330 0080 67EE877A 		vmul.f32	s15, s15, s14
 3331 0084 FDEEE77A 		vcvt.s32.f32	s15, s15
 3332 0088 17EE900A 		vmov	r0, s15	@ int
 3333              	.LVL167:
 3334 008c FFF7FEFF 		bl	mcpwm_set_tachometer_value
 3335              	.LVL168:
 3336 0090 07EE900A 		vmov	s15, r0	@ int
 3337 0094 F8EEE77A 		vcvt.f32.s32	s15, s15
 3338              		.loc 1 1347 0
 3339 0098 BEE7     		b	.L395
 3340              	.L410:
 3341 009a 00BF     		.align	2
 3342              	.L409:
 3343 009c 00000000 		.word	.LANCHOR8
 3344 00a0 00000000 		.word	0
 3345              		.cfi_endproc
 3346              	.LFE330:
 3347              		.size	mc_interface_set_tachometer_value, .-mc_interface_set_tachometer_value
 3348              		.section	.text.mc_interface_get_tachometer_value,"ax",%progbits
 3349              		.align	1
 3350              		.p2align 4,,15
 3351              		.global	mc_interface_get_tachometer_value
 3352              		.syntax unified
 3353              		.thumb
 3354              		.thumb_func
 3355              		.fpu fpv4-sp-d16
 3356              		.type	mc_interface_get_tachometer_value, %function
 3357              	mc_interface_get_tachometer_value:
 3358              	.LFB331:
 3359              		.loc 1 1360 0
 3360              		.cfi_startproc
 3361              		@ args = 0, pretend = 0, frame = 0
 3362              		@ frame_needed = 0, uses_anonymous_args = 0
 3363              	.LVL169:
ARM GAS  /tmp/cclp9RuQ.s 			page 60


 3364 0000 10B5     		push	{r4, lr}
 3365              		.cfi_def_cfa_offset 8
 3366              		.cfi_offset 4, -8
 3367              		.cfi_offset 14, -4
 3368              		.loc 1 1363 0
 3369 0002 104C     		ldr	r4, .L422
 3370 0004 A378     		ldrb	r3, [r4, #2]	@ zero_extendqisi2
 3371 0006 DBB2     		uxtb	r3, r3
 3372 0008 012B     		cmp	r3, #1
 3373 000a 14D9     		bls	.L413
 3374 000c 022B     		cmp	r3, #2
 3375 000e 0BD0     		beq	.L414
 3376 0010 DFED0D7A 		vldr.32	s15, .L422+4
 3377              	.LVL170:
 3378              	.L412:
 3379              		.loc 1 1377 0
 3380 0014 94F89931 		ldrb	r3, [r4, #409]	@ zero_extendqisi2
 3381 0018 0BB1     		cbz	r3, .L415
 3382 001a F1EE677A 		vneg.f32	s15, s15
 3383              	.L415:
 3384              		.loc 1 1378 0 discriminator 4
 3385 001e FDEEE77A 		vcvt.s32.f32	s15, s15
 3386 0022 17EE900A 		vmov	r0, s15	@ int
 3387 0026 10BD     		pop	{r4, pc}
 3388              	.LVL171:
 3389              	.L414:
 3390              		.loc 1 1370 0
 3391 0028 FFF7FEFF 		bl	mcpwm_foc_get_tachometer_value
 3392              	.LVL172:
 3393 002c 07EE900A 		vmov	s15, r0	@ int
 3394 0030 F8EEE77A 		vcvt.f32.s32	s15, s15
 3395              		.loc 1 1371 0
 3396 0034 EEE7     		b	.L412
 3397              	.LVL173:
 3398              	.L413:
 3399              		.loc 1 1366 0
 3400 0036 FFF7FEFF 		bl	mcpwm_get_tachometer_value
 3401              	.LVL174:
 3402 003a 07EE900A 		vmov	s15, r0	@ int
 3403 003e F8EEE77A 		vcvt.f32.s32	s15, s15
 3404              		.loc 1 1367 0
 3405 0042 E7E7     		b	.L412
 3406              	.L423:
 3407              		.align	2
 3408              	.L422:
 3409 0044 00000000 		.word	.LANCHOR8
 3410 0048 00000000 		.word	0
 3411              		.cfi_endproc
 3412              	.LFE331:
 3413              		.size	mc_interface_get_tachometer_value, .-mc_interface_get_tachometer_value
 3414              		.section	.text.mc_interface_fault_stop.part.5,"ax",%progbits
 3415              		.align	1
 3416              		.p2align 4,,15
 3417              		.syntax unified
 3418              		.thumb
 3419              		.thumb_func
 3420              		.fpu fpv4-sp-d16
ARM GAS  /tmp/cclp9RuQ.s 			page 61


 3421              		.type	mc_interface_fault_stop.part.5, %function
 3422              	mc_interface_fault_stop.part.5:
 3423              	.LFB369:
 3424              		.loc 1 1845 0
 3425              		.cfi_startproc
 3426              		@ args = 0, pretend = 0, frame = 96
 3427              		@ frame_needed = 0, uses_anonymous_args = 0
 3428              	.LVL175:
 3429 0000 F0B5     		push	{r4, r5, r6, r7, lr}
 3430              		.cfi_def_cfa_offset 20
 3431              		.cfi_offset 4, -20
 3432              		.cfi_offset 5, -16
 3433              		.cfi_offset 6, -12
 3434              		.cfi_offset 7, -8
 3435              		.cfi_offset 14, -4
 3436 0002 99B0     		sub	sp, sp, #100
 3437              		.cfi_def_cfa_offset 120
 3438              		.loc 1 1845 0
 3439 0004 0546     		mov	r5, r0
 3440              		.loc 1 1851 0
 3441 0006 FFF7FEFF 		bl	mc_interface_dccal_done
 3442              	.LVL176:
 3443 000a 524C     		ldr	r4, .L438
 3444 000c 08B1     		cbz	r0, .L425
 3445 000e 2678     		ldrb	r6, [r4]	@ zero_extendqisi2
 3446 0010 CEB1     		cbz	r6, .L436
 3447              	.L425:
 3448              		.loc 1 1901 0
 3449 0012 514B     		ldr	r3, .L438+4
 3450 0014 514A     		ldr	r2, .L438+8
 3451 0016 D3F88811 		ldr	r1, [r3, #392]
 3452              		.loc 1 1905 0
 3453 001a 9B78     		ldrb	r3, [r3, #2]	@ zero_extendqisi2
 3454              		.loc 1 1903 0
 3455 001c 2570     		strb	r5, [r4]
 3456              		.loc 1 1901 0
 3457 001e 1160     		str	r1, [r2]
 3458              		.loc 1 1905 0
 3459 0020 032B     		cmp	r3, #3
 3460 0022 06D8     		bhi	.L424
 3461 0024 DFE803F0 		tbb	[pc, r3]
 3462              	.L429:
 3463 0028 0B       		.byte	(.L428-.L429)/2
 3464 0029 0B       		.byte	(.L428-.L429)/2
 3465 002a 07       		.byte	(.L430-.L429)/2
 3466 002b 02       		.byte	(.L431-.L429)/2
 3467              		.p2align 1
 3468              	.L431:
 3469              		.loc 1 1916 0
 3470 002c 0020     		movs	r0, #0
 3471 002e FFF7FEFF 		bl	gpdrive_set_mode
 3472              	.LVL177:
 3473              	.L424:
 3474              		.loc 1 1924 0
 3475 0032 19B0     		add	sp, sp, #100
 3476              		.cfi_remember_state
 3477              		.cfi_def_cfa_offset 20
ARM GAS  /tmp/cclp9RuQ.s 			page 62


 3478              		@ sp needed
 3479 0034 F0BD     		pop	{r4, r5, r6, r7, pc}
 3480              	.L430:
 3481              		.cfi_restore_state
 3482              		.loc 1 1912 0
 3483 0036 FFF7FEFF 		bl	mcpwm_foc_stop_pwm
 3484              	.LVL178:
 3485              		.loc 1 1924 0
 3486 003a 19B0     		add	sp, sp, #100
 3487              		.cfi_remember_state
 3488              		.cfi_def_cfa_offset 20
 3489              		@ sp needed
 3490 003c F0BD     		pop	{r4, r5, r6, r7, pc}
 3491              	.L428:
 3492              		.cfi_restore_state
 3493              		.loc 1 1908 0
 3494 003e FFF7FEFF 		bl	mcpwm_stop_pwm
 3495              	.LVL179:
 3496              		.loc 1 1924 0
 3497 0042 19B0     		add	sp, sp, #100
 3498              		.cfi_remember_state
 3499              		.cfi_def_cfa_offset 20
 3500              		@ sp needed
 3501 0044 F0BD     		pop	{r4, r5, r6, r7, pc}
 3502              	.L436:
 3503              		.cfi_restore_state
 3504              	.LBB296:
 3505              		.loc 1 1854 0
 3506 0046 FFF7FEFF 		bl	utils_sys_lock_cnt
 3507              	.LVL180:
 3508              		.loc 1 1855 0
 3509 004a 454A     		ldr	r2, .L438+12
 3510              		.loc 1 1856 0
 3511 004c 454B     		ldr	r3, .L438+16
 3512              		.loc 1 1855 0
 3513 004e 526B     		ldr	r2, [r2, #52]
 3514 0050 0192     		str	r2, [sp, #4]
 3515              		.loc 1 1856 0
 3516 0052 1A6C     		ldr	r2, [r3, #64]
 3517 0054 0292     		str	r2, [sp, #8]
 3518              		.loc 1 1857 0
 3519 0056 DB6A     		ldr	r3, [r3, #44]
 3520 0058 0393     		str	r3, [sp, #12]
 3521              		.loc 1 1858 0
 3522 005a FFF7FEFF 		bl	utils_sys_unlock_cnt
 3523              	.LVL181:
 3524              		.loc 1 1861 0
 3525 005e 8DF81050 		strb	r5, [sp, #16]
 3526              		.loc 1 1862 0
 3527 0062 FFF7FEFF 		bl	mc_interface_get_tot_current
 3528              	.LVL182:
 3529              		.loc 1 1864 0
 3530 0066 404F     		ldr	r7, .L438+20
 3531              		.loc 1 1862 0
 3532 0068 8DED050A 		vstr.32	s0, [sp, #20]
 3533              		.loc 1 1863 0
 3534 006c FFF7FEFF 		bl	mc_interface_get_tot_current_filtered
ARM GAS  /tmp/cclp9RuQ.s 			page 63


 3535              	.LVL183:
 3536              	.LBB297:
 3537              	.LBB298:
 3538              		.loc 1 662 0
 3539 0070 3E4A     		ldr	r2, .L438+24
 3540              	.LBE298:
 3541              	.LBE297:
 3542              		.loc 1 1864 0
 3543 0072 FB8A     		ldrh	r3, [r7, #22]
 3544              	.LBB300:
 3545              	.LBB299:
 3546              		.loc 1 662 0
 3547 0074 1268     		ldr	r2, [r2]	@ float
 3548              	.LBE299:
 3549              	.LBE300:
 3550              		.loc 1 1865 0
 3551 0076 0892     		str	r2, [sp, #32]	@ float
 3552              		.loc 1 1864 0
 3553 0078 07EE903A 		vmov	s15, r3	@ int
 3554              	.LBB301:
 3555              	.LBB302:
 3556              		.loc 1 643 0
 3557 007c 3C49     		ldr	r1, .L438+28
 3558              	.LBE302:
 3559              	.LBE301:
 3560              	.LBB307:
 3561              	.LBB308:
 3562              		.loc 1 671 0
 3563 007e 3D4B     		ldr	r3, .L438+32
 3564              	.LBE308:
 3565              	.LBE307:
 3566              	.LBB310:
 3567              	.LBB311:
 3568              		.loc 1 654 0
 3569 0080 3D4A     		ldr	r2, .L438+36
 3570              	.LBE311:
 3571              	.LBE310:
 3572              	.LBB316:
 3573              	.LBB309:
 3574              		.loc 1 671 0
 3575 0082 1B68     		ldr	r3, [r3]	@ float
 3576              	.LBE309:
 3577              	.LBE316:
 3578              		.loc 1 1864 0
 3579 0084 DFED3D5A 		vldr.32	s11, .L438+40
 3580              	.LBB317:
 3581              	.LBB303:
 3582              		.loc 1 643 0
 3583 0088 0988     		ldrh	r1, [r1]
 3584              	.LBE303:
 3585              	.LBE317:
 3586              	.LBB318:
 3587              	.LBB312:
 3588              		.loc 1 654 0
 3589 008a 1288     		ldrh	r2, [r2]
 3590              	.LBE312:
 3591              	.LBE318:
ARM GAS  /tmp/cclp9RuQ.s 			page 64


 3592              		.loc 1 1864 0
 3593 008c 9FED3C6A 		vldr.32	s12, .L438+44
 3594              		.loc 1 1866 0
 3595 0090 0993     		str	r3, [sp, #36]	@ float
 3596              		.loc 1 1864 0
 3597 0092 F8EE677A 		vcvt.f32.u32	s15, s15
 3598              	.LBB319:
 3599              	.LBB304:
 3600              		.loc 1 643 0
 3601 0096 06EE901A 		vmov	s13, r1	@ int
 3602              	.LBE304:
 3603              	.LBE319:
 3604              		.loc 1 1864 0
 3605 009a 67EEA57A 		vmul.f32	s15, s15, s11
 3606              	.LBB320:
 3607              	.LBB313:
 3608              		.loc 1 654 0
 3609 009e 07EE102A 		vmov	s14, r2	@ int
 3610              	.LBE313:
 3611              	.LBE320:
 3612              		.loc 1 1870 0
 3613 00a2 384B     		ldr	r3, .L438+48
 3614              	.LBB321:
 3615              	.LBB322:
 3616              		.loc 1 741 0
 3617 00a4 384A     		ldr	r2, .L438+52
 3618              	.LBE322:
 3619              	.LBE321:
 3620              		.loc 1 1863 0
 3621 00a6 8DED060A 		vstr.32	s0, [sp, #24]
 3622              		.loc 1 1864 0
 3623 00aa 67EE867A 		vmul.f32	s15, s15, s12
 3624              	.LBB324:
 3625              	.LBB305:
 3626              		.loc 1 643 0
 3627 00ae F8EE666A 		vcvt.f32.u32	s13, s13
 3628              	.LBE305:
 3629              	.LBE324:
 3630              	.LBB325:
 3631              	.LBB314:
 3632              		.loc 1 654 0
 3633 00b2 B8EE477A 		vcvt.f32.u32	s14, s14
 3634              	.LBE314:
 3635              	.LBE325:
 3636              	.LBB326:
 3637              	.LBB323:
 3638              		.loc 1 741 0
 3639 00b6 1288     		ldrh	r2, [r2]
 3640              	.LBE323:
 3641              	.LBE326:
 3642              		.loc 1 1870 0
 3643 00b8 1B68     		ldr	r3, [r3]	@ float
 3644              		.loc 1 1864 0
 3645 00ba CDED077A 		vstr.32	s15, [sp, #28]
 3646              	.LBB327:
 3647              	.LBB306:
 3648              		.loc 1 643 0
ARM GAS  /tmp/cclp9RuQ.s 			page 65


 3649 00be CDED0A6A 		vstr.32	s13, [sp, #40]
 3650              	.LBE306:
 3651              	.LBE327:
 3652              	.LBB328:
 3653              	.LBB315:
 3654              		.loc 1 654 0
 3655 00c2 8DED0B7A 		vstr.32	s14, [sp, #44]
 3656              	.LBE315:
 3657              	.LBE328:
 3658              		.loc 1 1869 0
 3659 00c6 0C92     		str	r2, [sp, #48]
 3660              		.loc 1 1870 0
 3661 00c8 0D93     		str	r3, [sp, #52]	@ float
 3662              		.loc 1 1871 0
 3663 00ca FFF7FEFF 		bl	mc_interface_get_duty_cycle_now
 3664              	.LVL184:
 3665 00ce 8DED0E0A 		vstr.32	s0, [sp, #56]
 3666              		.loc 1 1872 0
 3667 00d2 FFF7FEFF 		bl	mc_interface_get_rpm
 3668              	.LVL185:
 3669              		.loc 1 1873 0
 3670 00d6 3046     		mov	r0, r6
 3671              		.loc 1 1872 0
 3672 00d8 8DED0F0A 		vstr.32	s0, [sp, #60]
 3673              		.loc 1 1873 0
 3674 00dc FFF7FEFF 		bl	mc_interface_get_tachometer_value
 3675              	.LVL186:
 3676              		.loc 1 1874 0
 3677 00e0 2A4B     		ldr	r3, .L438+56
 3678              		.loc 1 1873 0
 3679 00e2 1090     		str	r0, [sp, #64]
 3680              		.loc 1 1874 0
 3681 00e4 1868     		ldr	r0, [r3]
 3682              		.loc 1 1875 0
 3683 00e6 0199     		ldr	r1, [sp, #4]
 3684              		.loc 1 1876 0
 3685 00e8 029A     		ldr	r2, [sp, #8]
 3686              		.loc 1 1877 0
 3687 00ea 039B     		ldr	r3, [sp, #12]
 3688              		.loc 1 1875 0
 3689 00ec CDE91101 		strd	r0, r1, [sp, #68]
 3690              		.loc 1 1877 0
 3691 00f0 CDE91323 		strd	r2, r3, [sp, #76]
 3692              		.loc 1 1878 0
 3693 00f4 FFF7FEFF 		bl	mcpwm_get_comm_step
 3694              	.LVL187:
 3695              		.loc 1 1879 0
 3696 00f8 3B8A     		ldrh	r3, [r7, #16]
 3697 00fa DFED256A 		vldr.32	s13, .L438+60
 3698 00fe 9FED250A 		vldr.32	s0, .L438+64
 3699              		.loc 1 1878 0
 3700 0102 1590     		str	r0, [sp, #84]
 3701              		.loc 1 1879 0
 3702 0104 07EE103A 		vmov	s14, r3	@ int
 3703 0108 B8EEC77A 		vcvt.f32.s32	s14, s14
 3704 010c C6EE877A 		vdiv.f32	s15, s13, s14
 3705 0110 77EEC07A 		vsub.f32	s15, s15, s0
ARM GAS  /tmp/cclp9RuQ.s 			page 66


 3706 0114 87EE800A 		vdiv.f32	s0, s15, s0
 3707 0118 FFF7FEFF 		bl	logf
 3708              	.LVL188:
 3709              		.loc 1 1893 0
 3710 011c 032D     		cmp	r5, #3
 3711              		.loc 1 1879 0
 3712 011e DFED1E6A 		vldr.32	s13, .L438+68
 3713 0122 DFED1E7A 		vldr.32	s15, .L438+72
 3714 0126 9FED1E7A 		vldr.32	s14, .L438+76
 3715 012a 80EE260A 		vdiv.f32	s0, s0, s13
 3716 012e F7EE006A 		vmov.f32	s13, #1.0e+0
 3717 0132 30EE270A 		vadd.f32	s0, s0, s15
 3718 0136 C6EE807A 		vdiv.f32	s15, s13, s0
 3719 013a 77EEC77A 		vsub.f32	s15, s15, s14
 3720 013e CDED167A 		vstr.32	s15, [sp, #88]
 3721              		.loc 1 1893 0
 3722 0142 03D0     		beq	.L437
 3723              	.L426:
 3724              		.loc 1 1898 0
 3725 0144 04A8     		add	r0, sp, #16
 3726 0146 FFF7FEFF 		bl	terminal_add_fault_data
 3727              	.LVL189:
 3728 014a 62E7     		b	.L425
 3729              	.L437:
 3730              		.loc 1 1895 0
 3731 014c FFF7FEFF 		bl	drv8350_read_faults
 3732              	.LVL190:
 3733 0150 1790     		str	r0, [sp, #92]
 3734 0152 F7E7     		b	.L426
 3735              	.L439:
 3736              		.align	2
 3737              	.L438:
 3738 0154 00000000 		.word	.LANCHOR9
 3739 0158 00000000 		.word	.LANCHOR8
 3740 015c 00000000 		.word	.LANCHOR11
 3741 0160 00040140 		.word	1073808384
 3742 0164 00000140 		.word	1073807360
 3743 0168 00000000 		.word	.LANCHOR61
 3744 016c 00000000 		.word	.LANCHOR48
 3745 0170 00000000 		.word	.LANCHOR45
 3746 0174 00000000 		.word	.LANCHOR47
 3747 0178 00000000 		.word	.LANCHOR44
 3748 017c C07B523A 		.word	978484160
 3749 0180 BAE8B241 		.word	1102244026
 3750 0184 00000000 		.word	.LANCHOR35
 3751 0188 00000000 		.word	.LANCHOR51
 3752 018c 00000000 		.word	.LANCHOR12
 3753 0190 3C361C4C 		.word	1276917308
 3754 0194 00401C46 		.word	1176256512
 3755 0198 00405345 		.word	1163083776
 3756 019c 0FCF5B3B 		.word	995872527
 3757 01a0 33938843 		.word	1133024051
 3758              	.LBE296:
 3759              		.cfi_endproc
 3760              	.LFE369:
 3761              		.size	mc_interface_fault_stop.part.5, .-mc_interface_fault_stop.part.5
 3762              		.section	.text.update_override_limits.constprop.6,"ax",%progbits
ARM GAS  /tmp/cclp9RuQ.s 			page 67


 3763              		.align	1
 3764              		.p2align 4,,15
 3765              		.syntax unified
 3766              		.thumb
 3767              		.thumb_func
 3768              		.fpu fpv4-sp-d16
 3769              		.type	update_override_limits.constprop.6, %function
 3770              	update_override_limits.constprop.6:
 3771              	.LFB370:
 3772              		.loc 1 2289 0
 3773              		.cfi_startproc
 3774              		@ args = 0, pretend = 0, frame = 16
 3775              		@ frame_needed = 0, uses_anonymous_args = 0
 3776              	.LVL191:
 3777 0000 2DE9F047 		push	{r4, r5, r6, r7, r8, r9, r10, lr}
 3778              		.cfi_def_cfa_offset 32
 3779              		.cfi_offset 4, -32
 3780              		.cfi_offset 5, -28
 3781              		.cfi_offset 6, -24
 3782              		.cfi_offset 7, -20
 3783              		.cfi_offset 8, -16
 3784              		.cfi_offset 9, -12
 3785              		.cfi_offset 10, -8
 3786              		.cfi_offset 14, -4
 3787              		.loc 1 2290 0
 3788 0004 B54F     		ldr	r7, .L626
 3789 0006 DFEDB64A 		vldr.32	s9, .L626+4
 3790 000a FB8A     		ldrh	r3, [r7, #22]
 3791 000c 9FEDB55A 		vldr.32	s10, .L626+8
 3792              		.loc 1 2304 0
 3793 0010 B54D     		ldr	r5, .L626+12
 3794              		.loc 1 2292 0
 3795 0012 B64E     		ldr	r6, .L626+16
 3796              		.loc 1 2304 0
 3797 0014 D5ED006A 		vldr.32	s13, [r5]
 3798              		.loc 1 2292 0
 3799 0018 96ED007A 		vldr.32	s14, [r6]
 3800              		.loc 1 2304 0
 3801 001c DFEDB45A 		vldr.32	s11, .L626+20
 3802 0020 B449     		ldr	r1, .L626+24
 3803              		.loc 1 2290 0
 3804 0022 07EE903A 		vmov	s15, r3	@ int
 3805 0026 F8EE677A 		vcvt.f32.u32	s15, s15
 3806              		.loc 1 2292 0
 3807 002a B6EE006A 		vmov.f32	s12, #5.0e-1
 3808              		.loc 1 2290 0
 3809 002e 67EEA47A 		vmul.f32	s15, s15, s9
 3810              		.loc 1 2292 0
 3811 0032 27EE067A 		vmul.f32	s14, s14, s12
 3812              		.loc 1 2290 0
 3813 0036 67EE857A 		vmul.f32	s15, s15, s10
 3814              	.LVL192:
 3815              		.loc 1 2289 0
 3816 003a 2DED0E8B 		vpush.64	{d8, d9, d10, d11, d12, d13, d14}
 3817              		.cfi_def_cfa_offset 88
 3818              		.cfi_offset 80, -88
 3819              		.cfi_offset 81, -84
ARM GAS  /tmp/cclp9RuQ.s 			page 68


 3820              		.cfi_offset 82, -80
 3821              		.cfi_offset 83, -76
 3822              		.cfi_offset 84, -72
 3823              		.cfi_offset 85, -68
 3824              		.cfi_offset 86, -64
 3825              		.cfi_offset 87, -60
 3826              		.cfi_offset 88, -56
 3827              		.cfi_offset 89, -52
 3828              		.cfi_offset 90, -48
 3829              		.cfi_offset 91, -44
 3830              		.cfi_offset 92, -40
 3831              		.cfi_offset 93, -36
 3832              		.loc 1 2304 0
 3833 003e 36EEE75A 		vsub.f32	s10, s13, s15
 3834              		.loc 1 2292 0
 3835 0042 A7EE867A 		vfma.f32	s14, s15, s12
 3836              		.loc 1 2289 0
 3837 0046 84B0     		sub	sp, sp, #16
 3838              		.cfi_def_cfa_offset 104
 3839              	.LBB329:
 3840              	.LBB330:
 3841              	.LBB331:
 3842              		.loc 1 689 0
 3843 0048 0023     		movs	r3, #0
 3844              	.LBE331:
 3845              	.LBE330:
 3846              	.LBE329:
 3847              		.loc 1 2304 0
 3848 004a E5EE656A 		vfms.f32	s13, s10, s11
 3849              	.LBB335:
 3850              	.LBB333:
 3851              		.loc 1 687 0
 3852 004e 9FEDAA8A 		vldr.32	s16, .L626+28
 3853              	.LBE333:
 3854              	.LBE335:
 3855              		.loc 1 2292 0
 3856 0052 86ED007A 		vstr.32	s14, [r6]
 3857              		.loc 1 2304 0
 3858 0056 C5ED006A 		vstr.32	s13, [r5]
 3859              	.LVL193:
 3860              	.L444:
 3861              	.LBB336:
 3862              	.LBB334:
 3863              	.LBB332:
 3864              		.loc 1 690 0
 3865 005a 01EB8302 		add	r2, r1, r3, lsl #2
 3866 005e D2ED007A 		vldr.32	s15, [r2]
 3867 0062 F4EEC87A 		vcmpe.f32	s15, s16
 3868 0066 F1EE10FA 		vmrs	APSR_nzcv, FPSCR
 3869              		.loc 1 689 0
 3870 006a 03F10103 		add	r3, r3, #1
 3871              	.LVL194:
 3872              		.loc 1 690 0
 3873 006e 08D5     		bpl	.L441
 3874 0070 D2ED007A 		vldr.32	s15, [r2]
 3875 0074 F5EEC07A 		vcmpe.f32	s15, #0
 3876 0078 F1EE10FA 		vmrs	APSR_nzcv, FPSCR
ARM GAS  /tmp/cclp9RuQ.s 			page 69


 3877              		.loc 1 691 0
 3878 007c C8BF     		it	gt
 3879 007e 92ED008A 		vldrgt.32	s16, [r2]
 3880              	.LVL195:
 3881              	.L441:
 3882              		.loc 1 689 0
 3883 0082 112B     		cmp	r3, #17
 3884 0084 E9D1     		bne	.L444
 3885              	.LBE332:
 3886              	.LBE334:
 3887              	.LBE336:
 3888              	.LBB337:
 3889              	.LBB338:
 3890              		.loc 1 697 0
 3891 0086 DFEDB68A 		vldr.32	s17, .L626+132
 3892              	.LBB339:
 3893              		.loc 1 699 0
 3894 008a 0023     		movs	r3, #0
 3895              	.LVL196:
 3896              		.loc 1 700 0
 3897 008c B1EE087A 		vmov.f32	s14, #6.0e+0
 3898              	.L448:
 3899              	.LVL197:
 3900 0090 01EB8302 		add	r2, r1, r3, lsl #2
 3901 0094 D2ED007A 		vldr.32	s15, [r2]
 3902 0098 F4EEE87A 		vcmpe.f32	s15, s17
 3903 009c F1EE10FA 		vmrs	APSR_nzcv, FPSCR
 3904              		.loc 1 699 0
 3905 00a0 03F10103 		add	r3, r3, #1
 3906              	.LVL198:
 3907              		.loc 1 700 0
 3908 00a4 08DD     		ble	.L445
 3909 00a6 D2ED007A 		vldr.32	s15, [r2]
 3910 00aa F4EEC77A 		vcmpe.f32	s15, s14
 3911 00ae F1EE10FA 		vmrs	APSR_nzcv, FPSCR
 3912              		.loc 1 701 0
 3913 00b2 48BF     		it	mi
 3914 00b4 D2ED008A 		vldrmi.32	s17, [r2]
 3915              	.LVL199:
 3916              	.L445:
 3917              		.loc 1 699 0
 3918 00b8 112B     		cmp	r3, #17
 3919 00ba E9D1     		bne	.L448
 3920              	.LBE339:
 3921              	.LBE338:
 3922              	.LBE337:
 3923              	.LBB340:
 3924              	.LBB341:
 3925              		.loc 1 716 0
 3926 00bc DFED8F9A 		vldr.32	s19, .L626+32
 3927 00c0 8F49     		ldr	r1, .L626+36
 3928              	.LBB342:
 3929              		.loc 1 719 0
 3930 00c2 9FED907A 		vldr.32	s14, .L626+40
 3931              		.loc 1 718 0
 3932 00c6 0023     		movs	r3, #0
 3933              	.LVL200:
ARM GAS  /tmp/cclp9RuQ.s 			page 70


 3934              	.L452:
 3935              		.loc 1 719 0
 3936 00c8 01EB8302 		add	r2, r1, r3, lsl #2
 3937 00cc D2ED007A 		vldr.32	s15, [r2]
 3938 00d0 F4EEE97A 		vcmpe.f32	s15, s19
 3939 00d4 F1EE10FA 		vmrs	APSR_nzcv, FPSCR
 3940              		.loc 1 718 0
 3941 00d8 03F10103 		add	r3, r3, #1
 3942              	.LVL201:
 3943              		.loc 1 719 0
 3944 00dc 08D5     		bpl	.L449
 3945 00de D2ED007A 		vldr.32	s15, [r2]
 3946 00e2 F4EEC77A 		vcmpe.f32	s15, s14
 3947 00e6 F1EE10FA 		vmrs	APSR_nzcv, FPSCR
 3948              		.loc 1 720 0
 3949 00ea C8BF     		it	gt
 3950 00ec D2ED009A 		vldrgt.32	s19, [r2]
 3951              	.LVL202:
 3952              	.L449:
 3953              		.loc 1 718 0
 3954 00f0 052B     		cmp	r3, #5
 3955 00f2 E9D1     		bne	.L452
 3956              	.LBE342:
 3957              	.LBE341:
 3958              	.LBE340:
 3959              	.LBB343:
 3960              	.LBB344:
 3961              		.loc 1 726 0
 3962 00f4 9FED839A 		vldr.32	s18, .L626+40
 3963              	.LBB345:
 3964              		.loc 1 728 0
 3965 00f8 0023     		movs	r3, #0
 3966              	.LVL203:
 3967              		.loc 1 729 0
 3968 00fa B0EE497A 		vmov.f32	s14, s18
 3969              	.L456:
 3970              	.LVL204:
 3971 00fe 01EB8302 		add	r2, r1, r3, lsl #2
 3972 0102 D2ED007A 		vldr.32	s15, [r2]
 3973 0106 F4EEC97A 		vcmpe.f32	s15, s18
 3974 010a F1EE10FA 		vmrs	APSR_nzcv, FPSCR
 3975              		.loc 1 728 0
 3976 010e 03F10103 		add	r3, r3, #1
 3977              	.LVL205:
 3978              		.loc 1 729 0
 3979 0112 08DD     		ble	.L453
 3980 0114 D2ED007A 		vldr.32	s15, [r2]
 3981 0118 F4EEC77A 		vcmpe.f32	s15, s14
 3982 011c F1EE10FA 		vmrs	APSR_nzcv, FPSCR
 3983              		.loc 1 730 0
 3984 0120 C8BF     		it	gt
 3985 0122 92ED009A 		vldrgt.32	s18, [r2]
 3986              	.LVL206:
 3987              	.L453:
 3988              		.loc 1 728 0
 3989 0126 062B     		cmp	r3, #6
 3990 0128 E9D1     		bne	.L456
ARM GAS  /tmp/cclp9RuQ.s 			page 71


 3991              	.LVL207:
 3992              	.LBE345:
 3993              	.LBE344:
 3994              	.LBE343:
 3995              		.loc 1 2312 0
 3996 012a FFF7FEFF 		bl	mc_interface_get_rpm
 3997              	.LVL208:
 3998              		.loc 1 2315 0
 3999 012e 764B     		ldr	r3, .L626+44
 4000 0130 764C     		ldr	r4, .L626+48
 4001 0132 93ED00AA 		vldr.32	s20, [r3]
 4002 0136 D4ED567A 		vldr.32	s15, [r4, #344]
 4003              		.loc 1 2326 0
 4004 013a DFF81892 		ldr	r9, .L626+120
 4005              		.loc 1 2324 0
 4006 013e DFF818A2 		ldr	r10, .L626+124
 4007              		.loc 1 2326 0
 4008 0142 DFED73AA 		vldr.32	s21, .L626+52
 4009 0146 9FED73CA 		vldr.32	s24, .L626+56
 4010 014a DFED73BA 		vldr.32	s23, .L626+60
 4011              		.loc 1 2315 0
 4012 014e 3AEE400A 		vsub.f32	s0, s20, s0
 4013              	.LVL209:
 4014              		.loc 1 2326 0
 4015 0152 F7EE00CA 		vmov.f32	s25, #1.0e+0
 4016              		.loc 1 2315 0
 4017 0156 A7EEC0AA 		vfms.f32	s20, s15, s0
 4018 015a 83ED00AA 		vstr.32	s20, [r3]
 4019              	.LVL210:
 4020              		.loc 1 2318 0
 4021 015e FFF7FEFF 		bl	mc_interface_get_duty_cycle_now
 4022              	.LVL211:
 4023              		.loc 1 2324 0
 4024 0162 FFF7FEFF 		bl	mcpwm_foc_get_mod_q_now
 4025              	.LVL212:
 4026              		.loc 1 2326 0
 4027 0166 99ED00BA 		vldr.32	s22, [r9]
 4028 016a 3B8A     		ldrh	r3, [r7, #16]
 4029              		.loc 1 2324 0
 4030 016c DAED007A 		vldr.32	s15, [r10]
 4031              		.loc 1 2326 0
 4032 0170 DFED6A5A 		vldr.32	s11, .L626+64
 4033              		.loc 1 2324 0
 4034 0174 9FED6A7A 		vldr.32	s14, .L626+68
 4035 0178 9FED6A6A 		vldr.32	s12, .L626+72
 4036              		.loc 1 2326 0
 4037 017c 06EE903A 		vmov	s13, r3	@ int
 4038 0180 F8EEE66A 		vcvt.f32.s32	s13, s13
 4039              		.loc 1 2324 0
 4040 0184 67EE877A 		vmul.f32	s15, s15, s14
 4041              		.loc 1 2326 0
 4042 0188 85EEA67A 		vdiv.f32	s14, s11, s13
 4043              		.loc 1 2324 0
 4044 018c B0EEC00A 		vabs.f32	s0, s0
 4045 0190 E0EE067A 		vfma.f32	s15, s0, s12
 4046              		.loc 1 2326 0
 4047 0194 37EE6A0A 		vsub.f32	s0, s14, s21
ARM GAS  /tmp/cclp9RuQ.s 			page 72


 4048              		.loc 1 2324 0
 4049 0198 CAED007A 		vstr.32	s15, [r10]
 4050              		.loc 1 2326 0
 4051 019c 80EE2A0A 		vdiv.f32	s0, s0, s21
 4052 01a0 FFF7FEFF 		bl	logf
 4053              	.LVL213:
 4054 01a4 9FED607A 		vldr.32	s14, .L626+76
 4055 01a8 D9ED007A 		vldr.32	s15, [r9]
 4056 01ac 9FED5F6A 		vldr.32	s12, .L626+80
 4057              		.loc 1 2330 0
 4058 01b0 DFED5F6A 		vldr.32	s13, .L626+84
 4059              		.loc 1 2326 0
 4060 01b4 80EE070A 		vdiv.f32	s0, s0, s14
 4061 01b8 30EE0C0A 		vadd.f32	s0, s0, s24
 4062 01bc 8CEE807A 		vdiv.f32	s14, s25, s0
 4063 01c0 37EE6B7A 		vsub.f32	s14, s14, s23
 4064 01c4 3BEE47BA 		vsub.f32	s22, s22, s14
 4065 01c8 EBEE467A 		vfms.f32	s15, s22, s12
 4066 01cc C9ED007A 		vstr.32	s15, [r9]
 4067              		.loc 1 2330 0
 4068 01d0 D4ED6B7A 		vldr.32	s15, [r4, #428]
 4069 01d4 F4EE667A 		vcmp.f32	s15, s13
 4070 01d8 F1EE10FA 		vmrs	APSR_nzcv, FPSCR
 4071 01dc 40F0B684 		bne	.L457
 4072              	.LVL214:
 4073              	.LBB346:
 4074              		.loc 1 2332 0
 4075 01e0 7B8A     		ldrh	r3, [r7, #18]
 4076 01e2 DFED546A 		vldr.32	s13, .L626+88
 4077              		.loc 1 2334 0
 4078 01e6 DFED547A 		vldr.32	s15, .L626+92
 4079 01ea 9FED543A 		vldr.32	s6, .L626+96
 4080 01ee DFED543A 		vldr.32	s7, .L626+100
 4081              		.loc 1 2336 0
 4082 01f2 DFF86881 		ldr	r8, .L626+128
 4083              		.loc 1 2334 0
 4084 01f6 9FED534A 		vldr.32	s8, .L626+104
 4085              		.loc 1 2336 0
 4086 01fa D8ED005A 		vldr.32	s11, [r8]
 4087 01fe DFED524A 		vldr.32	s9, .L626+108
 4088 0202 98ED006A 		vldr.32	s12, [r8]
 4089              		.loc 1 2332 0
 4090 0206 05EE103A 		vmov	s10, r3	@ int
 4091 020a B8EE455A 		vcvt.f32.u32	s10, s10
 4092 020e 86EE857A 		vdiv.f32	s14, s13, s10
 4093 0212 77EE6CCA 		vsub.f32	s25, s14, s25
 4094 0216 8AEEAC7A 		vdiv.f32	s14, s21, s25
 4095              	.LVL215:
 4096              		.loc 1 2333 0
 4097 021a 67EE076A 		vmul.f32	s13, s14, s14
 4098              	.LVL216:
 4099              		.loc 1 2334 0
 4100 021e 67EEE67A 		vnmul.f32	s15, s15, s13
 4101 0222 66EE836A 		vmul.f32	s13, s13, s6
 4102              	.LVL217:
 4103 0226 E7EE267A 		vfma.f32	s15, s14, s13
 4104 022a E7EE237A 		vfma.f32	s15, s14, s7
ARM GAS  /tmp/cclp9RuQ.s 			page 73


 4105 022e 77EEC47A 		vsub.f32	s15, s15, s8
 4106              		.loc 1 2336 0
 4107 0232 75EEE77A 		vsub.f32	s15, s11, s15
 4108 0236 A7EEE46A 		vfms.f32	s12, s15, s9
 4109 023a 88ED006A 		vstr.32	s12, [r8]
 4110              	.LVL218:
 4111              	.L458:
 4112              	.LBE346:
 4113              		.loc 1 2357 0
 4114 023e 94ED02BA 		vldr.32	s22, [r4, #8]
 4115              	.LVL219:
 4116              		.loc 1 2358 0
 4117 0242 D4ED01AA 		vldr.32	s21, [r4, #4]
 4118              	.LVL220:
 4119              		.loc 1 2363 0
 4120 0246 94ED107A 		vldr.32	s14, [r4, #64]
 4121 024a D9ED007A 		vldr.32	s15, [r9]
 4122 024e B4EEE77A 		vcmpe.f32	s14, s15
 4123 0252 F1EE10FA 		vmrs	APSR_nzcv, FPSCR
 4124 0256 17DC     		bgt	.L538
 4125              		.loc 1 2365 0
 4126 0258 94ED117A 		vldr.32	s14, [r4, #68]
 4127 025c D9ED007A 		vldr.32	s15, [r9]
 4128 0260 B4EEE77A 		vcmpe.f32	s14, s15
 4129 0264 F1EE10FA 		vmrs	APSR_nzcv, FPSCR
 4130 0268 40F11282 		bpl	.L598
 4131              	.LVL221:
 4132              	.LBB347:
 4133              	.LBB348:
 4134              		.loc 1 1846 0
 4135 026c 374B     		ldr	r3, .L626+112
 4136 026e 1B78     		ldrb	r3, [r3]	@ zero_extendqisi2
 4137 0270 052B     		cmp	r3, #5
 4138 0272 40F00985 		bne	.L462
 4139              		.loc 1 1847 0
 4140 0276 364B     		ldr	r3, .L626+116
 4141              	.LBE348:
 4142              	.LBE347:
 4143              		.loc 1 2367 0
 4144 0278 DFED39BA 		vldr.32	s23, .L626+132
 4145              	.LBB352:
 4146              	.LBB349:
 4147              		.loc 1 1847 0
 4148 027c D4F88821 		ldr	r2, [r4, #392]
 4149 0280 1A60     		str	r2, [r3]
 4150              	.LBE349:
 4151              	.LBE352:
 4152              		.loc 1 2366 0
 4153 0282 F0EE6BDA 		vmov.f32	s27, s23
 4154 0286 03E0     		b	.L459
 4155              	.LVL222:
 4156              	.L538:
 4157              		.loc 1 2362 0
 4158 0288 F0EE6ABA 		vmov.f32	s23, s21
 4159              		.loc 1 2361 0
 4160 028c F0EE4BDA 		vmov.f32	s27, s22
 4161              	.LVL223:
ARM GAS  /tmp/cclp9RuQ.s 			page 74


 4162              	.L459:
 4163              		.loc 1 2389 0
 4164 0290 94ED127A 		vldr.32	s14, [r4, #72]
 4165 0294 D8ED007A 		vldr.32	s15, [r8]
 4166 0298 B4EEE77A 		vcmpe.f32	s14, s15
 4167 029c F1EE10FA 		vmrs	APSR_nzcv, FPSCR
 4168 02a0 60DC     		bgt	.L604
 4169              		.loc 1 2391 0
 4170 02a2 D4ED137A 		vldr.32	s15, [r4, #76]
 4171 02a6 98ED007A 		vldr.32	s14, [r8]
 4172 02aa F2EE046A 		vmov.f32	s13, #1.0e+1
 4173 02ae 77EEA67A 		vadd.f32	s15, s15, s13
 4174 02b2 F4EEC77A 		vcmpe.f32	s15, s14
 4175 02b6 F1EE10FA 		vmrs	APSR_nzcv, FPSCR
 4176 02ba 40F1A981 		bpl	.L602
 4177              	.LVL224:
 4178              	.LBB353:
 4179              	.LBB354:
 4180              		.loc 1 1846 0
 4181 02be 234B     		ldr	r3, .L626+112
 4182 02c0 1B78     		ldrb	r3, [r3]	@ zero_extendqisi2
 4183 02c2 062B     		cmp	r3, #6
 4184 02c4 40F0E984 		bne	.L474
 4185              		.loc 1 1847 0
 4186 02c8 214B     		ldr	r3, .L626+116
 4187              	.LBE354:
 4188              	.LBE353:
 4189              		.loc 1 2393 0
 4190 02ca 9FED25BA 		vldr.32	s22, .L626+132
 4191              	.LVL225:
 4192              	.LBB358:
 4193              	.LBB355:
 4194              		.loc 1 1847 0
 4195 02ce D4F88821 		ldr	r2, [r4, #392]
 4196 02d2 1A60     		str	r2, [r3]
 4197              	.LBE355:
 4198              	.LBE358:
 4199              		.loc 1 2392 0
 4200 02d4 B0EE4BCA 		vmov.f32	s24, s22
 4201 02d8 46E0     		b	.L471
 4202              	.L627:
 4203 02da 00BF     		.align	2
 4204              	.L626:
 4205 02dc 00000000 		.word	.LANCHOR61
 4206 02e0 C07B523A 		.word	978484160
 4207 02e4 BAE8B241 		.word	1102244026
 4208 02e8 00000000 		.word	.LANCHOR63
 4209 02ec 00000000 		.word	.LANCHOR62
 4210 02f0 CDCC4C3D 		.word	1028443341
 4211 02f4 00000000 		.word	.LANCHOR59
 4212 02f8 E7FB1F41 		.word	1092615143
 4213 02fc 00C07944 		.word	1148829696
 4214 0300 00000000 		.word	.LANCHOR60
 4215 0304 008088C3 		.word	3280502784
 4216 0308 00000000 		.word	.LANCHOR64
 4217 030c 00000000 		.word	.LANCHOR8
 4218 0310 00401C46 		.word	1176256512
ARM GAS  /tmp/cclp9RuQ.s 			page 75


 4219 0314 0FCF5B3B 		.word	995872527
 4220 0318 33938843 		.word	1133024051
 4221 031c 3C361C4C 		.word	1276917308
 4222 0320 CDCC4C3F 		.word	1061997773
 4223 0324 CDCC4C3E 		.word	1045220557
 4224 0328 00405345 		.word	1163083776
 4225 032c CDCCCC3D 		.word	1036831949
 4226 0330 0000F442 		.word	1123287040
 4227 0334 00F07F45 		.word	1166012416
 4228 0338 C8BB9238 		.word	949140424
 4229 033c 996E2F32 		.word	841969305
 4230 0340 623E793E 		.word	1048133218
 4231 0344 22252043 		.word	1126180130
 4232 0348 0AD7233C 		.word	1008981770
 4233 034c 00000000 		.word	.LANCHOR9
 4234 0350 00000000 		.word	.LANCHOR11
 4235 0354 00000000 		.word	.LANCHOR33
 4236 0358 00000000 		.word	.LANCHOR65
 4237 035c 00000000 		.word	.LANCHOR34
 4238 0360 00000000 		.word	0
 4239              	.LVL226:
 4240              	.L604:
 4241              		.loc 1 2388 0
 4242 0364 B0EE6ACA 		vmov.f32	s24, s21
 4243              	.LVL227:
 4244              	.L471:
 4245              		.loc 1 2417 0
 4246 0368 94ED140A 		vldr.32	s0, [r4, #80]
 4247 036c 5FED040A 		vldr.32	s1, .L626+132
 4248 0370 D4ED101A 		vldr.32	s3, [r4, #64]
 4249 0374 B3EE092A 		vmov.f32	s4, #2.5e+1
 4250 0378 B7EE001A 		vmov.f32	s2, #1.0e+0
 4251 037c FFF7FEFF 		bl	utils_map
 4252              	.LVL228:
 4253              		.loc 1 2418 0
 4254 0380 5FED090A 		vldr.32	s1, .L626+132
 4255              		.loc 1 2417 0
 4256 0384 B0EE40DA 		vmov.f32	s26, s0
 4257              	.LVL229:
 4258              		.loc 1 2418 0
 4259 0388 B3EE092A 		vmov.f32	s4, #2.5e+1
 4260 038c 94ED140A 		vldr.32	s0, [r4, #80]
 4261              	.LVL230:
 4262 0390 D4ED111A 		vldr.32	s3, [r4, #68]
 4263 0394 B7EE001A 		vmov.f32	s2, #1.0e+0
 4264 0398 FFF7FEFF 		bl	utils_map
 4265              	.LVL231:
 4266              		.loc 1 2419 0
 4267 039c 5FED100A 		vldr.32	s1, .L626+132
 4268 03a0 B3EE092A 		vmov.f32	s4, #2.5e+1
 4269 03a4 B7EE001A 		vmov.f32	s2, #1.0e+0
 4270              		.loc 1 2418 0
 4271 03a8 B0EE40EA 		vmov.f32	s28, s0
 4272              	.LVL232:
 4273              		.loc 1 2419 0
 4274 03ac 94ED140A 		vldr.32	s0, [r4, #80]
 4275              	.LVL233:
ARM GAS  /tmp/cclp9RuQ.s 			page 76


 4276 03b0 D4ED121A 		vldr.32	s3, [r4, #72]
 4277 03b4 FFF7FEFF 		bl	utils_map
 4278              	.LVL234:
 4279              		.loc 1 2420 0
 4280 03b8 5FED170A 		vldr.32	s1, .L626+132
 4281              		.loc 1 2419 0
 4282 03bc F0EE40CA 		vmov.f32	s25, s0
 4283              	.LVL235:
 4284              		.loc 1 2420 0
 4285 03c0 B3EE092A 		vmov.f32	s4, #2.5e+1
 4286 03c4 94ED140A 		vldr.32	s0, [r4, #80]
 4287              	.LVL236:
 4288 03c8 D4ED131A 		vldr.32	s3, [r4, #76]
 4289 03cc B7EE001A 		vmov.f32	s2, #1.0e+0
 4290 03d0 FFF7FEFF 		bl	utils_map
 4291              	.LVL237:
 4292              		.loc 1 2423 0
 4293 03d4 D9ED007A 		vldr.32	s15, [r9]
 4294 03d8 B4EEE7DA 		vcmpe.f32	s26, s15
 4295 03dc F1EE10FA 		vmrs	APSR_nzcv, FPSCR
 4296              		.loc 1 2420 0
 4297 03e0 F0EE40EA 		vmov.f32	s29, s0
 4298              	.LVL238:
 4299              		.loc 1 2423 0
 4300 03e4 00F3F480 		bgt	.L548
 4301              		.loc 1 2425 0
 4302 03e8 D9ED007A 		vldr.32	s15, [r9]
 4303 03ec B4EEE7EA 		vcmpe.f32	s28, s15
 4304 03f0 F1EE10FA 		vmrs	APSR_nzcv, FPSCR
 4305 03f4 40F10984 		bpl	.L617
 4306              		.loc 1 2433 0
 4307 03f8 D8ED007A 		vldr.32	s15, [r8]
 4308              		.loc 1 2426 0
 4309 03fc 1FED28DA 		vldr.32	s26, .L626+132
 4310              	.LVL239:
 4311              		.loc 1 2433 0
 4312 0400 F4EEE7CA 		vcmpe.f32	s25, s15
 4313 0404 F1EE10FA 		vmrs	APSR_nzcv, FPSCR
 4314 0408 40F3EC80 		ble	.L618
 4315              	.LVL240:
 4316              	.L484:
 4317              		.loc 1 2443 0
 4318 040c F0EE4C0A 		vmov.f32	s1, s24
 4319 0410 B0EE6B0A 		vmov.f32	s0, s23
 4320 0414 FFF7FEFF 		bl	utils_min_abs
 4321              	.LVL241:
 4322              		.loc 1 2444 0
 4323 0418 F0EE4B0A 		vmov.f32	s1, s22
 4324              		.loc 1 2443 0
 4325 041c F0EE40BA 		vmov.f32	s23, s0
 4326              	.LVL242:
 4327              		.loc 1 2444 0
 4328 0420 B0EE6D0A 		vmov.f32	s0, s27
 4329              	.LVL243:
 4330 0424 FFF7FEFF 		bl	utils_min_abs
 4331              	.LVL244:
 4332              		.loc 1 2446 0
ARM GAS  /tmp/cclp9RuQ.s 			page 77


 4333 0428 F0EE4D0A 		vmov.f32	s1, s26
 4334              		.loc 1 2444 0
 4335 042c B0EE40BA 		vmov.f32	s22, s0
 4336              	.LVL245:
 4337              		.loc 1 2446 0
 4338 0430 B0EE6B0A 		vmov.f32	s0, s23
 4339              	.LVL246:
 4340 0434 FFF7FEFF 		bl	utils_min_abs
 4341              	.LVL247:
 4342              		.loc 1 2447 0
 4343 0438 F0EE6A0A 		vmov.f32	s1, s21
 4344 043c FFF7FEFF 		bl	utils_min_abs
 4345              	.LVL248:
 4346              		.loc 1 2449 0
 4347 0440 D4ED5F7A 		vldr.32	s15, [r4, #380]
 4348 0444 B4EEE70A 		vcmpe.f32	s0, s15
 4349 0448 F1EE10FA 		vmrs	APSR_nzcv, FPSCR
 4350              		.loc 1 2450 0
 4351 044c 48BF     		it	mi
 4352 044e 94ED5F0A 		vldrmi.32	s0, [r4, #380]
 4353              	.LVL249:
 4354              		.loc 1 2453 0
 4355 0452 D4ED5F7A 		vldr.32	s15, [r4, #380]
 4356 0456 F1EE677A 		vneg.f32	s15, s15
 4357 045a B4EEE7BA 		vcmpe.f32	s22, s15
 4358 045e F1EE10FA 		vmrs	APSR_nzcv, FPSCR
 4359              		.loc 1 2454 0
 4360 0462 C8BF     		it	gt
 4361 0464 94ED5FBA 		vldrgt.32	s22, [r4, #380]
 4362              	.LVL250:
 4363              		.loc 1 2457 0
 4364 0468 84ED1B0A 		vstr.32	s0, [r4, #108]
 4365              		.loc 1 2454 0
 4366 046c C8BF     		it	gt
 4367 046e B1EE4BBA 		vneggt.f32	s22, s22
 4368              	.LVL251:
 4369              		.loc 1 2458 0
 4370 0472 84ED1CBA 		vstr.32	s22, [r4, #112]
 4371              	.LVL252:
 4372              		.loc 1 2466 0
 4373 0476 D4ED0D7A 		vldr.32	s15, [r4, #52]
 4374 047a 96ED000A 		vldr.32	s0, [r6]
 4375              	.LVL253:
 4376 047e F4EEC07A 		vcmpe.f32	s15, s0
 4377 0482 F1EE10FA 		vmrs	APSR_nzcv, FPSCR
 4378 0486 40F1B880 		bpl	.L605
 4379              		.loc 1 2467 0
 4380 048a 94ED03BA 		vldr.32	s22, [r4, #12]
 4381              	.LVL254:
 4382              	.L491:
 4383              		.loc 1 2489 0
 4384 048e D4ED0C7A 		vldr.32	s15, [r4, #48]
 4385 0492 DFF8B492 		ldr	r9, .L628+40
 4386 0496 B1EE007A 		vmov.f32	s14, #4.0e+0
 4387 049a 77EEC77A 		vsub.f32	s15, s15, s14
 4388 049e D9ED00AA 		vldr.32	s21, [r9]
 4389              	.LVL255:
ARM GAS  /tmp/cclp9RuQ.s 			page 78


 4390 04a2 F4EEC07A 		vcmpe.f32	s15, s0
 4391 04a6 F1EE10FA 		vmrs	APSR_nzcv, FPSCR
 4392 04aa 00F32683 		bgt	.L619
 4393              		.loc 1 2492 0
 4394 04ae D4ED0C7A 		vldr.32	s15, [r4, #48]
 4395 04b2 9FED9B2A 		vldr.32	s4, .L628
 4396 04b6 F0EE006A 		vmov.f32	s13, #2.0e+0
 4397 04ba 77EEE67A 		vsub.f32	s15, s15, s13
 4398 04be 2AEE822A 		vmul.f32	s4, s21, s4
 4399 04c2 F4EEC07A 		vcmpe.f32	s15, s0
 4400 04c6 F1EE10FA 		vmrs	APSR_nzcv, FPSCR
 4401 04ca 40F11181 		bpl	.L607
 4402              		.loc 1 2493 0
 4403 04ce 89ED002A 		vstr.32	s4, [r9]
 4404              	.L494:
 4405              		.loc 1 2509 0
 4406 04d2 D4ED0D6A 		vldr.32	s13, [r4, #52]
 4407 04d6 D4ED707A 		vldr.32	s15, [r4, #448]	@ int
 4408 04da F8EEE77A 		vcvt.f32.s32	s15, s15
 4409 04de 86EEA77A 		vdiv.f32	s14, s13, s15
 4410 04e2 B4EEC87A 		vcmpe.f32	s14, s16
 4411 04e6 F1EE10FA 		vmrs	APSR_nzcv, FPSCR
 4412 04ea 40F19B82 		bpl	.L608
 4413              		.loc 1 2510 0
 4414 04ee 8D4E     		ldr	r6, .L628+4
 4415 04f0 94ED037A 		vldr.32	s14, [r4, #12]
 4416 04f4 D6ED007A 		vldr.32	s15, [r6]
 4417 04f8 B4EEE77A 		vcmpe.f32	s14, s15
 4418 04fc F1EE10FA 		vmrs	APSR_nzcv, FPSCR
 4419 0500 40F34F83 		ble	.L609
 4420              		.loc 1 2511 0
 4421 0504 9FED887A 		vldr.32	s14, .L628+8
 4422 0508 77EE877A 		vadd.f32	s15, s15, s14
 4423 050c C6ED007A 		vstr.32	s15, [r6]
 4424              	.LVL256:
 4425              	.L501:
 4426              		.loc 1 2548 0
 4427 0510 864F     		ldr	r7, .L628+12
 4428 0512 94ED047A 		vldr.32	s14, [r4, #16]
 4429 0516 D7ED007A 		vldr.32	s15, [r7]
 4430 051a B4EEE77A 		vcmpe.f32	s14, s15
 4431              		.loc 1 2551 0
 4432 051e DFED847A 		vldr.32	s15, .L628+16
 4433              		.loc 1 2548 0
 4434 0522 F1EE10FA 		vmrs	APSR_nzcv, FPSCR
 4435              		.loc 1 2549 0
 4436 0526 C4BF     		itt	gt
 4437 0528 2369     		ldrgt	r3, [r4, #16]	@ float
 4438 052a 3B60     		strgt	r3, [r7]	@ float
 4439              		.loc 1 2551 0
 4440 052c F4EEE78A 		vcmpe.f32	s17, s15
 4441 0530 F1EE10FA 		vmrs	APSR_nzcv, FPSCR
 4442 0534 40F18882 		bpl	.L611
 4443              		.loc 1 2552 0
 4444 0538 2369     		ldr	r3, [r4, #16]	@ float
 4445 053a 3B60     		str	r3, [r7]	@ float
 4446              	.L508:
ARM GAS  /tmp/cclp9RuQ.s 			page 79


 4447              	.LVL257:
 4448              		.loc 1 2575 0
 4449 053c 9FED7D8A 		vldr.32	s16, .L628+20
 4450 0540 B4EEC89A 		vcmpe.f32	s18, s16
 4451 0544 F1EE10FA 		vmrs	APSR_nzcv, FPSCR
 4452 0548 00F36782 		bgt	.L552
 4453              		.loc 1 2578 0
 4454 054c DFED7AAA 		vldr.32	s21, .L628+24
 4455 0550 B4EEEA9A 		vcmpe.f32	s18, s21
 4456 0554 F1EE10FA 		vmrs	APSR_nzcv, FPSCR
 4457 0558 07D4     		bmi	.L519
 4458 055a DFED787A 		vldr.32	s15, .L628+28
 4459 055e B4EE679A 		vcmp.f32	s18, s15
 4460 0562 F1EE10FA 		vmrs	APSR_nzcv, FPSCR
 4461 0566 40F0A183 		bne	.L520
 4462              	.L519:
 4463              		.loc 1 2579 0
 4464 056a D4ED038A 		vldr.32	s17, [r4, #12]
 4465              	.LVL258:
 4466              		.loc 1 2580 0
 4467 056e 94ED049A 		vldr.32	s18, [r4, #16]
 4468              	.LVL259:
 4469              	.L518:
 4470              		.loc 1 2594 0
 4471 0572 B2EE048A 		vmov.f32	s16, #1.0e+1
 4472 0576 F4EEC89A 		vcmpe.f32	s19, s16
 4473 057a F1EE10FA 		vmrs	APSR_nzcv, FPSCR
 4474 057e 00F3E580 		bgt	.L521
 4475 0582 DFED6E7A 		vldr.32	s15, .L628+28
 4476 0586 F4EE679A 		vcmp.f32	s19, s15
 4477 058a F1EE10FA 		vmrs	APSR_nzcv, FPSCR
 4478 058e 00F0DD80 		beq	.L521
 4479              		.loc 1 2597 0
 4480 0592 BAEE0E1A 		vmov.f32	s2, #-1.5e+1
 4481 0596 F4EEC19A 		vcmpe.f32	s19, s2
 4482 059a F1EE10FA 		vmrs	APSR_nzcv, FPSCR
 4483 059e 00F15883 		bmi	.L553
 4484              		.loc 1 2600 0
 4485 05a2 F0EE00BA 		vmov.f32	s23, #2.0e+0
 4486 05a6 F4EEEB9A 		vcmpe.f32	s19, s23
 4487 05aa F1EE10FA 		vmrs	APSR_nzcv, FPSCR
 4488              		.loc 1 2601 0
 4489 05ae D4ED031A 		vldr.32	s3, [r4, #12]
 4490              		.loc 1 2600 0
 4491 05b2 40F1C183 		bpl	.L615
 4492              		.loc 1 2601 0
 4493 05b6 B0EE690A 		vmov.f32	s0, s19
 4494 05ba F0EE480A 		vmov.f32	s1, s16
 4495 05be B1EE002A 		vmov.f32	s4, #4.0e+0
 4496 05c2 FFF7FEFF 		bl	utils_map
 4497              	.LVL260:
 4498              		.loc 1 2603 0
 4499 05c6 FFEE009A 		vmov.f32	s19, #-1.0e+0
 4500              	.LVL261:
 4501              		.loc 1 2601 0
 4502 05ca F0EE40AA 		vmov.f32	s21, s0
 4503              	.LVL262:
ARM GAS  /tmp/cclp9RuQ.s 			page 80


 4504 05ce C1E0     		b	.L523
 4505              	.LVL263:
 4506              	.L548:
 4507              		.loc 1 2422 0
 4508 05d0 B0EE6ADA 		vmov.f32	s26, s21
 4509              	.LVL264:
 4510              	.L483:
 4511              		.loc 1 2433 0
 4512 05d4 D8ED007A 		vldr.32	s15, [r8]
 4513 05d8 F4EEE7CA 		vcmpe.f32	s25, s15
 4514 05dc F1EE10FA 		vmrs	APSR_nzcv, FPSCR
 4515 05e0 3FF714AF 		bgt	.L484
 4516              	.L618:
 4517              		.loc 1 2435 0
 4518 05e4 D8ED007A 		vldr.32	s15, [r8]
 4519 05e8 F4EEE7EA 		vcmpe.f32	s29, s15
 4520 05ec F1EE10FA 		vmrs	APSR_nzcv, FPSCR
 4521 05f0 40F1FC82 		bpl	.L620
 4522              		.loc 1 2436 0
 4523 05f4 DFED52AA 		vldr.32	s21, .L628+32
 4524              	.LVL265:
 4525 05f8 08E7     		b	.L484
 4526              	.LVL266:
 4527              	.L605:
 4528              		.loc 1 2468 0
 4529 05fa D4ED0E7A 		vldr.32	s15, [r4, #56]
 4530 05fe B4EEE70A 		vcmpe.f32	s0, s15
 4531 0602 F1EE10FA 		vmrs	APSR_nzcv, FPSCR
 4532 0606 40F10F83 		bpl	.L621
 4533              		.loc 1 2469 0
 4534 060a 9FED4DBA 		vldr.32	s22, .L628+32
 4535              	.LVL267:
 4536 060e 3EE7     		b	.L491
 4537              	.LVL268:
 4538              	.L602:
 4539              		.loc 1 2395 0
 4540 0610 94ED137A 		vldr.32	s14, [r4, #76]
 4541 0614 D8ED007A 		vldr.32	s15, [r8]
 4542 0618 B4EEE77A 		vcmpe.f32	s14, s15
 4543 061c F1EE10FA 		vmrs	APSR_nzcv, FPSCR
 4544 0620 00F11183 		bmi	.L544
 4545              	.LBB359:
 4546              		.loc 1 2400 0
 4547 0624 B0EECBDA 		vabs.f32	s26, s22
 4548              		.loc 1 2399 0
 4549 0628 F0EEEACA 		vabs.f32	s25, s21
 4550              	.LVL269:
 4551 062c F4EECDCA 		vcmpe.f32	s25, s26
 4552 0630 F1EE10FA 		vmrs	APSR_nzcv, FPSCR
 4553              	.LVL270:
 4554              		.loc 1 2404 0
 4555 0634 98ED000A 		vldr.32	s0, [r8]
 4556 0638 9FED412A 		vldr.32	s4, .L628+32
 4557 063c D4ED120A 		vldr.32	s1, [r4, #72]
 4558 0640 94ED131A 		vldr.32	s2, [r4, #76]
 4559 0644 54BF     		ite	pl
 4560 0646 F0EE6C1A 		vmovpl.f32	s3, s25
ARM GAS  /tmp/cclp9RuQ.s 			page 81


 4561 064a F0EE4D1A 		vmovmi.f32	s3, s26
 4562              	.LVL271:
 4563 064e FFF7FEFF 		bl	utils_map
 4564              	.LVL272:
 4565              		.loc 1 2406 0
 4566 0652 B4EEC0DA 		vcmpe.f32	s26, s0
 4567 0656 F1EE10FA 		vmrs	APSR_nzcv, FPSCR
 4568              		.loc 1 2404 0
 4569 065a B0EE40CA 		vmov.f32	s24, s0
 4570              	.LVL273:
 4571              		.loc 1 2406 0
 4572 065e 08DD     		ble	.L476
 4573              		.loc 1 2407 0
 4574 0660 B5EEC0BA 		vcmpe.f32	s22, #0
 4575 0664 F1EE10FA 		vmrs	APSR_nzcv, FPSCR
 4576 0668 4CBF     		ite	mi
 4577 066a B1EE40BA 		vnegmi.f32	s22, s0
 4578              	.LVL274:
 4579 066e B0EE40BA 		vmovpl.f32	s22, s0
 4580              	.L476:
 4581              	.LVL275:
 4582              		.loc 1 2410 0
 4583 0672 F4EECCCA 		vcmpe.f32	s25, s24
 4584 0676 F1EE10FA 		vmrs	APSR_nzcv, FPSCR
 4585 067a 7FF773AE 		ble	.L604
 4586              		.loc 1 2411 0
 4587 067e F5EEC0AA 		vcmpe.f32	s21, #0
 4588 0682 F1EE10FA 		vmrs	APSR_nzcv, FPSCR
 4589 0686 7FF56FAE 		bpl	.L471
 4590 068a B1EE4CCA 		vneg.f32	s24, s24
 4591              	.LVL276:
 4592 068e 6BE6     		b	.L471
 4593              	.LVL277:
 4594              	.L598:
 4595              	.LBE359:
 4596              	.LBB360:
 4597              		.loc 1 2371 0
 4598 0690 F0EECBCA 		vabs.f32	s25, s22
 4599              		.loc 1 2370 0
 4600 0694 B0EEEACA 		vabs.f32	s24, s21
 4601              	.LVL278:
 4602 0698 B4EEECCA 		vcmpe.f32	s24, s25
 4603 069c F1EE10FA 		vmrs	APSR_nzcv, FPSCR
 4604              	.LVL279:
 4605              		.loc 1 2375 0
 4606 06a0 99ED000A 		vldr.32	s0, [r9]
 4607 06a4 9FED262A 		vldr.32	s4, .L628+32
 4608 06a8 D4ED100A 		vldr.32	s1, [r4, #64]
 4609 06ac 94ED111A 		vldr.32	s2, [r4, #68]
 4610 06b0 54BF     		ite	pl
 4611 06b2 F0EE4C1A 		vmovpl.f32	s3, s24
 4612 06b6 F0EE6C1A 		vmovmi.f32	s3, s25
 4613              	.LVL280:
 4614 06ba FFF7FEFF 		bl	utils_map
 4615              	.LVL281:
 4616              		.loc 1 2377 0
 4617 06be F4EEC0CA 		vcmpe.f32	s25, s0
ARM GAS  /tmp/cclp9RuQ.s 			page 82


 4618 06c2 F1EE10FA 		vmrs	APSR_nzcv, FPSCR
 4619              		.loc 1 2375 0
 4620 06c6 F0EE40BA 		vmov.f32	s23, s0
 4621              	.LVL282:
 4622              		.loc 1 2377 0
 4623 06ca 00F3C782 		bgt	.L622
 4624              		.loc 1 2381 0
 4625 06ce B4EEEBCA 		vcmpe.f32	s24, s23
 4626 06d2 F1EE10FA 		vmrs	APSR_nzcv, FPSCR
 4627              	.LBE360:
 4628              		.loc 1 2361 0
 4629 06d6 F0EE4BDA 		vmov.f32	s27, s22
 4630              	.LVL283:
 4631              	.LBB361:
 4632              		.loc 1 2381 0
 4633 06da 40F3CE82 		ble	.L601
 4634              	.L625:
 4635              		.loc 1 2382 0
 4636 06de F5EEC0AA 		vcmpe.f32	s21, #0
 4637 06e2 F1EE10FA 		vmrs	APSR_nzcv, FPSCR
 4638 06e6 7FF5D3AD 		bpl	.L459
 4639 06ea F1EE6BBA 		vneg.f32	s23, s23
 4640              	.LVL284:
 4641 06ee CFE5     		b	.L459
 4642              	.LVL285:
 4643              	.L607:
 4644              	.LBE361:
 4645              		.loc 1 2495 0
 4646 06f0 D4ED0C0A 		vldr.32	s1, [r4, #48]
 4647 06f4 94ED0C1A 		vldr.32	s2, [r4, #48]
 4648 06f8 D4ED041A 		vldr.32	s3, [r4, #16]
 4649 06fc 70EEC70A 		vsub.f32	s1, s1, s14
 4650 0700 31EE661A 		vsub.f32	s2, s2, s13
 4651 0704 FFF7FEFF 		bl	utils_map
 4652              	.LVL286:
 4653 0708 DFED0E7A 		vldr.32	s15, .L628+36
 4654 070c F0EE400A 		vmov.f32	s1, s0
 4655 0710 3AEEE70A 		vsub.f32	s0, s21, s15
 4656 0714 FFF7FEFF 		bl	utils_min_abs
 4657              	.LVL287:
 4658 0718 89ED000A 		vstr.32	s0, [r9]
 4659 071c D9E6     		b	.L494
 4660              	.L629:
 4661 071e 00BF     		.align	2
 4662              	.L628:
 4663 0720 CDCC4C3E 		.word	1045220557
 4664 0724 00000000 		.word	.LANCHOR67
 4665 0728 6F12833A 		.word	981668463
 4666 072c 00000000 		.word	.LANCHOR68
 4667 0730 9A998140 		.word	1082235290
 4668 0734 00008842 		.word	1116209152
 4669 0738 00007042 		.word	1114636288
 4670 073c 008088C3 		.word	3280502784
 4671 0740 00000000 		.word	0
 4672 0744 0AD7233C 		.word	1008981770
 4673 0748 00000000 		.word	.LANCHOR66
 4674              	.LVL288:
ARM GAS  /tmp/cclp9RuQ.s 			page 83


 4675              	.L521:
 4676              		.loc 1 2595 0
 4677 074c D4ED03AA 		vldr.32	s21, [r4, #12]
 4678              	.LVL289:
 4679              		.loc 1 2596 0
 4680 0750 D4ED049A 		vldr.32	s19, [r4, #16]
 4681              	.LVL290:
 4682              	.L523:
 4683              		.loc 1 2612 0
 4684 0754 96ED008A 		vldr.32	s16, [r6]
 4685              		.loc 1 2635 0
 4686 0758 DFF8EC83 		ldr	r8, .L630+56
 4687              		.loc 1 2634 0
 4688 075c EC4E     		ldr	r6, .L630
 4689              		.loc 1 2612 0
 4690 075e F0EE6A0A 		vmov.f32	s1, s21
 4691 0762 B0EE680A 		vmov.f32	s0, s17
 4692 0766 FFF7FEFF 		bl	utils_min_abs
 4693              	.LVL291:
 4694 076a F0EE400A 		vmov.f32	s1, s0
 4695 076e B0EE4B0A 		vmov.f32	s0, s22
 4696 0772 FFF7FEFF 		bl	utils_min_abs
 4697              	.LVL292:
 4698 0776 F0EE400A 		vmov.f32	s1, s0
 4699 077a B0EE480A 		vmov.f32	s0, s16
 4700 077e FFF7FEFF 		bl	utils_min_abs
 4701              	.LVL293:
 4702              		.loc 1 2613 0
 4703 0782 F0EE690A 		vmov.f32	s1, s19
 4704              		.loc 1 2612 0
 4705 0786 F0EE408A 		vmov.f32	s17, s0
 4706              	.LVL294:
 4707              		.loc 1 2613 0
 4708 078a B0EE490A 		vmov.f32	s0, s18
 4709              	.LVL295:
 4710 078e 97ED008A 		vldr.32	s16, [r7]
 4711 0792 99ED009A 		vldr.32	s18, [r9]
 4712              	.LVL296:
 4713 0796 FFF7FEFF 		bl	utils_min_abs
 4714              	.LVL297:
 4715 079a F0EE400A 		vmov.f32	s1, s0
 4716 079e B0EE490A 		vmov.f32	s0, s18
 4717 07a2 FFF7FEFF 		bl	utils_min_abs
 4718              	.LVL298:
 4719 07a6 F0EE400A 		vmov.f32	s1, s0
 4720 07aa B0EE480A 		vmov.f32	s0, s16
 4721 07ae FFF7FEFF 		bl	utils_min_abs
 4722              	.LVL299:
 4723              		.loc 1 2615 0
 4724 07b2 F0EE680A 		vmov.f32	s1, s17
 4725              		.loc 1 2613 0
 4726 07b6 B0EE408A 		vmov.f32	s16, s0
 4727              	.LVL300:
 4728              		.loc 1 2615 0
 4729 07ba 94ED030A 		vldr.32	s0, [r4, #12]
 4730              	.LVL301:
 4731 07be FFF7FEFF 		bl	utils_min_abs
ARM GAS  /tmp/cclp9RuQ.s 			page 84


 4732              	.LVL302:
 4733 07c2 84ED1D0A 		vstr.32	s0, [r4, #116]
 4734              		.loc 1 2616 0
 4735 07c6 F0EE480A 		vmov.f32	s1, s16
 4736 07ca 94ED040A 		vldr.32	s0, [r4, #16]
 4737 07ce FFF7FEFF 		bl	utils_min_abs
 4738              	.LVL303:
 4739 07d2 84ED1E0A 		vstr.32	s0, [r4, #120]
 4740              	.LVL304:
 4741              		.loc 1 2630 0
 4742 07d6 94ED078A 		vldr.32	s16, [r4, #28]
 4743              	.LVL305:
 4744              		.loc 1 2634 0
 4745 07da 9FEDCE4A 		vldr.32	s8, .L630+4
 4746              		.loc 1 2633 0
 4747 07de 94ED537A 		vldr.32	s14, [r4, #332]
 4748              		.loc 1 2634 0
 4749 07e2 D4ED546A 		vldr.32	s13, [r4, #336]
 4750              		.loc 1 2635 0
 4751 07e6 94ED553A 		vldr.32	s6, [r4, #340]
 4752 07ea D8ED004A 		vldr.32	s9, [r8]
 4753              		.loc 1 2646 0
 4754 07ee CA4B     		ldr	r3, .L630+8
 4755              		.loc 1 2633 0
 4756 07f0 DFEDCA5A 		vldr.32	s11, .L630+12
 4757              		.loc 1 2646 0
 4758 07f4 D3ED007A 		vldr.32	s15, [r3]
 4759              		.loc 1 2634 0
 4760 07f8 96ED006A 		vldr.32	s12, [r6]
 4761              		.loc 1 2646 0
 4762 07fc D4ED563A 		vldr.32	s7, [r4, #344]
 4763              		.loc 1 2635 0
 4764 0800 83EE045A 		vdiv.f32	s10, s6, s8
 4765              		.loc 1 2633 0
 4766 0804 04A8     		add	r0, sp, #16
 4767              		.loc 1 2630 0
 4768 0806 38EE4A8A 		vsub.f32	s16, s16, s20
 4769              	.LVL306:
 4770              		.loc 1 2634 0
 4771 080a 66EE846A 		vmul.f32	s13, s13, s8
 4772              		.loc 1 2635 0
 4773 080e 78EE644A 		vsub.f32	s9, s16, s9
 4774              	.LVL307:
 4775              		.loc 1 2633 0
 4776 0812 28EE077A 		vmul.f32	s14, s16, s14
 4777              		.loc 1 2646 0
 4778 0816 25EE645A 		vnmul.f32	s10, s10, s9
 4779 081a F0EE674A 		vmov.f32	s9, s15
 4780 081e E5EE254A 		vfma.f32	s9, s10, s11
 4781              		.loc 1 2634 0
 4782 0822 66EE886A 		vmul.f32	s13, s13, s16
 4783              		.loc 1 2633 0
 4784 0826 27EE257A 		vmul.f32	s14, s14, s11
 4785              		.loc 1 2646 0
 4786 082a E3EEE47A 		vfms.f32	s15, s7, s9
 4787              		.loc 1 2634 0
 4788 082e A6EEA56A 		vfma.f32	s12, s13, s11
ARM GAS  /tmp/cclp9RuQ.s 			page 85


 4789              		.loc 1 2633 0
 4790 0832 17EE102A 		vmov	r2, s14
 4791              		.loc 1 2650 0
 4792 0836 F7EE000A 		vmov.f32	s1, #1.0e+0
 4793              		.loc 1 2633 0
 4794 083a 40F8102D 		str	r2, [r0, #-16]!	@ float
 4795              		.loc 1 2650 0
 4796 083e BFEE000A 		vmov.f32	s0, #-1.0e+0
 4797              		.loc 1 2646 0
 4798 0842 F0EE678A 		vmov.f32	s17, s15
 4799              	.LVL308:
 4800 0846 C3ED007A 		vstr.32	s15, [r3]
 4801              	.LVL309:
 4802              		.loc 1 2634 0
 4803 084a 86ED006A 		vstr.32	s12, [r6]
 4804              		.loc 1 2650 0
 4805 084e FFF7FEFF 		bl	utils_truncate_number
 4806              	.LVL310:
 4807              		.loc 1 2651 0
 4808 0852 D6ED007A 		vldr.32	s15, [r6]
 4809 0856 DDED006A 		vldr.32	s13, [sp]
 4810 085a 76EEA77A 		vadd.f32	s15, s13, s15
 4811 085e B7EE007A 		vmov.f32	s14, #1.0e+0
 4812 0862 F4EEC77A 		vcmpe.f32	s15, s14
 4813 0866 F1EE10FA 		vmrs	APSR_nzcv, FPSCR
 4814 086a 05DD     		ble	.L526
 4815              		.loc 1 2652 0
 4816 086c 37EE667A 		vsub.f32	s14, s14, s13
 4817 0870 76EE877A 		vadd.f32	s15, s13, s14
 4818 0874 86ED007A 		vstr.32	s14, [r6]
 4819              	.L526:
 4820              		.loc 1 2654 0
 4821 0878 F5EEC07A 		vcmpe.f32	s15, #0
 4822 087c F1EE10FA 		vmrs	APSR_nzcv, FPSCR
 4823              		.loc 1 2655 0
 4824 0880 48BF     		it	mi
 4825 0882 F1EE666A 		vnegmi.f32	s13, s13
 4826              		.loc 1 2658 0
 4827 0886 F7EE000A 		vmov.f32	s1, #1.0e+0
 4828 088a 9FEDA50A 		vldr.32	s0, .L630+16
 4829 088e A048     		ldr	r0, .L630
 4830              		.loc 1 2655 0
 4831 0890 48BF     		it	mi
 4832 0892 C6ED006A 		vstrmi.32	s13, [r6]
 4833              		.loc 1 2658 0
 4834 0896 FFF7FEFF 		bl	utils_truncate_number
 4835              	.LVL311:
 4836              		.loc 1 2664 0
 4837 089a 96ED007A 		vldr.32	s14, [r6]
 4838 089e DDED007A 		vldr.32	s15, [sp]
 4839              		.loc 1 2665 0
 4840 08a2 9FED9F0A 		vldr.32	s0, .L630+16
 4841              		.loc 1 2661 0
 4842 08a6 88ED008A 		vstr.32	s16, [r8]
 4843              		.loc 1 2664 0
 4844 08aa 77EE877A 		vadd.f32	s15, s15, s14
 4845 08ae 04A8     		add	r0, sp, #16
ARM GAS  /tmp/cclp9RuQ.s 			page 86


 4846 08b0 77EEA87A 		vadd.f32	s15, s15, s17
 4847              		.loc 1 2665 0
 4848 08b4 F7EE000A 		vmov.f32	s1, #1.0e+0
 4849              		.loc 1 2664 0
 4850 08b8 17EE903A 		vmov	r3, s15
 4851 08bc 40F80C3D 		str	r3, [r0, #-12]!	@ float
 4852              		.loc 1 2665 0
 4853 08c0 FFF7FEFF 		bl	utils_truncate_number
 4854              	.LVL312:
 4855              		.loc 1 2679 0
 4856 08c4 94ED068A 		vldr.32	s16, [r4, #24]
 4857              	.LVL313:
 4858              		.loc 1 2683 0
 4859 08c8 9FED924A 		vldr.32	s8, .L630+4
 4860              		.loc 1 2682 0
 4861 08cc 94ED537A 		vldr.32	s14, [r4, #332]
 4862              		.loc 1 2683 0
 4863 08d0 D4ED546A 		vldr.32	s13, [r4, #336]
 4864              		.loc 1 2684 0
 4865 08d4 D4ED552A 		vldr.32	s5, [r4, #340]
 4866 08d8 924F     		ldr	r7, .L630+20
 4867              		.loc 1 2688 0
 4868 08da 934B     		ldr	r3, .L630+24
 4869              		.loc 1 2684 0
 4870 08dc D7ED004A 		vldr.32	s9, [r7]
 4871              		.loc 1 2688 0
 4872 08e0 D3ED007A 		vldr.32	s15, [r3]
 4873              		.loc 1 2682 0
 4874 08e4 DFED8D5A 		vldr.32	s11, .L630+12
 4875              		.loc 1 2683 0
 4876 08e8 904E     		ldr	r6, .L630+28
 4877              		.loc 1 2688 0
 4878 08ea 94ED563A 		vldr.32	s6, [r4, #344]
 4879              		.loc 1 2683 0
 4880 08ee 96ED006A 		vldr.32	s12, [r6]
 4881              		.loc 1 2666 0
 4882 08f2 9DED019A 		vldr.32	s18, [sp, #4]
 4883 08f6 DFED8E3A 		vldr.32	s7, .L630+32
 4884              		.loc 1 2684 0
 4885 08fa 82EE845A 		vdiv.f32	s10, s5, s8
 4886              		.loc 1 2682 0
 4887 08fe 04A8     		add	r0, sp, #16
 4888              		.loc 1 2679 0
 4889 0900 3AEE488A 		vsub.f32	s16, s20, s16
 4890              		.loc 1 2683 0
 4891 0904 66EE846A 		vmul.f32	s13, s13, s8
 4892              		.loc 1 2684 0
 4893 0908 78EE644A 		vsub.f32	s9, s16, s9
 4894              		.loc 1 2682 0
 4895 090c 28EE077A 		vmul.f32	s14, s16, s14
 4896              		.loc 1 2688 0
 4897 0910 25EE645A 		vnmul.f32	s10, s10, s9
 4898 0914 F0EE674A 		vmov.f32	s9, s15
 4899 0918 E5EE254A 		vfma.f32	s9, s10, s11
 4900              		.loc 1 2683 0
 4901 091c 66EE886A 		vmul.f32	s13, s13, s16
 4902              		.loc 1 2682 0
ARM GAS  /tmp/cclp9RuQ.s 			page 87


 4903 0920 27EE257A 		vmul.f32	s14, s14, s11
 4904              		.loc 1 2688 0
 4905 0924 E3EE647A 		vfms.f32	s15, s6, s9
 4906              		.loc 1 2683 0
 4907 0928 A6EEA56A 		vfma.f32	s12, s13, s11
 4908              		.loc 1 2682 0
 4909 092c 17EE102A 		vmov	r2, s14
 4910              		.loc 1 2692 0
 4911 0930 F7EE000A 		vmov.f32	s1, #1.0e+0
 4912              		.loc 1 2682 0
 4913 0934 40F8082D 		str	r2, [r0, #-8]!	@ float
 4914              		.loc 1 2692 0
 4915 0938 BFEE000A 		vmov.f32	s0, #-1.0e+0
 4916              		.loc 1 2688 0
 4917 093c F0EE678A 		vmov.f32	s17, s15
 4918              	.LVL314:
 4919 0940 C3ED007A 		vstr.32	s15, [r3]
 4920              		.loc 1 2683 0
 4921 0944 86ED006A 		vstr.32	s12, [r6]
 4922              		.loc 1 2666 0
 4923 0948 29EE239A 		vmul.f32	s18, s18, s7
 4924              	.LVL315:
 4925              		.loc 1 2692 0
 4926 094c FFF7FEFF 		bl	utils_truncate_number
 4927              	.LVL316:
 4928              		.loc 1 2693 0
 4929 0950 D6ED007A 		vldr.32	s15, [r6]
 4930 0954 DDED026A 		vldr.32	s13, [sp, #8]
 4931 0958 76EEA77A 		vadd.f32	s15, s13, s15
 4932 095c B7EE007A 		vmov.f32	s14, #1.0e+0
 4933 0960 F4EEC77A 		vcmpe.f32	s15, s14
 4934 0964 F1EE10FA 		vmrs	APSR_nzcv, FPSCR
 4935 0968 05DD     		ble	.L530
 4936              		.loc 1 2694 0
 4937 096a 37EE667A 		vsub.f32	s14, s14, s13
 4938 096e 76EE877A 		vadd.f32	s15, s13, s14
 4939 0972 86ED007A 		vstr.32	s14, [r6]
 4940              	.L530:
 4941              		.loc 1 2696 0
 4942 0976 9FED6A7A 		vldr.32	s14, .L630+16
 4943              		.loc 1 2699 0
 4944 097a 9FED690A 		vldr.32	s0, .L630+16
 4945 097e 6B48     		ldr	r0, .L630+28
 4946              		.loc 1 2696 0
 4947 0980 F4EEC77A 		vcmpe.f32	s15, s14
 4948 0984 F1EE10FA 		vmrs	APSR_nzcv, FPSCR
 4949              		.loc 1 2697 0
 4950 0988 48BF     		it	mi
 4951 098a 77EE666A 		vsubmi.f32	s13, s14, s13
 4952              		.loc 1 2699 0
 4953 098e F7EE000A 		vmov.f32	s1, #1.0e+0
 4954              		.loc 1 2697 0
 4955 0992 48BF     		it	mi
 4956 0994 C6ED006A 		vstrmi.32	s13, [r6]
 4957              		.loc 1 2699 0
 4958 0998 FFF7FEFF 		bl	utils_truncate_number
 4959              	.LVL317:
ARM GAS  /tmp/cclp9RuQ.s 			page 88


 4960              		.loc 1 2705 0
 4961 099c 96ED007A 		vldr.32	s14, [r6]
 4962 09a0 DDED027A 		vldr.32	s15, [sp, #8]
 4963              		.loc 1 2706 0
 4964 09a4 9FED5E0A 		vldr.32	s0, .L630+16
 4965              		.loc 1 2702 0
 4966 09a8 87ED008A 		vstr.32	s16, [r7]
 4967              		.loc 1 2705 0
 4968 09ac 77EE877A 		vadd.f32	s15, s15, s14
 4969 09b0 04A8     		add	r0, sp, #16
 4970 09b2 77EEA87A 		vadd.f32	s15, s15, s17
 4971              		.loc 1 2706 0
 4972 09b6 F7EE000A 		vmov.f32	s1, #1.0e+0
 4973              		.loc 1 2705 0
 4974 09ba 60ED017A 		vstmdb.32	r0!, {s15}
 4975              		.loc 1 2706 0
 4976 09be FFF7FEFF 		bl	utils_truncate_number
 4977              	.LVL318:
 4978              		.loc 1 2717 0
 4979 09c2 D5ED007A 		vldr.32	s15, [r5]
 4980 09c6 94ED177A 		vldr.32	s14, [r4, #92]
 4981              		.loc 1 2707 0
 4982 09ca DFED596A 		vldr.32	s13, .L630+32
 4983 09ce DDED030A 		vldr.32	s1, [sp, #12]
 4984              		.loc 1 2717 0
 4985 09d2 87EE278A 		vdiv.f32	s16, s14, s15
 4986              	.LVL319:
 4987              		.loc 1 2707 0
 4988 09d6 60EEA60A 		vmul.f32	s1, s1, s13
 4989              	.LVL320:
 4990              		.loc 1 2717 0
 4991 09da 89EE270A 		vdiv.f32	s0, s18, s15
 4992 09de C0EEA70A 		vdiv.f32	s1, s1, s15
 4993              	.LVL321:
 4994 09e2 FFF7FEFF 		bl	utils_min_abs
 4995              	.LVL322:
 4996 09e6 F0EE400A 		vmov.f32	s1, s0
 4997 09ea B0EE480A 		vmov.f32	s0, s16
 4998 09ee FFF7FEFF 		bl	utils_min_abs
 4999              	.LVL323:
 5000              		.loc 1 2727 0
 5001 09f2 504B     		ldr	r3, .L630+36
 5002              		.loc 1 2718 0
 5003 09f4 D4ED188A 		vldr.32	s17, [r4, #96]
 5004              	.LVL324:
 5005              		.loc 1 2727 0
 5006 09f8 D4ED197A 		vldr.32	s15, [r4, #100]
 5007 09fc 93ED008A 		vldr.32	s16, [r3]
 5008              	.LVL325:
 5009              		.loc 1 2733 0
 5010 0a00 A378     		ldrb	r3, [r4, #2]	@ zero_extendqisi2
 5011 0a02 022B     		cmp	r3, #2
 5012 0a04 3DD0     		beq	.L623
 5013              		.loc 1 2762 0
 5014 0a06 E36E     		ldr	r3, [r4, #108]	@ float
 5015 0a08 E367     		str	r3, [r4, #124]	@ float
 5016              		.loc 1 2763 0
ARM GAS  /tmp/cclp9RuQ.s 			page 89


 5017 0a0a 236F     		ldr	r3, [r4, #112]	@ float
 5018 0a0c C4F88030 		str	r3, [r4, #128]	@ float
 5019              		.loc 1 2765 0
 5020 0a10 04B0     		add	sp, sp, #16
 5021              		.cfi_remember_state
 5022              		.cfi_def_cfa_offset 88
 5023              		@ sp needed
 5024 0a12 BDEC0E8B 		vldm	sp!, {d8-d14}
 5025              		.cfi_restore 92
 5026              		.cfi_restore 93
 5027              		.cfi_restore 90
 5028              		.cfi_restore 91
 5029              		.cfi_restore 88
 5030              		.cfi_restore 89
 5031              		.cfi_restore 86
 5032              		.cfi_restore 87
 5033              		.cfi_restore 84
 5034              		.cfi_restore 85
 5035              		.cfi_restore 82
 5036              		.cfi_restore 83
 5037              		.cfi_restore 80
 5038              		.cfi_restore 81
 5039              		.cfi_def_cfa_offset 32
 5040              	.LVL326:
 5041 0a16 BDE8F087 		pop	{r4, r5, r6, r7, r8, r9, r10, pc}
 5042              	.LVL327:
 5043              	.L552:
 5044              		.cfi_restore_state
 5045              		.loc 1 2577 0
 5046 0a1a BFEE009A 		vmov.f32	s18, #-1.0e+0
 5047              		.loc 1 2576 0
 5048 0a1e F1EE008A 		vmov.f32	s17, #4.0e+0
 5049              	.LVL328:
 5050 0a22 A6E5     		b	.L518
 5051              	.LVL329:
 5052              	.L608:
 5053              		.loc 1 2515 0
 5054 0a24 D4ED0E6A 		vldr.32	s13, [r4, #56]
 5055 0a28 D4ED707A 		vldr.32	s15, [r4, #448]	@ int
 5056 0a2c F8EEE77A 		vcvt.f32.s32	s15, s15
 5057 0a30 86EEA77A 		vdiv.f32	s14, s13, s15
 5058 0a34 B4EEC87A 		vcmpe.f32	s14, s16
 5059 0a38 F1EE10FA 		vmrs	APSR_nzcv, FPSCR
 5060 0a3c 40F35381 		ble	.L610
 5061              		.loc 1 2516 0
 5062 0a40 3D4E     		ldr	r6, .L630+40
 5063 0a42 0023     		movs	r3, #0
 5064 0a44 3360     		str	r3, [r6]	@ float
 5065 0a46 63E5     		b	.L501
 5066              	.LVL330:
 5067              	.L611:
 5068              		.loc 1 2553 0
 5069 0a48 DFED3C7A 		vldr.32	s15, .L630+44
 5070 0a4c F4EEE78A 		vcmpe.f32	s17, s15
 5071 0a50 F1EE10FA 		vmrs	APSR_nzcv, FPSCR
 5072 0a54 40F3A880 		ble	.L612
 5073              		.loc 1 2554 0
ARM GAS  /tmp/cclp9RuQ.s 			page 90


 5074 0a58 D7ED007A 		vldr.32	s15, [r7]
 5075 0a5c F5EEC07A 		vcmpe.f32	s15, #0
 5076 0a60 F1EE10FA 		vmrs	APSR_nzcv, FPSCR
 5077 0a64 7FF56AAD 		bpl	.L508
 5078              		.loc 1 2555 0
 5079 0a68 9FED357A 		vldr.32	s14, .L630+48
 5080 0a6c 94ED046A 		vldr.32	s12, [r4, #16]
 5081 0a70 C6EE076A 		vdiv.f32	s13, s12, s14
 5082 0a74 B0EE007A 		vmov.f32	s14, #2.0e+0
 5083 0a78 E6EEC77A 		vfms.f32	s15, s13, s14
 5084 0a7c C7ED007A 		vstr.32	s15, [r7]
 5085 0a80 5CE5     		b	.L508
 5086              	.LVL331:
 5087              	.L623:
 5088              		.loc 1 2740 0
 5089 0a82 DAED006A 		vldr.32	s13, [r10]
 5090 0a86 9FED2F7A 		vldr.32	s14, .L630+52
 5091              		.loc 1 2718 0
 5092 0a8a 95ED009A 		vldr.32	s18, [r5]
 5093              	.LVL332:
 5094              		.loc 1 2740 0
 5095 0a8e F4EEC76A 		vcmpe.f32	s13, s14
 5096 0a92 F1EE10FA 		vmrs	APSR_nzcv, FPSCR
 5097 0a96 48BF     		it	mi
 5098 0a98 8AED007A 		vstrmi.32	s14, [r10]
 5099              		.loc 1 2727 0
 5100 0a9c 67EE887A 		vmul.f32	s15, s15, s16
 5101              	.LVL333:
 5102              		.loc 1 2741 0
 5103 0aa0 94ED1B7A 		vldr.32	s14, [r4, #108]
 5104              		.loc 1 2743 0
 5105 0aa4 D4ED1D0A 		vldr.32	s1, [r4, #116]
 5106              		.loc 1 2741 0
 5107 0aa8 27EE878A 		vmul.f32	s16, s15, s14
 5108              		.loc 1 2742 0
 5109 0aac FFF7FEFF 		bl	utils_min_abs
 5110              	.LVL334:
 5111              		.loc 1 2741 0
 5112 0ab0 DAED000A 		vldr.32	s1, [r10]
 5113 0ab4 C0EE200A 		vdiv.f32	s1, s0, s1
 5114 0ab8 B0EE480A 		vmov.f32	s0, s16
 5115 0abc FFF7FEFF 		bl	utils_min_abs
 5116              	.LVL335:
 5117 0ac0 84ED1F0A 		vstr.32	s0, [r4, #124]
 5118              		.loc 1 2745 0
 5119 0ac4 94ED1C8A 		vldr.32	s16, [r4, #112]
 5120 0ac8 D4ED1A7A 		vldr.32	s15, [r4, #104]
 5121              		.loc 1 2747 0
 5122 0acc D4ED1E0A 		vldr.32	s1, [r4, #120]
 5123              		.loc 1 2746 0
 5124 0ad0 88EE890A 		vdiv.f32	s0, s17, s18
 5125              		.loc 1 2745 0
 5126 0ad4 28EE278A 		vmul.f32	s16, s16, s15
 5127              		.loc 1 2746 0
 5128 0ad8 FFF7FEFF 		bl	utils_min_abs
 5129              	.LVL336:
 5130              		.loc 1 2745 0
ARM GAS  /tmp/cclp9RuQ.s 			page 91


 5131 0adc DAED000A 		vldr.32	s1, [r10]
 5132 0ae0 C0EE200A 		vdiv.f32	s1, s0, s1
 5133 0ae4 B0EE480A 		vmov.f32	s0, s16
 5134 0ae8 FFF7FEFF 		bl	utils_min_abs
 5135              	.LVL337:
 5136 0aec 84ED200A 		vstr.32	s0, [r4, #128]
 5137              		.loc 1 2765 0
 5138 0af0 04B0     		add	sp, sp, #16
 5139              		.cfi_remember_state
 5140              		.cfi_def_cfa_offset 88
 5141              		@ sp needed
 5142 0af2 BDEC0E8B 		vldm	sp!, {d8-d14}
 5143              		.cfi_restore 92
 5144              		.cfi_restore 93
 5145              		.cfi_restore 90
 5146              		.cfi_restore 91
 5147              		.cfi_restore 88
 5148              		.cfi_restore 89
 5149              		.cfi_restore 86
 5150              		.cfi_restore 87
 5151              		.cfi_restore 84
 5152              		.cfi_restore 85
 5153              		.cfi_restore 82
 5154              		.cfi_restore 83
 5155              		.cfi_restore 80
 5156              		.cfi_restore 81
 5157              		.cfi_def_cfa_offset 32
 5158              	.LVL338:
 5159 0af6 BDE8F087 		pop	{r4, r5, r6, r7, r8, r9, r10, pc}
 5160              	.LVL339:
 5161              	.L619:
 5162              		.cfi_restore_state
 5163              		.loc 1 2490 0
 5164 0afa 9FED120A 		vldr.32	s0, .L630+52
 5165 0afe D4ED040A 		vldr.32	s1, [r4, #16]
 5166 0b02 3AEEC00A 		vsub.f32	s0, s21, s0
 5167 0b06 FFF7FEFF 		bl	utils_min_abs
 5168              	.LVL340:
 5169 0b0a 89ED000A 		vstr.32	s0, [r9]
 5170 0b0e E0E4     		b	.L494
 5171              	.L631:
 5172              		.align	2
 5173              	.L630:
 5174 0b10 00000000 		.word	.LANCHOR69
 5175 0b14 6F12833A 		.word	981668463
 5176 0b18 00000000 		.word	.LANCHOR70
 5177 0b1c CDCC4C3D 		.word	1028443341
 5178 0b20 00000000 		.word	0
 5179 0b24 00000000 		.word	.LANCHOR74
 5180 0b28 00000000 		.word	.LANCHOR73
 5181 0b2c 00000000 		.word	.LANCHOR72
 5182 0b30 00803B45 		.word	1161527296
 5183 0b34 00000000 		.word	.LANCHOR58
 5184 0b38 00000000 		.word	.LANCHOR67
 5185 0b3c 86EB8940 		.word	1082780550
 5186 0b40 00C0DA45 		.word	1171963904
 5187 0b44 0AD7233C 		.word	1008981770
ARM GAS  /tmp/cclp9RuQ.s 			page 92


 5188 0b48 00000000 		.word	.LANCHOR71
 5189              	.LVL341:
 5190              	.L457:
 5191              		.loc 1 2338 0
 5192 0b4c DFF86482 		ldr	r8, .L632+32
 5193 0b50 DFED906A 		vldr.32	s13, .L632
 5194 0b54 98ED00BA 		vldr.32	s22, [r8]
 5195 0b58 7B8A     		ldrh	r3, [r7, #18]
 5196 0b5a 07EE103A 		vmov	s14, r3	@ int
 5197 0b5e B8EE477A 		vcvt.f32.u32	s14, s14
 5198 0b62 C6EE877A 		vdiv.f32	s15, s13, s14
 5199 0b66 77EEEC7A 		vsub.f32	s15, s15, s25
 5200 0b6a 8AEEA70A 		vdiv.f32	s0, s21, s15
 5201 0b6e 80EE2A0A 		vdiv.f32	s0, s0, s21
 5202 0b72 FFF7FEFF 		bl	logf
 5203              	.LVL342:
 5204 0b76 94ED6B7A 		vldr.32	s14, [r4, #428]
 5205 0b7a DFED876A 		vldr.32	s13, .L632+4
 5206 0b7e D8ED007A 		vldr.32	s15, [r8]
 5207 0b82 80EE070A 		vdiv.f32	s0, s0, s14
 5208 0b86 30EE0CCA 		vadd.f32	s24, s0, s24
 5209 0b8a 8CEE8C7A 		vdiv.f32	s14, s25, s24
 5210 0b8e 77EE6BBA 		vsub.f32	s23, s14, s23
 5211 0b92 3BEE6BBA 		vsub.f32	s22, s22, s23
 5212 0b96 EBEE667A 		vfms.f32	s15, s22, s13
 5213 0b9a C8ED007A 		vstr.32	s15, [r8]
 5214 0b9e FFF74EBB 		b	.L458
 5215              	.LVL343:
 5216              	.L609:
 5217              		.loc 1 2513 0
 5218 0ba2 E368     		ldr	r3, [r4, #12]	@ float
 5219 0ba4 3360     		str	r3, [r6]	@ float
 5220 0ba6 B3E4     		b	.L501
 5221              	.LVL344:
 5222              	.L612:
 5223              		.loc 1 2557 0
 5224 0ba8 DFED7C7A 		vldr.32	s15, .L632+8
 5225 0bac F4EEE78A 		vcmpe.f32	s17, s15
 5226 0bb0 F1EE10FA 		vmrs	APSR_nzcv, FPSCR
 5227 0bb4 65DC     		bgt	.L624
 5228              		.loc 1 2559 0
 5229 0bb6 9FED7A7A 		vldr.32	s14, .L632+12
 5230 0bba D7ED007A 		vldr.32	s15, [r7]
 5231 0bbe F4EEC78A 		vcmpe.f32	s17, s14
 5232 0bc2 F1EE10FA 		vmrs	APSR_nzcv, FPSCR
 5233 0bc6 40F3D080 		ble	.L614
 5234              		.loc 1 2560 0
 5235 0bca F5EEC07A 		vcmpe.f32	s15, #0
 5236 0bce F1EE10FA 		vmrs	APSR_nzcv, FPSCR
 5237 0bd2 7FF5B3AC 		bpl	.L508
 5238              		.loc 1 2561 0
 5239 0bd6 94ED046A 		vldr.32	s12, [r4, #16]
 5240 0bda DFED726A 		vldr.32	s13, .L632+16
 5241 0bde 86EE267A 		vdiv.f32	s14, s12, s13
 5242 0be2 77EEC77A 		vsub.f32	s15, s15, s14
 5243 0be6 C7ED007A 		vstr.32	s15, [r7]
 5244 0bea A7E4     		b	.L508
ARM GAS  /tmp/cclp9RuQ.s 			page 93


 5245              	.LVL345:
 5246              	.L620:
 5247              		.loc 1 2438 0
 5248 0bec F0EE6A1A 		vmov.f32	s3, s21
 5249 0bf0 98ED000A 		vldr.32	s0, [r8]
 5250 0bf4 9FED6C2A 		vldr.32	s4, .L632+20
 5251 0bf8 B0EE6E1A 		vmov.f32	s2, s29
 5252 0bfc F0EE6C0A 		vmov.f32	s1, s25
 5253 0c00 FFF7FEFF 		bl	utils_map
 5254              	.LVL346:
 5255 0c04 F0EE40AA 		vmov.f32	s21, s0
 5256              	.LVL347:
 5257 0c08 00E4     		b	.L484
 5258              	.LVL348:
 5259              	.L617:
 5260              		.loc 1 2428 0
 5261 0c0a F0EE4D0A 		vmov.f32	s1, s26
 5262 0c0e 99ED000A 		vldr.32	s0, [r9]
 5263              	.LVL349:
 5264 0c12 9FED652A 		vldr.32	s4, .L632+20
 5265 0c16 B0EE4E1A 		vmov.f32	s2, s28
 5266 0c1a F0EE6A1A 		vmov.f32	s3, s21
 5267 0c1e FFF7FEFF 		bl	utils_map
 5268              	.LVL350:
 5269 0c22 B0EE40DA 		vmov.f32	s26, s0
 5270              	.LVL351:
 5271 0c26 D5E4     		b	.L483
 5272              	.LVL352:
 5273              	.L621:
 5274              		.loc 1 2471 0
 5275 0c28 D4ED0D0A 		vldr.32	s1, [r4, #52]
 5276 0c2c 9FED5E2A 		vldr.32	s4, .L632+20
 5277 0c30 94ED0E1A 		vldr.32	s2, [r4, #56]
 5278 0c34 D4ED031A 		vldr.32	s3, [r4, #12]
 5279 0c38 FFF7FEFF 		bl	utils_map
 5280              	.LVL353:
 5281 0c3c B0EE40BA 		vmov.f32	s22, s0
 5282              	.LVL354:
 5283 0c40 96ED000A 		vldr.32	s0, [r6]
 5284              	.LVL355:
 5285 0c44 23E4     		b	.L491
 5286              	.LVL356:
 5287              	.L544:
 5288              		.loc 1 2397 0
 5289 0c46 9FED58BA 		vldr.32	s22, .L632+20
 5290              	.LVL357:
 5291              		.loc 1 2396 0
 5292 0c4a B0EE4BCA 		vmov.f32	s24, s22
 5293 0c4e FFF78BBB 		b	.L471
 5294              	.LVL358:
 5295              	.L553:
 5296              		.loc 1 2599 0
 5297 0c52 FFEE009A 		vmov.f32	s19, #-1.0e+0
 5298              	.LVL359:
 5299              		.loc 1 2598 0
 5300 0c56 F1EE00AA 		vmov.f32	s21, #4.0e+0
 5301 0c5a 7BE5     		b	.L523
ARM GAS  /tmp/cclp9RuQ.s 			page 94


 5302              	.LVL360:
 5303              	.L622:
 5304              	.LBB362:
 5305              		.loc 1 2378 0
 5306 0c5c B5EEC0BA 		vcmpe.f32	s22, #0
 5307 0c60 F1EE10FA 		vmrs	APSR_nzcv, FPSCR
 5308              		.loc 1 2381 0
 5309 0c64 B4EEEBCA 		vcmpe.f32	s24, s23
 5310 0c68 4CBF     		ite	mi
 5311 0c6a F1EE40DA 		vnegmi.f32	s27, s0
 5312              		.loc 1 2378 0
 5313 0c6e F0EE40DA 		vmovpl.f32	s27, s0
 5314              	.LVL361:
 5315              		.loc 1 2381 0
 5316 0c72 F1EE10FA 		vmrs	APSR_nzcv, FPSCR
 5317 0c76 3FF732AD 		bgt	.L625
 5318              	.L601:
 5319              	.LBE362:
 5320              		.loc 1 2362 0
 5321 0c7a F0EE6ABA 		vmov.f32	s23, s21
 5322 0c7e FFF707BB 		b	.L459
 5323              	.LVL362:
 5324              	.L624:
 5325              		.loc 1 2558 0
 5326 0c82 0023     		movs	r3, #0
 5327 0c84 3B60     		str	r3, [r7]	@ float
 5328 0c86 59E4     		b	.L508
 5329              	.LVL363:
 5330              	.L462:
 5331              		.loc 1 2367 0
 5332 0c88 DFED47BA 		vldr.32	s23, .L632+20
 5333              	.LBB363:
 5334              	.LBB350:
 5335 0c8c 0520     		movs	r0, #5
 5336              	.LBE350:
 5337              	.LBE363:
 5338              		.loc 1 2366 0
 5339 0c8e F0EE6BDA 		vmov.f32	s27, s23
 5340              	.LBB364:
 5341              	.LBB351:
 5342 0c92 FFF7FEFF 		bl	mc_interface_fault_stop.part.5
 5343              	.LVL364:
 5344 0c96 FFF7FBBA 		b	.L459
 5345              	.LVL365:
 5346              	.L474:
 5347              	.LBE351:
 5348              	.LBE364:
 5349              		.loc 1 2393 0
 5350 0c9a 9FED43BA 		vldr.32	s22, .L632+20
 5351              	.LVL366:
 5352              	.LBB365:
 5353              	.LBB356:
 5354 0c9e 0620     		movs	r0, #6
 5355              	.LBE356:
 5356              	.LBE365:
 5357              		.loc 1 2392 0
 5358 0ca0 B0EE4BCA 		vmov.f32	s24, s22
ARM GAS  /tmp/cclp9RuQ.s 			page 95


 5359              	.LBB366:
 5360              	.LBB357:
 5361 0ca4 FFF7FEFF 		bl	mc_interface_fault_stop.part.5
 5362              	.LVL367:
 5363 0ca8 FFF75EBB 		b	.L471
 5364              	.LVL368:
 5365              	.L520:
 5366              	.LBE357:
 5367              	.LBE366:
 5368              		.loc 1 2582 0
 5369 0cac D4ED031A 		vldr.32	s3, [r4, #12]
 5370 0cb0 B1EE002A 		vmov.f32	s4, #4.0e+0
 5371 0cb4 B0EE481A 		vmov.f32	s2, s16
 5372 0cb8 F0EE6A0A 		vmov.f32	s1, s21
 5373 0cbc B0EE490A 		vmov.f32	s0, s18
 5374 0cc0 FFF7FEFF 		bl	utils_map
 5375              	.LVL369:
 5376              		.loc 1 2584 0
 5377 0cc4 D4ED041A 		vldr.32	s3, [r4, #16]
 5378              		.loc 1 2582 0
 5379 0cc8 F0EE408A 		vmov.f32	s17, s0
 5380              	.LVL370:
 5381              		.loc 1 2584 0
 5382 0ccc B0EE481A 		vmov.f32	s2, s16
 5383 0cd0 B0EE490A 		vmov.f32	s0, s18
 5384              	.LVL371:
 5385 0cd4 F0EE6A0A 		vmov.f32	s1, s21
 5386 0cd8 BFEE002A 		vmov.f32	s4, #-1.0e+0
 5387 0cdc FFF7FEFF 		bl	utils_map
 5388              	.LVL372:
 5389 0ce0 B0EE409A 		vmov.f32	s18, s0
 5390              	.LVL373:
 5391 0ce4 45E4     		b	.L518
 5392              	.LVL374:
 5393              	.L610:
 5394              		.loc 1 2518 0
 5395 0ce6 D4ED0D0A 		vldr.32	s1, [r4, #52]
 5396 0cea D4ED706A 		vldr.32	s13, [r4, #448]	@ int
 5397 0cee 94ED0E1A 		vldr.32	s2, [r4, #56]
 5398 0cf2 94ED707A 		vldr.32	s14, [r4, #448]	@ int
 5399 0cf6 2D4E     		ldr	r6, .L632+24
 5400 0cf8 9FED2D6A 		vldr.32	s12, .L632+28
 5401 0cfc D6ED007A 		vldr.32	s15, [r6]
 5402 0d00 D4ED031A 		vldr.32	s3, [r4, #12]
 5403 0d04 9FED282A 		vldr.32	s4, .L632+20
 5404 0d08 F8EEE66A 		vcvt.f32.s32	s13, s13
 5405 0d0c B8EEC77A 		vcvt.f32.s32	s14, s14
 5406 0d10 C0EEA60A 		vdiv.f32	s1, s1, s13
 5407 0d14 B0EE480A 		vmov.f32	s0, s16
 5408 0d18 81EE071A 		vdiv.f32	s2, s2, s14
 5409 0d1c 37EE868A 		vadd.f32	s16, s15, s12
 5410              	.LVL375:
 5411 0d20 FFF7FEFF 		bl	utils_map
 5412              	.LVL376:
 5413 0d24 F0EE400A 		vmov.f32	s1, s0
 5414 0d28 B0EE480A 		vmov.f32	s0, s16
 5415 0d2c FFF7FEFF 		bl	utils_min_abs
ARM GAS  /tmp/cclp9RuQ.s 			page 96


 5416              	.LVL377:
 5417 0d30 86ED000A 		vstr.32	s0, [r6]
 5418 0d34 FFF7ECBB 		b	.L501
 5419              	.LVL378:
 5420              	.L615:
 5421              		.loc 1 2605 0
 5422 0d38 B1EE002A 		vmov.f32	s4, #4.0e+0
 5423 0d3c F0EE480A 		vmov.f32	s1, s16
 5424 0d40 B0EE690A 		vmov.f32	s0, s19
 5425 0d44 FFF7FEFF 		bl	utils_map
 5426              	.LVL379:
 5427              		.loc 1 2607 0
 5428 0d48 D4ED041A 		vldr.32	s3, [r4, #16]
 5429              		.loc 1 2605 0
 5430 0d4c F0EE40AA 		vmov.f32	s21, s0
 5431              	.LVL380:
 5432              		.loc 1 2607 0
 5433 0d50 B0EE6B1A 		vmov.f32	s2, s23
 5434 0d54 B0EE690A 		vmov.f32	s0, s19
 5435              	.LVL381:
 5436 0d58 F0EE480A 		vmov.f32	s1, s16
 5437 0d5c BFEE002A 		vmov.f32	s4, #-1.0e+0
 5438 0d60 FFF7FEFF 		bl	utils_map
 5439              	.LVL382:
 5440 0d64 F0EE409A 		vmov.f32	s19, s0
 5441              	.LVL383:
 5442 0d68 F4E4     		b	.L523
 5443              	.LVL384:
 5444              	.L614:
 5445              		.loc 1 2564 0
 5446 0d6a 94ED047A 		vldr.32	s14, [r4, #16]
 5447 0d6e F4EEC77A 		vcmpe.f32	s15, s14
 5448 0d72 F1EE10FA 		vmrs	APSR_nzcv, FPSCR
 5449 0d76 7FF7E1AB 		ble	.L508
 5450              		.loc 1 2565 0
 5451 0d7a 94ED046A 		vldr.32	s12, [r4, #16]
 5452 0d7e DFED096A 		vldr.32	s13, .L632+16
 5453 0d82 86EE267A 		vdiv.f32	s14, s12, s13
 5454 0d86 77EE277A 		vadd.f32	s15, s14, s15
 5455 0d8a C7ED007A 		vstr.32	s15, [r7]
 5456 0d8e FFF7D5BB 		b	.L508
 5457              	.L633:
 5458 0d92 00BF     		.align	2
 5459              	.L632:
 5460 0d94 00F07F45 		.word	1166012416
 5461 0d98 0AD7233C 		.word	1008981770
 5462 0d9c 66668E40 		.word	1083074150
 5463 0da0 C3F58840 		.word	1082717635
 5464 0da4 00C0DA45 		.word	1171963904
 5465 0da8 00000000 		.word	0
 5466 0dac 00000000 		.word	.LANCHOR67
 5467 0db0 6F12833A 		.word	981668463
 5468 0db4 00000000 		.word	.LANCHOR34
 5469              		.cfi_endproc
 5470              	.LFE370:
 5471              		.size	update_override_limits.constprop.6, .-update_override_limits.constprop.6
 5472              		.section	.text.mc_interface_set_configuration,"ax",%progbits
ARM GAS  /tmp/cclp9RuQ.s 			page 97


 5473              		.align	1
 5474              		.p2align 4,,15
 5475              		.global	mc_interface_set_configuration
 5476              		.syntax unified
 5477              		.thumb
 5478              		.thumb_func
 5479              		.fpu fpv4-sp-d16
 5480              		.type	mc_interface_set_configuration, %function
 5481              	mc_interface_set_configuration:
 5482              	.LFB258:
 5483              		.loc 1 289 0
 5484              		.cfi_startproc
 5485              		@ args = 0, pretend = 0, frame = 0
 5486              		@ frame_needed = 0, uses_anonymous_args = 0
 5487              	.LVL385:
 5488 0000 70B5     		push	{r4, r5, r6, lr}
 5489              		.cfi_def_cfa_offset 16
 5490              		.cfi_offset 4, -16
 5491              		.cfi_offset 5, -12
 5492              		.cfi_offset 6, -8
 5493              		.cfi_offset 14, -4
 5494              		.loc 1 291 0
 5495 0002 524D     		ldr	r5, .L664
 5496 0004 90F89831 		ldrb	r3, [r0, #408]	@ zero_extendqisi2
 5497 0008 95F89821 		ldrb	r2, [r5, #408]	@ zero_extendqisi2
 5498 000c 9A42     		cmp	r2, r3
 5499              		.loc 1 289 0
 5500 000e 0446     		mov	r4, r0
 5501              		.loc 1 291 0
 5502 0010 42D1     		bne	.L660
 5503              	.LVL386:
 5504              	.L635:
 5505              		.loc 1 330 0
 5506 0012 012B     		cmp	r3, #1
 5507 0014 4DD0     		beq	.L661
 5508              	.L636:
 5509              		.loc 1 345 0
 5510 0016 94F89A01 		ldrb	r0, [r4, #410]	@ zero_extendqisi2
 5511 001a FFF7FEFF 		bl	drv8350_set_oc_mode
 5512              	.LVL387:
 5513              		.loc 1 346 0
 5514 001e D4F89C01 		ldr	r0, [r4, #412]
 5515 0022 FFF7FEFF 		bl	drv8350_set_oc_adj
 5516              	.LVL388:
 5517 0026 10B1     		cbz	r0, .L644
 5518              		.loc 1 347 0
 5519 0028 494B     		ldr	r3, .L664+4
 5520 002a 0122     		movs	r2, #1
 5521 002c 1A70     		strb	r2, [r3]
 5522              	.L644:
 5523              		.loc 1 351 0
 5524 002e AB78     		ldrb	r3, [r5, #2]	@ zero_extendqisi2
 5525 0030 A278     		ldrb	r2, [r4, #2]	@ zero_extendqisi2
 5526 0032 9A42     		cmp	r2, r3
 5527 0034 1DD1     		bne	.L662
 5528              		.loc 1 376 0
 5529 0036 2146     		mov	r1, r4
ARM GAS  /tmp/cclp9RuQ.s 			page 98


 5530 0038 4FF4E472 		mov	r2, #456
 5531 003c 4348     		ldr	r0, .L664
 5532 003e FFF7FEFF 		bl	memcpy
 5533              	.LVL389:
 5534              	.L646:
 5535              		.loc 1 379 0
 5536 0042 FFF7FEFF 		bl	update_override_limits.constprop.6
 5537              	.LVL390:
 5538              		.loc 1 383 0
 5539 0046 AB78     		ldrb	r3, [r5, #2]	@ zero_extendqisi2
 5540 0048 032B     		cmp	r3, #3
 5541 004a 31D8     		bhi	.L634
 5542 004c DFE803F0 		tbb	[pc, r3]
 5543              	.L653:
 5544 0050 0C       		.byte	(.L652-.L653)/2
 5545 0051 0C       		.byte	(.L652-.L653)/2
 5546 0052 07       		.byte	(.L654-.L653)/2
 5547 0053 02       		.byte	(.L655-.L653)/2
 5548              		.p2align 1
 5549              	.L655:
 5550              		.loc 1 394 0
 5551 0054 3D48     		ldr	r0, .L664
 5552              		.loc 1 400 0
 5553 0056 BDE87040 		pop	{r4, r5, r6, lr}
 5554              		.cfi_remember_state
 5555              		.cfi_restore 14
 5556              		.cfi_restore 6
 5557              		.cfi_restore 5
 5558              		.cfi_restore 4
 5559              		.cfi_def_cfa_offset 0
 5560              	.LVL391:
 5561              		.loc 1 394 0
 5562 005a FFF7FEBF 		b	gpdrive_set_configuration
 5563              	.LVL392:
 5564              	.L654:
 5565              		.cfi_restore_state
 5566              		.loc 1 390 0
 5567 005e 3B48     		ldr	r0, .L664
 5568              		.loc 1 400 0
 5569 0060 BDE87040 		pop	{r4, r5, r6, lr}
 5570              		.cfi_remember_state
 5571              		.cfi_restore 14
 5572              		.cfi_restore 6
 5573              		.cfi_restore 5
 5574              		.cfi_restore 4
 5575              		.cfi_def_cfa_offset 0
 5576              	.LVL393:
 5577              		.loc 1 390 0
 5578 0064 FFF7FEBF 		b	mcpwm_foc_set_configuration
 5579              	.LVL394:
 5580              	.L652:
 5581              		.cfi_restore_state
 5582              		.loc 1 386 0
 5583 0068 3848     		ldr	r0, .L664
 5584              		.loc 1 400 0
 5585 006a BDE87040 		pop	{r4, r5, r6, lr}
 5586              		.cfi_remember_state
ARM GAS  /tmp/cclp9RuQ.s 			page 99


 5587              		.cfi_restore 14
 5588              		.cfi_restore 6
 5589              		.cfi_restore 5
 5590              		.cfi_restore 4
 5591              		.cfi_def_cfa_offset 0
 5592              	.LVL395:
 5593              		.loc 1 386 0
 5594 006e FFF7FEBF 		b	mcpwm_set_configuration
 5595              	.LVL396:
 5596              	.L662:
 5597              		.cfi_restore_state
 5598              		.loc 1 352 0
 5599 0072 FFF7FEFF 		bl	mcpwm_deinit
 5600              	.LVL397:
 5601              		.loc 1 353 0
 5602 0076 FFF7FEFF 		bl	mcpwm_foc_deinit
 5603              	.LVL398:
 5604              		.loc 1 354 0
 5605 007a FFF7FEFF 		bl	gpdrive_deinit
 5606              	.LVL399:
 5607              		.loc 1 356 0
 5608 007e 2146     		mov	r1, r4
 5609 0080 4FF4E472 		mov	r2, #456
 5610 0084 3148     		ldr	r0, .L664
 5611 0086 FFF7FEFF 		bl	memcpy
 5612              	.LVL400:
 5613              		.loc 1 358 0
 5614 008a AB78     		ldrb	r3, [r5, #2]	@ zero_extendqisi2
 5615 008c 032B     		cmp	r3, #3
 5616 008e D8D8     		bhi	.L646
 5617 0090 DFE803F0 		tbb	[pc, r3]
 5618              	.L648:
 5619 0094 1C       		.byte	(.L647-.L648)/2
 5620 0095 1C       		.byte	(.L647-.L648)/2
 5621 0096 18       		.byte	(.L649-.L648)/2
 5622 0097 14       		.byte	(.L650-.L648)/2
 5623              	.LVL401:
 5624              		.p2align 1
 5625              	.L660:
 5626              		.loc 1 292 0
 5627 0098 FFF7FEFF 		bl	encoder_deinit
 5628              	.LVL402:
 5629              		.loc 1 293 0
 5630 009c 94F89831 		ldrb	r3, [r4, #408]	@ zero_extendqisi2
 5631 00a0 013B     		subs	r3, r3, #1
 5632 00a2 042B     		cmp	r3, #4
 5633 00a4 B7D8     		bhi	.L636
 5634 00a6 DFE803F0 		tbb	[pc, r3]
 5635              	.L638:
 5636 00aa 40       		.byte	(.L637-.L638)/2
 5637 00ab 3B       		.byte	(.L639-.L638)/2
 5638 00ac 36       		.byte	(.L640-.L638)/2
 5639 00ad 27       		.byte	(.L641-.L638)/2
 5640 00ae 15       		.byte	(.L642-.L638)/2
 5641 00af 00       		.p2align 1
 5642              	.L634:
 5643              		.loc 1 400 0
ARM GAS  /tmp/cclp9RuQ.s 			page 100


 5644 00b0 70BD     		pop	{r4, r5, r6, pc}
 5645              	.LVL403:
 5646              	.L661:
 5647              		.loc 1 331 0
 5648 00b2 D4F89401 		ldr	r0, [r4, #404]
 5649 00b6 FFF7FEFF 		bl	encoder_set_counts
 5650              	.LVL404:
 5651 00ba ACE7     		b	.L636
 5652              	.L650:
 5653              		.loc 1 369 0
 5654 00bc 2348     		ldr	r0, .L664
 5655 00be FFF7FEFF 		bl	gpdrive_init
 5656              	.LVL405:
 5657              		.loc 1 370 0
 5658 00c2 BEE7     		b	.L646
 5659              	.L649:
 5660              		.loc 1 365 0
 5661 00c4 2148     		ldr	r0, .L664
 5662 00c6 FFF7FEFF 		bl	mcpwm_foc_init
 5663              	.LVL406:
 5664              		.loc 1 366 0
 5665 00ca BAE7     		b	.L646
 5666              	.L647:
 5667              		.loc 1 361 0
 5668 00cc 1F48     		ldr	r0, .L664
 5669 00ce FFF7FEFF 		bl	mcpwm_init
 5670              	.LVL407:
 5671              		.loc 1 362 0
 5672 00d2 B6E7     		b	.L646
 5673              	.L642:
 5674              		.loc 1 313 0
 5675 00d4 FFF7FEFF 		bl	app_get_configuration
 5676              	.LVL408:
 5677 00d8 1E4E     		ldr	r6, .L664+8
 5678 00da 0146     		mov	r1, r0
 5679 00dc 4FF4BC72 		mov	r2, #376
 5680 00e0 3046     		mov	r0, r6
 5681 00e2 FFF7FEFF 		bl	memcpy
 5682              	.LVL409:
 5683              		.loc 1 316 0
 5684 00e6 B37E     		ldrb	r3, [r6, #26]	@ zero_extendqisi2
 5685              		.loc 1 314 0
 5686 00e8 023B     		subs	r3, r3, #2
 5687 00ea 032B     		cmp	r3, #3
 5688 00ec 24D9     		bls	.L663
 5689              	.L643:
 5690              		.loc 1 322 0
 5691 00ee FFF7FEFF 		bl	encoder_init_ts5700n8501
 5692              	.LVL410:
 5693 00f2 94F89831 		ldrb	r3, [r4, #408]	@ zero_extendqisi2
 5694              		.loc 1 323 0
 5695 00f6 8CE7     		b	.L635
 5696              	.L641:
 5697              		.loc 1 307 0
 5698 00f8 95ED330A 		vldr.32	s0, [r5, #204]
 5699 00fc D5ED320A 		vldr.32	s1, [r5, #200]
 5700 0100 95ED351A 		vldr.32	s2, [r5, #212]
ARM GAS  /tmp/cclp9RuQ.s 			page 101


 5701 0104 D5ED341A 		vldr.32	s3, [r5, #208]
 5702 0108 95ED362A 		vldr.32	s4, [r5, #216]
 5703 010c FFF7FEFF 		bl	encoder_init_sincos
 5704              	.LVL411:
 5705 0110 94F89831 		ldrb	r3, [r4, #408]	@ zero_extendqisi2
 5706              		.loc 1 310 0
 5707 0114 7DE7     		b	.L635
 5708              	.L640:
 5709              		.loc 1 303 0
 5710 0116 FFF7FEFF 		bl	encoder_init_ad2s1205_spi
 5711              	.LVL412:
 5712 011a 94F89831 		ldrb	r3, [r4, #408]	@ zero_extendqisi2
 5713              		.loc 1 304 0
 5714 011e 78E7     		b	.L635
 5715              	.L639:
 5716              		.loc 1 299 0
 5717 0120 FFF7FEFF 		bl	encoder_init_as5047p_spi
 5718              	.LVL413:
 5719 0124 94F89831 		ldrb	r3, [r4, #408]	@ zero_extendqisi2
 5720              		.loc 1 300 0
 5721 0128 73E7     		b	.L635
 5722              	.L637:
 5723              		.loc 1 295 0
 5724 012a D4F89401 		ldr	r0, [r4, #404]
 5725 012e FFF7FEFF 		bl	encoder_init_abi
 5726              	.LVL414:
 5727 0132 94F89831 		ldrb	r3, [r4, #408]	@ zero_extendqisi2
 5728              		.loc 1 296 0
 5729 0136 6CE7     		b	.L635
 5730              	.L663:
 5731              		.loc 1 318 0
 5732 0138 0023     		movs	r3, #0
 5733              		.loc 1 319 0
 5734 013a 3046     		mov	r0, r6
 5735              		.loc 1 318 0
 5736 013c B376     		strb	r3, [r6, #26]
 5737              		.loc 1 319 0
 5738 013e FFF7FEFF 		bl	conf_general_store_app_configuration
 5739              	.LVL415:
 5740              		.loc 1 320 0
 5741 0142 3046     		mov	r0, r6
 5742 0144 FFF7FEFF 		bl	app_set_configuration
 5743              	.LVL416:
 5744 0148 D1E7     		b	.L643
 5745              	.L665:
 5746 014a 00BF     		.align	2
 5747              	.L664:
 5748 014c 00000000 		.word	.LANCHOR8
 5749 0150 00000000 		.word	.LANCHOR10
 5750 0154 00000000 		.word	.LANCHOR54
 5751              		.cfi_endproc
 5752              	.LFE258:
 5753              		.size	mc_interface_set_configuration, .-mc_interface_set_configuration
 5754              		.section	.text.mc_interface_set_cell_count,"ax",%progbits
 5755              		.align	1
 5756              		.p2align 4,,15
 5757              		.global	mc_interface_set_cell_count
ARM GAS  /tmp/cclp9RuQ.s 			page 102


 5758              		.syntax unified
 5759              		.thumb
 5760              		.thumb_func
 5761              		.fpu fpv4-sp-d16
 5762              		.type	mc_interface_set_cell_count, %function
 5763              	mc_interface_set_cell_count:
 5764              	.LFB298:
 5765              		.loc 1 745 0
 5766              		.cfi_startproc
 5767              		@ args = 0, pretend = 0, frame = 456
 5768              		@ frame_needed = 0, uses_anonymous_args = 0
 5769              	.LVL417:
 5770 0000 10B5     		push	{r4, lr}
 5771              		.cfi_def_cfa_offset 8
 5772              		.cfi_offset 4, -8
 5773              		.cfi_offset 14, -4
 5774 0002 F2B0     		sub	sp, sp, #456
 5775              		.cfi_def_cfa_offset 464
 5776              		.loc 1 745 0
 5777 0004 0446     		mov	r4, r0
 5778              		.loc 1 746 0
 5779 0006 4FF4E472 		mov	r2, #456
 5780 000a 6846     		mov	r0, sp
 5781              	.LVL418:
 5782 000c 1349     		ldr	r1, .L669
 5783 000e FFF7FEFF 		bl	memcpy
 5784              	.LVL419:
 5785              		.loc 1 756 0
 5786 0012 709B     		ldr	r3, [sp, #448]
 5787 0014 A342     		cmp	r3, r4
 5788 0016 1CD0     		beq	.L667
 5789              		.loc 1 759 0
 5790 0018 07EE904A 		vmov	s15, r4	@ int
 5791              		.loc 1 760 0
 5792 001c 9FED106A 		vldr.32	s12, .L669+4
 5793 0020 DFED106A 		vldr.32	s13, .L669+8
 5794              		.loc 1 761 0
 5795 0024 9FED107A 		vldr.32	s14, .L669+12
 5796              		.loc 1 758 0
 5797 0028 7094     		str	r4, [sp, #448]
 5798              		.loc 1 759 0
 5799 002a F8EE677A 		vcvt.f32.u32	s15, s15
 5800              		.loc 1 762 0
 5801 002e F0EE045A 		vmov.f32	s11, #2.5e+0
 5802              		.loc 1 760 0
 5803 0032 E7EE866A 		vfma.f32	s13, s15, s12
 5804              		.loc 1 761 0
 5805 0036 27EE877A 		vmul.f32	s14, s15, s14
 5806              		.loc 1 759 0
 5807 003a 37EEA76A 		vadd.f32	s12, s15, s15
 5808              		.loc 1 762 0
 5809 003e 67EEA57A 		vmul.f32	s15, s15, s11
 5810              		.loc 1 760 0
 5811 0042 CDED0C6A 		vstr.32	s13, [sp, #48]
 5812              		.loc 1 759 0
 5813 0046 8DED0B6A 		vstr.32	s12, [sp, #44]
 5814              		.loc 1 761 0
ARM GAS  /tmp/cclp9RuQ.s 			page 103


 5815 004a 8DED0D7A 		vstr.32	s14, [sp, #52]
 5816              		.loc 1 762 0
 5817 004e CDED0E7A 		vstr.32	s15, [sp, #56]
 5818              	.L667:
 5819              		.loc 1 765 0
 5820 0052 6846     		mov	r0, sp
 5821 0054 FFF7FEFF 		bl	mc_interface_set_configuration
 5822              	.LVL420:
 5823              		.loc 1 766 0
 5824 0058 72B0     		add	sp, sp, #456
 5825              		.cfi_def_cfa_offset 8
 5826              		@ sp needed
 5827 005a 10BD     		pop	{r4, pc}
 5828              	.L670:
 5829              		.align	2
 5830              	.L669:
 5831 005c 00000000 		.word	.LANCHOR8
 5832 0060 66668640 		.word	1082549862
 5833 0064 CDCC2C40 		.word	1076677837
 5834 0068 9A993940 		.word	1077516698
 5835              		.cfi_endproc
 5836              	.LFE298:
 5837              		.size	mc_interface_set_cell_count, .-mc_interface_set_cell_count
 5838              		.section	.text.mc_interface_get_tachometer_abs_value,"ax",%progbits
 5839              		.align	1
 5840              		.p2align 4,,15
 5841              		.global	mc_interface_get_tachometer_abs_value
 5842              		.syntax unified
 5843              		.thumb
 5844              		.thumb_func
 5845              		.fpu fpv4-sp-d16
 5846              		.type	mc_interface_get_tachometer_abs_value, %function
 5847              	mc_interface_get_tachometer_abs_value:
 5848              	.LFB332:
 5849              		.loc 1 1380 0
 5850              		.cfi_startproc
 5851              		@ args = 0, pretend = 0, frame = 0
 5852              		@ frame_needed = 0, uses_anonymous_args = 0
 5853              		@ link register save eliminated.
 5854              	.LVL421:
 5855              		.loc 1 1383 0
 5856 0000 064B     		ldr	r3, .L677
 5857 0002 9B78     		ldrb	r3, [r3, #2]	@ zero_extendqisi2
 5858 0004 DBB2     		uxtb	r3, r3
 5859 0006 012B     		cmp	r3, #1
 5860 0008 05D9     		bls	.L673
 5861 000a 022B     		cmp	r3, #2
 5862 000c 01D1     		bne	.L676
 5863              		.loc 1 1390 0
 5864 000e FFF7FEBF 		b	mcpwm_foc_get_tachometer_abs_value
 5865              	.LVL422:
 5866              	.L676:
 5867              		.loc 1 1398 0
 5868 0012 0020     		movs	r0, #0
 5869              	.LVL423:
 5870 0014 7047     		bx	lr
 5871              	.LVL424:
ARM GAS  /tmp/cclp9RuQ.s 			page 104


 5872              	.L673:
 5873              		.loc 1 1386 0
 5874 0016 FFF7FEBF 		b	mcpwm_get_tachometer_abs_value
 5875              	.LVL425:
 5876              	.L678:
 5877 001a 00BF     		.align	2
 5878              	.L677:
 5879 001c 00000000 		.word	.LANCHOR8
 5880              		.cfi_endproc
 5881              	.LFE332:
 5882              		.size	mc_interface_get_tachometer_abs_value, .-mc_interface_get_tachometer_abs_value
 5883              		.section	.text.mc_interface_set_tachometer_abs_value,"ax",%progbits
 5884              		.align	1
 5885              		.p2align 4,,15
 5886              		.global	mc_interface_set_tachometer_abs_value
 5887              		.syntax unified
 5888              		.thumb
 5889              		.thumb_func
 5890              		.fpu fpv4-sp-d16
 5891              		.type	mc_interface_set_tachometer_abs_value, %function
 5892              	mc_interface_set_tachometer_abs_value:
 5893              	.LFB333:
 5894              		.loc 1 1400 0
 5895              		.cfi_startproc
 5896              		@ args = 0, pretend = 0, frame = 0
 5897              		@ frame_needed = 0, uses_anonymous_args = 0
 5898              		@ link register save eliminated.
 5899              	.LVL426:
 5900              		.loc 1 1401 0
 5901 0000 FFF7FEBF 		b	mcpwm_foc_set_tachometer_abs_value
 5902              	.LVL427:
 5903              		.cfi_endproc
 5904              	.LFE333:
 5905              		.size	mc_interface_set_tachometer_abs_value, .-mc_interface_set_tachometer_abs_value
 5906              		.section	.text.mc_interface_get_odo_value,"ax",%progbits
 5907              		.align	1
 5908              		.p2align 4,,15
 5909              		.global	mc_interface_get_odo_value
 5910              		.syntax unified
 5911              		.thumb
 5912              		.thumb_func
 5913              		.fpu fpv4-sp-d16
 5914              		.type	mc_interface_get_odo_value, %function
 5915              	mc_interface_get_odo_value:
 5916              	.LFB334:
 5917              		.loc 1 1406 0
 5918              		.cfi_startproc
 5919              		@ args = 0, pretend = 0, frame = 8
 5920              		@ frame_needed = 0, uses_anonymous_args = 0
 5921 0000 10B5     		push	{r4, lr}
 5922              		.cfi_def_cfa_offset 8
 5923              		.cfi_offset 4, -8
 5924              		.cfi_offset 14, -4
 5925 0002 2DED028B 		vpush.64	{d8}
 5926              		.cfi_def_cfa_offset 16
 5927              		.cfi_offset 80, -16
 5928              		.cfi_offset 81, -12
ARM GAS  /tmp/cclp9RuQ.s 			page 105


 5929              		.loc 1 1408 0
 5930 0006 2A4B     		ldr	r3, .L687
 5931 0008 9FED2A6A 		vldr.32	s12, .L687+4
 5932 000c 93ED6E7A 		vldr.32	s14, [r3, #440]
 5933 0010 93F8B121 		ldrb	r2, [r3, #433]	@ zero_extendqisi2
 5934 0014 D3ED6D6A 		vldr.32	s13, [r3, #436]
 5935              		.loc 1 1411 0
 5936 0018 9B78     		ldrb	r3, [r3, #2]	@ zero_extendqisi2
 5937              		.loc 1 1408 0
 5938 001a 07EE902A 		vmov	s15, r2	@ int
 5939 001e F8EEE77A 		vcvt.f32.s32	s15, s15
 5940 0022 F0EE085A 		vmov.f32	s11, #3.0e+0
 5941 0026 67EEA57A 		vmul.f32	s15, s15, s11
 5942 002a 27EE067A 		vmul.f32	s14, s14, s12
 5943 002e 67EEA67A 		vmul.f32	s15, s15, s13
 5944              		.loc 1 1411 0
 5945 0032 DBB2     		uxtb	r3, r3
 5946 0034 012B     		cmp	r3, #1
 5947              		.loc 1 1406 0
 5948 0036 82B0     		sub	sp, sp, #8
 5949              		.cfi_def_cfa_offset 24
 5950              		.loc 1 1408 0
 5951 0038 87EE278A 		vdiv.f32	s16, s14, s15
 5952              	.LVL428:
 5953              		.loc 1 1411 0
 5954 003c 20D9     		bls	.L682
 5955 003e 022B     		cmp	r3, #2
 5956 0040 06D0     		beq	.L683
 5957              		.loc 1 1409 0
 5958 0042 1223     		movs	r3, #18
 5959 0044 0193     		str	r3, [sp, #4]
 5960              		.loc 1 1427 0
 5961 0046 0198     		ldr	r0, [sp, #4]
 5962 0048 02B0     		add	sp, sp, #8
 5963              		.cfi_remember_state
 5964              		.cfi_def_cfa_offset 16
 5965              		@ sp needed
 5966 004a BDEC028B 		vldm	sp!, {d8}
 5967              		.cfi_restore 80
 5968              		.cfi_restore 81
 5969              		.cfi_def_cfa_offset 8
 5970              	.LVL429:
 5971 004e 10BD     		pop	{r4, pc}
 5972              	.LVL430:
 5973              	.L683:
 5974              		.cfi_restore_state
 5975              		.loc 1 1418 0
 5976 0050 194B     		ldr	r3, .L687+8
 5977 0052 0020     		movs	r0, #0
 5978 0054 1C68     		ldr	r4, [r3]
 5979 0056 FFF7FEFF 		bl	mcpwm_foc_get_tachometer_abs_value
 5980              	.LVL431:
 5981 005a 07EE904A 		vmov	s15, r4	@ int
 5982 005e 07EE100A 		vmov	s14, r0	@ int
 5983 0062 F8EE677A 		vcvt.f32.u32	s15, s15
 5984 0066 B8EE477A 		vcvt.f32.u32	s14, s14
 5985 006a E7EE087A 		vfma.f32	s15, s14, s16
ARM GAS  /tmp/cclp9RuQ.s 			page 106


 5986 006e FCEEE77A 		vcvt.u32.f32	s15, s15
 5987 0072 CDED017A 		vstr.32	s15, [sp, #4]	@ int
 5988              	.LVL432:
 5989              		.loc 1 1427 0
 5990 0076 0198     		ldr	r0, [sp, #4]
 5991 0078 02B0     		add	sp, sp, #8
 5992              		.cfi_remember_state
 5993              		.cfi_def_cfa_offset 16
 5994              		@ sp needed
 5995 007a BDEC028B 		vldm	sp!, {d8}
 5996              		.cfi_restore 80
 5997              		.cfi_restore 81
 5998              		.cfi_def_cfa_offset 8
 5999              	.LVL433:
 6000 007e 10BD     		pop	{r4, pc}
 6001              	.LVL434:
 6002              	.L682:
 6003              		.cfi_restore_state
 6004              		.loc 1 1414 0
 6005 0080 0D4B     		ldr	r3, .L687+8
 6006 0082 0020     		movs	r0, #0
 6007 0084 1C68     		ldr	r4, [r3]
 6008 0086 FFF7FEFF 		bl	mcpwm_get_tachometer_abs_value
 6009              	.LVL435:
 6010 008a 07EE904A 		vmov	s15, r4	@ int
 6011 008e 07EE100A 		vmov	s14, r0	@ int
 6012 0092 F8EE677A 		vcvt.f32.u32	s15, s15
 6013 0096 B8EEC77A 		vcvt.f32.s32	s14, s14
 6014 009a E7EE087A 		vfma.f32	s15, s14, s16
 6015 009e FCEEE77A 		vcvt.u32.f32	s15, s15
 6016 00a2 CDED017A 		vstr.32	s15, [sp, #4]	@ int
 6017              	.LVL436:
 6018              		.loc 1 1427 0
 6019 00a6 0198     		ldr	r0, [sp, #4]
 6020 00a8 02B0     		add	sp, sp, #8
 6021              		.cfi_def_cfa_offset 16
 6022              		@ sp needed
 6023 00aa BDEC028B 		vldm	sp!, {d8}
 6024              		.cfi_restore 80
 6025              		.cfi_restore 81
 6026              		.cfi_def_cfa_offset 8
 6027              	.LVL437:
 6028 00ae 10BD     		pop	{r4, pc}
 6029              	.L688:
 6030              		.align	2
 6031              	.L687:
 6032 00b0 00000000 		.word	.LANCHOR8
 6033 00b4 DB0F4940 		.word	1078530011
 6034 00b8 00000000 		.word	.LANCHOR75
 6035              		.cfi_endproc
 6036              	.LFE334:
 6037              		.size	mc_interface_get_odo_value, .-mc_interface_get_odo_value
 6038              		.section	.text.timer_thread,"ax",%progbits
 6039              		.align	1
 6040              		.p2align 4,,15
 6041              		.syntax unified
 6042              		.thumb
ARM GAS  /tmp/cclp9RuQ.s 			page 107


 6043              		.thumb_func
 6044              		.fpu fpv4-sp-d16
 6045              		.type	timer_thread, %function
 6046              	timer_thread:
 6047              	.LFB362:
 6048              		.loc 1 2767 0
 6049              		.cfi_startproc
 6050              		@ Volatile: function does not return.
 6051              		@ args = 0, pretend = 0, frame = 16
 6052              		@ frame_needed = 0, uses_anonymous_args = 0
 6053              	.LVL438:
 6054 0000 2DE98048 		push	{r7, fp, lr}
 6055              		.cfi_def_cfa_offset 12
 6056              		.cfi_offset 7, -12
 6057              		.cfi_offset 11, -8
 6058              		.cfi_offset 14, -4
 6059              	.LBB367:
 6060              	.LBB368:
 6061              		.loc 2 135 0
 6062 0004 914F     		ldr	r7, .L751
 6063 0006 924D     		ldr	r5, .L751+4
 6064 0008 BB69     		ldr	r3, [r7, #24]
 6065 000a 924A     		ldr	r2, .L751+8
 6066 000c 9A61     		str	r2, [r3, #24]
 6067              	.LBE368:
 6068              	.LBE367:
 6069              	.LBB369:
 6070              		.loc 1 2775 0
 6071 000e 2B68     		ldr	r3, [r5]
 6072 0010 914E     		ldr	r6, .L751+12
 6073 0012 DFF85882 		ldr	r8, .L751+32
 6074 0016 914C     		ldr	r4, .L751+16
 6075 0018 DFF854B2 		ldr	fp, .L751+36
 6076              		.loc 1 2778 0
 6077 001c DFF85492 		ldr	r9, .L751+40
 6078              		.loc 1 2812 0
 6079 0020 DFED8F8A 		vldr.32	s17, .L751+20
 6080 0024 9FED8F8A 		vldr.32	s16, .L751+24
 6081              		.loc 1 2813 0
 6082 0028 DFF84CA2 		ldr	r10, .L751+44
 6083              		.loc 1 2826 0
 6084 002c DFED8E9A 		vldr.32	s19, .L751+28
 6085              		.loc 1 2775 0
 6086 0030 002B     		cmp	r3, #0
 6087              	.LBE369:
 6088              		.loc 1 2767 0
 6089 0032 85B0     		sub	sp, sp, #20
 6090              		.cfi_def_cfa_offset 32
 6091              	.LBB406:
 6092              		.loc 1 2778 0
 6093 0034 B3EE049A 		vmov.f32	s18, #2.0e+1
 6094              		.loc 1 2775 0
 6095 0038 36DD     		ble	.L690
 6096              	.LVL439:
 6097              	.L750:
 6098              		.loc 1 2776 0
 6099 003a 013B     		subs	r3, r3, #1
ARM GAS  /tmp/cclp9RuQ.s 			page 108


 6100 003c 2B60     		str	r3, [r5]
 6101              	.L691:
 6102              		.loc 1 2784 0
 6103 003e FFF7FEFF 		bl	update_override_limits.constprop.6
 6104              	.LVL440:
 6105              		.loc 1 2786 0
 6106 0042 3378     		ldrb	r3, [r6]	@ zero_extendqisi2
 6107 0044 022B     		cmp	r3, #2
 6108 0046 46D0     		beq	.L746
 6109              	.L695:
 6110              		.loc 1 2794 0
 6111 0048 94F8B031 		ldrb	r3, [r4, #432]	@ zero_extendqisi2
 6112 004c 032B     		cmp	r3, #3
 6113 004e 1CD8     		bhi	.L696
 6114 0050 DFE803F0 		tbb	[pc, r3]
 6115              	.L698:
 6116 0054 4D       		.byte	(.L697-.L698)/2
 6117 0055 C9       		.byte	(.L699-.L698)/2
 6118 0056 C2       		.byte	(.L700-.L698)/2
 6119 0057 02       		.byte	(.L701-.L698)/2
 6120              		.p2align 1
 6121              	.L701:
 6122              	.LBB370:
 6123              	.LBB371:
 6124              		.file 3 "ChibiOS_3.0.2/os/rt/include/chvt.h"
 6125              		.loc 3 231 0
 6126 0058 BA6A     		ldr	r2, [r7, #40]
 6127              	.LBE371:
 6128              	.LBE370:
 6129              		.loc 1 2812 0
 6130 005a 42F20F73 		movw	r3, #9999
 6131 005e 9A42     		cmp	r2, r3
 6132 0060 13D9     		bls	.L696
 6133              	.L744:
 6134              		.loc 1 2812 0 is_stmt 0 discriminator 1
 6135 0062 BBF81630 		ldrh	r3, [fp, #22]
 6136 0066 94ED0E7A 		vldr.32	s14, [r4, #56]
 6137 006a 07EE903A 		vmov	s15, r3	@ int
 6138 006e F8EE677A 		vcvt.f32.u32	s15, s15
 6139 0072 67EEA87A 		vmul.f32	s15, s15, s17
 6140 0076 67EE887A 		vmul.f32	s15, s15, s16
 6141 007a F4EEC77A 		vcmpe.f32	s15, s14
 6142 007e F1EE10FA 		vmrs	APSR_nzcv, FPSCR
 6143              		.loc 1 2813 0 is_stmt 1 discriminator 1
 6144 0082 C4BF     		itt	gt
 6145 0084 0423     		movgt	r3, #4
 6146 0086 AAF81830 		strhgt	r3, [r10, #24]	@ movhi
 6147              	.L696:
 6148              		.loc 1 2824 0
 6149 008a A378     		ldrb	r3, [r4, #2]	@ zero_extendqisi2
 6150 008c 022B     		cmp	r3, #2
 6151 008e 34D0     		beq	.L747
 6152              	.L706:
 6153              		.loc 1 2831 0
 6154 0090 A378     		ldrb	r3, [r4, #2]	@ zero_extendqisi2
 6155 0092 022B     		cmp	r3, #2
 6156 0094 4AD0     		beq	.L748
ARM GAS  /tmp/cclp9RuQ.s 			page 109


 6157              	.L711:
 6158              		.loc 1 2842 0
 6159 0096 A378     		ldrb	r3, [r4, #2]	@ zero_extendqisi2
 6160 0098 022B     		cmp	r3, #2
 6161 009a 6CD0     		beq	.L749
 6162              	.L718:
 6163              		.loc 1 2862 0
 6164 009c 0A20     		movs	r0, #10
 6165 009e FFF7FEFF 		bl	chThdSleep
 6166              	.LVL441:
 6167              		.loc 1 2775 0
 6168 00a2 2B68     		ldr	r3, [r5]
 6169 00a4 002B     		cmp	r3, #0
 6170 00a6 C8DC     		bgt	.L750
 6171              	.L690:
 6172              		.loc 1 2778 0
 6173 00a8 D9F81030 		ldr	r3, [r9, #16]
 6174 00ac 1B06     		lsls	r3, r3, #24
 6175 00ae C6D5     		bpl	.L691
 6176              		.loc 1 2778 0 is_stmt 0 discriminator 1
 6177 00b0 FFF7FEFF 		bl	mc_interface_get_rpm
 6178              	.LVL442:
 6179 00b4 B0EEC00A 		vabs.f32	s0, s0
 6180 00b8 B4EEC90A 		vcmpe.f32	s0, s18
 6181 00bc F1EE10FA 		vmrs	APSR_nzcv, FPSCR
 6182 00c0 BDD8     		bhi	.L691
 6183              		.loc 1 2780 0 is_stmt 1
 6184 00c2 0123     		movs	r3, #1
 6185              		.loc 1 2779 0
 6186 00c4 0022     		movs	r2, #0
 6187              		.loc 1 2780 0
 6188 00c6 88F80030 		strb	r3, [r8]
 6189              		.loc 1 2779 0
 6190 00ca 3270     		strb	r2, [r6]
 6191              		.loc 1 2784 0
 6192 00cc FFF7FEFF 		bl	update_override_limits.constprop.6
 6193              	.LVL443:
 6194              		.loc 1 2786 0
 6195 00d0 3378     		ldrb	r3, [r6]	@ zero_extendqisi2
 6196 00d2 022B     		cmp	r3, #2
 6197 00d4 B8D1     		bne	.L695
 6198              	.L746:
 6199              		.loc 1 2786 0 is_stmt 0 discriminator 1
 6200 00d6 98F80030 		ldrb	r3, [r8]	@ zero_extendqisi2
 6201 00da 002B     		cmp	r3, #0
 6202 00dc B4D0     		beq	.L695
 6203              		.loc 1 2789 0 is_stmt 1
 6204 00de FFF7FEFF 		bl	mc_interface_get_odo_value
 6205              	.LVL444:
 6206 00e2 FFF7FEFF 		bl	save_odo_value
 6207              	.LVL445:
 6208              		.loc 1 2790 0
 6209 00e6 0023     		movs	r3, #0
 6210 00e8 88F80030 		strb	r3, [r8]
 6211 00ec ACE7     		b	.L695
 6212              	.L697:
 6213              		.loc 1 2796 0
ARM GAS  /tmp/cclp9RuQ.s 			page 110


 6214 00ee 0423     		movs	r3, #4
 6215 00f0 AAF81A30 		strh	r3, [r10, #26]	@ movhi
 6216              		.loc 1 2824 0
 6217 00f4 A378     		ldrb	r3, [r4, #2]	@ zero_extendqisi2
 6218 00f6 022B     		cmp	r3, #2
 6219 00f8 CAD1     		bne	.L706
 6220              	.L747:
 6221              		.loc 1 2825 0 discriminator 1
 6222 00fa 94F81431 		ldrb	r3, [r4, #276]	@ zero_extendqisi2
 6223              		.loc 1 2824 0 discriminator 1
 6224 00fe 012B     		cmp	r3, #1
 6225 0100 C6D1     		bne	.L706
 6226              		.loc 1 2826 0
 6227 0102 FFF7FEFF 		bl	mcpwm_foc_is_using_encoder
 6228              	.LVL446:
 6229              		.loc 1 2825 0
 6230 0106 0028     		cmp	r0, #0
 6231 0108 C2D0     		beq	.L706
 6232              		.loc 1 2827 0
 6233 010a FFF7FEFF 		bl	encoder_spi_get_error_rate
 6234              	.LVL447:
 6235              		.loc 1 2826 0
 6236 010e B4EEE90A 		vcmpe.f32	s0, s19
 6237 0112 F1EE10FA 		vmrs	APSR_nzcv, FPSCR
 6238 0116 BBDD     		ble	.L706
 6239              	.LVL448:
 6240              	.LBB372:
 6241              	.LBB373:
 6242              		.loc 1 1846 0
 6243 0118 3378     		ldrb	r3, [r6]	@ zero_extendqisi2
 6244 011a 0B2B     		cmp	r3, #11
 6245 011c 40F09180 		bne	.L709
 6246              		.loc 1 1847 0
 6247 0120 D4F88831 		ldr	r3, [r4, #392]
 6248 0124 2B60     		str	r3, [r5]
 6249              	.LBE373:
 6250              	.LBE372:
 6251              		.loc 1 2831 0
 6252 0126 A378     		ldrb	r3, [r4, #2]	@ zero_extendqisi2
 6253 0128 022B     		cmp	r3, #2
 6254 012a B4D1     		bne	.L711
 6255              	.LVL449:
 6256              	.L748:
 6257              		.loc 1 2832 0 discriminator 1
 6258 012c 94F81431 		ldrb	r3, [r4, #276]	@ zero_extendqisi2
 6259              		.loc 1 2831 0 discriminator 1
 6260 0130 012B     		cmp	r3, #1
 6261 0132 B0D1     		bne	.L711
 6262              		.loc 1 2833 0
 6263 0134 94F89831 		ldrb	r3, [r4, #408]	@ zero_extendqisi2
 6264              		.loc 1 2832 0
 6265 0138 042B     		cmp	r3, #4
 6266 013a ACD1     		bne	.L711
 6267              		.loc 1 2835 0
 6268 013c FFF7FEFF 		bl	encoder_sincos_get_signal_below_min_error_rate
 6269              	.LVL450:
 6270 0140 B4EEE90A 		vcmpe.f32	s0, s19
ARM GAS  /tmp/cclp9RuQ.s 			page 111


 6271 0144 F1EE10FA 		vmrs	APSR_nzcv, FPSCR
 6272 0148 05DD     		ble	.L713
 6273              	.LVL451:
 6274              	.LBB375:
 6275              	.LBB376:
 6276              		.loc 1 1846 0
 6277 014a 3378     		ldrb	r3, [r6]	@ zero_extendqisi2
 6278 014c 0C2B     		cmp	r3, #12
 6279 014e 70D1     		bne	.L715
 6280              		.loc 1 1847 0
 6281 0150 D4F88831 		ldr	r3, [r4, #392]
 6282 0154 2B60     		str	r3, [r5]
 6283              	.LVL452:
 6284              	.L713:
 6285              	.LBE376:
 6286              	.LBE375:
 6287              		.loc 1 2837 0
 6288 0156 FFF7FEFF 		bl	encoder_sincos_get_signal_above_max_error_rate
 6289              	.LVL453:
 6290 015a B4EEE90A 		vcmpe.f32	s0, s19
 6291 015e F1EE10FA 		vmrs	APSR_nzcv, FPSCR
 6292 0162 98DD     		ble	.L711
 6293              	.LVL454:
 6294              	.LBB378:
 6295              	.LBB379:
 6296              		.loc 1 1846 0
 6297 0164 3378     		ldrb	r3, [r6]	@ zero_extendqisi2
 6298 0166 0D2B     		cmp	r3, #13
 6299 0168 67D1     		bne	.L717
 6300              		.loc 1 1847 0
 6301 016a D4F88831 		ldr	r3, [r4, #392]
 6302 016e 2B60     		str	r3, [r5]
 6303              	.LBE379:
 6304              	.LBE378:
 6305              		.loc 1 2842 0
 6306 0170 A378     		ldrb	r3, [r4, #2]	@ zero_extendqisi2
 6307 0172 022B     		cmp	r3, #2
 6308 0174 92D1     		bne	.L718
 6309              	.LVL455:
 6310              	.L749:
 6311              	.LBB381:
 6312              		.loc 1 2847 0
 6313 0176 03AA     		add	r2, sp, #12
 6314 0178 02A9     		add	r1, sp, #8
 6315 017a 01A8     		add	r0, sp, #4
 6316 017c FFF7FEFF 		bl	mcpwm_foc_get_current_offsets
 6317              	.LVL456:
 6318              		.loc 1 2849 0
 6319 0180 019B     		ldr	r3, [sp, #4]
 6320 0182 A3F50063 		sub	r3, r3, #2048
 6321 0186 002B     		cmp	r3, #0
 6322 0188 B8BF     		it	lt
 6323 018a 5B42     		rsblt	r3, r3, #0
 6324 018c B3F51B7F 		cmp	r3, #620
 6325 0190 32DD     		ble	.L719
 6326              	.LVL457:
 6327              	.LBB382:
ARM GAS  /tmp/cclp9RuQ.s 			page 112


 6328              	.LBB383:
 6329              		.loc 1 1846 0
 6330 0192 3378     		ldrb	r3, [r6]	@ zero_extendqisi2
 6331 0194 0F2B     		cmp	r3, #15
 6332 0196 2CD1     		bne	.L720
 6333              	.LBE383:
 6334              	.LBE382:
 6335              		.loc 1 2852 0
 6336 0198 029B     		ldr	r3, [sp, #8]
 6337              	.LBB386:
 6338              	.LBB384:
 6339              		.loc 1 1847 0
 6340 019a D4F88821 		ldr	r2, [r4, #392]
 6341 019e 2A60     		str	r2, [r5]
 6342              	.LBE384:
 6343              	.LBE386:
 6344              		.loc 1 2852 0
 6345 01a0 A3F50063 		sub	r3, r3, #2048
 6346 01a4 002B     		cmp	r3, #0
 6347 01a6 B8BF     		it	lt
 6348 01a8 5B42     		rsblt	r3, r3, #0
 6349 01aa B3F51B7F 		cmp	r3, #620
 6350 01ae 02DD     		ble	.L722
 6351              	.LVL458:
 6352              	.L721:
 6353              	.LBB387:
 6354              	.LBB388:
 6355 01b0 1020     		movs	r0, #16
 6356 01b2 FFF7FEFF 		bl	mc_interface_fault_stop.part.5
 6357              	.LVL459:
 6358              	.L722:
 6359              	.LBE388:
 6360              	.LBE387:
 6361              		.loc 1 2856 0
 6362 01b6 039B     		ldr	r3, [sp, #12]
 6363 01b8 A3F50063 		sub	r3, r3, #2048
 6364 01bc 002B     		cmp	r3, #0
 6365 01be B8BF     		it	lt
 6366 01c0 5B42     		rsblt	r3, r3, #0
 6367 01c2 B3F51B7F 		cmp	r3, #620
 6368 01c6 7FF769AF 		ble	.L718
 6369              	.LVL460:
 6370              	.LBB391:
 6371              	.LBB392:
 6372              		.loc 1 1846 0
 6373 01ca 3378     		ldrb	r3, [r6]	@ zero_extendqisi2
 6374 01cc 112B     		cmp	r3, #17
 6375 01ce 2CD1     		bne	.L724
 6376              		.loc 1 1847 0
 6377 01d0 D4F88831 		ldr	r3, [r4, #392]
 6378 01d4 2B60     		str	r3, [r5]
 6379 01d6 61E7     		b	.L718
 6380              	.LVL461:
 6381              	.L700:
 6382              	.LBE392:
 6383              	.LBE391:
 6384              	.LBE381:
ARM GAS  /tmp/cclp9RuQ.s 			page 113


 6385              	.LBB398:
 6386              	.LBB399:
 6387              		.loc 3 231 0
 6388 01d8 BA6A     		ldr	r2, [r7, #40]
 6389              	.LBE399:
