ARM GAS  /tmp/ccJwocgn.s 			page 1


   1              		.cpu cortex-m4
   2              		.eabi_attribute 27, 1
   3              		.eabi_attribute 28, 1
   4              		.eabi_attribute 20, 1
   5              		.eabi_attribute 21, 1
   6              		.eabi_attribute 23, 3
   7              		.eabi_attribute 24, 1
   8              		.eabi_attribute 25, 1
   9              		.eabi_attribute 26, 1
  10              		.eabi_attribute 30, 2
  11              		.eabi_attribute 34, 1
  12              		.eabi_attribute 18, 4
  13              		.file	"drv8350.c"
  14              		.text
  15              	.Ltext0:
  16              		.cfi_sections	.debug_frame
  17              		.section	.text.spi_exchange,"ax",%progbits
  18              		.align	1
  19              		.p2align 4,,15
  20              		.syntax unified
  21              		.thumb
  22              		.thumb_func
  23              		.fpu fpv4-sp-d16
  24              		.type	spi_exchange, %function
  25              	spi_exchange:
  26              	.LFB269:
  27              		.file 1 "hwconf/drv8350.c"
  28              		.loc 1 382 0
  29              		.cfi_startproc
  30              		@ args = 0, pretend = 0, frame = 24
  31              		@ frame_needed = 0, uses_anonymous_args = 0
  32              	.LVL0:
  33 0000 2DE9F047 		push	{r4, r5, r6, r7, r8, r9, r10, lr}
  34              		.cfi_def_cfa_offset 32
  35              		.cfi_offset 4, -32
  36              		.cfi_offset 5, -28
  37              		.cfi_offset 6, -24
  38              		.cfi_offset 7, -20
  39              		.cfi_offset 8, -16
  40              		.cfi_offset 9, -12
  41              		.cfi_offset 10, -8
  42              		.cfi_offset 14, -4
  43              	.LBB172:
  44              	.LBB173:
  45              		.loc 1 429 0
  46 0004 384A     		ldr	r2, .L29
  47              	.LBE173:
  48              	.LBE172:
  49              		.loc 1 382 0
  50 0006 86B0     		sub	sp, sp, #24
  51              		.cfi_def_cfa_offset 56
  52              	.LBB175:
  53              	.LBB176:
  54              		.loc 1 437 0
  55 0008 0023     		movs	r3, #0
  56              	.LBE176:
  57              	.LBE175:
ARM GAS  /tmp/ccJwocgn.s 			page 2


  58              	.LBB181:
  59              	.LBB174:
  60              		.loc 1 429 0
  61 000a 4FF40071 		mov	r1, #512
  62 000e 5183     		strh	r1, [r2, #26]	@ movhi
  63              	.LBE174:
  64              	.LBE181:
  65              	.LBB182:
  66              	.LBB179:
  67              		.loc 1 437 0
  68 0010 0393     		str	r3, [sp, #12]
  69 0012 039B     		ldr	r3, [sp, #12]
  70 0014 092B     		cmp	r3, #9
  71              	.LBE179:
  72              	.LBE182:
  73              		.loc 1 382 0
  74 0016 0546     		mov	r5, r0
  75              	.LBB183:
  76              	.LBB180:
  77              		.loc 1 437 0
  78 0018 06DC     		bgt	.L2
  79              	.L3:
  80              	.LBB177:
  81              	.LBB178:
  82              		.file 2 "ChibiOS_3.0.2/os/ext/CMSIS/include/core_cmInstr.h"
  83              		.loc 2 327 0
  84              		.syntax unified
  85              	@ 327 "ChibiOS_3.0.2/os/ext/CMSIS/include/core_cmInstr.h" 1
  86 001a 00BF     		nop
  87              	@ 0 "" 2
  88              		.thumb
  89              		.syntax unified
  90              	.LBE178:
  91              	.LBE177:
  92              		.loc 1 437 0
  93 001c 039B     		ldr	r3, [sp, #12]
  94 001e 0133     		adds	r3, r3, #1
  95 0020 0393     		str	r3, [sp, #12]
  96 0022 039B     		ldr	r3, [sp, #12]
  97 0024 092B     		cmp	r3, #9
  98 0026 F8DD     		ble	.L3
  99              	.L2:
 100              	.LBE180:
 101              	.LBE183:
 102              		.loc 1 382 0
 103 0028 0026     		movs	r6, #0
 104              	.LBB184:
 105              	.LBB185:
 106              	.LBB186:
 107              	.LBB187:
 108              	.LBB188:
 109              		.loc 1 402 0
 110 002a 4FF48068 		mov	r8, #1024
 111              		.loc 1 399 0
 112 002e 2E4C     		ldr	r4, .L29
 113              	.LBB189:
 114              	.LBB190:
ARM GAS  /tmp/ccJwocgn.s 			page 3


 115              		.loc 1 437 0
 116 0030 B246     		mov	r10, r6
 117              	.LBE190:
 118              	.LBE189:
 119              		.loc 1 402 0
 120 0032 C146     		mov	r9, r8	@ movhi
 121              	.LBE188:
 122              	.LBE187:
 123              	.LBE186:
 124              	.LBE185:
 125              	.LBE184:
 126              		.loc 1 382 0
 127 0034 1027     		movs	r7, #16
 128              	.LVL1:
 129              	.L8:
 130              	.LBB211:
 131              	.LBB210:
 132              	.LBB209:
 133              	.LBB208:
 134              	.LBB207:
 135              		.loc 1 399 0
 136 0036 EA0B     		lsrs	r2, r5, #15
 137 0038 0CBF     		ite	eq
 138 003a 4FF08053 		moveq	r3, #268435456
 139 003e 0023     		movne	r3, #0
 140 0040 43EA0233 		orr	r3, r3, r2, lsl #12
 141 0044 A361     		str	r3, [r4, #24]
 142              		.loc 1 402 0
 143 0046 A4F81890 		strh	r9, [r4, #24]	@ movhi
 144              	.LBB196:
 145              	.LBB193:
 146              		.loc 1 437 0
 147 004a CDF814A0 		str	r10, [sp, #20]
 148 004e 059B     		ldr	r3, [sp, #20]
 149              	.LBE193:
 150              	.LBE196:
 151              		.loc 1 400 0
 152 0050 6D00     		lsls	r5, r5, #1
 153              	.LVL2:
 154              	.LBB197:
 155              	.LBB194:
 156              		.loc 1 437 0
 157 0052 092B     		cmp	r3, #9
 158              	.LBE194:
 159              	.LBE197:
 160              		.loc 1 400 0
 161 0054 ADB2     		uxth	r5, r5
 162              	.LVL3:
 163              	.LBB198:
 164              	.LBB195:
 165              		.loc 1 437 0
 166 0056 06DC     		bgt	.L12
 167              	.L5:
 168              	.LBB191:
 169              	.LBB192:
 170              		.loc 2 327 0
 171              		.syntax unified
ARM GAS  /tmp/ccJwocgn.s 			page 4


 172              	@ 327 "ChibiOS_3.0.2/os/ext/CMSIS/include/core_cmInstr.h" 1
 173 0058 00BF     		nop
 174              	@ 0 "" 2
 175              		.thumb
 176              		.syntax unified
 177              	.LBE192:
 178              	.LBE191:
 179              		.loc 1 437 0
 180 005a 059B     		ldr	r3, [sp, #20]
 181 005c 0133     		adds	r3, r3, #1
 182 005e 0593     		str	r3, [sp, #20]
 183 0060 059B     		ldr	r3, [sp, #20]
 184 0062 092B     		cmp	r3, #9
 185 0064 F8DD     		ble	.L5
 186              	.L12:
 187              	.LBE195:
 188              	.LBE198:
 189              		.loc 1 405 0
 190 0066 A4F81A80 		strh	r8, [r4, #26]	@ movhi
 191              		.loc 1 408 0
 192 006a 2069     		ldr	r0, [r4, #16]
 193              	.LVL4:
 194              	.LBB199:
 195              	.LBB200:
 196              		.loc 2 327 0
 197              		.syntax unified
 198              	@ 327 "ChibiOS_3.0.2/os/ext/CMSIS/include/core_cmInstr.h" 1
 199 006c 00BF     		nop
 200              	@ 0 "" 2
 201              		.thumb
 202              		.syntax unified
 203              	.LBE200:
 204              	.LBE199:
 205              		.loc 1 410 0
 206 006e 2169     		ldr	r1, [r4, #16]
 207              	.LVL5:
 208              	.LBB201:
 209              	.LBB202:
 210              		.loc 2 327 0
 211              		.syntax unified
 212              	@ 327 "ChibiOS_3.0.2/os/ext/CMSIS/include/core_cmInstr.h" 1
 213 0070 00BF     		nop
 214              	@ 0 "" 2
 215              		.thumb
 216              		.syntax unified
 217              	.LBE202:
 218              	.LBE201:
 219              		.loc 1 412 0
 220 0072 2269     		ldr	r2, [r4, #16]
 221              	.LVL6:
 222              		.loc 1 414 0
 223 0074 7600     		lsls	r6, r6, #1
 224              	.LVL7:
 225              		.loc 1 415 0
 226 0076 C1F3C021 		ubfx	r1, r1, #11, #1
 227              	.LVL8:
 228 007a C0F3C020 		ubfx	r0, r0, #11, #1
ARM GAS  /tmp/ccJwocgn.s 			page 5


 229              	.LVL9:
 230 007e C2F3C022 		ubfx	r2, r2, #11, #1
 231              	.LVL10:
 232              		.loc 1 414 0
 233 0082 B6B2     		uxth	r6, r6
 234              	.LVL11:
 235              		.loc 1 415 0
 236 0084 FFF7FEFF 		bl	utils_middle_of_3_int
 237              	.LVL12:
 238 0088 08B1     		cbz	r0, .L11
 239              		.loc 1 416 0
 240 008a 46F00106 		orr	r6, r6, #1
 241              	.LVL13:
 242              	.L11:
 243              	.LBB203:
 244              	.LBB204:
 245              		.loc 1 437 0
 246 008e CDF810A0 		str	r10, [sp, #16]
 247 0092 049B     		ldr	r3, [sp, #16]
 248 0094 092B     		cmp	r3, #9
 249 0096 06DC     		bgt	.L10
 250              	.L7:
 251              	.LBB205:
 252              	.LBB206:
 253              		.loc 2 327 0
 254              		.syntax unified
 255              	@ 327 "ChibiOS_3.0.2/os/ext/CMSIS/include/core_cmInstr.h" 1
 256 0098 00BF     		nop
 257              	@ 0 "" 2
 258              		.thumb
 259              		.syntax unified
 260              	.LBE206:
 261              	.LBE205:
 262              		.loc 1 437 0
 263 009a 049B     		ldr	r3, [sp, #16]
 264 009c 0133     		adds	r3, r3, #1
 265 009e 0493     		str	r3, [sp, #16]
 266 00a0 049B     		ldr	r3, [sp, #16]
 267 00a2 092B     		cmp	r3, #9
 268 00a4 F8DD     		ble	.L7
 269              	.L10:
 270              	.LVL14:
 271              	.LBE204:
 272              	.LBE203:
 273              	.LBE207:
 274              		.loc 1 398 0
 275 00a6 013F     		subs	r7, r7, #1
 276              	.LVL15:
 277 00a8 C5D1     		bne	.L8
 278              	.LVL16:
 279              	.LBE208:
 280              	.LBE209:
 281              	.LBE210:
 282              	.LBE211:
 283              	.LBB212:
 284              	.LBB213:
 285              		.loc 1 437 0
ARM GAS  /tmp/ccJwocgn.s 			page 6


 286 00aa 0297     		str	r7, [sp, #8]
 287 00ac 029B     		ldr	r3, [sp, #8]
 288 00ae 092B     		cmp	r3, #9
 289 00b0 06DC     		bgt	.L13
 290              	.L14:
 291              	.LBB214:
 292              	.LBB215:
 293              		.loc 2 327 0
 294              		.syntax unified
 295              	@ 327 "ChibiOS_3.0.2/os/ext/CMSIS/include/core_cmInstr.h" 1
 296 00b2 00BF     		nop
 297              	@ 0 "" 2
 298              		.thumb
 299              		.syntax unified
 300              	.LBE215:
 301              	.LBE214:
 302              		.loc 1 437 0
 303 00b4 029B     		ldr	r3, [sp, #8]
 304 00b6 0133     		adds	r3, r3, #1
 305 00b8 0293     		str	r3, [sp, #8]
 306 00ba 029B     		ldr	r3, [sp, #8]
 307 00bc 092B     		cmp	r3, #9
 308 00be F8DD     		ble	.L14
 309              	.L13:
 310              	.LBE213:
 311              	.LBE212:
 312              	.LBB216:
 313              	.LBB217:
 314              		.loc 1 433 0
 315 00c0 094A     		ldr	r2, .L29
 316              	.LBE217:
 317              	.LBE216:
 318              	.LBB219:
 319              	.LBB220:
 320              		.loc 1 437 0
 321 00c2 0023     		movs	r3, #0
 322              	.LBE220:
 323              	.LBE219:
 324              	.LBB224:
 325              	.LBB218:
 326              		.loc 1 433 0
 327 00c4 4FF40071 		mov	r1, #512
 328 00c8 1183     		strh	r1, [r2, #24]	@ movhi
 329              	.LBE218:
 330              	.LBE224:
 331              	.LBB225:
 332              	.LBB223:
 333              		.loc 1 437 0
 334 00ca 0193     		str	r3, [sp, #4]
 335 00cc 019B     		ldr	r3, [sp, #4]
 336 00ce 092B     		cmp	r3, #9
 337 00d0 06DC     		bgt	.L15
 338              	.L16:
 339              	.LBB221:
 340              	.LBB222:
 341              		.loc 2 327 0
 342              		.syntax unified
ARM GAS  /tmp/ccJwocgn.s 			page 7


 343              	@ 327 "ChibiOS_3.0.2/os/ext/CMSIS/include/core_cmInstr.h" 1
 344 00d2 00BF     		nop
 345              	@ 0 "" 2
 346              		.thumb
 347              		.syntax unified
 348              	.LBE222:
 349              	.LBE221:
 350              		.loc 1 437 0
 351 00d4 019B     		ldr	r3, [sp, #4]
 352 00d6 0133     		adds	r3, r3, #1
 353 00d8 0193     		str	r3, [sp, #4]
 354 00da 019B     		ldr	r3, [sp, #4]
 355 00dc 092B     		cmp	r3, #9
 356 00de F8DD     		ble	.L16
 357              	.L15:
 358              	.LVL17:
 359              	.LBE223:
 360              	.LBE225:
 361              		.loc 1 391 0
 362 00e0 3046     		mov	r0, r6
 363 00e2 06B0     		add	sp, sp, #24
 364              		.cfi_def_cfa_offset 32
 365              		@ sp needed
 366 00e4 BDE8F087 		pop	{r4, r5, r6, r7, r8, r9, r10, pc}
 367              	.L30:
 368              		.align	2
 369              	.L29:
 370 00e8 00080240 		.word	1073874944
 371              		.cfi_endproc
 372              	.LFE269:
 373              		.size	spi_exchange, .-spi_exchange
 374              		.section	.text.terminal_read_reg,"ax",%progbits
 375              		.align	1
 376              		.p2align 4,,15
 377              		.syntax unified
 378              		.thumb
 379              		.thumb_func
 380              		.fpu fpv4-sp-d16
 381              		.type	terminal_read_reg, %function
 382              	terminal_read_reg:
 383              	.LFB274:
 384              		.loc 1 442 0
 385              		.cfi_startproc
 386              		@ args = 0, pretend = 0, frame = 32
 387              		@ frame_needed = 0, uses_anonymous_args = 0
 388              	.LVL18:
 389 0000 70B5     		push	{r4, r5, r6, lr}
 390              		.cfi_def_cfa_offset 16
 391              		.cfi_offset 4, -16
 392              		.cfi_offset 5, -12
 393              		.cfi_offset 6, -8
 394              		.cfi_offset 14, -4
 395              		.loc 1 443 0
 396 0002 0228     		cmp	r0, #2
 397              		.loc 1 442 0
 398 0004 8AB0     		sub	sp, sp, #40
 399              		.cfi_def_cfa_offset 56
ARM GAS  /tmp/ccJwocgn.s 			page 8


 400              		.loc 1 443 0
 401 0006 04D0     		beq	.L40
 402              		.loc 1 474 0
 403 0008 2A48     		ldr	r0, .L42
 404              	.LVL19:
 405 000a FFF7FEFF 		bl	commands_printf
 406              	.LVL20:
 407              	.L31:
 408              		.loc 1 476 0
 409 000e 0AB0     		add	sp, sp, #40
 410              		.cfi_remember_state
 411              		.cfi_def_cfa_offset 16
 412              		@ sp needed
 413 0010 70BD     		pop	{r4, r5, r6, pc}
 414              	.LVL21:
 415              	.L40:
 416              		.cfi_restore_state
 417              	.LBB235:
 418              	.LBB236:
 419              		.loc 1 444 0
 420 0012 0AAA     		add	r2, sp, #40
 421 0014 4FF0FF33 		mov	r3, #-1
 422              		.loc 1 445 0
 423 0018 4868     		ldr	r0, [r1, #4]
 424              	.LVL22:
 425              		.loc 1 444 0
 426 001a 42F81C3D 		str	r3, [r2, #-28]!
 427              		.loc 1 445 0
 428 001e 2649     		ldr	r1, .L42+4
 429              	.LVL23:
 430 0020 FFF7FEFF 		bl	sscanf
 431              	.LVL24:
 432              		.loc 1 447 0
 433 0024 0398     		ldr	r0, [sp, #12]
 434 0026 0928     		cmp	r0, #9
 435 0028 29DD     		ble	.L41
 436              		.loc 1 457 0
 437 002a 0A28     		cmp	r0, #10
 438 002c 22D1     		bne	.L35
 439              		.loc 1 458 0
 440 002e 0020     		movs	r0, #0
 441              	.LBB237:
 442              		.loc 1 466 0
 443 0030 224D     		ldr	r5, .L42+8
 444              	.LBE237:
 445              		.loc 1 458 0
 446 0032 0390     		str	r0, [sp, #12]
 447              	.LBB242:
 448              	.LBB238:
 449              	.LBB239:
 450              		.loc 1 363 0
 451 0034 40F2FF76 		movw	r6, #2047
 452              	.L36:
 453              	.LVL25:
 454              		.loc 1 362 0
 455 0038 C002     		lsls	r0, r0, #11
 456              	.LVL26:
ARM GAS  /tmp/ccJwocgn.s 			page 9


 457 003a 00F4F040 		and	r0, r0, #30720
 458 003e 40F40040 		orr	r0, r0, #32768
 459              	.LVL27:
 460              		.loc 1 365 0
 461 0042 3043     		orrs	r0, r0, r6
 462              	.LVL28:
 463 0044 FFF7FEFF 		bl	spi_exchange
 464              	.LVL29:
 465              	.LBE239:
 466              	.LBE238:
 467              		.loc 1 463 0
 468 0048 07A9     		add	r1, sp, #28
 469              	.LBB241:
 470              	.LBB240:
 471              		.loc 1 365 0
 472 004a 0446     		mov	r4, r0
 473              	.LBE240:
 474              	.LBE241:
 475              		.loc 1 463 0
 476 004c 000A     		lsrs	r0, r0, #8
 477 004e FFF7FEFF 		bl	utils_byte_to_binary
 478              	.LVL30:
 479              		.loc 1 464 0
 480 0052 04A9     		add	r1, sp, #16
 481 0054 E0B2     		uxtb	r0, r4
 482 0056 FFF7FEFF 		bl	utils_byte_to_binary
 483              	.LVL31:
 484              		.loc 1 466 0
 485 005a 2846     		mov	r0, r5
 486 005c 0399     		ldr	r1, [sp, #12]
 487 005e 0094     		str	r4, [sp]
 488 0060 04AB     		add	r3, sp, #16
 489 0062 07AA     		add	r2, sp, #28
 490 0064 FFF7FEFF 		bl	commands_printf
 491              	.LVL32:
 492              	.LBE242:
 493              		.loc 1 458 0
 494 0068 0398     		ldr	r0, [sp, #12]
 495 006a 0130     		adds	r0, r0, #1
 496 006c 0728     		cmp	r0, #7
 497 006e 0390     		str	r0, [sp, #12]
 498 0070 E2DD     		ble	.L36
 499 0072 CCE7     		b	.L31
 500              	.L35:
 501              		.loc 1 471 0
 502 0074 1248     		ldr	r0, .L42+12
 503 0076 FFF7FEFF 		bl	commands_printf
 504              	.LVL33:
 505              	.LBE236:
 506              	.LBE235:
 507              		.loc 1 476 0
 508 007a 0AB0     		add	sp, sp, #40
 509              		.cfi_remember_state
 510              		.cfi_def_cfa_offset 16
 511              		@ sp needed
 512 007c 70BD     		pop	{r4, r5, r6, pc}
 513              	.L41:
ARM GAS  /tmp/ccJwocgn.s 			page 10


 514              		.cfi_restore_state
 515              	.LVL34:
 516              	.LBB249:
 517              	.LBB248:
 518              	.LBB243:
 519              	.LBB244:
 520              	.LBB245:
 521              		.loc 1 362 0
 522 007e C002     		lsls	r0, r0, #11
 523              	.LVL35:
 524 0080 00F4F040 		and	r0, r0, #30720
 525              	.LVL36:
 526              		.loc 1 365 0
 527 0084 40F40740 		orr	r0, r0, #34560
 528              	.LVL37:
 529 0088 40F0FF00 		orr	r0, r0, #255
 530 008c FFF7FEFF 		bl	spi_exchange
 531              	.LVL38:
 532              	.LBE245:
 533              	.LBE244:
 534              		.loc 1 452 0
 535 0090 07A9     		add	r1, sp, #28
 536              	.LBB247:
 537              	.LBB246:
 538              		.loc 1 365 0
 539 0092 0446     		mov	r4, r0
 540              	.LBE246:
 541              	.LBE247:
 542              		.loc 1 452 0
 543 0094 000A     		lsrs	r0, r0, #8
 544 0096 FFF7FEFF 		bl	utils_byte_to_binary
 545              	.LVL39:
 546              		.loc 1 453 0
 547 009a E0B2     		uxtb	r0, r4
 548 009c 04A9     		add	r1, sp, #16
 549 009e FFF7FEFF 		bl	utils_byte_to_binary
 550              	.LVL40:
 551              		.loc 1 455 0
 552 00a2 0399     		ldr	r1, [sp, #12]
 553 00a4 0094     		str	r4, [sp]
 554 00a6 04AB     		add	r3, sp, #16
 555 00a8 07AA     		add	r2, sp, #28
 556 00aa 0448     		ldr	r0, .L42+8
 557 00ac FFF7FEFF 		bl	commands_printf
 558              	.LVL41:
 559              	.LBE243:
 560              	.LBE248:
 561              	.LBE249:
 562              		.loc 1 476 0
 563 00b0 0AB0     		add	sp, sp, #40
 564              		.cfi_def_cfa_offset 16
 565              		@ sp needed
 566 00b2 70BD     		pop	{r4, r5, r6, pc}
 567              	.L43:
 568              		.align	2
 569              	.L42:
 570 00b4 38000000 		.word	.LC3
ARM GAS  /tmp/ccJwocgn.s 			page 11


 571 00b8 00000000 		.word	.LC0
 572 00bc 04000000 		.word	.LC1
 573 00c0 20000000 		.word	.LC2
 574              		.cfi_endproc
 575              	.LFE274:
 576              		.size	terminal_read_reg, .-terminal_read_reg
 577              		.section	.text.terminal_write_reg,"ax",%progbits
 578              		.align	1
 579              		.p2align 4,,15
 580              		.syntax unified
 581              		.thumb
 582              		.thumb_func
 583              		.fpu fpv4-sp-d16
 584              		.type	terminal_write_reg, %function
 585              	terminal_write_reg:
 586              	.LFB275:
 587              		.loc 1 478 0
 588              		.cfi_startproc
 589              		@ args = 0, pretend = 0, frame = 32
 590              		@ frame_needed = 0, uses_anonymous_args = 0
 591              	.LVL42:
 592 0000 10B5     		push	{r4, lr}
 593              		.cfi_def_cfa_offset 8
 594              		.cfi_offset 4, -8
 595              		.cfi_offset 14, -4
 596              		.loc 1 479 0
 597 0002 0328     		cmp	r0, #3
 598              		.loc 1 478 0
 599 0004 8AB0     		sub	sp, sp, #40
 600              		.cfi_def_cfa_offset 48
 601              		.loc 1 479 0
 602 0006 04D0     		beq	.L50
 603              		.loc 1 499 0
 604 0008 2148     		ldr	r0, .L52
 605              	.LVL43:
 606 000a FFF7FEFF 		bl	commands_printf
 607              	.LVL44:
 608              		.loc 1 501 0
 609 000e 0AB0     		add	sp, sp, #40
 610              		.cfi_remember_state
 611              		.cfi_def_cfa_offset 8
 612              		@ sp needed
 613 0010 10BD     		pop	{r4, pc}
 614              	.LVL45:
 615              	.L50:
 616              		.cfi_restore_state
 617 0012 0C46     		mov	r4, r1
 618              	.LVL46:
 619              	.LBB258:
 620              	.LBB259:
 621              		.loc 1 480 0
 622 0014 4FF0FF33 		mov	r3, #-1
 623              		.loc 1 482 0
 624 0018 02AA     		add	r2, sp, #8
 625 001a 1E49     		ldr	r1, .L52+4
 626              	.LVL47:
 627 001c 6068     		ldr	r0, [r4, #4]
ARM GAS  /tmp/ccJwocgn.s 			page 12


 628              	.LVL48:
 629              		.loc 1 481 0
 630 001e CDE90233 		strd	r3, r3, [sp, #8]
 631              		.loc 1 482 0
 632 0022 FFF7FEFF 		bl	sscanf
 633              	.LVL49:
 634              		.loc 1 483 0
 635 0026 A068     		ldr	r0, [r4, #8]
 636 0028 1B49     		ldr	r1, .L52+8
 637 002a 03AA     		add	r2, sp, #12
 638 002c FFF7FEFF 		bl	sscanf
 639              	.LVL50:
 640              		.loc 1 485 0
 641 0030 029B     		ldr	r3, [sp, #8]
 642 0032 002B     		cmp	r3, #0
 643 0034 02DB     		blt	.L46
 644 0036 0398     		ldr	r0, [sp, #12]
 645 0038 0028     		cmp	r0, #0
 646 003a 04DA     		bge	.L51
 647              	.L46:
 648              		.loc 1 496 0
 649 003c 1748     		ldr	r0, .L52+12
 650 003e FFF7FEFF 		bl	commands_printf
 651              	.LVL51:
 652              	.LBE259:
 653              	.LBE258:
 654              		.loc 1 501 0
 655 0042 0AB0     		add	sp, sp, #40
 656              		.cfi_remember_state
 657              		.cfi_def_cfa_offset 8
 658              		@ sp needed
 659 0044 10BD     		pop	{r4, pc}
 660              	.LVL52:
 661              	.L51:
 662              		.cfi_restore_state
 663              	.LBB268:
 664              	.LBB267:
 665              	.LBB260:
 666              	.LBB261:
 667              	.LBB262:
 668              		.loc 1 374 0
 669 0046 DB02     		lsls	r3, r3, #11
 670              	.LVL53:
 671 0048 03F4F043 		and	r3, r3, #30720
 672              		.loc 1 375 0
 673 004c C0F30A00 		ubfx	r0, r0, #0, #11
 674              	.LVL54:
 675              		.loc 1 377 0
 676 0050 1843     		orrs	r0, r0, r3
 677 0052 FFF7FEFF 		bl	spi_exchange
 678              	.LVL55:
 679              	.LBE262:
 680              	.LBE261:
 681              	.LBB263:
 682              	.LBB264:
 683              		.loc 1 362 0
 684 0056 0298     		ldr	r0, [sp, #8]
ARM GAS  /tmp/ccJwocgn.s 			page 13


 685 0058 C002     		lsls	r0, r0, #11
 686 005a 00F4F040 		and	r0, r0, #30720
 687              	.LVL56:
 688              		.loc 1 365 0
 689 005e 40F40740 		orr	r0, r0, #34560
 690              	.LVL57:
 691 0062 40F0FF00 		orr	r0, r0, #255
 692 0066 FFF7FEFF 		bl	spi_exchange
 693              	.LVL58:
 694              	.LBE264:
 695              	.LBE263:
 696              		.loc 1 491 0
 697 006a 07A9     		add	r1, sp, #28
 698              	.LBB266:
 699              	.LBB265:
 700              		.loc 1 365 0
 701 006c 0446     		mov	r4, r0
 702              	.LVL59:
 703              	.LBE265:
 704              	.LBE266:
 705              		.loc 1 491 0
 706 006e 000A     		lsrs	r0, r0, #8
 707 0070 FFF7FEFF 		bl	utils_byte_to_binary
 708              	.LVL60:
 709              		.loc 1 492 0
 710 0074 E0B2     		uxtb	r0, r4
 711 0076 04A9     		add	r1, sp, #16
 712 0078 FFF7FEFF 		bl	utils_byte_to_binary
 713              	.LVL61:
 714              		.loc 1 494 0
 715 007c 0299     		ldr	r1, [sp, #8]
 716 007e 0094     		str	r4, [sp]
 717 0080 04AB     		add	r3, sp, #16
 718 0082 07AA     		add	r2, sp, #28
 719 0084 0648     		ldr	r0, .L52+16
 720 0086 FFF7FEFF 		bl	commands_printf
 721              	.LVL62:
 722              	.LBE260:
 723              	.LBE267:
 724              	.LBE268:
 725              		.loc 1 501 0
 726 008a 0AB0     		add	sp, sp, #40
 727              		.cfi_def_cfa_offset 8
 728              		@ sp needed
 729 008c 10BD     		pop	{r4, pc}
 730              	.L53:
 731 008e 00BF     		.align	2
 732              	.L52:
 733 0090 2C000000 		.word	.LC6
 734 0094 00000000 		.word	.LC4
 735 0098 00000000 		.word	.LC0
 736 009c 20000000 		.word	.LC2
 737 00a0 04000000 		.word	.LC5
 738              		.cfi_endproc
 739              	.LFE275:
 740              		.size	terminal_write_reg, .-terminal_write_reg
 741              		.section	.text.drv8350_init,"ax",%progbits
ARM GAS  /tmp/ccJwocgn.s 			page 14


 742              		.align	1
 743              		.p2align 4,,15
 744              		.global	drv8350_init
 745              		.syntax unified
 746              		.thumb
 747              		.thumb_func
 748              		.fpu fpv4-sp-d16
 749              		.type	drv8350_init, %function
 750              	drv8350_init:
 751              	.LFB259:
 752              		.loc 1 50 0
 753              		.cfi_startproc
 754              		@ args = 0, pretend = 0, frame = 0
 755              		@ frame_needed = 0, uses_anonymous_args = 0
 756 0000 70B5     		push	{r4, r5, r6, lr}
 757              		.cfi_def_cfa_offset 16
 758              		.cfi_offset 4, -16
 759              		.cfi_offset 5, -12
 760              		.cfi_offset 6, -8
 761              		.cfi_offset 14, -4
 762              		.loc 1 52 0
 763 0002 354C     		ldr	r4, .L56
 764              		.loc 1 93 0
 765 0004 354D     		ldr	r5, .L56+4
 766              		.loc 1 52 0
 767 0006 2046     		mov	r0, r4
 768 0008 0022     		movs	r2, #0
 769 000a 4FF40061 		mov	r1, #2048
 770 000e FFF7FEFF 		bl	_pal_lld_setgroupmode
 771              	.LVL63:
 772              		.loc 1 53 0
 773 0012 2046     		mov	r0, r4
 774 0014 1922     		movs	r2, #25
 775 0016 4FF48061 		mov	r1, #1024
 776 001a FFF7FEFF 		bl	_pal_lld_setgroupmode
 777              	.LVL64:
 778              		.loc 1 54 0
 779 001e 2046     		mov	r0, r4
 780 0020 1922     		movs	r2, #25
 781 0022 4FF40071 		mov	r1, #512
 782 0026 FFF7FEFF 		bl	_pal_lld_setgroupmode
 783              	.LVL65:
 784              		.loc 1 55 0
 785 002a 1922     		movs	r2, #25
 786 002c 4FF48051 		mov	r1, #4096
 787 0030 2046     		mov	r0, r4
 788 0032 FFF7FEFF 		bl	_pal_lld_setgroupmode
 789              	.LVL66:
 790              		.loc 1 56 0
 791 0036 4FF48053 		mov	r3, #4096
 792 003a 2383     		strh	r3, [r4, #24]	@ movhi
 793              		.loc 1 58 0
 794 003c 4FF47A70 		mov	r0, #1000
 795 0040 FFF7FEFF 		bl	chThdSleep
 796              	.LVL67:
 797              	.LBB269:
 798              	.LBB270:
ARM GAS  /tmp/ccJwocgn.s 			page 15


 799              		.loc 1 377 0
 800 0044 41F20100 		movw	r0, #4097
 801 0048 FFF7FEFF 		bl	spi_exchange
 802              	.LVL68:
 803              	.LBE270:
 804              	.LBE269:
 805              	.LBB271:
 806              	.LBB272:
 807 004c 41F66530 		movw	r0, #7013
 808 0050 FFF7FEFF 		bl	spi_exchange
 809              	.LVL69:
 810              	.LBE272:
 811              	.LBE271:
 812              	.LBB273:
 813              	.LBB274:
 814 0054 42F25670 		movw	r0, #10070
 815 0058 FFF7FEFF 		bl	spi_exchange
 816              	.LVL70:
 817              	.LBE274:
 818              	.LBE273:
 819              	.LBB275:
 820              	.LBB276:
 821 005c 42F61010 		movw	r0, #10512
 822 0060 FFF7FEFF 		bl	spi_exchange
 823              	.LVL71:
 824              	.LBE276:
 825              	.LBE275:
 826              	.LBB277:
 827              	.LBB278:
 828 0064 4FF44950 		mov	r0, #12864
 829 0068 FFF7FEFF 		bl	spi_exchange
 830              	.LVL72:
 831              	.LBE278:
 832              	.LBE277:
 833              	.LBB279:
 834              	.LBB280:
 835 006c 4FF46050 		mov	r0, #14336
 836 0070 FFF7FEFF 		bl	spi_exchange
 837              	.LVL73:
 838              	.LBE280:
 839              	.LBE279:
 840              		.loc 1 69 0
 841 0074 1A4B     		ldr	r3, .L56+8
 842 0076 1B4A     		ldr	r2, .L56+12
 843 0078 1B49     		ldr	r1, .L56+16
 844 007a 1C48     		ldr	r0, .L56+20
 845 007c FFF7FEFF 		bl	terminal_register_command_callback
 846              	.LVL74:
 847              		.loc 1 75 0
 848 0080 1B4B     		ldr	r3, .L56+24
 849 0082 1C4A     		ldr	r2, .L56+28
 850 0084 1C49     		ldr	r1, .L56+32
 851 0086 1D48     		ldr	r0, .L56+36
 852 0088 FFF7FEFF 		bl	terminal_register_command_callback
 853              	.LVL75:
 854              		.loc 1 81 0
 855 008c 1C4B     		ldr	r3, .L56+40
ARM GAS  /tmp/ccJwocgn.s 			page 16


 856 008e 1D4A     		ldr	r2, .L56+44
 857 0090 1D49     		ldr	r1, .L56+48
 858 0092 1E48     		ldr	r0, .L56+52
 859 0094 FFF7FEFF 		bl	terminal_register_command_callback
 860              	.LVL76:
 861              		.loc 1 87 0
 862 0098 1D4B     		ldr	r3, .L56+56
 863 009a 1E49     		ldr	r1, .L56+60
 864 009c 1E48     		ldr	r0, .L56+64
 865 009e 0022     		movs	r2, #0
 866 00a0 FFF7FEFF 		bl	terminal_register_command_callback
 867              	.LVL77:
 868              		.loc 1 93 0
 869 00a4 2B46     		mov	r3, r5
 870 00a6 0022     		movs	r2, #0
 871 00a8 1C49     		ldr	r1, .L56+68
 872 00aa 1D48     		ldr	r0, .L56+72
 873 00ac FFF7FEFF 		bl	terminal_register_command_callback
 874              	.LVL78:
 875              		.loc 1 99 0
 876 00b0 2B46     		mov	r3, r5
 877 00b2 0022     		movs	r2, #0
 878 00b4 1B49     		ldr	r1, .L56+76
 879 00b6 1C48     		ldr	r0, .L56+80
 880 00b8 FFF7FEFF 		bl	terminal_register_command_callback
 881              	.LVL79:
 882              		.loc 1 105 0
 883 00bc 1B4B     		ldr	r3, .L56+84
 884 00be 1C49     		ldr	r1, .L56+88
 885 00c0 1C48     		ldr	r0, .L56+92
 886 00c2 0022     		movs	r2, #0
 887 00c4 FFF7FEFF 		bl	terminal_register_command_callback
 888              	.LVL80:
 889              		.loc 1 111 0
 890 00c8 1B4B     		ldr	r3, .L56+96
 891 00ca 1C49     		ldr	r1, .L56+100
 892 00cc 1C48     		ldr	r0, .L56+104
 893 00ce 0022     		movs	r2, #0
 894              		.loc 1 124 0
 895 00d0 BDE87040 		pop	{r4, r5, r6, lr}
 896              		.cfi_restore 14
 897              		.cfi_restore 6
 898              		.cfi_restore 5
 899              		.cfi_restore 4
 900              		.cfi_def_cfa_offset 0
 901              		.loc 1 111 0
 902 00d4 FFF7FEBF 		b	terminal_register_command_callback
 903              	.LVL81:
 904              	.L57:
 905              		.align	2
 906              	.L56:
 907 00d8 00080240 		.word	1073874944
 908 00dc 00000000 		.word	terminal_reset_faults
 909 00e0 00000000 		.word	terminal_read_reg
 910 00e4 00000000 		.word	.LC7
 911 00e8 08000000 		.word	.LC8
 912 00ec 38000000 		.word	.LC9
ARM GAS  /tmp/ccJwocgn.s 			page 17


 913 00f0 00000000 		.word	terminal_write_reg
 914 00f4 4C000000 		.word	.LC10
 915 00f8 60000000 		.word	.LC11
 916 00fc 80000000 		.word	.LC12
 917 0100 00000000 		.word	terminal_set_oc_adj
 918 0104 94000000 		.word	.LC13
 919 0108 9C000000 		.word	.LC14
 920 010c C0000000 		.word	.LC15
 921 0110 00000000 		.word	terminal_print_faults
 922 0114 D4000000 		.word	.LC16
 923 0118 F8000000 		.word	.LC17
 924 011c 10010000 		.word	.LC18
 925 0120 34010000 		.word	.LC19
 926 0124 4C010000 		.word	.LC20
 927 0128 80010000 		.word	.LC21
 928 012c 00000000 		.word	terminal_dccal_on
 929 0130 98010000 		.word	.LC22
 930 0134 B0010000 		.word	.LC23
 931 0138 00000000 		.word	terminal_dccal_off
 932 013c C4010000 		.word	.LC24
 933 0140 DC010000 		.word	.LC25
 934              		.cfi_endproc
 935              	.LFE259:
 936              		.size	drv8350_init, .-drv8350_init
 937              		.section	.text.drv8350_set_oc_adj,"ax",%progbits
 938              		.align	1
 939              		.p2align 4,,15
 940              		.global	drv8350_set_oc_adj
 941              		.syntax unified
 942              		.thumb
 943              		.thumb_func
 944              		.fpu fpv4-sp-d16
 945              		.type	drv8350_set_oc_adj, %function
 946              	drv8350_set_oc_adj:
 947              	.LFB260:
 948              		.loc 1 135 0
 949              		.cfi_startproc
 950              		@ args = 0, pretend = 0, frame = 0
 951              		@ frame_needed = 0, uses_anonymous_args = 0
 952              	.LVL82:
 953 0000 10B5     		push	{r4, lr}
 954              		.cfi_def_cfa_offset 8
 955              		.cfi_offset 4, -8
 956              		.cfi_offset 14, -4
 957              		.loc 1 135 0
 958 0002 0446     		mov	r4, r0
 959              	.LBB281:
 960              	.LBB282:
 961              		.loc 1 365 0
 962 0004 4AF6FF70 		movw	r0, #45055
 963              	.LVL83:
 964 0008 FFF7FEFF 		bl	spi_exchange
 965              	.LVL84:
 966              	.LBE282:
 967              	.LBE281:
 968              		.loc 1 138 0
 969 000c 04F00F04 		and	r4, r4, #15
ARM GAS  /tmp/ccJwocgn.s 			page 18


 970              	.LVL85:
 971 0010 00F4FE60 		and	r0, r0, #2032
 972              	.LVL86:
 973              	.LBB283:
 974              	.LBB284:
 975              		.loc 1 375 0
 976 0014 2043     		orrs	r0, r0, r4
 977              		.loc 1 377 0
 978 0016 40F42050 		orr	r0, r0, #10240
 979 001a FFF7FEFF 		bl	spi_exchange
 980              	.LVL87:
 981              	.LBE284:
 982              	.LBE283:
 983              	.LBB285:
 984              	.LBB286:
 985              		.loc 1 365 0
 986 001e 4AF6FF70 		movw	r0, #45055
 987 0022 FFF7FEFF 		bl	spi_exchange
 988              	.LVL88:
 989              	.LBE286:
 990              	.LBE285:
 991              		.loc 1 144 0
 992 0026 44F48874 		orr	r4, r4, #272
 993 002a 00F0C003 		and	r3, r0, #192
 994 002e 1C43     		orrs	r4, r4, r3
 995              		.loc 1 162 0
 996 0030 201A     		subs	r0, r4, r0
 997              	.LVL89:
 998 0032 18BF     		it	ne
 999 0034 0120     		movne	r0, #1
 1000 0036 10BD     		pop	{r4, pc}
 1001              		.cfi_endproc
 1002              	.LFE260:
 1003              		.size	drv8350_set_oc_adj, .-drv8350_set_oc_adj
 1004              		.section	.text.terminal_set_oc_adj,"ax",%progbits
 1005              		.align	1
 1006              		.p2align 4,,15
 1007              		.syntax unified
 1008              		.thumb
 1009              		.thumb_func
 1010              		.fpu fpv4-sp-d16
 1011              		.type	terminal_set_oc_adj, %function
 1012              	terminal_set_oc_adj:
 1013              	.LFB276:
 1014              		.loc 1 503 0
 1015              		.cfi_startproc
 1016              		@ args = 0, pretend = 0, frame = 32
 1017              		@ frame_needed = 0, uses_anonymous_args = 0
 1018              	.LVL90:
 1019 0000 10B5     		push	{r4, lr}
 1020              		.cfi_def_cfa_offset 8
 1021              		.cfi_offset 4, -8
 1022              		.cfi_offset 14, -4
 1023              		.loc 1 504 0
 1024 0002 0228     		cmp	r0, #2
 1025              		.loc 1 503 0
 1026 0004 8AB0     		sub	sp, sp, #40
ARM GAS  /tmp/ccJwocgn.s 			page 19


 1027              		.cfi_def_cfa_offset 48
 1028              		.loc 1 504 0
 1029 0006 04D0     		beq	.L66
 1030              		.loc 1 522 0
 1031 0008 1648     		ldr	r0, .L67
 1032              	.LVL91:
 1033 000a FFF7FEFF 		bl	commands_printf
 1034              	.LVL92:
 1035              		.loc 1 524 0
 1036 000e 0AB0     		add	sp, sp, #40
 1037              		.cfi_remember_state
 1038              		.cfi_def_cfa_offset 8
 1039              		@ sp needed
 1040 0010 10BD     		pop	{r4, pc}
 1041              	.LVL93:
 1042              	.L66:
 1043              		.cfi_restore_state
 1044              	.LBB293:
 1045              	.LBB294:
 1046              		.loc 1 505 0
 1047 0012 0AAA     		add	r2, sp, #40
 1048 0014 4FF0FF33 		mov	r3, #-1
 1049              		.loc 1 506 0
 1050 0018 4868     		ldr	r0, [r1, #4]
 1051              	.LVL94:
 1052              		.loc 1 505 0
 1053 001a 42F81C3D 		str	r3, [r2, #-28]!
 1054              		.loc 1 506 0
 1055 001e 1249     		ldr	r1, .L67+4
 1056              	.LVL95:
 1057 0020 FFF7FEFF 		bl	sscanf
 1058              	.LVL96:
 1059              		.loc 1 508 0
 1060 0024 0398     		ldr	r0, [sp, #12]
 1061 0026 0F28     		cmp	r0, #15
 1062 0028 17D8     		bhi	.L62
 1063              	.LBB295:
 1064              		.loc 1 509 0
 1065 002a FFF7FEFF 		bl	drv8350_set_oc_adj
 1066              	.LVL97:
 1067              	.LBB296:
 1068              	.LBB297:
 1069              		.loc 1 365 0
 1070 002e 4AF6FF70 		movw	r0, #45055
 1071 0032 FFF7FEFF 		bl	spi_exchange
 1072              	.LVL98:
 1073              	.LBE297:
 1074              	.LBE296:
 1075              		.loc 1 514 0
 1076 0036 07A9     		add	r1, sp, #28
 1077              	.LBB299:
 1078              	.LBB298:
 1079              		.loc 1 365 0
 1080 0038 0446     		mov	r4, r0
 1081              	.LVL99:
 1082              	.LBE298:
 1083              	.LBE299:
ARM GAS  /tmp/ccJwocgn.s 			page 20


 1084              		.loc 1 514 0
 1085 003a 000A     		lsrs	r0, r0, #8
 1086 003c FFF7FEFF 		bl	utils_byte_to_binary
 1087              	.LVL100:
 1088              		.loc 1 515 0
 1089 0040 E0B2     		uxtb	r0, r4
 1090 0042 04A9     		add	r1, sp, #16
 1091 0044 FFF7FEFF 		bl	utils_byte_to_binary
 1092              	.LVL101:
 1093              		.loc 1 517 0
 1094 0048 0094     		str	r4, [sp]
 1095 004a 04AB     		add	r3, sp, #16
 1096 004c 07AA     		add	r2, sp, #28
 1097 004e 0521     		movs	r1, #5
 1098 0050 0648     		ldr	r0, .L67+8
 1099 0052 FFF7FEFF 		bl	commands_printf
 1100              	.LVL102:
 1101              	.LBE295:
 1102              	.LBE294:
 1103              	.LBE293:
 1104              		.loc 1 524 0
 1105 0056 0AB0     		add	sp, sp, #40
 1106              		.cfi_remember_state
 1107              		.cfi_def_cfa_offset 8
 1108              		@ sp needed
 1109 0058 10BD     		pop	{r4, pc}
 1110              	.L62:
 1111              		.cfi_restore_state
 1112              	.LBB301:
 1113              	.LBB300:
 1114              		.loc 1 519 0
 1115 005a 0548     		ldr	r0, .L67+12
 1116 005c FFF7FEFF 		bl	commands_printf
 1117              	.LVL103:
 1118              	.LBE300:
 1119              	.LBE301:
 1120              		.loc 1 524 0
 1121 0060 0AB0     		add	sp, sp, #40
 1122              		.cfi_def_cfa_offset 8
 1123              		@ sp needed
 1124 0062 10BD     		pop	{r4, pc}
 1125              	.L68:
 1126              		.align	2
 1127              	.L67:
 1128 0064 38000000 		.word	.LC3
 1129 0068 00000000 		.word	.LC4
 1130 006c 04000000 		.word	.LC5
 1131 0070 20000000 		.word	.LC2
 1132              		.cfi_endproc
 1133              	.LFE276:
 1134              		.size	terminal_set_oc_adj, .-terminal_set_oc_adj
 1135              		.section	.text.drv8350_set_oc_mode,"ax",%progbits
 1136              		.align	1
 1137              		.p2align 4,,15
 1138              		.global	drv8350_set_oc_mode
 1139              		.syntax unified
 1140              		.thumb
ARM GAS  /tmp/ccJwocgn.s 			page 21


 1141              		.thumb_func
 1142              		.fpu fpv4-sp-d16
 1143              		.type	drv8350_set_oc_mode, %function
 1144              	drv8350_set_oc_mode:
 1145              	.LFB261:
 1146              		.loc 1 170 0
 1147              		.cfi_startproc
 1148              		@ args = 0, pretend = 0, frame = 0
 1149              		@ frame_needed = 0, uses_anonymous_args = 0
 1150              	.LVL104:
 1151 0000 10B5     		push	{r4, lr}
 1152              		.cfi_def_cfa_offset 8
 1153              		.cfi_offset 4, -8
 1154              		.cfi_offset 14, -4
 1155              		.loc 1 172 0
 1156 0002 0328     		cmp	r0, #3
 1157 0004 19D8     		bhi	.L70
 1158 0006 DFE800F0 		tbb	[pc, r0]
 1159              	.L72:
 1160 000a 12       		.byte	(.L71-.L72)/2
 1161 000b 02       		.byte	(.L76-.L72)/2
 1162 000c 16       		.byte	(.L74-.L72)/2
 1163 000d 14       		.byte	(.L75-.L72)/2
 1164              		.p2align 1
 1165              	.L76:
 1166 000e 0024     		movs	r4, #0
 1167              	.LVL105:
 1168              	.L73:
 1169              	.LBB302:
 1170              	.LBB303:
 1171              		.loc 1 365 0
 1172 0010 4AF6FF70 		movw	r0, #45055
 1173 0014 FFF7FEFF 		bl	spi_exchange
 1174              	.LVL106:
 1175              	.LBE303:
 1176              	.LBE302:
 1177              		.loc 1 182 0
 1178 0018 40F23F73 		movw	r3, #1855
 1179 001c 0340     		ands	r3, r3, r0
 1180              	.LBB304:
 1181              	.LBB305:
 1182              		.loc 1 375 0
 1183 001e 43EA0400 		orr	r0, r3, r4
 1184              	.LVL107:
 1185              		.loc 1 377 0
 1186 0022 40F42050 		orr	r0, r0, #10240
 1187              	.LBE305:
 1188              	.LBE304:
 1189              		.loc 1 184 0
 1190 0026 BDE81040 		pop	{r4, lr}
 1191              		.cfi_remember_state
 1192              		.cfi_restore 14
 1193              		.cfi_restore 4
 1194              		.cfi_def_cfa_offset 0
 1195              	.LBB307:
 1196              	.LBB306:
 1197              		.loc 1 377 0
ARM GAS  /tmp/ccJwocgn.s 			page 22


 1198 002a FFF7FEBF 		b	spi_exchange
 1199              	.LVL108:
 1200              	.L71:
 1201              		.cfi_restore_state
 1202              	.LBE306:
 1203              	.LBE307:
 1204              		.loc 1 172 0
 1205 002e 4024     		movs	r4, #64
 1206 0030 EEE7     		b	.L73
 1207              	.L75:
 1208              	.LVL109:
 1209              		.loc 1 176 0
 1210 0032 C024     		movs	r4, #192
 1211 0034 ECE7     		b	.L73
 1212              	.LVL110:
 1213              	.L74:
 1214              		.loc 1 175 0
 1215 0036 8024     		movs	r4, #128
 1216 0038 EAE7     		b	.L73
 1217              	.LVL111:
 1218              	.L70:
 1219 003a 8001     		lsls	r0, r0, #6
 1220              	.LVL112:
 1221 003c C4B2     		uxtb	r4, r0
 1222 003e E7E7     		b	.L73
 1223              		.cfi_endproc
 1224              	.LFE261:
 1225              		.size	drv8350_set_oc_mode, .-drv8350_set_oc_mode
 1226              		.section	.text.drv8350_read_faults,"ax",%progbits
 1227              		.align	1
 1228              		.p2align 4,,15
 1229              		.global	drv8350_read_faults
 1230              		.syntax unified
 1231              		.thumb
 1232              		.thumb_func
 1233              		.fpu fpv4-sp-d16
 1234              		.type	drv8350_read_faults, %function
 1235              	drv8350_read_faults:
 1236              	.LFB262:
 1237              		.loc 1 216 0
 1238              		.cfi_startproc
 1239              		@ args = 0, pretend = 0, frame = 0
 1240              		@ frame_needed = 0, uses_anonymous_args = 0
 1241              	.LVL113:
 1242 0000 10B5     		push	{r4, lr}
 1243              		.cfi_def_cfa_offset 8
 1244              		.cfi_offset 4, -8
 1245              		.cfi_offset 14, -4
 1246              	.LBB308:
 1247              	.LBB309:
 1248              		.loc 1 365 0
 1249 0002 48F2FF70 		movw	r0, #34815
 1250 0006 FFF7FEFF 		bl	spi_exchange
 1251              	.LVL114:
 1252 000a 0446     		mov	r4, r0
 1253              	.LVL115:
 1254              	.LBE309:
ARM GAS  /tmp/ccJwocgn.s 			page 23


 1255              	.LBE308:
 1256              	.LBB310:
 1257              	.LBB311:
 1258 000c 48F6FF70 		movw	r0, #36863
 1259 0010 FFF7FEFF 		bl	spi_exchange
 1260              	.LVL116:
 1261              	.LBE311:
 1262              	.LBE310:
 1263              		.loc 1 220 0
 1264 0014 034B     		ldr	r3, .L80
 1265 0016 C4F30A04 		ubfx	r4, r4, #0, #11
 1266              	.LVL117:
 1267 001a 03EAC020 		and	r0, r3, r0, lsl #11
 1268              	.LVL118:
 1269              		.loc 1 222 0
 1270 001e 2043     		orrs	r0, r0, r4
 1271 0020 10BD     		pop	{r4, pc}
 1272              	.L81:
 1273 0022 00BF     		.align	2
 1274              	.L80:
 1275 0024 00F83F00 		.word	4192256
 1276              		.cfi_endproc
 1277              	.LFE262:
 1278              		.size	drv8350_read_faults, .-drv8350_read_faults
 1279              		.section	.text.drv8350_reset_faults,"ax",%progbits
 1280              		.align	1
 1281              		.p2align 4,,15
 1282              		.global	drv8350_reset_faults
 1283              		.syntax unified
 1284              		.thumb
 1285              		.thumb_func
 1286              		.fpu fpv4-sp-d16
 1287              		.type	drv8350_reset_faults, %function
 1288              	drv8350_reset_faults:
 1289              	.LFB263:
 1290              		.loc 1 227 0
 1291              		.cfi_startproc
 1292              		@ args = 0, pretend = 0, frame = 0
 1293              		@ frame_needed = 0, uses_anonymous_args = 0
 1294              	.LVL119:
 1295 0000 08B5     		push	{r3, lr}
 1296              		.cfi_def_cfa_offset 8
 1297              		.cfi_offset 3, -8
 1298              		.cfi_offset 14, -4
 1299              	.LBB312:
 1300              	.LBB313:
 1301              		.loc 1 365 0
 1302 0002 49F2FF70 		movw	r0, #38911
 1303 0006 FFF7FEFF 		bl	spi_exchange
 1304              	.LVL120:
 1305              	.LBE313:
 1306              	.LBE312:
 1307              	.LBB314:
 1308              	.LBB315:
 1309              		.loc 1 375 0
 1310 000a 40F00100 		orr	r0, r0, #1
 1311              	.LVL121:
ARM GAS  /tmp/ccJwocgn.s 			page 24


 1312 000e C0F30A00 		ubfx	r0, r0, #0, #11
 1313              		.loc 1 377 0
 1314 0012 40F48050 		orr	r0, r0, #4096
 1315              	.LBE315:
 1316              	.LBE314:
 1317              		.loc 1 231 0
 1318 0016 BDE80840 		pop	{r3, lr}
 1319              		.cfi_restore 14
 1320              		.cfi_restore 3
 1321              		.cfi_def_cfa_offset 0
 1322              	.LBB317:
 1323              	.LBB316:
 1324              		.loc 1 377 0
 1325 001a FFF7FEBF 		b	spi_exchange
 1326              	.LVL122:
 1327              	.LBE316:
 1328              	.LBE317:
 1329              		.cfi_endproc
 1330              	.LFE263:
 1331              		.size	drv8350_reset_faults, .-drv8350_reset_faults
 1332 001e 00BF     		.section	.text.terminal_reset_faults,"ax",%progbits
 1333              		.align	1
 1334              		.p2align 4,,15
 1335              		.syntax unified
 1336              		.thumb
 1337              		.thumb_func
 1338              		.fpu fpv4-sp-d16
 1339              		.type	terminal_reset_faults, %function
 1340              	terminal_reset_faults:
 1341              	.LFB278:
 1342              		.loc 1 532 0
 1343              		.cfi_startproc
 1344              		@ args = 0, pretend = 0, frame = 0
 1345              		@ frame_needed = 0, uses_anonymous_args = 0
 1346              		@ link register save eliminated.
 1347              	.LVL123:
 1348              		.loc 1 535 0
 1349 0000 FFF7FEBF 		b	drv8350_reset_faults
 1350              	.LVL124:
 1351              		.cfi_endproc
 1352              	.LFE278:
 1353              		.size	terminal_reset_faults, .-terminal_reset_faults
 1354              		.section	.text.drv8350_dccal_on,"ax",%progbits
 1355              		.align	1
 1356              		.p2align 4,,15
 1357              		.global	drv8350_dccal_on
 1358              		.syntax unified
 1359              		.thumb
 1360              		.thumb_func
 1361              		.fpu fpv4-sp-d16
 1362              		.type	drv8350_dccal_on, %function
 1363              	drv8350_dccal_on:
 1364              	.LFB264:
 1365              		.loc 1 236 0
 1366              		.cfi_startproc
 1367              		@ args = 0, pretend = 0, frame = 0
 1368              		@ frame_needed = 0, uses_anonymous_args = 0
ARM GAS  /tmp/ccJwocgn.s 			page 25


 1369              	.LVL125:
 1370 0000 08B5     		push	{r3, lr}
 1371              		.cfi_def_cfa_offset 8
 1372              		.cfi_offset 3, -8
 1373              		.cfi_offset 14, -4
 1374              	.LBB318:
 1375              	.LBB319:
 1376              		.loc 1 365 0
 1377 0002 4BF2FF70 		movw	r0, #47103
 1378 0006 FFF7FEFF 		bl	spi_exchange
 1379              	.LVL126:
 1380              	.LBE319:
 1381              	.LBE318:
 1382              	.LBB320:
 1383              	.LBB321:
 1384              		.loc 1 375 0
 1385 000a 40F01C00 		orr	r0, r0, #28
 1386              	.LVL127:
 1387 000e C0F30A00 		ubfx	r0, r0, #0, #11
 1388              		.loc 1 377 0
 1389 0012 40F44050 		orr	r0, r0, #12288
 1390              	.LBE321:
 1391              	.LBE320:
 1392              		.loc 1 242 0
 1393 0016 BDE80840 		pop	{r3, lr}
 1394              		.cfi_restore 14
 1395              		.cfi_restore 3
 1396              		.cfi_def_cfa_offset 0
 1397              	.LBB323:
 1398              	.LBB322:
 1399              		.loc 1 377 0
 1400 001a FFF7FEBF 		b	spi_exchange
 1401              	.LVL128:
 1402              	.LBE322:
 1403              	.LBE323:
 1404              		.cfi_endproc
 1405              	.LFE264:
 1406              		.size	drv8350_dccal_on, .-drv8350_dccal_on
 1407 001e 00BF     		.section	.text.terminal_dccal_on,"ax",%progbits
 1408              		.align	1
 1409              		.p2align 4,,15
 1410              		.syntax unified
 1411              		.thumb
 1412              		.thumb_func
 1413              		.fpu fpv4-sp-d16
 1414              		.type	terminal_dccal_on, %function
 1415              	terminal_dccal_on:
 1416              	.LFB279:
 1417              		.loc 1 538 0
 1418              		.cfi_startproc
 1419              		@ args = 0, pretend = 0, frame = 0
 1420              		@ frame_needed = 0, uses_anonymous_args = 0
 1421              		@ link register save eliminated.
 1422              	.LVL129:
 1423              		.loc 1 541 0
 1424 0000 FFF7FEBF 		b	drv8350_dccal_on
 1425              	.LVL130:
ARM GAS  /tmp/ccJwocgn.s 			page 26


 1426              		.cfi_endproc
 1427              	.LFE279:
 1428              		.size	terminal_dccal_on, .-terminal_dccal_on
 1429              		.section	.text.drv8350_dccal_off,"ax",%progbits
 1430              		.align	1
 1431              		.p2align 4,,15
 1432              		.global	drv8350_dccal_off
 1433              		.syntax unified
 1434              		.thumb
 1435              		.thumb_func
 1436              		.fpu fpv4-sp-d16
 1437              		.type	drv8350_dccal_off, %function
 1438              	drv8350_dccal_off:
 1439              	.LFB265:
 1440              		.loc 1 247 0
 1441              		.cfi_startproc
 1442              		@ args = 0, pretend = 0, frame = 0
 1443              		@ frame_needed = 0, uses_anonymous_args = 0
 1444              	.LVL131:
 1445 0000 08B5     		push	{r3, lr}
 1446              		.cfi_def_cfa_offset 8
 1447              		.cfi_offset 3, -8
 1448              		.cfi_offset 14, -4
 1449              	.LBB324:
 1450              	.LBB325:
 1451              		.loc 1 365 0
 1452 0002 4BF2FF70 		movw	r0, #47103
 1453 0006 FFF7FEFF 		bl	spi_exchange
 1454              	.LVL132:
 1455              	.LBE325:
 1456              	.LBE324:
 1457              		.loc 1 251 0
 1458 000a 20F01C00 		bic	r0, r0, #28
 1459              	.LVL133:
 1460              	.LBB326:
 1461              	.LBB327:
 1462              		.loc 1 375 0
 1463 000e C0F30A00 		ubfx	r0, r0, #0, #11
 1464              	.LVL134:
 1465              		.loc 1 377 0
 1466 0012 40F44050 		orr	r0, r0, #12288
 1467              	.LBE327:
 1468              	.LBE326:
 1469              		.loc 1 253 0
 1470 0016 BDE80840 		pop	{r3, lr}
 1471              		.cfi_restore 14
 1472              		.cfi_restore 3
 1473              		.cfi_def_cfa_offset 0
 1474              	.LBB329:
 1475              	.LBB328:
 1476              		.loc 1 377 0
 1477 001a FFF7FEBF 		b	spi_exchange
 1478              	.LVL135:
 1479              	.LBE328:
 1480              	.LBE329:
 1481              		.cfi_endproc
 1482              	.LFE265:
ARM GAS  /tmp/ccJwocgn.s 			page 27


 1483              		.size	drv8350_dccal_off, .-drv8350_dccal_off
 1484 001e 00BF     		.section	.text.terminal_dccal_off,"ax",%progbits
 1485              		.align	1
 1486              		.p2align 4,,15
 1487              		.syntax unified
 1488              		.thumb
 1489              		.thumb_func
 1490              		.fpu fpv4-sp-d16
 1491              		.type	terminal_dccal_off, %function
 1492              	terminal_dccal_off:
 1493              	.LFB280:
 1494              		.loc 1 544 0
 1495              		.cfi_startproc
 1496              		@ args = 0, pretend = 0, frame = 0
 1497              		@ frame_needed = 0, uses_anonymous_args = 0
 1498              		@ link register save eliminated.
 1499              	.LVL136:
 1500              		.loc 1 547 0
 1501 0000 FFF7FEBF 		b	drv8350_dccal_off
 1502              	.LVL137:
 1503              		.cfi_endproc
 1504              	.LFE280:
 1505              		.size	terminal_dccal_off, .-terminal_dccal_off
 1506              		.section	.text.drv8350_faults_to_string,"ax",%progbits
 1507              		.align	1
 1508              		.p2align 4,,15
 1509              		.global	drv8350_faults_to_string
 1510              		.syntax unified
 1511              		.thumb
 1512              		.thumb_func
 1513              		.fpu fpv4-sp-d16
 1514              		.type	drv8350_faults_to_string, %function
 1515              	drv8350_faults_to_string:
 1516              	.LFB266:
 1517              		.loc 1 257 0
 1518              		.cfi_startproc
 1519              		@ args = 0, pretend = 0, frame = 0
 1520              		@ frame_needed = 0, uses_anonymous_args = 0
 1521              	.LVL138:
 1522 0000 F8B5     		push	{r3, r4, r5, r6, r7, lr}
 1523              		.cfi_def_cfa_offset 24
 1524              		.cfi_offset 3, -24
 1525              		.cfi_offset 4, -20
 1526              		.cfi_offset 5, -16
 1527              		.cfi_offset 6, -12
 1528              		.cfi_offset 7, -8
 1529              		.cfi_offset 14, -4
 1530              		.loc 1 258 0
 1531 0002 0028     		cmp	r0, #0
 1532 0004 42D0     		beq	.L182
 1533 0006 0446     		mov	r4, r0
 1534              	.LVL139:
 1535              	.LBB332:
 1536              	.LBB333:
 1537              		.loc 1 261 0
 1538 0008 2B4D     		ldr	r5, .L205
 1539 000a 7C23     		movs	r3, #124
ARM GAS  /tmp/ccJwocgn.s 			page 28


 1540              		.loc 1 265 0
 1541 000c E007     		lsls	r0, r4, #31
 1542              	.LVL140:
 1543              		.loc 1 261 0
 1544 000e 2B80     		strh	r3, [r5]	@ movhi
 1545              		.loc 1 265 0
 1546 0010 58D4     		bmi	.L183
 1547              		.loc 1 269 0
 1548 0012 A107     		lsls	r1, r4, #30
 1549 0014 62D4     		bmi	.L184
 1550              	.L95:
 1551              		.loc 1 273 0
 1552 0016 6207     		lsls	r2, r4, #29
 1553 0018 6ED4     		bmi	.L185
 1554              	.L96:
 1555              		.loc 1 277 0
 1556 001a 2307     		lsls	r3, r4, #28
 1557 001c 7AD4     		bmi	.L186
 1558              	.L97:
 1559              		.loc 1 281 0
 1560 001e E706     		lsls	r7, r4, #27
 1561 0020 00F18780 		bmi	.L187
 1562              	.L98:
 1563              		.loc 1 285 0
 1564 0024 A606     		lsls	r6, r4, #26
 1565 0026 00F19380 		bmi	.L188
 1566              	.L99:
 1567              		.loc 1 289 0
 1568 002a 6006     		lsls	r0, r4, #25
 1569 002c 00F19F80 		bmi	.L189
 1570              	.L100:
 1571              		.loc 1 293 0
 1572 0030 2106     		lsls	r1, r4, #24
 1573 0032 00F1A880 		bmi	.L190
 1574              	.L101:
 1575              		.loc 1 297 0
 1576 0036 E205     		lsls	r2, r4, #23
 1577 0038 00F1B180 		bmi	.L191
 1578              	.L102:
 1579              		.loc 1 301 0
 1580 003c A305     		lsls	r3, r4, #22
 1581 003e 00F1BD80 		bmi	.L192
 1582              	.L103:
 1583              		.loc 1 305 0
 1584 0042 6705     		lsls	r7, r4, #21
 1585 0044 00F1CD80 		bmi	.L193
 1586              	.L104:
 1587              		.loc 1 311 0
 1588 0048 2605     		lsls	r6, r4, #20
 1589 004a 00F1D880 		bmi	.L194
 1590              	.L105:
 1591              		.loc 1 315 0
 1592 004e E004     		lsls	r0, r4, #19
 1593 0050 00F1E380 		bmi	.L195
 1594              	.L106:
 1595              		.loc 1 319 0
 1596 0054 A104     		lsls	r1, r4, #18
ARM GAS  /tmp/ccJwocgn.s 			page 29


 1597 0056 00F1EE80 		bmi	.L196
 1598              	.L107:
 1599              		.loc 1 323 0
 1600 005a 6204     		lsls	r2, r4, #17
 1601 005c 00F1F980 		bmi	.L197
 1602              	.L108:
 1603              		.loc 1 327 0
 1604 0060 2304     		lsls	r3, r4, #16
 1605 0062 00F10481 		bmi	.L198
 1606              	.L109:
 1607              		.loc 1 331 0
 1608 0066 E703     		lsls	r7, r4, #15
 1609 0068 00F10F81 		bmi	.L199
 1610              	.L110:
 1611              		.loc 1 335 0
 1612 006c A603     		lsls	r6, r4, #14
 1613 006e 00F11A81 		bmi	.L200
 1614              	.L111:
 1615              		.loc 1 339 0
 1616 0072 6003     		lsls	r0, r4, #13
 1617 0074 00F12981 		bmi	.L201
 1618              	.L112:
 1619              		.loc 1 343 0
 1620 0078 2103     		lsls	r1, r4, #12
 1621 007a 00F13581 		bmi	.L202
 1622              	.L113:
 1623              		.loc 1 347 0
 1624 007e E202     		lsls	r2, r4, #11
 1625 0080 00F14181 		bmi	.L203
 1626              	.L114:
 1627              		.loc 1 351 0
 1628 0084 A302     		lsls	r3, r4, #10
 1629 0086 09D4     		bmi	.L204
 1630              	.L93:
 1631              	.LBE333:
 1632              	.LBE332:
 1633              		.loc 1 357 0
 1634 0088 0B48     		ldr	r0, .L205
 1635 008a F8BD     		pop	{r3, r4, r5, r6, r7, pc}
 1636              	.LVL141:
 1637              	.L182:
 1638              		.loc 1 259 0
 1639 008c 0B4D     		ldr	r5, .L205+4
 1640 008e 0A4C     		ldr	r4, .L205
 1641 0090 0FCD     		ldmia	r5!, {r0, r1, r2, r3}
 1642              	.LVL142:
 1643 0092 0FC4     		stmia	r4!, {r0, r1, r2, r3}
 1644 0094 2B68     		ldr	r3, [r5]
 1645 0096 2380     		strh	r3, [r4]	@ movhi
 1646              		.loc 1 357 0
 1647 0098 0748     		ldr	r0, .L205
 1648 009a F8BD     		pop	{r3, r4, r5, r6, r7, pc}
 1649              	.LVL143:
 1650              	.L204:
 1651              	.LBB336:
 1652              	.LBB334:
 1653              		.loc 1 352 0
ARM GAS  /tmp/ccJwocgn.s 			page 30


 1654 009c 0648     		ldr	r0, .L205
 1655 009e FFF7FEFF 		bl	strlen
 1656              	.LVL144:
 1657 00a2 074B     		ldr	r3, .L205+8
 1658 00a4 0646     		mov	r6, r0
 1659 00a6 07CB     		ldmia	r3!, {r0, r1, r2}
 1660 00a8 AC19     		adds	r4, r5, r6
 1661              	.LVL145:
 1662 00aa A851     		str	r0, [r5, r6]	@ unaligned
 1663 00ac 1B88     		ldrh	r3, [r3]	@ unaligned
 1664 00ae A381     		strh	r3, [r4, #12]	@ unaligned
 1665 00b0 6160     		str	r1, [r4, #4]	@ unaligned
 1666 00b2 A260     		str	r2, [r4, #8]	@ unaligned
 1667              	.LBE334:
 1668              	.LBE336:
 1669              		.loc 1 357 0
 1670 00b4 0048     		ldr	r0, .L205
 1671 00b6 F8BD     		pop	{r3, r4, r5, r6, r7, pc}
 1672              	.L206:
 1673              		.align	2
 1674              	.L205:
 1675 00b8 00000000 		.word	.LANCHOR0
 1676 00bc 00000000 		.word	.LC26
 1677 00c0 34010000 		.word	.LC48
 1678              	.LVL146:
 1679              	.L183:
 1680              	.LBB337:
 1681              	.LBB335:
 1682              		.loc 1 266 0
 1683 00c4 984B     		ldr	r3, .L207
 1684 00c6 07CB     		ldmia	r3!, {r0, r1, r2}
 1685 00c8 1B78     		ldrb	r3, [r3]	@ zero_extendqisi2
 1686 00ca C5F80510 		str	r1, [r5, #5]	@ unaligned
 1687              		.loc 1 269 0
 1688 00ce A107     		lsls	r1, r4, #30
 1689              		.loc 1 266 0
 1690 00d0 C5F80100 		str	r0, [r5, #1]	@ unaligned
 1691 00d4 6B73     		strb	r3, [r5, #13]
 1692 00d6 C5F80920 		str	r2, [r5, #9]	@ unaligned
 1693              		.loc 1 269 0
 1694 00da 9CD5     		bpl	.L95
 1695              	.L184:
 1696              		.loc 1 270 0
 1697 00dc 9348     		ldr	r0, .L207+4
 1698 00de FFF7FEFF 		bl	strlen
 1699              	.LVL147:
 1700 00e2 934B     		ldr	r3, .L207+8
 1701 00e4 0746     		mov	r7, r0
 1702 00e6 07CB     		ldmia	r3!, {r0, r1, r2}
 1703 00e8 EE19     		adds	r6, r5, r7
 1704 00ea E851     		str	r0, [r5, r7]	@ unaligned
 1705 00ec 1B78     		ldrb	r3, [r3]	@ zero_extendqisi2
 1706 00ee B260     		str	r2, [r6, #8]	@ unaligned
 1707              		.loc 1 273 0
 1708 00f0 6207     		lsls	r2, r4, #29
 1709              		.loc 1 270 0
 1710 00f2 3373     		strb	r3, [r6, #12]
ARM GAS  /tmp/ccJwocgn.s 			page 31


 1711 00f4 7160     		str	r1, [r6, #4]	@ unaligned
 1712              		.loc 1 273 0
 1713 00f6 90D5     		bpl	.L96
 1714              	.L185:
 1715              		.loc 1 274 0
 1716 00f8 8C48     		ldr	r0, .L207+4
 1717 00fa FFF7FEFF 		bl	strlen
 1718              	.LVL148:
 1719 00fe 8D4B     		ldr	r3, .L207+12
 1720 0100 0746     		mov	r7, r0
 1721 0102 07CB     		ldmia	r3!, {r0, r1, r2}
 1722 0104 EE19     		adds	r6, r5, r7
 1723 0106 1B78     		ldrb	r3, [r3]	@ zero_extendqisi2
 1724 0108 E851     		str	r0, [r5, r7]	@ unaligned
 1725 010a 3373     		strb	r3, [r6, #12]
 1726              		.loc 1 277 0
 1727 010c 2307     		lsls	r3, r4, #28
 1728              		.loc 1 274 0
 1729 010e 7160     		str	r1, [r6, #4]	@ unaligned
 1730 0110 B260     		str	r2, [r6, #8]	@ unaligned
 1731              		.loc 1 277 0
 1732 0112 84D5     		bpl	.L97
 1733              	.L186:
 1734              		.loc 1 278 0
 1735 0114 8548     		ldr	r0, .L207+4
 1736 0116 FFF7FEFF 		bl	strlen
 1737              	.LVL149:
 1738 011a 874B     		ldr	r3, .L207+16
 1739 011c 0746     		mov	r7, r0
 1740 011e 07CB     		ldmia	r3!, {r0, r1, r2}
 1741 0120 EE19     		adds	r6, r5, r7
 1742 0122 E851     		str	r0, [r5, r7]	@ unaligned
 1743 0124 1B78     		ldrb	r3, [r3]	@ zero_extendqisi2
 1744 0126 3373     		strb	r3, [r6, #12]
 1745              		.loc 1 281 0
 1746 0128 E706     		lsls	r7, r4, #27
 1747              		.loc 1 278 0
 1748 012a 7160     		str	r1, [r6, #4]	@ unaligned
 1749 012c B260     		str	r2, [r6, #8]	@ unaligned
 1750              		.loc 1 281 0
 1751 012e 7FF579AF 		bpl	.L98
 1752              	.L187:
 1753              		.loc 1 282 0
 1754 0132 7E48     		ldr	r0, .L207+4
 1755 0134 FFF7FEFF 		bl	strlen
 1756              	.LVL150:
 1757 0138 804B     		ldr	r3, .L207+20
 1758 013a 0746     		mov	r7, r0
 1759 013c 07CB     		ldmia	r3!, {r0, r1, r2}
 1760 013e EE19     		adds	r6, r5, r7
 1761 0140 1B78     		ldrb	r3, [r3]	@ zero_extendqisi2
 1762 0142 E851     		str	r0, [r5, r7]	@ unaligned
 1763 0144 3373     		strb	r3, [r6, #12]
 1764 0146 7160     		str	r1, [r6, #4]	@ unaligned
 1765 0148 B260     		str	r2, [r6, #8]	@ unaligned
 1766              		.loc 1 285 0
 1767 014a A606     		lsls	r6, r4, #26
ARM GAS  /tmp/ccJwocgn.s 			page 32


 1768 014c 7FF56DAF 		bpl	.L99
 1769              	.L188:
 1770              		.loc 1 286 0
 1771 0150 7648     		ldr	r0, .L207+4
 1772 0152 FFF7FEFF 		bl	strlen
 1773              	.LVL151:
 1774 0156 7A4B     		ldr	r3, .L207+24
 1775 0158 0746     		mov	r7, r0
 1776 015a 07CB     		ldmia	r3!, {r0, r1, r2}
 1777 015c EE19     		adds	r6, r5, r7
 1778 015e E851     		str	r0, [r5, r7]	@ unaligned
 1779 0160 1B78     		ldrb	r3, [r3]	@ zero_extendqisi2
 1780 0162 3373     		strb	r3, [r6, #12]
 1781              		.loc 1 289 0
 1782 0164 6006     		lsls	r0, r4, #25
 1783              		.loc 1 286 0
 1784 0166 7160     		str	r1, [r6, #4]	@ unaligned
 1785 0168 B260     		str	r2, [r6, #8]	@ unaligned
 1786              		.loc 1 289 0
 1787 016a 7FF561AF 		bpl	.L100
 1788              	.L189:
 1789              		.loc 1 290 0
 1790 016e 6F48     		ldr	r0, .L207+4
 1791 0170 FFF7FEFF 		bl	strlen
 1792              	.LVL152:
 1793 0174 734B     		ldr	r3, .L207+28
 1794 0176 0246     		mov	r2, r0
 1795 0178 03CB     		ldmia	r3!, {r0, r1}
 1796 017a AB18     		adds	r3, r5, r2
 1797 017c A850     		str	r0, [r5, r2]	@ unaligned
 1798 017e 5960     		str	r1, [r3, #4]	@ unaligned
 1799              		.loc 1 293 0
 1800 0180 2106     		lsls	r1, r4, #24
 1801 0182 7FF558AF 		bpl	.L101
 1802              	.L190:
 1803              		.loc 1 294 0
 1804 0186 6948     		ldr	r0, .L207+4
 1805 0188 FFF7FEFF 		bl	strlen
 1806              	.LVL153:
 1807 018c 6E4B     		ldr	r3, .L207+32
 1808 018e 0246     		mov	r2, r0
 1809 0190 03CB     		ldmia	r3!, {r0, r1}
 1810 0192 AB18     		adds	r3, r5, r2
 1811 0194 A850     		str	r0, [r5, r2]	@ unaligned
 1812              		.loc 1 297 0
 1813 0196 E205     		lsls	r2, r4, #23
 1814              		.loc 1 294 0
 1815 0198 5960     		str	r1, [r3, #4]	@ unaligned
 1816              		.loc 1 297 0
 1817 019a 7FF54FAF 		bpl	.L102
 1818              	.L191:
 1819              		.loc 1 298 0
 1820 019e 6348     		ldr	r0, .L207+4
 1821 01a0 FFF7FEFF 		bl	strlen
 1822              	.LVL154:
 1823 01a4 694B     		ldr	r3, .L207+36
 1824 01a6 0146     		mov	r1, r0
ARM GAS  /tmp/ccJwocgn.s 			page 33


 1825 01a8 2A18     		adds	r2, r5, r0
 1826 01aa 1868     		ldr	r0, [r3]
 1827 01ac 6850     		str	r0, [r5, r1]	@ unaligned
 1828 01ae 9988     		ldrh	r1, [r3, #4]	@ unaligned
 1829 01b0 9B79     		ldrb	r3, [r3, #6]	@ zero_extendqisi2
 1830 01b2 9371     		strb	r3, [r2, #6]
 1831              		.loc 1 301 0
 1832 01b4 A305     		lsls	r3, r4, #22
 1833              		.loc 1 298 0
 1834 01b6 9180     		strh	r1, [r2, #4]	@ unaligned
 1835              		.loc 1 301 0
 1836 01b8 7FF543AF 		bpl	.L103
 1837              	.L192:
 1838              		.loc 1 302 0
 1839 01bc 5B48     		ldr	r0, .L207+4
 1840 01be 644E     		ldr	r6, .L207+40
 1841 01c0 FFF7FEFF 		bl	strlen
 1842              	.LVL155:
 1843 01c4 8446     		mov	ip, r0
 1844 01c6 0FCE     		ldmia	r6!, {r0, r1, r2, r3}
 1845 01c8 05EB0C07 		add	r7, r5, ip
 1846 01cc 45F80C00 		str	r0, [r5, ip]	@ unaligned
 1847 01d0 7960     		str	r1, [r7, #4]	@ unaligned
 1848 01d2 03CE     		ldmia	r6!, {r0, r1}
 1849 01d4 BA60     		str	r2, [r7, #8]	@ unaligned
 1850 01d6 FB60     		str	r3, [r7, #12]	@ unaligned
 1851 01d8 3861     		str	r0, [r7, #16]	@ unaligned
 1852 01da 7961     		str	r1, [r7, #20]	@ unaligned
 1853              		.loc 1 305 0
 1854 01dc 6705     		lsls	r7, r4, #21
 1855 01de 7FF533AF 		bpl	.L104
 1856              	.L193:
 1857              		.loc 1 306 0
 1858 01e2 5248     		ldr	r0, .L207+4
 1859 01e4 FFF7FEFF 		bl	strlen
 1860              	.LVL156:
 1861 01e8 5A4B     		ldr	r3, .L207+44
 1862 01ea 0646     		mov	r6, r0
 1863 01ec 03CB     		ldmia	r3!, {r0, r1}
 1864 01ee AA19     		adds	r2, r5, r6
 1865 01f0 A851     		str	r0, [r5, r6]	@ unaligned
 1866 01f2 1B78     		ldrb	r3, [r3]	@ zero_extendqisi2
 1867 01f4 1372     		strb	r3, [r2, #8]
 1868              		.loc 1 311 0
 1869 01f6 2605     		lsls	r6, r4, #20
 1870              		.loc 1 306 0
 1871 01f8 5160     		str	r1, [r2, #4]	@ unaligned
 1872              		.loc 1 311 0
 1873 01fa 7FF528AF 		bpl	.L105
 1874              	.L194:
 1875              		.loc 1 312 0
 1876 01fe 4B48     		ldr	r0, .L207+4
 1877 0200 FFF7FEFF 		bl	strlen
 1878              	.LVL157:
 1879 0204 544B     		ldr	r3, .L207+48
 1880 0206 0646     		mov	r6, r0
 1881 0208 03CB     		ldmia	r3!, {r0, r1}
ARM GAS  /tmp/ccJwocgn.s 			page 34


 1882 020a AA19     		adds	r2, r5, r6
 1883 020c A851     		str	r0, [r5, r6]	@ unaligned
 1884 020e 1B88     		ldrh	r3, [r3]	@ unaligned
 1885 0210 1381     		strh	r3, [r2, #8]	@ unaligned
 1886              		.loc 1 315 0
 1887 0212 E004     		lsls	r0, r4, #19
 1888              		.loc 1 312 0
 1889 0214 5160     		str	r1, [r2, #4]	@ unaligned
 1890              		.loc 1 315 0
 1891 0216 7FF51DAF 		bpl	.L106
 1892              	.L195:
 1893              		.loc 1 316 0
 1894 021a 4448     		ldr	r0, .L207+4
 1895 021c FFF7FEFF 		bl	strlen
 1896              	.LVL158:
 1897 0220 4E4B     		ldr	r3, .L207+52
 1898 0222 0646     		mov	r6, r0
 1899 0224 03CB     		ldmia	r3!, {r0, r1}
 1900 0226 AA19     		adds	r2, r5, r6
 1901 0228 A851     		str	r0, [r5, r6]	@ unaligned
 1902 022a 1B88     		ldrh	r3, [r3]	@ unaligned
 1903 022c 5160     		str	r1, [r2, #4]	@ unaligned
 1904              		.loc 1 319 0
 1905 022e A104     		lsls	r1, r4, #18
 1906              		.loc 1 316 0
 1907 0230 1381     		strh	r3, [r2, #8]	@ unaligned
 1908              		.loc 1 319 0
 1909 0232 7FF512AF 		bpl	.L107
 1910              	.L196:
 1911              		.loc 1 320 0
 1912 0236 3D48     		ldr	r0, .L207+4
 1913 0238 FFF7FEFF 		bl	strlen
 1914              	.LVL159:
 1915 023c 484B     		ldr	r3, .L207+56
 1916 023e 0646     		mov	r6, r0
 1917 0240 03CB     		ldmia	r3!, {r0, r1}
 1918 0242 AA19     		adds	r2, r5, r6
 1919 0244 1B88     		ldrh	r3, [r3]	@ unaligned
 1920 0246 A851     		str	r0, [r5, r6]	@ unaligned
 1921 0248 1381     		strh	r3, [r2, #8]	@ unaligned
 1922 024a 5160     		str	r1, [r2, #4]	@ unaligned
 1923              		.loc 1 323 0
 1924 024c 6204     		lsls	r2, r4, #17
 1925 024e 7FF507AF 		bpl	.L108
 1926              	.L197:
 1927              		.loc 1 324 0
 1928 0252 3648     		ldr	r0, .L207+4
 1929 0254 FFF7FEFF 		bl	strlen
 1930              	.LVL160:
 1931 0258 424B     		ldr	r3, .L207+60
 1932 025a 0646     		mov	r6, r0
 1933 025c 03CB     		ldmia	r3!, {r0, r1}
 1934 025e AA19     		adds	r2, r5, r6
 1935 0260 1B88     		ldrh	r3, [r3]	@ unaligned
 1936 0262 A851     		str	r0, [r5, r6]	@ unaligned
 1937 0264 1381     		strh	r3, [r2, #8]	@ unaligned
 1938              		.loc 1 327 0
ARM GAS  /tmp/ccJwocgn.s 			page 35


 1939 0266 2304     		lsls	r3, r4, #16
 1940              		.loc 1 324 0
 1941 0268 5160     		str	r1, [r2, #4]	@ unaligned
 1942              		.loc 1 327 0
 1943 026a 7FF5FCAE 		bpl	.L109
 1944              	.L198:
 1945              		.loc 1 328 0
 1946 026e 2F48     		ldr	r0, .L207+4
 1947 0270 FFF7FEFF 		bl	strlen
 1948              	.LVL161:
 1949 0274 3C4B     		ldr	r3, .L207+64
 1950 0276 0646     		mov	r6, r0
 1951 0278 03CB     		ldmia	r3!, {r0, r1}
 1952 027a AA19     		adds	r2, r5, r6
 1953 027c 1B88     		ldrh	r3, [r3]	@ unaligned
 1954 027e A851     		str	r0, [r5, r6]	@ unaligned
 1955              		.loc 1 331 0
 1956 0280 E703     		lsls	r7, r4, #15
 1957              		.loc 1 328 0
 1958 0282 1381     		strh	r3, [r2, #8]	@ unaligned
 1959 0284 5160     		str	r1, [r2, #4]	@ unaligned
 1960              		.loc 1 331 0
 1961 0286 7FF5F1AE 		bpl	.L110
 1962              	.L199:
 1963              		.loc 1 332 0
 1964 028a 2848     		ldr	r0, .L207+4
 1965 028c FFF7FEFF 		bl	strlen
 1966              	.LVL162:
 1967 0290 364B     		ldr	r3, .L207+68
 1968 0292 0646     		mov	r6, r0
 1969 0294 03CB     		ldmia	r3!, {r0, r1}
 1970 0296 AA19     		adds	r2, r5, r6
 1971 0298 A851     		str	r0, [r5, r6]	@ unaligned
 1972 029a 1B88     		ldrh	r3, [r3]	@ unaligned
 1973 029c 1381     		strh	r3, [r2, #8]	@ unaligned
 1974              		.loc 1 335 0
 1975 029e A603     		lsls	r6, r4, #14
 1976              		.loc 1 332 0
 1977 02a0 5160     		str	r1, [r2, #4]	@ unaligned
 1978              		.loc 1 335 0
 1979 02a2 7FF5E6AE 		bpl	.L111
 1980              	.L200:
 1981              		.loc 1 336 0
 1982 02a6 2148     		ldr	r0, .L207+4
 1983 02a8 314E     		ldr	r6, .L207+72
 1984 02aa FFF7FEFF 		bl	strlen
 1985              	.LVL163:
 1986 02ae 8446     		mov	ip, r0
 1987 02b0 0FCE     		ldmia	r6!, {r0, r1, r2, r3}
 1988 02b2 05EB0C07 		add	r7, r5, ip
 1989 02b6 45F80C00 		str	r0, [r5, ip]	@ unaligned
 1990 02ba 3688     		ldrh	r6, [r6]	@ unaligned
 1991 02bc 3E82     		strh	r6, [r7, #16]	@ unaligned
 1992              		.loc 1 339 0
 1993 02be 6003     		lsls	r0, r4, #13
 1994              		.loc 1 336 0
 1995 02c0 7960     		str	r1, [r7, #4]	@ unaligned
ARM GAS  /tmp/ccJwocgn.s 			page 36


 1996 02c2 BA60     		str	r2, [r7, #8]	@ unaligned
 1997 02c4 FB60     		str	r3, [r7, #12]	@ unaligned
 1998              		.loc 1 339 0
 1999 02c6 7FF5D7AE 		bpl	.L112
 2000              	.L201:
 2001              		.loc 1 340 0
 2002 02ca 1848     		ldr	r0, .L207+4
 2003 02cc FFF7FEFF 		bl	strlen
 2004              	.LVL164:
 2005 02d0 284B     		ldr	r3, .L207+76
 2006 02d2 0146     		mov	r1, r0
 2007 02d4 2A18     		adds	r2, r5, r0
 2008 02d6 1868     		ldr	r0, [r3]
 2009 02d8 6850     		str	r0, [r5, r1]	@ unaligned
 2010 02da 9988     		ldrh	r1, [r3, #4]	@ unaligned
 2011 02dc 9180     		strh	r1, [r2, #4]	@ unaligned
 2012 02de 9B79     		ldrb	r3, [r3, #6]	@ zero_extendqisi2
 2013 02e0 9371     		strb	r3, [r2, #6]
 2014              		.loc 1 343 0
 2015 02e2 2103     		lsls	r1, r4, #12
 2016 02e4 7FF5CBAE 		bpl	.L113
 2017              	.L202:
 2018              		.loc 1 344 0
 2019 02e8 1048     		ldr	r0, .L207+4
 2020 02ea FFF7FEFF 		bl	strlen
 2021              	.LVL165:
 2022 02ee 224B     		ldr	r3, .L207+80
 2023 02f0 0746     		mov	r7, r0
 2024 02f2 07CB     		ldmia	r3!, {r0, r1, r2}
 2025 02f4 EE19     		adds	r6, r5, r7
 2026 02f6 E851     		str	r0, [r5, r7]	@ unaligned
 2027 02f8 1B88     		ldrh	r3, [r3]	@ unaligned
 2028 02fa B260     		str	r2, [r6, #8]	@ unaligned
 2029              		.loc 1 347 0
 2030 02fc E202     		lsls	r2, r4, #11
 2031              		.loc 1 344 0
 2032 02fe B381     		strh	r3, [r6, #12]	@ unaligned
 2033 0300 7160     		str	r1, [r6, #4]	@ unaligned
 2034              		.loc 1 347 0
 2035 0302 7FF5BFAE 		bpl	.L114
 2036              	.L203:
 2037              		.loc 1 348 0
 2038 0306 0948     		ldr	r0, .L207+4
 2039 0308 FFF7FEFF 		bl	strlen
 2040              	.LVL166:
 2041 030c 1B4B     		ldr	r3, .L207+84
 2042 030e 0746     		mov	r7, r0
 2043 0310 07CB     		ldmia	r3!, {r0, r1, r2}
 2044 0312 EE19     		adds	r6, r5, r7
 2045 0314 1B88     		ldrh	r3, [r3]	@ unaligned
 2046 0316 E851     		str	r0, [r5, r7]	@ unaligned
 2047 0318 B381     		strh	r3, [r6, #12]	@ unaligned
 2048              		.loc 1 351 0
 2049 031a A302     		lsls	r3, r4, #10
 2050              		.loc 1 348 0
 2051 031c 7160     		str	r1, [r6, #4]	@ unaligned
 2052 031e B260     		str	r2, [r6, #8]	@ unaligned
ARM GAS  /tmp/ccJwocgn.s 			page 37


 2053              		.loc 1 351 0
 2054 0320 7FF5B2AE 		bpl	.L93
 2055 0324 BAE6     		b	.L204
 2056              	.L208:
 2057 0326 00BF     		.align	2
 2058              	.L207:
 2059 0328 14000000 		.word	.LC27
 2060 032c 00000000 		.word	.LANCHOR0
 2061 0330 24000000 		.word	.LC28
 2062 0334 34000000 		.word	.LC29
 2063 0338 44000000 		.word	.LC30
 2064 033c 54000000 		.word	.LC31
 2065 0340 64000000 		.word	.LC32
 2066 0344 74000000 		.word	.LC33
 2067 0348 7C000000 		.word	.LC34
 2068 034c 84000000 		.word	.LC35
 2069 0350 8C000000 		.word	.LC36
 2070 0354 A4000000 		.word	.LC37
 2071 0358 B0000000 		.word	.LC38
 2072 035c BC000000 		.word	.LC39
 2073 0360 C8000000 		.word	.LC40
 2074 0364 D4000000 		.word	.LC41
 2075 0368 E0000000 		.word	.LC42
 2076 036c EC000000 		.word	.LC43
 2077 0370 F8000000 		.word	.LC44
 2078 0374 0C010000 		.word	.LC45
 2079 0378 14010000 		.word	.LC46
 2080 037c 24010000 		.word	.LC47
 2081              	.LBE335:
 2082              	.LBE337:
 2083              		.cfi_endproc
 2084              	.LFE266:
 2085              		.size	drv8350_faults_to_string, .-drv8350_faults_to_string
 2086              		.section	.text.terminal_print_faults,"ax",%progbits
 2087              		.align	1
 2088              		.p2align 4,,15
 2089              		.syntax unified
 2090              		.thumb
 2091              		.thumb_func
 2092              		.fpu fpv4-sp-d16
 2093              		.type	terminal_print_faults, %function
 2094              	terminal_print_faults:
 2095              	.LFB277:
 2096              		.loc 1 526 0
 2097              		.cfi_startproc
 2098              		@ args = 0, pretend = 0, frame = 0
 2099              		@ frame_needed = 0, uses_anonymous_args = 0
 2100              	.LVL167:
 2101 0000 08B5     		push	{r3, lr}
 2102              		.cfi_def_cfa_offset 8
 2103              		.cfi_offset 3, -8
 2104              		.cfi_offset 14, -4
 2105              		.loc 1 529 0
 2106 0002 FFF7FEFF 		bl	drv8350_read_faults
 2107              	.LVL168:
 2108 0006 FFF7FEFF 		bl	drv8350_faults_to_string
 2109              	.LVL169:
ARM GAS  /tmp/ccJwocgn.s 			page 38


 2110              		.loc 1 530 0
 2111 000a BDE80840 		pop	{r3, lr}
 2112              		.cfi_restore 14
 2113              		.cfi_restore 3
 2114              		.cfi_def_cfa_offset 0
 2115              		.loc 1 529 0
 2116 000e FFF7FEBF 		b	commands_printf
 2117              	.LVL170:
 2118              		.cfi_endproc
 2119              	.LFE277:
 2120              		.size	terminal_print_faults, .-terminal_print_faults
 2121 0012 00BF     		.section	.text.drv8350_read_reg,"ax",%progbits
 2122              		.align	1
 2123              		.p2align 4,,15
 2124              		.global	drv8350_read_reg
 2125              		.syntax unified
 2126              		.thumb
 2127              		.thumb_func
 2128              		.fpu fpv4-sp-d16
 2129              		.type	drv8350_read_reg, %function
 2130              	drv8350_read_reg:
 2131              	.LFB267:
 2132              		.loc 1 359 0
 2133              		.cfi_startproc
 2134              		@ args = 0, pretend = 0, frame = 0
 2135              		@ frame_needed = 0, uses_anonymous_args = 0
 2136              	.LVL171:
 2137 0000 08B5     		push	{r3, lr}
 2138              		.cfi_def_cfa_offset 8
 2139              		.cfi_offset 3, -8
 2140              		.cfi_offset 14, -4
 2141              		.loc 1 362 0
 2142 0002 C002     		lsls	r0, r0, #11
 2143              	.LVL172:
 2144 0004 00F4F040 		and	r0, r0, #30720
 2145              	.LVL173:
 2146              		.loc 1 365 0
 2147 0008 40F40740 		orr	r0, r0, #34560
 2148              	.LVL174:
 2149 000c 40F0FF00 		orr	r0, r0, #255
 2150 0010 FFF7FEFF 		bl	spi_exchange
 2151              	.LVL175:
 2152              		.loc 1 370 0
 2153 0014 08BD     		pop	{r3, pc}
 2154              		.cfi_endproc
 2155              	.LFE267:
 2156              		.size	drv8350_read_reg, .-drv8350_read_reg
 2157 0016 00BF     		.section	.text.drv8350_write_reg,"ax",%progbits
 2158              		.align	1
 2159              		.p2align 4,,15
 2160              		.global	drv8350_write_reg
 2161              		.syntax unified
 2162              		.thumb
 2163              		.thumb_func
 2164              		.fpu fpv4-sp-d16
 2165              		.type	drv8350_write_reg, %function
 2166              	drv8350_write_reg:
ARM GAS  /tmp/ccJwocgn.s 			page 39


 2167              	.LFB268:
 2168              		.loc 1 372 0
 2169              		.cfi_startproc
 2170              		@ args = 0, pretend = 0, frame = 0
 2171              		@ frame_needed = 0, uses_anonymous_args = 0
 2172              		@ link register save eliminated.
 2173              	.LVL176:
 2174              		.loc 1 374 0
 2175 0000 C002     		lsls	r0, r0, #11
 2176              	.LVL177:
 2177 0002 00F4F040 		and	r0, r0, #30720
 2178              		.loc 1 375 0
 2179 0006 C1F30A01 		ubfx	r1, r1, #0, #11
 2180              	.LVL178:
 2181              		.loc 1 377 0
 2182 000a 0843     		orrs	r0, r0, r1
 2183 000c FFF7FEBF 		b	spi_exchange
 2184              	.LVL179:
 2185              		.cfi_endproc
 2186              	.LFE268:
 2187              		.size	drv8350_write_reg, .-drv8350_write_reg
 2188              		.section	.bss.m_fault_print_buffer,"aw",%nobits
 2189              		.align	2
 2190              		.set	.LANCHOR0,. + 0
 2191              		.type	m_fault_print_buffer, %object
 2192              		.size	m_fault_print_buffer, 120
 2193              	m_fault_print_buffer:
 2194 0000 00000000 		.space	120
 2194      00000000 
 2194      00000000 
 2194      00000000 
 2194      00000000 
 2195              		.section	.rodata.drv8350_faults_to_string.str1.4,"aMS",%progbits,1
 2196              		.align	2
 2197              	.LC26:
 2198 0000 4E6F2044 		.ascii	"No DRV8350 faults\000"
 2198      52563833 
 2198      35302066 
 2198      61756C74 
 2198      7300
 2199 0012 0000     		.space	2
 2200              	.LC27:
 2201 0014 20564453 		.ascii	" VDS_LC_OC |\000"
 2201      5F4C435F 
 2201      4F43207C 
 2201      00
 2202 0021 000000   		.space	3
 2203              	.LC28:
 2204 0024 20564453 		.ascii	" VDS_HC_OC |\000"
 2204      5F48435F 
 2204      4F43207C 
 2204      00
 2205 0031 000000   		.space	3
 2206              	.LC29:
 2207 0034 20564453 		.ascii	" VDS_LB_OC |\000"
 2207      5F4C425F 
 2207      4F43207C 
ARM GAS  /tmp/ccJwocgn.s 			page 40


 2207      00
 2208 0041 000000   		.space	3
 2209              	.LC30:
 2210 0044 20564453 		.ascii	" VDS_HB_OC |\000"
 2210      5F48425F 
 2210      4F43207C 
 2210      00
 2211 0051 000000   		.space	3
 2212              	.LC31:
 2213 0054 20564453 		.ascii	" VDS_LA_OC |\000"
 2213      5F4C415F 
 2213      4F43207C 
 2213      00
 2214 0061 000000   		.space	3
 2215              	.LC32:
 2216 0064 20564453 		.ascii	" VDS_HA_OC |\000"
 2216      5F48415F 
 2216      4F43207C 
 2216      00
 2217 0071 000000   		.space	3
 2218              	.LC33:
 2219 0074 204F5453 		.ascii	" OTSD |\000"
 2219      44207C00 
 2220              	.LC34:
 2221 007c 2055564C 		.ascii	" UVLO |\000"
 2221      4F207C00 
 2222              	.LC35:
 2223 0084 20474446 		.ascii	" GDF |\000"
 2223      207C00
 2224 008b 00       		.space	1
 2225              	.LC36:
 2226 008c 20564453 		.ascii	" VDS_monitor_OverCurr |\000"
 2226      5F6D6F6E 
 2226      69746F72 
 2226      5F4F7665 
 2226      72437572 
 2227              	.LC37:
 2228 00a4 20466175 		.ascii	" Fault |\000"
 2228      6C74207C 
 2228      00
 2229 00ad 000000   		.space	3
 2230              	.LC38:
 2231 00b0 20474446 		.ascii	" GDF_LC |\000"
 2231      5F4C4320 
 2231      7C00
 2232 00ba 0000     		.space	2
 2233              	.LC39:
 2234 00bc 20474446 		.ascii	" GDF_HC |\000"
 2234      5F484320 
 2234      7C00
 2235 00c6 0000     		.space	2
 2236              	.LC40:
 2237 00c8 20474446 		.ascii	" GDF_LB |\000"
 2237      5F4C4220 
 2237      7C00
 2238 00d2 0000     		.space	2
 2239              	.LC41:
ARM GAS  /tmp/ccJwocgn.s 			page 41


 2240 00d4 20474446 		.ascii	" GDF_HB |\000"
 2240      5F484220 
 2240      7C00
 2241 00de 0000     		.space	2
 2242              	.LC42:
 2243 00e0 20474446 		.ascii	" GDF_LA |\000"
 2243      5F4C4120 
 2243      7C00
 2244 00ea 0000     		.space	2
 2245              	.LC43:
 2246 00ec 20474446 		.ascii	" GDF_HA |\000"
 2246      5F484120 
 2246      7C00
 2247 00f6 0000     		.space	2
 2248              	.LC44:
 2249 00f8 2056474C 		.ascii	" VGLS_or_VCP_UV |\000"
 2249      535F6F72 
 2249      5F564350 
 2249      5F555620 
 2249      7C00
 2250 010a 0000     		.space	2
 2251              	.LC45:
 2252 010c 204F5457 		.ascii	" OTW |\000"
 2252      207C00
 2253 0113 00       		.space	1
 2254              	.LC46:
 2255 0114 2053656E 		.ascii	" Sense_C_OC |\000"
 2255      73655F43 
 2255      5F4F4320 
 2255      7C00
 2256 0122 0000     		.space	2
 2257              	.LC47:
 2258 0124 2053656E 		.ascii	" Sense_B_OC |\000"
 2258      73655F42 
 2258      5F4F4320 
 2258      7C00
 2259 0132 0000     		.space	2
 2260              	.LC48:
 2261 0134 2053656E 		.ascii	" Sense_A_OC |\000"
 2261      73655F41 
 2261      5F4F4320 
 2261      7C00
 2262              		.section	.rodata.drv8350_init.str1.4,"aMS",%progbits,1
 2263              		.align	2
 2264              	.LC7:
 2265 0000 5B726567 		.ascii	"[reg]\000"
 2265      5D00
 2266 0006 0000     		.space	2
 2267              	.LC8:
 2268 0008 52656164 		.ascii	"Read a register from the DRV8350 and print it.\000"
 2268      20612072 
 2268      65676973 
 2268      74657220 
 2268      66726F6D 
 2269 0037 00       		.space	1
 2270              	.LC9:
 2271 0038 64727638 		.ascii	"drv8350_read_reg\000"
ARM GAS  /tmp/ccJwocgn.s 			page 42


 2271      3335305F 
 2271      72656164 
 2271      5F726567 
 2271      00
 2272 0049 000000   		.space	3
 2273              	.LC10:
 2274 004c 5B726567 		.ascii	"[reg] [hexvalue]\000"
 2274      5D205B68 
 2274      65787661 
 2274      6C75655D 
 2274      00
 2275 005d 000000   		.space	3
 2276              	.LC11:
 2277 0060 57726974 		.ascii	"Write to a DRV8350 register.\000"
 2277      6520746F 
 2277      20612044 
 2277      52563833 
 2277      35302072 
 2278 007d 000000   		.space	3
 2279              	.LC12:
 2280 0080 64727638 		.ascii	"drv8350_write_reg\000"
 2280      3335305F 
 2280      77726974 
 2280      655F7265 
 2280      6700
 2281 0092 0000     		.space	2
 2282              	.LC13:
 2283 0094 5B76616C 		.ascii	"[value]\000"
 2283      75655D00 
 2284              	.LC14:
 2285 009c 53657420 		.ascii	"Set the DRV8350 OC ADJ register.\000"
 2285      74686520 
 2285      44525638 
 2285      33353020 
 2285      4F432041 
 2286 00bd 000000   		.space	3
 2287              	.LC15:
 2288 00c0 64727638 		.ascii	"drv8350_set_oc_adj\000"
 2288      3335305F 
 2288      7365745F 
 2288      6F635F61 
 2288      646A00
 2289 00d3 00       		.space	1
 2290              	.LC16:
 2291 00d4 5072696E 		.ascii	"Print all current DRV8350 faults.\000"
 2291      7420616C 
 2291      6C206375 
 2291      7272656E 
 2291      74204452 
 2292 00f6 0000     		.space	2
 2293              	.LC17:
 2294 00f8 64727638 		.ascii	"drv8350_print_faults\000"
 2294      3335305F 
 2294      7072696E 
 2294      745F6661 
 2294      756C7473 
 2295 010d 000000   		.space	3
ARM GAS  /tmp/ccJwocgn.s 			page 43


 2296              	.LC18:
 2297 0110 52657365 		.ascii	"Reset all latched DRV8350 faults.\000"
 2297      7420616C 
 2297      6C206C61 
 2297      74636865 
 2297      64204452 
 2298 0132 0000     		.space	2
 2299              	.LC19:
 2300 0134 64727638 		.ascii	"drv8350_reset_faults\000"
 2300      3335305F 
 2300      72657365 
 2300      745F6661 
 2300      756C7473 
 2301 0149 000000   		.space	3
 2302              	.LC20:
 2303 014c 52657365 		.ascii	"Reset all latched DRV8350 faults by terminal click."
 2303      7420616C 
 2303      6C206C61 
 2303      74636865 
 2303      64204452 
 2304 017f 00       		.ascii	"\000"
 2305              	.LC21:
 2306 0180 64727638 		.ascii	"drv8301_reset_faults\000"
 2306      3330315F 
 2306      72657365 
 2306      745F6661 
 2306      756C7473 
 2307 0195 000000   		.space	3
 2308              	.LC22:
 2309 0198 53686F72 		.ascii	"Short amplifier inputs.\000"
 2309      7420616D 
 2309      706C6966 
 2309      69657220 
 2309      696E7075 
 2310              	.LC23:
 2311 01b0 64727638 		.ascii	"drv8350_dccal_on\000"
 2311      3335305F 
 2311      64636361 
 2311      6C5F6F6E 
 2311      00
 2312 01c1 000000   		.space	3
 2313              	.LC24:
 2314 01c4 4E6F726D 		.ascii	"Normal operationg mode.\000"
 2314      616C206F 
 2314      70657261 
 2314      74696F6E 
 2314      67206D6F 
 2315              	.LC25:
 2316 01dc 64727638 		.ascii	"drv8350_dccal_off\000"
 2316      3335305F 
 2316      64636361 
 2316      6C5F6F66 
 2316      6600
 2317              		.section	.rodata.terminal_read_reg.str1.4,"aMS",%progbits,1
 2318              		.align	2
 2319              	.LC0:
 2320 0000 257800   		.ascii	"%x\000"
ARM GAS  /tmp/ccJwocgn.s 			page 44


 2321 0003 00       		.space	1
 2322              	.LC1:
 2323 0004 52656720 		.ascii	"Reg 0x%02x: %s %s (0x%04x)\012\000"
 2323      30782530 
 2323      32783A20 
 2323      25732025 
 2323      73202830 
 2324              	.LC2:
 2325 0020 496E7661 		.ascii	"Invalid argument(s).\012\000"
 2325      6C696420 
 2325      61726775 
 2325      6D656E74 
 2325      2873292E 
 2326 0036 0000     		.space	2
 2327              	.LC3:
 2328 0038 54686973 		.ascii	"This command requires one argument.\012\000"
 2328      20636F6D 
 2328      6D616E64 
 2328      20726571 
 2328      75697265 
 2329              		.section	.rodata.terminal_write_reg.str1.4,"aMS",%progbits,1
 2330              		.align	2
 2331              	.LC4:
 2332 0000 256400   		.ascii	"%d\000"
 2333 0003 00       		.space	1
 2334              	.LC5:
 2335 0004 4E657720 		.ascii	"New reg value 0x%02x: %s %s (0x%04x)\012\000"
 2335      72656720 
 2335      76616C75 
 2335      65203078 
 2335      25303278 
 2336 002a 0000     		.space	2
 2337              	.LC6:
 2338 002c 54686973 		.ascii	"This command requires two arguments.\012\000"
 2338      20636F6D 
 2338      6D616E64 
 2338      20726571 
 2338      75697265 
 2339              		.text
 2340              	.Letext0:
 2341              		.file 3 "/usr/arm-none-eabi/include/machine/_default_types.h"
 2342              		.file 4 "/usr/arm-none-eabi/include/sys/_stdint.h"
 2343              		.file 5 "/usr/lib/gcc/arm-none-eabi/7.3.1/include/stddef.h"
 2344              		.file 6 "ChibiOS_3.0.2/os/rt/ports/ARMCMx/compilers/GCC/chtypes.h"
 2345              		.file 7 "ChibiOS_3.0.2/os/rt/include/chsystypes.h"
 2346              		.file 8 "ChibiOS_3.0.2/os/rt/include/chschd.h"
 2347              		.file 9 "ChibiOS_3.0.2/os/ext/CMSIS/include/core_cm4.h"
 2348              		.file 10 "ChibiOS_3.0.2/os/ext/CMSIS/ST/system_stm32f4xx.h"
 2349              		.file 11 "ChibiOS_3.0.2/os/ext/CMSIS/ST/stm32f407xx.h"
 2350              		.file 12 "ChibiOS_3.0.2/os/rt/ports/ARMCMx/chcore.h"
 2351              		.file 13 "ChibiOS_3.0.2/os/rt/ports/ARMCMx/chcore_v7m.h"
 2352              		.file 14 "ChibiOS_3.0.2/os/rt/include/chtm.h"
 2353              		.file 15 "ChibiOS_3.0.2/os/rt/include/chsem.h"
 2354              		.file 16 "ChibiOS_3.0.2/os/rt/include/chmtx.h"
 2355              		.file 17 "ChibiOS_3.0.2/os/rt/include/chregistry.h"
 2356              		.file 18 "ChibiOS_3.0.2/os/rt/include/chevents.h"
 2357              		.file 19 "ChibiOS_3.0.2/os/rt/include/chqueues.h"
ARM GAS  /tmp/ccJwocgn.s 			page 45


 2358              		.file 20 "./datatypes.h"
 2359              		.file 21 "./conf_general.h"
 2360              		.file 22 "ChibiOS_3.0.2/os/hal/ports/STM32/STM32F4xx/stm32_dma.h"
 2361              		.file 23 "ChibiOS_3.0.2/os/hal/ports/STM32/LLD/GPIOv2/pal_lld.h"
 2362              		.file 24 "ChibiOS_3.0.2/os/hal/include/can.h"
 2363              		.file 25 "ChibiOS_3.0.2/os/hal/ports/STM32/LLD/can_lld.h"
 2364              		.file 26 "ChibiOS_3.0.2/os/hal/include/i2c.h"
 2365              		.file 27 "ChibiOS_3.0.2/os/hal/ports/STM32/LLD/I2Cv1/i2c_lld.h"
 2366              		.file 28 "ChibiOS_3.0.2/os/hal/include/icu.h"
 2367              		.file 29 "ChibiOS_3.0.2/os/hal/ports/STM32/LLD/TIMv1/icu_lld.h"
 2368              		.file 30 "ChibiOS_3.0.2/os/hal/ports/STM32/LLD/TIMv1/stm32_tim.h"
 2369              		.file 31 "ChibiOS_3.0.2/os/hal/include/serial.h"
 2370              		.file 32 "ChibiOS_3.0.2/os/hal/ports/STM32/LLD/USARTv1/serial_lld.h"
 2371              		.file 33 "ChibiOS_3.0.2/os/hal/include/spi.h"
 2372              		.file 34 "ChibiOS_3.0.2/os/hal/ports/STM32/LLD/SPIv1/spi_lld.h"
 2373              		.file 35 "ChibiOS_3.0.2/os/hal/include/usb.h"
 2374              		.file 36 "ChibiOS_3.0.2/os/hal/ports/STM32/LLD/OTGv1/usb_lld.h"
 2375              		.file 37 "ChibiOS_3.0.2/os/hal/ports/STM32/LLD/OTGv1/stm32_otg.h"
 2376              		.file 38 "/usr/arm-none-eabi/include/sys/lock.h"
 2377              		.file 39 "/usr/arm-none-eabi/include/sys/_types.h"
 2378              		.file 40 "/usr/arm-none-eabi/include/sys/reent.h"
 2379              		.file 41 "./commands.h"
 2380              		.file 42 "./utils.h"
 2381              		.file 43 "ChibiOS_3.0.2/os/rt/include/chthreads.h"
 2382              		.file 44 "./terminal.h"
 2383              		.file 45 "/usr/arm-none-eabi/include/stdio.h"
 2384              		.file 46 "<built-in>"