ARM GAS  /tmp/ccimSpSj.s 			page 1


   1              		.cpu cortex-m4
   2              		.eabi_attribute 27, 1
   3              		.eabi_attribute 28, 1
   4              		.eabi_attribute 20, 1
   5              		.eabi_attribute 21, 1
   6              		.eabi_attribute 23, 3
   7              		.eabi_attribute 24, 1
   8              		.eabi_attribute 25, 1
   9              		.eabi_attribute 26, 1
  10              		.eabi_attribute 30, 2
  11              		.eabi_attribute 34, 1
  12              		.eabi_attribute 18, 4
  13              		.file	"timeout.c"
  14              		.text
  15              	.Ltext0:
  16              		.cfi_sections	.debug_frame
  17              		.section	.text.timeout_thread,"ax",%progbits
  18              		.align	1
  19              		.p2align 4,,15
  20              		.syntax unified
  21              		.thumb
  22              		.thumb_func
  23              		.fpu fpv4-sp-d16
  24              		.type	timeout_thread, %function
  25              	timeout_thread:
  26              	.LFB229:
  27              		.file 1 "timeout.c"
  28              		.loc 1 162 0
  29              		.cfi_startproc
  30              		@ args = 0, pretend = 0, frame = 0
  31              		@ frame_needed = 0, uses_anonymous_args = 0
  32              	.LVL0:
  33 0000 2DE9F84F 		push	{r3, r4, r5, r6, r7, r8, r9, r10, fp, lr}
  34              		.cfi_def_cfa_offset 40
  35              		.cfi_offset 3, -40
  36              		.cfi_offset 4, -36
  37              		.cfi_offset 5, -32
  38              		.cfi_offset 6, -28
  39              		.cfi_offset 7, -24
  40              		.cfi_offset 8, -20
  41              		.cfi_offset 9, -16
  42              		.cfi_offset 10, -12
  43              		.cfi_offset 11, -8
  44              		.cfi_offset 14, -4
  45              	.LBB50:
  46              	.LBB51:
  47              		.file 2 "ChibiOS_3.0.2/os/rt/include/chregistry.h"
  48              		.loc 2 135 0
  49 0004 334E     		ldr	r6, .L26
  50 0006 3449     		ldr	r1, .L26+4
  51 0008 B369     		ldr	r3, [r6, #24]
  52 000a 344C     		ldr	r4, .L26+8
  53 000c DFF8D890 		ldr	r9, .L26+20
  54 0010 DFF8D8A0 		ldr	r10, .L26+24
  55 0014 324D     		ldr	r5, .L26+12
  56 0016 DFF8D8B0 		ldr	fp, .L26+28
  57              	.LBE51:
ARM GAS  /tmp/ccimSpSj.s 			page 2


  58              	.LBE50:
  59              	.LBB53:
  60              		.loc 1 168 0
  61 001a DFF8D880 		ldr	r8, .L26+32
  62              	.LBE53:
  63              	.LBB63:
  64              	.LBB52:
  65              		.loc 2 135 0
  66 001e 9961     		str	r1, [r3, #24]
  67              	.LBE52:
  68              	.LBE63:
  69              	.LBB64:
  70              		.loc 1 184 0
  71 0020 0027     		movs	r7, #0
  72              	.LVL1:
  73              	.L11:
  74              		.loc 1 168 0
  75 0022 2368     		ldr	r3, [r4]
  76 0024 7BB1     		cbz	r3, .L2
  77              		.loc 1 168 0 is_stmt 0 discriminator 1
  78 0026 D9F80020 		ldr	r2, [r9]
  79              	.LVL2:
  80              	.LBB54:
  81              	.LBB55:
  82              	.LBB56:
  83              	.LBB57:
  84              		.file 3 "ChibiOS_3.0.2/os/rt/include/chvt.h"
  85              		.loc 3 231 0 is_stmt 1 discriminator 1
  86 002a B06A     		ldr	r0, [r6, #40]
  87              	.LVL3:
  88              	.LBE57:
  89              	.LBE56:
  90              	.LBE55:
  91              	.LBE54:
  92              		.loc 1 168 0 discriminator 1
  93 002c 2368     		ldr	r3, [r4]
  94 002e 42F21071 		movw	r1, #10000
  95 0032 01FB03F3 		mul	r3, r1, r3
  96 0036 03F2E733 		addw	r3, r3, #999
  97              	.LBB59:
  98              	.LBB58:
  99              		.loc 3 267 0 discriminator 1
 100 003a 801A     		subs	r0, r0, r2
 101              	.LBE58:
 102              	.LBE59:
 103              		.loc 1 168 0 discriminator 1
 104 003c A8FB0323 		umull	r2, r3, r8, r3
 105 0040 B0EB931F 		cmp	r0, r3, lsr #6
 106 0044 18D8     		bhi	.L23
 107              	.L2:
 108              		.loc 1 184 0
 109 0046 2F70     		strb	r7, [r5]
 110              	.L6:
 111              	.LVL4:
 112              		.loc 1 192 0
 113 0048 DBF80030 		ldr	r3, [fp]
 114              	.LVL5:
ARM GAS  /tmp/ccimSpSj.s 			page 3


 115              		.loc 1 196 0
 116 004c DBF80400 		ldr	r0, [fp, #4]
 117 0050 10B1     		cbz	r0, .L7
 118              		.loc 1 192 0
 119 0052 181C     		adds	r0, r3, #0
 120 0054 18BF     		it	ne
 121 0056 0120     		movne	r0, #1
 122              	.L7:
 123              	.LVL6:
 124              		.loc 1 200 0
 125 0058 DBF80830 		ldr	r3, [fp, #8]
 126              		.loc 1 201 0
 127 005c 002B     		cmp	r3, #0
 128 005e 08BF     		it	eq
 129 0060 0020     		moveq	r0, #0
 130              	.LVL7:
 131              	.LBB60:
 132              		.loc 1 204 0
 133 0062 0023     		movs	r3, #0
 134              	.LVL8:
 135              	.L9:
 136              		.loc 1 205 0 discriminator 3
 137 0064 4BF82370 		str	r7, [fp, r3, lsl #2]
 138              		.loc 1 204 0 discriminator 3
 139 0068 0133     		adds	r3, r3, #1
 140              	.LVL9:
 141 006a 0A2B     		cmp	r3, #10
 142 006c FAD1     		bne	.L9
 143              	.LBE60:
 144              		.loc 1 208 0
 145 006e 30BB     		cbnz	r0, .L24
 146              	.LVL10:
 147              	.L10:
 148              		.loc 1 217 0
 149 0070 6420     		movs	r0, #100
 150 0072 FFF7FEFF 		bl	chThdSleep
 151              	.LVL11:
 152              	.LBE64:
 153              		.loc 1 167 0
 154 0076 D4E7     		b	.L11
 155              	.L23:
 156              	.LBB65:
 157              	.LBB61:
 158              		.loc 1 169 0
 159 0078 FFF7FEFF 		bl	mc_interface_unlock
 160              	.LVL12:
 161              		.loc 1 170 0
 162 007c 0020     		movs	r0, #0
 163 007e FFF7FEFF 		bl	mc_interface_set_reku
 164              	.LVL13:
 165              		.loc 1 171 0
 166 0082 0020     		movs	r0, #0
 167 0084 FFF7FEFF 		bl	mc_interface_set_gas
 168              	.LVL14:
 169              		.loc 1 172 0
 170 0088 4FF48170 		mov	r0, #258
 171 008c FFF7FEFF 		bl	mc_interface_set_enviro
ARM GAS  /tmp/ccimSpSj.s 			page 4


 172              	.LVL15:
 173              		.loc 1 174 0
 174 0090 BAF80030 		ldrh	r3, [r10]
 175 0094 B3F5FA7F 		cmp	r3, #500
 176 0098 14D0     		beq	.L25
 177              	.L3:
 178              		.loc 1 177 0
 179 009a 0133     		adds	r3, r3, #1
 180 009c 9BB2     		uxth	r3, r3
 181              		.loc 1 178 0
 182 009e B3F5FA6F 		cmp	r3, #2000
 183              		.loc 1 177 0
 184 00a2 18BF     		it	ne
 185 00a4 AAF80030 		strhne	r3, [r10]	@ movhi
 186              		.loc 1 181 0
 187 00a8 0E4B     		ldr	r3, .L26+16
 188              		.loc 1 179 0
 189 00aa 08BF     		it	eq
 190 00ac AAF80070 		strheq	r7, [r10]	@ movhi
 191              		.loc 1 181 0
 192 00b0 93ED000A 		vldr.32	s0, [r3]
 193 00b4 FFF7FEFF 		bl	mc_interface_set_brake_current
 194              	.LVL16:
 195              		.loc 1 182 0
 196 00b8 0123     		movs	r3, #1
 197 00ba 2B70     		strb	r3, [r5]
 198              	.LBE61:
 199              		.loc 1 168 0
 200 00bc C4E7     		b	.L6
 201              	.LVL17:
 202              	.L24:
 203              		.loc 1 210 0
 204 00be FFF7FEFF 		bl	IWDG_ReloadCounter
 205              	.LVL18:
 206 00c2 D5E7     		b	.L10
 207              	.L25:
 208              	.LBB62:
 209              		.loc 1 175 0
 210 00c4 4FF4A170 		mov	r0, #322
 211 00c8 FFF7FEFF 		bl	mc_interface_set_enviro
 212              	.LVL19:
 213 00cc BAF80030 		ldrh	r3, [r10]
 214 00d0 E3E7     		b	.L3
 215              	.L27:
 216 00d2 00BF     		.align	2
 217              	.L26:
 218 00d4 00000000 		.word	ch
 219 00d8 00000000 		.word	.LC0
 220 00dc 00000000 		.word	.LANCHOR0
 221 00e0 00000000 		.word	.LANCHOR4
 222 00e4 00000000 		.word	.LANCHOR3
 223 00e8 00000000 		.word	.LANCHOR1
 224 00ec 00000000 		.word	.LANCHOR2
 225 00f0 00000000 		.word	.LANCHOR5
 226 00f4 D34D6210 		.word	274877907
 227              	.LBE62:
 228              	.LBE65:
ARM GAS  /tmp/ccimSpSj.s 			page 5


 229              		.cfi_endproc
 230              	.LFE229:
 231              		.size	timeout_thread, .-timeout_thread
 232              		.section	.text.timeout_init,"ax",%progbits
 233              		.align	1
 234              		.p2align 4,,15
 235              		.global	timeout_init
 236              		.syntax unified
 237              		.thumb
 238              		.thumb_func
 239              		.fpu fpv4-sp-d16
 240              		.type	timeout_init, %function
 241              	timeout_init:
 242              	.LFB219:
 243              		.loc 1 36 0
 244              		.cfi_startproc
 245              		@ args = 0, pretend = 0, frame = 0
 246              		@ frame_needed = 0, uses_anonymous_args = 0
 247 0000 70B5     		push	{r4, r5, r6, lr}
 248              		.cfi_def_cfa_offset 16
 249              		.cfi_offset 4, -16
 250              		.cfi_offset 5, -12
 251              		.cfi_offset 6, -8
 252              		.cfi_offset 14, -4
 253              		.loc 1 37 0
 254 0002 154C     		ldr	r4, .L30
 255              		.loc 1 38 0
 256 0004 154A     		ldr	r2, .L30+4
 257              		.loc 1 39 0
 258 0006 1648     		ldr	r0, .L30+8
 259              		.loc 1 40 0
 260 0008 1649     		ldr	r1, .L30+12
 261              		.loc 1 41 0
 262 000a 174B     		ldr	r3, .L30+16
 263              		.loc 1 37 0
 264 000c 4FF47A76 		mov	r6, #1000
 265 0010 2660     		str	r6, [r4]
 266              		.loc 1 39 0
 267 0012 0025     		movs	r5, #0
 268              		.loc 1 38 0
 269 0014 0024     		movs	r4, #0
 270              		.loc 1 36 0
 271 0016 82B0     		sub	sp, sp, #8
 272              		.cfi_def_cfa_offset 24
 273              		.loc 1 38 0
 274 0018 1460     		str	r4, [r2]
 275              		.loc 1 41 0
 276 001a 0122     		movs	r2, #1
 277              		.loc 1 39 0
 278 001c 0560     		str	r5, [r0]	@ float
 279              		.loc 1 43 0
 280 001e 45F25550 		movw	r0, #21845
 281              		.loc 1 40 0
 282 0022 0C70     		strb	r4, [r1]
 283              		.loc 1 41 0
 284 0024 1A70     		strb	r2, [r3]
 285              		.loc 1 43 0
ARM GAS  /tmp/ccimSpSj.s 			page 6


 286 0026 FFF7FEFF 		bl	IWDG_WriteAccessCmd
 287              	.LVL20:
 288              		.loc 1 46 0
 289 002a 2046     		mov	r0, r4
 290 002c FFF7FEFF 		bl	IWDG_SetPrescaler
 291              	.LVL21:
 292              		.loc 1 67 0
 293 0030 8C20     		movs	r0, #140
 294 0032 FFF7FEFF 		bl	IWDG_SetReload
 295              	.LVL22:
 296              		.loc 1 69 0
 297 0036 FFF7FEFF 		bl	IWDG_ReloadCounter
 298              	.LVL23:
 299              		.loc 1 72 0
 300 003a FFF7FEFF 		bl	IWDG_Enable
 301              	.LVL24:
 302              		.loc 1 74 0
 303 003e 6420     		movs	r0, #100
 304 0040 FFF7FEFF 		bl	chThdSleep
 305              	.LVL25:
 306              		.loc 1 76 0
 307 0044 0094     		str	r4, [sp]
 308 0046 094B     		ldr	r3, .L30+20
 309 0048 0948     		ldr	r0, .L30+24
 310 004a 4022     		movs	r2, #64
 311 004c 4FF46671 		mov	r1, #920
 312 0050 FFF7FEFF 		bl	chThdCreateStatic
 313              	.LVL26:
 314              		.loc 1 77 0
 315 0054 02B0     		add	sp, sp, #8
 316              		.cfi_def_cfa_offset 16
 317              		@ sp needed
 318 0056 70BD     		pop	{r4, r5, r6, pc}
 319              	.L31:
 320              		.align	2
 321              	.L30:
 322 0058 00000000 		.word	.LANCHOR0
 323 005c 00000000 		.word	.LANCHOR1
 324 0060 00000000 		.word	.LANCHOR3
 325 0064 00000000 		.word	.LANCHOR4
 326 0068 00000000 		.word	.LANCHOR6
 327 006c 00000000 		.word	timeout_thread
 328 0070 00000000 		.word	.LANCHOR7
 329              		.cfi_endproc
 330              	.LFE219:
 331              		.size	timeout_init, .-timeout_init
 332              		.section	.text.timeout_configure,"ax",%progbits
 333              		.align	1
 334              		.p2align 4,,15
 335              		.global	timeout_configure
 336              		.syntax unified
 337              		.thumb
 338              		.thumb_func
 339              		.fpu fpv4-sp-d16
 340              		.type	timeout_configure, %function
 341              	timeout_configure:
 342              	.LFB220:
ARM GAS  /tmp/ccimSpSj.s 			page 7


 343              		.loc 1 79 0
 344              		.cfi_startproc
 345              		@ args = 0, pretend = 0, frame = 0
 346              		@ frame_needed = 0, uses_anonymous_args = 0
 347              		@ link register save eliminated.
 348              	.LVL27:
 349              		.loc 1 80 0
 350 0000 024A     		ldr	r2, .L33
 351              		.loc 1 81 0
 352 0002 034B     		ldr	r3, .L33+4
 353              		.loc 1 80 0
 354 0004 1060     		str	r0, [r2]
 355              		.loc 1 81 0
 356 0006 83ED000A 		vstr.32	s0, [r3]
 357              		.loc 1 82 0
 358 000a 7047     		bx	lr
 359              	.L34:
 360              		.align	2
 361              	.L33:
 362 000c 00000000 		.word	.LANCHOR0
 363 0010 00000000 		.word	.LANCHOR3
 364              		.cfi_endproc
 365              	.LFE220:
 366              		.size	timeout_configure, .-timeout_configure
 367              		.section	.text.timeout_reset,"ax",%progbits
 368              		.align	1
 369              		.p2align 4,,15
 370              		.global	timeout_reset
 371              		.syntax unified
 372              		.thumb
 373              		.thumb_func
 374              		.fpu fpv4-sp-d16
 375              		.type	timeout_reset, %function
 376              	timeout_reset:
 377              	.LFB221:
 378              		.loc 1 84 0
 379              		.cfi_startproc
 380              		@ args = 0, pretend = 0, frame = 0
 381              		@ frame_needed = 0, uses_anonymous_args = 0
 382              		@ link register save eliminated.
 383              	.LBB66:
 384              	.LBB67:
 385              	.LBB68:
 386              	.LBB69:
 387              	.LBB70:
 388              	.LBB71:
 389              		.file 4 "ChibiOS_3.0.2/os/ext/CMSIS/include/core_cmFunc.h"
 390              		.loc 4 342 0
 391              		.syntax unified
 392              	@ 342 "ChibiOS_3.0.2/os/ext/CMSIS/include/core_cmFunc.h" 1
 393 0000 72B6     		cpsid i
 394              	@ 0 "" 2
 395              		.thumb
 396              		.syntax unified
 397              	.LBE71:
 398              	.LBE70:
 399              	.LBE69:
ARM GAS  /tmp/ccimSpSj.s 			page 8


 400              	.LBE68:
 401              	.LBB72:
 402              	.LBB73:
 403              		.loc 3 231 0
 404 0002 034B     		ldr	r3, .L36
 405 0004 9A6A     		ldr	r2, [r3, #40]
 406              	.LBE73:
 407              	.LBE72:
 408              	.LBB74:
 409              	.LBB75:
 410              	.LBB76:
 411              	.LBB77:
 412              	.LBB78:
 413              		.loc 4 331 0
 414              		.syntax unified
 415              	@ 331 "ChibiOS_3.0.2/os/ext/CMSIS/include/core_cmFunc.h" 1
 416 0006 62B6     		cpsie i
 417              	@ 0 "" 2
 418              		.thumb
 419              		.syntax unified
 420              	.LBE78:
 421              	.LBE77:
 422              	.LBE76:
 423              	.LBE75:
 424              	.LBE74:
 425              	.LBE67:
 426              	.LBE66:
 427              		.loc 1 85 0
 428 0008 024B     		ldr	r3, .L36+4
 429 000a 1A60     		str	r2, [r3]
 430              		.loc 1 86 0
 431 000c 7047     		bx	lr
 432              	.L37:
 433 000e 00BF     		.align	2
 434              	.L36:
 435 0010 00000000 		.word	ch
 436 0014 00000000 		.word	.LANCHOR1
 437              		.cfi_endproc
 438              	.LFE221:
 439              		.size	timeout_reset, .-timeout_reset
 440              		.section	.text.timeout_has_timeout,"ax",%progbits
 441              		.align	1
 442              		.p2align 4,,15
 443              		.global	timeout_has_timeout
 444              		.syntax unified
 445              		.thumb
 446              		.thumb_func
 447              		.fpu fpv4-sp-d16
 448              		.type	timeout_has_timeout, %function
 449              	timeout_has_timeout:
 450              	.LFB222:
 451              		.loc 1 88 0
 452              		.cfi_startproc
 453              		@ args = 0, pretend = 0, frame = 0
 454              		@ frame_needed = 0, uses_anonymous_args = 0
 455              		@ link register save eliminated.
 456              		.loc 1 89 0
ARM GAS  /tmp/ccimSpSj.s 			page 9


 457 0000 014B     		ldr	r3, .L39
 458 0002 1878     		ldrb	r0, [r3]	@ zero_extendqisi2
 459              		.loc 1 90 0
 460 0004 7047     		bx	lr
 461              	.L40:
 462 0006 00BF     		.align	2
 463              	.L39:
 464 0008 00000000 		.word	.LANCHOR4
 465              		.cfi_endproc
 466              	.LFE222:
 467              		.size	timeout_has_timeout, .-timeout_has_timeout
 468              		.section	.text.timeout_get_timeout_msec,"ax",%progbits
 469              		.align	1
 470              		.p2align 4,,15
 471              		.global	timeout_get_timeout_msec
 472              		.syntax unified
 473              		.thumb
 474              		.thumb_func
 475              		.fpu fpv4-sp-d16
 476              		.type	timeout_get_timeout_msec, %function
 477              	timeout_get_timeout_msec:
 478              	.LFB223:
 479              		.loc 1 92 0
 480              		.cfi_startproc
 481              		@ args = 0, pretend = 0, frame = 0
 482              		@ frame_needed = 0, uses_anonymous_args = 0
 483              		@ link register save eliminated.
 484              		.loc 1 93 0
 485 0000 014B     		ldr	r3, .L42
 486 0002 1868     		ldr	r0, [r3]
 487              		.loc 1 94 0
 488 0004 7047     		bx	lr
 489              	.L43:
 490 0006 00BF     		.align	2
 491              	.L42:
 492 0008 00000000 		.word	.LANCHOR0
 493              		.cfi_endproc
 494              	.LFE223:
 495              		.size	timeout_get_timeout_msec, .-timeout_get_timeout_msec
 496              		.section	.text.timeout_get_brake_current,"ax",%progbits
 497              		.align	1
 498              		.p2align 4,,15
 499              		.global	timeout_get_brake_current
 500              		.syntax unified
 501              		.thumb
 502              		.thumb_func
 503              		.fpu fpv4-sp-d16
 504              		.type	timeout_get_brake_current, %function
 505              	timeout_get_brake_current:
 506              	.LFB224:
 507              		.loc 1 96 0
 508              		.cfi_startproc
 509              		@ args = 0, pretend = 0, frame = 0
 510              		@ frame_needed = 0, uses_anonymous_args = 0
 511              		@ link register save eliminated.
 512              		.loc 1 97 0
 513 0000 014B     		ldr	r3, .L45
ARM GAS  /tmp/ccimSpSj.s 			page 10


 514 0002 93ED000A 		vldr.32	s0, [r3]
 515              		.loc 1 98 0
 516 0006 7047     		bx	lr
 517              	.L46:
 518              		.align	2
 519              	.L45:
 520 0008 00000000 		.word	.LANCHOR3
 521              		.cfi_endproc
 522              	.LFE224:
 523              		.size	timeout_get_brake_current, .-timeout_get_brake_current
 524              		.section	.text.timeout_feed_WDT,"ax",%progbits
 525              		.align	1
 526              		.p2align 4,,15
 527              		.global	timeout_feed_WDT
 528              		.syntax unified
 529              		.thumb
 530              		.thumb_func
 531              		.fpu fpv4-sp-d16
 532              		.type	timeout_feed_WDT, %function
 533              	timeout_feed_WDT:
 534              	.LFB225:
 535              		.loc 1 100 0
 536              		.cfi_startproc
 537              		@ args = 0, pretend = 0, frame = 0
 538              		@ frame_needed = 0, uses_anonymous_args = 0
 539              		@ link register save eliminated.
 540              	.LVL28:
 541              		.loc 1 101 0
 542 0000 034A     		ldr	r2, .L48
 543 0002 52F82030 		ldr	r3, [r2, r0, lsl #2]
 544 0006 0133     		adds	r3, r3, #1
 545 0008 42F82030 		str	r3, [r2, r0, lsl #2]
 546              		.loc 1 102 0
 547 000c 7047     		bx	lr
 548              	.L49:
 549 000e 00BF     		.align	2
 550              	.L48:
 551 0010 00000000 		.word	.LANCHOR5
 552              		.cfi_endproc
 553              	.LFE225:
 554              		.size	timeout_feed_WDT, .-timeout_feed_WDT
 555              		.section	.text.timeout_configure_IWDT_slowest,"ax",%progbits
 556              		.align	1
 557              		.p2align 4,,15
 558              		.global	timeout_configure_IWDT_slowest
 559              		.syntax unified
 560              		.thumb
 561              		.thumb_func
 562              		.fpu fpv4-sp-d16
 563              		.type	timeout_configure_IWDT_slowest, %function
 564              	timeout_configure_IWDT_slowest:
 565              	.LFB226:
 566              		.loc 1 104 0
 567              		.cfi_startproc
 568              		@ args = 0, pretend = 0, frame = 0
 569              		@ frame_needed = 0, uses_anonymous_args = 0
 570              		.loc 1 105 0
ARM GAS  /tmp/ccimSpSj.s 			page 11


 571 0000 124B     		ldr	r3, .L61
 572 0002 1B78     		ldrb	r3, [r3]	@ zero_extendqisi2
 573 0004 03B3     		cbz	r3, .L58
 574              		.loc 1 104 0
 575 0006 10B5     		push	{r4, lr}
 576              		.cfi_def_cfa_offset 8
 577              		.cfi_offset 4, -8
 578              		.cfi_offset 14, -4
 579              		.loc 1 109 0
 580 0008 114C     		ldr	r4, .L61+4
 581 000a 01E0     		b	.L51
 582              	.L52:
 583              		.loc 1 111 0
 584 000c FFF7FEFF 		bl	IWDG_ReloadCounter
 585              	.LVL29:
 586              	.L51:
 587              		.loc 1 109 0
 588 0010 E368     		ldr	r3, [r4, #12]
 589 0012 9807     		lsls	r0, r3, #30
 590 0014 FAD4     		bmi	.L52
 591              		.loc 1 109 0 is_stmt 0 discriminator 1
 592 0016 E368     		ldr	r3, [r4, #12]
 593 0018 D907     		lsls	r1, r3, #31
 594 001a F7D4     		bmi	.L52
 595              		.loc 1 115 0 is_stmt 1
 596 001c 45F25550 		movw	r0, #21845
 597 0020 FFF7FEFF 		bl	IWDG_WriteAccessCmd
 598              	.LVL30:
 599              		.loc 1 117 0
 600 0024 4FF47A60 		mov	r0, #4000
 601 0028 FFF7FEFF 		bl	IWDG_SetReload
 602              	.LVL31:
 603              		.loc 1 118 0
 604 002c 0620     		movs	r0, #6
 605 002e FFF7FEFF 		bl	IWDG_SetPrescaler
 606              	.LVL32:
 607              		.loc 1 121 0
 608 0032 074C     		ldr	r4, .L61+4
 609 0034 01E0     		b	.L53
 610              	.L54:
 611              		.loc 1 123 0
 612 0036 FFF7FEFF 		bl	IWDG_ReloadCounter
 613              	.LVL33:
 614              	.L53:
 615              		.loc 1 121 0
 616 003a E368     		ldr	r3, [r4, #12]
 617 003c 9A07     		lsls	r2, r3, #30
 618 003e FAD4     		bmi	.L54
 619              		.loc 1 121 0 is_stmt 0 discriminator 1
 620 0040 E368     		ldr	r3, [r4, #12]
 621 0042 DB07     		lsls	r3, r3, #31
 622 0044 F7D4     		bmi	.L54
 623              		.loc 1 125 0 is_stmt 1
 624 0046 10BD     		pop	{r4, pc}
 625              	.L58:
 626              		.cfi_def_cfa_offset 0
 627              		.cfi_restore 4
ARM GAS  /tmp/ccimSpSj.s 			page 12


 628              		.cfi_restore 14
 629 0048 7047     		bx	lr
 630              	.L62:
 631 004a 00BF     		.align	2
 632              	.L61:
 633 004c 00000000 		.word	.LANCHOR6
 634 0050 00300040 		.word	1073754112
 635              		.cfi_endproc
 636              	.LFE226:
 637              		.size	timeout_configure_IWDT_slowest, .-timeout_configure_IWDT_slowest
 638              		.section	.text.timeout_configure_IWDT,"ax",%progbits
 639              		.align	1
 640              		.p2align 4,,15
 641              		.global	timeout_configure_IWDT
 642              		.syntax unified
 643              		.thumb
 644              		.thumb_func
 645              		.fpu fpv4-sp-d16
 646              		.type	timeout_configure_IWDT, %function
 647              	timeout_configure_IWDT:
 648              	.LFB227:
 649              		.loc 1 127 0
 650              		.cfi_startproc
 651              		@ args = 0, pretend = 0, frame = 0
 652              		@ frame_needed = 0, uses_anonymous_args = 0
 653 0000 38B5     		push	{r3, r4, r5, lr}
 654              		.cfi_def_cfa_offset 16
 655              		.cfi_offset 3, -16
 656              		.cfi_offset 4, -12
 657              		.cfi_offset 5, -8
 658              		.cfi_offset 14, -4
 659              		.loc 1 128 0
 660 0002 114B     		ldr	r3, .L71
 661 0004 1B78     		ldrb	r3, [r3]	@ zero_extendqisi2
 662 0006 F3B1     		cbz	r3, .L63
 663              		.loc 1 132 0
 664 0008 104D     		ldr	r5, .L71+4
 665 000a 01E0     		b	.L64
 666              	.L65:
 667              		.loc 1 134 0
 668 000c FFF7FEFF 		bl	IWDG_ReloadCounter
 669              	.LVL34:
 670              	.L64:
 671              		.loc 1 132 0
 672 0010 EB68     		ldr	r3, [r5, #12]
 673 0012 9907     		lsls	r1, r3, #30
 674 0014 FAD4     		bmi	.L65
 675              		.loc 1 132 0 is_stmt 0 discriminator 1
 676 0016 EC68     		ldr	r4, [r5, #12]
 677 0018 14F00104 		ands	r4, r4, #1
 678 001c F6D1     		bne	.L65
 679              		.loc 1 138 0 is_stmt 1
 680 001e 45F25550 		movw	r0, #21845
 681 0022 FFF7FEFF 		bl	IWDG_WriteAccessCmd
 682              	.LVL35:
 683              		.loc 1 140 0
 684 0026 8C20     		movs	r0, #140
ARM GAS  /tmp/ccimSpSj.s 			page 13


 685 0028 FFF7FEFF 		bl	IWDG_SetReload
 686              	.LVL36:
 687              		.loc 1 141 0
 688 002c 2046     		mov	r0, r4
 689 002e FFF7FEFF 		bl	IWDG_SetPrescaler
 690              	.LVL37:
 691              		.loc 1 144 0
 692 0032 064C     		ldr	r4, .L71+4
 693 0034 01E0     		b	.L66
 694              	.L67:
 695              		.loc 1 146 0
 696 0036 FFF7FEFF 		bl	IWDG_ReloadCounter
 697              	.LVL38:
 698              	.L66:
 699              		.loc 1 144 0
 700 003a E368     		ldr	r3, [r4, #12]
 701 003c 9A07     		lsls	r2, r3, #30
 702 003e FAD4     		bmi	.L67
 703              		.loc 1 144 0 is_stmt 0 discriminator 1
 704 0040 E368     		ldr	r3, [r4, #12]
 705 0042 DB07     		lsls	r3, r3, #31
 706 0044 F7D4     		bmi	.L67
 707              	.L63:
 708              		.loc 1 148 0 is_stmt 1
 709 0046 38BD     		pop	{r3, r4, r5, pc}
 710              	.L72:
 711              		.align	2
 712              	.L71:
 713 0048 00000000 		.word	.LANCHOR6
 714 004c 00300040 		.word	1073754112
 715              		.cfi_endproc
 716              	.LFE227:
 717              		.size	timeout_configure_IWDT, .-timeout_configure_IWDT
 718              		.section	.text.timeout_had_IWDG_reset,"ax",%progbits
 719              		.align	1
 720              		.p2align 4,,15
 721              		.global	timeout_had_IWDG_reset
 722              		.syntax unified
 723              		.thumb
 724              		.thumb_func
 725              		.fpu fpv4-sp-d16
 726              		.type	timeout_had_IWDG_reset, %function
 727              	timeout_had_IWDG_reset:
 728              	.LFB228:
 729              		.loc 1 150 0
 730              		.cfi_startproc
 731              		@ args = 0, pretend = 0, frame = 0
 732              		@ frame_needed = 0, uses_anonymous_args = 0
 733 0000 08B5     		push	{r3, lr}
 734              		.cfi_def_cfa_offset 8
 735              		.cfi_offset 3, -8
 736              		.cfi_offset 14, -4
 737              		.loc 1 152 0
 738 0002 7D20     		movs	r0, #125
 739 0004 FFF7FEFF 		bl	RCC_GetFlagStatus
 740              	.LVL39:
 741 0008 00B9     		cbnz	r0, .L77
ARM GAS  /tmp/ccimSpSj.s 			page 14


 742              		.loc 1 160 0
 743 000a 08BD     		pop	{r3, pc}
 744              	.L77:
 745              		.loc 1 155 0
 746 000c FFF7FEFF 		bl	RCC_ClearFlag
 747              	.LVL40:
 748              		.loc 1 156 0
 749 0010 0120     		movs	r0, #1
 750              		.loc 1 160 0
 751 0012 08BD     		pop	{r3, pc}
 752              		.cfi_endproc
 753              	.LFE228:
 754              		.size	timeout_had_IWDG_reset, .-timeout_had_IWDG_reset
 755              		.section	.bss.feed_counter,"aw",%nobits
 756              		.align	2
 757              		.set	.LANCHOR5,. + 0
 758              		.type	feed_counter, %object
 759              		.size	feed_counter, 40
 760              	feed_counter:
 761 0000 00000000 		.space	40
 761      00000000 
 761      00000000 
 761      00000000 
 761      00000000 
 762              		.section	.bss.has_timeout,"aw",%nobits
 763              		.set	.LANCHOR4,. + 0
 764              		.type	has_timeout, %object
 765              		.size	has_timeout, 1
 766              	has_timeout:
 767 0000 00       		.space	1
 768              		.section	.bss.hupe_timeout_counter.9772,"aw",%nobits
 769              		.align	1
 770              		.set	.LANCHOR2,. + 0
 771              		.type	hupe_timeout_counter.9772, %object
 772              		.size	hupe_timeout_counter.9772, 2
 773              	hupe_timeout_counter.9772:
 774 0000 0000     		.space	2
 775              		.section	.bss.init_done,"aw",%nobits
 776              		.set	.LANCHOR6,. + 0
 777              		.type	init_done, %object
 778              		.size	init_done, 1
 779              	init_done:
 780 0000 00       		.space	1
 781              		.section	.bss.last_update_time,"aw",%nobits
 782              		.align	2
 783              		.set	.LANCHOR1,. + 0
 784              		.type	last_update_time, %object
 785              		.size	last_update_time, 4
 786              	last_update_time:
 787 0000 00000000 		.space	4
 788              		.section	.bss.timeout_brake_current,"aw",%nobits
 789              		.align	2
 790              		.set	.LANCHOR3,. + 0
 791              		.type	timeout_brake_current, %object
 792              		.size	timeout_brake_current, 4
 793              	timeout_brake_current:
 794 0000 00000000 		.space	4
ARM GAS  /tmp/ccimSpSj.s 			page 15


 795              		.section	.bss.timeout_msec,"aw",%nobits
 796              		.align	2
 797              		.set	.LANCHOR0,. + 0
 798              		.type	timeout_msec, %object
 799              		.size	timeout_msec, 4
 800              	timeout_msec:
 801 0000 00000000 		.space	4
 802              		.section	.bss.timeout_thread_wa,"aw",%nobits
 803              		.align	3
 804              		.set	.LANCHOR7,. + 0
 805              		.type	timeout_thread_wa, %object
 806              		.size	timeout_thread_wa, 920
 807              	timeout_thread_wa:
 808 0000 00000000 		.space	920
 808      00000000 
 808      00000000 
 808      00000000 
 808      00000000 
 809              		.section	.rodata.timeout_thread.str1.4,"aMS",%progbits,1
 810              		.align	2
 811              	.LC0:
 812 0000 54696D65 		.ascii	"Timeout\000"
 812      6F757400 
 813              		.text
 814              	.Letext0:
 815              		.file 5 "/usr/lib/gcc/arm-none-eabi/7.3.1/include/stddef.h"
 816              		.file 6 "/usr/arm-none-eabi/include/machine/_default_types.h"
 817              		.file 7 "/usr/arm-none-eabi/include/sys/_stdint.h"
 818              		.file 8 "ChibiOS_3.0.2/os/rt/ports/ARMCMx/compilers/GCC/chtypes.h"
 819              		.file 9 "ChibiOS_3.0.2/os/rt/include/chsystypes.h"
 820              		.file 10 "ChibiOS_3.0.2/os/rt/include/chschd.h"
 821              		.file 11 "ChibiOS_3.0.2/os/ext/CMSIS/include/core_cm4.h"
 822              		.file 12 "ChibiOS_3.0.2/os/ext/CMSIS/ST/system_stm32f4xx.h"
 823              		.file 13 "ChibiOS_3.0.2/os/ext/CMSIS/ST/stm32f407xx.h"
 824              		.file 14 "ChibiOS_3.0.2/os/rt/ports/ARMCMx/chcore.h"
 825              		.file 15 "ChibiOS_3.0.2/os/rt/ports/ARMCMx/chcore_v7m.h"
 826              		.file 16 "ChibiOS_3.0.2/os/rt/include/chtm.h"
 827              		.file 17 "ChibiOS_3.0.2/os/rt/include/chsem.h"
 828              		.file 18 "ChibiOS_3.0.2/os/rt/include/chmtx.h"
 829              		.file 19 "ChibiOS_3.0.2/os/ext/CMSIS/ST/stm32f4xx.h"
 830              		.file 20 "timeout.h"
 831              		.file 21 "conf_general.h"
 832              		.file 22 "mc_interface.h"
 833              		.file 23 "ChibiOS_3.0.2/os/rt/include/chsys.h"
 834              		.file 24 "ChibiOS_3.0.2/os/rt/include/chthreads.h"
 835              		.file 25 "ChibiOS_3.0.2/ext/stdperiph_stm32f4/inc/stm32f4xx_iwdg.h"
 836              		.file 26 "ChibiOS_3.0.2/ext/stdperiph_stm32f4/inc/stm32f4xx_rcc.h"