ARM GAS  /tmp/ccCK4rXm.s 			page 1


   1              		.cpu cortex-m4
   2              		.eabi_attribute 27, 1
   3              		.eabi_attribute 28, 1
   4              		.eabi_attribute 20, 1
   5              		.eabi_attribute 21, 1
   6              		.eabi_attribute 23, 3
   7              		.eabi_attribute 24, 1
   8              		.eabi_attribute 25, 1
   9              		.eabi_attribute 26, 1
  10              		.eabi_attribute 30, 2
  11              		.eabi_attribute 34, 1
  12              		.eabi_attribute 18, 4
  13              		.file	"main.c"
  14              		.text
  15              	.Ltext0:
  16              		.cfi_sections	.debug_frame
  17              		.section	.text.flash_integrity_check_thread,"ax",%progbits
  18              		.align	1
  19              		.p2align 4,,15
  20              		.syntax unified
  21              		.thumb
  22              		.thumb_func
  23              		.fpu fpv4-sp-d16
  24              		.type	flash_integrity_check_thread, %function
  25              	flash_integrity_check_thread:
  26              	.LFB259:
  27              		.file 1 "main.c"
  28              		.loc 1 81 0
  29              		.cfi_startproc
  30              		@ Volatile: function does not return.
  31              		@ args = 0, pretend = 0, frame = 0
  32              		@ frame_needed = 0, uses_anonymous_args = 0
  33              	.LVL0:
  34 0000 08B5     		push	{r3, lr}
  35              		.cfi_def_cfa_offset 8
  36              		.cfi_offset 3, -8
  37              		.cfi_offset 14, -4
  38              	.LBB30:
  39              	.LBB31:
  40              		.file 2 "ChibiOS_3.0.2/os/rt/include/chregistry.h"
  41              		.loc 2 135 0
  42 0002 0F4B     		ldr	r3, .L7
  43 0004 0F4A     		ldr	r2, .L7+4
  44 0006 9B69     		ldr	r3, [r3, #24]
  45              	.LBE31:
  46              	.LBE30:
  47              		.loc 1 85 0
  48 0008 0121     		movs	r1, #1
  49              	.LBB33:
  50              	.LBB32:
  51              		.loc 2 135 0
  52 000a 9A61     		str	r2, [r3, #24]
  53              	.LVL1:
  54              	.LBE32:
  55              	.LBE33:
  56              		.loc 1 85 0
  57 000c 4FF48050 		mov	r0, #4096
ARM GAS  /tmp/ccCK4rXm.s 			page 2


  58              	.LVL2:
  59 0010 FFF7FEFF 		bl	RCC_AHB1PeriphClockCmd
  60              	.LVL3:
  61 0014 01E0     		b	.L4
  62              	.L2:
  63              		.loc 1 92 0
  64 0016 FFF7FEFF 		bl	chThdSleep
  65              	.LVL4:
  66              	.L4:
  67              		.loc 1 88 0
  68 001a FFF7FEFF 		bl	flash_helper_verify_flash_memory_chunk
  69              	.LVL5:
  70 001e 0E28     		cmp	r0, #14
  71              		.loc 1 92 0
  72 0020 4FF03C00 		mov	r0, #60
  73              		.loc 1 88 0
  74 0024 F7D1     		bne	.L2
  75              	.LBB34:
  76              	.LBB35:
  77              	.LBB36:
  78              	.LBB37:
  79              		.file 3 "ChibiOS_3.0.2/os/ext/CMSIS/include/core_cmInstr.h"
  80              		.loc 3 382 0
  81              		.syntax unified
  82              	@ 382 "ChibiOS_3.0.2/os/ext/CMSIS/include/core_cmInstr.h" 1
  83 0026 BFF34F8F 		dsb
  84              	@ 0 "" 2
  85              		.thumb
  86              		.syntax unified
  87              	.LBE37:
  88              	.LBE36:
  89              		.file 4 "ChibiOS_3.0.2/os/ext/CMSIS/include/core_cm4.h"
  90              		.loc 4 1643 0
  91 002a 0749     		ldr	r1, .L7+8
  92 002c 074B     		ldr	r3, .L7+12
  93 002e CA68     		ldr	r2, [r1, #12]
  94 0030 02F4E062 		and	r2, r2, #1792
  95 0034 1343     		orrs	r3, r3, r2
  96              		.loc 4 1642 0
  97 0036 CB60     		str	r3, [r1, #12]
  98              	.LBB38:
  99              	.LBB39:
 100              		.loc 3 382 0
 101              		.syntax unified
 102              	@ 382 "ChibiOS_3.0.2/os/ext/CMSIS/include/core_cmInstr.h" 1
 103 0038 BFF34F8F 		dsb
 104              	@ 0 "" 2
 105              		.thumb
 106              		.syntax unified
 107              	.L3:
 108 003c FEE7     		b	.L3
 109              	.L8:
 110 003e 00BF     		.align	2
 111              	.L7:
 112 0040 00000000 		.word	ch
 113 0044 00000000 		.word	.LC0
 114 0048 00ED00E0 		.word	-536810240
ARM GAS  /tmp/ccCK4rXm.s 			page 3


 115 004c 0400FA05 		.word	100270084
 116              	.LBE39:
 117              	.LBE38:
 118              	.LBE35:
 119              	.LBE34:
 120              		.cfi_endproc
 121              	.LFE259:
 122              		.size	flash_integrity_check_thread, .-flash_integrity_check_thread
 123              		.section	.text.timer_thread,"ax",%progbits
 124              		.align	1
 125              		.p2align 4,,15
 126              		.syntax unified
 127              		.thumb
 128              		.thumb_func
 129              		.fpu fpv4-sp-d16
 130              		.type	timer_thread, %function
 131              	timer_thread:
 132              	.LFB261:
 133              		.loc 1 164 0
 134              		.cfi_startproc
 135              		@ Volatile: function does not return.
 136              		@ args = 0, pretend = 0, frame = 0
 137              		@ frame_needed = 0, uses_anonymous_args = 0
 138              	.LVL6:
 139 0000 08B5     		push	{r3, lr}
 140              		.cfi_def_cfa_offset 8
 141              		.cfi_offset 3, -8
 142              		.cfi_offset 14, -4
 143              	.LBB40:
 144              	.LBB41:
 145              		.loc 2 135 0
 146 0002 064B     		ldr	r3, .L12
 147 0004 064A     		ldr	r2, .L12+4
 148 0006 9B69     		ldr	r3, [r3, #24]
 149 0008 9A61     		str	r2, [r3, #24]
 150              	.LVL7:
 151              	.L10:
 152              	.LBE41:
 153              	.LBE40:
 154              		.loc 1 170 0 discriminator 1
 155 000a FFF7FEFF 		bl	packet_timerfunc
 156              	.LVL8:
 157              		.loc 1 171 0 discriminator 1
 158 000e 0220     		movs	r0, #2
 159 0010 FFF7FEFF 		bl	timeout_feed_WDT
 160              	.LVL9:
 161              		.loc 1 172 0 discriminator 1
 162 0014 0A20     		movs	r0, #10
 163 0016 FFF7FEFF 		bl	chThdSleep
 164              	.LVL10:
 165 001a F6E7     		b	.L10
 166              	.L13:
 167              		.align	2
 168              	.L12:
 169 001c 00000000 		.word	ch
 170 0020 00000000 		.word	.LC1
 171              		.cfi_endproc
ARM GAS  /tmp/ccCK4rXm.s 			page 4


 172              	.LFE261:
 173              		.size	timer_thread, .-timer_thread
 174              		.section	.text.periodic_thread,"ax",%progbits
 175              		.align	1
 176              		.p2align 4,,15
 177              		.syntax unified
 178              		.thumb
 179              		.thumb_func
 180              		.fpu fpv4-sp-d16
 181              		.type	periodic_thread, %function
 182              	periodic_thread:
 183              	.LFB260:
 184              		.loc 1 96 0
 185              		.cfi_startproc
 186              		@ args = 0, pretend = 0, frame = 0
 187              		@ frame_needed = 0, uses_anonymous_args = 0
 188              	.LVL11:
 189 0000 38B5     		push	{r3, r4, r5, lr}
 190              		.cfi_def_cfa_offset 16
 191              		.cfi_offset 3, -16
 192              		.cfi_offset 4, -12
 193              		.cfi_offset 5, -8
 194              		.cfi_offset 14, -4
 195              	.LBB42:
 196              	.LBB43:
 197              		.loc 2 135 0
 198 0002 474B     		ldr	r3, .L38
 199 0004 474A     		ldr	r2, .L38+4
 200 0006 9B69     		ldr	r3, [r3, #24]
 201              	.LBE43:
 202              	.LBE42:
 203              		.loc 1 96 0
 204 0008 2DED048B 		vpush.64	{d8, d9}
 205              		.cfi_def_cfa_offset 32
 206              		.cfi_offset 80, -32
 207              		.cfi_offset 81, -28
 208              		.cfi_offset 82, -24
 209              		.cfi_offset 83, -20
 210              	.LBB45:
 211              		.loc 1 105 0
 212 000c DFED468A 		vldr.32	s17, .L38+8
 213              	.LBB46:
 214              		.loc 1 113 0
 215 0010 9FED468A 		vldr.32	s16, .L38+12
 216              	.LBE46:
 217              	.LBE45:
 218              	.LBB48:
 219              	.LBB44:
 220              		.loc 2 135 0
 221 0014 9A61     		str	r2, [r3, #24]
 222 0016 2BE0     		b	.L28
 223              	.LVL12:
 224              	.L33:
 225              	.LBE44:
 226              	.LBE48:
 227              	.LBB49:
 228              		.loc 1 119 0
ARM GAS  /tmp/ccCK4rXm.s 			page 5


 229 0018 B0EE480A 		vmov.f32	s0, s16
 230 001c 0120     		movs	r0, #1
 231              	.LVL13:
 232 001e FFF7FEFF 		bl	ledpwm_set_intensity
 233              	.LVL14:
 234              		.loc 1 122 0
 235 0022 FFF7FEFF 		bl	mc_interface_get_state
 236              	.LVL15:
 237 0026 0128     		cmp	r0, #1
 238 0028 50D0     		beq	.L35
 239              	.L19:
 240              		.loc 1 126 0
 241 002a FFF7FEFF 		bl	commands_get_disp_pos_mode
 242              	.LVL16:
 243              		.loc 1 128 0
 244 002e 0428     		cmp	r0, #4
 245              		.loc 1 126 0
 246 0030 0446     		mov	r4, r0
 247              	.LVL17:
 248              		.loc 1 128 0
 249 0032 54D0     		beq	.L21
 250              	.L37:
 251 0034 0528     		cmp	r0, #5
 252 0036 5FD0     		beq	.L22
 253 0038 0328     		cmp	r0, #3
 254 003a 55D0     		beq	.L36
 255              		.loc 1 145 0
 256 003c FFF7FEFF 		bl	mc_interface_get_configuration
 257              	.LVL18:
 258 0040 8378     		ldrb	r3, [r0, #2]	@ zero_extendqisi2
 259 0042 022B     		cmp	r3, #2
 260 0044 11D1     		bne	.L25
 261              		.loc 1 146 0
 262 0046 022C     		cmp	r4, #2
 263 0048 65D0     		beq	.L26
 264 004a 062C     		cmp	r4, #6
 265 004c 0DD1     		bne	.L25
 266              		.loc 1 152 0
 267 004e FFF7FEFF 		bl	mcpwm_foc_get_phase_observer
 268              	.LVL19:
 269 0052 B0EE409A 		vmov.f32	s18, s0
 270 0056 FFF7FEFF 		bl	mcpwm_foc_get_phase_encoder
 271              	.LVL20:
 272 005a F0EE400A 		vmov.f32	s1, s0
 273 005e B0EE490A 		vmov.f32	s0, s18
 274 0062 FFF7FEFF 		bl	utils_angle_difference
 275              	.LVL21:
 276 0066 FFF7FEFF 		bl	commands_send_rotor_pos
 277              	.LVL22:
 278              	.L25:
 279              		.loc 1 160 0
 280 006a 6420     		movs	r0, #100
 281 006c FFF7FEFF 		bl	chThdSleep
 282              	.LVL23:
 283              	.L28:
 284              		.loc 1 102 0
 285 0070 FFF7FEFF 		bl	mc_interface_get_state
ARM GAS  /tmp/ccCK4rXm.s 			page 6


 286              	.LVL24:
 287 0074 0228     		cmp	r0, #2
 288              		.loc 1 103 0
 289 0076 0CBF     		ite	eq
 290 0078 B7EE000A 		vmoveq.f32	s0, #1.0e+0
 291              		.loc 1 105 0
 292 007c B0EE680A 		vmovne.f32	s0, s17
 293 0080 0020     		movs	r0, #0
 294 0082 FFF7FEFF 		bl	ledpwm_set_intensity
 295              	.LVL25:
 296              		.loc 1 108 0
 297 0086 FFF7FEFF 		bl	mc_interface_get_fault
 298              	.LVL26:
 299              		.loc 1 109 0
 300 008a 0546     		mov	r5, r0
 301 008c 0028     		cmp	r0, #0
 302 008e C3D0     		beq	.L33
 303              	.LVL27:
 304              	.LBB47:
 305              		.loc 1 110 0
 306 0090 0024     		movs	r4, #0
 307              	.LVL28:
 308              	.L17:
 309              		.loc 1 111 0 discriminator 3
 310 0092 B7EE000A 		vmov.f32	s0, #1.0e+0
 311 0096 0120     		movs	r0, #1
 312 0098 FFF7FEFF 		bl	ledpwm_set_intensity
 313              	.LVL29:
 314              		.loc 1 112 0 discriminator 3
 315 009c 40F6C410 		movw	r0, #2500
 316 00a0 FFF7FEFF 		bl	chThdSleep
 317              	.LVL30:
 318              		.loc 1 113 0 discriminator 3
 319 00a4 0120     		movs	r0, #1
 320 00a6 B0EE480A 		vmov.f32	s0, s16
 321              		.loc 1 110 0 discriminator 3
 322 00aa 0444     		add	r4, r4, r0
 323              	.LVL31:
 324              		.loc 1 113 0 discriminator 3
 325 00ac FFF7FEFF 		bl	ledpwm_set_intensity
 326              	.LVL32:
 327              		.loc 1 114 0 discriminator 3
 328 00b0 40F6C410 		movw	r0, #2500
 329 00b4 FFF7FEFF 		bl	chThdSleep
 330              	.LVL33:
 331              		.loc 1 110 0 discriminator 3
 332 00b8 AC42     		cmp	r4, r5
 333 00ba EAD1     		bne	.L17
 334              	.LBE47:
 335              		.loc 1 117 0
 336 00bc 41F28830 		movw	r0, #5000
 337 00c0 FFF7FEFF 		bl	chThdSleep
 338              	.LVL34:
 339              		.loc 1 122 0
 340 00c4 FFF7FEFF 		bl	mc_interface_get_state
 341              	.LVL35:
 342 00c8 0128     		cmp	r0, #1
ARM GAS  /tmp/ccCK4rXm.s 			page 7


 343 00ca AED1     		bne	.L19
 344              	.LVL36:
 345              	.L35:
 346              		.loc 1 123 0
 347 00cc FFF7FEFF 		bl	mcpwm_get_detect_pos
 348              	.LVL37:
 349 00d0 FFF7FEFF 		bl	commands_send_rotor_pos
 350              	.LVL38:
 351              		.loc 1 126 0
 352 00d4 FFF7FEFF 		bl	commands_get_disp_pos_mode
 353              	.LVL39:
 354              		.loc 1 128 0
 355 00d8 0428     		cmp	r0, #4
 356              		.loc 1 126 0
 357 00da 0446     		mov	r4, r0
 358              	.LVL40:
 359              		.loc 1 128 0
 360 00dc AAD1     		bne	.L37
 361              	.L21:
 362              		.loc 1 134 0
 363 00de FFF7FEFF 		bl	mc_interface_get_pid_pos_now
 364              	.LVL41:
 365 00e2 FFF7FEFF 		bl	commands_send_rotor_pos
 366              	.LVL42:
 367              		.loc 1 135 0
 368 00e6 03E0     		b	.L24
 369              	.LVL43:
 370              	.L36:
 371              		.loc 1 130 0
 372 00e8 FFF7FEFF 		bl	encoder_read_deg
 373              	.LVL44:
 374 00ec FFF7FEFF 		bl	commands_send_rotor_pos
 375              	.LVL45:
 376              	.L24:
 377              		.loc 1 145 0
 378 00f0 FFF7FEFF 		bl	mc_interface_get_configuration
 379              	.LVL46:
 380 00f4 8378     		ldrb	r3, [r0, #2]	@ zero_extendqisi2
 381 00f6 B8E7     		b	.L25
 382              	.LVL47:
 383              	.L22:
 384              		.loc 1 138 0
 385 00f8 FFF7FEFF 		bl	mc_interface_get_pid_pos_set
 386              	.LVL48:
 387 00fc B0EE409A 		vmov.f32	s18, s0
 388 0100 FFF7FEFF 		bl	mc_interface_get_pid_pos_now
 389              	.LVL49:
 390 0104 F0EE400A 		vmov.f32	s1, s0
 391 0108 B0EE490A 		vmov.f32	s0, s18
 392 010c FFF7FEFF 		bl	utils_angle_difference
 393              	.LVL50:
 394 0110 FFF7FEFF 		bl	commands_send_rotor_pos
 395              	.LVL51:
 396              		.loc 1 139 0
 397 0114 ECE7     		b	.L24
 398              	.L26:
 399              		.loc 1 148 0
ARM GAS  /tmp/ccCK4rXm.s 			page 8


 400 0116 FFF7FEFF 		bl	mcpwm_foc_get_phase_observer
 401              	.LVL52:
 402 011a FFF7FEFF 		bl	commands_send_rotor_pos
 403              	.LVL53:
 404              		.loc 1 149 0
 405 011e A4E7     		b	.L25
 406              	.L39:
 407              		.align	2
 408              	.L38:
 409 0120 00000000 		.word	ch
 410 0124 00000000 		.word	.LC2
 411 0128 CDCC4C3E 		.word	1045220557
 412 012c 00000000 		.word	0
 413              	.LBE49:
 414              		.cfi_endproc
 415              	.LFE260:
 416              		.size	periodic_thread, .-periodic_thread
 417              		.section	.text.assert_failed,"ax",%progbits
 418              		.align	1
 419              		.p2align 4,,15
 420              		.global	assert_failed
 421              		.syntax unified
 422              		.thumb
 423              		.thumb_func
 424              		.fpu fpv4-sp-d16
 425              		.type	assert_failed, %function
 426              	assert_failed:
 427              	.LFB262:
 428              		.loc 1 177 0
 429              		.cfi_startproc
 430              		@ Volatile: function does not return.
 431              		@ args = 0, pretend = 0, frame = 0
 432              		@ frame_needed = 0, uses_anonymous_args = 0
 433              	.LVL54:
 434              		.loc 1 178 0
 435 0000 0A46     		mov	r2, r1
 436              		.loc 1 177 0
 437 0002 08B5     		push	{r3, lr}
 438              		.cfi_def_cfa_offset 8
 439              		.cfi_offset 3, -8
 440              		.cfi_offset 14, -4
 441              		.loc 1 178 0
 442 0004 0146     		mov	r1, r0
 443              	.LVL55:
 444 0006 0448     		ldr	r0, .L43
 445              	.LVL56:
 446 0008 FFF7FEFF 		bl	commands_printf
 447              	.LVL57:
 448              		.loc 1 179 0
 449 000c FFF7FEFF 		bl	mc_interface_release_motor
 450              	.LVL58:
 451              	.L41:
 452              		.loc 1 181 0 discriminator 1
 453 0010 0A20     		movs	r0, #10
 454 0012 FFF7FEFF 		bl	chThdSleep
 455              	.LVL59:
 456 0016 FBE7     		b	.L41
ARM GAS  /tmp/ccCK4rXm.s 			page 9


 457              	.L44:
 458              		.align	2
 459              	.L43:
 460 0018 00000000 		.word	.LC3
 461              		.cfi_endproc
 462              	.LFE262:
 463              		.size	assert_failed, .-assert_failed
 464              		.section	.text.SPI_Config,"ax",%progbits
 465              		.align	1
 466              		.p2align 4,,15
 467              		.global	SPI_Config
 468              		.syntax unified
 469              		.thumb
 470              		.thumb_func
 471              		.fpu fpv4-sp-d16
 472              		.type	SPI_Config, %function
 473              	SPI_Config:
 474              	.LFB263:
 475              		.loc 1 188 0
 476              		.cfi_startproc
 477              		@ args = 0, pretend = 0, frame = 0
 478              		@ frame_needed = 0, uses_anonymous_args = 0
 479              		@ link register save eliminated.
 480              		.loc 1 189 0
 481 0000 1249     		ldr	r1, .L46
 482              		.loc 1 191 0
 483 0002 134B     		ldr	r3, .L46+4
 484              		.loc 1 189 0
 485 0004 4A6C     		ldr	r2, [r1, #68]
 486 0006 42F48052 		orr	r2, r2, #4096
 487 000a 4A64     		str	r2, [r1, #68]
 488              		.loc 1 191 0
 489 000c 1A68     		ldr	r2, [r3]
 490 000e 42F00302 		orr	r2, r2, #3
 491 0012 1A60     		str	r2, [r3]
 492              		.loc 1 193 0
 493 0014 1A68     		ldr	r2, [r3]
 494 0016 42F00402 		orr	r2, r2, #4
 495 001a 1A60     		str	r2, [r3]
 496              		.loc 1 195 0
 497 001c 1A68     		ldr	r2, [r3]
 498 001e 42F01802 		orr	r2, r2, #24
 499 0022 1A60     		str	r2, [r3]
 500              		.loc 1 197 0
 501 0024 1A68     		ldr	r2, [r3]
 502 0026 22F08002 		bic	r2, r2, #128
 503 002a 1A60     		str	r2, [r3]
 504              		.loc 1 199 0
 505 002c 1A68     		ldr	r2, [r3]
 506 002e 42F44072 		orr	r2, r2, #768
 507 0032 1A60     		str	r2, [r3]
 508              		.loc 1 201 0
 509 0034 1A68     		ldr	r2, [r3]
 510 0036 22F48062 		bic	r2, r2, #1024
 511 003a 1A60     		str	r2, [r3]
 512              		.loc 1 203 0
 513 003c 1A68     		ldr	r2, [r3]
ARM GAS  /tmp/ccCK4rXm.s 			page 10


 514              		.loc 1 205 0
 515 003e 0021     		movs	r1, #0
 516              		.loc 1 203 0
 517 0040 22F40062 		bic	r2, r2, #2048
 518 0044 1A60     		str	r2, [r3]
 519              		.loc 1 205 0
 520 0046 5960     		str	r1, [r3, #4]
 521              		.loc 1 206 0
 522 0048 7047     		bx	lr
 523              	.L47:
 524 004a 00BF     		.align	2
 525              	.L46:
 526 004c 00380240 		.word	1073887232
 527 0050 00300140 		.word	1073819648
 528              		.cfi_endproc
 529              	.LFE263:
 530              		.size	SPI_Config, .-SPI_Config
 531              		.section	.text.GPIOConfig,"ax",%progbits
 532              		.align	1
 533              		.p2align 4,,15
 534              		.global	GPIOConfig
 535              		.syntax unified
 536              		.thumb
 537              		.thumb_func
 538              		.fpu fpv4-sp-d16
 539              		.type	GPIOConfig, %function
 540              	GPIOConfig:
 541              	.LFB264:
 542              		.loc 1 211 0
 543              		.cfi_startproc
 544              		@ args = 0, pretend = 0, frame = 0
 545              		@ frame_needed = 0, uses_anonymous_args = 0
 546              		@ link register save eliminated.
 547              		.loc 1 212 0
 548 0000 0B49     		ldr	r1, .L49
 549              		.loc 1 214 0
 550 0002 0C4B     		ldr	r3, .L49+4
 551              		.loc 1 212 0
 552 0004 0A6B     		ldr	r2, [r1, #48]
 553 0006 42F00102 		orr	r2, r2, #1
 554 000a 0A63     		str	r2, [r1, #48]
 555              		.loc 1 214 0
 556 000c 1A68     		ldr	r2, [r3]
 557 000e 42F42A42 		orr	r2, r2, #43520
 558 0012 1A60     		str	r2, [r3]
 559              		.loc 1 216 0
 560 0014 9A68     		ldr	r2, [r3, #8]
 561 0016 42F44F22 		orr	r2, r2, #847872
 562 001a 42F44062 		orr	r2, r2, #3072
 563 001e 9A60     		str	r2, [r3, #8]
 564              		.loc 1 218 0
 565 0020 1A6A     		ldr	r2, [r3, #32]
 566 0022 42F0AA42 		orr	r2, r2, #1426063360
 567 0026 42F4A002 		orr	r2, r2, #5242880
 568 002a 1A62     		str	r2, [r3, #32]
 569              		.loc 1 219 0
 570 002c 7047     		bx	lr
ARM GAS  /tmp/ccCK4rXm.s 			page 11


 571              	.L50:
 572 002e 00BF     		.align	2
 573              	.L49:
 574 0030 00380240 		.word	1073887232
 575 0034 00000240 		.word	1073872896
 576              		.cfi_endproc
 577              	.LFE264:
 578              		.size	GPIOConfig, .-GPIOConfig
 579              		.section	.text.SPI_Enable,"ax",%progbits
 580              		.align	1
 581              		.p2align 4,,15
 582              		.global	SPI_Enable
 583              		.syntax unified
 584              		.thumb
 585              		.thumb_func
 586              		.fpu fpv4-sp-d16
 587              		.type	SPI_Enable, %function
 588              	SPI_Enable:
 589              	.LFB265:
 590              		.loc 1 222 0
 591              		.cfi_startproc
 592              		@ args = 0, pretend = 0, frame = 0
 593              		@ frame_needed = 0, uses_anonymous_args = 0
 594              		@ link register save eliminated.
 595              		.loc 1 223 0
 596 0000 024A     		ldr	r2, .L52
 597 0002 1368     		ldr	r3, [r2]
 598 0004 43F04003 		orr	r3, r3, #64
 599 0008 1360     		str	r3, [r2]
 600              		.loc 1 224 0
 601 000a 7047     		bx	lr
 602              	.L53:
 603              		.align	2
 604              	.L52:
 605 000c 00300140 		.word	1073819648
 606              		.cfi_endproc
 607              	.LFE265:
 608              		.size	SPI_Enable, .-SPI_Enable
 609              		.section	.text.SPI_Disable,"ax",%progbits
 610              		.align	1
 611              		.p2align 4,,15
 612              		.global	SPI_Disable
 613              		.syntax unified
 614              		.thumb
 615              		.thumb_func
 616              		.fpu fpv4-sp-d16
 617              		.type	SPI_Disable, %function
 618              	SPI_Disable:
 619              	.LFB266:
 620              		.loc 1 227 0
 621              		.cfi_startproc
 622              		@ args = 0, pretend = 0, frame = 0
 623              		@ frame_needed = 0, uses_anonymous_args = 0
 624              		@ link register save eliminated.
 625              		.loc 1 228 0
 626 0000 024A     		ldr	r2, .L55
 627 0002 1368     		ldr	r3, [r2]
ARM GAS  /tmp/ccCK4rXm.s 			page 12


 628 0004 23F04003 		bic	r3, r3, #64
 629 0008 1360     		str	r3, [r2]
 630              		.loc 1 229 0
 631 000a 7047     		bx	lr
 632              	.L56:
 633              		.align	2
 634              	.L55:
 635 000c 00300140 		.word	1073819648
 636              		.cfi_endproc
 637              	.LFE266:
 638              		.size	SPI_Disable, .-SPI_Disable
 639              		.section	.text.CS_Enable,"ax",%progbits
 640              		.align	1
 641              		.p2align 4,,15
 642              		.global	CS_Enable
 643              		.syntax unified
 644              		.thumb
 645              		.thumb_func
 646              		.fpu fpv4-sp-d16
 647              		.type	CS_Enable, %function
 648              	CS_Enable:
 649              	.LFB267:
 650              		.loc 1 232 0
 651              		.cfi_startproc
 652              		@ args = 0, pretend = 0, frame = 0
 653              		@ frame_needed = 0, uses_anonymous_args = 0
 654              		@ link register save eliminated.
 655              		.loc 1 234 0
 656 0000 024B     		ldr	r3, .L58
 657 0002 4FF40072 		mov	r2, #512
 658 0006 5A83     		strh	r2, [r3, #26]	@ movhi
 659              		.loc 1 235 0
 660 0008 7047     		bx	lr
 661              	.L59:
 662 000a 00BF     		.align	2
 663              	.L58:
 664 000c 00000240 		.word	1073872896
 665              		.cfi_endproc
 666              	.LFE267:
 667              		.size	CS_Enable, .-CS_Enable
 668              		.section	.text.CS_Disable,"ax",%progbits
 669              		.align	1
 670              		.p2align 4,,15
 671              		.global	CS_Disable
 672              		.syntax unified
 673              		.thumb
 674              		.thumb_func
 675              		.fpu fpv4-sp-d16
 676              		.type	CS_Disable, %function
 677              	CS_Disable:
 678              	.LFB268:
 679              		.loc 1 238 0
 680              		.cfi_startproc
 681              		@ args = 0, pretend = 0, frame = 0
 682              		@ frame_needed = 0, uses_anonymous_args = 0
 683              		@ link register save eliminated.
 684              		.loc 1 239 0
ARM GAS  /tmp/ccCK4rXm.s 			page 13


 685 0000 024B     		ldr	r3, .L61
 686 0002 4FF40072 		mov	r2, #512
 687 0006 1A83     		strh	r2, [r3, #24]	@ movhi
 688              		.loc 1 240 0
 689 0008 7047     		bx	lr
 690              	.L62:
 691 000a 00BF     		.align	2
 692              	.L61:
 693 000c 00000240 		.word	1073872896
 694              		.cfi_endproc
 695              	.LFE268:
 696              		.size	CS_Disable, .-CS_Disable
 697              		.section	.text.SPI_Transmit,"ax",%progbits
 698              		.align	1
 699              		.p2align 4,,15
 700              		.global	SPI_Transmit
 701              		.syntax unified
 702              		.thumb
 703              		.thumb_func
 704              		.fpu fpv4-sp-d16
 705              		.type	SPI_Transmit, %function
 706              	SPI_Transmit:
 707              	.LFB269:
 708              		.loc 1 243 0
 709              		.cfi_startproc
 710              		@ args = 0, pretend = 0, frame = 0
 711              		@ frame_needed = 0, uses_anonymous_args = 0
 712              		@ link register save eliminated.
 713              	.LVL60:
 714              		.loc 1 253 0
 715 0000 0029     		cmp	r1, #0
 716 0002 0ADD     		ble	.L64
 717 0004 0138     		subs	r0, r0, #1
 718              	.LVL61:
 719              		.loc 1 255 0
 720 0006 0A4A     		ldr	r2, .L75
 721 0008 0144     		add	r1, r1, r0
 722              	.LVL62:
 723              	.L65:
 724              		.loc 1 255 0 is_stmt 0 discriminator 1
 725 000a 9368     		ldr	r3, [r2, #8]
 726 000c 9B07     		lsls	r3, r3, #30
 727 000e FCD5     		bpl	.L65
 728              		.loc 1 256 0 is_stmt 1
 729 0010 10F8013F 		ldrb	r3, [r0, #1]!	@ zero_extendqisi2
 730 0014 D360     		str	r3, [r2, #12]
 731              	.LVL63:
 732              		.loc 1 253 0
 733 0016 8842     		cmp	r0, r1
 734 0018 F7D1     		bne	.L65
 735              	.LVL64:
 736              	.L64:
 737              		.loc 1 266 0
 738 001a 054A     		ldr	r2, .L75
 739              	.L67:
 740              		.loc 1 266 0 is_stmt 0 discriminator 1
 741 001c 9368     		ldr	r3, [r2, #8]
ARM GAS  /tmp/ccCK4rXm.s 			page 14


 742 001e 9907     		lsls	r1, r3, #30
 743 0020 FCD5     		bpl	.L67
 744              		.loc 1 267 0 is_stmt 1
 745 0022 034A     		ldr	r2, .L75
 746              	.L68:
 747              		.loc 1 267 0 is_stmt 0 discriminator 1
 748 0024 9368     		ldr	r3, [r2, #8]
 749 0026 1B06     		lsls	r3, r3, #24
 750 0028 FCD4     		bmi	.L68
 751              		.loc 1 270 0 is_stmt 1
 752 002a D368     		ldr	r3, [r2, #12]
 753              		.loc 1 271 0
 754 002c 9368     		ldr	r3, [r2, #8]
 755              		.loc 1 272 0
 756 002e 7047     		bx	lr
 757              	.L76:
 758              		.align	2
 759              	.L75:
 760 0030 00300140 		.word	1073819648
 761              		.cfi_endproc
 762              	.LFE269:
 763              		.size	SPI_Transmit, .-SPI_Transmit
 764              		.section	.text.startup.main,"ax",%progbits
 765              		.align	1
 766              		.p2align 4,,15
 767              		.global	main
 768              		.syntax unified
 769              		.thumb
 770              		.thumb_func
 771              		.fpu fpv4-sp-d16
 772              		.type	main, %function
 773              	main:
 774              	.LFB270:
 775              		.loc 1 276 0
 776              		.cfi_startproc
 777              		@ Volatile: function does not return.
 778              		@ args = 0, pretend = 0, frame = 840
 779              		@ frame_needed = 0, uses_anonymous_args = 0
 780              	.LBB50:
 781              	.LBB51:
 782              		.loc 1 212 0
 783 0000 454A     		ldr	r2, .L82
 784              		.loc 1 214 0
 785 0002 464C     		ldr	r4, .L82+4
 786              		.loc 1 212 0
 787 0004 136B     		ldr	r3, [r2, #48]
 788              	.LBE51:
 789              	.LBE50:
 790              		.loc 1 299 0
 791 0006 464D     		ldr	r5, .L82+8
 792              	.LBB55:
 793              	.LBB52:
 794              		.loc 1 212 0
 795 0008 43F00103 		orr	r3, r3, #1
 796              	.LBE52:
 797              	.LBE55:
 798              		.loc 1 276 0
ARM GAS  /tmp/ccCK4rXm.s 			page 15


 799 000c 00B5     		push	{lr}
 800              		.cfi_def_cfa_offset 4
 801              		.cfi_offset 14, -4
 802              	.LBB56:
 803              	.LBB53:
 804              		.loc 1 212 0
 805 000e 1363     		str	r3, [r2, #48]
 806              		.loc 1 214 0
 807 0010 2368     		ldr	r3, [r4]
 808 0012 43F42A43 		orr	r3, r3, #43520
 809 0016 2360     		str	r3, [r4]
 810              		.loc 1 216 0
 811 0018 A368     		ldr	r3, [r4, #8]
 812 001a 43F44F23 		orr	r3, r3, #847872
 813 001e 43F44063 		orr	r3, r3, #3072
 814 0022 A360     		str	r3, [r4, #8]
 815              		.loc 1 218 0
 816 0024 236A     		ldr	r3, [r4, #32]
 817 0026 43F0AA43 		orr	r3, r3, #1426063360
 818 002a 43F4A003 		orr	r3, r3, #5242880
 819              	.LBE53:
 820              	.LBE56:
 821              		.loc 1 276 0
 822 002e ADF5557D 		sub	sp, sp, #852
 823              		.cfi_def_cfa_offset 856
 824              	.LBB57:
 825              	.LBB54:
 826              		.loc 1 218 0
 827 0032 2362     		str	r3, [r4, #32]
 828              	.LBE54:
 829              	.LBE57:
 830              		.loc 1 280 0
 831 0034 FFF7FEFF 		bl	SPI_Config
 832              	.LVL65:
 833              	.LBB58:
 834              	.LBB59:
 835              		.loc 1 223 0
 836 0038 3A4A     		ldr	r2, .L82+12
 837              	.LBE59:
 838              	.LBE58:
 839              		.loc 1 284 0
 840 003a 3B48     		ldr	r0, .L82+16
 841              	.LBB62:
 842              	.LBB60:
 843              		.loc 1 223 0
 844 003c 1368     		ldr	r3, [r2]
 845              	.LBE60:
 846              	.LBE62:
 847              	.LBB63:
 848              	.LBB64:
 849              		.loc 1 234 0
 850 003e 4FF40076 		mov	r6, #512
 851              	.LBE64:
 852              	.LBE63:
 853              	.LBB66:
 854              	.LBB61:
 855              		.loc 1 223 0
ARM GAS  /tmp/ccCK4rXm.s 			page 16


 856 0042 43F04003 		orr	r3, r3, #64
 857 0046 1360     		str	r3, [r2]
 858              	.LBE61:
 859              	.LBE66:
 860              		.loc 1 284 0
 861 0048 0321     		movs	r1, #3
 862              	.LBB67:
 863              	.LBB65:
 864              		.loc 1 234 0
 865 004a 6683     		strh	r6, [r4, #26]	@ movhi
 866              	.LBE65:
 867              	.LBE67:
 868              		.loc 1 284 0
 869 004c FFF7FEFF 		bl	SPI_Transmit
 870              	.LVL66:
 871              		.loc 1 296 0
 872 0050 4FF47A70 		mov	r0, #1000
 873              	.LBB68:
 874              	.LBB69:
 875              		.loc 1 239 0
 876 0054 2683     		strh	r6, [r4, #24]	@ movhi
 877              	.LBE69:
 878              	.LBE68:
 879              		.loc 1 296 0
 880 0056 FFF7FEFF 		bl	chThdSleep
 881              	.LVL67:
 882              		.loc 1 299 0
 883 005a 0224     		movs	r4, #2
 884              		.loc 1 298 0
 885 005c FFF7FEFF 		bl	hw_init_gpio
 886              	.LVL68:
 887              		.loc 1 300 0
 888 0060 0123     		movs	r3, #1
 889              		.loc 1 299 0
 890 0062 6C83     		strh	r4, [r5, #26]	@ movhi
 891              		.loc 1 300 0
 892 0064 6B83     		strh	r3, [r5, #26]	@ movhi
 893              		.loc 1 302 0
 894 0066 FFF7FEFF 		bl	timer_init
 895              	.LVL69:
 896              		.loc 1 303 0
 897 006a FFF7FEFF 		bl	conf_general_init
 898              	.LVL70:
 899              		.loc 1 305 0
 900 006e FFF7FEFF 		bl	flash_helper_verify_flash_memory
 901              	.LVL71:
 902 0072 0E28     		cmp	r0, #14
 903 0074 44D0     		beq	.L79
 904              		.loc 1 315 0
 905 0076 FFF7FEFF 		bl	ledpwm_init
 906              	.LVL72:
 907              		.loc 1 318 0
 908 007a 62A8     		add	r0, sp, #392
 909 007c FFF7FEFF 		bl	conf_general_read_mc_configuration
 910              	.LVL73:
 911              		.loc 1 320 0
 912 0080 62A8     		add	r0, sp, #392
ARM GAS  /tmp/ccCK4rXm.s 			page 17


 913 0082 FFF7FEFF 		bl	mc_interface_init
 914              	.LVL74:
 915              		.loc 1 323 0
 916 0086 03A8     		add	r0, sp, #12
 917 0088 FFF7FEFF 		bl	conf_general_read_custom_configuration
 918              	.LVL75:
 919              		.loc 1 325 0
 920 008c FFF7FEFF 		bl	commands_init
 921              	.LVL76:
 922              		.loc 1 329 0
 923 0090 FFF7FEFF 		bl	comm_usb_init
 924              	.LVL77:
 925              		.loc 1 333 0
 926 0094 FFF7FEFF 		bl	comm_can_init
 927              	.LVL78:
 928              		.loc 1 337 0
 929 0098 04A8     		add	r0, sp, #16
 930 009a FFF7FEFF 		bl	conf_general_read_app_configuration
 931              	.LVL79:
 932              		.loc 1 338 0
 933 009e 04A8     		add	r0, sp, #16
 934 00a0 FFF7FEFF 		bl	app_set_configuration
 935              	.LVL80:
 936              		.loc 1 377 0
 937 00a4 0025     		movs	r5, #0
 938              		.loc 1 344 0
 939 00a6 0398     		ldr	r0, [sp, #12]
 940 00a8 FFF7FEFF 		bl	mc_interface_set_odo_value
 941              	.LVL81:
 942              		.loc 1 346 0
 943 00ac FFF7FEFF 		bl	app_uartcomm_start_permanent
 944              	.LVL82:
 945              		.loc 1 377 0
 946 00b0 1E4B     		ldr	r3, .L82+20
 947 00b2 0095     		str	r5, [sp]
 948 00b4 4022     		movs	r2, #64
 949 00b6 4FF4B361 		mov	r1, #1432
 950 00ba 1D48     		ldr	r0, .L82+24
 951 00bc FFF7FEFF 		bl	chThdCreateStatic
 952              	.LVL83:
 953              		.loc 1 378 0
 954 00c0 1C4B     		ldr	r3, .L82+28
 955 00c2 0095     		str	r5, [sp]
 956 00c4 4022     		movs	r2, #64
 957 00c6 4FF40671 		mov	r1, #536
 958 00ca 1B48     		ldr	r0, .L82+32
 959 00cc FFF7FEFF 		bl	chThdCreateStatic
 960              	.LVL84:
 961              		.loc 1 379 0
 962 00d0 2246     		mov	r2, r4
 963 00d2 1A4B     		ldr	r3, .L82+36
 964 00d4 0095     		str	r5, [sp]
 965 00d6 4FF42671 		mov	r1, #664
 966 00da 1948     		ldr	r0, .L82+40
 967 00dc FFF7FEFF 		bl	chThdCreateStatic
 968              	.LVL85:
 969              		.loc 1 441 0
ARM GAS  /tmp/ccCK4rXm.s 			page 18


 970 00e0 FFF7FEFF 		bl	timeout_init
 971              	.LVL86:
 972              		.loc 1 442 0
 973 00e4 9DED060A 		vldr.32	s0, [sp, #24]
 974 00e8 0598     		ldr	r0, [sp, #20]
 975 00ea FFF7FEFF 		bl	timeout_configure
 976              	.LVL87:
 977              		.loc 1 443 0
 978 00ee 4FA8     		add	r0, sp, #316
 979 00f0 FFF7FEFF 		bl	imu_init
 980              	.LVL88:
 981              		.loc 1 446 0
 982 00f4 FFF7FEFF 		bl	bm_init
 983              	.LVL89:
 984              	.L80:
 985              		.loc 1 454 0 discriminator 1
 986 00f8 6420     		movs	r0, #100
 987 00fa FFF7FEFF 		bl	chThdSleep
 988              	.LVL90:
 989 00fe FBE7     		b	.L80
 990              	.L79:
 991              		.loc 1 308 0 discriminator 1
 992 0100 4FF47A70 		mov	r0, #1000
 993 0104 FFF7FEFF 		bl	chThdSleep
 994              	.LVL91:
 995              		.loc 1 309 0 discriminator 1
 996 0108 2C83     		strh	r4, [r5, #24]	@ movhi
 997              		.loc 1 310 0 discriminator 1
 998 010a 40F2EE20 		movw	r0, #750
 999 010e FFF7FEFF 		bl	chThdSleep
 1000              	.LVL92:
 1001              		.loc 1 311 0 discriminator 1
 1002 0112 6C83     		strh	r4, [r5, #26]	@ movhi
 1003 0114 F4E7     		b	.L79
 1004              	.L83:
 1005 0116 00BF     		.align	2
 1006              	.L82:
 1007 0118 00380240 		.word	1073887232
 1008 011c 00000240 		.word	1073872896
 1009 0120 00040240 		.word	1073873920
 1010 0124 00300140 		.word	1073819648
 1011 0128 00000000 		.word	.LANCHOR0
 1012 012c 00000000 		.word	periodic_thread
 1013 0130 00000000 		.word	.LANCHOR1
 1014 0134 00000000 		.word	timer_thread
 1015 0138 00000000 		.word	.LANCHOR2
 1016 013c 00000000 		.word	flash_integrity_check_thread
 1017 0140 00000000 		.word	.LANCHOR3
 1018              		.cfi_endproc
 1019              	.LFE270:
 1020              		.size	main, .-main
 1021              		.global	data
 1022              		.section	.bss.flash_integrity_check_thread_wa,"aw",%nobits
 1023              		.align	3
 1024              		.set	.LANCHOR3,. + 0
 1025              		.type	flash_integrity_check_thread_wa, %object
 1026              		.size	flash_integrity_check_thread_wa, 664
ARM GAS  /tmp/ccCK4rXm.s 			page 19


 1027              	flash_integrity_check_thread_wa:
 1028 0000 00000000 		.space	664
 1028      00000000 
 1028      00000000 
 1028      00000000 
 1028      00000000 
 1029              		.section	.bss.periodic_thread_wa,"aw",%nobits
 1030              		.align	3
 1031              		.set	.LANCHOR1,. + 0
 1032              		.type	periodic_thread_wa, %object
 1033              		.size	periodic_thread_wa, 1432
 1034              	periodic_thread_wa:
 1035 0000 00000000 		.space	1432
 1035      00000000 
 1035      00000000 
 1035      00000000 
 1035      00000000 
 1036              		.section	.bss.timer_thread_wa,"aw",%nobits
 1037              		.align	3
 1038              		.set	.LANCHOR2,. + 0
 1039              		.type	timer_thread_wa, %object
 1040              		.size	timer_thread_wa, 536
 1041              	timer_thread_wa:
 1042 0000 00000000 		.space	536
 1042      00000000 
 1042      00000000 
 1042      00000000 
 1042      00000000 
 1043              		.section	.data.data,"aw",%progbits
 1044              		.align	2
 1045              		.set	.LANCHOR0,. + 0
 1046              		.type	data, %object
 1047              		.size	data, 3
 1048              	data:
 1049 0000 02       		.byte	2
 1050 0001 32       		.byte	50
 1051 0002 F6       		.byte	-10
 1052              		.section	.rodata.assert_failed.str1.4,"aMS",%progbits,1
 1053              		.align	2
 1054              	.LC3:
 1055 0000 57726F6E 		.ascii	"Wrong parameters value: file %s on line %d\015\012\000"
 1055      67207061 
 1055      72616D65 
 1055      74657273 
 1055      2076616C 
 1056              		.section	.rodata.flash_integrity_check_thread.str1.4,"aMS",%progbits,1
 1057              		.align	2
 1058              	.LC0:
 1059 0000 466C6173 		.ascii	"Flash check\000"
 1059      68206368 
 1059      65636B00 
 1060              		.section	.rodata.periodic_thread.str1.4,"aMS",%progbits,1
 1061              		.align	2
 1062              	.LC2:
 1063 0000 4D61696E 		.ascii	"Main periodic\000"
 1063      20706572 
 1063      696F6469 
ARM GAS  /tmp/ccCK4rXm.s 			page 20


 1063      6300
 1064              		.section	.rodata.timer_thread.str1.4,"aMS",%progbits,1
 1065              		.align	2
 1066              	.LC1:
 1067 0000 6D736563 		.ascii	"msec_timer\000"
 1067      5F74696D 
 1067      657200
 1068              		.text
 1069              	.Letext0:
 1070              		.file 5 "/usr/lib/gcc/arm-none-eabi/7.3.1/include/stddef.h"
 1071              		.file 6 "/usr/arm-none-eabi/include/machine/_default_types.h"
 1072              		.file 7 "/usr/arm-none-eabi/include/sys/_stdint.h"
 1073              		.file 8 "ChibiOS_3.0.2/os/rt/ports/ARMCMx/compilers/GCC/chtypes.h"
 1074              		.file 9 "ChibiOS_3.0.2/os/rt/include/chsystypes.h"
 1075              		.file 10 "ChibiOS_3.0.2/os/rt/include/chschd.h"
 1076              		.file 11 "ChibiOS_3.0.2/os/ext/CMSIS/ST/system_stm32f4xx.h"
 1077              		.file 12 "ChibiOS_3.0.2/os/ext/CMSIS/ST/stm32f407xx.h"
 1078              		.file 13 "ChibiOS_3.0.2/os/rt/ports/ARMCMx/chcore.h"
 1079              		.file 14 "ChibiOS_3.0.2/os/rt/ports/ARMCMx/chcore_v7m.h"
 1080              		.file 15 "ChibiOS_3.0.2/os/rt/include/chtm.h"
 1081              		.file 16 "ChibiOS_3.0.2/os/rt/include/chsem.h"
 1082              		.file 17 "ChibiOS_3.0.2/os/rt/include/chmtx.h"
 1083              		.file 18 "ChibiOS_3.0.2/os/rt/include/chevents.h"
 1084              		.file 19 "ChibiOS_3.0.2/os/rt/include/chqueues.h"
 1085              		.file 20 "ChibiOS_3.0.2/os/ext/CMSIS/ST/stm32f4xx.h"
 1086              		.file 21 "./datatypes.h"
 1087              		.file 22 "./conf_general.h"
 1088              		.file 23 "ChibiOS_3.0.2/os/hal/ports/STM32/STM32F4xx/stm32_dma.h"
 1089              		.file 24 "ChibiOS_3.0.2/os/hal/ports/STM32/LLD/GPIOv2/pal_lld.h"
 1090              		.file 25 "ChibiOS_3.0.2/os/hal/include/can.h"
 1091              		.file 26 "ChibiOS_3.0.2/os/hal/ports/STM32/LLD/can_lld.h"
 1092              		.file 27 "ChibiOS_3.0.2/os/hal/include/i2c.h"
 1093              		.file 28 "ChibiOS_3.0.2/os/hal/ports/STM32/LLD/I2Cv1/i2c_lld.h"
 1094              		.file 29 "ChibiOS_3.0.2/os/hal/include/icu.h"
 1095              		.file 30 "ChibiOS_3.0.2/os/hal/ports/STM32/LLD/TIMv1/icu_lld.h"
 1096              		.file 31 "ChibiOS_3.0.2/os/hal/ports/STM32/LLD/TIMv1/stm32_tim.h"
 1097              		.file 32 "ChibiOS_3.0.2/os/hal/include/serial.h"
 1098              		.file 33 "ChibiOS_3.0.2/os/hal/ports/STM32/LLD/USARTv1/serial_lld.h"
 1099              		.file 34 "ChibiOS_3.0.2/os/hal/include/spi.h"
 1100              		.file 35 "ChibiOS_3.0.2/os/hal/ports/STM32/LLD/SPIv1/spi_lld.h"
 1101              		.file 36 "ChibiOS_3.0.2/os/hal/include/usb.h"
 1102              		.file 37 "ChibiOS_3.0.2/os/hal/ports/STM32/LLD/OTGv1/usb_lld.h"
 1103              		.file 38 "ChibiOS_3.0.2/os/hal/ports/STM32/LLD/OTGv1/stm32_otg.h"
 1104              		.file 39 "/usr/arm-none-eabi/include/sys/lock.h"
 1105              		.file 40 "/usr/arm-none-eabi/include/sys/_types.h"
 1106              		.file 41 "/usr/arm-none-eabi/include/sys/reent.h"
 1107              		.file 42 "/usr/arm-none-eabi/include/math.h"
 1108              		.file 43 "/usr/arm-none-eabi/include/stdlib.h"
 1109              		.file 44 "mc_interface.h"
 1110              		.file 45 "mcpwm.h"
 1111              		.file 46 "timeout.h"
 1112              		.file 47 "ChibiOS_3.0.2/os/rt/include/chthreads.h"
 1113              		.file 48 "hwconf/hw.h"
 1114              		.file 49 "timer.h"
 1115              		.file 50 "flash_helper.h"
 1116              		.file 51 "ledpwm.h"
 1117              		.file 52 "commands.h"
ARM GAS  /tmp/ccCK4rXm.s 			page 21


 1118              		.file 53 "comm_usb.h"
 1119              		.file 54 "comm_can.h"
 1120              		.file 55 "applications/app.h"
 1121              		.file 56 "imu/imu.h"
 1122              		.file 57 "blackmagic/bm_if.h"
 1123              		.file 58 "packet.h"
 1124              		.file 59 "mcpwm_foc.h"
 1125              		.file 60 "utils.h"
 1126              		.file 61 "encoder.h"
 1127              		.file 62 "ChibiOS_3.0.2/ext/stdperiph_stm32f4/inc/stm32f4xx_rcc.h"