ARM GAS  /tmp/ccZgW9ua.s 			page 1


   1              		.cpu cortex-m4
   2              		.eabi_attribute 27, 1
   3              		.eabi_attribute 28, 1
   4              		.eabi_attribute 20, 1
   5              		.eabi_attribute 21, 1
   6              		.eabi_attribute 23, 3
   7              		.eabi_attribute 24, 1
   8              		.eabi_attribute 25, 1
   9              		.eabi_attribute 26, 1
  10              		.eabi_attribute 30, 2
  11              		.eabi_attribute 34, 1
  12              		.eabi_attribute 18, 4
  13              		.file	"virtual_motor.c"
  14              		.text
  15              	.Ltext0:
  16              		.cfi_sections	.debug_frame
  17              		.section	.text.terminal_cmd_disconnect_virtual_motor,"ax",%progbits
  18              		.align	1
  19              		.p2align 4,,15
  20              		.syntax unified
  21              		.thumb
  22              		.thumb_func
  23              		.fpu fpv4-sp-d16
  24              		.type	terminal_cmd_disconnect_virtual_motor, %function
  25              	terminal_cmd_disconnect_virtual_motor:
  26              	.LFB233:
  27              		.file 1 "virtual_motor.c"
  28              		.loc 1 396 0
  29              		.cfi_startproc
  30              		@ args = 0, pretend = 0, frame = 24
  31              		@ frame_needed = 0, uses_anonymous_args = 0
  32              	.LVL0:
  33 0000 70B5     		push	{r4, r5, r6, lr}
  34              		.cfi_def_cfa_offset 16
  35              		.cfi_offset 4, -16
  36              		.cfi_offset 5, -12
  37              		.cfi_offset 6, -8
  38              		.cfi_offset 14, -4
  39              	.LBB8:
  40              	.LBB9:
  41              		.loc 1 226 0
  42 0002 184C     		ldr	r4, .L8
  43 0004 94F84430 		ldrb	r3, [r4, #68]	@ zero_extendqisi2
  44              	.LBE9:
  45              	.LBE8:
  46              		.loc 1 396 0
  47 0008 86B0     		sub	sp, sp, #24
  48              		.cfi_def_cfa_offset 40
  49              	.LBB12:
  50              	.LBB11:
  51              		.loc 1 226 0
  52 000a 13B3     		cbz	r3, .L2
  53              	.LBB10:
  54              		.loc 1 227 0
  55 000c 9FED160A 		vldr.32	s0, .L8+4
  56 0010 FFF7FEFF 		bl	mcpwm_foc_set_current
  57              	.LVL1:
ARM GAS  /tmp/ccZgW9ua.s 			page 2


  58              		.loc 1 230 0
  59 0014 0025     		movs	r5, #0
  60              		.loc 1 233 0
  61 0016 154B     		ldr	r3, .L8+8
  62 0018 1549     		ldr	r1, .L8+12
  63 001a 164A     		ldr	r2, .L8+16
  64              		.loc 1 230 0
  65 001c 84F84450 		strb	r5, [r4, #68]
  66              		.loc 1 233 0
  67 0020 0868     		ldr	r0, [r1]
  68 0022 1168     		ldr	r1, [r2]
  69 0024 1A68     		ldr	r2, [r3]
  70 0026 FFF7FEFF 		bl	mcpwm_foc_set_current_offsets
  71              	.LVL2:
  72              		.loc 1 240 0
  73 002a 0126     		movs	r6, #1
  74              		.loc 1 242 0
  75 002c 4FF00054 		mov	r4, #536870912
  76              		.loc 1 243 0
  77 0030 4FF05062 		mov	r2, #218103808
  78              		.loc 1 245 0
  79 0034 0523     		movs	r3, #5
  80              		.loc 1 247 0
  81 0036 6946     		mov	r1, sp
  82 0038 0F48     		ldr	r0, .L8+20
  83              		.loc 1 239 0
  84 003a 0095     		str	r5, [sp]
  85              		.loc 1 241 0
  86 003c 8DF80550 		strb	r5, [sp, #5]
  87              		.loc 1 244 0
  88 0040 0495     		str	r5, [sp, #16]
  89              		.loc 1 240 0
  90 0042 8DF80460 		strb	r6, [sp, #4]
  91              		.loc 1 243 0
  92 0046 CDE90242 		strd	r4, r2, [sp, #8]
  93              		.loc 1 245 0
  94 004a 8DF81430 		strb	r3, [sp, #20]
  95              		.loc 1 247 0
  96 004e FFF7FEFF 		bl	ADC_Init
  97              	.LVL3:
  98              	.L2:
  99              	.LBE10:
 100              	.LBE11:
 101              	.LBE12:
 102              		.loc 1 401 0
 103 0052 0A48     		ldr	r0, .L8+24
 104 0054 FFF7FEFF 		bl	commands_printf
 105              	.LVL4:
 106              		.loc 1 402 0
 107 0058 0948     		ldr	r0, .L8+28
 108 005a FFF7FEFF 		bl	commands_printf
 109              	.LVL5:
 110              		.loc 1 403 0
 111 005e 06B0     		add	sp, sp, #24
 112              		.cfi_def_cfa_offset 16
 113              		@ sp needed
 114 0060 70BD     		pop	{r4, r5, r6, pc}
ARM GAS  /tmp/ccZgW9ua.s 			page 3


 115              	.L9:
 116 0062 00BF     		.align	2
 117              	.L8:
 118 0064 00000000 		.word	.LANCHOR0
 119 0068 00000000 		.word	0
 120 006c 00000000 		.word	.LANCHOR3
 121 0070 00000000 		.word	.LANCHOR1
 122 0074 00000000 		.word	.LANCHOR2
 123 0078 00200140 		.word	1073815552
 124 007c 00000000 		.word	.LC0
 125 0080 1C000000 		.word	.LC1
 126              		.cfi_endproc
 127              	.LFE233:
 128              		.size	terminal_cmd_disconnect_virtual_motor, .-terminal_cmd_disconnect_virtual_motor
 129              		.section	.text.terminal_cmd_connect_virtual_motor,"ax",%progbits
 130              		.align	1
 131              		.p2align 4,,15
 132              		.syntax unified
 133              		.thumb
 134              		.thumb_func
 135              		.fpu fpv4-sp-d16
 136              		.type	terminal_cmd_connect_virtual_motor, %function
 137              	terminal_cmd_connect_virtual_motor:
 138              	.LFB232:
 139              		.loc 1 367 0
 140              		.cfi_startproc
 141              		@ args = 0, pretend = 0, frame = 56
 142              		@ frame_needed = 0, uses_anonymous_args = 0
 143              	.LVL6:
 144 0000 2DE9F04F 		push	{r4, r5, r6, r7, r8, r9, r10, fp, lr}
 145              		.cfi_def_cfa_offset 36
 146              		.cfi_offset 4, -36
 147              		.cfi_offset 5, -32
 148              		.cfi_offset 6, -28
 149              		.cfi_offset 7, -24
 150              		.cfi_offset 8, -20
 151              		.cfi_offset 9, -16
 152              		.cfi_offset 10, -12
 153              		.cfi_offset 11, -8
 154              		.cfi_offset 14, -4
 155 0004 2DED028B 		vpush.64	{d8}
 156              		.cfi_def_cfa_offset 44
 157              		.cfi_offset 80, -44
 158              		.cfi_offset 81, -40
 159              		.loc 1 368 0
 160 0008 0828     		cmp	r0, #8
 161              		.loc 1 367 0
 162 000a 8FB0     		sub	sp, sp, #60
 163              		.cfi_def_cfa_offset 104
 164              		.loc 1 368 0
 165 000c 07D0     		beq	.L15
 166              		.loc 1 389 0
 167 000e 5D48     		ldr	r0, .L17
 168              	.LVL7:
 169 0010 FFF7FEFF 		bl	commands_printf
 170              	.LVL8:
 171              		.loc 1 391 0
ARM GAS  /tmp/ccZgW9ua.s 			page 4


 172 0014 0FB0     		add	sp, sp, #60
 173              		.cfi_remember_state
 174              		.cfi_def_cfa_offset 44
 175              		@ sp needed
 176 0016 BDEC028B 		vldm	sp!, {d8}
 177              		.cfi_restore 80
 178              		.cfi_restore 81
 179              		.cfi_def_cfa_offset 36
 180 001a BDE8F08F 		pop	{r4, r5, r6, r7, r8, r9, r10, fp, pc}
 181              	.LVL9:
 182              	.L15:
 183              		.cfi_restore_state
 184 001e 0D46     		mov	r5, r1
 185              	.LVL10:
 186              	.LBB19:
 187              	.LBB20:
 188              		.loc 1 377 0
 189 0020 01AA     		add	r2, sp, #4
 190 0022 5949     		ldr	r1, .L17+4
 191              	.LVL11:
 192 0024 6868     		ldr	r0, [r5, #4]
 193              	.LVL12:
 194              	.LBB21:
 195              	.LBB22:
 196              		.loc 1 162 0
 197 0026 594C     		ldr	r4, .L17+8
 198              	.LBE22:
 199              	.LBE21:
 200              		.loc 1 377 0
 201 0028 FFF7FEFF 		bl	sscanf
 202              	.LVL13:
 203              		.loc 1 378 0
 204 002c 04AA     		add	r2, sp, #16
 205 002e 5649     		ldr	r1, .L17+4
 206 0030 A868     		ldr	r0, [r5, #8]
 207 0032 FFF7FEFF 		bl	sscanf
 208              	.LVL14:
 209              		.loc 1 379 0
 210 0036 02AA     		add	r2, sp, #8
 211 0038 5349     		ldr	r1, .L17+4
 212 003a E868     		ldr	r0, [r5, #12]
 213 003c FFF7FEFF 		bl	sscanf
 214              	.LVL15:
 215              		.loc 1 380 0
 216 0040 03AA     		add	r2, sp, #12
 217 0042 5149     		ldr	r1, .L17+4
 218 0044 2869     		ldr	r0, [r5, #16]
 219 0046 FFF7FEFF 		bl	sscanf
 220              	.LVL16:
 221              		.loc 1 381 0
 222 004a 05AA     		add	r2, sp, #20
 223 004c 4E49     		ldr	r1, .L17+4
 224 004e 6869     		ldr	r0, [r5, #20]
 225 0050 FFF7FEFF 		bl	sscanf
 226              	.LVL17:
 227              		.loc 1 382 0
 228 0054 06AA     		add	r2, sp, #24
ARM GAS  /tmp/ccZgW9ua.s 			page 5


 229 0056 4C49     		ldr	r1, .L17+4
 230 0058 A869     		ldr	r0, [r5, #24]
 231 005a FFF7FEFF 		bl	sscanf
 232              	.LVL18:
 233              		.loc 1 383 0
 234 005e E869     		ldr	r0, [r5, #28]
 235 0060 4949     		ldr	r1, .L17+4
 236 0062 07AA     		add	r2, sp, #28
 237 0064 FFF7FEFF 		bl	sscanf
 238              	.LVL19:
 239              	.LBB28:
 240              	.LBB24:
 241              		.loc 1 162 0
 242 0068 94F84430 		ldrb	r3, [r4, #68]	@ zero_extendqisi2
 243              	.LBE24:
 244              	.LBE28:
 245              		.loc 1 385 0
 246 006c 019E     		ldr	r6, [sp, #4]	@ float
 247 006e DDF810B0 		ldr	fp, [sp, #16]	@ float
 248 0072 DDF808A0 		ldr	r10, [sp, #8]	@ float
 249 0076 DDF80C90 		ldr	r9, [sp, #12]	@ float
 250 007a 059F     		ldr	r7, [sp, #20]	@ float
 251 007c DDF81880 		ldr	r8, [sp, #24]	@ float
 252 0080 9DED078A 		vldr.32	s16, [sp, #28]
 253              	.LVL20:
 254              	.LBB29:
 255              	.LBB25:
 256              		.loc 1 162 0
 257 0084 03F0FF05 		and	r5, r3, #255
 258              	.LVL21:
 259 0088 A3B3     		cbz	r3, .L16
 260              	.L12:
 261              		.loc 1 200 0
 262 008a FFF7FEFF 		bl	mcpwm_foc_get_ts
 263              	.LVL22:
 264              		.loc 1 201 0
 265 008e BDEEC88A 		vcvt.s32.f32	s16, s16
 266              	.LVL23:
 267              		.loc 1 200 0
 268 0092 84ED000A 		vstr.32	s0, [r4]
 269              		.loc 1 201 0
 270 0096 84ED068A 		vstr.32	s16, [r4, #24]	@ int
 271              		.loc 1 202 0
 272 009a C4F814B0 		str	fp, [r4, #20]	@ float
 273              		.loc 1 203 0
 274 009e C4F808A0 		str	r10, [r4, #8]	@ float
 275              		.loc 1 204 0
 276 00a2 C4F80C90 		str	r9, [r4, #12]	@ float
 277              		.loc 1 205 0
 278 00a6 C4F81080 		str	r8, [r4, #16]	@ float
 279              		.loc 1 206 0
 280 00aa 6760     		str	r7, [r4, #4]	@ float
 281              		.loc 1 207 0
 282 00ac E664     		str	r6, [r4, #76]	@ float
 283              		.loc 1 208 0
 284 00ae D4ED006A 		vldr.32	s13, [r4]
 285 00b2 94ED057A 		vldr.32	s14, [r4, #20]
ARM GAS  /tmp/ccZgW9ua.s 			page 6


 286 00b6 C6EE877A 		vdiv.f32	s15, s13, s14
 287 00ba C4ED127A 		vstr.32	s15, [r4, #72]
 288              		.loc 1 209 0
 289 00be FFF7FEFF 		bl	mc_interface_get_configuration
 290              	.LVL24:
 291              		.loc 1 210 0
 292 00c2 90F8B131 		ldrb	r3, [r0, #433]	@ zero_extendqisi2
 293              	.LBE25:
 294              	.LBE29:
 295              		.loc 1 386 0
 296 00c6 3248     		ldr	r0, .L17+12
 297              	.LVL25:
 298              	.LBB30:
 299              	.LBB26:
 300              		.loc 1 210 0
 301 00c8 5B08     		lsrs	r3, r3, #1
 302 00ca E361     		str	r3, [r4, #28]
 303              		.loc 1 211 0
 304 00cc D4ED077A 		vldr.32	s15, [r4, #28]	@ int
 305 00d0 F8EEE77A 		vcvt.f32.s32	s15, s15
 306 00d4 B7EE087A 		vmov.f32	s14, #1.5e+0
 307 00d8 67EE877A 		vmul.f32	s15, s15, s14
 308              		.loc 1 213 0
 309 00dc 0123     		movs	r3, #1
 310              		.loc 1 211 0
 311 00de C4ED087A 		vstr.32	s15, [r4, #32]
 312              		.loc 1 213 0
 313 00e2 84F84430 		strb	r3, [r4, #68]
 314              	.LVL26:
 315              	.LBE26:
 316              	.LBE30:
 317              		.loc 1 386 0
 318 00e6 FFF7FEFF 		bl	commands_printf
 319              	.LVL27:
 320              	.LBE20:
 321              	.LBE19:
 322              		.loc 1 391 0
 323 00ea 0FB0     		add	sp, sp, #60
 324              		.cfi_remember_state
 325              		.cfi_def_cfa_offset 44
 326              		@ sp needed
 327 00ec BDEC028B 		vldm	sp!, {d8}
 328              		.cfi_restore 80
 329              		.cfi_restore 81
 330              		.cfi_def_cfa_offset 36
 331 00f0 BDE8F08F 		pop	{r4, r5, r6, r7, r8, r9, r10, fp, pc}
 332              	.LVL28:
 333              	.L16:
 334              		.cfi_restore_state
 335              	.LBB33:
 336              	.LBB32:
 337              	.LBB31:
 338              	.LBB27:
 339              	.LBB23:
 340              		.loc 1 164 0
 341 00f4 9FED270A 		vldr.32	s0, .L17+16
 342 00f8 FFF7FEFF 		bl	mcpwm_foc_set_current
ARM GAS  /tmp/ccZgW9ua.s 			page 7


 343              	.LVL29:
 344              		.loc 1 174 0
 345 00fc 0523     		movs	r3, #5
 346              		.loc 1 169 0
 347 00fe 0122     		movs	r2, #1
 348              		.loc 1 176 0
 349 0100 08A9     		add	r1, sp, #32
 350 0102 2548     		ldr	r0, .L17+20
 351              		.loc 1 174 0
 352 0104 8DF83430 		strb	r3, [sp, #52]
 353              		.loc 1 169 0
 354 0108 8DF82420 		strb	r2, [sp, #36]
 355              		.loc 1 168 0
 356 010c 0895     		str	r5, [sp, #32]
 357              		.loc 1 170 0
 358 010e 8DF82550 		strb	r5, [sp, #37]
 359              		.loc 1 172 0
 360 0112 CDE90A55 		strd	r5, r5, [sp, #40]
 361              		.loc 1 173 0
 362 0116 0C95     		str	r5, [sp, #48]
 363              		.loc 1 176 0
 364 0118 FFF7FEFF 		bl	ADC_Init
 365              	.LVL30:
 366              		.loc 1 179 0
 367 011c 1F4A     		ldr	r2, .L17+24
 368 011e 2049     		ldr	r1, .L17+28
 369 0120 2048     		ldr	r0, .L17+32
 370 0122 FFF7FEFF 		bl	mcpwm_foc_get_current_offsets
 371              	.LVL31:
 372              		.loc 1 183 0
 373 0126 4FF40062 		mov	r2, #2048
 374 012a 1046     		mov	r0, r2
 375 012c 1146     		mov	r1, r2
 376 012e FFF7FEFF 		bl	mcpwm_foc_set_current_offsets
 377              	.LVL32:
 378              		.loc 1 186 0
 379 0132 DFED1D7A 		vldr.32	s15, .L17+36
 380 0136 9FED1D7A 		vldr.32	s14, .L17+40
 381 013a 1D4A     		ldr	r2, .L17+44
 382 013c 68EE277A 		vmul.f32	s15, s16, s15
 383              		.loc 1 187 0
 384 0140 4FF40061 		mov	r1, #2048
 385              		.loc 1 186 0
 386 0144 67EE877A 		vmul.f32	s15, s15, s14
 387 0148 FCEEE77A 		vcvt.u32.f32	s15, s15
 388 014c 17EE903A 		vmov	r3, s15	@ int
 389 0150 9BB2     		uxth	r3, r3
 390 0152 D382     		strh	r3, [r2, #22]	@ movhi
 391              		.loc 1 187 0
 392 0154 1182     		strh	r1, [r2, #16]	@ movhi
 393              		.loc 1 188 0
 394 0156 5182     		strh	r1, [r2, #18]	@ movhi
 395              		.loc 1 194 0
 396 0158 FFF7FEFF 		bl	mcpwm_foc_get_phase
 397              	.LVL33:
 398 015c DFED157A 		vldr.32	s15, .L17+48
 399 0160 9FED157A 		vldr.32	s14, .L17+52
ARM GAS  /tmp/ccZgW9ua.s 			page 8


 400 0164 20EE270A 		vmul.f32	s0, s0, s15
 401              		.loc 1 195 0
 402 0168 04F14001 		add	r1, r4, #64
 403              		.loc 1 194 0
 404 016c C0EE077A 		vdiv.f32	s15, s0, s14
 405              		.loc 1 195 0
 406 0170 04F13C00 		add	r0, r4, #60
 407              		.loc 1 194 0
 408 0174 C4ED0E7A 		vstr.32	s15, [r4, #56]
 409              		.loc 1 195 0
 410 0178 94ED0E0A 		vldr.32	s0, [r4, #56]
 411 017c FFF7FEFF 		bl	utils_fast_sincos_better
 412              	.LVL34:
 413 0180 83E7     		b	.L12
 414              	.L18:
 415 0182 00BF     		.align	2
 416              	.L17:
 417 0184 1C000000 		.word	.LC4
 418 0188 00000000 		.word	.LC2
 419 018c 00000000 		.word	.LANCHOR0
 420 0190 04000000 		.word	.LC3
 421 0194 00000000 		.word	0
 422 0198 00200140 		.word	1073815552
 423 019c 00000000 		.word	.LANCHOR3
 424 01a0 00000000 		.word	.LANCHOR2
 425 01a4 00000000 		.word	.LANCHOR1
 426 01a8 8B27373D 		.word	1027024779
 427 01ac BFB79B44 		.word	1151055807
 428 01b0 00000000 		.word	ADC_Value
 429 01b4 DB0F4940 		.word	1078530011
 430 01b8 00003443 		.word	1127481344
 431              	.LBE23:
 432              	.LBE27:
 433              	.LBE31:
 434              	.LBE32:
 435              	.LBE33:
 436              		.cfi_endproc
 437              	.LFE232:
 438              		.size	terminal_cmd_connect_virtual_motor, .-terminal_cmd_connect_virtual_motor
 439              		.section	.text.virtual_motor_init,"ax",%progbits
 440              		.align	1
 441              		.p2align 4,,15
 442              		.global	virtual_motor_init
 443              		.syntax unified
 444              		.thumb
 445              		.thumb_func
 446              		.fpu fpv4-sp-d16
 447              		.type	virtual_motor_init, %function
 448              	virtual_motor_init:
 449              	.LFB222:
 450              		.loc 1 88 0
 451              		.cfi_startproc
 452              		@ args = 0, pretend = 0, frame = 0
 453              		@ frame_needed = 0, uses_anonymous_args = 0
 454 0000 70B5     		push	{r4, r5, r6, lr}
 455              		.cfi_def_cfa_offset 16
 456              		.cfi_offset 4, -16
ARM GAS  /tmp/ccZgW9ua.s 			page 9


 457              		.cfi_offset 5, -12
 458              		.cfi_offset 6, -8
 459              		.cfi_offset 14, -4
 460              		.loc 1 90 0
 461 0002 184C     		ldr	r4, .L21
 462              		.loc 1 92 0
 463 0004 0023     		movs	r3, #0
 464              		.loc 1 90 0
 465 0006 0025     		movs	r5, #0
 466 0008 84F84450 		strb	r5, [r4, #68]
 467              		.loc 1 92 0
 468 000c 2363     		str	r3, [r4, #48]	@ float
 469              		.loc 1 93 0
 470 000e A365     		str	r3, [r4, #88]	@ float
 471              		.loc 1 94 0
 472 0010 E365     		str	r3, [r4, #92]	@ float
 473              		.loc 1 95 0
 474 0012 2366     		str	r3, [r4, #96]	@ float
 475              		.loc 1 96 0
 476 0014 6367     		str	r3, [r4, #116]	@ float
 477              		.loc 1 97 0
 478 0016 A367     		str	r3, [r4, #120]	@ float
 479              		.loc 1 98 0
 480 0018 E367     		str	r3, [r4, #124]	@ float
 481              		.loc 1 99 0
 482 001a 6363     		str	r3, [r4, #52]	@ float
 483              		.loc 1 100 0
 484 001c 2365     		str	r3, [r4, #80]	@ float
 485              		.loc 1 101 0
 486 001e 6365     		str	r3, [r4, #84]	@ float
 487              		.loc 1 102 0
 488 0020 E366     		str	r3, [r4, #108]	@ float
 489              		.loc 1 103 0
 490 0022 2367     		str	r3, [r4, #112]	@ float
 491              		.loc 1 104 0
 492 0024 A362     		str	r3, [r4, #40]	@ float
 493              		.loc 1 105 0
 494 0026 E362     		str	r3, [r4, #44]	@ float
 495              		.loc 1 106 0
 496 0028 FFF7FEFF 		bl	mc_interface_get_configuration
 497              	.LVL35:
 498              		.loc 1 107 0
 499 002c 90F8B101 		ldrb	r0, [r0, #433]	@ zero_extendqisi2
 500              	.LVL36:
 501              		.loc 1 111 0
 502 0030 0D4B     		ldr	r3, .L21+4
 503 0032 0E4A     		ldr	r2, .L21+8
 504 0034 0E49     		ldr	r1, .L21+12
 505              		.loc 1 107 0
 506 0036 4008     		lsrs	r0, r0, #1
 507 0038 E061     		str	r0, [r4, #28]
 508              		.loc 1 108 0
 509 003a D4ED077A 		vldr.32	s15, [r4, #28]	@ int
 510              		.loc 1 111 0
 511 003e 0D48     		ldr	r0, .L21+16
 512              		.loc 1 108 0
 513 0040 F8EEE77A 		vcvt.f32.s32	s15, s15
ARM GAS  /tmp/ccZgW9ua.s 			page 10


 514 0044 B7EE087A 		vmov.f32	s14, #1.5e+0
 515 0048 67EE877A 		vmul.f32	s15, s15, s14
 516 004c C4ED087A 		vstr.32	s15, [r4, #32]
 517              		.loc 1 111 0
 518 0050 FFF7FEFF 		bl	terminal_register_command_callback
 519              	.LVL37:
 520              		.loc 1 117 0
 521 0054 2A46     		mov	r2, r5
 522 0056 084B     		ldr	r3, .L21+20
 523 0058 0849     		ldr	r1, .L21+24
 524 005a 0948     		ldr	r0, .L21+28
 525              		.loc 1 122 0
 526 005c BDE87040 		pop	{r4, r5, r6, lr}
 527              		.cfi_restore 14
 528              		.cfi_restore 6
 529              		.cfi_restore 5
 530              		.cfi_restore 4
 531              		.cfi_def_cfa_offset 0
 532              		.loc 1 117 0
 533 0060 FFF7FEBF 		b	terminal_register_command_callback
 534              	.LVL38:
 535              	.L22:
 536              		.align	2
 537              	.L21:
 538 0064 00000000 		.word	.LANCHOR0
 539 0068 00000000 		.word	terminal_cmd_connect_virtual_motor
 540 006c 00000000 		.word	.LC5
 541 0070 24000000 		.word	.LC6
 542 0074 3C000000 		.word	.LC7
 543 0078 00000000 		.word	terminal_cmd_disconnect_virtual_motor
 544 007c 54000000 		.word	.LC8
 545 0080 70000000 		.word	.LC9
 546              		.cfi_endproc
 547              	.LFE222:
 548              		.size	virtual_motor_init, .-virtual_motor_init
 549              		.section	.text.virtual_motor_int_handler,"ax",%progbits
 550              		.align	1
 551              		.p2align 4,,15
 552              		.global	virtual_motor_int_handler
 553              		.syntax unified
 554              		.thumb
 555              		.thumb_func
 556              		.fpu fpv4-sp-d16
 557              		.type	virtual_motor_int_handler, %function
 558              	virtual_motor_int_handler:
 559              	.LFB223:
 560              		.loc 1 127 0
 561              		.cfi_startproc
 562              		@ args = 0, pretend = 0, frame = 0
 563              		@ frame_needed = 0, uses_anonymous_args = 0
 564              	.LVL39:
 565 0000 10B5     		push	{r4, lr}
 566              		.cfi_def_cfa_offset 8
 567              		.cfi_offset 4, -8
 568              		.cfi_offset 14, -4
 569              		.loc 1 128 0
 570 0002 D64C     		ldr	r4, .L40
ARM GAS  /tmp/ccZgW9ua.s 			page 11


 571 0004 94F84430 		ldrb	r3, [r4, #68]	@ zero_extendqisi2
 572              		.loc 1 127 0
 573 0008 2DED048B 		vpush.64	{d8, d9}
 574              		.cfi_def_cfa_offset 24
 575              		.cfi_offset 80, -24
 576              		.cfi_offset 81, -20
 577              		.cfi_offset 82, -16
 578              		.cfi_offset 83, -12
 579              		.loc 1 128 0
 580 000c 13B9     		cbnz	r3, .L39
 581              		.loc 1 132 0
 582 000e BDEC048B 		vldm	sp!, {d8-d9}
 583              		.cfi_remember_state
 584              		.cfi_restore 82
 585              		.cfi_restore 83
 586              		.cfi_restore 80
 587              		.cfi_restore 81
 588              		.cfi_def_cfa_offset 8
 589 0012 10BD     		pop	{r4, pc}
 590              	.L39:
 591              		.cfi_restore_state
 592 0014 F0EE408A 		vmov.f32	s17, s0
 593              		.loc 1 129 0
 594 0018 94ED139A 		vldr.32	s18, [r4, #76]
 595              	.LVL40:
 596              	.LBB42:
 597              	.LBB43:
 598              	.LBB44:
 599              		.loc 1 273 0
 600 001c 94ED0E0A 		vldr.32	s0, [r4, #56]
 601              	.LVL41:
 602 0020 04F14001 		add	r1, r4, #64
 603 0024 04F13C00 		add	r0, r4, #60
 604 0028 B0EE608A 		vmov.f32	s16, s1
 605              	.LVL42:
 606 002c FFF7FEFF 		bl	utils_fast_sincos_better
 607              	.LVL43:
 608              		.loc 1 276 0
 609 0030 94ED107A 		vldr.32	s14, [r4, #64]
 610 0034 D4ED0F7A 		vldr.32	s15, [r4, #60]
 611 0038 68EE277A 		vmul.f32	s15, s16, s15
 612              	.LBE44:
 613              	.LBE43:
 614              	.LBB46:
 615              	.LBB47:
 616              		.loc 1 308 0
 617 003c 0023     		movs	r3, #0
 618              	.LBE47:
 619              	.LBE46:
 620              	.LBB49:
 621              	.LBB45:
 622              		.loc 1 276 0
 623 003e E8EE877A 		vfma.f32	s15, s17, s14
 624 0042 C4ED197A 		vstr.32	s15, [r4, #100]
 625              		.loc 1 277 0
 626 0046 D4ED107A 		vldr.32	s15, [r4, #64]
 627 004a 94ED0F0A 		vldr.32	s0, [r4, #60]
ARM GAS  /tmp/ccZgW9ua.s 			page 12


 628 004e 20EE680A 		vnmul.f32	s0, s0, s17
 629 0052 A8EE270A 		vfma.f32	s0, s16, s15
 630 0056 84ED1A0A 		vstr.32	s0, [r4, #104]
 631              		.loc 1 280 0
 632 005a D4ED197A 		vldr.32	s15, [r4, #100]
 633              		.loc 1 281 0
 634 005e 94ED0D3A 		vldr.32	s6, [r4, #52]
 635              		.loc 1 282 0
 636 0062 94ED077A 		vldr.32	s14, [r4, #28]	@ int
 637              		.loc 1 283 0
 638 0066 D4ED033A 		vldr.32	s7, [r4, #12]
 639 006a 94ED0B4A 		vldr.32	s8, [r4, #44]
 640              		.loc 1 284 0
 641 006e D4ED014A 		vldr.32	s9, [r4, #4]
 642 0072 94ED095A 		vldr.32	s10, [r4, #36]
 643              		.loc 1 285 0
 644 0076 D4ED005A 		vldr.32	s11, [r4]
 645 007a 94ED026A 		vldr.32	s12, [r4, #8]
 646              		.loc 1 280 0
 647 007e D4ED0A6A 		vldr.32	s13, [r4, #40]
 648              		.loc 1 281 0
 649 0082 B8EEC77A 		vcvt.f32.s32	s14, s14
 650 0086 27EE037A 		vmul.f32	s14, s14, s6
 651              		.loc 1 282 0
 652 008a 27EE237A 		vmul.f32	s14, s14, s7
 653              		.loc 1 280 0
 654 008e E7EE047A 		vfma.f32	s15, s14, s8
 655              		.loc 1 283 0
 656 0092 E4EEC57A 		vfms.f32	s15, s9, s10
 657              		.loc 1 285 0
 658 0096 67EEA57A 		vmul.f32	s15, s15, s11
 659 009a 87EE867A 		vdiv.f32	s14, s15, s12
 660              		.loc 1 280 0
 661 009e 77EE267A 		vadd.f32	s15, s14, s13
 662 00a2 C4ED0A7A 		vstr.32	s15, [r4, #40]
 663              		.loc 1 286 0
 664 00a6 D4ED0A7A 		vldr.32	s15, [r4, #40]
 665 00aa 94ED046A 		vldr.32	s12, [r4, #16]
 666 00ae D4ED026A 		vldr.32	s13, [r4, #8]
 667 00b2 86EE267A 		vdiv.f32	s14, s12, s13
 668 00b6 77EEC77A 		vsub.f32	s15, s15, s14
 669 00ba C4ED097A 		vstr.32	s15, [r4, #36]
 670              		.loc 1 289 0
 671 00be D4ED1A7A 		vldr.32	s15, [r4, #104]
 672              		.loc 1 290 0
 673 00c2 94ED0D6A 		vldr.32	s12, [r4, #52]
 674              		.loc 1 291 0
 675 00c6 D4ED076A 		vldr.32	s13, [r4, #28]	@ int
 676              		.loc 1 292 0
 677 00ca D4ED022A 		vldr.32	s5, [r4, #8]
 678 00ce 94ED093A 		vldr.32	s6, [r4, #36]
 679 00d2 94ED047A 		vldr.32	s14, [r4, #16]
 680              		.loc 1 293 0
 681 00d6 D4ED013A 		vldr.32	s7, [r4, #4]
 682 00da 94ED0B4A 		vldr.32	s8, [r4, #44]
 683              		.loc 1 294 0
 684 00de D4ED004A 		vldr.32	s9, [r4]
ARM GAS  /tmp/ccZgW9ua.s 			page 13


 685 00e2 94ED035A 		vldr.32	s10, [r4, #12]
 686              		.loc 1 289 0
 687 00e6 D4ED0B5A 		vldr.32	s11, [r4, #44]
 688              		.loc 1 292 0
 689 00ea A2EE837A 		vfma.f32	s14, s5, s6
 690              		.loc 1 290 0
 691 00ee F8EEE66A 		vcvt.f32.s32	s13, s13
 692              		.loc 1 289 0
 693 00f2 66EE666A 		vnmul.f32	s13, s12, s13
 694 00f6 E6EE877A 		vfma.f32	s15, s13, s14
 695              		.loc 1 292 0
 696 00fa E3EEC47A 		vfms.f32	s15, s7, s8
 697              		.loc 1 294 0
 698 00fe 67EEA47A 		vmul.f32	s15, s15, s9
 699 0102 C7EE856A 		vdiv.f32	s13, s15, s10
 700              		.loc 1 289 0
 701 0106 76EEA57A 		vadd.f32	s15, s13, s11
 702 010a C4ED0B7A 		vstr.32	s15, [r4, #44]
 703              	.LVL44:
 704              	.LBE45:
 705              	.LBE49:
 706              	.LBB50:
 707              	.LBB48:
 708              		.loc 1 302 0
 709 010e 94ED086A 		vldr.32	s12, [r4, #32]
 710 0112 D4ED047A 		vldr.32	s15, [r4, #16]
 711              		.loc 1 303 0
 712 0116 D4ED026A 		vldr.32	s13, [r4, #8]
 713 011a 94ED035A 		vldr.32	s10, [r4, #12]
 714              		.loc 1 304 0
 715 011e D4ED095A 		vldr.32	s11, [r4, #36]
 716 0122 94ED0B7A 		vldr.32	s14, [r4, #44]
 717              		.loc 1 303 0
 718 0126 76EEC56A 		vsub.f32	s13, s13, s10
 719              		.loc 1 302 0
 720 012a E6EEA57A 		vfma.f32	s15, s13, s11
 721 012e 67EE867A 		vmul.f32	s15, s15, s12
 722              		.loc 1 304 0
 723 0132 67EE877A 		vmul.f32	s15, s15, s14
 724              		.loc 1 302 0
 725 0136 C4ED0C7A 		vstr.32	s15, [r4, #48]
 726              		.loc 1 306 0
 727 013a D4ED0D7A 		vldr.32	s15, [r4, #52]
 728 013e D4ED126A 		vldr.32	s13, [r4, #72]
 729 0142 94ED0C7A 		vldr.32	s14, [r4, #48]
 730 0146 37EE497A 		vsub.f32	s14, s14, s18
 731 014a E6EE877A 		vfma.f32	s15, s13, s14
 732              	.LVL45:
 733              		.loc 1 318 0
 734 014e 9FED847A 		vldr.32	s14, .L40+4
 735              		.loc 1 308 0
 736 0152 F5EEC07A 		vcmpe.f32	s15, #0
 737 0156 F1EE10FA 		vmrs	APSR_nzcv, FPSCR
 738              		.loc 1 309 0
 739 015a 4CBF     		ite	mi
 740 015c 6363     		strmi	r3, [r4, #52]	@ float
 741              		.loc 1 311 0
ARM GAS  /tmp/ccZgW9ua.s 			page 14


 742 015e C4ED0D7A 		vstrpl.32	s15, [r4, #52]
 743              		.loc 1 315 0
 744 0162 94ED0D6A 		vldr.32	s12, [r4, #52]
 745 0166 D4ED006A 		vldr.32	s13, [r4]
 746 016a D4ED0E7A 		vldr.32	s15, [r4, #56]
 747              	.LVL46:
 748 016e E6EE267A 		vfma.f32	s15, s12, s13
 749 0172 C4ED0E7A 		vstr.32	s15, [r4, #56]
 750              		.loc 1 318 0
 751 0176 D4ED0E7A 		vldr.32	s15, [r4, #56]
 752 017a F4EEC77A 		vcmpe.f32	s15, s14
 753 017e F1EE10FA 		vmrs	APSR_nzcv, FPSCR
 754 0182 0EDD     		ble	.L28
 755              		.loc 1 319 0
 756 0184 DFED776A 		vldr.32	s13, .L40+8
 757              	.L30:
 758 0188 D4ED0E7A 		vldr.32	s15, [r4, #56]
 759 018c 77EEE67A 		vsub.f32	s15, s15, s13
 760 0190 C4ED0E7A 		vstr.32	s15, [r4, #56]
 761              		.loc 1 318 0
 762 0194 D4ED0E7A 		vldr.32	s15, [r4, #56]
 763 0198 F4EEC77A 		vcmpe.f32	s15, s14
 764 019c F1EE10FA 		vmrs	APSR_nzcv, FPSCR
 765 01a0 F2DC     		bgt	.L30
 766              	.L28:
 767              		.loc 1 322 0
 768 01a2 D4ED0E7A 		vldr.32	s15, [r4, #56]
 769 01a6 9FED707A 		vldr.32	s14, .L40+12
 770 01aa F4EEC77A 		vcmpe.f32	s15, s14
 771 01ae F1EE10FA 		vmrs	APSR_nzcv, FPSCR
 772 01b2 0ED5     		bpl	.L31
 773              		.loc 1 323 0
 774 01b4 DFED6B6A 		vldr.32	s13, .L40+8
 775              	.L33:
 776 01b8 D4ED0E7A 		vldr.32	s15, [r4, #56]
 777 01bc 77EEA67A 		vadd.f32	s15, s15, s13
 778 01c0 C4ED0E7A 		vstr.32	s15, [r4, #56]
 779              		.loc 1 322 0
 780 01c4 D4ED0E7A 		vldr.32	s15, [r4, #56]
 781 01c8 F4EEC77A 		vcmpe.f32	s15, s14
 782 01cc F1EE10FA 		vmrs	APSR_nzcv, FPSCR
 783 01d0 F2D4     		bmi	.L33
 784              	.L31:
 785              	.LVL47:
 786              	.LBE48:
 787              	.LBE50:
 788              	.LBB51:
 789              	.LBB52:
 790              		.loc 1 333 0
 791 01d2 D4ED103A 		vldr.32	s7, [r4, #64]
 792 01d6 94ED094A 		vldr.32	s8, [r4, #36]
 793              		.loc 1 334 0
 794 01da D4ED0F4A 		vldr.32	s9, [r4, #60]
 795 01de D4ED0B6A 		vldr.32	s13, [r4, #44]
 796              		.loc 1 345 0
 797 01e2 9FED627A 		vldr.32	s14, .L40+16
 798              		.loc 1 353 0
ARM GAS  /tmp/ccZgW9ua.s 			page 15


 799 01e6 9FED625A 		vldr.32	s10, .L40+20
 800 01ea DFED627A 		vldr.32	s15, .L40+24
 801 01ee 624A     		ldr	r2, .L40+28
 802              		.loc 1 359 0
 803 01f0 DFED625A 		vldr.32	s11, .L40+32
 804 01f4 9FED626A 		vldr.32	s12, .L40+36
 805              		.loc 1 333 0
 806 01f8 66EEE46A 		vnmul.f32	s13, s13, s9
 807              		.loc 1 345 0
 808 01fc FEEE004A 		vmov.f32	s9, #-5.0e-1
 809              		.loc 1 333 0
 810 0200 E3EE846A 		vfma.f32	s13, s7, s8
 811              	.LBE52:
 812              	.LBE51:
 813              	.LBE42:
 814              		.loc 1 130 0
 815 0204 0021     		movs	r1, #0
 816 0206 0846     		mov	r0, r1
 817              	.LBB59:
 818              	.LBB56:
 819              	.LBB53:
 820              		.loc 1 333 0
 821 0208 C4ED1B6A 		vstr.32	s13, [r4, #108]
 822              		.loc 1 335 0
 823 020c D4ED103A 		vldr.32	s7, [r4, #64]
 824 0210 94ED0B4A 		vldr.32	s8, [r4, #44]
 825              		.loc 1 336 0
 826 0214 D4ED0F6A 		vldr.32	s13, [r4, #60]
 827 0218 94ED093A 		vldr.32	s6, [r4, #36]
 828 021c 66EE836A 		vmul.f32	s13, s13, s6
 829              		.loc 1 335 0
 830 0220 E3EE846A 		vfma.f32	s13, s7, s8
 831 0224 C4ED1C6A 		vstr.32	s13, [r4, #112]
 832              		.loc 1 338 0
 833 0228 D4ED103A 		vldr.32	s7, [r4, #64]
 834 022c 94ED194A 		vldr.32	s8, [r4, #100]
 835              		.loc 1 339 0
 836 0230 94ED0F3A 		vldr.32	s6, [r4, #60]
 837 0234 D4ED1A6A 		vldr.32	s13, [r4, #104]
 838              		.loc 1 338 0
 839 0238 66EEC36A 		vnmul.f32	s13, s13, s6
 840 023c E3EE846A 		vfma.f32	s13, s7, s8
 841 0240 C4ED146A 		vstr.32	s13, [r4, #80]
 842              		.loc 1 340 0
 843 0244 D4ED103A 		vldr.32	s7, [r4, #64]
 844 0248 94ED1A4A 		vldr.32	s8, [r4, #104]
 845              		.loc 1 341 0
 846 024c D4ED0F6A 		vldr.32	s13, [r4, #60]
 847 0250 94ED193A 		vldr.32	s6, [r4, #100]
 848 0254 66EE836A 		vmul.f32	s13, s13, s6
 849              		.loc 1 340 0
 850 0258 E3EE846A 		vfma.f32	s13, s7, s8
 851 025c C4ED156A 		vstr.32	s13, [r4, #84]
 852              		.loc 1 344 0
 853 0260 E36E     		ldr	r3, [r4, #108]	@ float
 854 0262 6367     		str	r3, [r4, #116]	@ float
 855              		.loc 1 345 0
ARM GAS  /tmp/ccZgW9ua.s 			page 16


 856 0264 94ED1B4A 		vldr.32	s8, [r4, #108]
 857 0268 D4ED1C6A 		vldr.32	s13, [r4, #112]
 858 026c 66EE876A 		vmul.f32	s13, s13, s14
 859 0270 E4EE246A 		vfma.f32	s13, s8, s9
 860 0274 C4ED1E6A 		vstr.32	s13, [r4, #120]
 861              		.loc 1 346 0
 862 0278 94ED1B4A 		vldr.32	s8, [r4, #108]
 863 027c D4ED1C6A 		vldr.32	s13, [r4, #112]
 864 0280 67EE666A 		vnmul.f32	s13, s14, s13
 865 0284 E4EE246A 		vfma.f32	s13, s8, s9
 866 0288 C4ED1F6A 		vstr.32	s13, [r4, #124]
 867              		.loc 1 348 0
 868 028c 236D     		ldr	r3, [r4, #80]	@ float
 869 028e A365     		str	r3, [r4, #88]	@ float
 870              		.loc 1 349 0
 871 0290 94ED144A 		vldr.32	s8, [r4, #80]
 872 0294 D4ED156A 		vldr.32	s13, [r4, #84]
 873 0298 66EE876A 		vmul.f32	s13, s13, s14
 874 029c E4EE246A 		vfma.f32	s13, s8, s9
 875 02a0 C4ED176A 		vstr.32	s13, [r4, #92]
 876              		.loc 1 350 0
 877 02a4 D4ED146A 		vldr.32	s13, [r4, #80]
 878 02a8 94ED154A 		vldr.32	s8, [r4, #84]
 879 02ac 27EE447A 		vnmul.f32	s14, s14, s8
 880              	.LBE53:
 881              	.LBE56:
 882              	.LBE59:
 883              		.loc 1 132 0
 884 02b0 BDEC048B 		vldm	sp!, {d8-d9}
 885              		.cfi_restore 82
 886              		.cfi_restore 83
 887              		.cfi_restore 80
 888              		.cfi_restore 81
 889              		.cfi_def_cfa_offset 8
 890              	.LVL48:
 891              	.LBB60:
 892              	.LBB57:
 893              	.LBB54:
 894              		.loc 1 350 0
 895 02b4 A6EEA47A 		vfma.f32	s14, s13, s9
 896 02b8 84ED187A 		vstr.32	s14, [r4, #96]
 897              		.loc 1 353 0
 898 02bc D4ED1D6A 		vldr.32	s13, [r4, #116]
 899 02c0 86EE857A 		vdiv.f32	s14, s13, s10
 900 02c4 37EE277A 		vadd.f32	s14, s14, s15
 901 02c8 BCEEC77A 		vcvt.u32.f32	s14, s14
 902 02cc 17EE103A 		vmov	r3, s14	@ int
 903 02d0 9BB2     		uxth	r3, r3
 904 02d2 D380     		strh	r3, [r2, #6]	@ movhi
 905              		.loc 1 354 0
 906 02d4 D4ED1E6A 		vldr.32	s13, [r4, #120]
 907 02d8 86EE857A 		vdiv.f32	s14, s13, s10
 908 02dc 37EE277A 		vadd.f32	s14, s14, s15
 909 02e0 BCEEC77A 		vcvt.u32.f32	s14, s14
 910 02e4 17EE103A 		vmov	r3, s14	@ int
 911 02e8 9BB2     		uxth	r3, r3
 912 02ea 1381     		strh	r3, [r2, #8]	@ movhi
ARM GAS  /tmp/ccZgW9ua.s 			page 17


 913              		.loc 1 356 0
 914 02ec D4ED1F6A 		vldr.32	s13, [r4, #124]
 915 02f0 86EE857A 		vdiv.f32	s14, s13, s10
 916              		.loc 1 359 0
 917 02f4 F0EE676A 		vmov.f32	s13, s15
 918              		.loc 1 356 0
 919 02f8 37EE277A 		vadd.f32	s14, s14, s15
 920 02fc BCEEC77A 		vcvt.u32.f32	s14, s14
 921 0300 17EE103A 		vmov	r3, s14	@ int
 922 0304 9BB2     		uxth	r3, r3
 923 0306 5381     		strh	r3, [r2, #10]	@ movhi
 924              		.loc 1 359 0
 925 0308 94ED167A 		vldr.32	s14, [r4, #88]
 926 030c 27EE257A 		vmul.f32	s14, s14, s11
 927 0310 E7EE066A 		vfma.f32	s13, s14, s12
 928 0314 BCEEE67A 		vcvt.u32.f32	s14, s13
 929              		.loc 1 360 0
 930 0318 F0EE676A 		vmov.f32	s13, s15
 931              		.loc 1 359 0
 932 031c 17EE103A 		vmov	r3, s14	@ int
 933 0320 9BB2     		uxth	r3, r3
 934 0322 1380     		strh	r3, [r2]	@ movhi
 935              		.loc 1 360 0
 936 0324 94ED177A 		vldr.32	s14, [r4, #92]
 937 0328 27EE257A 		vmul.f32	s14, s14, s11
 938 032c E7EE066A 		vfma.f32	s13, s14, s12
 939 0330 BCEEE67A 		vcvt.u32.f32	s14, s13
 940 0334 17EE103A 		vmov	r3, s14	@ int
 941 0338 9BB2     		uxth	r3, r3
 942 033a 5380     		strh	r3, [r2, #2]	@ movhi
 943              		.loc 1 361 0
 944 033c 94ED187A 		vldr.32	s14, [r4, #96]
 945 0340 67EE255A 		vmul.f32	s11, s14, s11
 946              	.LBE54:
 947              	.LBE57:
 948              	.LBE60:
 949              		.loc 1 132 0
 950 0344 BDE81040 		pop	{r4, lr}
 951              		.cfi_restore 14
 952              		.cfi_restore 4
 953              		.cfi_def_cfa_offset 0
 954              	.LBB61:
 955              	.LBB58:
 956              	.LBB55:
 957              		.loc 1 361 0
 958 0348 E5EE867A 		vfma.f32	s15, s11, s12
 959 034c FCEEE77A 		vcvt.u32.f32	s15, s15
 960 0350 17EE903A 		vmov	r3, s15	@ int
 961 0354 9BB2     		uxth	r3, r3
 962 0356 9380     		strh	r3, [r2, #4]	@ movhi
 963              	.LVL49:
 964              	.LBE55:
 965              	.LBE58:
 966              	.LBE61:
 967              		.loc 1 130 0
 968 0358 FFF7FEBF 		b	mcpwm_foc_adc_int_handler
 969              	.LVL50:
ARM GAS  /tmp/ccZgW9ua.s 			page 18


 970              	.L41:
 971              		.align	2
 972              	.L40:
 973 035c 00000000 		.word	.LANCHOR0
 974 0360 DB0F4940 		.word	1078530011
 975 0364 DB0FC940 		.word	1086918619
 976 0368 DB0F49C0 		.word	3226013659
 977 036c D7B35D3F 		.word	1063105495
 978 0370 AD70243E 		.word	1042575533
 979 0374 00000045 		.word	1157627904
 980 0378 00000000 		.word	ADC_Value
 981 037c 8B27373D 		.word	1027024779
 982 0380 BFB79B44 		.word	1151055807
 983              		.cfi_endproc
 984              	.LFE223:
 985              		.size	virtual_motor_int_handler, .-virtual_motor_int_handler
 986              		.section	.text.virtual_motor_is_connected,"ax",%progbits
 987              		.align	1
 988              		.p2align 4,,15
 989              		.global	virtual_motor_is_connected
 990              		.syntax unified
 991              		.thumb
 992              		.thumb_func
 993              		.fpu fpv4-sp-d16
 994              		.type	virtual_motor_is_connected, %function
 995              	virtual_motor_is_connected:
 996              	.LFB224:
 997              		.loc 1 134 0
 998              		.cfi_startproc
 999              		@ args = 0, pretend = 0, frame = 0
 1000              		@ frame_needed = 0, uses_anonymous_args = 0
 1001              		@ link register save eliminated.
 1002              		.loc 1 135 0
 1003 0000 014B     		ldr	r3, .L43
 1004 0002 93F84400 		ldrb	r0, [r3, #68]	@ zero_extendqisi2
 1005              		.loc 1 136 0
 1006 0006 7047     		bx	lr
 1007              	.L44:
 1008              		.align	2
 1009              	.L43:
 1010 0008 00000000 		.word	.LANCHOR0
 1011              		.cfi_endproc
 1012              	.LFE224:
 1013              		.size	virtual_motor_is_connected, .-virtual_motor_is_connected
 1014              		.section	.text.virtual_motor_get_angle_deg,"ax",%progbits
 1015              		.align	1
 1016              		.p2align 4,,15
 1017              		.global	virtual_motor_get_angle_deg
 1018              		.syntax unified
 1019              		.thumb
 1020              		.thumb_func
 1021              		.fpu fpv4-sp-d16
 1022              		.type	virtual_motor_get_angle_deg, %function
 1023              	virtual_motor_get_angle_deg:
 1024              	.LFB225:
 1025              		.loc 1 138 0
 1026              		.cfi_startproc
ARM GAS  /tmp/ccZgW9ua.s 			page 19


 1027              		@ args = 0, pretend = 0, frame = 0
 1028              		@ frame_needed = 0, uses_anonymous_args = 0
 1029              		@ link register save eliminated.
 1030              		.loc 1 139 0
 1031 0000 054B     		ldr	r3, .L46
 1032 0002 9FED067A 		vldr.32	s14, .L46+4
 1033 0006 D3ED0E7A 		vldr.32	s15, [r3, #56]
 1034 000a 9FED050A 		vldr.32	s0, .L46+8
 1035 000e 67EE877A 		vmul.f32	s15, s15, s14
 1036              		.loc 1 140 0
 1037 0012 87EE800A 		vdiv.f32	s0, s15, s0
 1038 0016 7047     		bx	lr
 1039              	.L47:
 1040              		.align	2
 1041              	.L46:
 1042 0018 00000000 		.word	.LANCHOR0
 1043 001c 00003443 		.word	1127481344
 1044 0020 DB0F4940 		.word	1078530011
 1045              		.cfi_endproc
 1046              	.LFE225:
 1047              		.size	virtual_motor_get_angle_deg, .-virtual_motor_get_angle_deg
 1048              		.section	.bss.m_curr0_offset_backup,"aw",%nobits
 1049              		.align	2
 1050              		.set	.LANCHOR1,. + 0
 1051              		.type	m_curr0_offset_backup, %object
 1052              		.size	m_curr0_offset_backup, 4
 1053              	m_curr0_offset_backup:
 1054 0000 00000000 		.space	4
 1055              		.section	.bss.m_curr1_offset_backup,"aw",%nobits
 1056              		.align	2
 1057              		.set	.LANCHOR2,. + 0
 1058              		.type	m_curr1_offset_backup, %object
 1059              		.size	m_curr1_offset_backup, 4
 1060              	m_curr1_offset_backup:
 1061 0000 00000000 		.space	4
 1062              		.section	.bss.m_curr2_offset_backup,"aw",%nobits
 1063              		.align	2
 1064              		.set	.LANCHOR3,. + 0
 1065              		.type	m_curr2_offset_backup, %object
 1066              		.size	m_curr2_offset_backup, 4
 1067              	m_curr2_offset_backup:
 1068 0000 00000000 		.space	4
 1069              		.section	.bss.virtual_motor,"aw",%nobits
 1070              		.align	2
 1071              		.set	.LANCHOR0,. + 0
 1072              		.type	virtual_motor, %object
 1073              		.size	virtual_motor, 128
 1074              	virtual_motor:
 1075 0000 00000000 		.space	128
 1075      00000000 
 1075      00000000 
 1075      00000000 
 1075      00000000 
 1076              		.section	.rodata.terminal_cmd_connect_virtual_motor.str1.4,"aMS",%progbits,1
 1077              		.align	2
 1078              	.LC2:
 1079 0000 256600   		.ascii	"%f\000"
ARM GAS  /tmp/ccZgW9ua.s 			page 20


 1080 0003 00       		.space	1
 1081              	.LC3:
 1082 0004 76697274 		.ascii	"virtual motor connected\000"
 1082      75616C20 
 1082      6D6F746F 
 1082      7220636F 
 1082      6E6E6563 
 1083              	.LC4:
 1084 001c 61726775 		.ascii	"arguments should be 7\000"
 1084      6D656E74 
 1084      73207368 
 1084      6F756C64 
 1084      20626520 
 1085              		.section	.rodata.terminal_cmd_disconnect_virtual_motor.str1.4,"aMS",%progbits,1
 1086              		.align	2
 1087              	.LC0:
 1088 0000 76697274 		.ascii	"virtual motor disconnected\000"
 1088      75616C20 
 1088      6D6F746F 
 1088      72206469 
 1088      73636F6E 
 1089 001b 00       		.space	1
 1090              	.LC1:
 1091 001c 2000     		.ascii	" \000"
 1092              		.section	.rodata.virtual_motor_init.str1.4,"aMS",%progbits,1
 1093              		.align	2
 1094              	.LC5:
 1095 0000 5B6D6C5D 		.ascii	"[ml][J][Ld][Lq][Rs][lambda][Vbus]\000"
 1095      5B4A5D5B 
 1095      4C645D5B 
 1095      4C715D5B 
 1095      52735D5B 
 1096 0022 0000     		.space	2
 1097              	.LC6:
 1098 0024 636F6E6E 		.ascii	"connects virtual motor\000"
 1098      65637473 
 1098      20766972 
 1098      7475616C 
 1098      206D6F74 
 1099 003b 00       		.space	1
 1100              	.LC7:
 1101 003c 636F6E6E 		.ascii	"connect_virtual_motor\000"
 1101      6563745F 
 1101      76697274 
 1101      75616C5F 
 1101      6D6F746F 
 1102 0052 0000     		.space	2
 1103              	.LC8:
 1104 0054 64697363 		.ascii	"disconnect virtual motor\000"
 1104      6F6E6E65 
 1104      63742076 
 1104      69727475 
 1104      616C206D 
 1105 006d 000000   		.space	3
 1106              	.LC9:
 1107 0070 64697363 		.ascii	"disconnect_virtual_motor\000"
 1107      6F6E6E65 
ARM GAS  /tmp/ccZgW9ua.s 			page 21


 1107      63745F76 
 1107      69727475 
 1107      616C5F6D 
 1108              		.text
 1109              	.Letext0:
 1110              		.file 2 "/usr/arm-none-eabi/include/machine/_default_types.h"
 1111              		.file 3 "/usr/arm-none-eabi/include/sys/_stdint.h"
 1112              		.file 4 "/usr/lib/gcc/arm-none-eabi/7.3.1/include/stddef.h"
 1113              		.file 5 "ChibiOS_3.0.2/os/rt/ports/ARMCMx/compilers/GCC/chtypes.h"
 1114              		.file 6 "ChibiOS_3.0.2/os/rt/include/chsystypes.h"
 1115              		.file 7 "ChibiOS_3.0.2/os/rt/include/chschd.h"
 1116              		.file 8 "ChibiOS_3.0.2/os/ext/CMSIS/include/core_cm4.h"
 1117              		.file 9 "ChibiOS_3.0.2/os/ext/CMSIS/ST/system_stm32f4xx.h"
 1118              		.file 10 "ChibiOS_3.0.2/os/ext/CMSIS/ST/stm32f407xx.h"
 1119              		.file 11 "ChibiOS_3.0.2/os/ext/CMSIS/ST/stm32f4xx.h"
 1120              		.file 12 "ChibiOS_3.0.2/os/rt/ports/ARMCMx/chcore.h"
 1121              		.file 13 "ChibiOS_3.0.2/os/rt/ports/ARMCMx/chcore_v7m.h"
 1122              		.file 14 "ChibiOS_3.0.2/os/rt/include/chtm.h"
 1123              		.file 15 "ChibiOS_3.0.2/os/rt/include/chsem.h"
 1124              		.file 16 "ChibiOS_3.0.2/os/rt/include/chmtx.h"
 1125              		.file 17 "ChibiOS_3.0.2/os/rt/include/chregistry.h"
 1126              		.file 18 "datatypes.h"
 1127              		.file 19 "ChibiOS_3.0.2/ext/stdperiph_stm32f4/inc/stm32f4xx_adc.h"
 1128              		.file 20 "conf_general.h"
 1129              		.file 21 "mc_interface.h"
 1130              		.file 22 "/usr/arm-none-eabi/include/sys/lock.h"
 1131              		.file 23 "/usr/arm-none-eabi/include/sys/_types.h"
 1132              		.file 24 "/usr/arm-none-eabi/include/sys/reent.h"
 1133              		.file 25 "/usr/arm-none-eabi/include/math.h"
 1134              		.file 26 "mcpwm_foc.h"
 1135              		.file 27 "commands.h"
 1136              		.file 28 "utils.h"
 1137              		.file 29 "terminal.h"
 1138              		.file 30 "/usr/arm-none-eabi/include/stdio.h"