ARM GAS  /tmp/ccjtIDd2.s 			page 1


   1              		.cpu cortex-m4
   2              		.eabi_attribute 27, 1
   3              		.eabi_attribute 28, 1
   4              		.eabi_attribute 20, 1
   5              		.eabi_attribute 21, 1
   6              		.eabi_attribute 23, 3
   7              		.eabi_attribute 24, 1
   8              		.eabi_attribute 25, 1
   9              		.eabi_attribute 26, 1
  10              		.eabi_attribute 30, 2
  11              		.eabi_attribute 34, 1
  12              		.eabi_attribute 18, 4
  13              		.file	"mc_interface.c"
  14              		.text
  15              	.Ltext0:
  16              		.cfi_sections	.debug_frame
  17              		.section	.text.sample_send_thread,"ax",%progbits
  18              		.align	1
  19              		.p2align 4,,15
  20              		.syntax unified
  21              		.thumb
  22              		.thumb_func
  23              		.fpu fpv4-sp-d16
  24              		.type	sample_send_thread, %function
  25              	sample_send_thread:
  26              	.LFB373:
  27              		.file 1 "mc_interface.c"
  28              		.loc 1 2877 0
  29              		.cfi_startproc
  30              		@ args = 0, pretend = 0, frame = 48
  31              		@ frame_needed = 0, uses_anonymous_args = 0
  32              	.LVL0:
  33 0000 2DE9F04F 		push	{r4, r5, r6, r7, r8, r9, r10, fp, lr}
  34              		.cfi_def_cfa_offset 36
  35              		.cfi_offset 4, -36
  36              		.cfi_offset 5, -32
  37              		.cfi_offset 6, -28
  38              		.cfi_offset 7, -24
  39              		.cfi_offset 8, -20
  40              		.cfi_offset 9, -16
  41              		.cfi_offset 10, -12
  42              		.cfi_offset 11, -8
  43              		.cfi_offset 14, -4
  44              	.LBB277:
  45              	.LBB278:
  46              		.file 2 "ChibiOS_3.0.2/os/rt/include/chregistry.h"
  47              		.loc 2 135 0
  48 0004 774B     		ldr	r3, .L21
  49              	.LBE278:
  50              	.LBE277:
  51              		.loc 1 2882 0
  52 0006 784A     		ldr	r2, .L21+4
  53              	.LBB281:
  54              	.LBB279:
  55              		.loc 2 135 0
  56 0008 9B69     		ldr	r3, [r3, #24]
  57 000a 7849     		ldr	r1, .L21+8
ARM GAS  /tmp/ccjtIDd2.s 			page 2


  58 000c DFF80C82 		ldr	r8, .L21+56
  59 0010 774F     		ldr	r7, .L21+12
  60              	.LBE279:
  61              	.LBE281:
  62              		.loc 1 2877 0
  63 0012 2DED068B 		vpush.64	{d8, d9, d10}
  64              		.cfi_def_cfa_offset 60
  65              		.cfi_offset 80, -60
  66              		.cfi_offset 81, -56
  67              		.cfi_offset 82, -52
  68              		.cfi_offset 83, -48
  69              		.cfi_offset 84, -44
  70              		.cfi_offset 85, -40
  71              	.LBB282:
  72              	.LBB283:
  73              	.LBB284:
  74              		.loc 1 2923 0
  75 0016 DFED779A 		vldr.32	s19, .L21+16
  76              		.loc 1 2925 0
  77 001a 9FED779A 		vldr.32	s18, .L21+20
  78 001e DFED778A 		vldr.32	s17, .L21+24
  79 0022 9FED778A 		vldr.32	s16, .L21+28
  80              		.loc 1 2932 0
  81 0026 9FED77AA 		vldr.32	s20, .L21+32
  82              	.LBE284:
  83              	.LBE283:
  84              	.LBE282:
  85              	.LBB292:
  86              	.LBB280:
  87              		.loc 2 135 0
  88 002a 9961     		str	r1, [r3, #24]
  89              	.LVL1:
  90              	.LBE280:
  91              	.LBE292:
  92              		.loc 1 2877 0
  93 002c 8DB0     		sub	sp, sp, #52
  94              		.cfi_def_cfa_offset 112
  95              		.loc 1 2882 0
  96 002e 1360     		str	r3, [r2]
  97              	.LVL2:
  98              	.L13:
  99              	.LBB293:
 100              		.loc 1 2885 0
 101 0030 0120     		movs	r0, #1
 102 0032 FFF7FEFF 		bl	chEvtWaitAny
 103              	.LVL3:
 104              		.loc 1 2890 0
 105 0036 744B     		ldr	r3, .L21+36
 106 0038 1B78     		ldrb	r3, [r3]	@ zero_extendqisi2
 107 003a 013B     		subs	r3, r3, #1
 108 003c 052B     		cmp	r3, #5
 109 003e F7D8     		bhi	.L13
 110 0040 DFE803F0 		tbb	[pc, r3]
 111              	.L4:
 112 0044 03       		.byte	(.L3-.L4)/2
 113 0045 03       		.byte	(.L3-.L4)/2
 114 0046 C7       		.byte	(.L5-.L4)/2
ARM GAS  /tmp/ccjtIDd2.s 			page 3


 115 0047 C7       		.byte	(.L5-.L4)/2
 116 0048 C7       		.byte	(.L5-.L4)/2
 117 0049 C7       		.byte	(.L5-.L4)/2
 118              		.p2align 1
 119              	.L3:
 120              		.loc 1 2893 0
 121 004a 704B     		ldr	r3, .L21+40
 122 004c D3F80090 		ldr	r9, [r3]
 123              	.LVL4:
 124              	.LBB289:
 125              		.loc 1 2908 0
 126 0050 B9F1000F 		cmp	r9, #0
 127              	.LBE289:
 128              		.loc 1 2888 0
 129 0054 C8BF     		it	gt
 130 0056 4FF0000A 		movgt	r10, #0
 131              	.LBB290:
 132              		.loc 1 2908 0
 133 005a E9DD     		ble	.L13
 134              	.LVL5:
 135              	.L6:
 136              	.LBB285:
 137              		.loc 1 2913 0
 138 005c BAF57A7F 		cmp	r10, #1000
 139              	.LBE285:
 140              	.LBE290:
 141              		.loc 1 2900 0
 142 0060 4FF00006 		mov	r6, #0
 143              	.LVL6:
 144              	.LBB291:
 145              	.LBB286:
 146              		.loc 1 2911 0
 147 0064 5446     		mov	r4, r10
 148              	.LVL7:
 149              		.loc 1 2913 0
 150 0066 C0F2AC80 		blt	.L7
 151              	.L8:
 152              		.loc 1 2914 0
 153 006a A4F57A74 		sub	r4, r4, #1000
 154              	.LVL8:
 155              		.loc 1 2913 0
 156 006e B4F57A7F 		cmp	r4, #1000
 157 0072 FADA     		bge	.L8
 158              	.L9:
 159              		.loc 1 2923 0 discriminator 2
 160 0074 38F81430 		ldrh	r3, [r8, r4, lsl #1]
 161 0078 1BB2     		sxth	r3, r3
 162 007a 07EE903A 		vmov	s15, r3	@ int
 163              		.loc 1 2921 0 discriminator 2
 164 007e 0122     		movs	r2, #1
 165              		.loc 1 2924 0 discriminator 2
 166 0080 04FA02F5 		lsl	r5, r4, r2
 167              		.loc 1 2923 0 discriminator 2
 168 0084 B8EEE70A 		vcvt.f32.s32	s0, s15
 169              		.loc 1 2924 0 discriminator 2
 170 0088 08EB050B 		add	fp, r8, r5
 171              		.loc 1 2921 0 discriminator 2
ARM GAS  /tmp/ccjtIDd2.s 			page 4


 172 008c 1323     		movs	r3, #19
 173              		.loc 1 2923 0 discriminator 2
 174 008e 20EE290A 		vmul.f32	s0, s0, s19
 175 0092 01A9     		add	r1, sp, #4
 176 0094 02A8     		add	r0, sp, #8
 177              		.loc 1 2921 0 discriminator 2
 178 0096 0192     		str	r2, [sp, #4]
 179 0098 8DF80830 		strb	r3, [sp, #8]
 180              		.loc 1 2923 0 discriminator 2
 181 009c FFF7FEFF 		bl	buffer_append_float32_auto
 182              	.LVL9:
 183              		.loc 1 2924 0 discriminator 2
 184 00a0 BBF8D037 		ldrh	r3, [fp, #2000]
 185 00a4 1BB2     		sxth	r3, r3
 186 00a6 07EE903A 		vmov	s15, r3	@ int
 187 00aa B8EEE70A 		vcvt.f32.s32	s0, s15
 188 00ae 01A9     		add	r1, sp, #4
 189 00b0 20EE290A 		vmul.f32	s0, s0, s19
 190 00b4 02A8     		add	r0, sp, #8
 191 00b6 FFF7FEFF 		bl	buffer_append_float32_auto
 192              	.LVL10:
 193              		.loc 1 2925 0 discriminator 2
 194 00ba BBF8A03F 		ldrh	r3, [fp, #4000]
 195 00be 1BB2     		sxth	r3, r3
 196 00c0 00EE103A 		vmov	s0, r3	@ int
 197 00c4 B8EEC00A 		vcvt.f32.s32	s0, s0
 198              		.loc 1 2926 0 discriminator 2
 199 00c8 514B     		ldr	r3, .L21+44
 200              		.loc 1 2925 0 discriminator 2
 201 00ca 20EE090A 		vmul.f32	s0, s0, s18
 202              		.loc 1 2926 0 discriminator 2
 203 00ce 03EB050B 		add	fp, r3, r5
 204              		.loc 1 2925 0 discriminator 2
 205 00d2 20EE280A 		vmul.f32	s0, s0, s17
 206 00d6 01A9     		add	r1, sp, #4
 207 00d8 02A8     		add	r0, sp, #8
 208 00da 20EE080A 		vmul.f32	s0, s0, s16
 209 00de FFF7FEFF 		bl	buffer_append_float32_auto
 210              	.LVL11:
 211              		.loc 1 2926 0 discriminator 2
 212 00e2 BBF87836 		ldrh	r3, [fp, #1656]
 213 00e6 1BB2     		sxth	r3, r3
 214 00e8 00EE103A 		vmov	s0, r3	@ int
 215 00ec B8EEC00A 		vcvt.f32.s32	s0, s0
 216 00f0 01A9     		add	r1, sp, #4
 217 00f2 20EE090A 		vmul.f32	s0, s0, s18
 218 00f6 02A8     		add	r0, sp, #8
 219 00f8 20EE280A 		vmul.f32	s0, s0, s17
 220              		.loc 1 2935 0 discriminator 2
 221 00fc 3C44     		add	r4, r4, r7
 222              	.LVL12:
 223              		.loc 1 2926 0 discriminator 2
 224 00fe 20EE080A 		vmul.f32	s0, s0, s16
 225 0102 FFF7FEFF 		bl	buffer_append_float32_auto
 226              	.LVL13:
 227              		.loc 1 2927 0 discriminator 2
 228 0106 BBF8483E 		ldrh	r3, [fp, #3656]
ARM GAS  /tmp/ccjtIDd2.s 			page 5


 229 010a 1BB2     		sxth	r3, r3
 230 010c 00EE103A 		vmov	s0, r3	@ int
 231 0110 B8EEC00A 		vcvt.f32.s32	s0, s0
 232              		.loc 1 2928 0 discriminator 2
 233 0114 3F4B     		ldr	r3, .L21+48
 234              		.loc 1 2927 0 discriminator 2
 235 0116 20EE090A 		vmul.f32	s0, s0, s18
 236              		.loc 1 2928 0 discriminator 2
 237 011a 03EB050B 		add	fp, r3, r5
 238              		.loc 1 2927 0 discriminator 2
 239 011e 20EE280A 		vmul.f32	s0, s0, s17
 240 0122 01A9     		add	r1, sp, #4
 241 0124 02A8     		add	r0, sp, #8
 242 0126 20EE080A 		vmul.f32	s0, s0, s16
 243 012a FFF7FEFF 		bl	buffer_append_float32_auto
 244              	.LVL14:
 245              		.loc 1 2928 0 discriminator 2
 246 012e BBF82035 		ldrh	r3, [fp, #1312]
 247 0132 1BB2     		sxth	r3, r3
 248 0134 00EE103A 		vmov	s0, r3	@ int
 249 0138 B8EEC00A 		vcvt.f32.s32	s0, s0
 250 013c 01A9     		add	r1, sp, #4
 251 013e 20EE090A 		vmul.f32	s0, s0, s18
 252 0142 02A8     		add	r0, sp, #8
 253 0144 20EE280A 		vmul.f32	s0, s0, s17
 254              		.loc 1 2934 0 discriminator 2
 255 0148 3D44     		add	r5, r5, r7
 256              		.loc 1 2928 0 discriminator 2
 257 014a 20EE080A 		vmul.f32	s0, s0, s16
 258 014e FFF7FEFF 		bl	buffer_append_float32_auto
 259              	.LVL15:
 260              		.loc 1 2932 0 discriminator 2
 261 0152 BBF8F03C 		ldrh	r3, [fp, #3312]
 262 0156 1BB2     		sxth	r3, r3
 263 0158 07EE903A 		vmov	s15, r3	@ int
 264 015c B8EEE70A 		vcvt.f32.s32	s0, s15
 265 0160 01A9     		add	r1, sp, #4
 266 0162 80EE0A0A 		vdiv.f32	s0, s0, s20
 267 0166 02A8     		add	r0, sp, #8
 268 0168 FFF7FEFF 		bl	buffer_append_float32_auto
 269              	.LVL16:
 270              		.loc 1 2934 0 discriminator 2
 271 016c B5F8C833 		ldrh	r3, [r5, #968]
 272 0170 1BB2     		sxth	r3, r3
 273 0172 01A9     		add	r1, sp, #4
 274 0174 02A8     		add	r0, sp, #8
 275              	.LBE286:
 276              		.loc 1 2908 0 discriminator 2
 277 0176 0136     		adds	r6, r6, #1
 278              	.LVL17:
 279 0178 0AF1010A 		add	r10, r10, #1
 280              	.LBB287:
 281              		.loc 1 2934 0 discriminator 2
 282 017c 07EE903A 		vmov	s15, r3	@ int
 283 0180 F8EEE77A 		vcvt.f32.s32	s15, s15
 284 0184 B2EE040A 		vmov.f32	s0, #1.0e+1
 285 0188 27EE800A 		vmul.f32	s0, s15, s0
ARM GAS  /tmp/ccjtIDd2.s 			page 6


 286 018c FFF7FEFF 		bl	buffer_append_float32_auto
 287              	.LVL18:
 288              		.loc 1 2935 0 discriminator 2
 289 0190 019B     		ldr	r3, [sp, #4]
 290 0192 94F8981B 		ldrb	r1, [r4, #2968]	@ zero_extendqisi2
 291              		.loc 1 2936 0 discriminator 2
 292 0196 94F8804F 		ldrb	r4, [r4, #3968]	@ zero_extendqisi2
 293              		.loc 1 2935 0 discriminator 2
 294 019a 0CAA     		add	r2, sp, #48
 295 019c 1A44     		add	r2, r2, r3
 296              		.loc 1 2936 0 discriminator 2
 297 019e 0233     		adds	r3, r3, #2
 298              		.loc 1 2935 0 discriminator 2
 299 01a0 02F8281C 		strb	r1, [r2, #-40]
 300              		.loc 1 2939 0 discriminator 2
 301 01a4 02A8     		add	r0, sp, #8
 302 01a6 1946     		mov	r1, r3
 303              		.loc 1 2936 0 discriminator 2
 304 01a8 02F8274C 		strb	r4, [r2, #-39]
 305 01ac 0193     		str	r3, [sp, #4]
 306              		.loc 1 2939 0 discriminator 2
 307 01ae FFF7FEFF 		bl	commands_send_packet
 308              	.LVL19:
 309              	.LBE287:
 310              		.loc 1 2908 0 discriminator 2
 311 01b2 4E45     		cmp	r6, r9
 312 01b4 BFF63CAF 		bge	.L13
 313              	.LBB288:
 314              		.loc 1 2913 0
 315 01b8 BAF57A7F 		cmp	r10, #1000
 316              		.loc 1 2911 0
 317 01bc 5446     		mov	r4, r10
 318              	.LVL20:
 319              		.loc 1 2913 0
 320 01be BFF654AF 		bge	.L8
 321              	.L7:
 322              		.loc 1 2917 0
 323 01c2 BAF1000F 		cmp	r10, #0
 324 01c6 BFF655AF 		bge	.L9
 325              	.L10:
 326              	.LVL21:
 327 01ca 14F57A74 		adds	r4, r4, #1000
 328              	.LVL22:
 329 01ce FCD4     		bmi	.L10
 330 01d0 50E7     		b	.L9
 331              	.LVL23:
 332              	.L5:
 333              	.LBE288:
 334              	.LBE291:
 335              		.loc 1 2901 0
 336 01d2 114B     		ldr	r3, .L21+52
 337 01d4 0D4A     		ldr	r2, .L21+40
 338 01d6 1B68     		ldr	r3, [r3]
 339 01d8 1268     		ldr	r2, [r2]
 340              		.loc 1 2900 0
 341 01da 4FF47A79 		mov	r9, #1000
 342              		.loc 1 2901 0
ARM GAS  /tmp/ccjtIDd2.s 			page 7


 343 01de A3EB020A 		sub	r10, r3, r2
 344              	.LVL24:
 345 01e2 3BE7     		b	.L6
 346              	.L22:
 347              		.align	2
 348              	.L21:
 349 01e4 00000000 		.word	ch
 350 01e8 00000000 		.word	.LANCHOR0
 351 01ec 00000000 		.word	.LC0
 352 01f0 E8320000 		.word	.LANCHOR7
 353 01f4 AD70243E 		.word	1042575533
 354 01f8 00008039 		.word	964689920
 355 01fc 986E5240 		.word	1079144088
 356 0200 BAE8B241 		.word	1102244026
 357 0204 24454742 		.word	1111967012
 358 0208 00000000 		.word	.LANCHOR1
 359 020c 00000000 		.word	.LANCHOR2
 360 0210 F8100000 		.word	.LANCHOR5
 361 0214 F0210000 		.word	.LANCHOR6
 362 0218 00000000 		.word	.LANCHOR3
 363 021c 00000000 		.word	.LANCHOR4
 364              	.LBE293:
 365              		.cfi_endproc
 366              	.LFE373:
 367              		.size	sample_send_thread, .-sample_send_thread
 368              		.section	.text.mc_interface_set_handbrake.part.4,"ax",%progbits
 369              		.align	1
 370              		.p2align 4,,15
 371              		.syntax unified
 372              		.thumb
 373              		.thumb_func
 374              		.fpu fpv4-sp-d16
 375              		.type	mc_interface_set_handbrake.part.4, %function
 376              	mc_interface_set_handbrake.part.4:
 377              	.LFB378:
 378              		.loc 1 969 0
 379              		.cfi_startproc
 380              		@ args = 0, pretend = 0, frame = 0
 381              		@ frame_needed = 0, uses_anonymous_args = 0
 382              		@ link register save eliminated.
 383              	.LVL25:
 384              		.loc 1 978 0
 385 0000 054B     		ldr	r3, .L29
 386 0002 9B78     		ldrb	r3, [r3, #2]	@ zero_extendqisi2
 387 0004 DBB2     		uxtb	r3, r3
 388 0006 012B     		cmp	r3, #1
 389 0008 04D9     		bls	.L25
 390 000a 022B     		cmp	r3, #2
 391 000c 01D1     		bne	.L28
 392              		.loc 1 986 0
 393 000e FFF7FEBF 		b	mcpwm_foc_set_handbrake
 394              	.LVL26:
 395              	.L28:
 396 0012 7047     		bx	lr
 397              	.L25:
 398              		.loc 1 982 0
 399 0014 FFF7FEBF 		b	mcpwm_set_brake_current
ARM GAS  /tmp/ccjtIDd2.s 			page 8


 400              	.LVL27:
 401              	.L30:
 402              		.align	2
 403              	.L29:
 404 0018 00000000 		.word	.LANCHOR8
 405              		.cfi_endproc
 406              	.LFE378:
 407              		.size	mc_interface_set_handbrake.part.4, .-mc_interface_set_handbrake.part.4
 408              		.section	.text.crchil,"ax",%progbits
 409              		.align	1
 410              		.p2align 4,,15
 411              		.global	crchil
 412              		.syntax unified
 413              		.thumb
 414              		.thumb_func
 415              		.fpu fpv4-sp-d16
 416              		.type	crchil, %function
 417              	crchil:
 418              	.LFB256:
 419              		.file 3 "spi_hil.c"
 420              		.loc 3 3 0
 421              		.cfi_startproc
 422              		@ args = 0, pretend = 0, frame = 0
 423              		@ frame_needed = 0, uses_anonymous_args = 0
 424              		@ link register save eliminated.
 425              	.LVL28:
 426              	.LBB294:
 427              		.loc 3 5 0
 428 0000 B9B1     		cbz	r1, .L36
 429              	.LBE294:
 430              		.loc 3 3 0
 431 0002 30B4     		push	{r4, r5}
 432              		.cfi_def_cfa_offset 8
 433              		.cfi_offset 4, -8
 434              		.cfi_offset 5, -4
 435 0004 451E     		subs	r5, r0, #1
 436              	.LBB297:
 437              	.LBB295:
 438              		.loc 3 9 0
 439 0006 0C4C     		ldr	r4, .L46
 440 0008 2944     		add	r1, r1, r5
 441              	.LVL29:
 442              	.LBE295:
 443              	.LBE297:
 444              		.loc 3 4 0
 445 000a 4FF0FF30 		mov	r0, #-1
 446              	.LVL30:
 447              	.L35:
 448              	.LBB298:
 449              		.loc 3 6 0
 450 000e 15F8012F 		ldrb	r2, [r5, #1]!	@ zero_extendqisi2
 451              	.LVL31:
 452 0012 0823     		movs	r3, #8
 453 0014 5040     		eors	r0, r0, r2
 454              	.LVL32:
 455              	.L34:
 456              	.LBB296:
ARM GAS  /tmp/ccjtIDd2.s 			page 9


 457              		.loc 3 8 0
 458 0016 00F00102 		and	r2, r0, #1
 459 001a 013B     		subs	r3, r3, #1
 460              	.LVL33:
 461 001c 4008     		lsrs	r0, r0, #1
 462              	.LVL34:
 463 001e 02B1     		cbz	r2, .L33
 464              		.loc 3 9 0
 465 0020 6040     		eors	r0, r0, r4
 466              	.LVL35:
 467              	.L33:
 468              		.loc 3 7 0 discriminator 2
 469 0022 13F0FF03 		ands	r3, r3, #255
 470 0026 F6D1     		bne	.L34
 471              	.LVL36:
 472              	.LBE296:
 473              		.loc 3 5 0 discriminator 2
 474 0028 8D42     		cmp	r5, r1
 475 002a F0D1     		bne	.L35
 476 002c C043     		mvns	r0, r0
 477              	.LVL37:
 478              	.LBE298:
 479              		.loc 3 15 0
 480 002e 30BC     		pop	{r4, r5}
 481              		.cfi_restore 5
 482              		.cfi_restore 4
 483              		.cfi_def_cfa_offset 0
 484              	.LVL38:
 485 0030 7047     		bx	lr
 486              	.LVL39:
 487              	.L36:
 488              	.LBB299:
 489              		.loc 3 5 0
 490 0032 0846     		mov	r0, r1
 491              	.LVL40:
 492              	.LBE299:
 493              		.loc 3 15 0
 494 0034 7047     		bx	lr
 495              	.L47:
 496 0036 00BF     		.align	2
 497              	.L46:
 498 0038 2083B8ED 		.word	-306674912
 499              		.cfi_endproc
 500              	.LFE256:
 501              		.size	crchil, .-crchil
 502              		.section	.text.arraybau,"ax",%progbits
 503              		.align	1
 504              		.p2align 4,,15
 505              		.global	arraybau
 506              		.syntax unified
 507              		.thumb
 508              		.thumb_func
 509              		.fpu fpv4-sp-d16
 510              		.type	arraybau, %function
 511              	arraybau:
 512              	.LFB257:
 513              		.loc 3 18 0
ARM GAS  /tmp/ccjtIDd2.s 			page 10


 514              		.cfi_startproc
 515              		@ args = 0, pretend = 0, frame = 0
 516              		@ frame_needed = 0, uses_anonymous_args = 0
 517              		@ link register save eliminated.
 518              	.LVL41:
 519              		.loc 3 25 0
 520 0000 104B     		ldr	r3, .L58
 521              		.loc 3 28 0
 522 0002 114A     		ldr	r2, .L58+4
 523              		.loc 3 25 0
 524 0004 1149     		ldr	r1, .L58+8
 525              	.LBB300:
 526              	.LBB301:
 527              	.LBB302:
 528              	.LBB303:
 529              		.loc 3 9 0
 530 0006 1248     		ldr	r0, .L58+12
 531              	.LBE303:
 532              	.LBE302:
 533              	.LBE301:
 534              	.LBE300:
 535              		.loc 3 18 0
 536 0008 70B4     		push	{r4, r5, r6}
 537              		.cfi_def_cfa_offset 12
 538              		.cfi_offset 4, -12
 539              		.cfi_offset 5, -8
 540              		.cfi_offset 6, -4
 541              		.loc 3 28 0
 542 000a 5A60     		str	r2, [r3, #4]
 543              	.LVL42:
 544              		.loc 3 25 0
 545 000c 1960     		str	r1, [r3]
 546 000e 1E46     		mov	r6, r3
 547 0010 1C46     		mov	r4, r3
 548 0012 DD1D     		adds	r5, r3, #7
 549              	.LBB308:
 550              	.LBB306:
 551              		.loc 3 4 0
 552 0014 4FF0FF32 		mov	r2, #-1
 553              	.LBE306:
 554              	.LBE308:
 555              		.loc 3 28 0
 556 0018 0023     		movs	r3, #0
 557              	.LVL43:
 558              	.L52:
 559              	.LBB309:
 560              	.LBB307:
 561              	.LBB305:
 562              		.loc 3 6 0
 563 001a 5A40     		eors	r2, r2, r3
 564              	.LVL44:
 565 001c 0823     		movs	r3, #8
 566              	.LVL45:
 567              	.L50:
 568              	.LBB304:
 569              		.loc 3 8 0
 570 001e 02F00101 		and	r1, r2, #1
ARM GAS  /tmp/ccjtIDd2.s 			page 11


 571 0022 013B     		subs	r3, r3, #1
 572              	.LVL46:
 573 0024 5208     		lsrs	r2, r2, #1
 574              	.LVL47:
 575 0026 01B1     		cbz	r1, .L49
 576              		.loc 3 9 0
 577 0028 4240     		eors	r2, r2, r0
 578              	.LVL48:
 579              	.L49:
 580              		.loc 3 7 0
 581 002a 13F0FF03 		ands	r3, r3, #255
 582 002e F6D1     		bne	.L50
 583              	.LVL49:
 584              	.LBE304:
 585              		.loc 3 5 0
 586 0030 AC42     		cmp	r4, r5
 587 0032 02D0     		beq	.L51
 588 0034 14F8013F 		ldrb	r3, [r4, #1]!	@ zero_extendqisi2
 589              	.LVL50:
 590 0038 EFE7     		b	.L52
 591              	.LVL51:
 592              	.L51:
 593              	.LBE305:
 594              		.loc 3 14 0
 595 003a D243     		mvns	r2, r2
 596              	.LBE307:
 597              	.LBE309:
 598              		.loc 3 36 0
 599 003c 3272     		strb	r2, [r6, #8]
 600              		.loc 3 37 0
 601 003e 70BC     		pop	{r4, r5, r6}
 602              		.cfi_restore 6
 603              		.cfi_restore 5
 604              		.cfi_restore 4
 605              		.cfi_def_cfa_offset 0
 606 0040 7047     		bx	lr
 607              	.L59:
 608 0042 00BF     		.align	2
 609              	.L58:
 610 0044 00000000 		.word	.LANCHOR9
 611 0048 00001ED4 		.word	-736231424
 612 004c 00000929 		.word	688455680
 613 0050 2083B8ED 		.word	-306674912
 614              		.cfi_endproc
 615              	.LFE257:
 616              		.size	arraybau, .-arraybau
 617              		.section	.text.SPI_Config,"ax",%progbits
 618              		.align	1
 619              		.p2align 4,,15
 620              		.global	SPI_Config
 621              		.syntax unified
 622              		.thumb
 623              		.thumb_func
 624              		.fpu fpv4-sp-d16
 625              		.type	SPI_Config, %function
 626              	SPI_Config:
 627              	.LFB258:
ARM GAS  /tmp/ccjtIDd2.s 			page 12


 628              		.loc 3 40 0
 629              		.cfi_startproc
 630              		@ args = 0, pretend = 0, frame = 0
 631              		@ frame_needed = 0, uses_anonymous_args = 0
 632              		@ link register save eliminated.
 633              		.loc 3 41 0
 634 0000 1249     		ldr	r1, .L61
 635              		.loc 3 43 0
 636 0002 134B     		ldr	r3, .L61+4
 637              		.loc 3 41 0
 638 0004 4A6C     		ldr	r2, [r1, #68]
 639 0006 42F48052 		orr	r2, r2, #4096
 640 000a 4A64     		str	r2, [r1, #68]
 641              		.loc 3 43 0
 642 000c 1A68     		ldr	r2, [r3]
 643 000e 42F00302 		orr	r2, r2, #3
 644 0012 1A60     		str	r2, [r3]
 645              		.loc 3 45 0
 646 0014 1A68     		ldr	r2, [r3]
 647 0016 42F00402 		orr	r2, r2, #4
 648 001a 1A60     		str	r2, [r3]
 649              		.loc 3 47 0
 650 001c 1A68     		ldr	r2, [r3]
 651 001e 42F02002 		orr	r2, r2, #32
 652 0022 1A60     		str	r2, [r3]
 653              		.loc 3 49 0
 654 0024 1A68     		ldr	r2, [r3]
 655 0026 22F08002 		bic	r2, r2, #128
 656 002a 1A60     		str	r2, [r3]
 657              		.loc 3 51 0
 658 002c 1A68     		ldr	r2, [r3]
 659 002e 42F44072 		orr	r2, r2, #768
 660 0032 1A60     		str	r2, [r3]
 661              		.loc 3 53 0
 662 0034 1A68     		ldr	r2, [r3]
 663 0036 22F48062 		bic	r2, r2, #1024
 664 003a 1A60     		str	r2, [r3]
 665              		.loc 3 55 0
 666 003c 1A68     		ldr	r2, [r3]
 667              		.loc 3 57 0
 668 003e 0021     		movs	r1, #0
 669              		.loc 3 55 0
 670 0040 22F40062 		bic	r2, r2, #2048
 671 0044 1A60     		str	r2, [r3]
 672              		.loc 3 57 0
 673 0046 5960     		str	r1, [r3, #4]
 674              		.loc 3 58 0
 675 0048 7047     		bx	lr
 676              	.L62:
 677 004a 00BF     		.align	2
 678              	.L61:
 679 004c 00380240 		.word	1073887232
 680 0050 00300140 		.word	1073819648
 681              		.cfi_endproc
 682              	.LFE258:
 683              		.size	SPI_Config, .-SPI_Config
 684              		.section	.text.GPIOConfig,"ax",%progbits
ARM GAS  /tmp/ccjtIDd2.s 			page 13


 685              		.align	1
 686              		.p2align 4,,15
 687              		.global	GPIOConfig
 688              		.syntax unified
 689              		.thumb
 690              		.thumb_func
 691              		.fpu fpv4-sp-d16
 692              		.type	GPIOConfig, %function
 693              	GPIOConfig:
 694              	.LFB259:
 695              		.loc 3 61 0
 696              		.cfi_startproc
 697              		@ args = 0, pretend = 0, frame = 0
 698              		@ frame_needed = 0, uses_anonymous_args = 0
 699              		@ link register save eliminated.
 700              		.loc 3 62 0
 701 0000 0A49     		ldr	r1, .L64
 702              		.loc 3 64 0
 703 0002 0B4B     		ldr	r3, .L64+4
 704              		.loc 3 62 0
 705 0004 0A6B     		ldr	r2, [r1, #48]
 706 0006 42F00102 		orr	r2, r2, #1
 707 000a 0A63     		str	r2, [r1, #48]
 708              		.loc 3 64 0
 709 000c 1A68     		ldr	r2, [r3]
 710 000e 42F42942 		orr	r2, r2, #43264
 711 0012 1A60     		str	r2, [r3]
 712              		.loc 3 66 0
 713 0014 9A68     		ldr	r2, [r3, #8]
 714 0016 42F47F42 		orr	r2, r2, #65280
 715 001a 9A60     		str	r2, [r3, #8]
 716              		.loc 3 68 0
 717 001c 1A6A     		ldr	r2, [r3, #32]
 718 001e 42F0AA42 		orr	r2, r2, #1426063360
 719 0022 42F4A002 		orr	r2, r2, #5242880
 720 0026 1A62     		str	r2, [r3, #32]
 721              		.loc 3 69 0
 722 0028 7047     		bx	lr
 723              	.L65:
 724 002a 00BF     		.align	2
 725              	.L64:
 726 002c 00380240 		.word	1073887232
 727 0030 00000240 		.word	1073872896
 728              		.cfi_endproc
 729              	.LFE259:
 730              		.size	GPIOConfig, .-GPIOConfig
 731              		.section	.text.SPI_Enable,"ax",%progbits
 732              		.align	1
 733              		.p2align 4,,15
 734              		.global	SPI_Enable
 735              		.syntax unified
 736              		.thumb
 737              		.thumb_func
 738              		.fpu fpv4-sp-d16
 739              		.type	SPI_Enable, %function
 740              	SPI_Enable:
 741              	.LFB260:
ARM GAS  /tmp/ccjtIDd2.s 			page 14


 742              		.loc 3 72 0
 743              		.cfi_startproc
 744              		@ args = 0, pretend = 0, frame = 0
 745              		@ frame_needed = 0, uses_anonymous_args = 0
 746              		@ link register save eliminated.
 747              		.loc 3 73 0
 748 0000 024A     		ldr	r2, .L67
 749 0002 1368     		ldr	r3, [r2]
 750 0004 43F04003 		orr	r3, r3, #64
 751 0008 1360     		str	r3, [r2]
 752              		.loc 3 74 0
 753 000a 7047     		bx	lr
 754              	.L68:
 755              		.align	2
 756              	.L67:
 757 000c 00300140 		.word	1073819648
 758              		.cfi_endproc
 759              	.LFE260:
 760              		.size	SPI_Enable, .-SPI_Enable
 761              		.section	.text.SPI_Disable,"ax",%progbits
 762              		.align	1
 763              		.p2align 4,,15
 764              		.global	SPI_Disable
 765              		.syntax unified
 766              		.thumb
 767              		.thumb_func
 768              		.fpu fpv4-sp-d16
 769              		.type	SPI_Disable, %function
 770              	SPI_Disable:
 771              	.LFB261:
 772              		.loc 3 77 0
 773              		.cfi_startproc
 774              		@ args = 0, pretend = 0, frame = 0
 775              		@ frame_needed = 0, uses_anonymous_args = 0
 776              		@ link register save eliminated.
 777              		.loc 3 78 0
 778 0000 024A     		ldr	r2, .L70
 779 0002 1368     		ldr	r3, [r2]
 780 0004 23F04003 		bic	r3, r3, #64
 781 0008 1360     		str	r3, [r2]
 782              		.loc 3 79 0
 783 000a 7047     		bx	lr
 784              	.L71:
 785              		.align	2
 786              	.L70:
 787 000c 00300140 		.word	1073819648
 788              		.cfi_endproc
 789              	.LFE261:
 790              		.size	SPI_Disable, .-SPI_Disable
 791              		.section	.text.CS_Enable,"ax",%progbits
 792              		.align	1
 793              		.p2align 4,,15
 794              		.global	CS_Enable
 795              		.syntax unified
 796              		.thumb
 797              		.thumb_func
 798              		.fpu fpv4-sp-d16
ARM GAS  /tmp/ccjtIDd2.s 			page 15


 799              		.type	CS_Enable, %function
 800              	CS_Enable:
 801              	.LFB262:
 802              		.loc 3 82 0
 803              		.cfi_startproc
 804              		@ args = 0, pretend = 0, frame = 0
 805              		@ frame_needed = 0, uses_anonymous_args = 0
 806              		@ link register save eliminated.
 807              		.loc 3 83 0
 808 0000 014B     		ldr	r3, .L73
 809 0002 1022     		movs	r2, #16
 810 0004 5A83     		strh	r2, [r3, #26]	@ movhi
 811              		.loc 3 84 0
 812 0006 7047     		bx	lr
 813              	.L74:
 814              		.align	2
 815              	.L73:
 816 0008 00000240 		.word	1073872896
 817              		.cfi_endproc
 818              	.LFE262:
 819              		.size	CS_Enable, .-CS_Enable
 820              		.section	.text.CS_Disable,"ax",%progbits
 821              		.align	1
 822              		.p2align 4,,15
 823              		.global	CS_Disable
 824              		.syntax unified
 825              		.thumb
 826              		.thumb_func
 827              		.fpu fpv4-sp-d16
 828              		.type	CS_Disable, %function
 829              	CS_Disable:
 830              	.LFB263:
 831              		.loc 3 87 0
 832              		.cfi_startproc
 833              		@ args = 0, pretend = 0, frame = 0
 834              		@ frame_needed = 0, uses_anonymous_args = 0
 835              		@ link register save eliminated.
 836              		.loc 3 88 0
 837 0000 014B     		ldr	r3, .L76
 838 0002 1022     		movs	r2, #16
 839 0004 1A83     		strh	r2, [r3, #24]	@ movhi
 840              		.loc 3 89 0
 841 0006 7047     		bx	lr
 842              	.L77:
 843              		.align	2
 844              	.L76:
 845 0008 00000240 		.word	1073872896
 846              		.cfi_endproc
 847              	.LFE263:
 848              		.size	CS_Disable, .-CS_Disable
 849              		.section	.text.SPI_Transmit,"ax",%progbits
 850              		.align	1
 851              		.p2align 4,,15
 852              		.global	SPI_Transmit
 853              		.syntax unified
 854              		.thumb
 855              		.thumb_func
ARM GAS  /tmp/ccjtIDd2.s 			page 16


 856              		.fpu fpv4-sp-d16
 857              		.type	SPI_Transmit, %function
 858              	SPI_Transmit:
 859              	.LFB264:
 860              		.loc 3 92 0
 861              		.cfi_startproc
 862              		@ args = 0, pretend = 0, frame = 8
 863              		@ frame_needed = 0, uses_anonymous_args = 0
 864              		@ link register save eliminated.
 865              	.LVL52:
 866              		.loc 3 102 0
 867 0000 0029     		cmp	r1, #0
 868              		.loc 3 92 0
 869 0002 82B0     		sub	sp, sp, #8
 870              		.cfi_def_cfa_offset 8
 871              		.loc 3 102 0
 872 0004 0ADD     		ble	.L79
 873 0006 0138     		subs	r0, r0, #1
 874              	.LVL53:
 875              		.loc 3 104 0
 876 0008 0D4A     		ldr	r2, .L91
 877 000a 0144     		add	r1, r1, r0
 878              	.LVL54:
 879              	.L80:
 880              		.loc 3 104 0 is_stmt 0 discriminator 1
 881 000c 9368     		ldr	r3, [r2, #8]
 882 000e 9B07     		lsls	r3, r3, #30
 883 0010 FCD5     		bpl	.L80
 884              		.loc 3 105 0 is_stmt 1
 885 0012 10F8013F 		ldrb	r3, [r0, #1]!	@ zero_extendqisi2
 886 0016 D360     		str	r3, [r2, #12]
 887              	.LVL55:
 888              		.loc 3 102 0
 889 0018 8842     		cmp	r0, r1
 890 001a F7D1     		bne	.L80
 891              	.LVL56:
 892              	.L79:
 893              		.loc 3 115 0
 894 001c 084A     		ldr	r2, .L91
 895              	.L82:
 896              		.loc 3 115 0 is_stmt 0 discriminator 1
 897 001e 9368     		ldr	r3, [r2, #8]
 898 0020 9907     		lsls	r1, r3, #30
 899 0022 FCD5     		bpl	.L82
 900              		.loc 3 116 0 is_stmt 1
 901 0024 064A     		ldr	r2, .L91
 902              	.L83:
 903              		.loc 3 116 0 is_stmt 0 discriminator 1
 904 0026 9368     		ldr	r3, [r2, #8]
 905 0028 1B06     		lsls	r3, r3, #24
 906 002a FCD4     		bmi	.L83
 907              		.loc 3 119 0 is_stmt 1
 908 002c D368     		ldr	r3, [r2, #12]
 909 002e DBB2     		uxtb	r3, r3
 910 0030 8DF80730 		strb	r3, [sp, #7]
 911              		.loc 3 120 0
 912 0034 9368     		ldr	r3, [r2, #8]
ARM GAS  /tmp/ccjtIDd2.s 			page 17


 913 0036 DBB2     		uxtb	r3, r3
 914 0038 8DF80730 		strb	r3, [sp, #7]
 915              		.loc 3 121 0
 916 003c 02B0     		add	sp, sp, #8
 917              		.cfi_def_cfa_offset 0
 918              		@ sp needed
 919 003e 7047     		bx	lr
 920              	.L92:
 921              		.align	2
 922              	.L91:
 923 0040 00300140 		.word	1073819648
 924              		.cfi_endproc
 925              	.LFE264:
 926              		.size	SPI_Transmit, .-SPI_Transmit
 927              		.section	.text.senddata,"ax",%progbits
 928              		.align	1
 929              		.p2align 4,,15
 930              		.global	senddata
 931              		.syntax unified
 932              		.thumb
 933              		.thumb_func
 934              		.fpu fpv4-sp-d16
 935              		.type	senddata, %function
 936              	senddata:
 937              	.LFB265:
 938              		.loc 3 124 0
 939              		.cfi_startproc
 940              		@ args = 0, pretend = 0, frame = 0
 941              		@ frame_needed = 0, uses_anonymous_args = 0
 942 0000 38B5     		push	{r3, r4, r5, lr}
 943              		.cfi_def_cfa_offset 16
 944              		.cfi_offset 3, -16
 945              		.cfi_offset 4, -12
 946              		.cfi_offset 5, -8
 947              		.cfi_offset 14, -4
 948              	.LBB310:
 949              	.LBB311:
 950              		.loc 3 83 0
 951 0002 054C     		ldr	r4, .L95
 952 0004 1025     		movs	r5, #16
 953              	.LBE311:
 954              	.LBE310:
 955              		.loc 3 125 0
 956 0006 FFF7FEFF 		bl	arraybau
 957              	.LVL57:
 958              	.LBB313:
 959              	.LBB312:
 960              		.loc 3 83 0
 961 000a 6583     		strh	r5, [r4, #26]	@ movhi
 962              	.LBE312:
 963              	.LBE313:
 964              		.loc 3 127 0
 965 000c 0921     		movs	r1, #9
 966 000e 0348     		ldr	r0, .L95+4
 967 0010 FFF7FEFF 		bl	SPI_Transmit
 968              	.LVL58:
 969              	.LBB314:
ARM GAS  /tmp/ccjtIDd2.s 			page 18


 970              	.LBB315:
 971              		.loc 3 88 0
 972 0014 2583     		strh	r5, [r4, #24]	@ movhi
 973              	.LBE315:
 974              	.LBE314:
 975              		.loc 3 129 0
 976 0016 38BD     		pop	{r3, r4, r5, pc}
 977              	.L96:
 978              		.align	2
 979              	.L95:
 980 0018 00000240 		.word	1073872896
 981 001c 00000000 		.word	.LANCHOR9
 982              		.cfi_endproc
 983              	.LFE265:
 984              		.size	senddata, .-senddata
 985              		.section	.text.mc_interface_init,"ax",%progbits
 986              		.align	1
 987              		.p2align 4,,15
 988              		.global	mc_interface_init
 989              		.syntax unified
 990              		.thumb
 991              		.thumb_func
 992              		.fpu fpv4-sp-d16
 993              		.type	mc_interface_init, %function
 994              	mc_interface_init:
 995              	.LFB266:
 996              		.loc 1 152 0
 997              		.cfi_startproc
 998              		@ args = 0, pretend = 0, frame = 0
 999              		@ frame_needed = 0, uses_anonymous_args = 0
 1000              	.LVL59:
 1001 0000 2DE9F041 		push	{r4, r5, r6, r7, r8, lr}
 1002              		.cfi_def_cfa_offset 24
 1003              		.cfi_offset 4, -24
 1004              		.cfi_offset 5, -20
 1005              		.cfi_offset 6, -16
 1006              		.cfi_offset 7, -12
 1007              		.cfi_offset 8, -8
 1008              		.cfi_offset 14, -4
 1009              		.loc 1 154 0
 1010 0004 0146     		mov	r1, r0
 1011              		.loc 1 152 0
 1012 0006 82B0     		sub	sp, sp, #8
 1013              		.cfi_def_cfa_offset 32
 1014              		.loc 1 152 0
 1015 0008 0546     		mov	r5, r0
 1016              		.loc 1 154 0
 1017 000a 4FF4E472 		mov	r2, #456
 1018              		.loc 1 159 0
 1019 000e 744F     		ldr	r7, .L117
 1020              		.loc 1 154 0
 1021 0010 7448     		ldr	r0, .L117+4
 1022              	.LVL60:
 1023              		.loc 1 158 0
 1024 0012 DFF87882 		ldr	r8, .L117+172
 1025              		.loc 1 156 0
 1026 0016 744E     		ldr	r6, .L117+8
ARM GAS  /tmp/ccjtIDd2.s 			page 19


 1027              		.loc 1 154 0
 1028 0018 FFF7FEFF 		bl	memcpy
 1029              	.LVL61:
 1030              		.loc 1 155 0
 1031 001c 0024     		movs	r4, #0
 1032              		.loc 1 160 0
 1033 001e 734B     		ldr	r3, .L117+12
 1034              		.loc 1 158 0
 1035 0020 C8F80040 		str	r4, [r8]
 1036              		.loc 1 157 0
 1037 0024 7249     		ldr	r1, .L117+16
 1038              		.loc 1 159 0
 1039 0026 3C70     		strb	r4, [r7]
 1040              		.loc 1 161 0
 1041 0028 7248     		ldr	r0, .L117+20
 1042              		.loc 1 162 0
 1043 002a DFF864C2 		ldr	ip, .L117+176
 1044              		.loc 1 163 0
 1045 002e 724F     		ldr	r7, .L117+24
 1046              		.loc 1 160 0
 1047 0030 1C70     		strb	r4, [r3]
 1048              		.loc 1 161 0
 1049 0032 0022     		movs	r2, #0
 1050              		.loc 1 164 0
 1051 0034 714B     		ldr	r3, .L117+28
 1052              		.loc 1 161 0
 1053 0036 0260     		str	r2, [r0]	@ float
 1054              		.loc 1 157 0
 1055 0038 0C60     		str	r4, [r1]
 1056              		.loc 1 162 0
 1057 003a CCF80020 		str	r2, [ip]	@ float
 1058              		.loc 1 165 0
 1059 003e 7049     		ldr	r1, .L117+32
 1060              		.loc 1 163 0
 1061 0040 3A60     		str	r2, [r7]	@ float
 1062              		.loc 1 166 0
 1063 0042 7048     		ldr	r0, .L117+36
 1064              		.loc 1 167 0
 1065 0044 DFF84CC2 		ldr	ip, .L117+180
 1066              		.loc 1 168 0
 1067 0048 6F4F     		ldr	r7, .L117+40
 1068              		.loc 1 164 0
 1069 004a 1A60     		str	r2, [r3]	@ float
 1070              		.loc 1 169 0
 1071 004c 6F4B     		ldr	r3, .L117+44
 1072              		.loc 1 165 0
 1073 004e 0A60     		str	r2, [r1]	@ float
 1074              		.loc 1 166 0
 1075 0050 0260     		str	r2, [r0]	@ float
 1076              		.loc 1 170 0
 1077 0052 6F49     		ldr	r1, .L117+48
 1078              		.loc 1 167 0
 1079 0054 CCF80020 		str	r2, [ip]	@ float
 1080              		.loc 1 171 0
 1081 0058 6E48     		ldr	r0, .L117+52
 1082              		.loc 1 168 0
 1083 005a 3A60     		str	r2, [r7]	@ float
ARM GAS  /tmp/ccjtIDd2.s 			page 20


 1084              		.loc 1 172 0
 1085 005c DFF838C2 		ldr	ip, .L117+184
 1086              		.loc 1 173 0
 1087 0060 6D4F     		ldr	r7, .L117+56
 1088              		.loc 1 169 0
 1089 0062 1A60     		str	r2, [r3]	@ float
 1090              		.loc 1 174 0
 1091 0064 6D4B     		ldr	r3, .L117+60
 1092              		.loc 1 170 0
 1093 0066 0A60     		str	r2, [r1]	@ float
 1094              		.loc 1 171 0
 1095 0068 0260     		str	r2, [r0]	@ float
 1096              		.loc 1 175 0
 1097 006a 6D49     		ldr	r1, .L117+64
 1098              		.loc 1 172 0
 1099 006c CCF80020 		str	r2, [ip]	@ float
 1100              		.loc 1 176 0
 1101 0070 6C48     		ldr	r0, .L117+68
 1102              		.loc 1 173 0
 1103 0072 3A60     		str	r2, [r7]	@ float
 1104              		.loc 1 177 0
 1105 0074 DFF824C2 		ldr	ip, .L117+188
 1106              		.loc 1 178 0
 1107 0078 6B4F     		ldr	r7, .L117+72
 1108              		.loc 1 174 0
 1109 007a 1A60     		str	r2, [r3]	@ float
 1110              		.loc 1 179 0
 1111 007c 6B4B     		ldr	r3, .L117+76
 1112              		.loc 1 175 0
 1113 007e 0A60     		str	r2, [r1]	@ float
 1114              		.loc 1 176 0
 1115 0080 0260     		str	r2, [r0]	@ float
 1116              		.loc 1 180 0
 1117 0082 6B49     		ldr	r1, .L117+80
 1118              		.loc 1 177 0
 1119 0084 CCF80020 		str	r2, [ip]	@ float
 1120              		.loc 1 181 0
 1121 0088 6A48     		ldr	r0, .L117+84
 1122              		.loc 1 178 0
 1123 008a 3A60     		str	r2, [r7]	@ float
 1124              		.loc 1 182 0
 1125 008c DFF810C2 		ldr	ip, .L117+192
 1126              		.loc 1 183 0
 1127 0090 694F     		ldr	r7, .L117+88
 1128              		.loc 1 179 0
 1129 0092 1A60     		str	r2, [r3]	@ float
 1130              		.loc 1 185 0
 1131 0094 694B     		ldr	r3, .L117+92
 1132              		.loc 1 180 0
 1133 0096 0A60     		str	r2, [r1]	@ float
 1134              		.loc 1 181 0
 1135 0098 0260     		str	r2, [r0]	@ float
 1136              		.loc 1 186 0
 1137 009a 6949     		ldr	r1, .L117+96
 1138              		.loc 1 182 0
 1139 009c CCF80020 		str	r2, [ip]	@ float
 1140              		.loc 1 187 0
ARM GAS  /tmp/ccjtIDd2.s 			page 21


 1141 00a0 6848     		ldr	r0, .L117+100
 1142              		.loc 1 183 0
 1143 00a2 3A60     		str	r2, [r7]	@ float
 1144              		.loc 1 185 0
 1145 00a4 4FF47A77 		mov	r7, #1000
 1146 00a8 1F60     		str	r7, [r3]
 1147              		.loc 1 155 0
 1148 00aa DFF8F8E1 		ldr	lr, .L117+196
 1149              		.loc 1 188 0
 1150 00ae DFF8F8C1 		ldr	ip, .L117+200
 1151              		.loc 1 189 0
 1152 00b2 654B     		ldr	r3, .L117+104
 1153              		.loc 1 155 0
 1154 00b4 8EF80040 		strb	r4, [lr]
 1155              		.loc 1 186 0
 1156 00b8 0127     		movs	r7, #1
 1157 00ba 0F60     		str	r7, [r1]
 1158              		.loc 1 190 0
 1159 00bc 6349     		ldr	r1, .L117+108
 1160              		.loc 1 187 0
 1161 00be 0460     		str	r4, [r0]
 1162              		.loc 1 192 0
 1163 00c0 6348     		ldr	r0, .L117+112
 1164              		.loc 1 156 0
 1165 00c2 3470     		strb	r4, [r6]
 1166              		.loc 1 188 0
 1167 00c4 CCF80040 		str	r4, [ip]
 1168              		.loc 1 193 0
 1169 00c8 DFF8E0C1 		ldr	ip, .L117+204
 1170              		.loc 1 210 0
 1171 00cc 0094     		str	r4, [sp]
 1172              		.loc 1 189 0
 1173 00ce 1C70     		strb	r4, [r3]
 1174              		.loc 1 190 0
 1175 00d0 0C70     		strb	r4, [r1]
 1176              		.loc 1 194 0
 1177 00d2 604B     		ldr	r3, .L117+116
 1178              		.loc 1 192 0
 1179 00d4 0260     		str	r2, [r0]	@ float
 1180              		.loc 1 196 0
 1181 00d6 6048     		ldr	r0, .L117+120
 1182              		.loc 1 193 0
 1183 00d8 ACF80040 		strh	r4, [ip]	@ movhi
 1184              		.loc 1 194 0
 1185 00dc 5F49     		ldr	r1, .L117+124
 1186              		.loc 1 197 0
 1187 00de DFF8D0C1 		ldr	ip, .L117+208
 1188              		.loc 1 194 0
 1189 00e2 1960     		str	r1, [r3]	@ float
 1190              		.loc 1 196 0
 1191 00e4 0480     		strh	r4, [r0]	@ movhi
 1192              		.loc 1 199 0
 1193 00e6 5E4B     		ldr	r3, .L117+128
 1194              		.loc 1 200 0
 1195 00e8 5E48     		ldr	r0, .L117+132
 1196              		.loc 1 197 0
 1197 00ea ACF80040 		strh	r4, [ip]	@ movhi
ARM GAS  /tmp/ccjtIDd2.s 			page 22


 1198              		.loc 1 199 0
 1199 00ee 5E49     		ldr	r1, .L117+136
 1200              		.loc 1 201 0
 1201 00f0 DFF8C0C1 		ldr	ip, .L117+212
 1202              		.loc 1 199 0
 1203 00f4 1960     		str	r1, [r3]	@ float
 1204              		.loc 1 200 0
 1205 00f6 0260     		str	r2, [r0]	@ float
 1206              		.loc 1 204 0
 1207 00f8 5C4B     		ldr	r3, .L117+140
 1208              		.loc 1 205 0
 1209 00fa 5D49     		ldr	r1, .L117+144
 1210              		.loc 1 207 0
 1211 00fc 5D48     		ldr	r0, .L117+148
 1212              		.loc 1 201 0
 1213 00fe CCF80020 		str	r2, [ip]	@ float
 1214              		.loc 1 207 0
 1215 0102 4FF0630C 		mov	ip, #99
 1216              		.loc 1 204 0
 1217 0106 1A60     		str	r2, [r3]	@ float
 1218              		.loc 1 205 0
 1219 0108 0A60     		str	r2, [r1]	@ float
 1220              		.loc 1 210 0
 1221 010a 5B4B     		ldr	r3, .L117+152
 1222              		.loc 1 207 0
 1223 010c A0F800C0 		strh	ip, [r0]	@ movhi
 1224              		.loc 1 210 0
 1225 0110 4022     		movs	r2, #64
 1226 0112 4FF4B361 		mov	r1, #1432
 1227 0116 5948     		ldr	r0, .L117+156
 1228 0118 FFF7FEFF 		bl	chThdCreateStatic
 1229              	.LVL62:
 1230              		.loc 1 211 0
 1231 011c 584B     		ldr	r3, .L117+160
 1232 011e 0094     		str	r4, [sp]
 1233 0120 3F22     		movs	r2, #63
 1234 0122 4FF4B361 		mov	r1, #1432
 1235 0126 5748     		ldr	r0, .L117+164
 1236 0128 FFF7FEFF 		bl	chThdCreateStatic
 1237              	.LVL63:
 1238              		.loc 1 223 0
 1239 012c 95F89A01 		ldrb	r0, [r5, #410]	@ zero_extendqisi2
 1240 0130 FFF7FEFF 		bl	drv8350_set_oc_mode
 1241              	.LVL64:
 1242              		.loc 1 224 0
 1243 0134 D5F89C01 		ldr	r0, [r5, #412]
 1244 0138 FFF7FEFF 		bl	drv8350_set_oc_adj
 1245              	.LVL65:
 1246 013c 00B1     		cbz	r0, .L98
 1247              		.loc 1 225 0
 1248 013e 3770     		strb	r7, [r6]
 1249              	.L98:
 1250              		.loc 1 231 0
 1251 0140 284C     		ldr	r4, .L117+4
 1252 0142 94F89831 		ldrb	r3, [r4, #408]	@ zero_extendqisi2
 1253 0146 013B     		subs	r3, r3, #1
 1254 0148 042B     		cmp	r3, #4
ARM GAS  /tmp/ccjtIDd2.s 			page 23


 1255 014a 0ED8     		bhi	.L99
 1256 014c DFE803F0 		tbb	[pc, r3]
 1257              	.L101:
 1258 0150 29       		.byte	(.L100-.L101)/2
 1259 0151 3E       		.byte	(.L102-.L101)/2
 1260 0152 2E       		.byte	(.L103-.L101)/2
 1261 0153 31       		.byte	(.L104-.L101)/2
 1262 0154 03       		.byte	(.L105-.L101)/2
 1263 0155 00       		.p2align 1
 1264              	.L105:
 1265              		.loc 1 251 0
 1266 0156 4C4D     		ldr	r5, .L117+168
 1267              	.LVL66:
 1268 0158 2846     		mov	r0, r5
 1269 015a FFF7FEFF 		bl	conf_general_read_app_configuration
 1270              	.LVL67:
 1271              		.loc 1 254 0
 1272 015e AB7E     		ldrb	r3, [r5, #26]	@ zero_extendqisi2
 1273              		.loc 1 252 0
 1274 0160 023B     		subs	r3, r3, #2
 1275 0162 032B     		cmp	r3, #3
 1276 0164 35D9     		bls	.L116
 1277              	.L106:
 1278              		.loc 1 259 0
 1279 0166 FFF7FEFF 		bl	encoder_init_ts5700n8501
 1280              	.LVL68:
 1281              	.L99:
 1282              		.loc 1 268 0
 1283 016a A378     		ldrb	r3, [r4, #2]	@ zero_extendqisi2
 1284 016c 032B     		cmp	r3, #3
 1285 016e 15D8     		bhi	.L97
 1286 0170 DFE803F0 		tbb	[pc, r3]
 1287              	.L109:
 1288 0174 0E       		.byte	(.L108-.L109)/2
 1289 0175 0E       		.byte	(.L108-.L109)/2
 1290 0176 08       		.byte	(.L110-.L109)/2
 1291 0177 02       		.byte	(.L111-.L109)/2
 1292              		.p2align 1
 1293              	.L111:
 1294              		.loc 1 279 0
 1295 0178 1A48     		ldr	r0, .L117+4
 1296              		.loc 1 285 0
 1297 017a 02B0     		add	sp, sp, #8
 1298              		.cfi_remember_state
 1299              		.cfi_def_cfa_offset 24
 1300              		@ sp needed
 1301 017c BDE8F041 		pop	{r4, r5, r6, r7, r8, lr}
 1302              		.cfi_restore 14
 1303              		.cfi_restore 8
 1304              		.cfi_restore 7
 1305              		.cfi_restore 6
 1306              		.cfi_restore 5
 1307              		.cfi_restore 4
 1308              		.cfi_def_cfa_offset 0
 1309              		.loc 1 279 0
 1310 0180 FFF7FEBF 		b	gpdrive_init
 1311              	.LVL69:
ARM GAS  /tmp/ccjtIDd2.s 			page 24


 1312              	.L110:
 1313              		.cfi_restore_state
 1314              		.loc 1 275 0
 1315 0184 1748     		ldr	r0, .L117+4
 1316              		.loc 1 285 0
 1317 0186 02B0     		add	sp, sp, #8
 1318              		.cfi_remember_state
 1319              		.cfi_def_cfa_offset 24
 1320              		@ sp needed
 1321 0188 BDE8F041 		pop	{r4, r5, r6, r7, r8, lr}
 1322              		.cfi_restore 14
 1323              		.cfi_restore 8
 1324              		.cfi_restore 7
 1325              		.cfi_restore 6
 1326              		.cfi_restore 5
 1327              		.cfi_restore 4
 1328              		.cfi_def_cfa_offset 0
 1329              		.loc 1 275 0
 1330 018c FFF7FEBF 		b	mcpwm_foc_init
 1331              	.LVL70:
 1332              	.L108:
 1333              		.cfi_restore_state
 1334              		.loc 1 271 0
 1335 0190 1448     		ldr	r0, .L117+4
 1336              		.loc 1 285 0
 1337 0192 02B0     		add	sp, sp, #8
 1338              		.cfi_remember_state
 1339              		.cfi_def_cfa_offset 24
 1340              		@ sp needed
 1341 0194 BDE8F041 		pop	{r4, r5, r6, r7, r8, lr}
 1342              		.cfi_restore 14
 1343              		.cfi_restore 8
 1344              		.cfi_restore 7
 1345              		.cfi_restore 6
 1346              		.cfi_restore 5
 1347              		.cfi_restore 4
 1348              		.cfi_def_cfa_offset 0
 1349              		.loc 1 271 0
 1350 0198 FFF7FEBF 		b	mcpwm_init
 1351              	.LVL71:
 1352              	.L97:
 1353              		.loc 1 285 0
 1354 019c 02B0     		add	sp, sp, #8
 1355              		@ sp needed
 1356 019e BDE8F081 		pop	{r4, r5, r6, r7, r8, pc}
 1357              	.LVL72:
 1358              	.L100:
 1359              		.cfi_restore_state
 1360              		.loc 1 233 0
 1361 01a2 D4F89401 		ldr	r0, [r4, #404]
 1362 01a6 FFF7FEFF 		bl	encoder_init_abi
 1363              	.LVL73:
 1364              		.loc 1 234 0
 1365 01aa DEE7     		b	.L99
 1366              	.L103:
 1367              		.loc 1 241 0
 1368 01ac FFF7FEFF 		bl	encoder_init_ad2s1205_spi
ARM GAS  /tmp/ccjtIDd2.s 			page 25


 1369              	.LVL74:
 1370              		.loc 1 242 0
 1371 01b0 DBE7     		b	.L99
 1372              	.L104:
 1373              		.loc 1 245 0
 1374 01b2 94ED330A 		vldr.32	s0, [r4, #204]
 1375 01b6 D4ED320A 		vldr.32	s1, [r4, #200]
 1376 01ba 94ED351A 		vldr.32	s2, [r4, #212]
 1377 01be D4ED341A 		vldr.32	s3, [r4, #208]
 1378 01c2 94ED362A 		vldr.32	s4, [r4, #216]
 1379 01c6 FFF7FEFF 		bl	encoder_init_sincos
 1380              	.LVL75:
 1381              		.loc 1 248 0
 1382 01ca CEE7     		b	.L99
 1383              	.L102:
 1384              		.loc 1 237 0
 1385 01cc FFF7FEFF 		bl	encoder_init_as5047p_spi
 1386              	.LVL76:
 1387              		.loc 1 238 0
 1388 01d0 CBE7     		b	.L99
 1389              	.LVL77:
 1390              	.L116:
 1391              		.loc 1 256 0
 1392 01d2 0023     		movs	r3, #0
 1393              		.loc 1 257 0
 1394 01d4 2846     		mov	r0, r5
 1395              		.loc 1 256 0
 1396 01d6 AB76     		strb	r3, [r5, #26]
 1397              		.loc 1 257 0
 1398 01d8 FFF7FEFF 		bl	conf_general_store_app_configuration
 1399              	.LVL78:
 1400 01dc C3E7     		b	.L106
 1401              	.L118:
 1402 01de 00BF     		.align	2
 1403              	.L117:
 1404 01e0 00000000 		.word	.LANCHOR14
 1405 01e4 00000000 		.word	.LANCHOR8
 1406 01e8 00000000 		.word	.LANCHOR11
 1407 01ec 00000000 		.word	.LANCHOR15
 1408 01f0 00000000 		.word	.LANCHOR12
 1409 01f4 00000000 		.word	.LANCHOR16
 1410 01f8 00000000 		.word	.LANCHOR18
 1411 01fc 00000000 		.word	.LANCHOR19
 1412 0200 00000000 		.word	.LANCHOR20
 1413 0204 00000000 		.word	.LANCHOR21
 1414 0208 00000000 		.word	.LANCHOR23
 1415 020c 00000000 		.word	.LANCHOR24
 1416 0210 00000000 		.word	.LANCHOR25
 1417 0214 00000000 		.word	.LANCHOR26
 1418 0218 00000000 		.word	.LANCHOR28
 1419 021c 00000000 		.word	.LANCHOR29
 1420 0220 00000000 		.word	.LANCHOR30
 1421 0224 00000000 		.word	.LANCHOR31
 1422 0228 00000000 		.word	.LANCHOR33
 1423 022c 00000000 		.word	.LANCHOR34
 1424 0230 00000000 		.word	.LANCHOR35
 1425 0234 00000000 		.word	.LANCHOR36
ARM GAS  /tmp/ccjtIDd2.s 			page 26


 1426 0238 00000000 		.word	.LANCHOR38
 1427 023c 00000000 		.word	.LANCHOR2
 1428 0240 00000000 		.word	.LANCHOR39
 1429 0244 00000000 		.word	.LANCHOR40
 1430 0248 00000000 		.word	.LANCHOR41
 1431 024c 00000000 		.word	.LANCHOR1
 1432 0250 00000000 		.word	.LANCHOR42
 1433 0254 00000000 		.word	.LANCHOR44
 1434 0258 00000000 		.word	.LANCHOR45
 1435 025c 0000B642 		.word	1119223808
 1436 0260 00000000 		.word	.LANCHOR47
 1437 0264 00000000 		.word	.LANCHOR48
 1438 0268 9A3F1C46 		.word	1176256410
 1439 026c 00000000 		.word	.LANCHOR50
 1440 0270 00000000 		.word	.LANCHOR51
 1441 0274 00000000 		.word	.LANCHOR52
 1442 0278 00000000 		.word	timer_thread
 1443 027c 00000000 		.word	.LANCHOR53
 1444 0280 00000000 		.word	sample_send_thread
 1445 0284 00000000 		.word	.LANCHOR54
 1446 0288 00000000 		.word	.LANCHOR55
 1447 028c 00000000 		.word	.LANCHOR13
 1448 0290 00000000 		.word	.LANCHOR17
 1449 0294 00000000 		.word	.LANCHOR22
 1450 0298 00000000 		.word	.LANCHOR27
 1451 029c 00000000 		.word	.LANCHOR32
 1452 02a0 00000000 		.word	.LANCHOR37
 1453 02a4 00000000 		.word	.LANCHOR10
 1454 02a8 00000000 		.word	.LANCHOR3
 1455 02ac 00000000 		.word	.LANCHOR43
 1456 02b0 00000000 		.word	.LANCHOR46
 1457 02b4 00000000 		.word	.LANCHOR49
 1458              		.cfi_endproc
 1459              	.LFE266:
 1460              		.size	mc_interface_init, .-mc_interface_init
 1461              		.section	.text.mc_interface_get_configuration,"ax",%progbits
 1462              		.align	1
 1463              		.p2align 4,,15
 1464              		.global	mc_interface_get_configuration
 1465              		.syntax unified
 1466              		.thumb
 1467              		.thumb_func
 1468              		.fpu fpv4-sp-d16
 1469              		.type	mc_interface_get_configuration, %function
 1470              	mc_interface_get_configuration:
 1471              	.LFB267:
 1472              		.loc 1 287 0
 1473              		.cfi_startproc
 1474              		@ args = 0, pretend = 0, frame = 0
 1475              		@ frame_needed = 0, uses_anonymous_args = 0
 1476              		@ link register save eliminated.
 1477              		.loc 1 289 0
 1478 0000 0048     		ldr	r0, .L120
 1479 0002 7047     		bx	lr
 1480              	.L121:
 1481              		.align	2
 1482              	.L120:
ARM GAS  /tmp/ccjtIDd2.s 			page 27


 1483 0004 00000000 		.word	.LANCHOR8
 1484              		.cfi_endproc
 1485              	.LFE267:
 1486              		.size	mc_interface_get_configuration, .-mc_interface_get_configuration
 1487              		.section	.text.mc_interface_dccal_done,"ax",%progbits
 1488              		.align	1
 1489              		.p2align 4,,15
 1490              		.global	mc_interface_dccal_done
 1491              		.syntax unified
 1492              		.thumb
 1493              		.thumb_func
 1494              		.fpu fpv4-sp-d16
 1495              		.type	mc_interface_dccal_done, %function
 1496              	mc_interface_dccal_done:
 1497              	.LFB269:
 1498              		.loc 1 404 0
 1499              		.cfi_startproc
 1500              		@ args = 0, pretend = 0, frame = 0
 1501              		@ frame_needed = 0, uses_anonymous_args = 0
 1502              		@ link register save eliminated.
 1503              	.LVL79:
 1504              		.loc 1 406 0
 1505 0000 074B     		ldr	r3, .L128
 1506 0002 9B78     		ldrb	r3, [r3, #2]	@ zero_extendqisi2
 1507 0004 032B     		cmp	r3, #3
 1508 0006 09D8     		bhi	.L123
 1509 0008 DFE803F0 		tbb	[pc, r3]
 1510              	.L125:
 1511 000c 06       		.byte	(.L124-.L125)/2
 1512 000d 06       		.byte	(.L124-.L125)/2
 1513 000e 04       		.byte	(.L126-.L125)/2
 1514 000f 02       		.byte	(.L127-.L125)/2
 1515              		.p2align 1
 1516              	.L127:
 1517              		.loc 1 417 0
 1518 0010 FFF7FEBF 		b	gpdrive_is_dccal_done
 1519              	.LVL80:
 1520              	.L126:
 1521              		.loc 1 413 0
 1522 0014 FFF7FEBF 		b	mcpwm_foc_is_dccal_done
 1523              	.LVL81:
 1524              	.L124:
 1525              		.loc 1 409 0
 1526 0018 FFF7FEBF 		b	mcpwm_is_dccal_done
 1527              	.LVL82:
 1528              	.L123:
 1529              		.loc 1 425 0
 1530 001c 0020     		movs	r0, #0
 1531 001e 7047     		bx	lr
 1532              	.L129:
 1533              		.align	2
 1534              	.L128:
 1535 0020 00000000 		.word	.LANCHOR8
 1536              		.cfi_endproc
 1537              	.LFE269:
 1538              		.size	mc_interface_dccal_done, .-mc_interface_dccal_done
 1539              		.section	.text.mc_interface_set_pwm_callback,"ax",%progbits
ARM GAS  /tmp/ccjtIDd2.s 			page 28


 1540              		.align	1
 1541              		.p2align 4,,15
 1542              		.global	mc_interface_set_pwm_callback
 1543              		.syntax unified
 1544              		.thumb
 1545              		.thumb_func
 1546              		.fpu fpv4-sp-d16
 1547              		.type	mc_interface_set_pwm_callback, %function
 1548              	mc_interface_set_pwm_callback:
 1549              	.LFB270:
 1550              		.loc 1 435 0
 1551              		.cfi_startproc
 1552              		@ args = 0, pretend = 0, frame = 0
 1553              		@ frame_needed = 0, uses_anonymous_args = 0
 1554              		@ link register save eliminated.
 1555              	.LVL83:
 1556              		.loc 1 436 0
 1557 0000 014B     		ldr	r3, .L131
 1558 0002 1860     		str	r0, [r3]
 1559              		.loc 1 437 0
 1560 0004 7047     		bx	lr
 1561              	.L132:
 1562 0006 00BF     		.align	2
 1563              	.L131:
 1564 0008 00000000 		.word	.LANCHOR56
 1565              		.cfi_endproc
 1566              	.LFE270:
 1567              		.size	mc_interface_set_pwm_callback, .-mc_interface_set_pwm_callback
 1568              		.section	.text.mc_interface_lock,"ax",%progbits
 1569              		.align	1
 1570              		.p2align 4,,15
 1571              		.global	mc_interface_lock
 1572              		.syntax unified
 1573              		.thumb
 1574              		.thumb_func
 1575              		.fpu fpv4-sp-d16
 1576              		.type	mc_interface_lock, %function
 1577              	mc_interface_lock:
 1578              	.LFB271:
 1579              		.loc 1 442 0
 1580              		.cfi_startproc
 1581              		@ args = 0, pretend = 0, frame = 0
 1582              		@ frame_needed = 0, uses_anonymous_args = 0
 1583              		@ link register save eliminated.
 1584              		.loc 1 443 0
 1585 0000 014B     		ldr	r3, .L134
 1586 0002 0122     		movs	r2, #1
 1587 0004 1A70     		strb	r2, [r3]
 1588              		.loc 1 444 0
 1589 0006 7047     		bx	lr
 1590              	.L135:
 1591              		.align	2
 1592              	.L134:
 1593 0008 00000000 		.word	.LANCHOR14
 1594              		.cfi_endproc
 1595              	.LFE271:
 1596              		.size	mc_interface_lock, .-mc_interface_lock
ARM GAS  /tmp/ccjtIDd2.s 			page 29


 1597              		.section	.text.mc_interface_unlock,"ax",%progbits
 1598              		.align	1
 1599              		.p2align 4,,15
 1600              		.global	mc_interface_unlock
 1601              		.syntax unified
 1602              		.thumb
 1603              		.thumb_func
 1604              		.fpu fpv4-sp-d16
 1605              		.type	mc_interface_unlock, %function
 1606              	mc_interface_unlock:
 1607              	.LFB272:
 1608              		.loc 1 449 0
 1609              		.cfi_startproc
 1610              		@ args = 0, pretend = 0, frame = 0
 1611              		@ frame_needed = 0, uses_anonymous_args = 0
 1612              		@ link register save eliminated.
 1613              		.loc 1 450 0
 1614 0000 014B     		ldr	r3, .L137
 1615 0002 0022     		movs	r2, #0
 1616 0004 1A70     		strb	r2, [r3]
 1617              		.loc 1 451 0
 1618 0006 7047     		bx	lr
 1619              	.L138:
 1620              		.align	2
 1621              	.L137:
 1622 0008 00000000 		.word	.LANCHOR14
 1623              		.cfi_endproc
 1624              	.LFE272:
 1625              		.size	mc_interface_unlock, .-mc_interface_unlock
 1626              		.section	.text.mc_interface_lock_override_once,"ax",%progbits
 1627              		.align	1
 1628              		.p2align 4,,15
 1629              		.global	mc_interface_lock_override_once
 1630              		.syntax unified
 1631              		.thumb
 1632              		.thumb_func
 1633              		.fpu fpv4-sp-d16
 1634              		.type	mc_interface_lock_override_once, %function
 1635              	mc_interface_lock_override_once:
 1636              	.LFB273:
 1637              		.loc 1 456 0
 1638              		.cfi_startproc
 1639              		@ args = 0, pretend = 0, frame = 0
 1640              		@ frame_needed = 0, uses_anonymous_args = 0
 1641              		@ link register save eliminated.
 1642              		.loc 1 457 0
 1643 0000 014B     		ldr	r3, .L140
 1644 0002 0122     		movs	r2, #1
 1645 0004 1A70     		strb	r2, [r3]
 1646              		.loc 1 458 0
 1647 0006 7047     		bx	lr
 1648              	.L141:
 1649              		.align	2
 1650              	.L140:
 1651 0008 00000000 		.word	.LANCHOR15
 1652              		.cfi_endproc
 1653              	.LFE273:
ARM GAS  /tmp/ccjtIDd2.s 			page 30


 1654              		.size	mc_interface_lock_override_once, .-mc_interface_lock_override_once
 1655              		.section	.text.mc_interface_get_fault,"ax",%progbits
 1656              		.align	1
 1657              		.p2align 4,,15
 1658              		.global	mc_interface_get_fault
 1659              		.syntax unified
 1660              		.thumb
 1661              		.thumb_func
 1662              		.fpu fpv4-sp-d16
 1663              		.type	mc_interface_get_fault, %function
 1664              	mc_interface_get_fault:
 1665              	.LFB274:
 1666              		.loc 1 460 0
 1667              		.cfi_startproc
 1668              		@ args = 0, pretend = 0, frame = 0
 1669              		@ frame_needed = 0, uses_anonymous_args = 0
 1670              		@ link register save eliminated.
 1671              		.loc 1 461 0
 1672 0000 014B     		ldr	r3, .L143
 1673              		.loc 1 462 0
 1674 0002 1878     		ldrb	r0, [r3]	@ zero_extendqisi2
 1675 0004 7047     		bx	lr
 1676              	.L144:
 1677 0006 00BF     		.align	2
 1678              	.L143:
 1679 0008 00000000 		.word	.LANCHOR10
 1680              		.cfi_endproc
 1681              	.LFE274:
 1682              		.size	mc_interface_get_fault, .-mc_interface_get_fault
 1683              		.section	.text.mc_interface_fault_to_string,"ax",%progbits
 1684              		.align	1
 1685              		.p2align 4,,15
 1686              		.global	mc_interface_fault_to_string
 1687              		.syntax unified
 1688              		.thumb
 1689              		.thumb_func
 1690              		.fpu fpv4-sp-d16
 1691              		.type	mc_interface_fault_to_string, %function
 1692              	mc_interface_fault_to_string:
 1693              	.LFB275:
 1694              		.loc 1 464 0
 1695              		.cfi_startproc
 1696              		@ args = 0, pretend = 0, frame = 0
 1697              		@ frame_needed = 0, uses_anonymous_args = 0
 1698              		@ link register save eliminated.
 1699              	.LVL84:
 1700 0000 1728     		cmp	r0, #23
 1701 0002 9ABF     		itte	ls
 1702 0004 024B     		ldrls	r3, .L148
 1703 0006 53F82000 		ldrls	r0, [r3, r0, lsl #2]
 1704              	.LVL85:
 1705              		.loc 1 464 0
 1706 000a 0248     		ldrhi	r0, .L148+4
 1707              		.loc 1 492 0
 1708 000c 7047     		bx	lr
 1709              	.L149:
 1710 000e 00BF     		.align	2
ARM GAS  /tmp/ccjtIDd2.s 			page 31


 1711              	.L148:
 1712 0010 00000000 		.word	.LANCHOR57
 1713 0014 00000000 		.word	.LC1
 1714              		.cfi_endproc
 1715              	.LFE275:
 1716              		.size	mc_interface_fault_to_string, .-mc_interface_fault_to_string
 1717              		.section	.text.mc_interface_get_state,"ax",%progbits
 1718              		.align	1
 1719              		.p2align 4,,15
 1720              		.global	mc_interface_get_state
 1721              		.syntax unified
 1722              		.thumb
 1723              		.thumb_func
 1724              		.fpu fpv4-sp-d16
 1725              		.type	mc_interface_get_state, %function
 1726              	mc_interface_get_state:
 1727              	.LFB276:
 1728              		.loc 1 494 0
 1729              		.cfi_startproc
 1730              		@ args = 0, pretend = 0, frame = 0
 1731              		@ frame_needed = 0, uses_anonymous_args = 0
 1732              		@ link register save eliminated.
 1733              	.LVL86:
 1734              		.loc 1 496 0
 1735 0000 064B     		ldr	r3, .L156
 1736 0002 9B78     		ldrb	r3, [r3, #2]	@ zero_extendqisi2
 1737 0004 DBB2     		uxtb	r3, r3
 1738 0006 012B     		cmp	r3, #1
 1739 0008 05D9     		bls	.L152
 1740 000a 022B     		cmp	r3, #2
 1741 000c 01D1     		bne	.L155
 1742              		.loc 1 503 0
 1743 000e FFF7FEBF 		b	mcpwm_foc_get_state
 1744              	.LVL87:
 1745              	.L155:
 1746              		.loc 1 511 0
 1747 0012 0020     		movs	r0, #0
 1748 0014 7047     		bx	lr
 1749              	.L152:
 1750              		.loc 1 499 0
 1751 0016 FFF7FEBF 		b	mcpwm_get_state
 1752              	.LVL88:
 1753              	.L157:
 1754 001a 00BF     		.align	2
 1755              	.L156:
 1756 001c 00000000 		.word	.LANCHOR8
 1757              		.cfi_endproc
 1758              	.LFE276:
 1759              		.size	mc_interface_get_state, .-mc_interface_get_state
 1760              		.section	.text.mc_interface_set_enviro,"ax",%progbits
 1761              		.align	1
 1762              		.p2align 4,,15
 1763              		.global	mc_interface_set_enviro
 1764              		.syntax unified
 1765              		.thumb
 1766              		.thumb_func
 1767              		.fpu fpv4-sp-d16
ARM GAS  /tmp/ccjtIDd2.s 			page 32


 1768              		.type	mc_interface_set_enviro, %function
 1769              	mc_interface_set_enviro:
 1770              	.LFB277:
 1771              		.loc 1 513 0
 1772              		.cfi_startproc
 1773              		@ args = 0, pretend = 0, frame = 0
 1774              		@ frame_needed = 0, uses_anonymous_args = 0
 1775              		@ link register save eliminated.
 1776              	.LVL89:
 1777              		.loc 1 514 0
 1778 0000 1F4B     		ldr	r3, .L179
 1779 0002 1880     		strh	r0, [r3]	@ movhi
 1780              		.loc 1 517 0
 1781 0004 1F4B     		ldr	r3, .L179+4
 1782 0006 0822     		movs	r2, #8
 1783              		.loc 1 516 0
 1784 0008 C107     		lsls	r1, r0, #31
 1785              		.loc 1 517 0
 1786 000a 4CBF     		ite	mi
 1787 000c 1A83     		strhmi	r2, [r3, #24]	@ movhi
 1788              		.loc 1 519 0
 1789 000e 5A83     		strhpl	r2, [r3, #26]	@ movhi
 1790              		.loc 1 523 0
 1791 0010 1C4B     		ldr	r3, .L179+4
 1792 0012 1022     		movs	r2, #16
 1793              		.loc 1 522 0
 1794 0014 8107     		lsls	r1, r0, #30
 1795              		.loc 1 523 0
 1796 0016 4CBF     		ite	mi
 1797 0018 1A83     		strhmi	r2, [r3, #24]	@ movhi
 1798              		.loc 1 525 0
 1799 001a 5A83     		strhpl	r2, [r3, #26]	@ movhi
 1800              		.loc 1 529 0
 1801 001c 1A4B     		ldr	r3, .L179+8
 1802 001e 4FF48042 		mov	r2, #16384
 1803              		.loc 1 528 0
 1804 0022 4107     		lsls	r1, r0, #29
 1805              		.loc 1 529 0
 1806 0024 4CBF     		ite	mi
 1807 0026 1A83     		strhmi	r2, [r3, #24]	@ movhi
 1808              		.loc 1 531 0
 1809 0028 5A83     		strhpl	r2, [r3, #26]	@ movhi
 1810              		.loc 1 535 0
 1811 002a 174B     		ldr	r3, .L179+8
 1812 002c 4FF40042 		mov	r2, #32768
 1813              		.loc 1 534 0
 1814 0030 0107     		lsls	r1, r0, #28
 1815              		.loc 1 535 0
 1816 0032 4CBF     		ite	mi
 1817 0034 1A83     		strhmi	r2, [r3, #24]	@ movhi
 1818              		.loc 1 537 0
 1819 0036 5A83     		strhpl	r2, [r3, #26]	@ movhi
 1820              		.loc 1 541 0
 1821 0038 134B     		ldr	r3, .L179+8
 1822 003a 2022     		movs	r2, #32
 1823              		.loc 1 540 0
 1824 003c C106     		lsls	r1, r0, #27
ARM GAS  /tmp/ccjtIDd2.s 			page 33


 1825              		.loc 1 541 0
 1826 003e 4CBF     		ite	mi
 1827 0040 5A83     		strhmi	r2, [r3, #26]	@ movhi
 1828              		.loc 1 543 0
 1829 0042 1A83     		strhpl	r2, [r3, #24]	@ movhi
 1830              		.loc 1 546 0
 1831 0044 114B     		ldr	r3, .L179+12
 1832 0046 93F8B021 		ldrb	r2, [r3, #432]	@ zero_extendqisi2
 1833 004a 032A     		cmp	r2, #3
 1834 004c 12D0     		beq	.L158
 1835              		.loc 1 547 0
 1836 004e 10F02002 		ands	r2, r0, #32
 1837              		.loc 1 548 0
 1838 0052 18BF     		it	ne
 1839 0054 0122     		movne	r2, #1
 1840              		.loc 1 550 0
 1841 0056 83F86021 		strb	r2, [r3, #352]
 1842              		.loc 1 554 0
 1843 005a 0A4A     		ldr	r2, .L179+4
 1844              		.loc 1 553 0
 1845 005c 10F0400F 		tst	r0, #64
 1846              		.loc 1 554 0
 1847 0060 4FF04001 		mov	r1, #64
 1848 0064 14BF     		ite	ne
 1849 0066 1183     		strhne	r1, [r2, #24]	@ movhi
 1850              		.loc 1 556 0
 1851 0068 5183     		strheq	r1, [r2, #26]	@ movhi
 1852              		.loc 1 559 0
 1853 006a C205     		lsls	r2, r0, #23
 1854 006c 03D4     		bmi	.L178
 1855              		.loc 1 562 0
 1856 006e 0222     		movs	r2, #2
 1857 0070 83F8B021 		strb	r2, [r3, #432]
 1858              	.L158:
 1859              		.loc 1 589 0
 1860 0074 7047     		bx	lr
 1861              	.L178:
 1862              		.loc 1 560 0
 1863 0076 0022     		movs	r2, #0
 1864 0078 83F8B021 		strb	r2, [r3, #432]
 1865 007c 7047     		bx	lr
 1866              	.L180:
 1867 007e 00BF     		.align	2
 1868              	.L179:
 1869 0080 00000000 		.word	.LANCHOR43
 1870 0084 00040240 		.word	1073873920
 1871 0088 00080240 		.word	1073874944
 1872 008c 00000000 		.word	.LANCHOR8
 1873              		.cfi_endproc
 1874              	.LFE277:
 1875              		.size	mc_interface_set_enviro, .-mc_interface_set_enviro
 1876              		.section	.text.mc_interface_get_enviro,"ax",%progbits
 1877              		.align	1
 1878              		.p2align 4,,15
 1879              		.global	mc_interface_get_enviro
 1880              		.syntax unified
 1881              		.thumb
ARM GAS  /tmp/ccjtIDd2.s 			page 34


 1882              		.thumb_func
 1883              		.fpu fpv4-sp-d16
 1884              		.type	mc_interface_get_enviro, %function
 1885              	mc_interface_get_enviro:
 1886              	.LFB278:
 1887              		.loc 1 590 0
 1888              		.cfi_startproc
 1889              		@ args = 0, pretend = 0, frame = 0
 1890              		@ frame_needed = 0, uses_anonymous_args = 0
 1891              		@ link register save eliminated.
 1892              		.loc 1 591 0
 1893 0000 014B     		ldr	r3, .L182
 1894 0002 1888     		ldrh	r0, [r3]
 1895              		.loc 1 592 0
 1896 0004 7047     		bx	lr
 1897              	.L183:
 1898 0006 00BF     		.align	2
 1899              	.L182:
 1900 0008 00000000 		.word	.LANCHOR43
 1901              		.cfi_endproc
 1902              	.LFE278:
 1903              		.size	mc_interface_get_enviro, .-mc_interface_get_enviro
 1904              		.section	.text.mc_interface_set_wheely_crtl,"ax",%progbits
 1905              		.align	1
 1906              		.p2align 4,,15
 1907              		.global	mc_interface_set_wheely_crtl
 1908              		.syntax unified
 1909              		.thumb
 1910              		.thumb_func
 1911              		.fpu fpv4-sp-d16
 1912              		.type	mc_interface_set_wheely_crtl, %function
 1913              	mc_interface_set_wheely_crtl:
 1914              	.LFB279:
 1915              		.loc 1 595 0
 1916              		.cfi_startproc
 1917              		@ args = 0, pretend = 0, frame = 0
 1918              		@ frame_needed = 0, uses_anonymous_args = 0
 1919              		@ link register save eliminated.
 1920              	.LVL90:
 1921              		.loc 1 596 0
 1922 0000 07EE900A 		vmov	s15, r0	@ int
 1923 0004 024B     		ldr	r3, .L185
 1924 0006 F8EE677A 		vcvt.f32.u32	s15, s15
 1925 000a C3ED007A 		vstr.32	s15, [r3]
 1926              		.loc 1 597 0
 1927 000e 7047     		bx	lr
 1928              	.L186:
 1929              		.align	2
 1930              	.L185:
 1931 0010 00000000 		.word	.LANCHOR44
 1932              		.cfi_endproc
 1933              	.LFE279:
 1934              		.size	mc_interface_set_wheely_crtl, .-mc_interface_set_wheely_crtl
 1935              		.section	.text.mc_interface_get_wheely_crtl,"ax",%progbits
 1936              		.align	1
 1937              		.p2align 4,,15
 1938              		.global	mc_interface_get_wheely_crtl
ARM GAS  /tmp/ccjtIDd2.s 			page 35


 1939              		.syntax unified
 1940              		.thumb
 1941              		.thumb_func
 1942              		.fpu fpv4-sp-d16
 1943              		.type	mc_interface_get_wheely_crtl, %function
 1944              	mc_interface_get_wheely_crtl:
 1945              	.LFB280:
 1946              		.loc 1 598 0
 1947              		.cfi_startproc
 1948              		@ args = 0, pretend = 0, frame = 0
 1949              		@ frame_needed = 0, uses_anonymous_args = 0
 1950              		@ link register save eliminated.
 1951              		.loc 1 599 0
 1952 0000 014B     		ldr	r3, .L188
 1953 0002 93ED000A 		vldr.32	s0, [r3]
 1954              		.loc 1 600 0
 1955 0006 7047     		bx	lr
 1956              	.L189:
 1957              		.align	2
 1958              	.L188:
 1959 0008 00000000 		.word	.LANCHOR44
 1960              		.cfi_endproc
 1961              	.LFE280:
 1962              		.size	mc_interface_get_wheely_crtl, .-mc_interface_get_wheely_crtl
 1963              		.section	.text.mc_interface_set_fractional_front,"ax",%progbits
 1964              		.align	1
 1965              		.p2align 4,,15
 1966              		.global	mc_interface_set_fractional_front
 1967              		.syntax unified
 1968              		.thumb
 1969              		.thumb_func
 1970              		.fpu fpv4-sp-d16
 1971              		.type	mc_interface_set_fractional_front, %function
 1972              	mc_interface_set_fractional_front:
 1973              	.LFB281:
 1974              		.loc 1 603 0
 1975              		.cfi_startproc
 1976              		@ args = 0, pretend = 0, frame = 8
 1977              		@ frame_needed = 0, uses_anonymous_args = 0
 1978              	.LVL91:
 1979 0000 00B5     		push	{lr}
 1980              		.cfi_def_cfa_offset 4
 1981              		.cfi_offset 14, -4
 1982 0002 83B0     		sub	sp, sp, #12
 1983              		.cfi_def_cfa_offset 16
 1984              		.loc 1 603 0
 1985 0004 02A8     		add	r0, sp, #8
 1986 0006 20ED010A 		vstmdb.32	r0!, {s0}
 1987              		.loc 1 604 0
 1988 000a F7EE000A 		vmov.f32	s1, #1.0e+0
 1989 000e 9FED050A 		vldr.32	s0, .L192
 1990              	.LVL92:
 1991 0012 FFF7FEFF 		bl	utils_truncate_number
 1992              	.LVL93:
 1993              		.loc 1 605 0
 1994 0016 019A     		ldr	r2, [sp, #4]	@ float
 1995 0018 034B     		ldr	r3, .L192+4
ARM GAS  /tmp/ccjtIDd2.s 			page 36


 1996 001a 1A60     		str	r2, [r3]	@ float
 1997              		.loc 1 606 0
 1998 001c 03B0     		add	sp, sp, #12
 1999              		.cfi_def_cfa_offset 4
 2000              		@ sp needed
 2001 001e 5DF804FB 		ldr	pc, [sp], #4
 2002              	.L193:
 2003 0022 00BF     		.align	2
 2004              	.L192:
 2005 0024 00000000 		.word	0
 2006 0028 00000000 		.word	.LANCHOR58
 2007              		.cfi_endproc
 2008              	.LFE281:
 2009              		.size	mc_interface_set_fractional_front, .-mc_interface_set_fractional_front
 2010              		.section	.text.mc_interface_get_fractional_front,"ax",%progbits
 2011              		.align	1
 2012              		.p2align 4,,15
 2013              		.global	mc_interface_get_fractional_front
 2014              		.syntax unified
 2015              		.thumb
 2016              		.thumb_func
 2017              		.fpu fpv4-sp-d16
 2018              		.type	mc_interface_get_fractional_front, %function
 2019              	mc_interface_get_fractional_front:
 2020              	.LFB282:
 2021              		.loc 1 607 0
 2022              		.cfi_startproc
 2023              		@ args = 0, pretend = 0, frame = 0
 2024              		@ frame_needed = 0, uses_anonymous_args = 0
 2025              		@ link register save eliminated.
 2026              		.loc 1 608 0
 2027 0000 014B     		ldr	r3, .L195
 2028 0002 93ED000A 		vldr.32	s0, [r3]
 2029              		.loc 1 609 0
 2030 0006 7047     		bx	lr
 2031              	.L196:
 2032              		.align	2
 2033              	.L195:
 2034 0008 00000000 		.word	.LANCHOR58
 2035              		.cfi_endproc
 2036              	.LFE282:
 2037              		.size	mc_interface_get_fractional_front, .-mc_interface_get_fractional_front
 2038              		.section	.text.mc_interface_set_fractional_rear,"ax",%progbits
 2039              		.align	1
 2040              		.p2align 4,,15
 2041              		.global	mc_interface_set_fractional_rear
 2042              		.syntax unified
 2043              		.thumb
 2044              		.thumb_func
 2045              		.fpu fpv4-sp-d16
 2046              		.type	mc_interface_set_fractional_rear, %function
 2047              	mc_interface_set_fractional_rear:
 2048              	.LFB283:
 2049              		.loc 1 611 0
 2050              		.cfi_startproc
 2051              		@ args = 0, pretend = 0, frame = 8
 2052              		@ frame_needed = 0, uses_anonymous_args = 0
ARM GAS  /tmp/ccjtIDd2.s 			page 37


 2053              	.LVL94:
 2054 0000 00B5     		push	{lr}
 2055              		.cfi_def_cfa_offset 4
 2056              		.cfi_offset 14, -4
 2057 0002 83B0     		sub	sp, sp, #12
 2058              		.cfi_def_cfa_offset 16
 2059              		.loc 1 611 0
 2060 0004 02A8     		add	r0, sp, #8
 2061 0006 20ED010A 		vstmdb.32	r0!, {s0}
 2062              		.loc 1 612 0
 2063 000a F7EE000A 		vmov.f32	s1, #1.0e+0
 2064 000e 9FED050A 		vldr.32	s0, .L199
 2065              	.LVL95:
 2066 0012 FFF7FEFF 		bl	utils_truncate_number
 2067              	.LVL96:
 2068              		.loc 1 613 0
 2069 0016 019A     		ldr	r2, [sp, #4]	@ float
 2070 0018 034B     		ldr	r3, .L199+4
 2071 001a 1A60     		str	r2, [r3]	@ float
 2072              		.loc 1 614 0
 2073 001c 03B0     		add	sp, sp, #12
 2074              		.cfi_def_cfa_offset 4
 2075              		@ sp needed
 2076 001e 5DF804FB 		ldr	pc, [sp], #4
 2077              	.L200:
 2078 0022 00BF     		.align	2
 2079              	.L199:
 2080 0024 00000000 		.word	0
 2081 0028 00000000 		.word	.LANCHOR59
 2082              		.cfi_endproc
 2083              	.LFE283:
 2084              		.size	mc_interface_set_fractional_rear, .-mc_interface_set_fractional_rear
 2085              		.section	.text.mc_interface_get_fractional_rear,"ax",%progbits
 2086              		.align	1
 2087              		.p2align 4,,15
 2088              		.global	mc_interface_get_fractional_rear
 2089              		.syntax unified
 2090              		.thumb
 2091              		.thumb_func
 2092              		.fpu fpv4-sp-d16
 2093              		.type	mc_interface_get_fractional_rear, %function
 2094              	mc_interface_get_fractional_rear:
 2095              	.LFB284:
 2096              		.loc 1 615 0
 2097              		.cfi_startproc
 2098              		@ args = 0, pretend = 0, frame = 0
 2099              		@ frame_needed = 0, uses_anonymous_args = 0
 2100              		@ link register save eliminated.
 2101              		.loc 1 616 0
 2102 0000 014B     		ldr	r3, .L202
 2103 0002 93ED000A 		vldr.32	s0, [r3]
 2104              		.loc 1 617 0
 2105 0006 7047     		bx	lr
 2106              	.L203:
 2107              		.align	2
 2108              	.L202:
 2109 0008 00000000 		.word	.LANCHOR59
ARM GAS  /tmp/ccjtIDd2.s 			page 38


 2110              		.cfi_endproc
 2111              	.LFE284:
 2112              		.size	mc_interface_get_fractional_rear, .-mc_interface_get_fractional_rear
 2113              		.section	.text.mc_interface_set_brk_reku,"ax",%progbits
 2114              		.align	1
 2115              		.p2align 4,,15
 2116              		.global	mc_interface_set_brk_reku
 2117              		.syntax unified
 2118              		.thumb
 2119              		.thumb_func
 2120              		.fpu fpv4-sp-d16
 2121              		.type	mc_interface_set_brk_reku, %function
 2122              	mc_interface_set_brk_reku:
 2123              	.LFB285:
 2124              		.loc 1 620 0
 2125              		.cfi_startproc
 2126              		@ args = 0, pretend = 0, frame = 0
 2127              		@ frame_needed = 0, uses_anonymous_args = 0
 2128              		@ link register save eliminated.
 2129              	.LVL97:
 2130              		.loc 1 627 0
 2131 0000 6428     		cmp	r0, #100
 2132 0002 28BF     		it	cs
 2133 0004 6420     		movcs	r0, #100
 2134              	.LVL98:
 2135 0006 07EE900A 		vmov	s15, r0	@ int
 2136 000a 034B     		ldr	r3, .L205
 2137 000c F8EE677A 		vcvt.f32.u32	s15, s15
 2138 0010 C3ED007A 		vstr.32	s15, [r3]
 2139              		.loc 1 628 0
 2140 0014 7047     		bx	lr
 2141              	.L206:
 2142 0016 00BF     		.align	2
 2143              	.L205:
 2144 0018 00000000 		.word	.LANCHOR42
 2145              		.cfi_endproc
 2146              	.LFE285:
 2147              		.size	mc_interface_set_brk_reku, .-mc_interface_set_brk_reku
 2148              		.section	.text.mc_interface_get_brk_reku,"ax",%progbits
 2149              		.align	1
 2150              		.p2align 4,,15
 2151              		.global	mc_interface_get_brk_reku
 2152              		.syntax unified
 2153              		.thumb
 2154              		.thumb_func
 2155              		.fpu fpv4-sp-d16
 2156              		.type	mc_interface_get_brk_reku, %function
 2157              	mc_interface_get_brk_reku:
 2158              	.LFB286:
 2159              		.loc 1 629 0
 2160              		.cfi_startproc
 2161              		@ args = 0, pretend = 0, frame = 0
 2162              		@ frame_needed = 0, uses_anonymous_args = 0
 2163              		@ link register save eliminated.
 2164              		.loc 1 630 0
 2165 0000 044B     		ldr	r3, .L208
 2166 0002 D3ED007A 		vldr.32	s15, [r3]
ARM GAS  /tmp/ccjtIDd2.s 			page 39


 2167 0006 FCEEE77A 		vcvt.u32.f32	s15, s15
 2168              		.loc 1 631 0
 2169 000a 17EE903A 		vmov	r3, s15	@ int
 2170 000e 98B2     		uxth	r0, r3
 2171 0010 7047     		bx	lr
 2172              	.L209:
 2173 0012 00BF     		.align	2
 2174              	.L208:
 2175 0014 00000000 		.word	.LANCHOR42
 2176              		.cfi_endproc
 2177              	.LFE286:
 2178              		.size	mc_interface_get_brk_reku, .-mc_interface_get_brk_reku
 2179              		.section	.text.mc_interface_get_brk_reku_float,"ax",%progbits
 2180              		.align	1
 2181              		.p2align 4,,15
 2182              		.global	mc_interface_get_brk_reku_float
 2183              		.syntax unified
 2184              		.thumb
 2185              		.thumb_func
 2186              		.fpu fpv4-sp-d16
 2187              		.type	mc_interface_get_brk_reku_float, %function
 2188              	mc_interface_get_brk_reku_float:
 2189              	.LFB287:
 2190              		.loc 1 632 0
 2191              		.cfi_startproc
 2192              		@ args = 0, pretend = 0, frame = 0
 2193              		@ frame_needed = 0, uses_anonymous_args = 0
 2194              		@ link register save eliminated.
 2195              		.loc 1 634 0
 2196 0000 034B     		ldr	r3, .L211
 2197 0002 DFED047A 		vldr.32	s15, .L211+4
 2198 0006 93ED000A 		vldr.32	s0, [r3]
 2199              		.loc 1 635 0
 2200 000a 80EE270A 		vdiv.f32	s0, s0, s15
 2201 000e 7047     		bx	lr
 2202              	.L212:
 2203              		.align	2
 2204              	.L211:
 2205 0010 00000000 		.word	.LANCHOR42
 2206 0014 0000C842 		.word	1120403456
 2207              		.cfi_endproc
 2208              	.LFE287:
 2209              		.size	mc_interface_get_brk_reku_float, .-mc_interface_get_brk_reku_float
 2210              		.section	.text.mc_interface_set_gas,"ax",%progbits
 2211              		.align	1
 2212              		.p2align 4,,15
 2213              		.global	mc_interface_set_gas
 2214              		.syntax unified
 2215              		.thumb
 2216              		.thumb_func
 2217              		.fpu fpv4-sp-d16
 2218              		.type	mc_interface_set_gas, %function
 2219              	mc_interface_set_gas:
 2220              	.LFB288:
 2221              		.loc 1 638 0
 2222              		.cfi_startproc
 2223              		@ args = 0, pretend = 0, frame = 0
ARM GAS  /tmp/ccjtIDd2.s 			page 40


 2224              		@ frame_needed = 0, uses_anonymous_args = 0
 2225              		@ link register save eliminated.
 2226              	.LVL99:
 2227              		.loc 1 639 0
 2228 0000 014B     		ldr	r3, .L214
 2229 0002 1880     		strh	r0, [r3]	@ movhi
 2230              		.loc 1 640 0
 2231 0004 7047     		bx	lr
 2232              	.L215:
 2233 0006 00BF     		.align	2
 2234              	.L214:
 2235 0008 00000000 		.word	.LANCHOR46
 2236              		.cfi_endproc
 2237              	.LFE288:
 2238              		.size	mc_interface_set_gas, .-mc_interface_set_gas
 2239              		.section	.text.mc_interface_get_gas,"ax",%progbits
 2240              		.align	1
 2241              		.p2align 4,,15
 2242              		.global	mc_interface_get_gas
 2243              		.syntax unified
 2244              		.thumb
 2245              		.thumb_func
 2246              		.fpu fpv4-sp-d16
 2247              		.type	mc_interface_get_gas, %function
 2248              	mc_interface_get_gas:
 2249              	.LFB289:
 2250              		.loc 1 641 0
 2251              		.cfi_startproc
 2252              		@ args = 0, pretend = 0, frame = 0
 2253              		@ frame_needed = 0, uses_anonymous_args = 0
 2254              		@ link register save eliminated.
 2255              		.loc 1 642 0
 2256 0000 014B     		ldr	r3, .L217
 2257 0002 1888     		ldrh	r0, [r3]
 2258              		.loc 1 643 0
 2259 0004 7047     		bx	lr
 2260              	.L218:
 2261 0006 00BF     		.align	2
 2262              	.L217:
 2263 0008 00000000 		.word	.LANCHOR46
 2264              		.cfi_endproc
 2265              	.LFE289:
 2266              		.size	mc_interface_get_gas, .-mc_interface_get_gas
 2267              		.section	.text.mc_interface_get_gas_float,"ax",%progbits
 2268              		.align	1
 2269              		.p2align 4,,15
 2270              		.global	mc_interface_get_gas_float
 2271              		.syntax unified
 2272              		.thumb
 2273              		.thumb_func
 2274              		.fpu fpv4-sp-d16
 2275              		.type	mc_interface_get_gas_float, %function
 2276              	mc_interface_get_gas_float:
 2277              	.LFB290:
 2278              		.loc 1 644 0
 2279              		.cfi_startproc
 2280              		@ args = 0, pretend = 0, frame = 0
ARM GAS  /tmp/ccjtIDd2.s 			page 41


 2281              		@ frame_needed = 0, uses_anonymous_args = 0
 2282              		@ link register save eliminated.
 2283              		.loc 1 645 0
 2284 0000 034B     		ldr	r3, .L220
 2285 0002 1B88     		ldrh	r3, [r3]
 2286 0004 00EE103A 		vmov	s0, r3	@ int
 2287              		.loc 1 646 0
 2288 0008 B8EE400A 		vcvt.f32.u32	s0, s0
 2289 000c 7047     		bx	lr
 2290              	.L221:
 2291 000e 00BF     		.align	2
 2292              	.L220:
 2293 0010 00000000 		.word	.LANCHOR46
 2294              		.cfi_endproc
 2295              	.LFE290:
 2296              		.size	mc_interface_get_gas_float, .-mc_interface_get_gas_float
 2297              		.section	.text.mc_interface_set_reku,"ax",%progbits
 2298              		.align	1
 2299              		.p2align 4,,15
 2300              		.global	mc_interface_set_reku
 2301              		.syntax unified
 2302              		.thumb
 2303              		.thumb_func
 2304              		.fpu fpv4-sp-d16
 2305              		.type	mc_interface_set_reku, %function
 2306              	mc_interface_set_reku:
 2307              	.LFB291:
 2308              		.loc 1 649 0
 2309              		.cfi_startproc
 2310              		@ args = 0, pretend = 0, frame = 0
 2311              		@ frame_needed = 0, uses_anonymous_args = 0
 2312              		@ link register save eliminated.
 2313              	.LVL100:
 2314              		.loc 1 650 0
 2315 0000 014B     		ldr	r3, .L223
 2316 0002 1880     		strh	r0, [r3]	@ movhi
 2317              		.loc 1 651 0
 2318 0004 7047     		bx	lr
 2319              	.L224:
 2320 0006 00BF     		.align	2
 2321              	.L223:
 2322 0008 00000000 		.word	.LANCHOR45
 2323              		.cfi_endproc
 2324              	.LFE291:
 2325              		.size	mc_interface_set_reku, .-mc_interface_set_reku
 2326              		.section	.text.mc_interface_get_reku,"ax",%progbits
 2327              		.align	1
 2328              		.p2align 4,,15
 2329              		.global	mc_interface_get_reku
 2330              		.syntax unified
 2331              		.thumb
 2332              		.thumb_func
 2333              		.fpu fpv4-sp-d16
 2334              		.type	mc_interface_get_reku, %function
 2335              	mc_interface_get_reku:
 2336              	.LFB292:
 2337              		.loc 1 652 0
ARM GAS  /tmp/ccjtIDd2.s 			page 42


 2338              		.cfi_startproc
 2339              		@ args = 0, pretend = 0, frame = 0
 2340              		@ frame_needed = 0, uses_anonymous_args = 0
 2341              		@ link register save eliminated.
 2342              		.loc 1 653 0
 2343 0000 014B     		ldr	r3, .L226
 2344 0002 1888     		ldrh	r0, [r3]
 2345              		.loc 1 654 0
 2346 0004 7047     		bx	lr
 2347              	.L227:
 2348 0006 00BF     		.align	2
 2349              	.L226:
 2350 0008 00000000 		.word	.LANCHOR45
 2351              		.cfi_endproc
 2352              	.LFE292:
 2353              		.size	mc_interface_get_reku, .-mc_interface_get_reku
 2354              		.section	.text.mc_interface_get_reku_float,"ax",%progbits
 2355              		.align	1
 2356              		.p2align 4,,15
 2357              		.global	mc_interface_get_reku_float
 2358              		.syntax unified
 2359              		.thumb
 2360              		.thumb_func
 2361              		.fpu fpv4-sp-d16
 2362              		.type	mc_interface_get_reku_float, %function
 2363              	mc_interface_get_reku_float:
 2364              	.LFB293:
 2365              		.loc 1 655 0
 2366              		.cfi_startproc
 2367              		@ args = 0, pretend = 0, frame = 0
 2368              		@ frame_needed = 0, uses_anonymous_args = 0
 2369              		@ link register save eliminated.
 2370              		.loc 1 656 0
 2371 0000 034B     		ldr	r3, .L229
 2372 0002 1B88     		ldrh	r3, [r3]
 2373 0004 00EE103A 		vmov	s0, r3	@ int
 2374              		.loc 1 657 0
 2375 0008 B8EE400A 		vcvt.f32.u32	s0, s0
 2376 000c 7047     		bx	lr
 2377              	.L230:
 2378 000e 00BF     		.align	2
 2379              	.L229:
 2380 0010 00000000 		.word	.LANCHOR45
 2381              		.cfi_endproc
 2382              	.LFE293:
 2383              		.size	mc_interface_get_reku_float, .-mc_interface_get_reku_float
 2384              		.section	.text.mc_interface_set_voltage_display,"ax",%progbits
 2385              		.align	1
 2386              		.p2align 4,,15
 2387              		.global	mc_interface_set_voltage_display
 2388              		.syntax unified
 2389              		.thumb
 2390              		.thumb_func
 2391              		.fpu fpv4-sp-d16
 2392              		.type	mc_interface_set_voltage_display, %function
 2393              	mc_interface_set_voltage_display:
 2394              	.LFB294:
ARM GAS  /tmp/ccjtIDd2.s 			page 43


 2395              		.loc 1 660 0
 2396              		.cfi_startproc
 2397              		@ args = 0, pretend = 0, frame = 0
 2398              		@ frame_needed = 0, uses_anonymous_args = 0
 2399              		@ link register save eliminated.
 2400              	.LVL101:
 2401              		.loc 1 661 0
 2402 0000 014B     		ldr	r3, .L232
 2403 0002 83ED000A 		vstr.32	s0, [r3]
 2404              		.loc 1 662 0
 2405 0006 7047     		bx	lr
 2406              	.L233:
 2407              		.align	2
 2408              	.L232:
 2409 0008 00000000 		.word	.LANCHOR49
 2410              		.cfi_endproc
 2411              	.LFE294:
 2412              		.size	mc_interface_set_voltage_display, .-mc_interface_set_voltage_display
 2413              		.section	.text.mc_interface_get_voltage_display,"ax",%progbits
 2414              		.align	1
 2415              		.p2align 4,,15
 2416              		.global	mc_interface_get_voltage_display
 2417              		.syntax unified
 2418              		.thumb
 2419              		.thumb_func
 2420              		.fpu fpv4-sp-d16
 2421              		.type	mc_interface_get_voltage_display, %function
 2422              	mc_interface_get_voltage_display:
 2423              	.LFB295:
 2424              		.loc 1 663 0
 2425              		.cfi_startproc
 2426              		@ args = 0, pretend = 0, frame = 0
 2427              		@ frame_needed = 0, uses_anonymous_args = 0
 2428              		@ link register save eliminated.
 2429              		.loc 1 664 0
 2430 0000 014B     		ldr	r3, .L235
 2431 0002 93ED000A 		vldr.32	s0, [r3]
 2432              		.loc 1 665 0
 2433 0006 7047     		bx	lr
 2434              	.L236:
 2435              		.align	2
 2436              	.L235:
 2437 0008 00000000 		.word	.LANCHOR49
 2438              		.cfi_endproc
 2439              	.LFE295:
 2440              		.size	mc_interface_get_voltage_display, .-mc_interface_get_voltage_display
 2441              		.section	.text.mc_interface_set_voltage_bms,"ax",%progbits
 2442              		.align	1
 2443              		.p2align 4,,15
 2444              		.global	mc_interface_set_voltage_bms
 2445              		.syntax unified
 2446              		.thumb
 2447              		.thumb_func
 2448              		.fpu fpv4-sp-d16
 2449              		.type	mc_interface_set_voltage_bms, %function
 2450              	mc_interface_set_voltage_bms:
 2451              	.LFB296:
ARM GAS  /tmp/ccjtIDd2.s 			page 44


 2452              		.loc 1 669 0
 2453              		.cfi_startproc
 2454              		@ args = 0, pretend = 0, frame = 0
 2455              		@ frame_needed = 0, uses_anonymous_args = 0
 2456              		@ link register save eliminated.
 2457              	.LVL102:
 2458              		.loc 1 670 0
 2459 0000 014B     		ldr	r3, .L238
 2460 0002 83ED000A 		vstr.32	s0, [r3]
 2461              		.loc 1 671 0
 2462 0006 7047     		bx	lr
 2463              	.L239:
 2464              		.align	2
 2465              	.L238:
 2466 0008 00000000 		.word	.LANCHOR48
 2467              		.cfi_endproc
 2468              	.LFE296:
 2469              		.size	mc_interface_set_voltage_bms, .-mc_interface_set_voltage_bms
 2470              		.section	.text.mc_interface_get_voltage_bms,"ax",%progbits
 2471              		.align	1
 2472              		.p2align 4,,15
 2473              		.global	mc_interface_get_voltage_bms
 2474              		.syntax unified
 2475              		.thumb
 2476              		.thumb_func
 2477              		.fpu fpv4-sp-d16
 2478              		.type	mc_interface_get_voltage_bms, %function
 2479              	mc_interface_get_voltage_bms:
 2480              	.LFB297:
 2481              		.loc 1 672 0
 2482              		.cfi_startproc
 2483              		@ args = 0, pretend = 0, frame = 0
 2484              		@ frame_needed = 0, uses_anonymous_args = 0
 2485              		@ link register save eliminated.
 2486              		.loc 1 673 0
 2487 0000 014B     		ldr	r3, .L241
 2488 0002 93ED000A 		vldr.32	s0, [r3]
 2489              		.loc 1 674 0
 2490 0006 7047     		bx	lr
 2491              	.L242:
 2492              		.align	2
 2493              	.L241:
 2494 0008 00000000 		.word	.LANCHOR48
 2495              		.cfi_endproc
 2496              	.LFE297:
 2497              		.size	mc_interface_get_voltage_bms, .-mc_interface_get_voltage_bms
 2498              		.section	.text.mc_interface_set_current_bms,"ax",%progbits
 2499              		.align	1
 2500              		.p2align 4,,15
 2501              		.global	mc_interface_set_current_bms
 2502              		.syntax unified
 2503              		.thumb
 2504              		.thumb_func
 2505              		.fpu fpv4-sp-d16
 2506              		.type	mc_interface_set_current_bms, %function
 2507              	mc_interface_set_current_bms:
 2508              	.LFB298:
ARM GAS  /tmp/ccjtIDd2.s 			page 45


 2509              		.loc 1 677 0
 2510              		.cfi_startproc
 2511              		@ args = 0, pretend = 0, frame = 0
 2512              		@ frame_needed = 0, uses_anonymous_args = 0
 2513              		@ link register save eliminated.
 2514              	.LVL103:
 2515              		.loc 1 678 0
 2516 0000 014B     		ldr	r3, .L244
 2517 0002 83ED000A 		vstr.32	s0, [r3]
 2518              		.loc 1 679 0
 2519 0006 7047     		bx	lr
 2520              	.L245:
 2521              		.align	2
 2522              	.L244:
 2523 0008 00000000 		.word	.LANCHOR47
 2524              		.cfi_endproc
 2525              	.LFE298:
 2526              		.size	mc_interface_set_current_bms, .-mc_interface_set_current_bms
 2527              		.section	.text.mc_interface_get_current_bms,"ax",%progbits
 2528              		.align	1
 2529              		.p2align 4,,15
 2530              		.global	mc_interface_get_current_bms
 2531              		.syntax unified
 2532              		.thumb
 2533              		.thumb_func
 2534              		.fpu fpv4-sp-d16
 2535              		.type	mc_interface_get_current_bms, %function
 2536              	mc_interface_get_current_bms:
 2537              	.LFB299:
 2538              		.loc 1 680 0
 2539              		.cfi_startproc
 2540              		@ args = 0, pretend = 0, frame = 0
 2541              		@ frame_needed = 0, uses_anonymous_args = 0
 2542              		@ link register save eliminated.
 2543              		.loc 1 681 0
 2544 0000 014B     		ldr	r3, .L247
 2545 0002 93ED000A 		vldr.32	s0, [r3]
 2546              		.loc 1 682 0
 2547 0006 7047     		bx	lr
 2548              	.L248:
 2549              		.align	2
 2550              	.L247:
 2551 0008 00000000 		.word	.LANCHOR47
 2552              		.cfi_endproc
 2553              	.LFE299:
 2554              		.size	mc_interface_get_current_bms, .-mc_interface_get_current_bms
 2555              		.section	.text.mc_interface_set_cell_voltage_bms,"ax",%progbits
 2556              		.align	1
 2557              		.p2align 4,,15
 2558              		.global	mc_interface_set_cell_voltage_bms
 2559              		.syntax unified
 2560              		.thumb
 2561              		.thumb_func
 2562              		.fpu fpv4-sp-d16
 2563              		.type	mc_interface_set_cell_voltage_bms, %function
 2564              	mc_interface_set_cell_voltage_bms:
 2565              	.LFB300:
ARM GAS  /tmp/ccjtIDd2.s 			page 46


 2566              		.loc 1 685 0
 2567              		.cfi_startproc
 2568              		@ args = 0, pretend = 0, frame = 0
 2569              		@ frame_needed = 0, uses_anonymous_args = 0
 2570              		@ link register save eliminated.
 2571              	.LVL104:
 2572              		.loc 1 686 0
 2573 0000 024B     		ldr	r3, .L250
 2574 0002 03EB8000 		add	r0, r3, r0, lsl #2
 2575              	.LVL105:
 2576 0006 80ED000A 		vstr.32	s0, [r0]
 2577              		.loc 1 687 0
 2578 000a 7047     		bx	lr
 2579              	.L251:
 2580              		.align	2
 2581              	.L250:
 2582 000c 00000000 		.word	.LANCHOR60
 2583              		.cfi_endproc
 2584              	.LFE300:
 2585              		.size	mc_interface_set_cell_voltage_bms, .-mc_interface_set_cell_voltage_bms
 2586              		.section	.text.mc_interface_get_min_cell_voltage_bms,"ax",%progbits
 2587              		.align	1
 2588              		.p2align 4,,15
 2589              		.global	mc_interface_get_min_cell_voltage_bms
 2590              		.syntax unified
 2591              		.thumb
 2592              		.thumb_func
 2593              		.fpu fpv4-sp-d16
 2594              		.type	mc_interface_get_min_cell_voltage_bms, %function
 2595              	mc_interface_get_min_cell_voltage_bms:
 2596              	.LFB301:
 2597              		.loc 1 688 0
 2598              		.cfi_startproc
 2599              		@ args = 0, pretend = 0, frame = 0
 2600              		@ frame_needed = 0, uses_anonymous_args = 0
 2601              		@ link register save eliminated.
 2602              	.LVL106:
 2603              		.loc 1 689 0
 2604 0000 9FED0D0A 		vldr.32	s0, .L260
 2605 0004 0D49     		ldr	r1, .L260+4
 2606              	.LBB316:
 2607              		.loc 1 691 0
 2608 0006 0023     		movs	r3, #0
 2609              	.LVL107:
 2610              	.L256:
 2611              		.loc 1 692 0
 2612 0008 01EB8302 		add	r2, r1, r3, lsl #2
 2613 000c D2ED007A 		vldr.32	s15, [r2]
 2614 0010 F4EEC07A 		vcmpe.f32	s15, s0
 2615 0014 F1EE10FA 		vmrs	APSR_nzcv, FPSCR
 2616              		.loc 1 691 0
 2617 0018 03F10103 		add	r3, r3, #1
 2618              	.LVL108:
 2619              		.loc 1 692 0
 2620 001c 08D5     		bpl	.L253
 2621              		.loc 1 692 0 is_stmt 0 discriminator 1
 2622 001e D2ED007A 		vldr.32	s15, [r2]
ARM GAS  /tmp/ccjtIDd2.s 			page 47


 2623 0022 F5EEC07A 		vcmpe.f32	s15, #0
 2624 0026 F1EE10FA 		vmrs	APSR_nzcv, FPSCR
 2625              		.loc 1 693 0 is_stmt 1 discriminator 1
 2626 002a C8BF     		it	gt
 2627 002c 92ED000A 		vldrgt.32	s0, [r2]
 2628              	.LVL109:
 2629              	.L253:
 2630              		.loc 1 691 0 discriminator 2
 2631 0030 112B     		cmp	r3, #17
 2632 0032 E9D1     		bne	.L256
 2633              	.LBE316:
 2634              		.loc 1 697 0
 2635 0034 7047     		bx	lr
 2636              	.L261:
 2637 0036 00BF     		.align	2
 2638              	.L260:
 2639 0038 E7FB1F41 		.word	1092615143
 2640 003c 00000000 		.word	.LANCHOR60
 2641              		.cfi_endproc
 2642              	.LFE301:
 2643              		.size	mc_interface_get_min_cell_voltage_bms, .-mc_interface_get_min_cell_voltage_bms
 2644              		.section	.text.mc_interface_get_max_cell_voltage_bms,"ax",%progbits
 2645              		.align	1
 2646              		.p2align 4,,15
 2647              		.global	mc_interface_get_max_cell_voltage_bms
 2648              		.syntax unified
 2649              		.thumb
 2650              		.thumb_func
 2651              		.fpu fpv4-sp-d16
 2652              		.type	mc_interface_get_max_cell_voltage_bms, %function
 2653              	mc_interface_get_max_cell_voltage_bms:
 2654              	.LFB302:
 2655              		.loc 1 698 0
 2656              		.cfi_startproc
 2657              		@ args = 0, pretend = 0, frame = 0
 2658              		@ frame_needed = 0, uses_anonymous_args = 0
 2659              		@ link register save eliminated.
 2660              	.LVL110:
 2661              		.loc 1 699 0
 2662 0000 9FED0E0A 		vldr.32	s0, .L270
 2663 0004 0E49     		ldr	r1, .L270+4
 2664              	.LBB317:
 2665              		.loc 1 701 0
 2666 0006 0023     		movs	r3, #0
 2667              		.loc 1 702 0
 2668 0008 B1EE087A 		vmov.f32	s14, #6.0e+0
 2669              	.LVL111:
 2670              	.L266:
 2671 000c 01EB8302 		add	r2, r1, r3, lsl #2
 2672 0010 D2ED007A 		vldr.32	s15, [r2]
 2673 0014 F4EEC07A 		vcmpe.f32	s15, s0
 2674 0018 F1EE10FA 		vmrs	APSR_nzcv, FPSCR
 2675              		.loc 1 701 0
 2676 001c 03F10103 		add	r3, r3, #1
 2677              	.LVL112:
 2678              		.loc 1 702 0
 2679 0020 08DD     		ble	.L263
ARM GAS  /tmp/ccjtIDd2.s 			page 48


 2680              		.loc 1 702 0 is_stmt 0 discriminator 1
 2681 0022 D2ED007A 		vldr.32	s15, [r2]
 2682 0026 F4EEC77A 		vcmpe.f32	s15, s14
 2683 002a F1EE10FA 		vmrs	APSR_nzcv, FPSCR
 2684              		.loc 1 703 0 is_stmt 1 discriminator 1
 2685 002e 48BF     		it	mi
 2686 0030 92ED000A 		vldrmi.32	s0, [r2]
 2687              	.LVL113:
 2688              	.L263:
 2689              		.loc 1 701 0 discriminator 2
 2690 0034 112B     		cmp	r3, #17
 2691 0036 E9D1     		bne	.L266
 2692              	.LBE317:
 2693              		.loc 1 707 0
 2694 0038 7047     		bx	lr
 2695              	.L271:
 2696 003a 00BF     		.align	2
 2697              	.L270:
 2698 003c 00000000 		.word	0
 2699 0040 00000000 		.word	.LANCHOR60
 2700              		.cfi_endproc
 2701              	.LFE302:
 2702              		.size	mc_interface_get_max_cell_voltage_bms, .-mc_interface_get_max_cell_voltage_bms
 2703              		.section	.text.mc_interface_set_NTC_bms,"ax",%progbits
 2704              		.align	1
 2705              		.p2align 4,,15
 2706              		.global	mc_interface_set_NTC_bms
 2707              		.syntax unified
 2708              		.thumb
 2709              		.thumb_func
 2710              		.fpu fpv4-sp-d16
 2711              		.type	mc_interface_set_NTC_bms, %function
 2712              	mc_interface_set_NTC_bms:
 2713              	.LFB303:
 2714              		.loc 1 710 0
 2715              		.cfi_startproc
 2716              		@ args = 0, pretend = 0, frame = 0
 2717              		@ frame_needed = 0, uses_anonymous_args = 0
 2718              		@ link register save eliminated.
 2719              	.LVL114:
 2720              		.loc 1 711 0
 2721 0000 0528     		cmp	r0, #5
 2722 0002 05D0     		beq	.L275
 2723              		.loc 1 714 0
 2724 0004 064B     		ldr	r3, .L276
 2725 0006 03EB8000 		add	r0, r3, r0, lsl #2
 2726              	.LVL115:
 2727 000a 80ED000A 		vstr.32	s0, [r0]
 2728              		.loc 1 716 0
 2729 000e 7047     		bx	lr
 2730              	.LVL116:
 2731              	.L275:
 2732              		.loc 1 712 0
 2733 0010 F3EE047A 		vmov.f32	s15, #2.0e+1
 2734 0014 30EE670A 		vsub.f32	s0, s0, s15
 2735              	.LVL117:
 2736 0018 014B     		ldr	r3, .L276
ARM GAS  /tmp/ccjtIDd2.s 			page 49


 2737 001a 83ED050A 		vstr.32	s0, [r3, #20]
 2738 001e 7047     		bx	lr
 2739              	.L277:
 2740              		.align	2
 2741              	.L276:
 2742 0020 00000000 		.word	.LANCHOR61
 2743              		.cfi_endproc
 2744              	.LFE303:
 2745              		.size	mc_interface_set_NTC_bms, .-mc_interface_set_NTC_bms
 2746              		.section	.text.mc_interface_get_min_NTC_bms,"ax",%progbits
 2747              		.align	1
 2748              		.p2align 4,,15
 2749              		.global	mc_interface_get_min_NTC_bms
 2750              		.syntax unified
 2751              		.thumb
 2752              		.thumb_func
 2753              		.fpu fpv4-sp-d16
 2754              		.type	mc_interface_get_min_NTC_bms, %function
 2755              	mc_interface_get_min_NTC_bms:
 2756              	.LFB304:
 2757              		.loc 1 717 0
 2758              		.cfi_startproc
 2759              		@ args = 0, pretend = 0, frame = 0
 2760              		@ frame_needed = 0, uses_anonymous_args = 0
 2761              		@ link register save eliminated.
 2762              	.LVL118:
 2763              		.loc 1 718 0
 2764 0000 9FED0E0A 		vldr.32	s0, .L286
 2765 0004 0E49     		ldr	r1, .L286+4
 2766              	.LBB318:
 2767              		.loc 1 721 0
 2768 0006 9FED0F7A 		vldr.32	s14, .L286+8
 2769              		.loc 1 720 0
 2770 000a 0023     		movs	r3, #0
 2771              	.LVL119:
 2772              	.L282:
 2773              		.loc 1 721 0
 2774 000c 01EB8302 		add	r2, r1, r3, lsl #2
 2775 0010 D2ED007A 		vldr.32	s15, [r2]
 2776 0014 F4EEC07A 		vcmpe.f32	s15, s0
 2777 0018 F1EE10FA 		vmrs	APSR_nzcv, FPSCR
 2778              		.loc 1 720 0
 2779 001c 03F10103 		add	r3, r3, #1
 2780              	.LVL120:
 2781              		.loc 1 721 0
 2782 0020 08D5     		bpl	.L279
 2783              		.loc 1 721 0 is_stmt 0 discriminator 1
 2784 0022 D2ED007A 		vldr.32	s15, [r2]
 2785 0026 F4EEC77A 		vcmpe.f32	s15, s14
 2786 002a F1EE10FA 		vmrs	APSR_nzcv, FPSCR
 2787              		.loc 1 722 0 is_stmt 1 discriminator 1
 2788 002e C8BF     		it	gt
 2789 0030 92ED000A 		vldrgt.32	s0, [r2]
 2790              	.LVL121:
 2791              	.L279:
 2792              		.loc 1 720 0 discriminator 2
 2793 0034 052B     		cmp	r3, #5
ARM GAS  /tmp/ccjtIDd2.s 			page 50


 2794 0036 E9D1     		bne	.L282
 2795              	.LBE318:
 2796              		.loc 1 726 0
 2797 0038 7047     		bx	lr
 2798              	.L287:
 2799 003a 00BF     		.align	2
 2800              	.L286:
 2801 003c 00C07944 		.word	1148829696
 2802 0040 00000000 		.word	.LANCHOR61
 2803 0044 008088C3 		.word	3280502784
 2804              		.cfi_endproc
 2805              	.LFE304:
 2806              		.size	mc_interface_get_min_NTC_bms, .-mc_interface_get_min_NTC_bms
 2807              		.section	.text.mc_interface_get_max_NTC_bms,"ax",%progbits
 2808              		.align	1
 2809              		.p2align 4,,15
 2810              		.global	mc_interface_get_max_NTC_bms
 2811              		.syntax unified
 2812              		.thumb
 2813              		.thumb_func
 2814              		.fpu fpv4-sp-d16
 2815              		.type	mc_interface_get_max_NTC_bms, %function
 2816              	mc_interface_get_max_NTC_bms:
 2817              	.LFB305:
 2818              		.loc 1 727 0
 2819              		.cfi_startproc
 2820              		@ args = 0, pretend = 0, frame = 0
 2821              		@ frame_needed = 0, uses_anonymous_args = 0
 2822              		@ link register save eliminated.
 2823              	.LVL122:
 2824              		.loc 1 728 0
 2825 0000 9FED0E0A 		vldr.32	s0, .L296
 2826 0004 0E49     		ldr	r1, .L296+4
 2827              	.LBB319:
 2828              		.loc 1 731 0
 2829 0006 B0EE407A 		vmov.f32	s14, s0
 2830              		.loc 1 730 0
 2831 000a 0023     		movs	r3, #0
 2832              	.LVL123:
 2833              	.L292:
 2834              		.loc 1 731 0
 2835 000c 01EB8302 		add	r2, r1, r3, lsl #2
 2836 0010 D2ED007A 		vldr.32	s15, [r2]
 2837 0014 F4EEC07A 		vcmpe.f32	s15, s0
 2838 0018 F1EE10FA 		vmrs	APSR_nzcv, FPSCR
 2839              		.loc 1 730 0
 2840 001c 03F10103 		add	r3, r3, #1
 2841              	.LVL124:
 2842              		.loc 1 731 0
 2843 0020 08DD     		ble	.L289
 2844              		.loc 1 731 0 is_stmt 0 discriminator 1
 2845 0022 D2ED007A 		vldr.32	s15, [r2]
 2846 0026 F4EEC77A 		vcmpe.f32	s15, s14
 2847 002a F1EE10FA 		vmrs	APSR_nzcv, FPSCR
 2848              		.loc 1 732 0 is_stmt 1 discriminator 1
 2849 002e C8BF     		it	gt
 2850 0030 92ED000A 		vldrgt.32	s0, [r2]
ARM GAS  /tmp/ccjtIDd2.s 			page 51


 2851              	.LVL125:
 2852              	.L289:
 2853              		.loc 1 730 0 discriminator 2
 2854 0034 062B     		cmp	r3, #6
 2855 0036 E9D1     		bne	.L292
 2856              	.LBE319:
 2857              		.loc 1 736 0
 2858 0038 7047     		bx	lr
 2859              	.L297:
 2860 003a 00BF     		.align	2
 2861              	.L296:
 2862 003c 008088C3 		.word	3280502784
 2863 0040 00000000 		.word	.LANCHOR61
 2864              		.cfi_endproc
 2865              	.LFE305:
 2866              		.size	mc_interface_get_max_NTC_bms, .-mc_interface_get_max_NTC_bms
 2867              		.section	.text.mc_interface_set_bms_fet_status,"ax",%progbits
 2868              		.align	1
 2869              		.p2align 4,,15
 2870              		.global	mc_interface_set_bms_fet_status
 2871              		.syntax unified
 2872              		.thumb
 2873              		.thumb_func
 2874              		.fpu fpv4-sp-d16
 2875              		.type	mc_interface_set_bms_fet_status, %function
 2876              	mc_interface_set_bms_fet_status:
 2877              	.LFB306:
 2878              		.loc 1 739 0
 2879              		.cfi_startproc
 2880              		@ args = 0, pretend = 0, frame = 0
 2881              		@ frame_needed = 0, uses_anonymous_args = 0
 2882              		@ link register save eliminated.
 2883              	.LVL126:
 2884              		.loc 1 740 0
 2885 0000 014B     		ldr	r3, .L299
 2886 0002 1880     		strh	r0, [r3]	@ movhi
 2887              		.loc 1 741 0
 2888 0004 7047     		bx	lr
 2889              	.L300:
 2890 0006 00BF     		.align	2
 2891              	.L299:
 2892 0008 00000000 		.word	.LANCHOR52
 2893              		.cfi_endproc
 2894              	.LFE306:
 2895              		.size	mc_interface_set_bms_fet_status, .-mc_interface_set_bms_fet_status
 2896              		.section	.text.mc_interface_get_bms_fet_status,"ax",%progbits
 2897              		.align	1
 2898              		.p2align 4,,15
 2899              		.global	mc_interface_get_bms_fet_status
 2900              		.syntax unified
 2901              		.thumb
 2902              		.thumb_func
 2903              		.fpu fpv4-sp-d16
 2904              		.type	mc_interface_get_bms_fet_status, %function
 2905              	mc_interface_get_bms_fet_status:
 2906              	.LFB307:
 2907              		.loc 1 742 0
ARM GAS  /tmp/ccjtIDd2.s 			page 52


 2908              		.cfi_startproc
 2909              		@ args = 0, pretend = 0, frame = 0
 2910              		@ frame_needed = 0, uses_anonymous_args = 0
 2911              		@ link register save eliminated.
 2912              		.loc 1 743 0
 2913 0000 014B     		ldr	r3, .L302
 2914 0002 1888     		ldrh	r0, [r3]
 2915              		.loc 1 744 0
 2916 0004 7047     		bx	lr
 2917              	.L303:
 2918 0006 00BF     		.align	2
 2919              	.L302:
 2920 0008 00000000 		.word	.LANCHOR52
 2921              		.cfi_endproc
 2922              	.LFE307:
 2923              		.size	mc_interface_get_bms_fet_status, .-mc_interface_get_bms_fet_status
 2924              		.section	.text.mc_interface_get_cell_count,"ax",%progbits
 2925              		.align	1
 2926              		.p2align 4,,15
 2927              		.global	mc_interface_get_cell_count
 2928              		.syntax unified
 2929              		.thumb
 2930              		.thumb_func
 2931              		.fpu fpv4-sp-d16
 2932              		.type	mc_interface_get_cell_count, %function
 2933              	mc_interface_get_cell_count:
 2934              	.LFB309:
 2935              		.loc 1 769 0
 2936              		.cfi_startproc
 2937              		@ args = 0, pretend = 0, frame = 0
 2938              		@ frame_needed = 0, uses_anonymous_args = 0
 2939              		@ link register save eliminated.
 2940              		.loc 1 771 0
 2941 0000 024B     		ldr	r3, .L305
 2942 0002 D3F8C001 		ldr	r0, [r3, #448]
 2943              		.loc 1 772 0
 2944 0006 80B2     		uxth	r0, r0
 2945 0008 7047     		bx	lr
 2946              	.L306:
 2947 000a 00BF     		.align	2
 2948              	.L305:
 2949 000c 00000000 		.word	.LANCHOR8
 2950              		.cfi_endproc
 2951              	.LFE309:
 2952              		.size	mc_interface_get_cell_count, .-mc_interface_get_cell_count
 2953              		.section	.text.mc_interface_get_lo_current_motor_max_now,"ax",%progbits
 2954              		.align	1
 2955              		.p2align 4,,15
 2956              		.global	mc_interface_get_lo_current_motor_max_now
 2957              		.syntax unified
 2958              		.thumb
 2959              		.thumb_func
 2960              		.fpu fpv4-sp-d16
 2961              		.type	mc_interface_get_lo_current_motor_max_now, %function
 2962              	mc_interface_get_lo_current_motor_max_now:
 2963              	.LFB317:
 2964              		.loc 1 942 0
ARM GAS  /tmp/ccjtIDd2.s 			page 53


 2965              		.cfi_startproc
 2966              		@ args = 0, pretend = 0, frame = 0
 2967              		@ frame_needed = 0, uses_anonymous_args = 0
 2968              		@ link register save eliminated.
 2969              		.loc 1 943 0
 2970 0000 014B     		ldr	r3, .L308
 2971 0002 93ED1F0A 		vldr.32	s0, [r3, #124]
 2972              		.loc 1 944 0
 2973 0006 7047     		bx	lr
 2974              	.L309:
 2975              		.align	2
 2976              	.L308:
 2977 0008 00000000 		.word	.LANCHOR8
 2978              		.cfi_endproc
 2979              	.LFE317:
 2980              		.size	mc_interface_get_lo_current_motor_max_now, .-mc_interface_get_lo_current_motor_max_now
 2981              		.section	.text.mc_interface_get_duty_cycle_set,"ax",%progbits
 2982              		.align	1
 2983              		.p2align 4,,15
 2984              		.global	mc_interface_get_duty_cycle_set
 2985              		.syntax unified
 2986              		.thumb
 2987              		.thumb_func
 2988              		.fpu fpv4-sp-d16
 2989              		.type	mc_interface_get_duty_cycle_set, %function
 2990              	mc_interface_get_duty_cycle_set:
 2991              	.LFB323:
 2992              		.loc 1 1024 0
 2993              		.cfi_startproc
 2994              		@ args = 0, pretend = 0, frame = 0
 2995              		@ frame_needed = 0, uses_anonymous_args = 0
 2996              	.LVL127:
 2997 0000 10B5     		push	{r4, lr}
 2998              		.cfi_def_cfa_offset 8
 2999              		.cfi_offset 4, -8
 3000              		.cfi_offset 14, -4
 3001              		.loc 1 1027 0
 3002 0002 0B4C     		ldr	r4, .L322
 3003 0004 A378     		ldrb	r3, [r4, #2]	@ zero_extendqisi2
 3004 0006 DBB2     		uxtb	r3, r3
 3005 0008 012B     		cmp	r3, #1
 3006 000a 0DD9     		bls	.L312
 3007 000c 022B     		cmp	r3, #2
 3008 000e 08D0     		beq	.L313
 3009              		.loc 1 1025 0
 3010 0010 9FED080A 		vldr.32	s0, .L322+4
 3011              	.LVL128:
 3012              	.L311:
 3013              		.loc 1 1041 0
 3014 0014 94F89931 		ldrb	r3, [r4, #409]	@ zero_extendqisi2
 3015 0018 03B9     		cbnz	r3, .L321
 3016              		.loc 1 1042 0
 3017 001a 10BD     		pop	{r4, pc}
 3018              	.L321:
 3019 001c B1EE400A 		vneg.f32	s0, s0
 3020              	.LVL129:
 3021 0020 10BD     		pop	{r4, pc}
ARM GAS  /tmp/ccjtIDd2.s 			page 54


 3022              	.LVL130:
 3023              	.L313:
 3024              		.loc 1 1034 0
 3025 0022 FFF7FEFF 		bl	mcpwm_foc_get_duty_cycle_set
 3026              	.LVL131:
 3027              		.loc 1 1035 0
 3028 0026 F5E7     		b	.L311
 3029              	.LVL132:
 3030              	.L312:
 3031              		.loc 1 1030 0
 3032 0028 FFF7FEFF 		bl	mcpwm_get_duty_cycle_set
 3033              	.LVL133:
 3034              		.loc 1 1031 0
 3035 002c F2E7     		b	.L311
 3036              	.L323:
 3037 002e 00BF     		.align	2
 3038              	.L322:
 3039 0030 00000000 		.word	.LANCHOR8
 3040 0034 00000000 		.word	0
 3041              		.cfi_endproc
 3042              	.LFE323:
 3043              		.size	mc_interface_get_duty_cycle_set, .-mc_interface_get_duty_cycle_set
 3044              		.section	.text.mc_interface_get_duty_cycle_now,"ax",%progbits
 3045              		.align	1
 3046              		.p2align 4,,15
 3047              		.global	mc_interface_get_duty_cycle_now
 3048              		.syntax unified
 3049              		.thumb
 3050              		.thumb_func
 3051              		.fpu fpv4-sp-d16
 3052              		.type	mc_interface_get_duty_cycle_now, %function
 3053              	mc_interface_get_duty_cycle_now:
 3054              	.LFB324:
 3055              		.loc 1 1044 0
 3056              		.cfi_startproc
 3057              		@ args = 0, pretend = 0, frame = 0
 3058              		@ frame_needed = 0, uses_anonymous_args = 0
 3059              	.LVL134:
 3060 0000 10B5     		push	{r4, lr}
 3061              		.cfi_def_cfa_offset 8
 3062              		.cfi_offset 4, -8
 3063              		.cfi_offset 14, -4
 3064              		.loc 1 1047 0
 3065 0002 0B4C     		ldr	r4, .L336
 3066 0004 A378     		ldrb	r3, [r4, #2]	@ zero_extendqisi2
 3067 0006 DBB2     		uxtb	r3, r3
 3068 0008 012B     		cmp	r3, #1
 3069 000a 0DD9     		bls	.L326
 3070 000c 022B     		cmp	r3, #2
 3071 000e 08D0     		beq	.L327
 3072              		.loc 1 1045 0
 3073 0010 9FED080A 		vldr.32	s0, .L336+4
 3074              	.LVL135:
 3075              	.L325:
 3076              		.loc 1 1061 0
 3077 0014 94F89931 		ldrb	r3, [r4, #409]	@ zero_extendqisi2
 3078 0018 03B9     		cbnz	r3, .L335
ARM GAS  /tmp/ccjtIDd2.s 			page 55


 3079              		.loc 1 1062 0
 3080 001a 10BD     		pop	{r4, pc}
 3081              	.L335:
 3082 001c B1EE400A 		vneg.f32	s0, s0
 3083              	.LVL136:
 3084 0020 10BD     		pop	{r4, pc}
 3085              	.LVL137:
 3086              	.L327:
 3087              		.loc 1 1054 0
 3088 0022 FFF7FEFF 		bl	mcpwm_foc_get_duty_cycle_now
 3089              	.LVL138:
 3090              		.loc 1 1055 0
 3091 0026 F5E7     		b	.L325
 3092              	.LVL139:
 3093              	.L326:
 3094              		.loc 1 1050 0
 3095 0028 FFF7FEFF 		bl	mcpwm_get_duty_cycle_now
 3096              	.LVL140:
 3097              		.loc 1 1051 0
 3098 002c F2E7     		b	.L325
 3099              	.L337:
 3100 002e 00BF     		.align	2
 3101              	.L336:
 3102 0030 00000000 		.word	.LANCHOR8
 3103 0034 00000000 		.word	0
 3104              		.cfi_endproc
 3105              	.LFE324:
 3106              		.size	mc_interface_get_duty_cycle_now, .-mc_interface_get_duty_cycle_now
 3107              		.section	.text.mc_interface_get_sampling_frequency_now,"ax",%progbits
 3108              		.align	1
 3109              		.p2align 4,,15
 3110              		.global	mc_interface_get_sampling_frequency_now
 3111              		.syntax unified
 3112              		.thumb
 3113              		.thumb_func
 3114              		.fpu fpv4-sp-d16
 3115              		.type	mc_interface_get_sampling_frequency_now, %function
 3116              	mc_interface_get_sampling_frequency_now:
 3117              	.LFB325:
 3118              		.loc 1 1064 0
 3119              		.cfi_startproc
 3120              		@ args = 0, pretend = 0, frame = 0
 3121              		@ frame_needed = 0, uses_anonymous_args = 0
 3122              		@ link register save eliminated.
 3123              	.LVL141:
 3124              		.loc 1 1067 0
 3125 0000 084B     		ldr	r3, .L344
 3126 0002 9B78     		ldrb	r3, [r3, #2]	@ zero_extendqisi2
 3127 0004 032B     		cmp	r3, #3
 3128 0006 09D8     		bhi	.L339
 3129 0008 DFE803F0 		tbb	[pc, r3]
 3130              	.L341:
 3131 000c 06       		.byte	(.L340-.L341)/2
 3132 000d 06       		.byte	(.L340-.L341)/2
 3133 000e 04       		.byte	(.L342-.L341)/2
 3134 000f 02       		.byte	(.L343-.L341)/2
 3135              		.p2align 1
ARM GAS  /tmp/ccjtIDd2.s 			page 56


 3136              	.L343:
 3137              		.loc 1 1078 0
 3138 0010 FFF7FEBF 		b	gpdrive_get_switching_frequency_now
 3139              	.LVL142:
 3140              	.L342:
 3141              		.loc 1 1074 0
 3142 0014 FFF7FEBF 		b	mcpwm_foc_get_sampling_frequency_now
 3143              	.LVL143:
 3144              	.L340:
 3145              		.loc 1 1070 0
 3146 0018 FFF7FEBF 		b	mcpwm_get_switching_frequency_now
 3147              	.LVL144:
 3148              	.L339:
 3149              		.loc 1 1086 0
 3150 001c 9FED020A 		vldr.32	s0, .L344+4
 3151 0020 7047     		bx	lr
 3152              	.L345:
 3153 0022 00BF     		.align	2
 3154              	.L344:
 3155 0024 00000000 		.word	.LANCHOR8
 3156 0028 00000000 		.word	0
 3157              		.cfi_endproc
 3158              	.LFE325:
 3159              		.size	mc_interface_get_sampling_frequency_now, .-mc_interface_get_sampling_frequency_now
 3160              		.section	.text.mc_interface_get_rpm,"ax",%progbits
 3161              		.align	1
 3162              		.p2align 4,,15
 3163              		.global	mc_interface_get_rpm
 3164              		.syntax unified
 3165              		.thumb
 3166              		.thumb_func
 3167              		.fpu fpv4-sp-d16
 3168              		.type	mc_interface_get_rpm, %function
 3169              	mc_interface_get_rpm:
 3170              	.LFB326:
 3171              		.loc 1 1088 0
 3172              		.cfi_startproc
 3173              		@ args = 0, pretend = 0, frame = 0
 3174              		@ frame_needed = 0, uses_anonymous_args = 0
 3175              	.LVL145:
 3176 0000 10B5     		push	{r4, lr}
 3177              		.cfi_def_cfa_offset 8
 3178              		.cfi_offset 4, -8
 3179              		.cfi_offset 14, -4
 3180              		.loc 1 1091 0
 3181 0002 0B4C     		ldr	r4, .L358
 3182 0004 A378     		ldrb	r3, [r4, #2]	@ zero_extendqisi2
 3183 0006 DBB2     		uxtb	r3, r3
 3184 0008 012B     		cmp	r3, #1
 3185 000a 0DD9     		bls	.L348
 3186 000c 022B     		cmp	r3, #2
 3187 000e 08D0     		beq	.L349
 3188              		.loc 1 1089 0
 3189 0010 9FED080A 		vldr.32	s0, .L358+4
 3190              	.LVL146:
 3191              	.L347:
 3192              		.loc 1 1105 0
ARM GAS  /tmp/ccjtIDd2.s 			page 57


 3193 0014 94F89931 		ldrb	r3, [r4, #409]	@ zero_extendqisi2
 3194 0018 03B9     		cbnz	r3, .L357
 3195              		.loc 1 1106 0
 3196 001a 10BD     		pop	{r4, pc}
 3197              	.L357:
 3198 001c B1EE400A 		vneg.f32	s0, s0
 3199              	.LVL147:
 3200 0020 10BD     		pop	{r4, pc}
 3201              	.LVL148:
 3202              	.L349:
 3203              		.loc 1 1098 0
 3204 0022 FFF7FEFF 		bl	mcpwm_foc_get_rpm
 3205              	.LVL149:
 3206              		.loc 1 1099 0
 3207 0026 F5E7     		b	.L347
 3208              	.LVL150:
 3209              	.L348:
 3210              		.loc 1 1094 0
 3211 0028 FFF7FEFF 		bl	mcpwm_get_rpm
 3212              	.LVL151:
 3213              		.loc 1 1095 0
 3214 002c F2E7     		b	.L347
 3215              	.L359:
 3216 002e 00BF     		.align	2
 3217              	.L358:
 3218 0030 00000000 		.word	.LANCHOR8
 3219 0034 00000000 		.word	0
 3220              		.cfi_endproc
 3221              	.LFE326:
 3222              		.size	mc_interface_get_rpm, .-mc_interface_get_rpm
 3223              		.section	.text.mc_interface_get_amp_hours,"ax",%progbits
 3224              		.align	1
 3225              		.p2align 4,,15
 3226              		.global	mc_interface_get_amp_hours
 3227              		.syntax unified
 3228              		.thumb
 3229              		.thumb_func
 3230              		.fpu fpv4-sp-d16
 3231              		.type	mc_interface_get_amp_hours, %function
 3232              	mc_interface_get_amp_hours:
 3233              	.LFB327:
 3234              		.loc 1 1117 0
 3235              		.cfi_startproc
 3236              		@ args = 0, pretend = 0, frame = 0
 3237              		@ frame_needed = 0, uses_anonymous_args = 0
 3238              		@ link register save eliminated.
 3239              	.LVL152:
 3240              		.loc 1 1118 0
 3241 0000 054B     		ldr	r3, .L365
 3242 0002 DFED067A 		vldr.32	s15, .L365+4
 3243 0006 93ED007A 		vldr.32	s14, [r3]
 3244 000a 87EE270A 		vdiv.f32	s0, s14, s15
 3245              	.LVL153:
 3246              		.loc 1 1120 0
 3247 000e 08B1     		cbz	r0, .L360
 3248              		.loc 1 1121 0
 3249 0010 0022     		movs	r2, #0
ARM GAS  /tmp/ccjtIDd2.s 			page 58


 3250 0012 1A60     		str	r2, [r3]	@ float
 3251              	.L360:
 3252              		.loc 1 1125 0
 3253 0014 7047     		bx	lr
 3254              	.L366:
 3255 0016 00BF     		.align	2
 3256              	.L365:
 3257 0018 00000000 		.word	.LANCHOR28
 3258 001c 00006145 		.word	1163984896
 3259              		.cfi_endproc
 3260              	.LFE327:
 3261              		.size	mc_interface_get_amp_hours, .-mc_interface_get_amp_hours
 3262              		.section	.text.mc_interface_get_amp_hours_charged,"ax",%progbits
 3263              		.align	1
 3264              		.p2align 4,,15
 3265              		.global	mc_interface_get_amp_hours_charged
 3266              		.syntax unified
 3267              		.thumb
 3268              		.thumb_func
 3269              		.fpu fpv4-sp-d16
 3270              		.type	mc_interface_get_amp_hours_charged, %function
 3271              	mc_interface_get_amp_hours_charged:
 3272              	.LFB328:
 3273              		.loc 1 1136 0
 3274              		.cfi_startproc
 3275              		@ args = 0, pretend = 0, frame = 0
 3276              		@ frame_needed = 0, uses_anonymous_args = 0
 3277              		@ link register save eliminated.
 3278              	.LVL154:
 3279              		.loc 1 1137 0
 3280 0000 054B     		ldr	r3, .L372
 3281 0002 DFED067A 		vldr.32	s15, .L372+4
 3282 0006 93ED007A 		vldr.32	s14, [r3]
 3283 000a 87EE270A 		vdiv.f32	s0, s14, s15
 3284              	.LVL155:
 3285              		.loc 1 1139 0
 3286 000e 08B1     		cbz	r0, .L367
 3287              		.loc 1 1140 0
 3288 0010 0022     		movs	r2, #0
 3289 0012 1A60     		str	r2, [r3]	@ float
 3290              	.L367:
 3291              		.loc 1 1144 0
 3292 0014 7047     		bx	lr
 3293              	.L373:
 3294 0016 00BF     		.align	2
 3295              	.L372:
 3296 0018 00000000 		.word	.LANCHOR29
 3297 001c 00006145 		.word	1163984896
 3298              		.cfi_endproc
 3299              	.LFE328:
 3300              		.size	mc_interface_get_amp_hours_charged, .-mc_interface_get_amp_hours_charged
 3301              		.section	.text.mc_interface_get_watt_hours,"ax",%progbits
 3302              		.align	1
 3303              		.p2align 4,,15
 3304              		.global	mc_interface_get_watt_hours
 3305              		.syntax unified
 3306              		.thumb
ARM GAS  /tmp/ccjtIDd2.s 			page 59


 3307              		.thumb_func
 3308              		.fpu fpv4-sp-d16
 3309              		.type	mc_interface_get_watt_hours, %function
 3310              	mc_interface_get_watt_hours:
 3311              	.LFB329:
 3312              		.loc 1 1155 0
 3313              		.cfi_startproc
 3314              		@ args = 0, pretend = 0, frame = 0
 3315              		@ frame_needed = 0, uses_anonymous_args = 0
 3316              		@ link register save eliminated.
 3317              	.LVL156:
 3318              		.loc 1 1156 0
 3319 0000 054B     		ldr	r3, .L379
 3320 0002 DFED067A 		vldr.32	s15, .L379+4
 3321 0006 93ED007A 		vldr.32	s14, [r3]
 3322 000a 87EE270A 		vdiv.f32	s0, s14, s15
 3323              	.LVL157:
 3324              		.loc 1 1158 0
 3325 000e 08B1     		cbz	r0, .L374
 3326              		.loc 1 1159 0
 3327 0010 0022     		movs	r2, #0
 3328 0012 1A60     		str	r2, [r3]	@ float
 3329              	.L374:
 3330              		.loc 1 1163 0
 3331 0014 7047     		bx	lr
 3332              	.L380:
 3333 0016 00BF     		.align	2
 3334              	.L379:
 3335 0018 00000000 		.word	.LANCHOR30
 3336 001c 00006145 		.word	1163984896
 3337              		.cfi_endproc
 3338              	.LFE329:
 3339              		.size	mc_interface_get_watt_hours, .-mc_interface_get_watt_hours
 3340              		.section	.text.mc_interface_get_watt_hours_charged,"ax",%progbits
 3341              		.align	1
 3342              		.p2align 4,,15
 3343              		.global	mc_interface_get_watt_hours_charged
 3344              		.syntax unified
 3345              		.thumb
 3346              		.thumb_func
 3347              		.fpu fpv4-sp-d16
 3348              		.type	mc_interface_get_watt_hours_charged, %function
 3349              	mc_interface_get_watt_hours_charged:
 3350              	.LFB330:
 3351              		.loc 1 1174 0
 3352              		.cfi_startproc
 3353              		@ args = 0, pretend = 0, frame = 0
 3354              		@ frame_needed = 0, uses_anonymous_args = 0
 3355              		@ link register save eliminated.
 3356              	.LVL158:
 3357              		.loc 1 1175 0
 3358 0000 054B     		ldr	r3, .L386
 3359 0002 DFED067A 		vldr.32	s15, .L386+4
 3360 0006 93ED007A 		vldr.32	s14, [r3]
 3361 000a 87EE270A 		vdiv.f32	s0, s14, s15
 3362              	.LVL159:
 3363              		.loc 1 1177 0
ARM GAS  /tmp/ccjtIDd2.s 			page 60


 3364 000e 08B1     		cbz	r0, .L381
 3365              		.loc 1 1178 0
 3366 0010 0022     		movs	r2, #0
 3367 0012 1A60     		str	r2, [r3]	@ float
 3368              	.L381:
 3369              		.loc 1 1182 0
 3370 0014 7047     		bx	lr
 3371              	.L387:
 3372 0016 00BF     		.align	2
 3373              	.L386:
 3374 0018 00000000 		.word	.LANCHOR31
 3375 001c 00006145 		.word	1163984896
 3376              		.cfi_endproc
 3377              	.LFE330:
 3378              		.size	mc_interface_get_watt_hours_charged, .-mc_interface_get_watt_hours_charged
 3379              		.section	.text.mc_interface_get_tot_current,"ax",%progbits
 3380              		.align	1
 3381              		.p2align 4,,15
 3382              		.global	mc_interface_get_tot_current
 3383              		.syntax unified
 3384              		.thumb
 3385              		.thumb_func
 3386              		.fpu fpv4-sp-d16
 3387              		.type	mc_interface_get_tot_current, %function
 3388              	mc_interface_get_tot_current:
 3389              	.LFB331:
 3390              		.loc 1 1184 0
 3391              		.cfi_startproc
 3392              		@ args = 0, pretend = 0, frame = 0
 3393              		@ frame_needed = 0, uses_anonymous_args = 0
 3394              		@ link register save eliminated.
 3395              	.LVL160:
 3396              		.loc 1 1187 0
 3397 0000 064B     		ldr	r3, .L394
 3398 0002 9B78     		ldrb	r3, [r3, #2]	@ zero_extendqisi2
 3399 0004 DBB2     		uxtb	r3, r3
 3400 0006 012B     		cmp	r3, #1
 3401 0008 06D9     		bls	.L390
 3402 000a 022B     		cmp	r3, #2
 3403 000c 01D1     		bne	.L393
 3404              		.loc 1 1194 0
 3405 000e FFF7FEBF 		b	mcpwm_foc_get_tot_current
 3406              	.LVL161:
 3407              	.L393:
 3408              		.loc 1 1202 0
 3409 0012 9FED030A 		vldr.32	s0, .L394+4
 3410 0016 7047     		bx	lr
 3411              	.L390:
 3412              		.loc 1 1190 0
 3413 0018 FFF7FEBF 		b	mcpwm_get_tot_current
 3414              	.LVL162:
 3415              	.L395:
 3416              		.align	2
 3417              	.L394:
 3418 001c 00000000 		.word	.LANCHOR8
 3419 0020 00000000 		.word	0
 3420              		.cfi_endproc
ARM GAS  /tmp/ccjtIDd2.s 			page 61


 3421              	.LFE331:
 3422              		.size	mc_interface_get_tot_current, .-mc_interface_get_tot_current
 3423              		.section	.text.mc_interface_get_tot_current_filtered,"ax",%progbits
 3424              		.align	1
 3425              		.p2align 4,,15
 3426              		.global	mc_interface_get_tot_current_filtered
 3427              		.syntax unified
 3428              		.thumb
 3429              		.thumb_func
 3430              		.fpu fpv4-sp-d16
 3431              		.type	mc_interface_get_tot_current_filtered, %function
 3432              	mc_interface_get_tot_current_filtered:
 3433              	.LFB332:
 3434              		.loc 1 1204 0
 3435              		.cfi_startproc
 3436              		@ args = 0, pretend = 0, frame = 0
 3437              		@ frame_needed = 0, uses_anonymous_args = 0
 3438              		@ link register save eliminated.
 3439              	.LVL163:
 3440              		.loc 1 1207 0
 3441 0000 064B     		ldr	r3, .L402
 3442 0002 9B78     		ldrb	r3, [r3, #2]	@ zero_extendqisi2
 3443 0004 DBB2     		uxtb	r3, r3
 3444 0006 012B     		cmp	r3, #1
 3445 0008 06D9     		bls	.L398
 3446 000a 022B     		cmp	r3, #2
 3447 000c 01D1     		bne	.L401
 3448              		.loc 1 1214 0
 3449 000e FFF7FEBF 		b	mcpwm_foc_get_tot_current_filtered
 3450              	.LVL164:
 3451              	.L401:
 3452              		.loc 1 1222 0
 3453 0012 9FED030A 		vldr.32	s0, .L402+4
 3454 0016 7047     		bx	lr
 3455              	.L398:
 3456              		.loc 1 1210 0
 3457 0018 FFF7FEBF 		b	mcpwm_get_tot_current_filtered
 3458              	.LVL165:
 3459              	.L403:
 3460              		.align	2
 3461              	.L402:
 3462 001c 00000000 		.word	.LANCHOR8
 3463 0020 00000000 		.word	0
 3464              		.cfi_endproc
 3465              	.LFE332:
 3466              		.size	mc_interface_get_tot_current_filtered, .-mc_interface_get_tot_current_filtered
 3467              		.section	.text.mc_interface_get_tot_current_directional,"ax",%progbits
 3468              		.align	1
 3469              		.p2align 4,,15
 3470              		.global	mc_interface_get_tot_current_directional
 3471              		.syntax unified
 3472              		.thumb
 3473              		.thumb_func
 3474              		.fpu fpv4-sp-d16
 3475              		.type	mc_interface_get_tot_current_directional, %function
 3476              	mc_interface_get_tot_current_directional:
 3477              	.LFB333:
ARM GAS  /tmp/ccjtIDd2.s 			page 62


 3478              		.loc 1 1224 0
 3479              		.cfi_startproc
 3480              		@ args = 0, pretend = 0, frame = 0
 3481              		@ frame_needed = 0, uses_anonymous_args = 0
 3482              	.LVL166:
 3483 0000 10B5     		push	{r4, lr}
 3484              		.cfi_def_cfa_offset 8
 3485              		.cfi_offset 4, -8
 3486              		.cfi_offset 14, -4
 3487              		.loc 1 1227 0
 3488 0002 0B4C     		ldr	r4, .L416
 3489 0004 A378     		ldrb	r3, [r4, #2]	@ zero_extendqisi2
 3490 0006 DBB2     		uxtb	r3, r3
 3491 0008 012B     		cmp	r3, #1
 3492 000a 0DD9     		bls	.L406
 3493 000c 022B     		cmp	r3, #2
 3494 000e 08D0     		beq	.L407
 3495              		.loc 1 1225 0
 3496 0010 9FED080A 		vldr.32	s0, .L416+4
 3497              	.LVL167:
 3498              	.L405:
 3499              		.loc 1 1241 0
 3500 0014 94F89931 		ldrb	r3, [r4, #409]	@ zero_extendqisi2
 3501 0018 03B9     		cbnz	r3, .L415
 3502              		.loc 1 1242 0
 3503 001a 10BD     		pop	{r4, pc}
 3504              	.L415:
 3505 001c B1EE400A 		vneg.f32	s0, s0
 3506              	.LVL168:
 3507 0020 10BD     		pop	{r4, pc}
 3508              	.LVL169:
 3509              	.L407:
 3510              		.loc 1 1234 0
 3511 0022 FFF7FEFF 		bl	mcpwm_foc_get_tot_current_directional
 3512              	.LVL170:
 3513              		.loc 1 1235 0
 3514 0026 F5E7     		b	.L405
 3515              	.LVL171:
 3516              	.L406:
 3517              		.loc 1 1230 0
 3518 0028 FFF7FEFF 		bl	mcpwm_get_tot_current_directional
 3519              	.LVL172:
 3520              		.loc 1 1231 0
 3521 002c F2E7     		b	.L405
 3522              	.L417:
 3523 002e 00BF     		.align	2
 3524              	.L416:
 3525 0030 00000000 		.word	.LANCHOR8
 3526 0034 00000000 		.word	0
 3527              		.cfi_endproc
 3528              	.LFE333:
 3529              		.size	mc_interface_get_tot_current_directional, .-mc_interface_get_tot_current_directional
 3530              		.section	.text.mc_interface_get_tot_current_directional_filtered,"ax",%progbits
 3531              		.align	1
 3532              		.p2align 4,,15
 3533              		.global	mc_interface_get_tot_current_directional_filtered
 3534              		.syntax unified
ARM GAS  /tmp/ccjtIDd2.s 			page 63


 3535              		.thumb
 3536              		.thumb_func
 3537              		.fpu fpv4-sp-d16
 3538              		.type	mc_interface_get_tot_current_directional_filtered, %function
 3539              	mc_interface_get_tot_current_directional_filtered:
 3540              	.LFB334:
 3541              		.loc 1 1244 0
 3542              		.cfi_startproc
 3543              		@ args = 0, pretend = 0, frame = 0
 3544              		@ frame_needed = 0, uses_anonymous_args = 0
 3545              	.LVL173:
 3546 0000 10B5     		push	{r4, lr}
 3547              		.cfi_def_cfa_offset 8
 3548              		.cfi_offset 4, -8
 3549              		.cfi_offset 14, -4
 3550              		.loc 1 1247 0
 3551 0002 0B4C     		ldr	r4, .L430
 3552 0004 A378     		ldrb	r3, [r4, #2]	@ zero_extendqisi2
 3553 0006 DBB2     		uxtb	r3, r3
 3554 0008 012B     		cmp	r3, #1
 3555 000a 0DD9     		bls	.L420
 3556 000c 022B     		cmp	r3, #2
 3557 000e 08D0     		beq	.L421
 3558              		.loc 1 1245 0
 3559 0010 9FED080A 		vldr.32	s0, .L430+4
 3560              	.LVL174:
 3561              	.L419:
 3562              		.loc 1 1261 0
 3563 0014 94F89931 		ldrb	r3, [r4, #409]	@ zero_extendqisi2
 3564 0018 03B9     		cbnz	r3, .L429
 3565              		.loc 1 1262 0
 3566 001a 10BD     		pop	{r4, pc}
 3567              	.L429:
 3568 001c B1EE400A 		vneg.f32	s0, s0
 3569              	.LVL175:
 3570 0020 10BD     		pop	{r4, pc}
 3571              	.LVL176:
 3572              	.L421:
 3573              		.loc 1 1254 0
 3574 0022 FFF7FEFF 		bl	mcpwm_foc_get_tot_current_directional_filtered
 3575              	.LVL177:
 3576              		.loc 1 1255 0
 3577 0026 F5E7     		b	.L419
 3578              	.LVL178:
 3579              	.L420:
 3580              		.loc 1 1250 0
 3581 0028 FFF7FEFF 		bl	mcpwm_get_tot_current_directional_filtered
 3582              	.LVL179:
 3583              		.loc 1 1251 0
 3584 002c F2E7     		b	.L419
 3585              	.L431:
 3586 002e 00BF     		.align	2
 3587              	.L430:
 3588 0030 00000000 		.word	.LANCHOR8
 3589 0034 00000000 		.word	0
 3590              		.cfi_endproc
 3591              	.LFE334:
ARM GAS  /tmp/ccjtIDd2.s 			page 64


 3592              		.size	mc_interface_get_tot_current_directional_filtered, .-mc_interface_get_tot_current_directiona
 3593              		.section	.text.mc_interface_get_max_proz_now,"ax",%progbits
 3594              		.align	1
 3595              		.p2align 4,,15
 3596              		.global	mc_interface_get_max_proz_now
 3597              		.syntax unified
 3598              		.thumb
 3599              		.thumb_func
 3600              		.fpu fpv4-sp-d16
 3601              		.type	mc_interface_get_max_proz_now, %function
 3602              	mc_interface_get_max_proz_now:
 3603              	.LFB335:
 3604              		.loc 1 1265 0
 3605              		.cfi_startproc
 3606              		@ args = 0, pretend = 0, frame = 0
 3607              		@ frame_needed = 0, uses_anonymous_args = 0
 3608              		@ link register save eliminated.
 3609              	.LVL180:
 3610              		.loc 1 1267 0
 3611 0000 0A4B     		ldr	r3, .L433
 3612 0002 DFED0B7A 		vldr.32	s15, .L433+4
 3613 0006 D3ED1B5A 		vldr.32	s11, [r3, #108]
 3614 000a 93ED016A 		vldr.32	s12, [r3, #4]
 3615 000e D3ED1D6A 		vldr.32	s13, [r3, #116]
 3616 0012 93ED037A 		vldr.32	s14, [r3, #12]
 3617 0016 85EE860A 		vdiv.f32	s0, s11, s12
 3618 001a C6EE870A 		vdiv.f32	s1, s13, s14
 3619 001e 20EE270A 		vmul.f32	s0, s0, s15
 3620 0022 60EEA70A 		vmul.f32	s1, s1, s15
 3621 0026 FFF7FEBF 		b	utils_min_abs
 3622              	.LVL181:
 3623              	.L434:
 3624 002a 00BF     		.align	2
 3625              	.L433:
 3626 002c 00000000 		.word	.LANCHOR8
 3627 0030 0000C842 		.word	1120403456
 3628              		.cfi_endproc
 3629              	.LFE335:
 3630              		.size	mc_interface_get_max_proz_now, .-mc_interface_get_max_proz_now
 3631              		.section	.text.mc_interface_get_min_proz_now,"ax",%progbits
 3632              		.align	1
 3633              		.p2align 4,,15
 3634              		.global	mc_interface_get_min_proz_now
 3635              		.syntax unified
 3636              		.thumb
 3637              		.thumb_func
 3638              		.fpu fpv4-sp-d16
 3639              		.type	mc_interface_get_min_proz_now, %function
 3640              	mc_interface_get_min_proz_now:
 3641              	.LFB336:
 3642              		.loc 1 1271 0
 3643              		.cfi_startproc
 3644              		@ args = 0, pretend = 0, frame = 0
 3645              		@ frame_needed = 0, uses_anonymous_args = 0
 3646              		@ link register save eliminated.
 3647              	.LVL182:
 3648              		.loc 1 1273 0
ARM GAS  /tmp/ccjtIDd2.s 			page 65


 3649 0000 0A4B     		ldr	r3, .L436
 3650 0002 DFED0B7A 		vldr.32	s15, .L436+4
 3651 0006 D3ED1C5A 		vldr.32	s11, [r3, #112]
 3652 000a 93ED026A 		vldr.32	s12, [r3, #8]
 3653 000e D3ED1E6A 		vldr.32	s13, [r3, #120]
 3654 0012 93ED047A 		vldr.32	s14, [r3, #16]
 3655 0016 85EE860A 		vdiv.f32	s0, s11, s12
 3656 001a C6EE870A 		vdiv.f32	s1, s13, s14
 3657 001e 20EE270A 		vmul.f32	s0, s0, s15
 3658 0022 60EEA70A 		vmul.f32	s1, s1, s15
 3659 0026 FFF7FEBF 		b	utils_min_abs
 3660              	.LVL183:
 3661              	.L437:
 3662 002a 00BF     		.align	2
 3663              	.L436:
 3664 002c 00000000 		.word	.LANCHOR8
 3665 0030 0000C842 		.word	1120403456
 3666              		.cfi_endproc
 3667              	.LFE336:
 3668              		.size	mc_interface_get_min_proz_now, .-mc_interface_get_min_proz_now
 3669              		.section	.text.mc_interface_get_tot_current_in,"ax",%progbits
 3670              		.align	1
 3671              		.p2align 4,,15
 3672              		.global	mc_interface_get_tot_current_in
 3673              		.syntax unified
 3674              		.thumb
 3675              		.thumb_func
 3676              		.fpu fpv4-sp-d16
 3677              		.type	mc_interface_get_tot_current_in, %function
 3678              	mc_interface_get_tot_current_in:
 3679              	.LFB337:
 3680              		.loc 1 1277 0
 3681              		.cfi_startproc
 3682              		@ args = 0, pretend = 0, frame = 0
 3683              		@ frame_needed = 0, uses_anonymous_args = 0
 3684              		@ link register save eliminated.
 3685              	.LVL184:
 3686              		.loc 1 1280 0
 3687 0000 064B     		ldr	r3, .L444
 3688 0002 9B78     		ldrb	r3, [r3, #2]	@ zero_extendqisi2
 3689 0004 DBB2     		uxtb	r3, r3
 3690 0006 012B     		cmp	r3, #1
 3691 0008 06D9     		bls	.L440
 3692 000a 022B     		cmp	r3, #2
 3693 000c 01D1     		bne	.L443
 3694              		.loc 1 1287 0
 3695 000e FFF7FEBF 		b	mcpwm_foc_get_tot_current_in
 3696              	.LVL185:
 3697              	.L443:
 3698              		.loc 1 1295 0
 3699 0012 9FED030A 		vldr.32	s0, .L444+4
 3700 0016 7047     		bx	lr
 3701              	.L440:
 3702              		.loc 1 1283 0
 3703 0018 FFF7FEBF 		b	mcpwm_get_tot_current_in
 3704              	.LVL186:
 3705              	.L445:
ARM GAS  /tmp/ccjtIDd2.s 			page 66


 3706              		.align	2
 3707              	.L444:
 3708 001c 00000000 		.word	.LANCHOR8
 3709 0020 00000000 		.word	0
 3710              		.cfi_endproc
 3711              	.LFE337:
 3712              		.size	mc_interface_get_tot_current_in, .-mc_interface_get_tot_current_in
 3713              		.section	.text.mc_interface_get_tot_current_in_filtered,"ax",%progbits
 3714              		.align	1
 3715              		.p2align 4,,15
 3716              		.global	mc_interface_get_tot_current_in_filtered
 3717              		.syntax unified
 3718              		.thumb
 3719              		.thumb_func
 3720              		.fpu fpv4-sp-d16
 3721              		.type	mc_interface_get_tot_current_in_filtered, %function
 3722              	mc_interface_get_tot_current_in_filtered:
 3723              	.LFB338:
 3724              		.loc 1 1297 0
 3725              		.cfi_startproc
 3726              		@ args = 0, pretend = 0, frame = 0
 3727              		@ frame_needed = 0, uses_anonymous_args = 0
 3728              		@ link register save eliminated.
 3729              	.LVL187:
 3730              		.loc 1 1300 0
 3731 0000 0B4B     		ldr	r3, .L452
 3732 0002 9B78     		ldrb	r3, [r3, #2]	@ zero_extendqisi2
 3733 0004 DBB2     		uxtb	r3, r3
 3734 0006 012B     		cmp	r3, #1
 3735 0008 10D9     		bls	.L448
 3736 000a 022B     		cmp	r3, #2
 3737 000c 02D0     		beq	.L449
 3738              		.loc 1 1298 0
 3739 000e 9FED090A 		vldr.32	s0, .L452+4
 3740              	.L446:
 3741              		.loc 1 1318 0
 3742 0012 7047     		bx	lr
 3743              	.L449:
 3744              	.LBB324:
 3745              	.LBB325:
 3746              	.LBB326:
 3747              	.LBB327:
 3748              		.loc 1 681 0
 3749 0014 084B     		ldr	r3, .L452+8
 3750              	.LBE327:
 3751              	.LBE326:
 3752              		.loc 1 1308 0
 3753 0016 DFED097A 		vldr.32	s15, .L452+12
 3754              	.LBB329:
 3755              	.LBB328:
 3756              		.loc 1 681 0
 3757 001a 93ED000A 		vldr.32	s0, [r3]
 3758              	.LBE328:
 3759              	.LBE329:
 3760              		.loc 1 1308 0
 3761 001e B4EE670A 		vcmp.f32	s0, s15
 3762 0022 F1EE10FA 		vmrs	APSR_nzcv, FPSCR
ARM GAS  /tmp/ccjtIDd2.s 			page 67


 3763 0026 F4D1     		bne	.L446
 3764              		.loc 1 1309 0
 3765 0028 FFF7FEBF 		b	mcpwm_foc_get_tot_current_in_filtered
 3766              	.LVL188:
 3767              	.L448:
 3768              	.LBE325:
 3769              	.LBE324:
 3770              		.loc 1 1303 0
 3771 002c FFF7FEBF 		b	mcpwm_get_tot_current_in_filtered
 3772              	.LVL189:
 3773              	.L453:
 3774              		.align	2
 3775              	.L452:
 3776 0030 00000000 		.word	.LANCHOR8
 3777 0034 00000000 		.word	0
 3778 0038 00000000 		.word	.LANCHOR47
 3779 003c 9A3F1C46 		.word	1176256410
 3780              		.cfi_endproc
 3781              	.LFE338:
 3782              		.size	mc_interface_get_tot_current_in_filtered, .-mc_interface_get_tot_current_in_filtered
 3783              		.section	.text.mc_interface_get_abs_motor_current_unbalance,"ax",%progbits
 3784              		.align	1
 3785              		.p2align 4,,15
 3786              		.global	mc_interface_get_abs_motor_current_unbalance
 3787              		.syntax unified
 3788              		.thumb
 3789              		.thumb_func
 3790              		.fpu fpv4-sp-d16
 3791              		.type	mc_interface_get_abs_motor_current_unbalance, %function
 3792              	mc_interface_get_abs_motor_current_unbalance:
 3793              	.LFB339:
 3794              		.loc 1 1320 0
 3795              		.cfi_startproc
 3796              		@ args = 0, pretend = 0, frame = 0
 3797              		@ frame_needed = 0, uses_anonymous_args = 0
 3798              		@ link register save eliminated.
 3799              	.LVL190:
 3800              		.loc 1 1324 0
 3801 0000 044B     		ldr	r3, .L458
 3802 0002 9B78     		ldrb	r3, [r3, #2]	@ zero_extendqisi2
 3803 0004 022B     		cmp	r3, #2
 3804 0006 01D1     		bne	.L457
 3805              		.loc 1 1330 0
 3806 0008 FFF7FEBF 		b	mcpwm_foc_get_abs_motor_current_unbalance
 3807              	.LVL191:
 3808              	.L457:
 3809              		.loc 1 1338 0
 3810 000c 9FED020A 		vldr.32	s0, .L458+4
 3811 0010 7047     		bx	lr
 3812              	.L459:
 3813 0012 00BF     		.align	2
 3814              	.L458:
 3815 0014 00000000 		.word	.LANCHOR8
 3816 0018 00000000 		.word	0
 3817              		.cfi_endproc
 3818              	.LFE339:
 3819              		.size	mc_interface_get_abs_motor_current_unbalance, .-mc_interface_get_abs_motor_current_unbalance
ARM GAS  /tmp/ccjtIDd2.s 			page 68


 3820              		.section	.text.mc_interface_set_tachometer_value,"ax",%progbits
 3821              		.align	1
 3822              		.p2align 4,,15
 3823              		.global	mc_interface_set_tachometer_value
 3824              		.syntax unified
 3825              		.thumb
 3826              		.thumb_func
 3827              		.fpu fpv4-sp-d16
 3828              		.type	mc_interface_set_tachometer_value, %function
 3829              	mc_interface_set_tachometer_value:
 3830              	.LFB340:
 3831              		.loc 1 1341 0
 3832              		.cfi_startproc
 3833              		@ args = 0, pretend = 0, frame = 8
 3834              		@ frame_needed = 0, uses_anonymous_args = 0
 3835              	.LVL192:
 3836 0000 10B5     		push	{r4, lr}
 3837              		.cfi_def_cfa_offset 8
 3838              		.cfi_offset 4, -8
 3839              		.cfi_offset 14, -4
 3840              		.loc 1 1343 0
 3841 0002 264C     		ldr	r4, .L475
 3842 0004 A378     		ldrb	r3, [r4, #2]	@ zero_extendqisi2
 3843              		.loc 1 1341 0
 3844 0006 82B0     		sub	sp, sp, #8
 3845              		.cfi_def_cfa_offset 16
 3846              		.loc 1 1343 0
 3847 0008 DBB2     		uxtb	r3, r3
 3848 000a 012B     		cmp	r3, #1
 3849              		.loc 1 1341 0
 3850 000c 0190     		str	r0, [sp, #4]
 3851              		.loc 1 1343 0
 3852 000e 29D9     		bls	.L462
 3853 0010 022B     		cmp	r3, #2
 3854 0012 0CD0     		beq	.L463
 3855 0014 DFED227A 		vldr.32	s15, .L475+4
 3856              	.LVL193:
 3857              	.L461:
 3858              		.loc 1 1358 0
 3859 0018 94F89931 		ldrb	r3, [r4, #409]	@ zero_extendqisi2
 3860 001c 0BB1     		cbz	r3, .L466
 3861 001e F1EE677A 		vneg.f32	s15, s15
 3862              	.L466:
 3863              		.loc 1 1359 0 discriminator 4
 3864 0022 FDEEE77A 		vcvt.s32.f32	s15, s15
 3865 0026 17EE900A 		vmov	r0, s15	@ int
 3866 002a 02B0     		add	sp, sp, #8
 3867              		.cfi_remember_state
 3868              		.cfi_def_cfa_offset 8
 3869              		@ sp needed
 3870 002c 10BD     		pop	{r4, pc}
 3871              	.LVL194:
 3872              	.L463:
 3873              		.cfi_restore_state
 3874              		.loc 1 1351 0
 3875 002e 94F89931 		ldrb	r3, [r4, #409]	@ zero_extendqisi2
 3876 0032 DDED017A 		vldr.32	s15, [sp, #4]	@ int
ARM GAS  /tmp/ccjtIDd2.s 			page 69


 3877 0036 002B     		cmp	r3, #0
 3878 0038 FFEE006A 		vmov.f32	s13, #-1.0e+0
 3879 003c B7EE007A 		vmov.f32	s14, #1.0e+0
 3880 0040 F8EEE77A 		vcvt.f32.s32	s15, s15
 3881 0044 18BF     		it	ne
 3882 0046 B0EE667A 		vmovne.f32	s14, s13
 3883 004a 67EE877A 		vmul.f32	s15, s15, s14
 3884 004e FDEEE77A 		vcvt.s32.f32	s15, s15
 3885 0052 17EE900A 		vmov	r0, s15	@ int
 3886              	.LVL195:
 3887 0056 FFF7FEFF 		bl	mcpwm_foc_set_tachometer_value
 3888              	.LVL196:
 3889 005a 07EE900A 		vmov	s15, r0	@ int
 3890 005e F8EEE77A 		vcvt.f32.s32	s15, s15
 3891              		.loc 1 1352 0
 3892 0062 D9E7     		b	.L461
 3893              	.LVL197:
 3894              	.L462:
 3895              		.loc 1 1347 0
 3896 0064 94F89931 		ldrb	r3, [r4, #409]	@ zero_extendqisi2
 3897 0068 DDED017A 		vldr.32	s15, [sp, #4]	@ int
 3898 006c 002B     		cmp	r3, #0
 3899 006e FFEE006A 		vmov.f32	s13, #-1.0e+0
 3900 0072 B7EE007A 		vmov.f32	s14, #1.0e+0
 3901 0076 F8EEE77A 		vcvt.f32.s32	s15, s15
 3902 007a 18BF     		it	ne
 3903 007c B0EE667A 		vmovne.f32	s14, s13
 3904 0080 67EE877A 		vmul.f32	s15, s15, s14
 3905 0084 FDEEE77A 		vcvt.s32.f32	s15, s15
 3906 0088 17EE900A 		vmov	r0, s15	@ int
 3907              	.LVL198:
 3908 008c FFF7FEFF 		bl	mcpwm_set_tachometer_value
 3909              	.LVL199:
 3910 0090 07EE900A 		vmov	s15, r0	@ int
 3911 0094 F8EEE77A 		vcvt.f32.s32	s15, s15
 3912              		.loc 1 1348 0
 3913 0098 BEE7     		b	.L461
 3914              	.L476:
 3915 009a 00BF     		.align	2
 3916              	.L475:
 3917 009c 00000000 		.word	.LANCHOR8
 3918 00a0 00000000 		.word	0
 3919              		.cfi_endproc
 3920              	.LFE340:
 3921              		.size	mc_interface_set_tachometer_value, .-mc_interface_set_tachometer_value
 3922              		.section	.text.mc_interface_get_tachometer_value,"ax",%progbits
 3923              		.align	1
 3924              		.p2align 4,,15
 3925              		.global	mc_interface_get_tachometer_value
 3926              		.syntax unified
 3927              		.thumb
 3928              		.thumb_func
 3929              		.fpu fpv4-sp-d16
 3930              		.type	mc_interface_get_tachometer_value, %function
 3931              	mc_interface_get_tachometer_value:
 3932              	.LFB341:
 3933              		.loc 1 1361 0
ARM GAS  /tmp/ccjtIDd2.s 			page 70


 3934              		.cfi_startproc
 3935              		@ args = 0, pretend = 0, frame = 0
 3936              		@ frame_needed = 0, uses_anonymous_args = 0
 3937              	.LVL200:
 3938 0000 10B5     		push	{r4, lr}
 3939              		.cfi_def_cfa_offset 8
 3940              		.cfi_offset 4, -8
 3941              		.cfi_offset 14, -4
 3942              		.loc 1 1364 0
 3943 0002 104C     		ldr	r4, .L488
 3944 0004 A378     		ldrb	r3, [r4, #2]	@ zero_extendqisi2
 3945 0006 DBB2     		uxtb	r3, r3
 3946 0008 012B     		cmp	r3, #1
 3947 000a 14D9     		bls	.L479
 3948 000c 022B     		cmp	r3, #2
 3949 000e 0BD0     		beq	.L480
 3950 0010 DFED0D7A 		vldr.32	s15, .L488+4
 3951              	.LVL201:
 3952              	.L478:
 3953              		.loc 1 1378 0
 3954 0014 94F89931 		ldrb	r3, [r4, #409]	@ zero_extendqisi2
 3955 0018 0BB1     		cbz	r3, .L481
 3956 001a F1EE677A 		vneg.f32	s15, s15
 3957              	.L481:
 3958              		.loc 1 1379 0 discriminator 4
 3959 001e FDEEE77A 		vcvt.s32.f32	s15, s15
 3960 0022 17EE900A 		vmov	r0, s15	@ int
 3961 0026 10BD     		pop	{r4, pc}
 3962              	.LVL202:
 3963              	.L480:
 3964              		.loc 1 1371 0
 3965 0028 FFF7FEFF 		bl	mcpwm_foc_get_tachometer_value
 3966              	.LVL203:
 3967 002c 07EE900A 		vmov	s15, r0	@ int
 3968 0030 F8EEE77A 		vcvt.f32.s32	s15, s15
 3969              		.loc 1 1372 0
 3970 0034 EEE7     		b	.L478
 3971              	.LVL204:
 3972              	.L479:
 3973              		.loc 1 1367 0
 3974 0036 FFF7FEFF 		bl	mcpwm_get_tachometer_value
 3975              	.LVL205:
 3976 003a 07EE900A 		vmov	s15, r0	@ int
 3977 003e F8EEE77A 		vcvt.f32.s32	s15, s15
 3978              		.loc 1 1368 0
 3979 0042 E7E7     		b	.L478
 3980              	.L489:
 3981              		.align	2
 3982              	.L488:
 3983 0044 00000000 		.word	.LANCHOR8
 3984 0048 00000000 		.word	0
 3985              		.cfi_endproc
 3986              	.LFE341:
 3987              		.size	mc_interface_get_tachometer_value, .-mc_interface_get_tachometer_value
 3988              		.section	.text.mc_interface_fault_stop.part.5,"ax",%progbits
 3989              		.align	1
 3990              		.p2align 4,,15
ARM GAS  /tmp/ccjtIDd2.s 			page 71


 3991              		.syntax unified
 3992              		.thumb
 3993              		.thumb_func
 3994              		.fpu fpv4-sp-d16
 3995              		.type	mc_interface_fault_stop.part.5, %function
 3996              	mc_interface_fault_stop.part.5:
 3997              	.LFB379:
 3998              		.loc 1 1846 0
 3999              		.cfi_startproc
 4000              		@ args = 0, pretend = 0, frame = 96
 4001              		@ frame_needed = 0, uses_anonymous_args = 0
 4002              	.LVL206:
 4003 0000 F0B5     		push	{r4, r5, r6, r7, lr}
 4004              		.cfi_def_cfa_offset 20
 4005              		.cfi_offset 4, -20
 4006              		.cfi_offset 5, -16
 4007              		.cfi_offset 6, -12
 4008              		.cfi_offset 7, -8
 4009              		.cfi_offset 14, -4
 4010 0002 99B0     		sub	sp, sp, #100
 4011              		.cfi_def_cfa_offset 120
 4012              		.loc 1 1846 0
 4013 0004 0546     		mov	r5, r0
 4014              		.loc 1 1852 0
 4015 0006 FFF7FEFF 		bl	mc_interface_dccal_done
 4016              	.LVL207:
 4017 000a 524C     		ldr	r4, .L504
 4018 000c 08B1     		cbz	r0, .L491
 4019 000e 2678     		ldrb	r6, [r4]	@ zero_extendqisi2
 4020 0010 CEB1     		cbz	r6, .L502
 4021              	.L491:
 4022              		.loc 1 1902 0
 4023 0012 514B     		ldr	r3, .L504+4
 4024 0014 514A     		ldr	r2, .L504+8
 4025 0016 D3F88811 		ldr	r1, [r3, #392]
 4026              		.loc 1 1906 0
 4027 001a 9B78     		ldrb	r3, [r3, #2]	@ zero_extendqisi2
 4028              		.loc 1 1904 0
 4029 001c 2570     		strb	r5, [r4]
 4030              		.loc 1 1902 0
 4031 001e 1160     		str	r1, [r2]
 4032              		.loc 1 1906 0
 4033 0020 032B     		cmp	r3, #3
 4034 0022 06D8     		bhi	.L490
 4035 0024 DFE803F0 		tbb	[pc, r3]
 4036              	.L495:
 4037 0028 0B       		.byte	(.L494-.L495)/2
 4038 0029 0B       		.byte	(.L494-.L495)/2
 4039 002a 07       		.byte	(.L496-.L495)/2
 4040 002b 02       		.byte	(.L497-.L495)/2
 4041              		.p2align 1
 4042              	.L497:
 4043              		.loc 1 1917 0
 4044 002c 0020     		movs	r0, #0
 4045 002e FFF7FEFF 		bl	gpdrive_set_mode
 4046              	.LVL208:
 4047              	.L490:
ARM GAS  /tmp/ccjtIDd2.s 			page 72


 4048              		.loc 1 1925 0
 4049 0032 19B0     		add	sp, sp, #100
 4050              		.cfi_remember_state
 4051              		.cfi_def_cfa_offset 20
 4052              		@ sp needed
 4053 0034 F0BD     		pop	{r4, r5, r6, r7, pc}
 4054              	.L496:
 4055              		.cfi_restore_state
 4056              		.loc 1 1913 0
 4057 0036 FFF7FEFF 		bl	mcpwm_foc_stop_pwm
 4058              	.LVL209:
 4059              		.loc 1 1925 0
 4060 003a 19B0     		add	sp, sp, #100
 4061              		.cfi_remember_state
 4062              		.cfi_def_cfa_offset 20
 4063              		@ sp needed
 4064 003c F0BD     		pop	{r4, r5, r6, r7, pc}
 4065              	.L494:
 4066              		.cfi_restore_state
 4067              		.loc 1 1909 0
 4068 003e FFF7FEFF 		bl	mcpwm_stop_pwm
 4069              	.LVL210:
 4070              		.loc 1 1925 0
 4071 0042 19B0     		add	sp, sp, #100
 4072              		.cfi_remember_state
 4073              		.cfi_def_cfa_offset 20
 4074              		@ sp needed
 4075 0044 F0BD     		pop	{r4, r5, r6, r7, pc}
 4076              	.L502:
 4077              		.cfi_restore_state
 4078              	.LBB330:
 4079              		.loc 1 1855 0
 4080 0046 FFF7FEFF 		bl	utils_sys_lock_cnt
 4081              	.LVL211:
 4082              		.loc 1 1856 0
 4083 004a 454A     		ldr	r2, .L504+12
 4084              		.loc 1 1857 0
 4085 004c 454B     		ldr	r3, .L504+16
 4086              		.loc 1 1856 0
 4087 004e 526B     		ldr	r2, [r2, #52]
 4088 0050 0192     		str	r2, [sp, #4]
 4089              		.loc 1 1857 0
 4090 0052 1A6C     		ldr	r2, [r3, #64]
 4091 0054 0292     		str	r2, [sp, #8]
 4092              		.loc 1 1858 0
 4093 0056 DB6A     		ldr	r3, [r3, #44]
 4094 0058 0393     		str	r3, [sp, #12]
 4095              		.loc 1 1859 0
 4096 005a FFF7FEFF 		bl	utils_sys_unlock_cnt
 4097              	.LVL212:
 4098              		.loc 1 1862 0
 4099 005e 8DF81050 		strb	r5, [sp, #16]
 4100              		.loc 1 1863 0
 4101 0062 FFF7FEFF 		bl	mc_interface_get_tot_current
 4102              	.LVL213:
 4103              		.loc 1 1865 0
 4104 0066 404F     		ldr	r7, .L504+20
ARM GAS  /tmp/ccjtIDd2.s 			page 73


 4105              		.loc 1 1863 0
 4106 0068 8DED050A 		vstr.32	s0, [sp, #20]
 4107              		.loc 1 1864 0
 4108 006c FFF7FEFF 		bl	mc_interface_get_tot_current_filtered
 4109              	.LVL214:
 4110              	.LBB331:
 4111              	.LBB332:
 4112              		.loc 1 664 0
 4113 0070 3E4A     		ldr	r2, .L504+24
 4114              	.LBE332:
 4115              	.LBE331:
 4116              		.loc 1 1865 0
 4117 0072 FB8A     		ldrh	r3, [r7, #22]
 4118              	.LBB334:
 4119              	.LBB333:
 4120              		.loc 1 664 0
 4121 0074 1268     		ldr	r2, [r2]	@ float
 4122              	.LBE333:
 4123              	.LBE334:
 4124              		.loc 1 1866 0
 4125 0076 0892     		str	r2, [sp, #32]	@ float
 4126              		.loc 1 1865 0
 4127 0078 07EE903A 		vmov	s15, r3	@ int
 4128              	.LBB335:
 4129              	.LBB336:
 4130              		.loc 1 645 0
 4131 007c 3C49     		ldr	r1, .L504+28
 4132              	.LBE336:
 4133              	.LBE335:
 4134              	.LBB341:
 4135              	.LBB342:
 4136              		.loc 1 673 0
 4137 007e 3D4B     		ldr	r3, .L504+32
 4138              	.LBE342:
 4139              	.LBE341:
 4140              	.LBB344:
 4141              	.LBB345:
 4142              		.loc 1 656 0
 4143 0080 3D4A     		ldr	r2, .L504+36
 4144              	.LBE345:
 4145              	.LBE344:
 4146              	.LBB350:
 4147              	.LBB343:
 4148              		.loc 1 673 0
 4149 0082 1B68     		ldr	r3, [r3]	@ float
 4150              	.LBE343:
 4151              	.LBE350:
 4152              		.loc 1 1865 0
 4153 0084 DFED3D5A 		vldr.32	s11, .L504+40
 4154              	.LBB351:
 4155              	.LBB337:
 4156              		.loc 1 645 0
 4157 0088 0988     		ldrh	r1, [r1]
 4158              	.LBE337:
 4159              	.LBE351:
 4160              	.LBB352:
 4161              	.LBB346:
ARM GAS  /tmp/ccjtIDd2.s 			page 74


 4162              		.loc 1 656 0
 4163 008a 1288     		ldrh	r2, [r2]
 4164              	.LBE346:
 4165              	.LBE352:
 4166              		.loc 1 1865 0
 4167 008c 9FED3C6A 		vldr.32	s12, .L504+44
 4168              		.loc 1 1867 0
 4169 0090 0993     		str	r3, [sp, #36]	@ float
 4170              		.loc 1 1865 0
 4171 0092 F8EE677A 		vcvt.f32.u32	s15, s15
 4172              	.LBB353:
 4173              	.LBB338:
 4174              		.loc 1 645 0
 4175 0096 06EE901A 		vmov	s13, r1	@ int
 4176              	.LBE338:
 4177              	.LBE353:
 4178              		.loc 1 1865 0
 4179 009a 67EEA57A 		vmul.f32	s15, s15, s11
 4180              	.LBB354:
 4181              	.LBB347:
 4182              		.loc 1 656 0
 4183 009e 07EE102A 		vmov	s14, r2	@ int
 4184              	.LBE347:
 4185              	.LBE354:
 4186              		.loc 1 1871 0
 4187 00a2 384B     		ldr	r3, .L504+48
 4188              	.LBB355:
 4189              	.LBB356:
 4190              		.loc 1 743 0
 4191 00a4 384A     		ldr	r2, .L504+52
 4192              	.LBE356:
 4193              	.LBE355:
 4194              		.loc 1 1864 0
 4195 00a6 8DED060A 		vstr.32	s0, [sp, #24]
 4196              		.loc 1 1865 0
 4197 00aa 67EE867A 		vmul.f32	s15, s15, s12
 4198              	.LBB358:
 4199              	.LBB339:
 4200              		.loc 1 645 0
 4201 00ae F8EE666A 		vcvt.f32.u32	s13, s13
 4202              	.LBE339:
 4203              	.LBE358:
 4204              	.LBB359:
 4205              	.LBB348:
 4206              		.loc 1 656 0
 4207 00b2 B8EE477A 		vcvt.f32.u32	s14, s14
 4208              	.LBE348:
 4209              	.LBE359:
 4210              	.LBB360:
 4211              	.LBB357:
 4212              		.loc 1 743 0
 4213 00b6 1288     		ldrh	r2, [r2]
 4214              	.LBE357:
 4215              	.LBE360:
 4216              		.loc 1 1871 0
 4217 00b8 1B68     		ldr	r3, [r3]	@ float
 4218              		.loc 1 1865 0
ARM GAS  /tmp/ccjtIDd2.s 			page 75


 4219 00ba CDED077A 		vstr.32	s15, [sp, #28]
 4220              	.LBB361:
 4221              	.LBB340:
 4222              		.loc 1 645 0
 4223 00be CDED0A6A 		vstr.32	s13, [sp, #40]
 4224              	.LBE340:
 4225              	.LBE361:
 4226              	.LBB362:
 4227              	.LBB349:
 4228              		.loc 1 656 0
 4229 00c2 8DED0B7A 		vstr.32	s14, [sp, #44]
 4230              	.LBE349:
 4231              	.LBE362:
 4232              		.loc 1 1870 0
 4233 00c6 0C92     		str	r2, [sp, #48]
 4234              		.loc 1 1871 0
 4235 00c8 0D93     		str	r3, [sp, #52]	@ float
 4236              		.loc 1 1872 0
 4237 00ca FFF7FEFF 		bl	mc_interface_get_duty_cycle_now
 4238              	.LVL215:
 4239 00ce 8DED0E0A 		vstr.32	s0, [sp, #56]
 4240              		.loc 1 1873 0
 4241 00d2 FFF7FEFF 		bl	mc_interface_get_rpm
 4242              	.LVL216:
 4243              		.loc 1 1874 0
 4244 00d6 3046     		mov	r0, r6
 4245              		.loc 1 1873 0
 4246 00d8 8DED0F0A 		vstr.32	s0, [sp, #60]
 4247              		.loc 1 1874 0
 4248 00dc FFF7FEFF 		bl	mc_interface_get_tachometer_value
 4249              	.LVL217:
 4250              		.loc 1 1875 0
 4251 00e0 2A4B     		ldr	r3, .L504+56
 4252              		.loc 1 1874 0
 4253 00e2 1090     		str	r0, [sp, #64]
 4254              		.loc 1 1875 0
 4255 00e4 1868     		ldr	r0, [r3]
 4256              		.loc 1 1876 0
 4257 00e6 0199     		ldr	r1, [sp, #4]
 4258              		.loc 1 1877 0
 4259 00e8 029A     		ldr	r2, [sp, #8]
 4260              		.loc 1 1878 0
 4261 00ea 039B     		ldr	r3, [sp, #12]
 4262              		.loc 1 1876 0
 4263 00ec CDE91101 		strd	r0, r1, [sp, #68]
 4264              		.loc 1 1878 0
 4265 00f0 CDE91323 		strd	r2, r3, [sp, #76]
 4266              		.loc 1 1879 0
 4267 00f4 FFF7FEFF 		bl	mcpwm_get_comm_step
 4268              	.LVL218:
 4269              		.loc 1 1880 0
 4270 00f8 3B8A     		ldrh	r3, [r7, #16]
 4271 00fa DFED256A 		vldr.32	s13, .L504+60
 4272 00fe 9FED250A 		vldr.32	s0, .L504+64
 4273              		.loc 1 1879 0
 4274 0102 1590     		str	r0, [sp, #84]
 4275              		.loc 1 1880 0
ARM GAS  /tmp/ccjtIDd2.s 			page 76


 4276 0104 07EE103A 		vmov	s14, r3	@ int
 4277 0108 B8EEC77A 		vcvt.f32.s32	s14, s14
 4278 010c C6EE877A 		vdiv.f32	s15, s13, s14
 4279 0110 77EEC07A 		vsub.f32	s15, s15, s0
 4280 0114 87EE800A 		vdiv.f32	s0, s15, s0
 4281 0118 FFF7FEFF 		bl	logf
 4282              	.LVL219:
 4283              		.loc 1 1894 0
 4284 011c 032D     		cmp	r5, #3
 4285              		.loc 1 1880 0
 4286 011e DFED1E6A 		vldr.32	s13, .L504+68
 4287 0122 DFED1E7A 		vldr.32	s15, .L504+72
 4288 0126 9FED1E7A 		vldr.32	s14, .L504+76
 4289 012a 80EE260A 		vdiv.f32	s0, s0, s13
 4290 012e F7EE006A 		vmov.f32	s13, #1.0e+0
 4291 0132 30EE270A 		vadd.f32	s0, s0, s15
 4292 0136 C6EE807A 		vdiv.f32	s15, s13, s0
 4293 013a 77EEC77A 		vsub.f32	s15, s15, s14
 4294 013e CDED167A 		vstr.32	s15, [sp, #88]
 4295              		.loc 1 1894 0
 4296 0142 03D0     		beq	.L503
 4297              	.L492:
 4298              		.loc 1 1899 0
 4299 0144 04A8     		add	r0, sp, #16
 4300 0146 FFF7FEFF 		bl	terminal_add_fault_data
 4301              	.LVL220:
 4302 014a 62E7     		b	.L491
 4303              	.L503:
 4304              		.loc 1 1896 0
 4305 014c FFF7FEFF 		bl	drv8350_read_faults
 4306              	.LVL221:
 4307 0150 1790     		str	r0, [sp, #92]
 4308 0152 F7E7     		b	.L492
 4309              	.L505:
 4310              		.align	2
 4311              	.L504:
 4312 0154 00000000 		.word	.LANCHOR10
 4313 0158 00000000 		.word	.LANCHOR8
 4314 015c 00000000 		.word	.LANCHOR12
 4315 0160 00040140 		.word	1073808384
 4316 0164 00000140 		.word	1073807360
 4317 0168 00000000 		.word	.LANCHOR62
 4318 016c 00000000 		.word	.LANCHOR49
 4319 0170 00000000 		.word	.LANCHOR46
 4320 0174 00000000 		.word	.LANCHOR48
 4321 0178 00000000 		.word	.LANCHOR45
 4322 017c C07B523A 		.word	978484160
 4323 0180 BAE8B241 		.word	1102244026
 4324 0184 00000000 		.word	.LANCHOR36
 4325 0188 00000000 		.word	.LANCHOR52
 4326 018c 00000000 		.word	.LANCHOR13
 4327 0190 3C361C4C 		.word	1276917308
 4328 0194 00401C46 		.word	1176256512
 4329 0198 00405345 		.word	1163083776
 4330 019c 0FCF5B3B 		.word	995872527
 4331 01a0 33938843 		.word	1133024051
 4332              	.LBE330:
ARM GAS  /tmp/ccjtIDd2.s 			page 77


 4333              		.cfi_endproc
 4334              	.LFE379:
 4335              		.size	mc_interface_fault_stop.part.5, .-mc_interface_fault_stop.part.5
 4336              		.section	.text.update_override_limits.constprop.6,"ax",%progbits
 4337              		.align	1
 4338              		.p2align 4,,15
 4339              		.syntax unified
 4340              		.thumb
 4341              		.thumb_func
 4342              		.fpu fpv4-sp-d16
 4343              		.type	update_override_limits.constprop.6, %function
 4344              	update_override_limits.constprop.6:
 4345              	.LFB380:
 4346              		.loc 1 2300 0
 4347              		.cfi_startproc
 4348              		@ args = 0, pretend = 0, frame = 16
 4349              		@ frame_needed = 0, uses_anonymous_args = 0
 4350              	.LVL222:
 4351 0000 2DE9F047 		push	{r4, r5, r6, r7, r8, r9, r10, lr}
 4352              		.cfi_def_cfa_offset 32
 4353              		.cfi_offset 4, -32
 4354              		.cfi_offset 5, -28
 4355              		.cfi_offset 6, -24
 4356              		.cfi_offset 7, -20
 4357              		.cfi_offset 8, -16
 4358              		.cfi_offset 9, -12
 4359              		.cfi_offset 10, -8
 4360              		.cfi_offset 14, -4
 4361              		.loc 1 2301 0
 4362 0004 B54F     		ldr	r7, .L692
 4363 0006 DFEDB64A 		vldr.32	s9, .L692+4
 4364 000a FB8A     		ldrh	r3, [r7, #22]
 4365 000c 9FEDB55A 		vldr.32	s10, .L692+8
 4366              		.loc 1 2315 0
 4367 0010 B54D     		ldr	r5, .L692+12
 4368              		.loc 1 2303 0
 4369 0012 B64E     		ldr	r6, .L692+16
 4370              		.loc 1 2315 0
 4371 0014 D5ED006A 		vldr.32	s13, [r5]
 4372              		.loc 1 2303 0
 4373 0018 96ED007A 		vldr.32	s14, [r6]
 4374              		.loc 1 2315 0
 4375 001c DFEDB45A 		vldr.32	s11, .L692+20
 4376 0020 B449     		ldr	r1, .L692+24
 4377              		.loc 1 2301 0
 4378 0022 07EE903A 		vmov	s15, r3	@ int
 4379 0026 F8EE677A 		vcvt.f32.u32	s15, s15
 4380              		.loc 1 2303 0
 4381 002a B6EE006A 		vmov.f32	s12, #5.0e-1
 4382              		.loc 1 2301 0
 4383 002e 67EEA47A 		vmul.f32	s15, s15, s9
 4384              		.loc 1 2303 0
 4385 0032 27EE067A 		vmul.f32	s14, s14, s12
 4386              		.loc 1 2301 0
 4387 0036 67EE857A 		vmul.f32	s15, s15, s10
 4388              	.LVL223:
 4389              		.loc 1 2300 0
ARM GAS  /tmp/ccjtIDd2.s 			page 78


 4390 003a 2DED0E8B 		vpush.64	{d8, d9, d10, d11, d12, d13, d14}
 4391              		.cfi_def_cfa_offset 88
 4392              		.cfi_offset 80, -88
 4393              		.cfi_offset 81, -84
 4394              		.cfi_offset 82, -80
 4395              		.cfi_offset 83, -76
 4396              		.cfi_offset 84, -72
 4397              		.cfi_offset 85, -68
 4398              		.cfi_offset 86, -64
 4399              		.cfi_offset 87, -60
 4400              		.cfi_offset 88, -56
 4401              		.cfi_offset 89, -52
 4402              		.cfi_offset 90, -48
 4403              		.cfi_offset 91, -44
 4404              		.cfi_offset 92, -40
 4405              		.cfi_offset 93, -36
 4406              		.loc 1 2315 0
 4407 003e 36EEE75A 		vsub.f32	s10, s13, s15
 4408              		.loc 1 2303 0
 4409 0042 A7EE867A 		vfma.f32	s14, s15, s12
 4410              		.loc 1 2300 0
 4411 0046 84B0     		sub	sp, sp, #16
 4412              		.cfi_def_cfa_offset 104
 4413              	.LBB363:
 4414              	.LBB364:
 4415              	.LBB365:
 4416              		.loc 1 691 0
 4417 0048 0023     		movs	r3, #0
 4418              	.LBE365:
 4419              	.LBE364:
 4420              	.LBE363:
 4421              		.loc 1 2315 0
 4422 004a E5EE656A 		vfms.f32	s13, s10, s11
 4423              	.LBB369:
 4424              	.LBB367:
 4425              		.loc 1 689 0
 4426 004e 9FEDAA8A 		vldr.32	s16, .L692+28
 4427              	.LBE367:
 4428              	.LBE369:
 4429              		.loc 1 2303 0
 4430 0052 86ED007A 		vstr.32	s14, [r6]
 4431              		.loc 1 2315 0
 4432 0056 C5ED006A 		vstr.32	s13, [r5]
 4433              	.LVL224:
 4434              	.L510:
 4435              	.LBB370:
 4436              	.LBB368:
 4437              	.LBB366:
 4438              		.loc 1 692 0
 4439 005a 01EB8302 		add	r2, r1, r3, lsl #2
 4440 005e D2ED007A 		vldr.32	s15, [r2]
 4441 0062 F4EEC87A 		vcmpe.f32	s15, s16
 4442 0066 F1EE10FA 		vmrs	APSR_nzcv, FPSCR
 4443              		.loc 1 691 0
 4444 006a 03F10103 		add	r3, r3, #1
 4445              	.LVL225:
 4446              		.loc 1 692 0
ARM GAS  /tmp/ccjtIDd2.s 			page 79


 4447 006e 08D5     		bpl	.L507
 4448 0070 D2ED007A 		vldr.32	s15, [r2]
 4449 0074 F5EEC07A 		vcmpe.f32	s15, #0
 4450 0078 F1EE10FA 		vmrs	APSR_nzcv, FPSCR
 4451              		.loc 1 693 0
 4452 007c C8BF     		it	gt
 4453 007e 92ED008A 		vldrgt.32	s16, [r2]
 4454              	.LVL226:
 4455              	.L507:
 4456              		.loc 1 691 0
 4457 0082 112B     		cmp	r3, #17
 4458 0084 E9D1     		bne	.L510
 4459              	.LBE366:
 4460              	.LBE368:
 4461              	.LBE370:
 4462              	.LBB371:
 4463              	.LBB372:
 4464              		.loc 1 699 0
 4465 0086 DFEDB68A 		vldr.32	s17, .L692+132
 4466              	.LBB373:
 4467              		.loc 1 701 0
 4468 008a 0023     		movs	r3, #0
 4469              	.LVL227:
 4470              		.loc 1 702 0
 4471 008c B1EE087A 		vmov.f32	s14, #6.0e+0
 4472              	.L514:
 4473              	.LVL228:
 4474 0090 01EB8302 		add	r2, r1, r3, lsl #2
 4475 0094 D2ED007A 		vldr.32	s15, [r2]
 4476 0098 F4EEE87A 		vcmpe.f32	s15, s17
 4477 009c F1EE10FA 		vmrs	APSR_nzcv, FPSCR
 4478              		.loc 1 701 0
 4479 00a0 03F10103 		add	r3, r3, #1
 4480              	.LVL229:
 4481              		.loc 1 702 0
 4482 00a4 08DD     		ble	.L511
 4483 00a6 D2ED007A 		vldr.32	s15, [r2]
 4484 00aa F4EEC77A 		vcmpe.f32	s15, s14
 4485 00ae F1EE10FA 		vmrs	APSR_nzcv, FPSCR
 4486              		.loc 1 703 0
 4487 00b2 48BF     		it	mi
 4488 00b4 D2ED008A 		vldrmi.32	s17, [r2]
 4489              	.LVL230:
 4490              	.L511:
 4491              		.loc 1 701 0
 4492 00b8 112B     		cmp	r3, #17
 4493 00ba E9D1     		bne	.L514
 4494              	.LBE373:
 4495              	.LBE372:
 4496              	.LBE371:
 4497              	.LBB374:
 4498              	.LBB375:
 4499              		.loc 1 718 0
 4500 00bc DFED8F9A 		vldr.32	s19, .L692+32
 4501 00c0 8F49     		ldr	r1, .L692+36
 4502              	.LBB376:
 4503              		.loc 1 721 0
ARM GAS  /tmp/ccjtIDd2.s 			page 80


 4504 00c2 9FED907A 		vldr.32	s14, .L692+40
 4505              		.loc 1 720 0
 4506 00c6 0023     		movs	r3, #0
 4507              	.LVL231:
 4508              	.L518:
 4509              		.loc 1 721 0
 4510 00c8 01EB8302 		add	r2, r1, r3, lsl #2
 4511 00cc D2ED007A 		vldr.32	s15, [r2]
 4512 00d0 F4EEE97A 		vcmpe.f32	s15, s19
 4513 00d4 F1EE10FA 		vmrs	APSR_nzcv, FPSCR
 4514              		.loc 1 720 0
 4515 00d8 03F10103 		add	r3, r3, #1
 4516              	.LVL232:
 4517              		.loc 1 721 0
 4518 00dc 08D5     		bpl	.L515
 4519 00de D2ED007A 		vldr.32	s15, [r2]
 4520 00e2 F4EEC77A 		vcmpe.f32	s15, s14
 4521 00e6 F1EE10FA 		vmrs	APSR_nzcv, FPSCR
 4522              		.loc 1 722 0
 4523 00ea C8BF     		it	gt
 4524 00ec D2ED009A 		vldrgt.32	s19, [r2]
 4525              	.LVL233:
 4526              	.L515:
 4527              		.loc 1 720 0
 4528 00f0 052B     		cmp	r3, #5
 4529 00f2 E9D1     		bne	.L518
 4530              	.LBE376:
 4531              	.LBE375:
 4532              	.LBE374:
 4533              	.LBB377:
 4534              	.LBB378:
 4535              		.loc 1 728 0
 4536 00f4 9FED839A 		vldr.32	s18, .L692+40
 4537              	.LBB379:
 4538              		.loc 1 730 0
 4539 00f8 0023     		movs	r3, #0
 4540              	.LVL234:
 4541              		.loc 1 731 0
 4542 00fa B0EE497A 		vmov.f32	s14, s18
 4543              	.L522:
 4544              	.LVL235:
 4545 00fe 01EB8302 		add	r2, r1, r3, lsl #2
 4546 0102 D2ED007A 		vldr.32	s15, [r2]
 4547 0106 F4EEC97A 		vcmpe.f32	s15, s18
 4548 010a F1EE10FA 		vmrs	APSR_nzcv, FPSCR
 4549              		.loc 1 730 0
 4550 010e 03F10103 		add	r3, r3, #1
 4551              	.LVL236:
 4552              		.loc 1 731 0
 4553 0112 08DD     		ble	.L519
 4554 0114 D2ED007A 		vldr.32	s15, [r2]
 4555 0118 F4EEC77A 		vcmpe.f32	s15, s14
 4556 011c F1EE10FA 		vmrs	APSR_nzcv, FPSCR
 4557              		.loc 1 732 0
 4558 0120 C8BF     		it	gt
 4559 0122 92ED009A 		vldrgt.32	s18, [r2]
 4560              	.LVL237:
ARM GAS  /tmp/ccjtIDd2.s 			page 81


 4561              	.L519:
 4562              		.loc 1 730 0
 4563 0126 062B     		cmp	r3, #6
 4564 0128 E9D1     		bne	.L522
 4565              	.LVL238:
 4566              	.LBE379:
 4567              	.LBE378:
 4568              	.LBE377:
 4569              		.loc 1 2323 0
 4570 012a FFF7FEFF 		bl	mc_interface_get_rpm
 4571              	.LVL239:
 4572              		.loc 1 2326 0
 4573 012e 764B     		ldr	r3, .L692+44
 4574 0130 764C     		ldr	r4, .L692+48
 4575 0132 93ED00AA 		vldr.32	s20, [r3]
 4576 0136 D4ED567A 		vldr.32	s15, [r4, #344]
 4577              		.loc 1 2337 0
 4578 013a DFF81892 		ldr	r9, .L692+120
 4579              		.loc 1 2335 0
 4580 013e DFF818A2 		ldr	r10, .L692+124
 4581              		.loc 1 2337 0
 4582 0142 DFED73AA 		vldr.32	s21, .L692+52
 4583 0146 9FED73CA 		vldr.32	s24, .L692+56
 4584 014a DFED73BA 		vldr.32	s23, .L692+60
 4585              		.loc 1 2326 0
 4586 014e 3AEE400A 		vsub.f32	s0, s20, s0
 4587              	.LVL240:
 4588              		.loc 1 2337 0
 4589 0152 F7EE00CA 		vmov.f32	s25, #1.0e+0
 4590              		.loc 1 2326 0
 4591 0156 A7EEC0AA 		vfms.f32	s20, s15, s0
 4592 015a 83ED00AA 		vstr.32	s20, [r3]
 4593              	.LVL241:
 4594              		.loc 1 2329 0
 4595 015e FFF7FEFF 		bl	mc_interface_get_duty_cycle_now
 4596              	.LVL242:
 4597              		.loc 1 2335 0
 4598 0162 FFF7FEFF 		bl	mcpwm_foc_get_mod_q_now
 4599              	.LVL243:
 4600              		.loc 1 2337 0
 4601 0166 99ED00BA 		vldr.32	s22, [r9]
 4602 016a 3B8A     		ldrh	r3, [r7, #16]
 4603              		.loc 1 2335 0
 4604 016c DAED007A 		vldr.32	s15, [r10]
 4605              		.loc 1 2337 0
 4606 0170 DFED6A5A 		vldr.32	s11, .L692+64
 4607              		.loc 1 2335 0
 4608 0174 9FED6A7A 		vldr.32	s14, .L692+68
 4609 0178 9FED6A6A 		vldr.32	s12, .L692+72
 4610              		.loc 1 2337 0
 4611 017c 06EE903A 		vmov	s13, r3	@ int
 4612 0180 F8EEE66A 		vcvt.f32.s32	s13, s13
 4613              		.loc 1 2335 0
 4614 0184 67EE877A 		vmul.f32	s15, s15, s14
 4615              		.loc 1 2337 0
 4616 0188 85EEA67A 		vdiv.f32	s14, s11, s13
 4617              		.loc 1 2335 0
ARM GAS  /tmp/ccjtIDd2.s 			page 82


 4618 018c B0EEC00A 		vabs.f32	s0, s0
 4619 0190 E0EE067A 		vfma.f32	s15, s0, s12
 4620              		.loc 1 2337 0
 4621 0194 37EE6A0A 		vsub.f32	s0, s14, s21
 4622              		.loc 1 2335 0
 4623 0198 CAED007A 		vstr.32	s15, [r10]
 4624              		.loc 1 2337 0
 4625 019c 80EE2A0A 		vdiv.f32	s0, s0, s21
 4626 01a0 FFF7FEFF 		bl	logf
 4627              	.LVL244:
 4628 01a4 9FED607A 		vldr.32	s14, .L692+76
 4629 01a8 D9ED007A 		vldr.32	s15, [r9]
 4630 01ac 9FED5F6A 		vldr.32	s12, .L692+80
 4631              		.loc 1 2341 0
 4632 01b0 DFED5F6A 		vldr.32	s13, .L692+84
 4633              		.loc 1 2337 0
 4634 01b4 80EE070A 		vdiv.f32	s0, s0, s14
 4635 01b8 30EE0C0A 		vadd.f32	s0, s0, s24
 4636 01bc 8CEE807A 		vdiv.f32	s14, s25, s0
 4637 01c0 37EE6B7A 		vsub.f32	s14, s14, s23
 4638 01c4 3BEE47BA 		vsub.f32	s22, s22, s14
 4639 01c8 EBEE467A 		vfms.f32	s15, s22, s12
 4640 01cc C9ED007A 		vstr.32	s15, [r9]
 4641              		.loc 1 2341 0
 4642 01d0 D4ED6B7A 		vldr.32	s15, [r4, #428]
 4643 01d4 F4EE667A 		vcmp.f32	s15, s13
 4644 01d8 F1EE10FA 		vmrs	APSR_nzcv, FPSCR
 4645 01dc 40F0B684 		bne	.L523
 4646              	.LVL245:
 4647              	.LBB380:
 4648              		.loc 1 2343 0
 4649 01e0 7B8A     		ldrh	r3, [r7, #18]
 4650 01e2 DFED546A 		vldr.32	s13, .L692+88
 4651              		.loc 1 2345 0
 4652 01e6 DFED547A 		vldr.32	s15, .L692+92
 4653 01ea 9FED543A 		vldr.32	s6, .L692+96
 4654 01ee DFED543A 		vldr.32	s7, .L692+100
 4655              		.loc 1 2347 0
 4656 01f2 DFF86881 		ldr	r8, .L692+128
 4657              		.loc 1 2345 0
 4658 01f6 9FED534A 		vldr.32	s8, .L692+104
 4659              		.loc 1 2347 0
 4660 01fa D8ED005A 		vldr.32	s11, [r8]
 4661 01fe DFED524A 		vldr.32	s9, .L692+108
 4662 0202 98ED006A 		vldr.32	s12, [r8]
 4663              		.loc 1 2343 0
 4664 0206 05EE103A 		vmov	s10, r3	@ int
 4665 020a B8EE455A 		vcvt.f32.u32	s10, s10
 4666 020e 86EE857A 		vdiv.f32	s14, s13, s10
 4667 0212 77EE6CCA 		vsub.f32	s25, s14, s25
 4668 0216 8AEEAC7A 		vdiv.f32	s14, s21, s25
 4669              	.LVL246:
 4670              		.loc 1 2344 0
 4671 021a 67EE076A 		vmul.f32	s13, s14, s14
 4672              	.LVL247:
 4673              		.loc 1 2345 0
 4674 021e 67EEE67A 		vnmul.f32	s15, s15, s13
ARM GAS  /tmp/ccjtIDd2.s 			page 83


 4675 0222 66EE836A 		vmul.f32	s13, s13, s6
 4676              	.LVL248:
 4677 0226 E7EE267A 		vfma.f32	s15, s14, s13
 4678 022a E7EE237A 		vfma.f32	s15, s14, s7
 4679 022e 77EEC47A 		vsub.f32	s15, s15, s8
 4680              		.loc 1 2347 0
 4681 0232 75EEE77A 		vsub.f32	s15, s11, s15
 4682 0236 A7EEE46A 		vfms.f32	s12, s15, s9
 4683 023a 88ED006A 		vstr.32	s12, [r8]
 4684              	.LVL249:
 4685              	.L524:
 4686              	.LBE380:
 4687              		.loc 1 2368 0
 4688 023e 94ED02BA 		vldr.32	s22, [r4, #8]
 4689              	.LVL250:
 4690              		.loc 1 2369 0
 4691 0242 D4ED01AA 		vldr.32	s21, [r4, #4]
 4692              	.LVL251:
 4693              		.loc 1 2374 0
 4694 0246 94ED107A 		vldr.32	s14, [r4, #64]
 4695 024a D9ED007A 		vldr.32	s15, [r9]
 4696 024e B4EEE77A 		vcmpe.f32	s14, s15
 4697 0252 F1EE10FA 		vmrs	APSR_nzcv, FPSCR
 4698 0256 17DC     		bgt	.L604
 4699              		.loc 1 2376 0
 4700 0258 94ED117A 		vldr.32	s14, [r4, #68]
 4701 025c D9ED007A 		vldr.32	s15, [r9]
 4702 0260 B4EEE77A 		vcmpe.f32	s14, s15
 4703 0264 F1EE10FA 		vmrs	APSR_nzcv, FPSCR
 4704 0268 40F11282 		bpl	.L664
 4705              	.LVL252:
 4706              	.LBB381:
 4707              	.LBB382:
 4708              		.loc 1 1847 0
 4709 026c 374B     		ldr	r3, .L692+112
 4710 026e 1B78     		ldrb	r3, [r3]	@ zero_extendqisi2
 4711 0270 052B     		cmp	r3, #5
 4712 0272 40F00985 		bne	.L528
 4713              		.loc 1 1848 0
 4714 0276 364B     		ldr	r3, .L692+116
 4715              	.LBE382:
 4716              	.LBE381:
 4717              		.loc 1 2378 0
 4718 0278 DFED39BA 		vldr.32	s23, .L692+132
 4719              	.LBB386:
 4720              	.LBB383:
 4721              		.loc 1 1848 0
 4722 027c D4F88821 		ldr	r2, [r4, #392]
 4723 0280 1A60     		str	r2, [r3]
 4724              	.LBE383:
 4725              	.LBE386:
 4726              		.loc 1 2377 0
 4727 0282 F0EE6BDA 		vmov.f32	s27, s23
 4728 0286 03E0     		b	.L525
 4729              	.LVL253:
 4730              	.L604:
 4731              		.loc 1 2373 0
ARM GAS  /tmp/ccjtIDd2.s 			page 84


 4732 0288 F0EE6ABA 		vmov.f32	s23, s21
 4733              		.loc 1 2372 0
 4734 028c F0EE4BDA 		vmov.f32	s27, s22
 4735              	.LVL254:
 4736              	.L525:
 4737              		.loc 1 2400 0
 4738 0290 94ED127A 		vldr.32	s14, [r4, #72]
 4739 0294 D8ED007A 		vldr.32	s15, [r8]
 4740 0298 B4EEE77A 		vcmpe.f32	s14, s15
 4741 029c F1EE10FA 		vmrs	APSR_nzcv, FPSCR
 4742 02a0 60DC     		bgt	.L670
 4743              		.loc 1 2402 0
 4744 02a2 D4ED137A 		vldr.32	s15, [r4, #76]
 4745 02a6 98ED007A 		vldr.32	s14, [r8]
 4746 02aa F2EE046A 		vmov.f32	s13, #1.0e+1
 4747 02ae 77EEA67A 		vadd.f32	s15, s15, s13
 4748 02b2 F4EEC77A 		vcmpe.f32	s15, s14
 4749 02b6 F1EE10FA 		vmrs	APSR_nzcv, FPSCR
 4750 02ba 40F1A981 		bpl	.L668
 4751              	.LVL255:
 4752              	.LBB387:
 4753              	.LBB388:
 4754              		.loc 1 1847 0
 4755 02be 234B     		ldr	r3, .L692+112
 4756 02c0 1B78     		ldrb	r3, [r3]	@ zero_extendqisi2
 4757 02c2 062B     		cmp	r3, #6
 4758 02c4 40F0E984 		bne	.L540
 4759              		.loc 1 1848 0
 4760 02c8 214B     		ldr	r3, .L692+116
 4761              	.LBE388:
 4762              	.LBE387:
 4763              		.loc 1 2404 0
 4764 02ca 9FED25BA 		vldr.32	s22, .L692+132
 4765              	.LVL256:
 4766              	.LBB392:
 4767              	.LBB389:
 4768              		.loc 1 1848 0
 4769 02ce D4F88821 		ldr	r2, [r4, #392]
 4770 02d2 1A60     		str	r2, [r3]
 4771              	.LBE389:
 4772              	.LBE392:
 4773              		.loc 1 2403 0
 4774 02d4 B0EE4BCA 		vmov.f32	s24, s22
 4775 02d8 46E0     		b	.L537
 4776              	.L693:
 4777 02da 00BF     		.align	2
 4778              	.L692:
 4779 02dc 00000000 		.word	.LANCHOR62
 4780 02e0 C07B523A 		.word	978484160
 4781 02e4 BAE8B241 		.word	1102244026
 4782 02e8 00000000 		.word	.LANCHOR64
 4783 02ec 00000000 		.word	.LANCHOR63
 4784 02f0 CDCC4C3D 		.word	1028443341
 4785 02f4 00000000 		.word	.LANCHOR60
 4786 02f8 E7FB1F41 		.word	1092615143
 4787 02fc 00C07944 		.word	1148829696
 4788 0300 00000000 		.word	.LANCHOR61
ARM GAS  /tmp/ccjtIDd2.s 			page 85


 4789 0304 008088C3 		.word	3280502784
 4790 0308 00000000 		.word	.LANCHOR65
 4791 030c 00000000 		.word	.LANCHOR8
 4792 0310 00401C46 		.word	1176256512
 4793 0314 0FCF5B3B 		.word	995872527
 4794 0318 33938843 		.word	1133024051
 4795 031c 3C361C4C 		.word	1276917308
 4796 0320 CDCC4C3F 		.word	1061997773
 4797 0324 CDCC4C3E 		.word	1045220557
 4798 0328 00405345 		.word	1163083776
 4799 032c CDCCCC3D 		.word	1036831949
 4800 0330 0000F442 		.word	1123287040
 4801 0334 00F07F45 		.word	1166012416
 4802 0338 C8BB9238 		.word	949140424
 4803 033c 996E2F32 		.word	841969305
 4804 0340 623E793E 		.word	1048133218
 4805 0344 22252043 		.word	1126180130
 4806 0348 0AD7233C 		.word	1008981770
 4807 034c 00000000 		.word	.LANCHOR10
 4808 0350 00000000 		.word	.LANCHOR12
 4809 0354 00000000 		.word	.LANCHOR34
 4810 0358 00000000 		.word	.LANCHOR66
 4811 035c 00000000 		.word	.LANCHOR35
 4812 0360 00000000 		.word	0
 4813              	.LVL257:
 4814              	.L670:
 4815              		.loc 1 2399 0
 4816 0364 B0EE6ACA 		vmov.f32	s24, s21
 4817              	.LVL258:
 4818              	.L537:
 4819              		.loc 1 2428 0
 4820 0368 94ED140A 		vldr.32	s0, [r4, #80]
 4821 036c 5FED040A 		vldr.32	s1, .L692+132
 4822 0370 D4ED101A 		vldr.32	s3, [r4, #64]
 4823 0374 B3EE092A 		vmov.f32	s4, #2.5e+1
 4824 0378 B7EE001A 		vmov.f32	s2, #1.0e+0
 4825 037c FFF7FEFF 		bl	utils_map
 4826              	.LVL259:
 4827              		.loc 1 2429 0
 4828 0380 5FED090A 		vldr.32	s1, .L692+132
 4829              		.loc 1 2428 0
 4830 0384 B0EE40DA 		vmov.f32	s26, s0
 4831              	.LVL260:
 4832              		.loc 1 2429 0
 4833 0388 B3EE092A 		vmov.f32	s4, #2.5e+1
 4834 038c 94ED140A 		vldr.32	s0, [r4, #80]
 4835              	.LVL261:
 4836 0390 D4ED111A 		vldr.32	s3, [r4, #68]
 4837 0394 B7EE001A 		vmov.f32	s2, #1.0e+0
 4838 0398 FFF7FEFF 		bl	utils_map
 4839              	.LVL262:
 4840              		.loc 1 2430 0
 4841 039c 5FED100A 		vldr.32	s1, .L692+132
 4842 03a0 B3EE092A 		vmov.f32	s4, #2.5e+1
 4843 03a4 B7EE001A 		vmov.f32	s2, #1.0e+0
 4844              		.loc 1 2429 0
 4845 03a8 B0EE40EA 		vmov.f32	s28, s0
ARM GAS  /tmp/ccjtIDd2.s 			page 86


 4846              	.LVL263:
 4847              		.loc 1 2430 0
 4848 03ac 94ED140A 		vldr.32	s0, [r4, #80]
 4849              	.LVL264:
 4850 03b0 D4ED121A 		vldr.32	s3, [r4, #72]
 4851 03b4 FFF7FEFF 		bl	utils_map
 4852              	.LVL265:
 4853              		.loc 1 2431 0
 4854 03b8 5FED170A 		vldr.32	s1, .L692+132
 4855              		.loc 1 2430 0
 4856 03bc F0EE40CA 		vmov.f32	s25, s0
 4857              	.LVL266:
 4858              		.loc 1 2431 0
 4859 03c0 B3EE092A 		vmov.f32	s4, #2.5e+1
 4860 03c4 94ED140A 		vldr.32	s0, [r4, #80]
 4861              	.LVL267:
 4862 03c8 D4ED131A 		vldr.32	s3, [r4, #76]
 4863 03cc B7EE001A 		vmov.f32	s2, #1.0e+0
 4864 03d0 FFF7FEFF 		bl	utils_map
 4865              	.LVL268:
 4866              		.loc 1 2434 0
 4867 03d4 D9ED007A 		vldr.32	s15, [r9]
 4868 03d8 B4EEE7DA 		vcmpe.f32	s26, s15
 4869 03dc F1EE10FA 		vmrs	APSR_nzcv, FPSCR
 4870              		.loc 1 2431 0
 4871 03e0 F0EE40EA 		vmov.f32	s29, s0
 4872              	.LVL269:
 4873              		.loc 1 2434 0
 4874 03e4 00F3F480 		bgt	.L614
 4875              		.loc 1 2436 0
 4876 03e8 D9ED007A 		vldr.32	s15, [r9]
 4877 03ec B4EEE7EA 		vcmpe.f32	s28, s15
 4878 03f0 F1EE10FA 		vmrs	APSR_nzcv, FPSCR
 4879 03f4 40F10984 		bpl	.L683
 4880              		.loc 1 2444 0
 4881 03f8 D8ED007A 		vldr.32	s15, [r8]
 4882              		.loc 1 2437 0
 4883 03fc 1FED28DA 		vldr.32	s26, .L692+132
 4884              	.LVL270:
 4885              		.loc 1 2444 0
 4886 0400 F4EEE7CA 		vcmpe.f32	s25, s15
 4887 0404 F1EE10FA 		vmrs	APSR_nzcv, FPSCR
 4888 0408 40F3EC80 		ble	.L684
 4889              	.LVL271:
 4890              	.L550:
 4891              		.loc 1 2454 0
 4892 040c F0EE4C0A 		vmov.f32	s1, s24
 4893 0410 B0EE6B0A 		vmov.f32	s0, s23
 4894 0414 FFF7FEFF 		bl	utils_min_abs
 4895              	.LVL272:
 4896              		.loc 1 2455 0
 4897 0418 F0EE4B0A 		vmov.f32	s1, s22
 4898              		.loc 1 2454 0
 4899 041c F0EE40BA 		vmov.f32	s23, s0
 4900              	.LVL273:
 4901              		.loc 1 2455 0
 4902 0420 B0EE6D0A 		vmov.f32	s0, s27
ARM GAS  /tmp/ccjtIDd2.s 			page 87


 4903              	.LVL274:
 4904 0424 FFF7FEFF 		bl	utils_min_abs
 4905              	.LVL275:
 4906              		.loc 1 2457 0
 4907 0428 F0EE4D0A 		vmov.f32	s1, s26
 4908              		.loc 1 2455 0
 4909 042c B0EE40BA 		vmov.f32	s22, s0
 4910              	.LVL276:
 4911              		.loc 1 2457 0
 4912 0430 B0EE6B0A 		vmov.f32	s0, s23
 4913              	.LVL277:
 4914 0434 FFF7FEFF 		bl	utils_min_abs
 4915              	.LVL278:
 4916              		.loc 1 2458 0
 4917 0438 F0EE6A0A 		vmov.f32	s1, s21
 4918 043c FFF7FEFF 		bl	utils_min_abs
 4919              	.LVL279:
 4920              		.loc 1 2460 0
 4921 0440 D4ED5F7A 		vldr.32	s15, [r4, #380]
 4922 0444 B4EEE70A 		vcmpe.f32	s0, s15
 4923 0448 F1EE10FA 		vmrs	APSR_nzcv, FPSCR
 4924              		.loc 1 2461 0
 4925 044c 48BF     		it	mi
 4926 044e 94ED5F0A 		vldrmi.32	s0, [r4, #380]
 4927              	.LVL280:
 4928              		.loc 1 2464 0
 4929 0452 D4ED5F7A 		vldr.32	s15, [r4, #380]
 4930 0456 F1EE677A 		vneg.f32	s15, s15
 4931 045a B4EEE7BA 		vcmpe.f32	s22, s15
 4932 045e F1EE10FA 		vmrs	APSR_nzcv, FPSCR
 4933              		.loc 1 2465 0
 4934 0462 C8BF     		it	gt
 4935 0464 94ED5FBA 		vldrgt.32	s22, [r4, #380]
 4936              	.LVL281:
 4937              		.loc 1 2468 0
 4938 0468 84ED1B0A 		vstr.32	s0, [r4, #108]
 4939              		.loc 1 2465 0
 4940 046c C8BF     		it	gt
 4941 046e B1EE4BBA 		vneggt.f32	s22, s22
 4942              	.LVL282:
 4943              		.loc 1 2469 0
 4944 0472 84ED1CBA 		vstr.32	s22, [r4, #112]
 4945              	.LVL283:
 4946              		.loc 1 2477 0
 4947 0476 D4ED0D7A 		vldr.32	s15, [r4, #52]
 4948 047a 96ED000A 		vldr.32	s0, [r6]
 4949              	.LVL284:
 4950 047e F4EEC07A 		vcmpe.f32	s15, s0
 4951 0482 F1EE10FA 		vmrs	APSR_nzcv, FPSCR
 4952 0486 40F1B880 		bpl	.L671
 4953              		.loc 1 2478 0
 4954 048a 94ED03BA 		vldr.32	s22, [r4, #12]
 4955              	.LVL285:
 4956              	.L557:
 4957              		.loc 1 2500 0
 4958 048e D4ED0C7A 		vldr.32	s15, [r4, #48]
 4959 0492 DFF8B492 		ldr	r9, .L694+40
ARM GAS  /tmp/ccjtIDd2.s 			page 88


 4960 0496 B1EE007A 		vmov.f32	s14, #4.0e+0
 4961 049a 77EEC77A 		vsub.f32	s15, s15, s14
 4962 049e D9ED00AA 		vldr.32	s21, [r9]
 4963              	.LVL286:
 4964 04a2 F4EEC07A 		vcmpe.f32	s15, s0
 4965 04a6 F1EE10FA 		vmrs	APSR_nzcv, FPSCR
 4966 04aa 00F32683 		bgt	.L685
 4967              		.loc 1 2503 0
 4968 04ae D4ED0C7A 		vldr.32	s15, [r4, #48]
 4969 04b2 9FED9B2A 		vldr.32	s4, .L694
 4970 04b6 F0EE006A 		vmov.f32	s13, #2.0e+0
 4971 04ba 77EEE67A 		vsub.f32	s15, s15, s13
 4972 04be 2AEE822A 		vmul.f32	s4, s21, s4
 4973 04c2 F4EEC07A 		vcmpe.f32	s15, s0
 4974 04c6 F1EE10FA 		vmrs	APSR_nzcv, FPSCR
 4975 04ca 40F11181 		bpl	.L673
 4976              		.loc 1 2504 0
 4977 04ce 89ED002A 		vstr.32	s4, [r9]
 4978              	.L560:
 4979              		.loc 1 2520 0
 4980 04d2 D4ED0D6A 		vldr.32	s13, [r4, #52]
 4981 04d6 D4ED707A 		vldr.32	s15, [r4, #448]	@ int
 4982 04da F8EEE77A 		vcvt.f32.s32	s15, s15
 4983 04de 86EEA77A 		vdiv.f32	s14, s13, s15
 4984 04e2 B4EEC87A 		vcmpe.f32	s14, s16
 4985 04e6 F1EE10FA 		vmrs	APSR_nzcv, FPSCR
 4986 04ea 40F19B82 		bpl	.L674
 4987              		.loc 1 2521 0
 4988 04ee 8D4E     		ldr	r6, .L694+4
 4989 04f0 94ED037A 		vldr.32	s14, [r4, #12]
 4990 04f4 D6ED007A 		vldr.32	s15, [r6]
 4991 04f8 B4EEE77A 		vcmpe.f32	s14, s15
 4992 04fc F1EE10FA 		vmrs	APSR_nzcv, FPSCR
 4993 0500 40F34F83 		ble	.L675
 4994              		.loc 1 2522 0
 4995 0504 9FED887A 		vldr.32	s14, .L694+8
 4996 0508 77EE877A 		vadd.f32	s15, s15, s14
 4997 050c C6ED007A 		vstr.32	s15, [r6]
 4998              	.LVL287:
 4999              	.L567:
 5000              		.loc 1 2559 0
 5001 0510 864F     		ldr	r7, .L694+12
 5002 0512 94ED047A 		vldr.32	s14, [r4, #16]
 5003 0516 D7ED007A 		vldr.32	s15, [r7]
 5004 051a B4EEE77A 		vcmpe.f32	s14, s15
 5005              		.loc 1 2562 0
 5006 051e DFED847A 		vldr.32	s15, .L694+16
 5007              		.loc 1 2559 0
 5008 0522 F1EE10FA 		vmrs	APSR_nzcv, FPSCR
 5009              		.loc 1 2560 0
 5010 0526 C4BF     		itt	gt
 5011 0528 2369     		ldrgt	r3, [r4, #16]	@ float
 5012 052a 3B60     		strgt	r3, [r7]	@ float
 5013              		.loc 1 2562 0
 5014 052c F4EEE78A 		vcmpe.f32	s17, s15
 5015 0530 F1EE10FA 		vmrs	APSR_nzcv, FPSCR
 5016 0534 40F18882 		bpl	.L677
ARM GAS  /tmp/ccjtIDd2.s 			page 89


 5017              		.loc 1 2563 0
 5018 0538 2369     		ldr	r3, [r4, #16]	@ float
 5019 053a 3B60     		str	r3, [r7]	@ float
 5020              	.L574:
 5021              	.LVL288:
 5022              		.loc 1 2586 0
 5023 053c 9FED7D8A 		vldr.32	s16, .L694+20
 5024 0540 B4EEC89A 		vcmpe.f32	s18, s16
 5025 0544 F1EE10FA 		vmrs	APSR_nzcv, FPSCR
 5026 0548 00F36782 		bgt	.L618
 5027              		.loc 1 2589 0
 5028 054c DFED7AAA 		vldr.32	s21, .L694+24
 5029 0550 B4EEEA9A 		vcmpe.f32	s18, s21
 5030 0554 F1EE10FA 		vmrs	APSR_nzcv, FPSCR
 5031 0558 07D4     		bmi	.L585
 5032 055a DFED787A 		vldr.32	s15, .L694+28
 5033 055e B4EE679A 		vcmp.f32	s18, s15
 5034 0562 F1EE10FA 		vmrs	APSR_nzcv, FPSCR
 5035 0566 40F0A183 		bne	.L586
 5036              	.L585:
 5037              		.loc 1 2590 0
 5038 056a D4ED038A 		vldr.32	s17, [r4, #12]
 5039              	.LVL289:
 5040              		.loc 1 2591 0
 5041 056e 94ED049A 		vldr.32	s18, [r4, #16]
 5042              	.LVL290:
 5043              	.L584:
 5044              		.loc 1 2605 0
 5045 0572 B2EE048A 		vmov.f32	s16, #1.0e+1
 5046 0576 F4EEC89A 		vcmpe.f32	s19, s16
 5047 057a F1EE10FA 		vmrs	APSR_nzcv, FPSCR
 5048 057e 00F3E580 		bgt	.L587
 5049 0582 DFED6E7A 		vldr.32	s15, .L694+28
 5050 0586 F4EE679A 		vcmp.f32	s19, s15
 5051 058a F1EE10FA 		vmrs	APSR_nzcv, FPSCR
 5052 058e 00F0DD80 		beq	.L587
 5053              		.loc 1 2608 0
 5054 0592 BAEE0E1A 		vmov.f32	s2, #-1.5e+1
 5055 0596 F4EEC19A 		vcmpe.f32	s19, s2
 5056 059a F1EE10FA 		vmrs	APSR_nzcv, FPSCR
 5057 059e 00F15883 		bmi	.L619
 5058              		.loc 1 2611 0
 5059 05a2 F0EE00BA 		vmov.f32	s23, #2.0e+0
 5060 05a6 F4EEEB9A 		vcmpe.f32	s19, s23
 5061 05aa F1EE10FA 		vmrs	APSR_nzcv, FPSCR
 5062              		.loc 1 2612 0
 5063 05ae D4ED031A 		vldr.32	s3, [r4, #12]
 5064              		.loc 1 2611 0
 5065 05b2 40F1C183 		bpl	.L681
 5066              		.loc 1 2612 0
 5067 05b6 B0EE690A 		vmov.f32	s0, s19
 5068 05ba F0EE480A 		vmov.f32	s1, s16
 5069 05be B1EE002A 		vmov.f32	s4, #4.0e+0
 5070 05c2 FFF7FEFF 		bl	utils_map
 5071              	.LVL291:
 5072              		.loc 1 2614 0
 5073 05c6 FFEE009A 		vmov.f32	s19, #-1.0e+0
ARM GAS  /tmp/ccjtIDd2.s 			page 90


 5074              	.LVL292:
 5075              		.loc 1 2612 0
 5076 05ca F0EE40AA 		vmov.f32	s21, s0
 5077              	.LVL293:
 5078 05ce C1E0     		b	.L589
 5079              	.LVL294:
 5080              	.L614:
 5081              		.loc 1 2433 0
 5082 05d0 B0EE6ADA 		vmov.f32	s26, s21
 5083              	.LVL295:
 5084              	.L549:
 5085              		.loc 1 2444 0
 5086 05d4 D8ED007A 		vldr.32	s15, [r8]
 5087 05d8 F4EEE7CA 		vcmpe.f32	s25, s15
 5088 05dc F1EE10FA 		vmrs	APSR_nzcv, FPSCR
 5089 05e0 3FF714AF 		bgt	.L550
 5090              	.L684:
 5091              		.loc 1 2446 0
 5092 05e4 D8ED007A 		vldr.32	s15, [r8]
 5093 05e8 F4EEE7EA 		vcmpe.f32	s29, s15
 5094 05ec F1EE10FA 		vmrs	APSR_nzcv, FPSCR
 5095 05f0 40F1FC82 		bpl	.L686
 5096              		.loc 1 2447 0
 5097 05f4 DFED52AA 		vldr.32	s21, .L694+32
 5098              	.LVL296:
 5099 05f8 08E7     		b	.L550
 5100              	.LVL297:
 5101              	.L671:
 5102              		.loc 1 2479 0
 5103 05fa D4ED0E7A 		vldr.32	s15, [r4, #56]
 5104 05fe B4EEE70A 		vcmpe.f32	s0, s15
 5105 0602 F1EE10FA 		vmrs	APSR_nzcv, FPSCR
 5106 0606 40F10F83 		bpl	.L687
 5107              		.loc 1 2480 0
 5108 060a 9FED4DBA 		vldr.32	s22, .L694+32
 5109              	.LVL298:
 5110 060e 3EE7     		b	.L557
 5111              	.LVL299:
 5112              	.L668:
 5113              		.loc 1 2406 0
 5114 0610 94ED137A 		vldr.32	s14, [r4, #76]
 5115 0614 D8ED007A 		vldr.32	s15, [r8]
 5116 0618 B4EEE77A 		vcmpe.f32	s14, s15
 5117 061c F1EE10FA 		vmrs	APSR_nzcv, FPSCR
 5118 0620 00F11183 		bmi	.L610
 5119              	.LBB393:
 5120              		.loc 1 2411 0
 5121 0624 B0EECBDA 		vabs.f32	s26, s22
 5122              		.loc 1 2410 0
 5123 0628 F0EEEACA 		vabs.f32	s25, s21
 5124              	.LVL300:
 5125 062c F4EECDCA 		vcmpe.f32	s25, s26
 5126 0630 F1EE10FA 		vmrs	APSR_nzcv, FPSCR
 5127              	.LVL301:
 5128              		.loc 1 2415 0
 5129 0634 98ED000A 		vldr.32	s0, [r8]
 5130 0638 9FED412A 		vldr.32	s4, .L694+32
ARM GAS  /tmp/ccjtIDd2.s 			page 91


 5131 063c D4ED120A 		vldr.32	s1, [r4, #72]
 5132 0640 94ED131A 		vldr.32	s2, [r4, #76]
 5133 0644 54BF     		ite	pl
 5134 0646 F0EE6C1A 		vmovpl.f32	s3, s25
 5135 064a F0EE4D1A 		vmovmi.f32	s3, s26
 5136              	.LVL302:
 5137 064e FFF7FEFF 		bl	utils_map
 5138              	.LVL303:
 5139              		.loc 1 2417 0
 5140 0652 B4EEC0DA 		vcmpe.f32	s26, s0
 5141 0656 F1EE10FA 		vmrs	APSR_nzcv, FPSCR
 5142              		.loc 1 2415 0
 5143 065a B0EE40CA 		vmov.f32	s24, s0
 5144              	.LVL304:
 5145              		.loc 1 2417 0
 5146 065e 08DD     		ble	.L542
 5147              		.loc 1 2418 0
 5148 0660 B5EEC0BA 		vcmpe.f32	s22, #0
 5149 0664 F1EE10FA 		vmrs	APSR_nzcv, FPSCR
 5150 0668 4CBF     		ite	mi
 5151 066a B1EE40BA 		vnegmi.f32	s22, s0
 5152              	.LVL305:
 5153 066e B0EE40BA 		vmovpl.f32	s22, s0
 5154              	.L542:
 5155              	.LVL306:
 5156              		.loc 1 2421 0
 5157 0672 F4EECCCA 		vcmpe.f32	s25, s24
 5158 0676 F1EE10FA 		vmrs	APSR_nzcv, FPSCR
 5159 067a 7FF773AE 		ble	.L670
 5160              		.loc 1 2422 0
 5161 067e F5EEC0AA 		vcmpe.f32	s21, #0
 5162 0682 F1EE10FA 		vmrs	APSR_nzcv, FPSCR
 5163 0686 7FF56FAE 		bpl	.L537
 5164 068a B1EE4CCA 		vneg.f32	s24, s24
 5165              	.LVL307:
 5166 068e 6BE6     		b	.L537
 5167              	.LVL308:
 5168              	.L664:
 5169              	.LBE393:
 5170              	.LBB394:
 5171              		.loc 1 2382 0
 5172 0690 F0EECBCA 		vabs.f32	s25, s22
 5173              		.loc 1 2381 0
 5174 0694 B0EEEACA 		vabs.f32	s24, s21
 5175              	.LVL309:
 5176 0698 B4EEECCA 		vcmpe.f32	s24, s25
 5177 069c F1EE10FA 		vmrs	APSR_nzcv, FPSCR
 5178              	.LVL310:
 5179              		.loc 1 2386 0
 5180 06a0 99ED000A 		vldr.32	s0, [r9]
 5181 06a4 9FED262A 		vldr.32	s4, .L694+32
 5182 06a8 D4ED100A 		vldr.32	s1, [r4, #64]
 5183 06ac 94ED111A 		vldr.32	s2, [r4, #68]
 5184 06b0 54BF     		ite	pl
 5185 06b2 F0EE4C1A 		vmovpl.f32	s3, s24
 5186 06b6 F0EE6C1A 		vmovmi.f32	s3, s25
 5187              	.LVL311:
ARM GAS  /tmp/ccjtIDd2.s 			page 92


 5188 06ba FFF7FEFF 		bl	utils_map
 5189              	.LVL312:
 5190              		.loc 1 2388 0
 5191 06be F4EEC0CA 		vcmpe.f32	s25, s0
 5192 06c2 F1EE10FA 		vmrs	APSR_nzcv, FPSCR
 5193              		.loc 1 2386 0
 5194 06c6 F0EE40BA 		vmov.f32	s23, s0
 5195              	.LVL313:
 5196              		.loc 1 2388 0
 5197 06ca 00F3C782 		bgt	.L688
 5198              		.loc 1 2392 0
 5199 06ce B4EEEBCA 		vcmpe.f32	s24, s23
 5200 06d2 F1EE10FA 		vmrs	APSR_nzcv, FPSCR
 5201              	.LBE394:
 5202              		.loc 1 2372 0
 5203 06d6 F0EE4BDA 		vmov.f32	s27, s22
 5204              	.LVL314:
 5205              	.LBB395:
 5206              		.loc 1 2392 0
 5207 06da 40F3CE82 		ble	.L667
 5208              	.L691:
 5209              		.loc 1 2393 0
 5210 06de F5EEC0AA 		vcmpe.f32	s21, #0
 5211 06e2 F1EE10FA 		vmrs	APSR_nzcv, FPSCR
 5212 06e6 7FF5D3AD 		bpl	.L525
 5213 06ea F1EE6BBA 		vneg.f32	s23, s23
 5214              	.LVL315:
 5215 06ee CFE5     		b	.L525
 5216              	.LVL316:
 5217              	.L673:
 5218              	.LBE395:
 5219              		.loc 1 2506 0
 5220 06f0 D4ED0C0A 		vldr.32	s1, [r4, #48]
 5221 06f4 94ED0C1A 		vldr.32	s2, [r4, #48]
 5222 06f8 D4ED041A 		vldr.32	s3, [r4, #16]
 5223 06fc 70EEC70A 		vsub.f32	s1, s1, s14
 5224 0700 31EE661A 		vsub.f32	s2, s2, s13
 5225 0704 FFF7FEFF 		bl	utils_map
 5226              	.LVL317:
 5227 0708 DFED0E7A 		vldr.32	s15, .L694+36
 5228 070c F0EE400A 		vmov.f32	s1, s0
 5229 0710 3AEEE70A 		vsub.f32	s0, s21, s15
 5230 0714 FFF7FEFF 		bl	utils_min_abs
 5231              	.LVL318:
 5232 0718 89ED000A 		vstr.32	s0, [r9]
 5233 071c D9E6     		b	.L560
 5234              	.L695:
 5235 071e 00BF     		.align	2
 5236              	.L694:
 5237 0720 CDCC4C3E 		.word	1045220557
 5238 0724 00000000 		.word	.LANCHOR68
 5239 0728 6F12833A 		.word	981668463
 5240 072c 00000000 		.word	.LANCHOR69
 5241 0730 9A998140 		.word	1082235290
 5242 0734 00008842 		.word	1116209152
 5243 0738 00007042 		.word	1114636288
 5244 073c 008088C3 		.word	3280502784
ARM GAS  /tmp/ccjtIDd2.s 			page 93


 5245 0740 00000000 		.word	0
 5246 0744 0AD7233C 		.word	1008981770
 5247 0748 00000000 		.word	.LANCHOR67
 5248              	.LVL319:
 5249              	.L587:
 5250              		.loc 1 2606 0
 5251 074c D4ED03AA 		vldr.32	s21, [r4, #12]
 5252              	.LVL320:
 5253              		.loc 1 2607 0
 5254 0750 D4ED049A 		vldr.32	s19, [r4, #16]
 5255              	.LVL321:
 5256              	.L589:
 5257              		.loc 1 2623 0
 5258 0754 96ED008A 		vldr.32	s16, [r6]
 5259              		.loc 1 2646 0
 5260 0758 DFF8EC83 		ldr	r8, .L696+56
 5261              		.loc 1 2645 0
 5262 075c EC4E     		ldr	r6, .L696
 5263              		.loc 1 2623 0
 5264 075e F0EE6A0A 		vmov.f32	s1, s21
 5265 0762 B0EE680A 		vmov.f32	s0, s17
 5266 0766 FFF7FEFF 		bl	utils_min_abs
 5267              	.LVL322:
 5268 076a F0EE400A 		vmov.f32	s1, s0
 5269 076e B0EE4B0A 		vmov.f32	s0, s22
 5270 0772 FFF7FEFF 		bl	utils_min_abs
 5271              	.LVL323:
 5272 0776 F0EE400A 		vmov.f32	s1, s0
 5273 077a B0EE480A 		vmov.f32	s0, s16
 5274 077e FFF7FEFF 		bl	utils_min_abs
 5275              	.LVL324:
 5276              		.loc 1 2624 0
 5277 0782 F0EE690A 		vmov.f32	s1, s19
 5278              		.loc 1 2623 0
 5279 0786 F0EE408A 		vmov.f32	s17, s0
 5280              	.LVL325:
 5281              		.loc 1 2624 0
 5282 078a B0EE490A 		vmov.f32	s0, s18
 5283              	.LVL326:
 5284 078e 97ED008A 		vldr.32	s16, [r7]
 5285 0792 99ED009A 		vldr.32	s18, [r9]
 5286              	.LVL327:
 5287 0796 FFF7FEFF 		bl	utils_min_abs
 5288              	.LVL328:
 5289 079a F0EE400A 		vmov.f32	s1, s0
 5290 079e B0EE490A 		vmov.f32	s0, s18
 5291 07a2 FFF7FEFF 		bl	utils_min_abs
 5292              	.LVL329:
 5293 07a6 F0EE400A 		vmov.f32	s1, s0
 5294 07aa B0EE480A 		vmov.f32	s0, s16
 5295 07ae FFF7FEFF 		bl	utils_min_abs
 5296              	.LVL330:
 5297              		.loc 1 2626 0
 5298 07b2 F0EE680A 		vmov.f32	s1, s17
 5299              		.loc 1 2624 0
 5300 07b6 B0EE408A 		vmov.f32	s16, s0
 5301              	.LVL331:
ARM GAS  /tmp/ccjtIDd2.s 			page 94


 5302              		.loc 1 2626 0
 5303 07ba 94ED030A 		vldr.32	s0, [r4, #12]
 5304              	.LVL332:
 5305 07be FFF7FEFF 		bl	utils_min_abs
 5306              	.LVL333:
 5307 07c2 84ED1D0A 		vstr.32	s0, [r4, #116]
 5308              		.loc 1 2627 0
 5309 07c6 F0EE480A 		vmov.f32	s1, s16
 5310 07ca 94ED040A 		vldr.32	s0, [r4, #16]
 5311 07ce FFF7FEFF 		bl	utils_min_abs
 5312              	.LVL334:
 5313 07d2 84ED1E0A 		vstr.32	s0, [r4, #120]
 5314              	.LVL335:
 5315              		.loc 1 2641 0
 5316 07d6 94ED078A 		vldr.32	s16, [r4, #28]
 5317              	.LVL336:
 5318              		.loc 1 2645 0
 5319 07da 9FEDCE4A 		vldr.32	s8, .L696+4
 5320              		.loc 1 2644 0
 5321 07de 94ED537A 		vldr.32	s14, [r4, #332]
 5322              		.loc 1 2645 0
 5323 07e2 D4ED546A 		vldr.32	s13, [r4, #336]
 5324              		.loc 1 2646 0
 5325 07e6 94ED553A 		vldr.32	s6, [r4, #340]
 5326 07ea D8ED004A 		vldr.32	s9, [r8]
 5327              		.loc 1 2657 0
 5328 07ee CA4B     		ldr	r3, .L696+8
 5329              		.loc 1 2644 0
 5330 07f0 DFEDCA5A 		vldr.32	s11, .L696+12
 5331              		.loc 1 2657 0
 5332 07f4 D3ED007A 		vldr.32	s15, [r3]
 5333              		.loc 1 2645 0
 5334 07f8 96ED006A 		vldr.32	s12, [r6]
 5335              		.loc 1 2657 0
 5336 07fc D4ED563A 		vldr.32	s7, [r4, #344]
 5337              		.loc 1 2646 0
 5338 0800 83EE045A 		vdiv.f32	s10, s6, s8
 5339              		.loc 1 2644 0
 5340 0804 04A8     		add	r0, sp, #16
 5341              		.loc 1 2641 0
 5342 0806 38EE4A8A 		vsub.f32	s16, s16, s20
 5343              	.LVL337:
 5344              		.loc 1 2645 0
 5345 080a 66EE846A 		vmul.f32	s13, s13, s8
 5346              		.loc 1 2646 0
 5347 080e 78EE644A 		vsub.f32	s9, s16, s9
 5348              	.LVL338:
 5349              		.loc 1 2644 0
 5350 0812 28EE077A 		vmul.f32	s14, s16, s14
 5351              		.loc 1 2657 0
 5352 0816 25EE645A 		vnmul.f32	s10, s10, s9
 5353 081a F0EE674A 		vmov.f32	s9, s15
 5354 081e E5EE254A 		vfma.f32	s9, s10, s11
 5355              		.loc 1 2645 0
 5356 0822 66EE886A 		vmul.f32	s13, s13, s16
 5357              		.loc 1 2644 0
 5358 0826 27EE257A 		vmul.f32	s14, s14, s11
ARM GAS  /tmp/ccjtIDd2.s 			page 95


 5359              		.loc 1 2657 0
 5360 082a E3EEE47A 		vfms.f32	s15, s7, s9
 5361              		.loc 1 2645 0
 5362 082e A6EEA56A 		vfma.f32	s12, s13, s11
 5363              		.loc 1 2644 0
 5364 0832 17EE102A 		vmov	r2, s14
 5365              		.loc 1 2661 0
 5366 0836 F7EE000A 		vmov.f32	s1, #1.0e+0
 5367              		.loc 1 2644 0
 5368 083a 40F8102D 		str	r2, [r0, #-16]!	@ float
 5369              		.loc 1 2661 0
 5370 083e BFEE000A 		vmov.f32	s0, #-1.0e+0
 5371              		.loc 1 2657 0
 5372 0842 F0EE678A 		vmov.f32	s17, s15
 5373              	.LVL339:
 5374 0846 C3ED007A 		vstr.32	s15, [r3]
 5375              	.LVL340:
 5376              		.loc 1 2645 0
 5377 084a 86ED006A 		vstr.32	s12, [r6]
 5378              		.loc 1 2661 0
 5379 084e FFF7FEFF 		bl	utils_truncate_number
 5380              	.LVL341:
 5381              		.loc 1 2662 0
 5382 0852 D6ED007A 		vldr.32	s15, [r6]
 5383 0856 DDED006A 		vldr.32	s13, [sp]
 5384 085a 76EEA77A 		vadd.f32	s15, s13, s15
 5385 085e B7EE007A 		vmov.f32	s14, #1.0e+0
 5386 0862 F4EEC77A 		vcmpe.f32	s15, s14
 5387 0866 F1EE10FA 		vmrs	APSR_nzcv, FPSCR
 5388 086a 05DD     		ble	.L592
 5389              		.loc 1 2663 0
 5390 086c 37EE667A 		vsub.f32	s14, s14, s13
 5391 0870 76EE877A 		vadd.f32	s15, s13, s14
 5392 0874 86ED007A 		vstr.32	s14, [r6]
 5393              	.L592:
 5394              		.loc 1 2665 0
 5395 0878 F5EEC07A 		vcmpe.f32	s15, #0
 5396 087c F1EE10FA 		vmrs	APSR_nzcv, FPSCR
 5397              		.loc 1 2666 0
 5398 0880 48BF     		it	mi
 5399 0882 F1EE666A 		vnegmi.f32	s13, s13
 5400              		.loc 1 2669 0
 5401 0886 F7EE000A 		vmov.f32	s1, #1.0e+0
 5402 088a 9FEDA50A 		vldr.32	s0, .L696+16
 5403 088e A048     		ldr	r0, .L696
 5404              		.loc 1 2666 0
 5405 0890 48BF     		it	mi
 5406 0892 C6ED006A 		vstrmi.32	s13, [r6]
 5407              		.loc 1 2669 0
 5408 0896 FFF7FEFF 		bl	utils_truncate_number
 5409              	.LVL342:
 5410              		.loc 1 2675 0
 5411 089a 96ED007A 		vldr.32	s14, [r6]
 5412 089e DDED007A 		vldr.32	s15, [sp]
 5413              		.loc 1 2676 0
 5414 08a2 9FED9F0A 		vldr.32	s0, .L696+16
 5415              		.loc 1 2672 0
ARM GAS  /tmp/ccjtIDd2.s 			page 96


 5416 08a6 88ED008A 		vstr.32	s16, [r8]
 5417              		.loc 1 2675 0
 5418 08aa 77EE877A 		vadd.f32	s15, s15, s14
 5419 08ae 04A8     		add	r0, sp, #16
 5420 08b0 77EEA87A 		vadd.f32	s15, s15, s17
 5421              		.loc 1 2676 0
 5422 08b4 F7EE000A 		vmov.f32	s1, #1.0e+0
 5423              		.loc 1 2675 0
 5424 08b8 17EE903A 		vmov	r3, s15
 5425 08bc 40F80C3D 		str	r3, [r0, #-12]!	@ float
 5426              		.loc 1 2676 0
 5427 08c0 FFF7FEFF 		bl	utils_truncate_number
 5428              	.LVL343:
 5429              		.loc 1 2690 0
 5430 08c4 94ED068A 		vldr.32	s16, [r4, #24]
 5431              	.LVL344:
 5432              		.loc 1 2694 0
 5433 08c8 9FED924A 		vldr.32	s8, .L696+4
 5434              		.loc 1 2693 0
 5435 08cc 94ED537A 		vldr.32	s14, [r4, #332]
 5436              		.loc 1 2694 0
 5437 08d0 D4ED546A 		vldr.32	s13, [r4, #336]
 5438              		.loc 1 2695 0
 5439 08d4 D4ED552A 		vldr.32	s5, [r4, #340]
 5440 08d8 924F     		ldr	r7, .L696+20
 5441              		.loc 1 2699 0
 5442 08da 934B     		ldr	r3, .L696+24
 5443              		.loc 1 2695 0
 5444 08dc D7ED004A 		vldr.32	s9, [r7]
 5445              		.loc 1 2699 0
 5446 08e0 D3ED007A 		vldr.32	s15, [r3]
 5447              		.loc 1 2693 0
 5448 08e4 DFED8D5A 		vldr.32	s11, .L696+12
 5449              		.loc 1 2694 0
 5450 08e8 904E     		ldr	r6, .L696+28
 5451              		.loc 1 2699 0
 5452 08ea 94ED563A 		vldr.32	s6, [r4, #344]
 5453              		.loc 1 2694 0
 5454 08ee 96ED006A 		vldr.32	s12, [r6]
 5455              		.loc 1 2677 0
 5456 08f2 9DED019A 		vldr.32	s18, [sp, #4]
 5457 08f6 DFED8E3A 		vldr.32	s7, .L696+32
 5458              		.loc 1 2695 0
 5459 08fa 82EE845A 		vdiv.f32	s10, s5, s8
 5460              		.loc 1 2693 0
 5461 08fe 04A8     		add	r0, sp, #16
 5462              		.loc 1 2690 0
 5463 0900 3AEE488A 		vsub.f32	s16, s20, s16
 5464              		.loc 1 2694 0
 5465 0904 66EE846A 		vmul.f32	s13, s13, s8
 5466              		.loc 1 2695 0
 5467 0908 78EE644A 		vsub.f32	s9, s16, s9
 5468              		.loc 1 2693 0
 5469 090c 28EE077A 		vmul.f32	s14, s16, s14
 5470              		.loc 1 2699 0
 5471 0910 25EE645A 		vnmul.f32	s10, s10, s9
 5472 0914 F0EE674A 		vmov.f32	s9, s15
ARM GAS  /tmp/ccjtIDd2.s 			page 97


 5473 0918 E5EE254A 		vfma.f32	s9, s10, s11
 5474              		.loc 1 2694 0
 5475 091c 66EE886A 		vmul.f32	s13, s13, s16
 5476              		.loc 1 2693 0
 5477 0920 27EE257A 		vmul.f32	s14, s14, s11
 5478              		.loc 1 2699 0
 5479 0924 E3EE647A 		vfms.f32	s15, s6, s9
 5480              		.loc 1 2694 0
 5481 0928 A6EEA56A 		vfma.f32	s12, s13, s11
 5482              		.loc 1 2693 0
 5483 092c 17EE102A 		vmov	r2, s14
 5484              		.loc 1 2703 0
 5485 0930 F7EE000A 		vmov.f32	s1, #1.0e+0
 5486              		.loc 1 2693 0
 5487 0934 40F8082D 		str	r2, [r0, #-8]!	@ float
 5488              		.loc 1 2703 0
 5489 0938 BFEE000A 		vmov.f32	s0, #-1.0e+0
 5490              		.loc 1 2699 0
 5491 093c F0EE678A 		vmov.f32	s17, s15
 5492              	.LVL345:
 5493 0940 C3ED007A 		vstr.32	s15, [r3]
 5494              		.loc 1 2694 0
 5495 0944 86ED006A 		vstr.32	s12, [r6]
 5496              		.loc 1 2677 0
 5497 0948 29EE239A 		vmul.f32	s18, s18, s7
 5498              	.LVL346:
 5499              		.loc 1 2703 0
 5500 094c FFF7FEFF 		bl	utils_truncate_number
 5501              	.LVL347:
 5502              		.loc 1 2704 0
 5503 0950 D6ED007A 		vldr.32	s15, [r6]
 5504 0954 DDED026A 		vldr.32	s13, [sp, #8]
 5505 0958 76EEA77A 		vadd.f32	s15, s13, s15
 5506 095c B7EE007A 		vmov.f32	s14, #1.0e+0
 5507 0960 F4EEC77A 		vcmpe.f32	s15, s14
 5508 0964 F1EE10FA 		vmrs	APSR_nzcv, FPSCR
 5509 0968 05DD     		ble	.L596
 5510              		.loc 1 2705 0
 5511 096a 37EE667A 		vsub.f32	s14, s14, s13
 5512 096e 76EE877A 		vadd.f32	s15, s13, s14
 5513 0972 86ED007A 		vstr.32	s14, [r6]
 5514              	.L596:
 5515              		.loc 1 2707 0
 5516 0976 9FED6A7A 		vldr.32	s14, .L696+16
 5517              		.loc 1 2710 0
 5518 097a 9FED690A 		vldr.32	s0, .L696+16
 5519 097e 6B48     		ldr	r0, .L696+28
 5520              		.loc 1 2707 0
 5521 0980 F4EEC77A 		vcmpe.f32	s15, s14
 5522 0984 F1EE10FA 		vmrs	APSR_nzcv, FPSCR
 5523              		.loc 1 2708 0
 5524 0988 48BF     		it	mi
 5525 098a 77EE666A 		vsubmi.f32	s13, s14, s13
 5526              		.loc 1 2710 0
 5527 098e F7EE000A 		vmov.f32	s1, #1.0e+0
 5528              		.loc 1 2708 0
 5529 0992 48BF     		it	mi
ARM GAS  /tmp/ccjtIDd2.s 			page 98


 5530 0994 C6ED006A 		vstrmi.32	s13, [r6]
 5531              		.loc 1 2710 0
 5532 0998 FFF7FEFF 		bl	utils_truncate_number
 5533              	.LVL348:
 5534              		.loc 1 2716 0
 5535 099c 96ED007A 		vldr.32	s14, [r6]
 5536 09a0 DDED027A 		vldr.32	s15, [sp, #8]
 5537              		.loc 1 2717 0
 5538 09a4 9FED5E0A 		vldr.32	s0, .L696+16
 5539              		.loc 1 2713 0
 5540 09a8 87ED008A 		vstr.32	s16, [r7]
 5541              		.loc 1 2716 0
 5542 09ac 77EE877A 		vadd.f32	s15, s15, s14
 5543 09b0 04A8     		add	r0, sp, #16
 5544 09b2 77EEA87A 		vadd.f32	s15, s15, s17
 5545              		.loc 1 2717 0
 5546 09b6 F7EE000A 		vmov.f32	s1, #1.0e+0
 5547              		.loc 1 2716 0
 5548 09ba 60ED017A 		vstmdb.32	r0!, {s15}
 5549              		.loc 1 2717 0
 5550 09be FFF7FEFF 		bl	utils_truncate_number
 5551              	.LVL349:
 5552              		.loc 1 2728 0
 5553 09c2 D5ED007A 		vldr.32	s15, [r5]
 5554 09c6 94ED177A 		vldr.32	s14, [r4, #92]
 5555              		.loc 1 2718 0
 5556 09ca DFED596A 		vldr.32	s13, .L696+32
 5557 09ce DDED030A 		vldr.32	s1, [sp, #12]
 5558              		.loc 1 2728 0
 5559 09d2 87EE278A 		vdiv.f32	s16, s14, s15
 5560              	.LVL350:
 5561              		.loc 1 2718 0
 5562 09d6 60EEA60A 		vmul.f32	s1, s1, s13
 5563              	.LVL351:
 5564              		.loc 1 2728 0
 5565 09da 89EE270A 		vdiv.f32	s0, s18, s15
 5566 09de C0EEA70A 		vdiv.f32	s1, s1, s15
 5567              	.LVL352:
 5568 09e2 FFF7FEFF 		bl	utils_min_abs
 5569              	.LVL353:
 5570 09e6 F0EE400A 		vmov.f32	s1, s0
 5571 09ea B0EE480A 		vmov.f32	s0, s16
 5572 09ee FFF7FEFF 		bl	utils_min_abs
 5573              	.LVL354:
 5574              		.loc 1 2738 0
 5575 09f2 504B     		ldr	r3, .L696+36
 5576              		.loc 1 2729 0
 5577 09f4 D4ED188A 		vldr.32	s17, [r4, #96]
 5578              	.LVL355:
 5579              		.loc 1 2738 0
 5580 09f8 D4ED197A 		vldr.32	s15, [r4, #100]
 5581 09fc 93ED008A 		vldr.32	s16, [r3]
 5582              	.LVL356:
 5583              		.loc 1 2744 0
 5584 0a00 A378     		ldrb	r3, [r4, #2]	@ zero_extendqisi2
 5585 0a02 022B     		cmp	r3, #2
 5586 0a04 3DD0     		beq	.L689
ARM GAS  /tmp/ccjtIDd2.s 			page 99


 5587              		.loc 1 2773 0
 5588 0a06 E36E     		ldr	r3, [r4, #108]	@ float
 5589 0a08 E367     		str	r3, [r4, #124]	@ float
 5590              		.loc 1 2774 0
 5591 0a0a 236F     		ldr	r3, [r4, #112]	@ float
 5592 0a0c C4F88030 		str	r3, [r4, #128]	@ float
 5593              		.loc 1 2776 0
 5594 0a10 04B0     		add	sp, sp, #16
 5595              		.cfi_remember_state
 5596              		.cfi_def_cfa_offset 88
 5597              		@ sp needed
 5598 0a12 BDEC0E8B 		vldm	sp!, {d8-d14}
 5599              		.cfi_restore 92
 5600              		.cfi_restore 93
 5601              		.cfi_restore 90
 5602              		.cfi_restore 91
 5603              		.cfi_restore 88
 5604              		.cfi_restore 89
 5605              		.cfi_restore 86
 5606              		.cfi_restore 87
 5607              		.cfi_restore 84
 5608              		.cfi_restore 85
 5609              		.cfi_restore 82
 5610              		.cfi_restore 83
 5611              		.cfi_restore 80
 5612              		.cfi_restore 81
 5613              		.cfi_def_cfa_offset 32
 5614              	.LVL357:
 5615 0a16 BDE8F087 		pop	{r4, r5, r6, r7, r8, r9, r10, pc}
 5616              	.LVL358:
 5617              	.L618:
 5618              		.cfi_restore_state
 5619              		.loc 1 2588 0
 5620 0a1a BFEE009A 		vmov.f32	s18, #-1.0e+0
 5621              		.loc 1 2587 0
 5622 0a1e F1EE008A 		vmov.f32	s17, #4.0e+0
 5623              	.LVL359:
 5624 0a22 A6E5     		b	.L584
 5625              	.LVL360:
 5626              	.L674:
 5627              		.loc 1 2526 0
 5628 0a24 D4ED0E6A 		vldr.32	s13, [r4, #56]
 5629 0a28 D4ED707A 		vldr.32	s15, [r4, #448]	@ int
 5630 0a2c F8EEE77A 		vcvt.f32.s32	s15, s15
 5631 0a30 86EEA77A 		vdiv.f32	s14, s13, s15
 5632 0a34 B4EEC87A 		vcmpe.f32	s14, s16
 5633 0a38 F1EE10FA 		vmrs	APSR_nzcv, FPSCR
 5634 0a3c 40F35381 		ble	.L676
 5635              		.loc 1 2527 0
 5636 0a40 3D4E     		ldr	r6, .L696+40
 5637 0a42 0023     		movs	r3, #0
 5638 0a44 3360     		str	r3, [r6]	@ float
 5639 0a46 63E5     		b	.L567
 5640              	.LVL361:
 5641              	.L677:
 5642              		.loc 1 2564 0
 5643 0a48 DFED3C7A 		vldr.32	s15, .L696+44
ARM GAS  /tmp/ccjtIDd2.s 			page 100


 5644 0a4c F4EEE78A 		vcmpe.f32	s17, s15
 5645 0a50 F1EE10FA 		vmrs	APSR_nzcv, FPSCR
 5646 0a54 40F3A880 		ble	.L678
 5647              		.loc 1 2565 0
 5648 0a58 D7ED007A 		vldr.32	s15, [r7]
 5649 0a5c F5EEC07A 		vcmpe.f32	s15, #0
 5650 0a60 F1EE10FA 		vmrs	APSR_nzcv, FPSCR
 5651 0a64 7FF56AAD 		bpl	.L574
 5652              		.loc 1 2566 0
 5653 0a68 9FED357A 		vldr.32	s14, .L696+48
 5654 0a6c 94ED046A 		vldr.32	s12, [r4, #16]
 5655 0a70 C6EE076A 		vdiv.f32	s13, s12, s14
 5656 0a74 B0EE007A 		vmov.f32	s14, #2.0e+0
 5657 0a78 E6EEC77A 		vfms.f32	s15, s13, s14
 5658 0a7c C7ED007A 		vstr.32	s15, [r7]
 5659 0a80 5CE5     		b	.L574
 5660              	.LVL362:
 5661              	.L689:
 5662              		.loc 1 2751 0
 5663 0a82 DAED006A 		vldr.32	s13, [r10]
 5664 0a86 9FED2F7A 		vldr.32	s14, .L696+52
 5665              		.loc 1 2729 0
 5666 0a8a 95ED009A 		vldr.32	s18, [r5]
 5667              	.LVL363:
 5668              		.loc 1 2751 0
 5669 0a8e F4EEC76A 		vcmpe.f32	s13, s14
 5670 0a92 F1EE10FA 		vmrs	APSR_nzcv, FPSCR
 5671 0a96 48BF     		it	mi
 5672 0a98 8AED007A 		vstrmi.32	s14, [r10]
 5673              		.loc 1 2738 0
 5674 0a9c 67EE887A 		vmul.f32	s15, s15, s16
 5675              	.LVL364:
 5676              		.loc 1 2752 0
 5677 0aa0 94ED1B7A 		vldr.32	s14, [r4, #108]
 5678              		.loc 1 2754 0
 5679 0aa4 D4ED1D0A 		vldr.32	s1, [r4, #116]
 5680              		.loc 1 2752 0
 5681 0aa8 27EE878A 		vmul.f32	s16, s15, s14
 5682              		.loc 1 2753 0
 5683 0aac FFF7FEFF 		bl	utils_min_abs
 5684              	.LVL365:
 5685              		.loc 1 2752 0
 5686 0ab0 DAED000A 		vldr.32	s1, [r10]
 5687 0ab4 C0EE200A 		vdiv.f32	s1, s0, s1
 5688 0ab8 B0EE480A 		vmov.f32	s0, s16
 5689 0abc FFF7FEFF 		bl	utils_min_abs
 5690              	.LVL366:
 5691 0ac0 84ED1F0A 		vstr.32	s0, [r4, #124]
 5692              		.loc 1 2756 0
 5693 0ac4 94ED1C8A 		vldr.32	s16, [r4, #112]
 5694 0ac8 D4ED1A7A 		vldr.32	s15, [r4, #104]
 5695              		.loc 1 2758 0
 5696 0acc D4ED1E0A 		vldr.32	s1, [r4, #120]
 5697              		.loc 1 2757 0
 5698 0ad0 88EE890A 		vdiv.f32	s0, s17, s18
 5699              		.loc 1 2756 0
 5700 0ad4 28EE278A 		vmul.f32	s16, s16, s15
ARM GAS  /tmp/ccjtIDd2.s 			page 101


 5701              		.loc 1 2757 0
 5702 0ad8 FFF7FEFF 		bl	utils_min_abs
 5703              	.LVL367:
 5704              		.loc 1 2756 0
 5705 0adc DAED000A 		vldr.32	s1, [r10]
 5706 0ae0 C0EE200A 		vdiv.f32	s1, s0, s1
 5707 0ae4 B0EE480A 		vmov.f32	s0, s16
 5708 0ae8 FFF7FEFF 		bl	utils_min_abs
 5709              	.LVL368:
 5710 0aec 84ED200A 		vstr.32	s0, [r4, #128]
 5711              		.loc 1 2776 0
 5712 0af0 04B0     		add	sp, sp, #16
 5713              		.cfi_remember_state
 5714              		.cfi_def_cfa_offset 88
 5715              		@ sp needed
 5716 0af2 BDEC0E8B 		vldm	sp!, {d8-d14}
 5717              		.cfi_restore 92
 5718              		.cfi_restore 93
 5719              		.cfi_restore 90
 5720              		.cfi_restore 91
 5721              		.cfi_restore 88
 5722              		.cfi_restore 89
 5723              		.cfi_restore 86
 5724              		.cfi_restore 87
 5725              		.cfi_restore 84
 5726              		.cfi_restore 85
 5727              		.cfi_restore 82
 5728              		.cfi_restore 83
 5729              		.cfi_restore 80
 5730              		.cfi_restore 81
 5731              		.cfi_def_cfa_offset 32
 5732              	.LVL369:
 5733 0af6 BDE8F087 		pop	{r4, r5, r6, r7, r8, r9, r10, pc}
 5734              	.LVL370:
 5735              	.L685:
 5736              		.cfi_restore_state
 5737              		.loc 1 2501 0
 5738 0afa 9FED120A 		vldr.32	s0, .L696+52
 5739 0afe D4ED040A 		vldr.32	s1, [r4, #16]
 5740 0b02 3AEEC00A 		vsub.f32	s0, s21, s0
 5741 0b06 FFF7FEFF 		bl	utils_min_abs
 5742              	.LVL371:
 5743 0b0a 89ED000A 		vstr.32	s0, [r9]
 5744 0b0e E0E4     		b	.L560
 5745              	.L697:
 5746              		.align	2
 5747              	.L696:
 5748 0b10 00000000 		.word	.LANCHOR70
 5749 0b14 6F12833A 		.word	981668463
 5750 0b18 00000000 		.word	.LANCHOR71
 5751 0b1c CDCC4C3D 		.word	1028443341
 5752 0b20 00000000 		.word	0
 5753 0b24 00000000 		.word	.LANCHOR75
 5754 0b28 00000000 		.word	.LANCHOR74
 5755 0b2c 00000000 		.word	.LANCHOR73
 5756 0b30 00803B45 		.word	1161527296
 5757 0b34 00000000 		.word	.LANCHOR59
ARM GAS  /tmp/ccjtIDd2.s 			page 102


 5758 0b38 00000000 		.word	.LANCHOR68
 5759 0b3c 86EB8940 		.word	1082780550
 5760 0b40 00C0DA45 		.word	1171963904
 5761 0b44 0AD7233C 		.word	1008981770
 5762 0b48 00000000 		.word	.LANCHOR72
 5763              	.LVL372:
 5764              	.L523:
 5765              		.loc 1 2349 0
 5766 0b4c DFF86482 		ldr	r8, .L698+32
 5767 0b50 DFED906A 		vldr.32	s13, .L698
 5768 0b54 98ED00BA 		vldr.32	s22, [r8]
 5769 0b58 7B8A     		ldrh	r3, [r7, #18]
 5770 0b5a 07EE103A 		vmov	s14, r3	@ int
 5771 0b5e B8EE477A 		vcvt.f32.u32	s14, s14
 5772 0b62 C6EE877A 		vdiv.f32	s15, s13, s14
 5773 0b66 77EEEC7A 		vsub.f32	s15, s15, s25
 5774 0b6a 8AEEA70A 		vdiv.f32	s0, s21, s15
 5775 0b6e 80EE2A0A 		vdiv.f32	s0, s0, s21
 5776 0b72 FFF7FEFF 		bl	logf
 5777              	.LVL373:
 5778 0b76 94ED6B7A 		vldr.32	s14, [r4, #428]
 5779 0b7a DFED876A 		vldr.32	s13, .L698+4
 5780 0b7e D8ED007A 		vldr.32	s15, [r8]
 5781 0b82 80EE070A 		vdiv.f32	s0, s0, s14
 5782 0b86 30EE0CCA 		vadd.f32	s24, s0, s24
 5783 0b8a 8CEE8C7A 		vdiv.f32	s14, s25, s24
 5784 0b8e 77EE6BBA 		vsub.f32	s23, s14, s23
 5785 0b92 3BEE6BBA 		vsub.f32	s22, s22, s23
 5786 0b96 EBEE667A 		vfms.f32	s15, s22, s13
 5787 0b9a C8ED007A 		vstr.32	s15, [r8]
 5788 0b9e FFF74EBB 		b	.L524
 5789              	.LVL374:
 5790              	.L675:
 5791              		.loc 1 2524 0
 5792 0ba2 E368     		ldr	r3, [r4, #12]	@ float
 5793 0ba4 3360     		str	r3, [r6]	@ float
 5794 0ba6 B3E4     		b	.L567
 5795              	.LVL375:
 5796              	.L678:
 5797              		.loc 1 2568 0
 5798 0ba8 DFED7C7A 		vldr.32	s15, .L698+8
 5799 0bac F4EEE78A 		vcmpe.f32	s17, s15
 5800 0bb0 F1EE10FA 		vmrs	APSR_nzcv, FPSCR
 5801 0bb4 65DC     		bgt	.L690
 5802              		.loc 1 2570 0
 5803 0bb6 9FED7A7A 		vldr.32	s14, .L698+12
 5804 0bba D7ED007A 		vldr.32	s15, [r7]
 5805 0bbe F4EEC78A 		vcmpe.f32	s17, s14
 5806 0bc2 F1EE10FA 		vmrs	APSR_nzcv, FPSCR
 5807 0bc6 40F3D080 		ble	.L680
 5808              		.loc 1 2571 0
 5809 0bca F5EEC07A 		vcmpe.f32	s15, #0
 5810 0bce F1EE10FA 		vmrs	APSR_nzcv, FPSCR
 5811 0bd2 7FF5B3AC 		bpl	.L574
 5812              		.loc 1 2572 0
 5813 0bd6 94ED046A 		vldr.32	s12, [r4, #16]
 5814 0bda DFED726A 		vldr.32	s13, .L698+16
ARM GAS  /tmp/ccjtIDd2.s 			page 103


 5815 0bde 86EE267A 		vdiv.f32	s14, s12, s13
 5816 0be2 77EEC77A 		vsub.f32	s15, s15, s14
 5817 0be6 C7ED007A 		vstr.32	s15, [r7]
 5818 0bea A7E4     		b	.L574
 5819              	.LVL376:
 5820              	.L686:
 5821              		.loc 1 2449 0
 5822 0bec F0EE6A1A 		vmov.f32	s3, s21
 5823 0bf0 98ED000A 		vldr.32	s0, [r8]
 5824 0bf4 9FED6C2A 		vldr.32	s4, .L698+20
 5825 0bf8 B0EE6E1A 		vmov.f32	s2, s29
 5826 0bfc F0EE6C0A 		vmov.f32	s1, s25
 5827 0c00 FFF7FEFF 		bl	utils_map
 5828              	.LVL377:
 5829 0c04 F0EE40AA 		vmov.f32	s21, s0
 5830              	.LVL378:
 5831 0c08 00E4     		b	.L550
 5832              	.LVL379:
 5833              	.L683:
 5834              		.loc 1 2439 0
 5835 0c0a F0EE4D0A 		vmov.f32	s1, s26
 5836 0c0e 99ED000A 		vldr.32	s0, [r9]
 5837              	.LVL380:
 5838 0c12 9FED652A 		vldr.32	s4, .L698+20
 5839 0c16 B0EE4E1A 		vmov.f32	s2, s28
 5840 0c1a F0EE6A1A 		vmov.f32	s3, s21
 5841 0c1e FFF7FEFF 		bl	utils_map
 5842              	.LVL381:
 5843 0c22 B0EE40DA 		vmov.f32	s26, s0
 5844              	.LVL382:
 5845 0c26 D5E4     		b	.L549
 5846              	.LVL383:
 5847              	.L687:
 5848              		.loc 1 2482 0
 5849 0c28 D4ED0D0A 		vldr.32	s1, [r4, #52]
 5850 0c2c 9FED5E2A 		vldr.32	s4, .L698+20
 5851 0c30 94ED0E1A 		vldr.32	s2, [r4, #56]
 5852 0c34 D4ED031A 		vldr.32	s3, [r4, #12]
 5853 0c38 FFF7FEFF 		bl	utils_map
 5854              	.LVL384:
 5855 0c3c B0EE40BA 		vmov.f32	s22, s0
 5856              	.LVL385:
 5857 0c40 96ED000A 		vldr.32	s0, [r6]
 5858              	.LVL386:
 5859 0c44 23E4     		b	.L557
 5860              	.LVL387:
 5861              	.L610:
 5862              		.loc 1 2408 0
 5863 0c46 9FED58BA 		vldr.32	s22, .L698+20
 5864              	.LVL388:
 5865              		.loc 1 2407 0
 5866 0c4a B0EE4BCA 		vmov.f32	s24, s22
 5867 0c4e FFF78BBB 		b	.L537
 5868              	.LVL389:
 5869              	.L619:
 5870              		.loc 1 2610 0
 5871 0c52 FFEE009A 		vmov.f32	s19, #-1.0e+0
ARM GAS  /tmp/ccjtIDd2.s 			page 104


 5872              	.LVL390:
 5873              		.loc 1 2609 0
 5874 0c56 F1EE00AA 		vmov.f32	s21, #4.0e+0
 5875 0c5a 7BE5     		b	.L589
 5876              	.LVL391:
 5877              	.L688:
 5878              	.LBB396:
 5879              		.loc 1 2389 0
 5880 0c5c B5EEC0BA 		vcmpe.f32	s22, #0
 5881 0c60 F1EE10FA 		vmrs	APSR_nzcv, FPSCR
 5882              		.loc 1 2392 0
 5883 0c64 B4EEEBCA 		vcmpe.f32	s24, s23
 5884 0c68 4CBF     		ite	mi
 5885 0c6a F1EE40DA 		vnegmi.f32	s27, s0
 5886              		.loc 1 2389 0
 5887 0c6e F0EE40DA 		vmovpl.f32	s27, s0
 5888              	.LVL392:
 5889              		.loc 1 2392 0
 5890 0c72 F1EE10FA 		vmrs	APSR_nzcv, FPSCR
 5891 0c76 3FF732AD 		bgt	.L691
 5892              	.L667:
 5893              	.LBE396:
 5894              		.loc 1 2373 0
 5895 0c7a F0EE6ABA 		vmov.f32	s23, s21
 5896 0c7e FFF707BB 		b	.L525
 5897              	.LVL393:
 5898              	.L690:
 5899              		.loc 1 2569 0
 5900 0c82 0023     		movs	r3, #0
 5901 0c84 3B60     		str	r3, [r7]	@ float
 5902 0c86 59E4     		b	.L574
 5903              	.LVL394:
 5904              	.L528:
 5905              		.loc 1 2378 0
 5906 0c88 DFED47BA 		vldr.32	s23, .L698+20
 5907              	.LBB397:
 5908              	.LBB384:
 5909 0c8c 0520     		movs	r0, #5
 5910              	.LBE384:
 5911              	.LBE397:
 5912              		.loc 1 2377 0
 5913 0c8e F0EE6BDA 		vmov.f32	s27, s23
 5914              	.LBB398:
 5915              	.LBB385:
 5916 0c92 FFF7FEFF 		bl	mc_interface_fault_stop.part.5
 5917              	.LVL395:
 5918 0c96 FFF7FBBA 		b	.L525
 5919              	.LVL396:
 5920              	.L540:
 5921              	.LBE385:
 5922              	.LBE398:
 5923              		.loc 1 2404 0
 5924 0c9a 9FED43BA 		vldr.32	s22, .L698+20
 5925              	.LVL397:
 5926              	.LBB399:
 5927              	.LBB390:
 5928 0c9e 0620     		movs	r0, #6
ARM GAS  /tmp/ccjtIDd2.s 			page 105


 5929              	.LBE390:
 5930              	.LBE399:
 5931              		.loc 1 2403 0
 5932 0ca0 B0EE4BCA 		vmov.f32	s24, s22
 5933              	.LBB400:
 5934              	.LBB391:
 5935 0ca4 FFF7FEFF 		bl	mc_interface_fault_stop.part.5
 5936              	.LVL398:
 5937 0ca8 FFF75EBB 		b	.L537
 5938              	.LVL399:
 5939              	.L586:
 5940              	.LBE391:
 5941              	.LBE400:
 5942              		.loc 1 2593 0
 5943 0cac D4ED031A 		vldr.32	s3, [r4, #12]
 5944 0cb0 B1EE002A 		vmov.f32	s4, #4.0e+0
 5945 0cb4 B0EE481A 		vmov.f32	s2, s16
 5946 0cb8 F0EE6A0A 		vmov.f32	s1, s21
 5947 0cbc B0EE490A 		vmov.f32	s0, s18
 5948 0cc0 FFF7FEFF 		bl	utils_map
 5949              	.LVL400:
 5950              		.loc 1 2595 0
 5951 0cc4 D4ED041A 		vldr.32	s3, [r4, #16]
 5952              		.loc 1 2593 0
 5953 0cc8 F0EE408A 		vmov.f32	s17, s0
 5954              	.LVL401:
 5955              		.loc 1 2595 0
 5956 0ccc B0EE481A 		vmov.f32	s2, s16
 5957 0cd0 B0EE490A 		vmov.f32	s0, s18
 5958              	.LVL402:
 5959 0cd4 F0EE6A0A 		vmov.f32	s1, s21
 5960 0cd8 BFEE002A 		vmov.f32	s4, #-1.0e+0
 5961 0cdc FFF7FEFF 		bl	utils_map
 5962              	.LVL403:
 5963 0ce0 B0EE409A 		vmov.f32	s18, s0
 5964              	.LVL404:
 5965 0ce4 45E4     		b	.L584
 5966              	.LVL405:
 5967              	.L676:
 5968              		.loc 1 2529 0
 5969 0ce6 D4ED0D0A 		vldr.32	s1, [r4, #52]
 5970 0cea D4ED706A 		vldr.32	s13, [r4, #448]	@ int
 5971 0cee 94ED0E1A 		vldr.32	s2, [r4, #56]
 5972 0cf2 94ED707A 		vldr.32	s14, [r4, #448]	@ int
 5973 0cf6 2D4E     		ldr	r6, .L698+24
 5974 0cf8 9FED2D6A 		vldr.32	s12, .L698+28
 5975 0cfc D6ED007A 		vldr.32	s15, [r6]
 5976 0d00 D4ED031A 		vldr.32	s3, [r4, #12]
 5977 0d04 9FED282A 		vldr.32	s4, .L698+20
 5978 0d08 F8EEE66A 		vcvt.f32.s32	s13, s13
 5979 0d0c B8EEC77A 		vcvt.f32.s32	s14, s14
 5980 0d10 C0EEA60A 		vdiv.f32	s1, s1, s13
 5981 0d14 B0EE480A 		vmov.f32	s0, s16
 5982 0d18 81EE071A 		vdiv.f32	s2, s2, s14
 5983 0d1c 37EE868A 		vadd.f32	s16, s15, s12
 5984              	.LVL406:
 5985 0d20 FFF7FEFF 		bl	utils_map
ARM GAS  /tmp/ccjtIDd2.s 			page 106


 5986              	.LVL407:
 5987 0d24 F0EE400A 		vmov.f32	s1, s0
 5988 0d28 B0EE480A 		vmov.f32	s0, s16
 5989 0d2c FFF7FEFF 		bl	utils_min_abs
 5990              	.LVL408:
 5991 0d30 86ED000A 		vstr.32	s0, [r6]
 5992 0d34 FFF7ECBB 		b	.L567
 5993              	.LVL409:
 5994              	.L681:
 5995              		.loc 1 2616 0
 5996 0d38 B1EE002A 		vmov.f32	s4, #4.0e+0
 5997 0d3c F0EE480A 		vmov.f32	s1, s16
 5998 0d40 B0EE690A 		vmov.f32	s0, s19
 5999 0d44 FFF7FEFF 		bl	utils_map
 6000              	.LVL410:
 6001              		.loc 1 2618 0
 6002 0d48 D4ED041A 		vldr.32	s3, [r4, #16]
 6003              		.loc 1 2616 0
 6004 0d4c F0EE40AA 		vmov.f32	s21, s0
 6005              	.LVL411:
 6006              		.loc 1 2618 0
 6007 0d50 B0EE6B1A 		vmov.f32	s2, s23
 6008 0d54 B0EE690A 		vmov.f32	s0, s19
 6009              	.LVL412:
 6010 0d58 F0EE480A 		vmov.f32	s1, s16
 6011 0d5c BFEE002A 		vmov.f32	s4, #-1.0e+0
 6012 0d60 FFF7FEFF 		bl	utils_map
 6013              	.LVL413:
 6014 0d64 F0EE409A 		vmov.f32	s19, s0
 6015              	.LVL414:
 6016 0d68 F4E4     		b	.L589
 6017              	.LVL415:
 6018              	.L680:
 6019              		.loc 1 2575 0
 6020 0d6a 94ED047A 		vldr.32	s14, [r4, #16]
 6021 0d6e F4EEC77A 		vcmpe.f32	s15, s14
 6022 0d72 F1EE10FA 		vmrs	APSR_nzcv, FPSCR
 6023 0d76 7FF7E1AB 		ble	.L574
 6024              		.loc 1 2576 0
 6025 0d7a 94ED046A 		vldr.32	s12, [r4, #16]
 6026 0d7e DFED096A 		vldr.32	s13, .L698+16
 6027 0d82 86EE267A 		vdiv.f32	s14, s12, s13
 6028 0d86 77EE277A 		vadd.f32	s15, s14, s15
 6029 0d8a C7ED007A 		vstr.32	s15, [r7]
 6030 0d8e FFF7D5BB 		b	.L574
 6031              	.L699:
 6032 0d92 00BF     		.align	2
 6033              	.L698:
 6034 0d94 00F07F45 		.word	1166012416
 6035 0d98 0AD7233C 		.word	1008981770
 6036 0d9c 66668E40 		.word	1083074150
 6037 0da0 C3F58840 		.word	1082717635
 6038 0da4 00C0DA45 		.word	1171963904
 6039 0da8 00000000 		.word	0
 6040 0dac 00000000 		.word	.LANCHOR68
 6041 0db0 6F12833A 		.word	981668463
 6042 0db4 00000000 		.word	.LANCHOR35
ARM GAS  /tmp/ccjtIDd2.s 			page 107


 6043              		.cfi_endproc
 6044              	.LFE380:
 6045              		.size	update_override_limits.constprop.6, .-update_override_limits.constprop.6
 6046              		.section	.text.mc_interface_set_configuration,"ax",%progbits
 6047              		.align	1
 6048              		.p2align 4,,15
 6049              		.global	mc_interface_set_configuration
 6050              		.syntax unified
 6051              		.thumb
 6052              		.thumb_func
 6053              		.fpu fpv4-sp-d16
 6054              		.type	mc_interface_set_configuration, %function
 6055              	mc_interface_set_configuration:
 6056              	.LFB268:
 6057              		.loc 1 291 0
 6058              		.cfi_startproc
 6059              		@ args = 0, pretend = 0, frame = 0
 6060              		@ frame_needed = 0, uses_anonymous_args = 0
 6061              	.LVL416:
 6062 0000 70B5     		push	{r4, r5, r6, lr}
 6063              		.cfi_def_cfa_offset 16
 6064              		.cfi_offset 4, -16
 6065              		.cfi_offset 5, -12
 6066              		.cfi_offset 6, -8
 6067              		.cfi_offset 14, -4
 6068              		.loc 1 293 0
 6069 0002 524D     		ldr	r5, .L730
 6070 0004 90F89831 		ldrb	r3, [r0, #408]	@ zero_extendqisi2
 6071 0008 95F89821 		ldrb	r2, [r5, #408]	@ zero_extendqisi2
 6072 000c 9A42     		cmp	r2, r3
 6073              		.loc 1 291 0
 6074 000e 0446     		mov	r4, r0
 6075              		.loc 1 293 0
 6076 0010 42D1     		bne	.L726
 6077              	.LVL417:
 6078              	.L701:
 6079              		.loc 1 332 0
 6080 0012 012B     		cmp	r3, #1
 6081 0014 4DD0     		beq	.L727
 6082              	.L702:
 6083              		.loc 1 347 0
 6084 0016 94F89A01 		ldrb	r0, [r4, #410]	@ zero_extendqisi2
 6085 001a FFF7FEFF 		bl	drv8350_set_oc_mode
 6086              	.LVL418:
 6087              		.loc 1 348 0
 6088 001e D4F89C01 		ldr	r0, [r4, #412]
 6089 0022 FFF7FEFF 		bl	drv8350_set_oc_adj
 6090              	.LVL419:
 6091 0026 10B1     		cbz	r0, .L710
 6092              		.loc 1 349 0
 6093 0028 494B     		ldr	r3, .L730+4
 6094 002a 0122     		movs	r2, #1
 6095 002c 1A70     		strb	r2, [r3]
 6096              	.L710:
 6097              		.loc 1 353 0
 6098 002e AB78     		ldrb	r3, [r5, #2]	@ zero_extendqisi2
 6099 0030 A278     		ldrb	r2, [r4, #2]	@ zero_extendqisi2
ARM GAS  /tmp/ccjtIDd2.s 			page 108


 6100 0032 9A42     		cmp	r2, r3
 6101 0034 1DD1     		bne	.L728
 6102              		.loc 1 378 0
 6103 0036 2146     		mov	r1, r4
 6104 0038 4FF4E472 		mov	r2, #456
 6105 003c 4348     		ldr	r0, .L730
 6106 003e FFF7FEFF 		bl	memcpy
 6107              	.LVL420:
 6108              	.L712:
 6109              		.loc 1 381 0
 6110 0042 FFF7FEFF 		bl	update_override_limits.constprop.6
 6111              	.LVL421:
 6112              		.loc 1 385 0
 6113 0046 AB78     		ldrb	r3, [r5, #2]	@ zero_extendqisi2
 6114 0048 032B     		cmp	r3, #3
 6115 004a 31D8     		bhi	.L700
 6116 004c DFE803F0 		tbb	[pc, r3]
 6117              	.L719:
 6118 0050 0C       		.byte	(.L718-.L719)/2
 6119 0051 0C       		.byte	(.L718-.L719)/2
 6120 0052 07       		.byte	(.L720-.L719)/2
 6121 0053 02       		.byte	(.L721-.L719)/2
 6122              		.p2align 1
 6123              	.L721:
 6124              		.loc 1 396 0
 6125 0054 3D48     		ldr	r0, .L730
 6126              		.loc 1 402 0
 6127 0056 BDE87040 		pop	{r4, r5, r6, lr}
 6128              		.cfi_remember_state
 6129              		.cfi_restore 14
 6130              		.cfi_restore 6
 6131              		.cfi_restore 5
 6132              		.cfi_restore 4
 6133              		.cfi_def_cfa_offset 0
 6134              	.LVL422:
 6135              		.loc 1 396 0
 6136 005a FFF7FEBF 		b	gpdrive_set_configuration
 6137              	.LVL423:
 6138              	.L720:
 6139              		.cfi_restore_state
 6140              		.loc 1 392 0
 6141 005e 3B48     		ldr	r0, .L730
 6142              		.loc 1 402 0
 6143 0060 BDE87040 		pop	{r4, r5, r6, lr}
 6144              		.cfi_remember_state
 6145              		.cfi_restore 14
 6146              		.cfi_restore 6
 6147              		.cfi_restore 5
 6148              		.cfi_restore 4
 6149              		.cfi_def_cfa_offset 0
 6150              	.LVL424:
 6151              		.loc 1 392 0
 6152 0064 FFF7FEBF 		b	mcpwm_foc_set_configuration
 6153              	.LVL425:
 6154              	.L718:
 6155              		.cfi_restore_state
 6156              		.loc 1 388 0
ARM GAS  /tmp/ccjtIDd2.s 			page 109


 6157 0068 3848     		ldr	r0, .L730
 6158              		.loc 1 402 0
 6159 006a BDE87040 		pop	{r4, r5, r6, lr}
 6160              		.cfi_remember_state
 6161              		.cfi_restore 14
 6162              		.cfi_restore 6
 6163              		.cfi_restore 5
 6164              		.cfi_restore 4
 6165              		.cfi_def_cfa_offset 0
 6166              	.LVL426:
 6167              		.loc 1 388 0
 6168 006e FFF7FEBF 		b	mcpwm_set_configuration
 6169              	.LVL427:
 6170              	.L728:
 6171              		.cfi_restore_state
 6172              		.loc 1 354 0
 6173 0072 FFF7FEFF 		bl	mcpwm_deinit
 6174              	.LVL428:
 6175              		.loc 1 355 0
 6176 0076 FFF7FEFF 		bl	mcpwm_foc_deinit
 6177              	.LVL429:
 6178              		.loc 1 356 0
 6179 007a FFF7FEFF 		bl	gpdrive_deinit
 6180              	.LVL430:
 6181              		.loc 1 358 0
 6182 007e 2146     		mov	r1, r4
 6183 0080 4FF4E472 		mov	r2, #456
 6184 0084 3148     		ldr	r0, .L730
 6185 0086 FFF7FEFF 		bl	memcpy
 6186              	.LVL431:
 6187              		.loc 1 360 0
 6188 008a AB78     		ldrb	r3, [r5, #2]	@ zero_extendqisi2
 6189 008c 032B     		cmp	r3, #3
 6190 008e D8D8     		bhi	.L712
 6191 0090 DFE803F0 		tbb	[pc, r3]
 6192              	.L714:
 6193 0094 1C       		.byte	(.L713-.L714)/2
 6194 0095 1C       		.byte	(.L713-.L714)/2
 6195 0096 18       		.byte	(.L715-.L714)/2
 6196 0097 14       		.byte	(.L716-.L714)/2
 6197              	.LVL432:
 6198              		.p2align 1
 6199              	.L726:
 6200              		.loc 1 294 0
 6201 0098 FFF7FEFF 		bl	encoder_deinit
 6202              	.LVL433:
 6203              		.loc 1 295 0
 6204 009c 94F89831 		ldrb	r3, [r4, #408]	@ zero_extendqisi2
 6205 00a0 013B     		subs	r3, r3, #1
 6206 00a2 042B     		cmp	r3, #4
 6207 00a4 B7D8     		bhi	.L702
 6208 00a6 DFE803F0 		tbb	[pc, r3]
 6209              	.L704:
 6210 00aa 40       		.byte	(.L703-.L704)/2
 6211 00ab 3B       		.byte	(.L705-.L704)/2
 6212 00ac 36       		.byte	(.L706-.L704)/2
 6213 00ad 27       		.byte	(.L707-.L704)/2
ARM GAS  /tmp/ccjtIDd2.s 			page 110


 6214 00ae 15       		.byte	(.L708-.L704)/2
 6215 00af 00       		.p2align 1
 6216              	.L700:
 6217              		.loc 1 402 0
 6218 00b0 70BD     		pop	{r4, r5, r6, pc}
 6219              	.LVL434:
 6220              	.L727:
 6221              		.loc 1 333 0
 6222 00b2 D4F89401 		ldr	r0, [r4, #404]
 6223 00b6 FFF7FEFF 		bl	encoder_set_counts
 6224              	.LVL435:
 6225 00ba ACE7     		b	.L702
 6226              	.L716:
 6227              		.loc 1 371 0
 6228 00bc 2348     		ldr	r0, .L730
 6229 00be FFF7FEFF 		bl	gpdrive_init
 6230              	.LVL436:
 6231              		.loc 1 372 0
 6232 00c2 BEE7     		b	.L712
 6233              	.L715:
 6234              		.loc 1 367 0
 6235 00c4 2148     		ldr	r0, .L730
 6236 00c6 FFF7FEFF 		bl	mcpwm_foc_init
 6237              	.LVL437:
 6238              		.loc 1 368 0
 6239 00ca BAE7     		b	.L712
 6240              	.L713:
 6241              		.loc 1 363 0
 6242 00cc 1F48     		ldr	r0, .L730
 6243 00ce FFF7FEFF 		bl	mcpwm_init
 6244              	.LVL438:
 6245              		.loc 1 364 0
 6246 00d2 B6E7     		b	.L712
 6247              	.L708:
 6248              		.loc 1 315 0
 6249 00d4 FFF7FEFF 		bl	app_get_configuration
 6250              	.LVL439:
 6251 00d8 1E4E     		ldr	r6, .L730+8
 6252 00da 0146     		mov	r1, r0
 6253 00dc 4FF4BC72 		mov	r2, #376
 6254 00e0 3046     		mov	r0, r6
 6255 00e2 FFF7FEFF 		bl	memcpy
 6256              	.LVL440:
 6257              		.loc 1 318 0
 6258 00e6 B37E     		ldrb	r3, [r6, #26]	@ zero_extendqisi2
 6259              		.loc 1 316 0
 6260 00e8 023B     		subs	r3, r3, #2
 6261 00ea 032B     		cmp	r3, #3
 6262 00ec 24D9     		bls	.L729
 6263              	.L709:
 6264              		.loc 1 324 0
 6265 00ee FFF7FEFF 		bl	encoder_init_ts5700n8501
 6266              	.LVL441:
 6267 00f2 94F89831 		ldrb	r3, [r4, #408]	@ zero_extendqisi2
 6268              		.loc 1 325 0
 6269 00f6 8CE7     		b	.L701
 6270              	.L707:
ARM GAS  /tmp/ccjtIDd2.s 			page 111


 6271              		.loc 1 309 0
 6272 00f8 95ED330A 		vldr.32	s0, [r5, #204]
 6273 00fc D5ED320A 		vldr.32	s1, [r5, #200]
 6274 0100 95ED351A 		vldr.32	s2, [r5, #212]
 6275 0104 D5ED341A 		vldr.32	s3, [r5, #208]
 6276 0108 95ED362A 		vldr.32	s4, [r5, #216]
 6277 010c FFF7FEFF 		bl	encoder_init_sincos
 6278              	.LVL442:
 6279 0110 94F89831 		ldrb	r3, [r4, #408]	@ zero_extendqisi2
 6280              		.loc 1 312 0
 6281 0114 7DE7     		b	.L701
 6282              	.L706:
 6283              		.loc 1 305 0
 6284 0116 FFF7FEFF 		bl	encoder_init_ad2s1205_spi
 6285              	.LVL443:
 6286 011a 94F89831 		ldrb	r3, [r4, #408]	@ zero_extendqisi2
 6287              		.loc 1 306 0
 6288 011e 78E7     		b	.L701
 6289              	.L705:
 6290              		.loc 1 301 0
 6291 0120 FFF7FEFF 		bl	encoder_init_as5047p_spi
 6292              	.LVL444:
 6293 0124 94F89831 		ldrb	r3, [r4, #408]	@ zero_extendqisi2
 6294              		.loc 1 302 0
 6295 0128 73E7     		b	.L701
 6296              	.L703:
 6297              		.loc 1 297 0
 6298 012a D4F89401 		ldr	r0, [r4, #404]
 6299 012e FFF7FEFF 		bl	encoder_init_abi
 6300              	.LVL445:
 6301 0132 94F89831 		ldrb	r3, [r4, #408]	@ zero_extendqisi2
 6302              		.loc 1 298 0
 6303 0136 6CE7     		b	.L701
 6304              	.L729:
 6305              		.loc 1 320 0
 6306 0138 0023     		movs	r3, #0
 6307              		.loc 1 321 0
 6308 013a 3046     		mov	r0, r6
 6309              		.loc 1 320 0
 6310 013c B376     		strb	r3, [r6, #26]
 6311              		.loc 1 321 0
 6312 013e FFF7FEFF 		bl	conf_general_store_app_configuration
 6313              	.LVL446:
 6314              		.loc 1 322 0
 6315 0142 3046     		mov	r0, r6
 6316 0144 FFF7FEFF 		bl	app_set_configuration
 6317              	.LVL447:
 6318 0148 D1E7     		b	.L709
 6319              	.L731:
 6320 014a 00BF     		.align	2
 6321              	.L730:
 6322 014c 00000000 		.word	.LANCHOR8
 6323 0150 00000000 		.word	.LANCHOR11
 6324 0154 00000000 		.word	.LANCHOR55
 6325              		.cfi_endproc
 6326              	.LFE268:
 6327              		.size	mc_interface_set_configuration, .-mc_interface_set_configuration
ARM GAS  /tmp/ccjtIDd2.s 			page 112


 6328              		.section	.text.mc_interface_set_cell_count,"ax",%progbits
 6329              		.align	1
 6330              		.p2align 4,,15
 6331              		.global	mc_interface_set_cell_count
 6332              		.syntax unified
 6333              		.thumb
 6334              		.thumb_func
 6335              		.fpu fpv4-sp-d16
 6336              		.type	mc_interface_set_cell_count, %function
 6337              	mc_interface_set_cell_count:
 6338              	.LFB308:
 6339              		.loc 1 747 0
 6340              		.cfi_startproc
 6341              		@ args = 0, pretend = 0, frame = 456
 6342              		@ frame_needed = 0, uses_anonymous_args = 0
 6343              	.LVL448:
 6344 0000 10B5     		push	{r4, lr}
 6345              		.cfi_def_cfa_offset 8
 6346              		.cfi_offset 4, -8
 6347              		.cfi_offset 14, -4
 6348 0002 F2B0     		sub	sp, sp, #456
 6349              		.cfi_def_cfa_offset 464
 6350              		.loc 1 747 0
 6351 0004 0446     		mov	r4, r0
 6352              		.loc 1 748 0
 6353 0006 4FF4E472 		mov	r2, #456
 6354 000a 6846     		mov	r0, sp
 6355              	.LVL449:
 6356 000c 1349     		ldr	r1, .L735
 6357 000e FFF7FEFF 		bl	memcpy
 6358              	.LVL450:
 6359              		.loc 1 758 0
 6360 0012 709B     		ldr	r3, [sp, #448]
 6361 0014 A342     		cmp	r3, r4
 6362 0016 1CD0     		beq	.L733
 6363              		.loc 1 761 0
 6364 0018 07EE904A 		vmov	s15, r4	@ int
 6365              		.loc 1 762 0
 6366 001c 9FED106A 		vldr.32	s12, .L735+4
 6367 0020 DFED106A 		vldr.32	s13, .L735+8
 6368              		.loc 1 763 0
 6369 0024 9FED107A 		vldr.32	s14, .L735+12
 6370              		.loc 1 760 0
 6371 0028 7094     		str	r4, [sp, #448]
 6372              		.loc 1 761 0
 6373 002a F8EE677A 		vcvt.f32.u32	s15, s15
 6374              		.loc 1 764 0
 6375 002e F0EE045A 		vmov.f32	s11, #2.5e+0
 6376              		.loc 1 762 0
 6377 0032 E7EE866A 		vfma.f32	s13, s15, s12
 6378              		.loc 1 763 0
 6379 0036 27EE877A 		vmul.f32	s14, s15, s14
 6380              		.loc 1 761 0
 6381 003a 37EEA76A 		vadd.f32	s12, s15, s15
 6382              		.loc 1 764 0
 6383 003e 67EEA57A 		vmul.f32	s15, s15, s11
 6384              		.loc 1 762 0
ARM GAS  /tmp/ccjtIDd2.s 			page 113


 6385 0042 CDED0C6A 		vstr.32	s13, [sp, #48]
 6386              		.loc 1 761 0
 6387 0046 8DED0B6A 		vstr.32	s12, [sp, #44]
 6388              		.loc 1 763 0
 6389 004a 8DED0D7A 		vstr.32	s14, [sp, #52]
 6390              		.loc 1 764 0
 6391 004e CDED0E7A 		vstr.32	s15, [sp, #56]
 6392              	.L733:
 6393              		.loc 1 767 0
 6394 0052 6846     		mov	r0, sp
 6395 0054 FFF7FEFF 		bl	mc_interface_set_configuration
 6396              	.LVL451:
 6397              		.loc 1 768 0
 6398 0058 72B0     		add	sp, sp, #456
 6399              		.cfi_def_cfa_offset 8
 6400              		@ sp needed
 6401 005a 10BD     		pop	{r4, pc}
 6402              	.L736:
 6403              		.align	2
 6404              	.L735:
 6405 005c 00000000 		.word	.LANCHOR8
 6406 0060 66668640 		.word	1082549862
 6407 0064 CDCC2C40 		.word	1076677837
 6408 0068 9A993940 		.word	1077516698
 6409              		.cfi_endproc
 6410              	.LFE308:
 6411              		.size	mc_interface_set_cell_count, .-mc_interface_set_cell_count
 6412              		.section	.text.mc_interface_get_tachometer_abs_value,"ax",%progbits
 6413              		.align	1
 6414              		.p2align 4,,15
