ARM GAS  /tmp/cc8NZiV4.s 			page 1


   1              		.cpu cortex-m4
   2              		.eabi_attribute 27, 1
   3              		.eabi_attribute 28, 1
   4              		.eabi_attribute 20, 1
   5              		.eabi_attribute 21, 1
   6              		.eabi_attribute 23, 3
   7              		.eabi_attribute 24, 1
   8              		.eabi_attribute 25, 1
   9              		.eabi_attribute 26, 1
  10              		.eabi_attribute 30, 2
  11              		.eabi_attribute 34, 1
  12              		.eabi_attribute 18, 4
  13              		.file	"app_ppm.c"
  14              		.text
  15              	.Ltext0:
  16              		.cfi_sections	.debug_frame
  17              		.section	.text.ppm_thread,"ax",%progbits
  18              		.align	1
  19              		.p2align 4,,15
  20              		.syntax unified
  21              		.thumb
  22              		.thumb_func
  23              		.fpu fpv4-sp-d16
  24              		.type	ppm_thread, %function
  25              	ppm_thread:
  26              	.LFB262:
  27              		.file 1 "applications/app_ppm.c"
  28              		.loc 1 128 0
  29              		.cfi_startproc
  30              		@ args = 0, pretend = 0, frame = 24
  31              		@ frame_needed = 0, uses_anonymous_args = 0
  32              	.LVL0:
  33 0000 2DE9F04F 		push	{r4, r5, r6, r7, r8, r9, r10, fp, lr}
  34              		.cfi_def_cfa_offset 36
  35              		.cfi_offset 4, -36
  36              		.cfi_offset 5, -32
  37              		.cfi_offset 6, -28
  38              		.cfi_offset 7, -24
  39              		.cfi_offset 8, -20
  40              		.cfi_offset 9, -16
  41              		.cfi_offset 10, -12
  42              		.cfi_offset 11, -8
  43              		.cfi_offset 14, -4
  44              	.LBB133:
  45              	.LBB134:
  46              		.file 2 "ChibiOS_3.0.2/os/rt/include/chregistry.h"
  47              		.loc 2 135 0
  48 0004 B14F     		ldr	r7, .L225
  49              	.LBE134:
  50              	.LBE133:
  51              		.loc 1 134 0
  52 0006 B24C     		ldr	r4, .L225+4
  53              	.LBB137:
  54              	.LBB135:
  55              		.loc 2 135 0
  56 0008 BB69     		ldr	r3, [r7, #24]
  57 000a B249     		ldr	r1, .L225+8
ARM GAS  /tmp/cc8NZiV4.s 			page 2


  58              	.LBE135:
  59              	.LBE137:
  60              		.loc 1 132 0
  61 000c B24A     		ldr	r2, .L225+12
  62              		.loc 1 134 0
  63 000e 94ED030A 		vldr.32	s0, [r4, #12]
  64 0012 D4ED040A 		vldr.32	s1, [r4, #16]
  65 0016 207E     		ldrb	r0, [r4, #24]	@ zero_extendqisi2
  66              	.LVL1:
  67              		.loc 1 136 0
  68 0018 DFF8FC82 		ldr	r8, .L225+76
  69 001c AF4D     		ldr	r5, .L225+16
  70              		.loc 1 128 0
  71 001e 2DED0C8B 		vpush.64	{d8, d9, d10, d11, d12, d13}
  72              		.cfi_def_cfa_offset 84
  73              		.cfi_offset 80, -84
  74              		.cfi_offset 81, -80
  75              		.cfi_offset 82, -76
  76              		.cfi_offset 83, -72
  77              		.cfi_offset 84, -68
  78              		.cfi_offset 85, -64
  79              		.cfi_offset 86, -60
  80              		.cfi_offset 87, -56
  81              		.cfi_offset 88, -52
  82              		.cfi_offset 89, -48
  83              		.cfi_offset 90, -44
  84              		.cfi_offset 91, -40
  85              	.LBB138:
  86              	.LBB136:
  87              		.loc 2 135 0
  88 0022 9961     		str	r1, [r3, #24]
  89              	.LVL2:
  90              	.LBE136:
  91              	.LBE138:
  92              		.loc 1 128 0
  93 0024 87B0     		sub	sp, sp, #28
  94              		.cfi_def_cfa_offset 112
  95              		.loc 1 132 0
  96 0026 1360     		str	r3, [r2]
  97              		.loc 1 134 0
  98 0028 FFF7FEFF 		bl	servodec_set_pulse_options
  99              	.LVL3:
 100              		.loc 1 135 0
 101 002c AC48     		ldr	r0, .L225+20
 102              	.LBB139:
 103              		.loc 1 166 0
 104 002e DFEDAD8A 		vldr.32	s17, .L225+24
 105              		.loc 1 196 0
 106 0032 9FEDADAA 		vldr.32	s20, .L225+28
 107              	.LBB140:
 108              	.LBB141:
 109              	.LBB142:
 110              		.loc 1 461 0
 111 0036 DFEDAD9A 		vldr.32	s19, .L225+32
 112 003a 9FEDAD9A 		vldr.32	s18, .L225+36
 113              	.LBE142:
 114              	.LBE141:
ARM GAS  /tmp/cc8NZiV4.s 			page 3


 115              	.LBE140:
 116              	.LBE139:
 117              		.loc 1 135 0
 118 003e FFF7FEFF 		bl	servodec_init
 119              	.LVL4:
 120              		.loc 1 136 0
 121 0042 0123     		movs	r3, #1
 122 0044 88F80030 		strb	r3, [r8]
 123              	.L2:
 124              	.LBB211:
 125              		.loc 1 139 0
 126 0048 0120     		movs	r0, #1
 127 004a FFF7FEFF 		bl	chEvtWaitAny
 128              	.LVL5:
 129              		.loc 1 141 0
 130 004e 2B78     		ldrb	r3, [r5]	@ zero_extendqisi2
 131 0050 03F0FF09 		and	r9, r3, #255
 132 0054 002B     		cmp	r3, #0
 133 0056 67D1     		bne	.L205
 134              		.loc 1 146 0
 135 0058 FFF7FEFF 		bl	mc_interface_get_configuration
 136              	.LVL6:
 137 005c 0646     		mov	r6, r0
 138              	.LVL7:
 139              		.loc 1 147 0
 140 005e FFF7FEFF 		bl	mc_interface_get_rpm
 141              	.LVL8:
 142              		.loc 1 148 0
 143 0062 4846     		mov	r0, r9
 144              		.loc 1 147 0
 145 0064 B0EE408A 		vmov.f32	s16, s0
 146              	.LVL9:
 147              		.loc 1 148 0
 148 0068 FFF7FEFF 		bl	servodec_get_servo
 149              	.LVL10:
 150              		.loc 1 149 0
 151 006c D4ED031A 		vldr.32	s3, [r4, #12]
 152 0070 94ED042A 		vldr.32	s4, [r4, #16]
 153              		.loc 1 148 0
 154 0074 8DED050A 		vstr.32	s0, [sp, #20]
 155              		.loc 1 149 0
 156 0078 B7EE001A 		vmov.f32	s2, #1.0e+0
 157 007c FFEE000A 		vmov.f32	s1, #-1.0e+0
 158 0080 FFF7FEFF 		bl	utils_map
 159              	.LVL11:
 160              		.loc 1 151 0
 161 0084 2378     		ldrb	r3, [r4]	@ zero_extendqisi2
 162 0086 DBB2     		uxtb	r3, r3
 163 0088 072B     		cmp	r3, #7
 164 008a 29D8     		bhi	.L4
 165 008c 0122     		movs	r2, #1
 166 008e 02FA03F3 		lsl	r3, r2, r3
 167 0092 13F0A40F 		tst	r3, #164
 168 0096 23D0     		beq	.L4
 169              		.loc 1 155 0
 170 0098 9DED057A 		vldr.32	s14, [sp, #20]
 171 009c 954B     		ldr	r3, .L225+40
ARM GAS  /tmp/cc8NZiV4.s 			page 4


 172              		.loc 1 156 0
 173 009e F7EE007A 		vmov.f32	s15, #1.0e+0
 174 00a2 77EE277A 		vadd.f32	s15, s14, s15
 175              		.loc 1 157 0
 176 00a6 F6EE006A 		vmov.f32	s13, #5.0e-1
 177 00aa 67EEA67A 		vmul.f32	s15, s15, s13
 178              		.loc 1 155 0
 179 00ae 83ED007A 		vstr.32	s14, [r3]
 180              		.loc 1 157 0
 181 00b2 CDED057A 		vstr.32	s15, [sp, #20]
 182              	.LVL12:
 183              	.L5:
 184              		.loc 1 175 0
 185 00b6 FFF7FEFF 		bl	app_is_output_disabled
 186              	.LVL13:
 187 00ba 0028     		cmp	r0, #0
 188 00bc C4D1     		bne	.L2
 189              		.loc 1 179 0
 190 00be FFF7FEFF 		bl	timeout_has_timeout
 191              	.LVL14:
 192 00c2 48B9     		cbnz	r0, .L11
 193              		.loc 1 179 0 is_stmt 0 discriminator 1
 194 00c4 FFF7FEFF 		bl	servodec_get_time_since_update
 195              	.LVL15:
 196 00c8 8146     		mov	r9, r0
 197 00ca FFF7FEFF 		bl	timeout_get_timeout_msec
 198              	.LVL16:
 199 00ce 8145     		cmp	r9, r0
 200 00d0 02D8     		bhi	.L11
 201              		.loc 1 180 0 is_stmt 1 discriminator 2
 202 00d2 FFF7FEFF 		bl	mc_interface_get_fault
 203              	.LVL17:
 204              		.loc 1 179 0 discriminator 2
 205 00d6 78B3     		cbz	r0, .L206
 206              	.L11:
 207              		.loc 1 181 0
 208 00d8 874B     		ldr	r3, .L225+44
 209 00da 0022     		movs	r2, #0
 210 00dc 1A60     		str	r2, [r3]
 211              		.loc 1 182 0
 212 00de B3E7     		b	.L2
 213              	.LVL18:
 214              	.L4:
 215              		.loc 1 162 0
 216 00e0 D4ED057A 		vldr.32	s15, [r4, #20]
 217 00e4 F4EEC07A 		vcmpe.f32	s15, s0
 218 00e8 F1EE10FA 		vmrs	APSR_nzcv, FPSCR
 219 00ec 0FDD     		ble	.L192
 220              		.loc 1 163 0
 221 00ee D4ED030A 		vldr.32	s1, [r4, #12]
 222 00f2 94ED051A 		vldr.32	s2, [r4, #20]
 223 00f6 B0EE682A 		vmov.f32	s4, s17
 224 00fa FFEE001A 		vmov.f32	s3, #-1.0e+0
 225 00fe FFF7FEFF 		bl	utils_map
 226              	.LVL19:
 227 0102 8DED050A 		vstr.32	s0, [sp, #20]
 228              	.L8:
ARM GAS  /tmp/cc8NZiV4.s 			page 5


 229              		.loc 1 169 0
 230 0106 7B4B     		ldr	r3, .L225+40
 231 0108 83ED000A 		vstr.32	s0, [r3]
 232              		.loc 1 170 0
 233 010c D3E7     		b	.L5
 234              	.LVL20:
 235              	.L192:
 236              		.loc 1 166 0
 237 010e D4ED050A 		vldr.32	s1, [r4, #20]
 238 0112 94ED041A 		vldr.32	s2, [r4, #16]
 239 0116 B7EE002A 		vmov.f32	s4, #1.0e+0
 240 011a F0EE681A 		vmov.f32	s3, s17
 241 011e FFF7FEFF 		bl	utils_map
 242              	.LVL21:
 243 0122 8DED050A 		vstr.32	s0, [sp, #20]
 244 0126 EEE7     		b	.L8
 245              	.LVL22:
 246              	.L205:
 247              		.loc 1 142 0
 248 0128 0023     		movs	r3, #0
 249 012a 88F80030 		strb	r3, [r8]
 250              	.LBE211:
 251              		.loc 1 501 0
 252 012e 07B0     		add	sp, sp, #28
 253              		.cfi_remember_state
 254              		.cfi_def_cfa_offset 84
 255              		@ sp needed
 256 0130 BDEC0C8B 		vldm	sp!, {d8-d13}
 257              		.cfi_restore 90
 258              		.cfi_restore 91
 259              		.cfi_restore 88
 260              		.cfi_restore 89
 261              		.cfi_restore 86
 262              		.cfi_restore 87
 263              		.cfi_restore 84
 264              		.cfi_restore 85
 265              		.cfi_restore 82
 266              		.cfi_restore 83
 267              		.cfi_restore 80
 268              		.cfi_restore 81
 269              		.cfi_def_cfa_offset 36
 270 0134 BDE8F08F 		pop	{r4, r5, r6, r7, r8, r9, r10, fp, pc}
 271              	.LVL23:
 272              	.L206:
 273              		.cfi_restore_state
 274              	.LBB212:
 275              		.loc 1 186 0
 276 0138 94ED020A 		vldr.32	s0, [r4, #8]
 277              		.loc 1 194 0
 278 013c DFF8DC91 		ldr	r9, .L225+80
 279              		.loc 1 186 0
 280 0140 F7EE000A 		vmov.f32	s1, #1.0e+0
 281 0144 05A8     		add	r0, sp, #20
 282 0146 FFF7FEFF 		bl	utils_deadband
 283              	.LVL24:
 284              		.loc 1 189 0
 285 014a D4ED070A 		vldr.32	s1, [r4, #28]
ARM GAS  /tmp/cc8NZiV4.s 			page 6


 286 014e 9DED050A 		vldr.32	s0, [sp, #20]
 287 0152 94ED081A 		vldr.32	s2, [r4, #32]
 288 0156 94F82400 		ldrb	r0, [r4, #36]	@ zero_extendqisi2
 289 015a FFF7FEFF 		bl	utils_throttle_curve
 290              	.LVL25:
 291              		.loc 1 194 0
 292 015e D9ED007A 		vldr.32	s15, [r9]
 293              		.loc 1 189 0
 294 0162 8DED050A 		vstr.32	s0, [sp, #20]
 295              		.loc 1 194 0
 296 0166 B0EEC07A 		vabs.f32	s14, s0
 297 016a F0EEE77A 		vabs.f32	s15, s15
 298 016e B4EEE77A 		vcmpe.f32	s14, s15
 299 0172 F1EE10FA 		vmrs	APSR_nzcv, FPSCR
 300              		.loc 1 196 0
 301 0176 B4EECA7A 		vcmpe.f32	s14, s20
 302              		.loc 1 189 0
 303 017a F0EE40AA 		vmov.f32	s21, s0
 304              		.loc 1 194 0
 305 017e CCBF     		ite	gt
 306 0180 94ED0A0A 		vldrgt.32	s0, [r4, #40]
 307 0184 94ED0B0A 		vldrle.32	s0, [r4, #44]
 308              	.LVL26:
 309              		.loc 1 196 0
 310 0188 F1EE10FA 		vmrs	APSR_nzcv, FPSCR
 311 018c 33DC     		bgt	.L207
 312              	.L15:
 313              	.LVL27:
 314              		.loc 1 200 0
 315 018e 5B4A     		ldr	r2, .L225+48
 316              	.LBB158:
 317              	.LBB159:
 318              	.LBB160:
 319              	.LBB161:
 320              		.file 3 "ChibiOS_3.0.2/os/rt/include/chvt.h"
 321              		.loc 3 231 0
 322 0190 BB6A     		ldr	r3, [r7, #40]
 323              	.LVL28:
 324              	.LBE161:
 325              	.LBE160:
 326              		.loc 3 267 0
 327 0192 1168     		ldr	r1, [r2]
 328              	.LBE159:
 329              	.LBE158:
 330              		.loc 1 200 0
 331 0194 5A48     		ldr	r0, .L225+52
 332              		.loc 1 203 0
 333 0196 9FED5B7A 		vldr.32	s14, .L225+56
 334              		.loc 1 200 0
 335 019a DFED5B6A 		vldr.32	s13, .L225+60
 336              	.LBB163:
 337              	.LBB162:
 338              		.loc 3 267 0
 339 019e 5B1A     		subs	r3, r3, r1
 340              	.LBE162:
 341              	.LBE163:
 342              		.loc 1 200 0
ARM GAS  /tmp/cc8NZiV4.s 			page 7


 343 01a0 4FF47A7C 		mov	ip, #1000
 344 01a4 42F20F71 		movw	r1, #9999
 345 01a8 0CFB0313 		mla	r3, ip, r3, r1
 346 01ac A0FB0313 		umull	r1, r3, r0, r3
 347 01b0 5B0B     		lsrs	r3, r3, #13
 348 01b2 07EE903A 		vmov	s15, r3	@ int
 349              		.loc 1 203 0
 350 01b6 B4EEC70A 		vcmpe.f32	s0, s14
 351              		.loc 1 200 0
 352 01ba F8EEE77A 		vcvt.f32.s32	s15, s15
 353              	.LBB164:
 354              	.LBB165:
 355              		.loc 3 231 0
 356 01be BB6A     		ldr	r3, [r7, #40]
 357              	.LBE165:
 358              	.LBE164:
 359              		.loc 1 201 0
 360 01c0 1360     		str	r3, [r2]
 361              		.loc 1 203 0
 362 01c2 F1EE10FA 		vmrs	APSR_nzcv, FPSCR
 363              		.loc 1 200 0
 364 01c6 87EEA6CA 		vdiv.f32	s24, s15, s13
 365              	.LVL29:
 366              		.loc 1 203 0
 367 01ca 00F34681 		bgt	.L208
 368              	.LVL30:
 369              	.L17:
 370              		.loc 1 216 0
 371 01ce FFF7FEFF 		bl	mc_interface_get_rpm
 372              	.LVL31:
 373              		.loc 1 219 0
 374 01d2 2378     		ldrb	r3, [r4]	@ zero_extendqisi2
 375 01d4 013B     		subs	r3, r3, #1
 376              		.loc 1 216 0
 377 01d6 F0EE40BA 		vmov.f32	s23, s0
 378              	.LVL32:
 379              		.loc 1 219 0
 380 01da 082B     		cmp	r3, #8
 381 01dc 3FF634AF 		bhi	.L2
 382 01e0 DFE813F0 		tbh	[pc, r3, lsl #1]
 383              	.L20:
 384 01e4 1501     		.2byte	(.L19-.L20)/2
 385 01e6 1501     		.2byte	(.L19-.L20)/2
 386 01e8 F800     		.2byte	(.L21-.L20)/2
 387 01ea 9E00     		.2byte	(.L22-.L20)/2
 388 01ec 9E00     		.2byte	(.L22-.L20)/2
 389 01ee 4F00     		.2byte	(.L23-.L20)/2
 390 01f0 4F00     		.2byte	(.L23-.L20)/2
 391 01f2 1000     		.2byte	(.L24-.L20)/2
 392 01f4 F800     		.2byte	(.L21-.L20)/2
 393              	.LVL33:
 394              		.p2align 1
 395              	.L207:
 396              		.loc 1 197 0
 397 01f6 94ED0A0A 		vldr.32	s0, [r4, #40]
 398              	.LVL34:
 399 01fa D4ED0B0A 		vldr.32	s1, [r4, #44]
ARM GAS  /tmp/cc8NZiV4.s 			page 8


 400 01fe FFF7FEFF 		bl	fminf
 401              	.LVL35:
 402 0202 C4E7     		b	.L15
 403              	.LVL36:
 404              	.L24:
 405              		.loc 1 224 0
 406 0204 414B     		ldr	r3, .L225+64
 407 0206 1A78     		ldrb	r2, [r3]	@ zero_extendqisi2
 408 0208 002A     		cmp	r2, #0
 409 020a 40F07681 		bne	.L209
 410              		.loc 1 230 0
 411 020e 4049     		ldr	r1, .L225+68
 412 0210 D4ED0E7A 		vldr.32	s15, [r4, #56]
 413 0214 91ED007A 		vldr.32	s14, [r1]
 414 0218 77EE877A 		vadd.f32	s15, s15, s14
 415 021c F4EEC07A 		vcmpe.f32	s15, s0
 416 0220 F1EE10FA 		vmrs	APSR_nzcv, FPSCR
 417 0224 40F17A81 		bpl	.L28
 418              		.loc 1 232 0
 419 0228 3A48     		ldr	r0, .L225+72
 420              		.loc 1 231 0
 421 022a 0121     		movs	r1, #1
 422              		.loc 1 232 0
 423 022c 0270     		strb	r2, [r0]
 424              		.loc 1 231 0
 425 022e 1970     		strb	r1, [r3]
 426              	.L26:
 427              		.loc 1 236 0
 428 0230 DDED057A 		vldr.32	s15, [sp, #20]
 429 0234 F5EEC07A 		vcmpe.f32	s15, #0
 430 0238 F1EE10FA 		vmrs	APSR_nzcv, FPSCR
 431 023c C0F28881 		blt	.L35
 432              	.L106:
 433              		.loc 1 237 0
 434 0240 F5EE407A 		vcmp.f32	s15, #0
 435 0244 F1EE10FA 		vmrs	APSR_nzcv, FPSCR
 436 0248 40F01883 		bne	.L30
 437              		.loc 1 239 0
 438 024c 314A     		ldr	r2, .L225+72
 439 024e 92F90010 		ldrsb	r1, [r2]
 440 0252 0129     		cmp	r1, #1
 441 0254 00F06A83 		beq	.L210
 442              	.L31:
 443              		.loc 1 249 0
 444 0258 96ED1F8A 		vldr.32	s16, [r6, #124]
 445              	.LVL37:
 446              		.loc 1 211 0
 447 025c 0023     		movs	r3, #0
 448              		.loc 1 249 0
 449 025e 28EE278A 		vmul.f32	s16, s16, s15
 450              	.LVL38:
 451              		.loc 1 211 0
 452 0262 0193     		str	r3, [sp, #4]
 453              	.LVL39:
 454              	.L33:
 455              		.loc 1 283 0
 456 0264 F0EEE77A 		vabs.f32	s15, s15
ARM GAS  /tmp/cc8NZiV4.s 			page 9


 457 0268 F4EECA7A 		vcmpe.f32	s15, s20
 458 026c F1EE10FA 		vmrs	APSR_nzcv, FPSCR
 459 0270 00F11A82 		bmi	.L203
 460              		.loc 1 221 0
 461 0274 0123     		movs	r3, #1
 462              		.loc 1 213 0
 463 0276 4FF00009 		mov	r9, #0
 464              		.loc 1 221 0
 465 027a 0293     		str	r3, [sp, #8]
 466              		.loc 1 212 0
 467 027c CA46     		mov	r10, r9
 468 027e 1E4B     		ldr	r3, .L225+44
 469 0280 6AE0     		b	.L36
 470              	.LVL40:
 471              	.L23:
 472              		.loc 1 331 0
 473 0282 DDED057A 		vldr.32	s15, [sp, #20]
 474              		.loc 1 332 0
 475 0286 1C4B     		ldr	r3, .L225+44
 476              		.loc 1 331 0
 477 0288 B0EEE77A 		vabs.f32	s14, s15
 478 028c B4EECA7A 		vcmpe.f32	s14, s20
 479 0290 F1EE10FA 		vmrs	APSR_nzcv, FPSCR
 480              		.loc 1 332 0
 481 0294 42BF     		ittt	mi
 482 0296 1A68     		ldrmi	r2, [r3]
 483 0298 0132     		addmi	r2, r2, #1
 484 029a 1A60     		strmi	r2, [r3]
 485              		.loc 1 335 0
 486 029c 1A68     		ldr	r2, [r3]
 487 029e 312A     		cmp	r2, #49
 488 02a0 02DC     		bgt	.L55
 489              		.loc 1 335 0 is_stmt 0 discriminator 1
 490 02a2 627E     		ldrb	r2, [r4, #25]	@ zero_extendqisi2
 491 02a4 002A     		cmp	r2, #0
 492 02a6 50D1     		bne	.L56
 493              	.L55:
 494              		.loc 1 336 0 is_stmt 1
 495 02a8 94ED010A 		vldr.32	s0, [r4, #4]
 496              	.LVL41:
 497 02ac 0393     		str	r3, [sp, #12]
 498 02ae 27EE800A 		vmul.f32	s0, s15, s0
 499              		.loc 1 213 0
 500 02b2 4FF00009 		mov	r9, #0
 501              		.loc 1 336 0
 502 02b6 FFF7FEFF 		bl	mc_interface_set_pid_speed
 503              	.LVL42:
 504              		.loc 1 209 0
 505 02ba 9FED0A8A 		vldr.32	s16, .L225+24
 506              	.LVL43:
 507 02be 039B     		ldr	r3, [sp, #12]
 508              		.loc 1 210 0
 509 02c0 CDE90199 		strd	r9, r9, [sp, #4]
 510              		.loc 1 337 0
 511 02c4 4FF0010A 		mov	r10, #1
 512 02c8 46E0     		b	.L36
 513              	.L226:
ARM GAS  /tmp/cc8NZiV4.s 			page 10


 514 02ca 00BF     		.align	2
 515              	.L225:
 516 02cc 00000000 		.word	ch
 517 02d0 00000000 		.word	.LANCHOR1
 518 02d4 00000000 		.word	.LC0
 519 02d8 00000000 		.word	.LANCHOR0
 520 02dc 00000000 		.word	.LANCHOR3
 521 02e0 00000000 		.word	servodec_func
 522 02e4 00000000 		.word	0
 523 02e8 6F12833A 		.word	981668463
 524 02ec 00401C46 		.word	1176256512
 525 02f0 CDCCCC3D 		.word	1036831949
 526 02f4 00000000 		.word	.LANCHOR4
 527 02f8 00000000 		.word	.LANCHOR5
 528 02fc 00000000 		.word	.LANCHOR7
 529 0300 5917B7D1 		.word	-776530087
 530 0304 0AD7233C 		.word	1008981770
 531 0308 00007A44 		.word	1148846080
 532 030c 00000000 		.word	.LANCHOR8
 533 0310 00000000 		.word	.LANCHOR9
 534 0314 00000000 		.word	.LANCHOR10
 535 0318 00000000 		.word	.LANCHOR2
 536 031c 00000000 		.word	.LANCHOR6
 537              	.LVL44:
 538              	.L22:
 539              		.loc 1 319 0
 540 0320 9DED050A 		vldr.32	s0, [sp, #20]
 541              	.LVL45:
 542              		.loc 1 320 0
 543 0324 D54B     		ldr	r3, .L227
 544              		.loc 1 319 0
 545 0326 F0EEC07A 		vabs.f32	s15, s0
 546 032a F4EECA7A 		vcmpe.f32	s15, s20
 547 032e F1EE10FA 		vmrs	APSR_nzcv, FPSCR
 548              		.loc 1 320 0
 549 0332 42BF     		ittt	mi
 550 0334 1A68     		ldrmi	r2, [r3]
 551 0336 0132     		addmi	r2, r2, #1
 552 0338 1A60     		strmi	r2, [r3]
 553              		.loc 1 323 0
 554 033a 1A68     		ldr	r2, [r3]
 555 033c 312A     		cmp	r2, #49
 556 033e 00F32681 		bgt	.L52
 557              		.loc 1 323 0 is_stmt 0 discriminator 1
 558 0342 627E     		ldrb	r2, [r4, #25]	@ zero_extendqisi2
 559 0344 002A     		cmp	r2, #0
 560 0346 00F02281 		beq	.L52
 561              	.L56:
 562              		.loc 1 213 0 is_stmt 1
 563 034a 4FF00009 		mov	r9, #0
 564              		.loc 1 210 0
 565 034e CDE90199 		strd	r9, r9, [sp, #4]
 566              		.loc 1 209 0
 567 0352 9FEDCB8A 		vldr.32	s16, .L227+4
 568              	.LVL46:
 569              		.loc 1 212 0
 570 0356 CA46     		mov	r10, r9
ARM GAS  /tmp/cc8NZiV4.s 			page 11


 571              	.LVL47:
 572              	.L36:
 573              		.loc 1 345 0
 574 0358 1A68     		ldr	r2, [r3]
 575 035a 312A     		cmp	r2, #49
 576 035c 03DC     		bgt	.L57
 577              		.loc 1 345 0 is_stmt 0 discriminator 1
 578 035e 627E     		ldrb	r2, [r4, #25]	@ zero_extendqisi2
 579 0360 002A     		cmp	r2, #0
 580 0362 40F07D81 		bne	.L211
 581              	.L57:
 582              		.loc 1 355 0 is_stmt 1
 583 0366 FFF7FEFF 		bl	mc_interface_get_duty_cycle_now
 584              	.LVL48:
 585 036a B0EE40DA 		vmov.f32	s26, s0
 586              	.LVL49:
 587              		.loc 1 356 0
 588 036e FFF7FEFF 		bl	mc_interface_get_tot_current_directional_filtered
 589              	.LVL50:
 590              		.loc 1 359 0
 591 0372 94F83030 		ldrb	r3, [r4, #48]	@ zero_extendqisi2
 592              		.loc 1 357 0
 593 0376 B0EECDBA 		vabs.f32	s22, s26
 594              		.loc 1 356 0
 595 037a F0EEC0CA 		vabs.f32	s25, s0
 596              	.LVL51:
 597              		.loc 1 217 0
 598 037e F0EE6BAA 		vmov.f32	s21, s23
 599              		.loc 1 359 0
 600 0382 002B     		cmp	r3, #0
 601 0384 40F01C81 		bne	.L212
 602              	.LVL52:
 603              	.L59:
 604              		.loc 1 379 0
 605 0388 2378     		ldrb	r3, [r4]	@ zero_extendqisi2
 606 038a 092B     		cmp	r3, #9
 607 038c 70D0     		beq	.L213
 608              	.LVL53:
 609              	.L65:
 610              		.loc 1 416 0
 611 038e BAF1000F 		cmp	r10, #0
 612 0392 02D1     		bne	.L76
 613              		.loc 1 416 0 is_stmt 0 discriminator 2
 614 0394 B9F1000F 		cmp	r9, #0
 615 0398 04D0     		beq	.L77
 616              	.L76:
 617              		.loc 1 416 0 discriminator 3
 618 039a 94F83030 		ldrb	r3, [r4, #48]	@ zero_extendqisi2
 619 039e 002B     		cmp	r3, #0
 620 03a0 40F08C81 		bne	.L214
 621              	.LVL54:
 622              	.L77:
 623              		.loc 1 433 0 is_stmt 1
 624 03a4 029B     		ldr	r3, [sp, #8]
 625 03a6 002B     		cmp	r3, #0
 626 03a8 3FF44EAE 		beq	.L2
 627              		.loc 1 434 0
ARM GAS  /tmp/cc8NZiV4.s 			page 12


 628 03ac 019B     		ldr	r3, [sp, #4]
 629 03ae 002B     		cmp	r3, #0
 630 03b0 40F0D181 		bne	.L215
 631              	.LVL55:
 632              	.LBB166:
 633              		.loc 1 448 0
 634 03b4 B5EEC08A 		vcmpe.f32	s16, #0
 635 03b8 F1EE10FA 		vmrs	APSR_nzcv, FPSCR
 636              		.loc 1 457 0
 637 03bc 94F83030 		ldrb	r3, [r4, #48]	@ zero_extendqisi2
 638              		.loc 1 448 0
 639 03c0 00F1AD81 		bmi	.L89
 640              		.loc 1 457 0
 641 03c4 002B     		cmp	r3, #0
 642 03c6 40F0EB81 		bne	.L216
 643              	.LVL56:
 644              	.L90:
 645              		.loc 1 495 0
 646 03ca B0EE480A 		vmov.f32	s0, s16
 647 03ce FFF7FEFF 		bl	mc_interface_set_current
 648              	.LVL57:
 649 03d2 39E6     		b	.L2
 650              	.LVL58:
 651              	.L21:
 652              	.LBE166:
 653              		.loc 1 305 0
 654 03d4 DDED057A 		vldr.32	s15, [sp, #20]
 655 03d8 F5EEC07A 		vcmpe.f32	s15, #0
 656 03dc F1EE10FA 		vmrs	APSR_nzcv, FPSCR
 657 03e0 C0F2CC80 		blt	.L196
 658              		.loc 1 306 0
 659 03e4 96ED1F8A 		vldr.32	s16, [r6, #124]
 660              	.LVL59:
 661              		.loc 1 211 0
 662 03e8 0023     		movs	r3, #0
 663              		.loc 1 306 0
 664 03ea 27EE888A 		vmul.f32	s16, s15, s16
 665              	.LVL60:
 666              		.loc 1 211 0
 667 03ee 0193     		str	r3, [sp, #4]
 668              	.LVL61:
 669              	.L48:
 670              		.loc 1 312 0
 671 03f0 F0EEE77A 		vabs.f32	s15, s15
 672 03f4 F4EECA7A 		vcmpe.f32	s15, s20
 673 03f8 F1EE10FA 		vmrs	APSR_nzcv, FPSCR
 674 03fc 00F15481 		bmi	.L203
 675              		.loc 1 213 0
 676 0400 4FF00009 		mov	r9, #0
 677              		.loc 1 304 0
 678 0404 0122     		movs	r2, #1
 679 0406 9D4B     		ldr	r3, .L227
 680 0408 0292     		str	r2, [sp, #8]
 681              		.loc 1 212 0
 682 040a CA46     		mov	r10, r9
 683 040c A4E7     		b	.L36
 684              	.LVL62:
ARM GAS  /tmp/cc8NZiV4.s 			page 13


 685              	.L19:
 686              		.loc 1 291 0
 687 040e DDED057A 		vldr.32	s15, [sp, #20]
 688 0412 F5EEC07A 		vcmpe.f32	s15, #0
 689 0416 F1EE10FA 		vmrs	APSR_nzcv, FPSCR
 690 041a C0F2A280 		blt	.L38
 691              		.loc 1 291 0 is_stmt 0 discriminator 1
 692 041e B5EEC08A 		vcmpe.f32	s16, #0
 693 0422 F1EE10FA 		vmrs	APSR_nzcv, FPSCR
 694 0426 40F39C80 		ble	.L38
 695              	.L40:
 696              		.loc 1 292 0 is_stmt 1
 697 042a 96ED1F8A 		vldr.32	s16, [r6, #124]
 698              	.LVL63:
 699 042e 27EE888A 		vmul.f32	s16, s15, s16
 700              	.LVL64:
 701              	.L44:
 702              		.loc 1 297 0
 703 0432 F0EEE77A 		vabs.f32	s15, s15
 704 0436 F4EECA7A 		vcmpe.f32	s15, s20
 705 043a F1EE10FA 		vmrs	APSR_nzcv, FPSCR
 706 043e 40F17B81 		bpl	.L195
 707              		.loc 1 298 0
 708 0442 8E4B     		ldr	r3, .L227
 709 0444 1A68     		ldr	r2, [r3]
 710 0446 0132     		adds	r2, r2, #1
 711              		.loc 1 213 0
 712 0448 4FF00009 		mov	r9, #0
 713              		.loc 1 298 0
 714 044c 1A60     		str	r2, [r3]
 715              		.loc 1 290 0
 716 044e 0122     		movs	r2, #1
 717              		.loc 1 212 0
 718 0450 CA46     		mov	r10, r9
 719              		.loc 1 211 0
 720 0452 CDF80490 		str	r9, [sp, #4]
 721              		.loc 1 290 0
 722 0456 0292     		str	r2, [sp, #8]
 723 0458 7EE7     		b	.L36
 724              	.LVL65:
 725              	.L208:
 726              	.LBB167:
 727              		.loc 1 205 0
 728 045a CCEE000A 		vdiv.f32	s1, s24, s0
 729              	.LVL66:
 730 045e 8948     		ldr	r0, .L227+8
 731 0460 B0EE6A0A 		vmov.f32	s0, s21
 732              	.LVL67:
 733 0464 FFF7FEFF 		bl	utils_step_towards
 734              	.LVL68:
 735              		.loc 1 206 0
 736 0468 D9F80030 		ldr	r3, [r9]	@ float
 737 046c 0593     		str	r3, [sp, #20]	@ float
 738 046e AEE6     		b	.L17
 739              	.LVL69:
 740              	.L213:
 741              	.LBE167:
ARM GAS  /tmp/cc8NZiV4.s 			page 14


 742              	.LBB168:
 743              		.loc 1 384 0
 744 0470 DDED057A 		vldr.32	s15, [sp, #20]
 745 0474 9FED847A 		vldr.32	s14, .L227+12
 746 0478 F4EEC77A 		vcmpe.f32	s15, s14
 747 047c F1EE10FA 		vmrs	APSR_nzcv, FPSCR
 748 0480 40F1DD80 		bpl	.L66
 749              		.loc 1 384 0 is_stmt 0 discriminator 1
 750 0484 96ED157A 		vldr.32	s14, [r6, #84]
 751 0488 F7EE086A 		vmov.f32	s13, #1.5e+0
 752 048c 27EE267A 		vmul.f32	s14, s14, s13
 753 0490 B4EECB7A 		vcmpe.f32	s14, s22
 754 0494 F1EE10FA 		vmrs	APSR_nzcv, FPSCR
 755 0498 40F3D180 		ble	.L66
 756              		.loc 1 385 0 is_stmt 1 discriminator 2
 757 049c 96ED017A 		vldr.32	s14, [r6, #4]
 758 04a0 96ED196A 		vldr.32	s12, [r6, #100]
 759 04a4 DFED796A 		vldr.32	s13, .L227+16
 760 04a8 27EE067A 		vmul.f32	s14, s14, s12
 761 04ac 27EE267A 		vmul.f32	s14, s14, s13
 762              		.loc 1 384 0 discriminator 2
 763 04b0 B4EEEC7A 		vcmpe.f32	s14, s25
 764 04b4 F1EE10FA 		vmrs	APSR_nzcv, FPSCR
 765 04b8 40F3C180 		ble	.L66
 766 04bc 744B     		ldr	r3, .L227+20
 767              	.L69:
 768              	.LBB169:
 769              		.loc 1 392 0
 770 04be 94ED0F0A 		vldr.32	s0, [r4, #60]
 771              	.LVL70:
 772              		.loc 1 394 0
 773 04c2 94ED0F7A 		vldr.32	s14, [r4, #60]
 774 04c6 D4ED100A 		vldr.32	s1, [r4, #64]
 775              		.loc 1 393 0
 776 04ca 7248     		ldr	r0, .L227+24
 777              		.loc 1 394 0
 778 04cc 27EE0CCA 		vmul.f32	s24, s14, s24
 779              	.LVL71:
 780              		.loc 1 393 0
 781 04d0 27EE800A 		vmul.f32	s0, s15, s0
 782              	.LVL72:
 783              		.loc 1 390 0
 784 04d4 0122     		movs	r2, #1
 785              		.loc 1 393 0
 786 04d6 CCEE200A 		vdiv.f32	s1, s24, s1
 787              		.loc 1 390 0
 788 04da 1A70     		strb	r2, [r3]
 789              		.loc 1 393 0
 790 04dc FFF7FEFF 		bl	utils_step_towards
 791              	.LVL73:
 792              		.loc 1 396 0
 793 04e0 6C4B     		ldr	r3, .L227+24
 794 04e2 93ED000A 		vldr.32	s0, [r3]
 795 04e6 FFF7FEFF 		bl	mc_interface_set_duty
 796              	.LVL74:
 797              		.loc 1 399 0
 798 04ea 94F83030 		ldrb	r3, [r4, #48]	@ zero_extendqisi2
ARM GAS  /tmp/cc8NZiV4.s 			page 15


 799 04ee 002B     		cmp	r3, #0
 800 04f0 40F0F881 		bne	.L117
 801              	.L75:
 802              		.loc 1 409 0
 803 04f4 0023     		movs	r3, #0
 804 04f6 0293     		str	r3, [sp, #8]
 805              	.LVL75:
 806 04f8 49E7     		b	.L65
 807              	.LVL76:
 808              	.L209:
 809              	.LBE169:
 810              	.LBE168:
 811              		.loc 1 225 0
 812 04fa 674A     		ldr	r2, .L227+28
 813 04fc D4ED0E7A 		vldr.32	s15, [r4, #56]
 814 0500 92ED007A 		vldr.32	s14, [r2]
 815 0504 77EEC77A 		vsub.f32	s15, s15, s14
 816 0508 F4EEC07A 		vcmpe.f32	s15, s0
 817 050c F1EE10FA 		vmrs	APSR_nzcv, FPSCR
 818 0510 7FF78EAE 		ble	.L26
 819              		.loc 1 227 0
 820 0514 6149     		ldr	r1, .L227+32
 821              		.loc 1 226 0
 822 0516 0022     		movs	r2, #0
 823              		.loc 1 227 0
 824 0518 0A70     		strb	r2, [r1]
 825              		.loc 1 226 0
 826 051a 1A70     		strb	r2, [r3]
 827              	.L28:
 828              		.loc 1 236 0
 829 051c DDED057A 		vldr.32	s15, [sp, #20]
 830 0520 F5EEC07A 		vcmpe.f32	s15, #0
 831 0524 F1EE10FA 		vmrs	APSR_nzcv, FPSCR
 832 0528 BFF68AAE 		bge	.L106
 833              		.loc 1 256 0
 834 052c 94ED0E7A 		vldr.32	s14, [r4, #56]
 835 0530 5A4B     		ldr	r3, .L227+32
 836 0532 B1EE477A 		vneg.f32	s14, s14
 837 0536 B4EEEB7A 		vcmpe.f32	s14, s23
 838 053a F1EE10FA 		vmrs	APSR_nzcv, FPSCR
 839 053e 93F90020 		ldrsb	r2, [r3]
 840 0542 40F1FA81 		bpl	.L217
 841              		.loc 1 258 0
 842 0546 022A     		cmp	r2, #2
 843 0548 00F0FC81 		beq	.L34
 844              		.loc 1 259 0
 845 054c 0122     		movs	r2, #1
 846 054e 1A70     		strb	r2, [r3]
 847              	.LVL77:
 848              	.L35:
 849              		.loc 1 276 0
 850 0550 96ED208A 		vldr.32	s16, [r6, #128]
 851              	.LVL78:
 852 0554 28EE278A 		vmul.f32	s16, s16, s15
 853 0558 0123     		movs	r3, #1
 854 055a 0193     		str	r3, [sp, #4]
 855 055c B0EEC88A 		vabs.f32	s16, s16
ARM GAS  /tmp/cc8NZiV4.s 			page 16


 856              	.LVL79:
 857 0560 80E6     		b	.L33
 858              	.LVL80:
 859              	.L38:
 860              		.loc 1 291 0 discriminator 3
 861 0562 F5EEC07A 		vcmpe.f32	s15, #0
 862 0566 F1EE10FA 		vmrs	APSR_nzcv, FPSCR
 863 056a 00F19581 		bmi	.L218
 864              	.L41:
 865              		.loc 1 294 0
 866 056e 96ED208A 		vldr.32	s16, [r6, #128]
 867              	.LVL81:
 868 0572 B0EEC88A 		vabs.f32	s16, s16
 869 0576 28EE278A 		vmul.f32	s16, s16, s15
 870              	.LVL82:
 871 057a 5AE7     		b	.L44
 872              	.LVL83:
 873              	.L196:
 874              		.loc 1 308 0
 875 057c 96ED208A 		vldr.32	s16, [r6, #128]
 876              	.LVL84:
 877 0580 27EE888A 		vmul.f32	s16, s15, s16
 878              		.loc 1 309 0
 879 0584 0123     		movs	r3, #1
 880 0586 0193     		str	r3, [sp, #4]
 881              		.loc 1 308 0
 882 0588 B0EEC88A 		vabs.f32	s16, s16
 883              	.LVL85:
 884 058c 30E7     		b	.L48
 885              	.LVL86:
 886              	.L52:
 887              		.loc 1 324 0
 888 058e D6ED161A 		vldr.32	s3, [r6, #88]
 889 0592 96ED162A 		vldr.32	s4, [r6, #88]
 890 0596 0393     		str	r3, [sp, #12]
 891 0598 F1EE611A 		vneg.f32	s3, s3
 892 059c B7EE001A 		vmov.f32	s2, #1.0e+0
 893 05a0 FFEE000A 		vmov.f32	s1, #-1.0e+0
 894 05a4 FFF7FEFF 		bl	utils_map
 895              	.LVL87:
 896              		.loc 1 212 0
 897 05a8 4FF0000A 		mov	r10, #0
 898              		.loc 1 324 0
 899 05ac FFF7FEFF 		bl	mc_interface_set_duty
 900              	.LVL88:
 901              		.loc 1 209 0
 902 05b0 9FED338A 		vldr.32	s16, .L227+4
 903              	.LVL89:
 904 05b4 039B     		ldr	r3, [sp, #12]
 905              		.loc 1 210 0
 906 05b6 CDE901AA 		strd	r10, r10, [sp, #4]
 907              		.loc 1 325 0
 908 05ba 4FF00109 		mov	r9, #1
 909 05be CBE6     		b	.L36
 910              	.LVL90:
 911              	.L212:
 912              	.LBB178:
ARM GAS  /tmp/cc8NZiV4.s 			page 17


 913              		.loc 1 360 0
 914 05c0 4FF0000B 		mov	fp, #0
 915              	.LVL91:
 916              	.L64:
 917              	.LBB179:
 918              		.loc 1 361 0
 919 05c4 5846     		mov	r0, fp
 920 05c6 FFF7FEFF 		bl	comm_can_get_status_msg_index
 921              	.LVL92:
 922              		.loc 1 363 0
 923 05ca 0268     		ldr	r2, [r0]
 924 05cc 002A     		cmp	r2, #0
 925              	.LBE179:
 926              		.loc 1 360 0
 927 05ce 0BF1010B 		add	fp, fp, #1
 928              	.LVL93:
 929              	.LBB184:
 930              		.loc 1 363 0
 931 05d2 30DB     		blt	.L60
 932              	.LBB180:
 933              	.LBB181:
 934              	.LBB182:
 935              	.LBB183:
 936              		.loc 3 231 0 discriminator 1
 937 05d4 BA6A     		ldr	r2, [r7, #40]
 938              	.LVL94:
 939              	.LBE183:
 940              	.LBE182:
 941              		.loc 3 267 0 discriminator 1
 942 05d6 4168     		ldr	r1, [r0, #4]
 943 05d8 521A     		subs	r2, r2, r1
 944              	.LBE181:
 945              	.LBE180:
 946              		.loc 1 363 0 discriminator 1
 947 05da 07EE902A 		vmov	s15, r2	@ int
 948 05de F8EE677A 		vcvt.f32.u32	s15, s15
 949              		.loc 1 364 0 discriminator 1
 950 05e2 F0EEEA6A 		vabs.f32	s13, s21
 951              		.loc 1 363 0 discriminator 1
 952 05e6 87EEA97A 		vdiv.f32	s14, s15, s19
 953 05ea B4EEC97A 		vcmpe.f32	s14, s18
 954 05ee F1EE10FA 		vmrs	APSR_nzcv, FPSCR
 955 05f2 20D5     		bpl	.L60
 956              		.loc 1 364 0
 957 05f4 90ED026A 		vldr.32	s12, [r0, #8]
 958              		.loc 1 368 0
 959 05f8 90ED037A 		vldr.32	s14, [r0, #12]
 960              		.loc 1 372 0
 961 05fc D0ED047A 		vldr.32	s15, [r0, #16]
 962              		.loc 1 364 0
 963 0600 F0EEC65A 		vabs.f32	s11, s12
 964              		.loc 1 365 0
 965 0604 F4EE665A 		vcmp.f32	s11, s13
 966              		.loc 1 368 0
 967 0608 B0EEC77A 		vabs.f32	s14, s14
 968              		.loc 1 365 0
 969 060c F1EE10FA 		vmrs	APSR_nzcv, FPSCR
ARM GAS  /tmp/cc8NZiV4.s 			page 18


 970              		.loc 1 372 0
 971 0610 F0EEE77A 		vabs.f32	s15, s15
 972              		.loc 1 369 0
 973 0614 B4EE6C7A 		vcmp.f32	s14, s25
 974              		.loc 1 365 0
 975 0618 48BF     		it	mi
 976 061a F0EE46AA 		vmovmi.f32	s21, s12
 977              	.LVL95:
 978              		.loc 1 369 0
 979 061e F1EE10FA 		vmrs	APSR_nzcv, FPSCR
 980              		.loc 1 373 0
 981 0622 F4EE4B7A 		vcmp.f32	s15, s22
 982              		.loc 1 369 0
 983 0626 C8BF     		it	gt
 984 0628 F0EE47CA 		vmovgt.f32	s25, s14
 985              	.LVL96:
 986              		.loc 1 373 0
 987 062c F1EE10FA 		vmrs	APSR_nzcv, FPSCR
 988 0630 C8BF     		it	gt
 989 0632 B0EE67BA 		vmovgt.f32	s22, s15
 990              	.LVL97:
 991              	.L60:
 992              	.LBE184:
 993              		.loc 1 360 0 discriminator 2
 994 0636 BBF10A0F 		cmp	fp, #10
 995 063a C3D1     		bne	.L64
 996 063c A4E6     		b	.L59
 997              	.LVL98:
 998              	.L66:
 999              	.LBE178:
 1000              	.LBB185:
 1001              		.loc 1 389 0 discriminator 1
 1002 063e 144B     		ldr	r3, .L227+20
 1003 0640 1A78     		ldrb	r2, [r3]	@ zero_extendqisi2
 1004 0642 3AB1     		cbz	r2, .L70
 1005              		.loc 1 389 0 is_stmt 0 discriminator 2
 1006 0644 9FED167A 		vldr.32	s14, .L227+36
 1007 0648 F4EEC77A 		vcmpe.f32	s15, s14
 1008 064c F1EE10FA 		vmrs	APSR_nzcv, FPSCR
 1009 0650 3FF535AF 		bmi	.L69
 1010              	.L70:
 1011              		.loc 1 411 0 is_stmt 1
 1012 0654 0F49     		ldr	r1, .L227+24
 1013              		.loc 1 412 0
 1014 0656 0022     		movs	r2, #0
 1015              		.loc 1 411 0
 1016 0658 81ED00DA 		vstr.32	s26, [r1]
 1017              		.loc 1 412 0
 1018 065c 1A70     		strb	r2, [r3]
 1019 065e 96E6     		b	.L65
 1020              	.LVL99:
 1021              	.L211:
 1022              	.LBE185:
 1023              	.LBB186:
 1024              		.loc 1 347 0
 1025 0660 104A     		ldr	r2, .L227+40
 1026 0662 1868     		ldr	r0, [r3]
ARM GAS  /tmp/cc8NZiV4.s 			page 19


 1027 0664 1168     		ldr	r1, [r2]
 1028 0666 8842     		cmp	r0, r1
 1029              		.loc 1 348 0
 1030 0668 04BF     		itt	eq
 1031 066a 0021     		moveq	r1, #0
 1032 066c 1960     		streq	r1, [r3]
 1033              		.loc 1 350 0
 1034 066e 1B68     		ldr	r3, [r3]
 1035 0670 1360     		str	r3, [r2]
 1036              		.loc 1 351 0
 1037 0672 FFF7FEFF 		bl	timeout_get_brake_current
 1038              	.LVL100:
 1039 0676 FFF7FEFF 		bl	mc_interface_set_brake_current
 1040              	.LVL101:
 1041              		.loc 1 352 0
 1042 067a E5E4     		b	.L2
 1043              	.L228:
 1044              		.align	2
 1045              	.L227:
 1046 067c 00000000 		.word	.LANCHOR5
 1047 0680 00000000 		.word	0
 1048 0684 00000000 		.word	.LANCHOR6
 1049 0688 1F856BBF 		.word	3211494687
 1050 068c 3333333F 		.word	1060320051
 1051 0690 00000000 		.word	.LANCHOR12
 1052 0694 00000000 		.word	.LANCHOR13
 1053 0698 00000000 		.word	.LANCHOR9
 1054 069c 00000000 		.word	.LANCHOR10
 1055 06a0 CDCCCCBD 		.word	3184315597
 1056 06a4 00000000 		.word	.LANCHOR11
 1057              	.LVL102:
 1058              	.L203:
 1059              	.LBE186:
 1060              		.loc 1 313 0
 1061 06a8 AC4B     		ldr	r3, .L229
 1062 06aa 1A68     		ldr	r2, [r3]
 1063 06ac 0132     		adds	r2, r2, #1
 1064              		.loc 1 213 0
 1065 06ae 4FF00009 		mov	r9, #0
 1066              		.loc 1 313 0
 1067 06b2 1A60     		str	r2, [r3]
 1068              		.loc 1 304 0
 1069 06b4 0122     		movs	r2, #1
 1070              		.loc 1 212 0
 1071 06b6 CA46     		mov	r10, r9
 1072              		.loc 1 304 0
 1073 06b8 0292     		str	r2, [sp, #8]
 1074 06ba 4DE6     		b	.L36
 1075              	.LVL103:
 1076              	.L214:
 1077              	.LBB187:
 1078              		.loc 1 417 0
 1079 06bc FFF7FEFF 		bl	mc_interface_get_tot_current_directional_filtered
 1080              	.LVL104:
 1081 06c0 B0EE40BA 		vmov.f32	s22, s0
 1082              	.LVL105:
 1083              		.loc 1 418 0
ARM GAS  /tmp/cc8NZiV4.s 			page 20


 1084 06c4 FFF7FEFF 		bl	mc_interface_get_duty_cycle_now
 1085              	.LVL106:
 1086              	.LBB188:
 1087              		.loc 1 420 0
 1088 06c8 4FF0000B 		mov	fp, #0
 1089              	.LBE188:
 1090              		.loc 1 418 0
 1091 06cc B0EE40CA 		vmov.f32	s24, s0
 1092              	.LVL107:
 1093 06d0 08E0     		b	.L81
 1094              	.LVL108:
 1095              	.L80:
 1096              	.LBB196:
 1097              	.LBB189:
 1098              		.loc 1 426 0
 1099 06d2 B9F1000F 		cmp	r9, #0
 1100 06d6 38D1     		bne	.L219
 1101              	.L78:
 1102              	.LBE189:
 1103              		.loc 1 420 0 discriminator 2
 1104 06d8 0BF1010B 		add	fp, fp, #1
 1105              	.LVL109:
 1106 06dc BBF10A0F 		cmp	fp, #10
 1107 06e0 3FF460AE 		beq	.L77
 1108              	.LVL110:
 1109              	.L81:
 1110              	.LBB194:
 1111              		.loc 1 421 0
 1112 06e4 5846     		mov	r0, fp
 1113 06e6 FFF7FEFF 		bl	comm_can_get_status_msg_index
 1114              	.LVL111:
 1115              		.loc 1 423 0
 1116 06ea 0168     		ldr	r1, [r0]
 1117 06ec 0029     		cmp	r1, #0
 1118 06ee F3DB     		blt	.L78
 1119              	.LBB190:
 1120              	.LBB191:
 1121              		.loc 3 267 0 discriminator 1
 1122 06f0 4068     		ldr	r0, [r0, #4]
 1123              	.LVL112:
 1124              	.LBB192:
 1125              	.LBB193:
 1126              		.loc 3 231 0 discriminator 1
 1127 06f2 BA6A     		ldr	r2, [r7, #40]
 1128              	.LVL113:
 1129              	.LBE193:
 1130              	.LBE192:
 1131              		.loc 3 267 0 discriminator 1
 1132 06f4 121A     		subs	r2, r2, r0
 1133              	.LBE191:
 1134              	.LBE190:
 1135              		.loc 1 423 0 discriminator 1
 1136 06f6 07EE902A 		vmov	s15, r2	@ int
 1137 06fa F8EE677A 		vcvt.f32.u32	s15, s15
 1138 06fe 87EEA97A 		vdiv.f32	s14, s15, s19
 1139 0702 B4EEC97A 		vcmpe.f32	s14, s18
 1140 0706 F1EE10FA 		vmrs	APSR_nzcv, FPSCR
ARM GAS  /tmp/cc8NZiV4.s 			page 21


 1141 070a E5D5     		bpl	.L78
 1142              		.loc 1 424 0
 1143 070c BAF1000F 		cmp	r10, #0
 1144 0710 DFD0     		beq	.L80
 1145              		.loc 1 425 0
 1146 0712 C8B2     		uxtb	r0, r1
 1147 0714 B0EE4B0A 		vmov.f32	s0, s22
 1148 0718 FFF7FEFF 		bl	comm_can_set_current
 1149              	.LVL114:
 1150 071c DCE7     		b	.L78
 1151              	.LVL115:
 1152              	.L89:
 1153              	.LBE194:
 1154              	.LBE196:
 1155              	.LBE187:
 1156              	.LBB198:
 1157              		.loc 1 457 0
 1158 071e 03F0FF02 		and	r2, r3, #255
 1159              		.loc 1 450 0
 1160 0722 B1EE488A 		vneg.f32	s16, s16
 1161              	.LVL116:
 1162              		.loc 1 457 0
 1163 0726 0192     		str	r2, [sp, #4]
 1164              	.LVL117:
 1165 0728 002B     		cmp	r3, #0
 1166 072a 40F0BC80 		bne	.L220
 1167              	.LVL118:
 1168              	.L92:
 1169              		.loc 1 493 0
 1170 072e B1EE480A 		vneg.f32	s0, s16
 1171 0732 FFF7FEFF 		bl	mc_interface_set_current
 1172              	.LVL119:
 1173 0736 87E4     		b	.L2
 1174              	.LVL120:
 1175              	.L195:
 1176              	.LBE198:
 1177              		.loc 1 213 0
 1178 0738 4FF00009 		mov	r9, #0
 1179              		.loc 1 290 0
 1180 073c 0123     		movs	r3, #1
 1181 073e 0293     		str	r3, [sp, #8]
 1182              		.loc 1 212 0
 1183 0740 CA46     		mov	r10, r9
 1184              		.loc 1 211 0
 1185 0742 CDF80490 		str	r9, [sp, #4]
 1186 0746 854B     		ldr	r3, .L229
 1187 0748 06E6     		b	.L36
 1188              	.LVL121:
 1189              	.L219:
 1190              	.LBB199:
 1191              	.LBB197:
 1192              	.LBB195:
 1193              		.loc 1 427 0
 1194 074a C8B2     		uxtb	r0, r1
 1195 074c B0EE4C0A 		vmov.f32	s0, s24
 1196 0750 FFF7FEFF 		bl	comm_can_set_duty
 1197              	.LVL122:
ARM GAS  /tmp/cc8NZiV4.s 			page 22


 1198 0754 C0E7     		b	.L78
 1199              	.LVL123:
 1200              	.L215:
 1201              	.LBE195:
 1202              	.LBE197:
 1203              	.LBE199:
 1204              		.loc 1 435 0
 1205 0756 B0EE480A 		vmov.f32	s0, s16
 1206 075a FFF7FEFF 		bl	mc_interface_set_brake_current
 1207              	.LVL124:
 1208              	.LBB200:
 1209              		.loc 1 438 0
 1210 075e 0026     		movs	r6, #0
 1211              	.LVL125:
 1212 0760 02E0     		b	.L87
 1213              	.LVL126:
 1214              	.L85:
 1215              		.loc 1 438 0 is_stmt 0 discriminator 2
 1216 0762 0A2E     		cmp	r6, #10
 1217 0764 3FF470AC 		beq	.L2
 1218              	.LVL127:
 1219              	.L87:
 1220              	.LBB201:
 1221              		.loc 1 439 0 is_stmt 1
 1222 0768 3046     		mov	r0, r6
 1223 076a FFF7FEFF 		bl	comm_can_get_status_msg_index
 1224              	.LVL128:
 1225              		.loc 1 441 0
 1226 076e 0268     		ldr	r2, [r0]
 1227 0770 002A     		cmp	r2, #0
 1228              	.LBE201:
 1229              		.loc 1 438 0
 1230 0772 06F10106 		add	r6, r6, #1
 1231              	.LVL129:
 1232              	.LBB206:
 1233              		.loc 1 441 0
 1234 0776 F4DB     		blt	.L85
 1235              	.LBB202:
 1236              	.LBB203:
 1237              		.loc 3 267 0 discriminator 1
 1238 0778 4168     		ldr	r1, [r0, #4]
 1239              	.LBB204:
 1240              	.LBB205:
 1241              		.loc 3 231 0 discriminator 1
 1242 077a BB6A     		ldr	r3, [r7, #40]
 1243              	.LVL130:
 1244              	.LBE205:
 1245              	.LBE204:
 1246              		.loc 3 267 0 discriminator 1
 1247 077c 5B1A     		subs	r3, r3, r1
 1248              	.LBE203:
 1249              	.LBE202:
 1250              		.loc 1 441 0 discriminator 1
 1251 077e 07EE903A 		vmov	s15, r3	@ int
 1252 0782 F8EE677A 		vcvt.f32.u32	s15, s15
 1253 0786 87EEA97A 		vdiv.f32	s14, s15, s19
 1254 078a B4EEC97A 		vcmpe.f32	s14, s18
ARM GAS  /tmp/cc8NZiV4.s 			page 23


 1255 078e F1EE10FA 		vmrs	APSR_nzcv, FPSCR
 1256 0792 E6D5     		bpl	.L85
 1257              		.loc 1 442 0
 1258 0794 D0B2     		uxtb	r0, r2
 1259              	.LVL131:
 1260 0796 B0EE480A 		vmov.f32	s0, s16
 1261 079a FFF7FEFF 		bl	comm_can_set_current_brake
 1262              	.LVL132:
 1263 079e E0E7     		b	.L85
 1264              	.LVL133:
 1265              	.L216:
 1266              	.LBE206:
 1267              	.LBE200:
 1268              	.LBB207:
 1269              		.loc 1 457 0
 1270 07a0 B0EE48BA 		vmov.f32	s22, s16
 1271              	.LVL134:
 1272              	.L93:
 1273              		.loc 1 451 0 discriminator 1
 1274 07a4 4FF00009 		mov	r9, #0
 1275              	.LVL135:
 1276 07a8 29E0     		b	.L91
 1277              	.LVL136:
 1278              	.L223:
 1279              	.LBB154:
 1280              	.LBB150:
 1281              	.LBB143:
 1282              		.loc 1 464 0
 1283 07aa 019B     		ldr	r3, [sp, #4]
 1284              		.loc 1 463 0
 1285 07ac 90ED020A 		vldr.32	s0, [r0, #8]
 1286              	.LVL137:
 1287 07b0 0290     		str	r0, [sp, #8]
 1288              		.loc 1 469 0
 1289 07b2 94ED0D1A 		vldr.32	s2, [r4, #52]
 1290 07b6 DFED6A0A 		vldr.32	s1, .L229+4
 1291              		.loc 1 464 0
 1292 07ba 002B     		cmp	r3, #0
 1293 07bc 48D0     		beq	.L97
 1294              		.loc 1 465 0
 1295 07be B1EE400A 		vneg.f32	s0, s0
 1296              	.LVL138:
 1297              		.loc 1 469 0
 1298 07c2 30EE6A0A 		vsub.f32	s0, s0, s21
 1299              	.LVL139:
 1300 07c6 B0EE682A 		vmov.f32	s4, s17
 1301 07ca F0EE4B1A 		vmov.f32	s3, s22
 1302 07ce FFF7FEFF 		bl	utils_map
 1303              	.LVL140:
 1304              		.loc 1 470 0
 1305 07d2 D6ED5F7A 		vldr.32	s15, [r6, #380]
 1306 07d6 0298     		ldr	r0, [sp, #8]
 1307 07d8 B4EEE70A 		vcmpe.f32	s0, s15
 1308 07dc F1EE10FA 		vmrs	APSR_nzcv, FPSCR
 1309              		.loc 1 469 0
 1310 07e0 B0EE408A 		vmov.f32	s16, s0
 1311              	.LVL141:
ARM GAS  /tmp/cc8NZiV4.s 			page 24


 1312 07e4 0168     		ldr	r1, [r0]
 1313              		.loc 1 470 0
 1314 07e6 00F1B680 		bmi	.L221
 1315              	.LVL142:
 1316              	.L100:
 1317              	.LBE143:
 1318              		.loc 1 476 0
 1319 07ea C8B2     		uxtb	r0, r1
 1320 07ec B1EE480A 		vneg.f32	s0, s16
 1321 07f0 FFF7FEFF 		bl	comm_can_set_current
 1322              	.LVL143:
 1323              	.L94:
 1324              	.LBE150:
 1325              		.loc 1 458 0 discriminator 2
 1326 07f4 09F10109 		add	r9, r9, #1
 1327              	.LVL144:
 1328 07f8 B9F10A0F 		cmp	r9, #10
 1329 07fc 20D0     		beq	.L222
 1330              	.LVL145:
 1331              	.L91:
 1332              	.LBB151:
 1333              		.loc 1 459 0
 1334 07fe 4846     		mov	r0, r9
 1335 0800 FFF7FEFF 		bl	comm_can_get_status_msg_index
 1336              	.LVL146:
 1337              		.loc 1 461 0
 1338 0804 0168     		ldr	r1, [r0]
 1339 0806 0029     		cmp	r1, #0
 1340 0808 F4DB     		blt	.L94
 1341              	.LVL147:
 1342              	.LBB144:
 1343              	.LBB145:
 1344              	.LBB146:
 1345              	.LBB147:
 1346              		.loc 3 231 0 discriminator 1
 1347 080a BB6A     		ldr	r3, [r7, #40]
 1348              	.LVL148:
 1349              	.LBE147:
 1350              	.LBE146:
 1351              		.loc 3 267 0 discriminator 1
 1352 080c 4268     		ldr	r2, [r0, #4]
 1353 080e 9B1A     		subs	r3, r3, r2
 1354              	.LBE145:
 1355              	.LBE144:
 1356              		.loc 1 461 0 discriminator 1
 1357 0810 07EE903A 		vmov	s15, r3	@ int
 1358 0814 F8EE677A 		vcvt.f32.u32	s15, s15
 1359 0818 87EEA97A 		vdiv.f32	s14, s15, s19
 1360 081c B4EEC97A 		vcmpe.f32	s14, s18
 1361 0820 F1EE10FA 		vmrs	APSR_nzcv, FPSCR
 1362 0824 E6D5     		bpl	.L94
 1363              		.loc 1 462 0
 1364 0826 94F83130 		ldrb	r3, [r4, #49]	@ zero_extendqisi2
 1365 082a 002B     		cmp	r3, #0
 1366 082c BDD1     		bne	.L223
 1367              		.loc 1 475 0
 1368 082e 019B     		ldr	r3, [sp, #4]
ARM GAS  /tmp/cc8NZiV4.s 			page 25


 1369 0830 002B     		cmp	r3, #0
 1370 0832 DAD1     		bne	.L100
 1371              	.LVL149:
 1372              	.L101:
 1373              		.loc 1 478 0
 1374 0834 C8B2     		uxtb	r0, r1
 1375 0836 B0EE480A 		vmov.f32	s0, s16
 1376 083a FFF7FEFF 		bl	comm_can_set_current
 1377              	.LVL150:
 1378 083e D9E7     		b	.L94
 1379              	.L222:
 1380              	.LBE151:
 1381              	.LBE154:
 1382              		.loc 1 483 0
 1383 0840 94F83130 		ldrb	r3, [r4, #49]	@ zero_extendqisi2
 1384 0844 B3BB     		cbnz	r3, .L224
 1385              	.LVL151:
 1386              	.L102:
 1387              		.loc 1 492 0
 1388 0846 019B     		ldr	r3, [sp, #4]
 1389 0848 002B     		cmp	r3, #0
 1390 084a 3FF4BEAD 		beq	.L90
 1391 084e 6EE7     		b	.L92
 1392              	.LVL152:
 1393              	.L97:
 1394              	.LBB155:
 1395              	.LBB152:
 1396              	.LBB148:
 1397              		.loc 1 469 0
 1398 0850 30EE6A0A 		vsub.f32	s0, s0, s21
 1399              	.LVL153:
 1400 0854 B0EE682A 		vmov.f32	s4, s17
 1401 0858 F0EE4B1A 		vmov.f32	s3, s22
 1402 085c FFF7FEFF 		bl	utils_map
 1403              	.LVL154:
 1404              		.loc 1 470 0
 1405 0860 D6ED5F7A 		vldr.32	s15, [r6, #380]
 1406 0864 0298     		ldr	r0, [sp, #8]
 1407 0866 B4EEE70A 		vcmpe.f32	s0, s15
 1408 086a F1EE10FA 		vmrs	APSR_nzcv, FPSCR
 1409              		.loc 1 469 0
 1410 086e B0EE408A 		vmov.f32	s16, s0
 1411              	.LVL155:
 1412 0872 0168     		ldr	r1, [r0]
 1413              		.loc 1 470 0
 1414 0874 DED5     		bpl	.L101
 1415              		.loc 1 471 0
 1416 0876 9FED3A8A 		vldr.32	s16, .L229+4
 1417 087a DBE7     		b	.L101
 1418              	.LVL156:
 1419              	.L30:
 1420              	.LBE148:
 1421              	.LBE152:
 1422              	.LBE155:
 1423              	.LBE207:
 1424              		.loc 1 244 0
 1425 087c 94ED0E7A 		vldr.32	s14, [r4, #56]
ARM GAS  /tmp/cc8NZiV4.s 			page 26


 1426 0880 B1EE477A 		vneg.f32	s14, s14
 1427 0884 B4EEEB7A 		vcmpe.f32	s14, s23
 1428 0888 F1EE10FA 		vmrs	APSR_nzcv, FPSCR
 1429 088c 7FF5E4AC 		bpl	.L31
 1430              		.loc 1 245 0
 1431 0890 344B     		ldr	r3, .L229+8
 1432 0892 0022     		movs	r2, #0
 1433 0894 1A70     		strb	r2, [r3]
 1434 0896 DFE4     		b	.L31
 1435              	.L218:
 1436              		.loc 1 291 0 discriminator 4
 1437 0898 B5EEC08A 		vcmpe.f32	s16, #0
 1438 089c F1EE10FA 		vmrs	APSR_nzcv, FPSCR
 1439 08a0 7FF565AE 		bpl	.L41
 1440 08a4 C1E5     		b	.L40
 1441              	.LVL157:
 1442              	.L220:
 1443              	.LBB208:
 1444              		.loc 1 452 0
 1445 08a6 F1EE6BBA 		vneg.f32	s23, s23
 1446              	.LVL158:
 1447              		.loc 1 453 0
 1448 08aa F1EE6AAA 		vneg.f32	s21, s21
 1449              	.LVL159:
 1450              		.loc 1 451 0
 1451 08ae B0EE48BA 		vmov.f32	s22, s16
 1452 08b2 77E7     		b	.L93
 1453              	.LVL160:
 1454              	.L224:
 1455              	.LBB156:
 1456              		.loc 1 485 0
 1457 08b4 94ED0D1A 		vldr.32	s2, [r4, #52]
 1458 08b8 DFED290A 		vldr.32	s1, .L229+4
 1459 08bc F0EE4B1A 		vmov.f32	s3, s22
 1460 08c0 3BEEEA0A 		vsub.f32	s0, s23, s21
 1461              	.LVL161:
 1462 08c4 B0EE682A 		vmov.f32	s4, s17
 1463 08c8 FFF7FEFF 		bl	utils_map
 1464              	.LVL162:
 1465              		.loc 1 486 0
 1466 08cc D6ED5F7A 		vldr.32	s15, [r6, #380]
 1467              		.loc 1 487 0
 1468 08d0 F4EE407A 		vcmp.f32	s15, s0
 1469              		.loc 1 485 0
 1470 08d4 B0EE408A 		vmov.f32	s16, s0
 1471              	.LVL163:
 1472              		.loc 1 487 0
 1473 08d8 F1EE10FA 		vmrs	APSR_nzcv, FPSCR
 1474 08dc C8BF     		it	gt
 1475 08de B0EE688A 		vmovgt.f32	s16, s17
 1476 08e2 B0E7     		b	.L102
 1477              	.LVL164:
 1478              	.L117:
 1479              	.LBE156:
 1480              	.LBE208:
 1481              	.LBB209:
 1482              	.LBB177:
ARM GAS  /tmp/cc8NZiV4.s 			page 27


 1483              	.LBB170:
 1484              		.loc 1 400 0
 1485 08e4 4FF0000B 		mov	fp, #0
 1486 08e8 03E0     		b	.L72
 1487              	.LVL165:
 1488              	.L73:
 1489              		.loc 1 400 0 is_stmt 0 discriminator 2
 1490 08ea BBF10A0F 		cmp	fp, #10
 1491 08ee 3FF401AE 		beq	.L75
 1492              	.LVL166:
 1493              	.L72:
 1494              	.LBB171:
 1495              		.loc 1 401 0 is_stmt 1
 1496 08f2 5846     		mov	r0, fp
 1497 08f4 FFF7FEFF 		bl	comm_can_get_status_msg_index
 1498              	.LVL167:
 1499              		.loc 1 403 0
 1500 08f8 0168     		ldr	r1, [r0]
 1501 08fa 0029     		cmp	r1, #0
 1502              	.LBE171:
 1503              		.loc 1 400 0
 1504 08fc 0BF1010B 		add	fp, fp, #1
 1505              	.LVL168:
 1506              	.LBB176:
 1507              		.loc 1 403 0
 1508 0900 F3DB     		blt	.L73
 1509              	.LBB172:
 1510              	.LBB173:
 1511              		.loc 3 267 0 discriminator 1
 1512 0902 4068     		ldr	r0, [r0, #4]
 1513              	.LVL169:
 1514              	.LBB174:
 1515              	.LBB175:
 1516              		.loc 3 231 0 discriminator 1
 1517 0904 BA6A     		ldr	r2, [r7, #40]
 1518              	.LVL170:
 1519              	.LBE175:
 1520              	.LBE174:
 1521              		.loc 3 267 0 discriminator 1
 1522 0906 121A     		subs	r2, r2, r0
 1523              	.LBE173:
 1524              	.LBE172:
 1525              		.loc 1 403 0 discriminator 1
 1526 0908 07EE902A 		vmov	s15, r2	@ int
 1527 090c F8EE677A 		vcvt.f32.u32	s15, s15
 1528 0910 87EEA97A 		vdiv.f32	s14, s15, s19
 1529 0914 B4EEC97A 		vcmpe.f32	s14, s18
 1530 0918 F1EE10FA 		vmrs	APSR_nzcv, FPSCR
 1531 091c E5D5     		bpl	.L73
 1532              		.loc 1 404 0
 1533 091e 124B     		ldr	r3, .L229+12
 1534 0920 C8B2     		uxtb	r0, r1
 1535 0922 93ED000A 		vldr.32	s0, [r3]
 1536 0926 FFF7FEFF 		bl	comm_can_set_duty
 1537              	.LVL171:
 1538 092a DEE7     		b	.L73
 1539              	.LVL172:
ARM GAS  /tmp/cc8NZiV4.s 			page 28


 1540              	.L210:
 1541              	.LBE176:
 1542              	.LBE170:
 1543              	.LBE177:
 1544              	.LBE209:
 1545              		.loc 1 239 0 discriminator 1
 1546 092c 1B78     		ldrb	r3, [r3]	@ zero_extendqisi2
 1547 092e 002B     		cmp	r3, #0
 1548 0930 7FF492AC 		bne	.L31
 1549              		.loc 1 240 0
 1550 0934 0223     		movs	r3, #2
 1551 0936 1370     		strb	r3, [r2]
 1552 0938 8EE4     		b	.L31
 1553              	.L217:
 1554              		.loc 1 265 0
 1555 093a 012A     		cmp	r2, #1
 1556 093c 3FF408AE 		beq	.L35
 1557              		.loc 1 269 0
 1558 0940 0222     		movs	r2, #2
 1559 0942 1A70     		strb	r2, [r3]
 1560              	.L34:
 1561              		.loc 1 279 0
 1562 0944 96ED208A 		vldr.32	s16, [r6, #128]
 1563              	.LVL173:
 1564 0948 0023     		movs	r3, #0
 1565 094a B0EEC88A 		vabs.f32	s16, s16
 1566 094e 28EE278A 		vmul.f32	s16, s16, s15
 1567              	.LVL174:
 1568 0952 0193     		str	r3, [sp, #4]
 1569 0954 86E4     		b	.L33
 1570              	.LVL175:
 1571              	.L221:
 1572              	.LBB210:
 1573              	.LBB157:
 1574              	.LBB153:
 1575              	.LBB149:
 1576              		.loc 1 471 0
 1577 0956 9FED028A 		vldr.32	s16, .L229+4
 1578 095a 46E7     		b	.L100
 1579              	.L230:
 1580              		.align	2
 1581              	.L229:
 1582 095c 00000000 		.word	.LANCHOR5
 1583 0960 00000000 		.word	0
 1584 0964 00000000 		.word	.LANCHOR10
 1585 0968 00000000 		.word	.LANCHOR13
 1586              	.LBE149:
 1587              	.LBE153:
 1588              	.LBE157:
 1589              	.LBE210:
 1590              	.LBE212:
 1591              		.cfi_endproc
 1592              	.LFE262:
 1593              		.size	ppm_thread, .-ppm_thread
 1594              		.section	.text.servodec_func,"ax",%progbits
 1595              		.align	1
 1596              		.p2align 4,,15
ARM GAS  /tmp/cc8NZiV4.s 			page 29


 1597              		.syntax unified
 1598              		.thumb
 1599              		.thumb_func
 1600              		.fpu fpv4-sp-d16
 1601              		.type	servodec_func, %function
 1602              	servodec_func:
 1603              	.LFB260:
 1604              		.loc 1 110 0
 1605              		.cfi_startproc
 1606              		@ args = 0, pretend = 0, frame = 0
 1607              		@ frame_needed = 0, uses_anonymous_args = 0
 1608 0000 08B5     		push	{r3, lr}
 1609              		.cfi_def_cfa_offset 8
 1610              		.cfi_offset 3, -8
 1611              		.cfi_offset 14, -4
 1612              	.LBB213:
 1613              	.LBB214:
 1614              	.LBB215:
 1615              	.LBB216:
 1616              	.LBB217:
 1617              		.file 4 "ChibiOS_3.0.2/os/ext/CMSIS/include/core_cmFunc.h"
 1618              		.loc 4 342 0
 1619              		.syntax unified
 1620              	@ 342 "ChibiOS_3.0.2/os/ext/CMSIS/include/core_cmFunc.h" 1
 1621 0002 72B6     		cpsid i
 1622              	@ 0 "" 2
 1623              		.thumb
 1624              		.syntax unified
 1625              	.LBE217:
 1626              	.LBE216:
 1627              	.LBE215:
 1628              	.LBE214:
 1629              	.LBE213:
 1630              		.loc 1 112 0
 1631 0004 FFF7FEFF 		bl	timeout_reset
 1632              	.LVL176:
 1633              		.loc 1 113 0
 1634 0008 034B     		ldr	r3, .L233
 1635 000a 0121     		movs	r1, #1
 1636 000c 1868     		ldr	r0, [r3]
 1637 000e FFF7FEFF 		bl	chEvtSignalI
 1638              	.LVL177:
 1639              	.LBB218:
 1640              	.LBB219:
 1641              	.LBB220:
 1642              	.LBB221:
 1643              	.LBB222:
 1644              		.loc 4 331 0
 1645              		.syntax unified
 1646              	@ 331 "ChibiOS_3.0.2/os/ext/CMSIS/include/core_cmFunc.h" 1
 1647 0012 62B6     		cpsie i
 1648              	@ 0 "" 2
 1649              		.thumb
 1650              		.syntax unified
 1651              	.LBE222:
 1652              	.LBE221:
 1653              	.LBE220:
ARM GAS  /tmp/cc8NZiV4.s 			page 30


 1654              	.LBE219:
 1655              	.LBE218:
 1656              		.loc 1 115 0
 1657 0014 08BD     		pop	{r3, pc}
 1658              	.L234:
 1659 0016 00BF     		.align	2
 1660              	.L233:
 1661 0018 00000000 		.word	.LANCHOR0
 1662              		.cfi_endproc
 1663              	.LFE260:
 1664              		.size	servodec_func, .-servodec_func
 1665              		.section	.text.update,"ax",%progbits
 1666              		.align	1
 1667              		.p2align 4,,15
 1668              		.syntax unified
 1669              		.thumb
 1670              		.thumb_func
 1671              		.fpu fpv4-sp-d16
 1672              		.type	update, %function
 1673              	update:
 1674              	.LFB261:
 1675              		.loc 1 117 0
 1676              		.cfi_startproc
 1677              		@ args = 0, pretend = 0, frame = 0
 1678              		@ frame_needed = 0, uses_anonymous_args = 0
 1679              	.LVL178:
 1680              		.loc 1 118 0
 1681 0000 0C4B     		ldr	r3, .L249
 1682 0002 1B78     		ldrb	r3, [r3]	@ zero_extendqisi2
 1683 0004 03B9     		cbnz	r3, .L248
 1684 0006 7047     		bx	lr
 1685              	.L248:
 1686              		.loc 1 117 0
 1687 0008 10B5     		push	{r4, lr}
 1688              		.cfi_def_cfa_offset 8
 1689              		.cfi_offset 4, -8
 1690              		.cfi_offset 14, -4
 1691 000a 0446     		mov	r4, r0
 1692              	.LVL179:
 1693              	.LBB239:
 1694              	.LBB240:
 1695              	.LBB241:
 1696              	.LBB242:
 1697              	.LBB243:
 1698              	.LBB244:
 1699              	.LBB245:
 1700              		.loc 4 342 0
 1701              		.syntax unified
 1702              	@ 342 "ChibiOS_3.0.2/os/ext/CMSIS/include/core_cmFunc.h" 1
 1703 000c 72B6     		cpsid i
 1704              	@ 0 "" 2
 1705              	.LVL180:
 1706              		.thumb
 1707              		.syntax unified
 1708              	.LBE245:
 1709              	.LBE244:
 1710              	.LBE243:
ARM GAS  /tmp/cc8NZiV4.s 			page 31


 1711              	.LBE242:
 1712              	.LBE241:
 1713              	.LBB246:
 1714              	.LBB247:
 1715              	.LBB248:
 1716              	.LBB249:
 1717              		.loc 3 376 0
 1718 000e 0A48     		ldr	r0, .L249+4
 1719              	.LVL181:
 1720 0010 C368     		ldr	r3, [r0, #12]
 1721 0012 0BB1     		cbz	r3, .L237
 1722              		.loc 3 377 0
 1723 0014 FFF7FEFF 		bl	chVTDoResetI
 1724              	.LVL182:
 1725              	.L237:
 1726              	.LBE249:
 1727              	.LBE248:
 1728              		.loc 3 424 0
 1729 0018 2346     		mov	r3, r4
 1730 001a 084A     		ldr	r2, .L249+8
 1731 001c 0648     		ldr	r0, .L249+4
 1732 001e 1421     		movs	r1, #20
 1733 0020 FFF7FEFF 		bl	chVTDoSetI
 1734              	.LVL183:
 1735              	.LBE247:
 1736              	.LBE246:
 1737              		.loc 1 124 0
 1738 0024 064B     		ldr	r3, .L249+12
 1739 0026 0121     		movs	r1, #1
 1740 0028 1868     		ldr	r0, [r3]
 1741 002a FFF7FEFF 		bl	chEvtSignalI
 1742              	.LVL184:
 1743              	.LBB250:
 1744              	.LBB251:
 1745              	.LBB252:
 1746              	.LBB253:
 1747              	.LBB254:
 1748              		.loc 4 331 0
 1749              		.syntax unified
 1750              	@ 331 "ChibiOS_3.0.2/os/ext/CMSIS/include/core_cmFunc.h" 1
 1751 002e 62B6     		cpsie i
 1752              	@ 0 "" 2
 1753              		.thumb
 1754              		.syntax unified
 1755              	.LBE254:
 1756              	.LBE253:
 1757              	.LBE252:
 1758              	.LBE251:
 1759              	.LBE250:
 1760              	.LBE240:
 1761              	.LBE239:
 1762              		.loc 1 126 0
 1763 0030 10BD     		pop	{r4, pc}
 1764              	.LVL185:
 1765              	.L250:
 1766 0032 00BF     		.align	2
 1767              	.L249:
ARM GAS  /tmp/cc8NZiV4.s 			page 32


 1768 0034 00000000 		.word	.LANCHOR2
 1769 0038 00000000 		.word	.LANCHOR14
 1770 003c 00000000 		.word	update
 1771 0040 00000000 		.word	.LANCHOR0
 1772              		.cfi_endproc
 1773              	.LFE261:
 1774              		.size	update, .-update
 1775              		.section	.text.app_ppm_configure,"ax",%progbits
 1776              		.align	1
 1777              		.p2align 4,,15
 1778              		.global	app_ppm_configure
 1779              		.syntax unified
 1780              		.thumb
 1781              		.thumb_func
 1782              		.fpu fpv4-sp-d16
 1783              		.type	app_ppm_configure, %function
 1784              	app_ppm_configure:
 1785              	.LFB256:
 1786              		.loc 1 60 0
 1787              		.cfi_startproc
 1788              		@ args = 0, pretend = 0, frame = 0
 1789              		@ frame_needed = 0, uses_anonymous_args = 0
 1790              	.LVL186:
 1791 0000 10B5     		push	{r4, lr}
 1792              		.cfi_def_cfa_offset 8
 1793              		.cfi_offset 4, -8
 1794              		.cfi_offset 14, -4
 1795              		.loc 1 62 0
 1796 0002 0E4C     		ldr	r4, .L257
 1797 0004 0146     		mov	r1, r0
 1798 0006 4422     		movs	r2, #68
 1799 0008 2046     		mov	r0, r4
 1800              	.LVL187:
 1801 000a FFF7FEFF 		bl	memcpy
 1802              	.LVL188:
 1803              		.loc 1 63 0
 1804 000e 0C4A     		ldr	r2, .L257+4
 1805              		.loc 1 65 0
 1806 0010 0C4B     		ldr	r3, .L257+8
 1807              		.loc 1 63 0
 1808 0012 0021     		movs	r1, #0
 1809 0014 1160     		str	r1, [r2]
 1810              		.loc 1 65 0
 1811 0016 1B78     		ldrb	r3, [r3]	@ zero_extendqisi2
 1812 0018 33B1     		cbz	r3, .L252
 1813              		.loc 1 66 0
 1814 001a 94ED030A 		vldr.32	s0, [r4, #12]
 1815 001e D4ED040A 		vldr.32	s1, [r4, #16]
 1816 0022 207E     		ldrb	r0, [r4, #24]	@ zero_extendqisi2
 1817 0024 FFF7FEFF 		bl	servodec_set_pulse_options
 1818              	.LVL189:
 1819              	.L252:
 1820              		.loc 1 69 0
 1821 0028 D4ED0E7A 		vldr.32	s15, [r4, #56]
 1822 002c 9FED067A 		vldr.32	s14, .L257+12
 1823 0030 064B     		ldr	r3, .L257+16
 1824 0032 67EE877A 		vmul.f32	s15, s15, s14
ARM GAS  /tmp/cc8NZiV4.s 			page 33


 1825 0036 C3ED007A 		vstr.32	s15, [r3]
 1826              		.loc 1 73 0
 1827 003a 10BD     		pop	{r4, pc}
 1828              	.L258:
 1829              		.align	2
 1830              	.L257:
 1831 003c 00000000 		.word	.LANCHOR1
 1832 0040 00000000 		.word	.LANCHOR5
 1833 0044 00000000 		.word	.LANCHOR2
 1834 0048 CDCC4C3E 		.word	1045220557
 1835 004c 00000000 		.word	.LANCHOR9
 1836              		.cfi_endproc
 1837              	.LFE256:
 1838              		.size	app_ppm_configure, .-app_ppm_configure
 1839              		.section	.text.app_ppm_start,"ax",%progbits
 1840              		.align	1
 1841              		.p2align 4,,15
 1842              		.global	app_ppm_start
 1843              		.syntax unified
 1844              		.thumb
 1845              		.thumb_func
 1846              		.fpu fpv4-sp-d16
 1847              		.type	app_ppm_start, %function
 1848              	app_ppm_start:
 1849              	.LFB257:
 1850              		.loc 1 75 0
 1851              		.cfi_startproc
 1852              		@ args = 0, pretend = 0, frame = 0
 1853              		@ frame_needed = 0, uses_anonymous_args = 0
 1854 0000 30B5     		push	{r4, r5, lr}
 1855              		.cfi_def_cfa_offset 12
 1856              		.cfi_offset 4, -12
 1857              		.cfi_offset 5, -8
 1858              		.cfi_offset 14, -4
 1859 0002 83B0     		sub	sp, sp, #12
 1860              		.cfi_def_cfa_offset 24
 1861              		.loc 1 77 0
 1862 0004 0024     		movs	r4, #0
 1863 0006 0C4D     		ldr	r5, .L265
 1864              		.loc 1 78 0
 1865 0008 0C4B     		ldr	r3, .L265+4
 1866 000a 0094     		str	r4, [sp]
 1867 000c 4022     		movs	r2, #64
 1868 000e 4FF4B361 		mov	r1, #1432
 1869 0012 0B48     		ldr	r0, .L265+8
 1870              		.loc 1 77 0
 1871 0014 2C70     		strb	r4, [r5]
 1872              		.loc 1 78 0
 1873 0016 FFF7FEFF 		bl	chThdCreateStatic
 1874              	.LVL190:
 1875              	.LBB268:
 1876              	.LBB269:
 1877              	.LBB270:
 1878              	.LBB271:
 1879              		.loc 4 342 0
 1880              		.syntax unified
 1881              	@ 342 "ChibiOS_3.0.2/os/ext/CMSIS/include/core_cmFunc.h" 1
ARM GAS  /tmp/cc8NZiV4.s 			page 34


 1882 001a 72B6     		cpsid i
 1883              	@ 0 "" 2
 1884              	.LVL191:
 1885              		.thumb
 1886              		.syntax unified
 1887              	.LBE271:
 1888              	.LBE270:
 1889              	.LBE269:
 1890              	.LBE268:
 1891              	.LBB272:
 1892              	.LBB273:
 1893              	.LBB274:
 1894              	.LBB275:
 1895              		.loc 3 376 0
 1896 001c 0948     		ldr	r0, .L265+12
 1897 001e C368     		ldr	r3, [r0, #12]
 1898 0020 0BB1     		cbz	r3, .L260
 1899              		.loc 3 377 0
 1900 0022 FFF7FEFF 		bl	chVTDoResetI
 1901              	.LVL192:
 1902              	.L260:
 1903              	.LBE275:
 1904              	.LBE274:
 1905              		.loc 3 424 0
 1906 0026 0023     		movs	r3, #0
 1907 0028 074A     		ldr	r2, .L265+16
 1908 002a 0648     		ldr	r0, .L265+12
 1909 002c 0A21     		movs	r1, #10
 1910 002e FFF7FEFF 		bl	chVTDoSetI
 1911              	.LVL193:
 1912              	.LBE273:
 1913              	.LBE272:
 1914              	.LBB276:
 1915              	.LBB277:
 1916              	.LBB278:
 1917              	.LBB279:
 1918              	.LBB280:
 1919              		.loc 4 331 0
 1920              		.syntax unified
 1921              	@ 331 "ChibiOS_3.0.2/os/ext/CMSIS/include/core_cmFunc.h" 1
 1922 0032 62B6     		cpsie i
 1923              	@ 0 "" 2
 1924              		.thumb
 1925              		.syntax unified
 1926              	.LBE280:
 1927              	.LBE279:
 1928              	.LBE278:
 1929              	.LBE277:
 1930              	.LBE276:
 1931              		.loc 1 84 0
 1932 0034 03B0     		add	sp, sp, #12
 1933              		.cfi_def_cfa_offset 12
 1934              		@ sp needed
 1935 0036 30BD     		pop	{r4, r5, pc}
 1936              	.L266:
 1937              		.align	2
 1938              	.L265:
ARM GAS  /tmp/cc8NZiV4.s 			page 35


 1939 0038 00000000 		.word	.LANCHOR3
 1940 003c 00000000 		.word	ppm_thread
 1941 0040 00000000 		.word	.LANCHOR15
 1942 0044 00000000 		.word	.LANCHOR14
 1943 0048 00000000 		.word	update
 1944              		.cfi_endproc
 1945              	.LFE257:
 1946              		.size	app_ppm_start, .-app_ppm_start
 1947              		.section	.text.app_ppm_stop,"ax",%progbits
 1948              		.align	1
 1949              		.p2align 4,,15
 1950              		.global	app_ppm_stop
 1951              		.syntax unified
 1952              		.thumb
 1953              		.thumb_func
 1954              		.fpu fpv4-sp-d16
 1955              		.type	app_ppm_stop, %function
 1956              	app_ppm_stop:
 1957              	.LFB258:
 1958              		.loc 1 86 0
 1959              		.cfi_startproc
 1960              		@ args = 0, pretend = 0, frame = 0
 1961              		@ frame_needed = 0, uses_anonymous_args = 0
 1962              		.loc 1 88 0
 1963 0000 0A4B     		ldr	r3, .L281
 1964              		.loc 1 86 0
 1965 0002 10B5     		push	{r4, lr}
 1966              		.cfi_def_cfa_offset 8
 1967              		.cfi_offset 4, -8
 1968              		.cfi_offset 14, -4
 1969              		.loc 1 88 0
 1970 0004 0121     		movs	r1, #1
 1971              		.loc 1 90 0
 1972 0006 0A4C     		ldr	r4, .L281+4
 1973              		.loc 1 88 0
 1974 0008 1970     		strb	r1, [r3]
 1975              		.loc 1 90 0
 1976 000a 2378     		ldrb	r3, [r4]	@ zero_extendqisi2
 1977 000c 1BB1     		cbz	r3, .L279
 1978 000e 06E0     		b	.L280
 1979              	.L270:
 1980              		.loc 1 96 0
 1981 0010 0A20     		movs	r0, #10
 1982 0012 FFF7FEFF 		bl	chThdSleep
 1983              	.LVL194:
 1984              	.L279:
 1985              		.loc 1 95 0
 1986 0016 2378     		ldrb	r3, [r4]	@ zero_extendqisi2
 1987 0018 002B     		cmp	r3, #0
 1988 001a F9D1     		bne	.L270
 1989              		.loc 1 99 0
 1990 001c 10BD     		pop	{r4, pc}
 1991              	.L280:
 1992              		.loc 1 91 0
 1993 001e 054B     		ldr	r3, .L281+8
 1994 0020 1868     		ldr	r0, [r3]
 1995 0022 FFF7FEFF 		bl	chEvtSignalI
ARM GAS  /tmp/cc8NZiV4.s 			page 36


 1996              	.LVL195:
 1997              		.loc 1 92 0
 1998 0026 FFF7FEFF 		bl	servodec_stop
 1999              	.LVL196:
 2000 002a F4E7     		b	.L279
 2001              	.L282:
 2002              		.align	2
 2003              	.L281:
 2004 002c 00000000 		.word	.LANCHOR3
 2005 0030 00000000 		.word	.LANCHOR2
 2006 0034 00000000 		.word	.LANCHOR0
 2007              		.cfi_endproc
 2008              	.LFE258:
 2009              		.size	app_ppm_stop, .-app_ppm_stop
 2010              		.section	.text.app_ppm_get_decoded_level,"ax",%progbits
 2011              		.align	1
 2012              		.p2align 4,,15
 2013              		.global	app_ppm_get_decoded_level
 2014              		.syntax unified
 2015              		.thumb
 2016              		.thumb_func
 2017              		.fpu fpv4-sp-d16
 2018              		.type	app_ppm_get_decoded_level, %function
 2019              	app_ppm_get_decoded_level:
 2020              	.LFB259:
 2021              		.loc 1 101 0
 2022              		.cfi_startproc
 2023              		@ args = 0, pretend = 0, frame = 0
 2024              		@ frame_needed = 0, uses_anonymous_args = 0
 2025              		@ link register save eliminated.
 2026              		.loc 1 103 0
 2027 0000 014B     		ldr	r3, .L284
 2028              		.loc 1 107 0
 2029 0002 93ED000A 		vldr.32	s0, [r3]
 2030 0006 7047     		bx	lr
 2031              	.L285:
 2032              		.align	2
 2033              	.L284:
 2034 0008 00000000 		.word	.LANCHOR4
 2035              		.cfi_endproc
 2036              	.LFE259:
 2037              		.size	app_ppm_get_decoded_level, .-app_ppm_get_decoded_level
 2038              		.global	vt
 2039              		.section	.bss.config,"aw",%nobits
 2040              		.align	2
 2041              		.set	.LANCHOR1,. + 0
 2042              		.type	config, %object
 2043              		.size	config, 68
 2044              	config:
 2045 0000 00000000 		.space	68
 2045      00000000 
 2045      00000000 
 2045      00000000 
 2045      00000000 
 2046              		.section	.bss.did_idle_once.12063,"aw",%nobits
 2047              		.set	.LANCHOR10,. + 0
 2048              		.type	did_idle_once.12063, %object
ARM GAS  /tmp/cc8NZiV4.s 			page 37


 2049              		.size	did_idle_once.12063, 1
 2050              	did_idle_once.12063:
 2051 0000 00       		.space	1
 2052              		.section	.bss.direction_hyst,"aw",%nobits
 2053              		.align	2
 2054              		.set	.LANCHOR9,. + 0
 2055              		.type	direction_hyst, %object
 2056              		.size	direction_hyst, 4
 2057              	direction_hyst:
 2058 0000 00000000 		.space	4
 2059              		.section	.bss.duty_rev.12088,"aw",%nobits
 2060              		.align	2
 2061              		.set	.LANCHOR13,. + 0
 2062              		.type	duty_rev.12088, %object
 2063              		.size	duty_rev.12088, 4
 2064              	duty_rev.12088:
 2065 0000 00000000 		.space	4
 2066              		.section	.bss.input_val,"aw",%nobits
 2067              		.align	2
 2068              		.set	.LANCHOR4,. + 0
 2069              		.type	input_val, %object
 2070              		.size	input_val, 4
 2071              	input_val:
 2072 0000 00000000 		.space	4
 2073              		.section	.bss.is_running,"aw",%nobits
 2074              		.set	.LANCHOR2,. + 0
 2075              		.type	is_running, %object
 2076              		.size	is_running, 1
 2077              	is_running:
 2078 0000 00       		.space	1
 2079              		.section	.bss.last_time.12052,"aw",%nobits
 2080              		.align	2
 2081              		.set	.LANCHOR7,. + 0
 2082              		.type	last_time.12052, %object
 2083              		.size	last_time.12052, 4
 2084              	last_time.12052:
 2085 0000 00000000 		.space	4
 2086              		.section	.bss.ppm_thread_wa,"aw",%nobits
 2087              		.align	3
 2088              		.set	.LANCHOR15,. + 0
 2089              		.type	ppm_thread_wa, %object
 2090              		.size	ppm_thread_wa, 1432
 2091              	ppm_thread_wa:
 2092 0000 00000000 		.space	1432
 2092      00000000 
 2092      00000000 
 2092      00000000 
 2092      00000000 
 2093              		.section	.bss.ppm_tp,"aw",%nobits
 2094              		.align	2
 2095              		.set	.LANCHOR0,. + 0
 2096              		.type	ppm_tp, %object
 2097              		.size	ppm_tp, 4
 2098              	ppm_tp:
 2099 0000 00000000 		.space	4
 2100              		.section	.bss.pulses_without_power,"aw",%nobits
 2101              		.align	2
ARM GAS  /tmp/cc8NZiV4.s 			page 38


 2102              		.set	.LANCHOR5,. + 0
 2103              		.type	pulses_without_power, %object
 2104              		.size	pulses_without_power, 4
 2105              	pulses_without_power:
 2106 0000 00000000 		.space	4
 2107              		.section	.bss.pulses_without_power_before.12077,"aw",%nobits
 2108              		.align	2
 2109              		.set	.LANCHOR11,. + 0
 2110              		.type	pulses_without_power_before.12077, %object
 2111              		.size	pulses_without_power_before.12077, 4
 2112              	pulses_without_power_before.12077:
 2113 0000 00000000 		.space	4
 2114              		.section	.bss.servo_val_ramp.12053,"aw",%nobits
 2115              		.align	2
 2116              		.set	.LANCHOR6,. + 0
 2117              		.type	servo_val_ramp.12053, %object
 2118              		.size	servo_val_ramp.12053, 4
 2119              	servo_val_ramp.12053:
 2120 0000 00000000 		.space	4
 2121              		.section	.bss.vt,"aw",%nobits
 2122              		.align	2
 2123              		.set	.LANCHOR14,. + 0
 2124              		.type	vt, %object
 2125              		.size	vt, 20
 2126              	vt:
 2127 0000 00000000 		.space	20
 2127      00000000 
 2127      00000000 
 2127      00000000 
 2127      00000000 
 2128              		.section	.bss.was_duty_control.12087,"aw",%nobits
 2129              		.set	.LANCHOR12,. + 0
 2130              		.type	was_duty_control.12087, %object
 2131              		.size	was_duty_control.12087, 1
 2132              	was_duty_control.12087:
 2133 0000 00       		.space	1
 2134              		.section	.data.force_brake.12062,"aw",%progbits
 2135              		.set	.LANCHOR8,. + 0
 2136              		.type	force_brake.12062, %object
 2137              		.size	force_brake.12062, 1
 2138              	force_brake.12062:
 2139 0000 01       		.byte	1
 2140              		.section	.data.stop_now,"aw",%progbits
 2141              		.set	.LANCHOR3,. + 0
 2142              		.type	stop_now, %object
 2143              		.size	stop_now, 1
 2144              	stop_now:
 2145 0000 01       		.byte	1
 2146              		.section	.rodata.ppm_thread.str1.4,"aMS",%progbits,1
 2147              		.align	2
 2148              	.LC0:
 2149 0000 4150505F 		.ascii	"APP_PPM\000"
 2149      50504D00 
 2150              		.text
 2151              	.Letext0:
 2152              		.file 5 "/usr/arm-none-eabi/include/machine/_default_types.h"
 2153              		.file 6 "/usr/arm-none-eabi/include/sys/_stdint.h"
ARM GAS  /tmp/cc8NZiV4.s 			page 39


 2154              		.file 7 "/usr/lib/gcc/arm-none-eabi/7.3.1/include/stddef.h"
 2155              		.file 8 "ChibiOS_3.0.2/os/rt/ports/ARMCMx/compilers/GCC/chtypes.h"
 2156              		.file 9 "ChibiOS_3.0.2/os/rt/include/chsystypes.h"
 2157              		.file 10 "ChibiOS_3.0.2/os/rt/include/chschd.h"
 2158              		.file 11 "ChibiOS_3.0.2/os/ext/CMSIS/include/core_cm4.h"
 2159              		.file 12 "ChibiOS_3.0.2/os/ext/CMSIS/ST/system_stm32f4xx.h"
 2160              		.file 13 "ChibiOS_3.0.2/os/ext/CMSIS/ST/stm32f407xx.h"
 2161              		.file 14 "ChibiOS_3.0.2/os/rt/ports/ARMCMx/chcore.h"
 2162              		.file 15 "ChibiOS_3.0.2/os/rt/ports/ARMCMx/chcore_v7m.h"
 2163              		.file 16 "ChibiOS_3.0.2/os/rt/include/chtm.h"
 2164              		.file 17 "ChibiOS_3.0.2/os/rt/include/chsem.h"
 2165              		.file 18 "ChibiOS_3.0.2/os/rt/include/chmtx.h"
 2166              		.file 19 "ChibiOS_3.0.2/os/rt/include/chevents.h"
 2167              		.file 20 "ChibiOS_3.0.2/os/rt/include/chqueues.h"
 2168              		.file 21 "./datatypes.h"
 2169              		.file 22 "./conf_general.h"
 2170              		.file 23 "ChibiOS_3.0.2/os/hal/ports/STM32/STM32F4xx/stm32_dma.h"
 2171              		.file 24 "ChibiOS_3.0.2/os/hal/ports/STM32/LLD/GPIOv2/pal_lld.h"
 2172              		.file 25 "ChibiOS_3.0.2/os/hal/include/can.h"
 2173              		.file 26 "ChibiOS_3.0.2/os/hal/ports/STM32/LLD/can_lld.h"
 2174              		.file 27 "ChibiOS_3.0.2/os/hal/include/i2c.h"
 2175              		.file 28 "ChibiOS_3.0.2/os/hal/ports/STM32/LLD/I2Cv1/i2c_lld.h"
 2176              		.file 29 "ChibiOS_3.0.2/os/hal/include/icu.h"
 2177              		.file 30 "ChibiOS_3.0.2/os/hal/ports/STM32/LLD/TIMv1/icu_lld.h"
 2178              		.file 31 "ChibiOS_3.0.2/os/hal/ports/STM32/LLD/TIMv1/stm32_tim.h"
 2179              		.file 32 "ChibiOS_3.0.2/os/hal/include/serial.h"
 2180              		.file 33 "ChibiOS_3.0.2/os/hal/ports/STM32/LLD/USARTv1/serial_lld.h"
 2181              		.file 34 "ChibiOS_3.0.2/os/hal/include/spi.h"
 2182              		.file 35 "ChibiOS_3.0.2/os/hal/ports/STM32/LLD/SPIv1/spi_lld.h"
 2183              		.file 36 "ChibiOS_3.0.2/os/hal/include/usb.h"
 2184              		.file 37 "ChibiOS_3.0.2/os/hal/ports/STM32/LLD/OTGv1/usb_lld.h"
 2185              		.file 38 "ChibiOS_3.0.2/os/hal/ports/STM32/LLD/OTGv1/stm32_otg.h"
 2186              		.file 39 "./mc_interface.h"
 2187              		.file 40 "/usr/arm-none-eabi/include/sys/lock.h"
 2188              		.file 41 "/usr/arm-none-eabi/include/sys/_types.h"
 2189              		.file 42 "/usr/arm-none-eabi/include/sys/reent.h"
 2190              		.file 43 "/usr/arm-none-eabi/include/math.h"
 2191              		.file 44 "ChibiOS_3.0.2/os/rt/include/chsys.h"
 2192              		.file 45 "ChibiOS_3.0.2/os/rt/include/chthreads.h"
 2193              		.file 46 "./utils.h"
 2194              		.file 47 "./timeout.h"
 2195              		.file 48 "./comm_can.h"
 2196              		.file 49 "./servo_dec.h"
 2197              		.file 50 "applications/app.h"
 2198              		.file 51 "<built-in>"