ARM GAS  /tmp/ccDQ7jkU.s 			page 1


   1              		.cpu cortex-m4
   2              		.eabi_attribute 27, 1
   3              		.eabi_attribute 28, 1
   4              		.eabi_attribute 20, 1
   5              		.eabi_attribute 21, 1
   6              		.eabi_attribute 23, 3
   7              		.eabi_attribute 24, 1
   8              		.eabi_attribute 25, 1
   9              		.eabi_attribute 26, 1
  10              		.eabi_attribute 30, 2
  11              		.eabi_attribute 34, 1
  12              		.eabi_attribute 18, 4
  13              		.file	"main.c"
  14              		.text
  15              	.Ltext0:
  16              		.cfi_sections	.debug_frame
  17              		.section	.text.flash_integrity_check_thread,"ax",%progbits
  18              		.align	1
  19              		.p2align 4,,15
  20              		.syntax unified
  21              		.thumb
  22              		.thumb_func
  23              		.fpu fpv4-sp-d16
  24              		.type	flash_integrity_check_thread, %function
  25              	flash_integrity_check_thread:
  26              	.LFB259:
  27              		.file 1 "main.c"
  28              		.loc 1 81 0
  29              		.cfi_startproc
  30              		@ Volatile: function does not return.
  31              		@ args = 0, pretend = 0, frame = 0
  32              		@ frame_needed = 0, uses_anonymous_args = 0
  33              	.LVL0:
  34 0000 08B5     		push	{r3, lr}
  35              		.cfi_def_cfa_offset 8
  36              		.cfi_offset 3, -8
  37              		.cfi_offset 14, -4
  38              	.LBB32:
  39              	.LBB33:
  40              		.file 2 "ChibiOS_3.0.2/os/rt/include/chregistry.h"
  41              		.loc 2 135 0
  42 0002 0F4B     		ldr	r3, .L7
  43 0004 0F4A     		ldr	r2, .L7+4
  44 0006 9B69     		ldr	r3, [r3, #24]
  45              	.LBE33:
  46              	.LBE32:
  47              		.loc 1 85 0
  48 0008 0121     		movs	r1, #1
  49              	.LBB35:
  50              	.LBB34:
  51              		.loc 2 135 0
  52 000a 9A61     		str	r2, [r3, #24]
  53              	.LVL1:
  54              	.LBE34:
  55              	.LBE35:
  56              		.loc 1 85 0
  57 000c 4FF48050 		mov	r0, #4096
ARM GAS  /tmp/ccDQ7jkU.s 			page 2


  58              	.LVL2:
  59 0010 FFF7FEFF 		bl	RCC_AHB1PeriphClockCmd
  60              	.LVL3:
  61 0014 01E0     		b	.L4
  62              	.L2:
  63              		.loc 1 92 0
  64 0016 FFF7FEFF 		bl	chThdSleep
  65              	.LVL4:
  66              	.L4:
  67              		.loc 1 88 0
  68 001a FFF7FEFF 		bl	flash_helper_verify_flash_memory_chunk
  69              	.LVL5:
  70 001e 0E28     		cmp	r0, #14
  71              		.loc 1 92 0
  72 0020 4FF03C00 		mov	r0, #60
  73              		.loc 1 88 0
  74 0024 F7D1     		bne	.L2
  75              	.LBB36:
  76              	.LBB37:
  77              	.LBB38:
  78              	.LBB39:
  79              		.file 3 "ChibiOS_3.0.2/os/ext/CMSIS/include/core_cmInstr.h"
  80              		.loc 3 382 0
  81              		.syntax unified
  82              	@ 382 "ChibiOS_3.0.2/os/ext/CMSIS/include/core_cmInstr.h" 1
  83 0026 BFF34F8F 		dsb
  84              	@ 0 "" 2
  85              		.thumb
  86              		.syntax unified
  87              	.LBE39:
  88              	.LBE38:
  89              		.file 4 "ChibiOS_3.0.2/os/ext/CMSIS/include/core_cm4.h"
  90              		.loc 4 1643 0
  91 002a 0749     		ldr	r1, .L7+8
  92 002c 074B     		ldr	r3, .L7+12
  93 002e CA68     		ldr	r2, [r1, #12]
  94 0030 02F4E062 		and	r2, r2, #1792
  95 0034 1343     		orrs	r3, r3, r2
  96              		.loc 4 1642 0
  97 0036 CB60     		str	r3, [r1, #12]
  98              	.LBB40:
  99              	.LBB41:
 100              		.loc 3 382 0
 101              		.syntax unified
 102              	@ 382 "ChibiOS_3.0.2/os/ext/CMSIS/include/core_cmInstr.h" 1
 103 0038 BFF34F8F 		dsb
 104              	@ 0 "" 2
 105              		.thumb
 106              		.syntax unified
 107              	.L3:
 108 003c FEE7     		b	.L3
 109              	.L8:
 110 003e 00BF     		.align	2
 111              	.L7:
 112 0040 00000000 		.word	ch
 113 0044 00000000 		.word	.LC0
 114 0048 00ED00E0 		.word	-536810240
ARM GAS  /tmp/ccDQ7jkU.s 			page 3


 115 004c 0400FA05 		.word	100270084
 116              	.LBE41:
 117              	.LBE40:
 118              	.LBE37:
 119              	.LBE36:
 120              		.cfi_endproc
 121              	.LFE259:
 122              		.size	flash_integrity_check_thread, .-flash_integrity_check_thread
 123              		.section	.text.timer_thread,"ax",%progbits
 124              		.align	1
 125              		.p2align 4,,15
 126              		.syntax unified
 127              		.thumb
 128              		.thumb_func
 129              		.fpu fpv4-sp-d16
 130              		.type	timer_thread, %function
 131              	timer_thread:
 132              	.LFB261:
 133              		.loc 1 164 0
 134              		.cfi_startproc
 135              		@ Volatile: function does not return.
 136              		@ args = 0, pretend = 0, frame = 0
 137              		@ frame_needed = 0, uses_anonymous_args = 0
 138              	.LVL6:
 139 0000 08B5     		push	{r3, lr}
 140              		.cfi_def_cfa_offset 8
 141              		.cfi_offset 3, -8
 142              		.cfi_offset 14, -4
 143              	.LBB42:
 144              	.LBB43:
 145              		.loc 2 135 0
 146 0002 064B     		ldr	r3, .L12
 147 0004 064A     		ldr	r2, .L12+4
 148 0006 9B69     		ldr	r3, [r3, #24]
 149 0008 9A61     		str	r2, [r3, #24]
 150              	.LVL7:
 151              	.L10:
 152              	.LBE43:
 153              	.LBE42:
 154              		.loc 1 170 0 discriminator 1
 155 000a FFF7FEFF 		bl	packet_timerfunc
 156              	.LVL8:
 157              		.loc 1 171 0 discriminator 1
 158 000e 0220     		movs	r0, #2
 159 0010 FFF7FEFF 		bl	timeout_feed_WDT
 160              	.LVL9:
 161              		.loc 1 172 0 discriminator 1
 162 0014 0A20     		movs	r0, #10
 163 0016 FFF7FEFF 		bl	chThdSleep
 164              	.LVL10:
 165 001a F6E7     		b	.L10
 166              	.L13:
 167              		.align	2
 168              	.L12:
 169 001c 00000000 		.word	ch
 170 0020 00000000 		.word	.LC1
 171              		.cfi_endproc
ARM GAS  /tmp/ccDQ7jkU.s 			page 4


 172              	.LFE261:
 173              		.size	timer_thread, .-timer_thread
 174              		.section	.text.periodic_thread,"ax",%progbits
 175              		.align	1
 176              		.p2align 4,,15
 177              		.syntax unified
 178              		.thumb
 179              		.thumb_func
 180              		.fpu fpv4-sp-d16
 181              		.type	periodic_thread, %function
 182              	periodic_thread:
 183              	.LFB260:
 184              		.loc 1 96 0
 185              		.cfi_startproc
 186              		@ args = 0, pretend = 0, frame = 0
 187              		@ frame_needed = 0, uses_anonymous_args = 0
 188              	.LVL11:
 189 0000 38B5     		push	{r3, r4, r5, lr}
 190              		.cfi_def_cfa_offset 16
 191              		.cfi_offset 3, -16
 192              		.cfi_offset 4, -12
 193              		.cfi_offset 5, -8
 194              		.cfi_offset 14, -4
 195              	.LBB44:
 196              	.LBB45:
 197              		.loc 2 135 0
 198 0002 474B     		ldr	r3, .L38
 199 0004 474A     		ldr	r2, .L38+4
 200 0006 9B69     		ldr	r3, [r3, #24]
 201              	.LBE45:
 202              	.LBE44:
 203              		.loc 1 96 0
 204 0008 2DED048B 		vpush.64	{d8, d9}
 205              		.cfi_def_cfa_offset 32
 206              		.cfi_offset 80, -32
 207              		.cfi_offset 81, -28
 208              		.cfi_offset 82, -24
 209              		.cfi_offset 83, -20
 210              	.LBB47:
 211              		.loc 1 105 0
 212 000c DFED468A 		vldr.32	s17, .L38+8
 213              	.LBB48:
 214              		.loc 1 113 0
 215 0010 9FED468A 		vldr.32	s16, .L38+12
 216              	.LBE48:
 217              	.LBE47:
 218              	.LBB50:
 219              	.LBB46:
 220              		.loc 2 135 0
 221 0014 9A61     		str	r2, [r3, #24]
 222 0016 2BE0     		b	.L28
 223              	.LVL12:
 224              	.L33:
 225              	.LBE46:
 226              	.LBE50:
 227              	.LBB51:
 228              		.loc 1 119 0
ARM GAS  /tmp/ccDQ7jkU.s 			page 5


 229 0018 B0EE480A 		vmov.f32	s0, s16
 230 001c 0120     		movs	r0, #1
 231              	.LVL13:
 232 001e FFF7FEFF 		bl	ledpwm_set_intensity
 233              	.LVL14:
 234              		.loc 1 122 0
 235 0022 FFF7FEFF 		bl	mc_interface_get_state
 236              	.LVL15:
 237 0026 0128     		cmp	r0, #1
 238 0028 50D0     		beq	.L35
 239              	.L19:
 240              		.loc 1 126 0
 241 002a FFF7FEFF 		bl	commands_get_disp_pos_mode
 242              	.LVL16:
 243              		.loc 1 128 0
 244 002e 0428     		cmp	r0, #4
 245              		.loc 1 126 0
 246 0030 0446     		mov	r4, r0
 247              	.LVL17:
 248              		.loc 1 128 0
 249 0032 54D0     		beq	.L21
 250              	.L37:
 251 0034 0528     		cmp	r0, #5
 252 0036 5FD0     		beq	.L22
 253 0038 0328     		cmp	r0, #3
 254 003a 55D0     		beq	.L36
 255              		.loc 1 145 0
 256 003c FFF7FEFF 		bl	mc_interface_get_configuration
 257              	.LVL18:
 258 0040 8378     		ldrb	r3, [r0, #2]	@ zero_extendqisi2
 259 0042 022B     		cmp	r3, #2
 260 0044 11D1     		bne	.L25
 261              		.loc 1 146 0
 262 0046 022C     		cmp	r4, #2
 263 0048 65D0     		beq	.L26
 264 004a 062C     		cmp	r4, #6
 265 004c 0DD1     		bne	.L25
 266              		.loc 1 152 0
 267 004e FFF7FEFF 		bl	mcpwm_foc_get_phase_observer
 268              	.LVL19:
 269 0052 B0EE409A 		vmov.f32	s18, s0
 270 0056 FFF7FEFF 		bl	mcpwm_foc_get_phase_encoder
 271              	.LVL20:
 272 005a F0EE400A 		vmov.f32	s1, s0
 273 005e B0EE490A 		vmov.f32	s0, s18
 274 0062 FFF7FEFF 		bl	utils_angle_difference
 275              	.LVL21:
 276 0066 FFF7FEFF 		bl	commands_send_rotor_pos
 277              	.LVL22:
 278              	.L25:
 279              		.loc 1 160 0
 280 006a 6420     		movs	r0, #100
 281 006c FFF7FEFF 		bl	chThdSleep
 282              	.LVL23:
 283              	.L28:
 284              		.loc 1 102 0
 285 0070 FFF7FEFF 		bl	mc_interface_get_state
ARM GAS  /tmp/ccDQ7jkU.s 			page 6


 286              	.LVL24:
 287 0074 0228     		cmp	r0, #2
 288              		.loc 1 103 0
 289 0076 0CBF     		ite	eq
 290 0078 B7EE000A 		vmoveq.f32	s0, #1.0e+0
 291              		.loc 1 105 0
 292 007c B0EE680A 		vmovne.f32	s0, s17
 293 0080 0020     		movs	r0, #0
 294 0082 FFF7FEFF 		bl	ledpwm_set_intensity
 295              	.LVL25:
 296              		.loc 1 108 0
 297 0086 FFF7FEFF 		bl	mc_interface_get_fault
 298              	.LVL26:
 299              		.loc 1 109 0
 300 008a 0546     		mov	r5, r0
 301 008c 0028     		cmp	r0, #0
 302 008e C3D0     		beq	.L33
 303              	.LVL27:
 304              	.LBB49:
 305              		.loc 1 110 0
 306 0090 0024     		movs	r4, #0
 307              	.LVL28:
 308              	.L17:
 309              		.loc 1 111 0 discriminator 3
 310 0092 B7EE000A 		vmov.f32	s0, #1.0e+0
 311 0096 0120     		movs	r0, #1
 312 0098 FFF7FEFF 		bl	ledpwm_set_intensity
 313              	.LVL29:
 314              		.loc 1 112 0 discriminator 3
 315 009c 40F6C410 		movw	r0, #2500
 316 00a0 FFF7FEFF 		bl	chThdSleep
 317              	.LVL30:
 318              		.loc 1 113 0 discriminator 3
 319 00a4 0120     		movs	r0, #1
 320 00a6 B0EE480A 		vmov.f32	s0, s16
 321              		.loc 1 110 0 discriminator 3
 322 00aa 0444     		add	r4, r4, r0
 323              	.LVL31:
 324              		.loc 1 113 0 discriminator 3
 325 00ac FFF7FEFF 		bl	ledpwm_set_intensity
 326              	.LVL32:
 327              		.loc 1 114 0 discriminator 3
 328 00b0 40F6C410 		movw	r0, #2500
 329 00b4 FFF7FEFF 		bl	chThdSleep
 330              	.LVL33:
 331              		.loc 1 110 0 discriminator 3
 332 00b8 AC42     		cmp	r4, r5
 333 00ba EAD1     		bne	.L17
 334              	.LBE49:
 335              		.loc 1 117 0
 336 00bc 41F28830 		movw	r0, #5000
 337 00c0 FFF7FEFF 		bl	chThdSleep
 338              	.LVL34:
 339              		.loc 1 122 0
 340 00c4 FFF7FEFF 		bl	mc_interface_get_state
 341              	.LVL35:
 342 00c8 0128     		cmp	r0, #1
ARM GAS  /tmp/ccDQ7jkU.s 			page 7


 343 00ca AED1     		bne	.L19
 344              	.LVL36:
 345              	.L35:
 346              		.loc 1 123 0
 347 00cc FFF7FEFF 		bl	mcpwm_get_detect_pos
 348              	.LVL37:
 349 00d0 FFF7FEFF 		bl	commands_send_rotor_pos
 350              	.LVL38:
 351              		.loc 1 126 0
 352 00d4 FFF7FEFF 		bl	commands_get_disp_pos_mode
 353              	.LVL39:
 354              		.loc 1 128 0
 355 00d8 0428     		cmp	r0, #4
 356              		.loc 1 126 0
 357 00da 0446     		mov	r4, r0
 358              	.LVL40:
 359              		.loc 1 128 0
 360 00dc AAD1     		bne	.L37
 361              	.L21:
 362              		.loc 1 134 0
 363 00de FFF7FEFF 		bl	mc_interface_get_pid_pos_now
 364              	.LVL41:
 365 00e2 FFF7FEFF 		bl	commands_send_rotor_pos
 366              	.LVL42:
 367              		.loc 1 135 0
 368 00e6 03E0     		b	.L24
 369              	.LVL43:
 370              	.L36:
 371              		.loc 1 130 0
 372 00e8 FFF7FEFF 		bl	encoder_read_deg
 373              	.LVL44:
 374 00ec FFF7FEFF 		bl	commands_send_rotor_pos
 375              	.LVL45:
 376              	.L24:
 377              		.loc 1 145 0
 378 00f0 FFF7FEFF 		bl	mc_interface_get_configuration
 379              	.LVL46:
 380 00f4 8378     		ldrb	r3, [r0, #2]	@ zero_extendqisi2
 381 00f6 B8E7     		b	.L25
 382              	.LVL47:
 383              	.L22:
 384              		.loc 1 138 0
 385 00f8 FFF7FEFF 		bl	mc_interface_get_pid_pos_set
 386              	.LVL48:
 387 00fc B0EE409A 		vmov.f32	s18, s0
 388 0100 FFF7FEFF 		bl	mc_interface_get_pid_pos_now
 389              	.LVL49:
 390 0104 F0EE400A 		vmov.f32	s1, s0
 391 0108 B0EE490A 		vmov.f32	s0, s18
 392 010c FFF7FEFF 		bl	utils_angle_difference
 393              	.LVL50:
 394 0110 FFF7FEFF 		bl	commands_send_rotor_pos
 395              	.LVL51:
 396              		.loc 1 139 0
 397 0114 ECE7     		b	.L24
 398              	.L26:
 399              		.loc 1 148 0
ARM GAS  /tmp/ccDQ7jkU.s 			page 8


 400 0116 FFF7FEFF 		bl	mcpwm_foc_get_phase_observer
 401              	.LVL52:
 402 011a FFF7FEFF 		bl	commands_send_rotor_pos
 403              	.LVL53:
 404              		.loc 1 149 0
 405 011e A4E7     		b	.L25
 406              	.L39:
 407              		.align	2
 408              	.L38:
 409 0120 00000000 		.word	ch
 410 0124 00000000 		.word	.LC2
 411 0128 CDCC4C3E 		.word	1045220557
 412 012c 00000000 		.word	0
 413              	.LBE51:
 414              		.cfi_endproc
 415              	.LFE260:
 416              		.size	periodic_thread, .-periodic_thread
 417              		.section	.text.assert_failed,"ax",%progbits
 418              		.align	1
 419              		.p2align 4,,15
 420              		.global	assert_failed
 421              		.syntax unified
 422              		.thumb
 423              		.thumb_func
 424              		.fpu fpv4-sp-d16
 425              		.type	assert_failed, %function
 426              	assert_failed:
 427              	.LFB262:
 428              		.loc 1 177 0
 429              		.cfi_startproc
 430              		@ Volatile: function does not return.
 431              		@ args = 0, pretend = 0, frame = 0
 432              		@ frame_needed = 0, uses_anonymous_args = 0
 433              	.LVL54:
 434              		.loc 1 178 0
 435 0000 0A46     		mov	r2, r1
 436              		.loc 1 177 0
 437 0002 08B5     		push	{r3, lr}
 438              		.cfi_def_cfa_offset 8
 439              		.cfi_offset 3, -8
 440              		.cfi_offset 14, -4
 441              		.loc 1 178 0
 442 0004 0146     		mov	r1, r0
 443              	.LVL55:
 444 0006 0448     		ldr	r0, .L43
 445              	.LVL56:
 446 0008 FFF7FEFF 		bl	commands_printf
 447              	.LVL57:
 448              		.loc 1 179 0
 449 000c FFF7FEFF 		bl	mc_interface_release_motor
 450              	.LVL58:
 451              	.L41:
 452              		.loc 1 181 0 discriminator 1
 453 0010 0A20     		movs	r0, #10
 454 0012 FFF7FEFF 		bl	chThdSleep
 455              	.LVL59:
 456 0016 FBE7     		b	.L41
ARM GAS  /tmp/ccDQ7jkU.s 			page 9


 457              	.L44:
 458              		.align	2
 459              	.L43:
 460 0018 00000000 		.word	.LC3
 461              		.cfi_endproc
 462              	.LFE262:
 463              		.size	assert_failed, .-assert_failed
 464              		.section	.text.SPI_Config,"ax",%progbits
 465              		.align	1
 466              		.p2align 4,,15
 467              		.global	SPI_Config
 468              		.syntax unified
 469              		.thumb
 470              		.thumb_func
 471              		.fpu fpv4-sp-d16
 472              		.type	SPI_Config, %function
 473              	SPI_Config:
 474              	.LFB263:
 475              		.loc 1 188 0
 476              		.cfi_startproc
 477              		@ args = 0, pretend = 0, frame = 0
 478              		@ frame_needed = 0, uses_anonymous_args = 0
 479              		@ link register save eliminated.
 480              		.loc 1 189 0
 481 0000 1249     		ldr	r1, .L46
 482              		.loc 1 191 0
 483 0002 134B     		ldr	r3, .L46+4
 484              		.loc 1 189 0
 485 0004 4A6C     		ldr	r2, [r1, #68]
 486 0006 42F48052 		orr	r2, r2, #4096
 487 000a 4A64     		str	r2, [r1, #68]
 488              		.loc 1 191 0
 489 000c 1A68     		ldr	r2, [r3]
 490 000e 42F00302 		orr	r2, r2, #3
 491 0012 1A60     		str	r2, [r3]
 492              		.loc 1 193 0
 493 0014 1A68     		ldr	r2, [r3]
 494 0016 42F00402 		orr	r2, r2, #4
 495 001a 1A60     		str	r2, [r3]
 496              		.loc 1 195 0
 497 001c 1A68     		ldr	r2, [r3]
 498 001e 42F03802 		orr	r2, r2, #56
 499 0022 1A60     		str	r2, [r3]
 500              		.loc 1 197 0
 501 0024 1A68     		ldr	r2, [r3]
 502 0026 22F08002 		bic	r2, r2, #128
 503 002a 1A60     		str	r2, [r3]
 504              		.loc 1 199 0
 505 002c 1A68     		ldr	r2, [r3]
 506 002e 42F44072 		orr	r2, r2, #768
 507 0032 1A60     		str	r2, [r3]
 508              		.loc 1 201 0
 509 0034 1A68     		ldr	r2, [r3]
 510 0036 22F48062 		bic	r2, r2, #1024
 511 003a 1A60     		str	r2, [r3]
 512              		.loc 1 203 0
 513 003c 1A68     		ldr	r2, [r3]
ARM GAS  /tmp/ccDQ7jkU.s 			page 10


 514              		.loc 1 205 0
 515 003e 0021     		movs	r1, #0
 516              		.loc 1 203 0
 517 0040 22F40062 		bic	r2, r2, #2048
 518 0044 1A60     		str	r2, [r3]
 519              		.loc 1 205 0
 520 0046 5960     		str	r1, [r3, #4]
 521              		.loc 1 206 0
 522 0048 7047     		bx	lr
 523              	.L47:
 524 004a 00BF     		.align	2
 525              	.L46:
 526 004c 00380240 		.word	1073887232
 527 0050 00300140 		.word	1073819648
 528              		.cfi_endproc
 529              	.LFE263:
 530              		.size	SPI_Config, .-SPI_Config
 531              		.section	.text.GPIOConfig,"ax",%progbits
 532              		.align	1
 533              		.p2align 4,,15
 534              		.global	GPIOConfig
 535              		.syntax unified
 536              		.thumb
 537              		.thumb_func
 538              		.fpu fpv4-sp-d16
 539              		.type	GPIOConfig, %function
 540              	GPIOConfig:
 541              	.LFB264:
 542              		.loc 1 211 0
 543              		.cfi_startproc
 544              		@ args = 0, pretend = 0, frame = 0
 545              		@ frame_needed = 0, uses_anonymous_args = 0
 546              		@ link register save eliminated.
 547              		.loc 1 212 0
 548 0000 0A49     		ldr	r1, .L49
 549              		.loc 1 214 0
 550 0002 0B4B     		ldr	r3, .L49+4
 551              		.loc 1 212 0
 552 0004 0A6B     		ldr	r2, [r1, #48]
 553 0006 42F00102 		orr	r2, r2, #1
 554 000a 0A63     		str	r2, [r1, #48]
 555              		.loc 1 214 0
 556 000c 1A68     		ldr	r2, [r3]
 557 000e 42F42942 		orr	r2, r2, #43264
 558 0012 1A60     		str	r2, [r3]
 559              		.loc 1 216 0
 560 0014 9A68     		ldr	r2, [r3, #8]
 561 0016 42F47F42 		orr	r2, r2, #65280
 562 001a 9A60     		str	r2, [r3, #8]
 563              		.loc 1 218 0
 564 001c 1A6A     		ldr	r2, [r3, #32]
 565 001e 42F0AA42 		orr	r2, r2, #1426063360
 566 0022 42F4A002 		orr	r2, r2, #5242880
 567 0026 1A62     		str	r2, [r3, #32]
 568              		.loc 1 219 0
 569 0028 7047     		bx	lr
 570              	.L50:
ARM GAS  /tmp/ccDQ7jkU.s 			page 11


 571 002a 00BF     		.align	2
 572              	.L49:
 573 002c 00380240 		.word	1073887232
 574 0030 00000240 		.word	1073872896
 575              		.cfi_endproc
 576              	.LFE264:
 577              		.size	GPIOConfig, .-GPIOConfig
 578              		.section	.text.SPI_Enable,"ax",%progbits
 579              		.align	1
 580              		.p2align 4,,15
 581              		.global	SPI_Enable
 582              		.syntax unified
 583              		.thumb
 584              		.thumb_func
 585              		.fpu fpv4-sp-d16
 586              		.type	SPI_Enable, %function
 587              	SPI_Enable:
 588              	.LFB265:
 589              		.loc 1 222 0
 590              		.cfi_startproc
 591              		@ args = 0, pretend = 0, frame = 0
 592              		@ frame_needed = 0, uses_anonymous_args = 0
 593              		@ link register save eliminated.
 594              		.loc 1 223 0
 595 0000 024A     		ldr	r2, .L52
 596 0002 1368     		ldr	r3, [r2]
 597 0004 43F04003 		orr	r3, r3, #64
 598 0008 1360     		str	r3, [r2]
 599              		.loc 1 224 0
 600 000a 7047     		bx	lr
 601              	.L53:
 602              		.align	2
 603              	.L52:
 604 000c 00300140 		.word	1073819648
 605              		.cfi_endproc
 606              	.LFE265:
 607              		.size	SPI_Enable, .-SPI_Enable
 608              		.section	.text.SPI_Disable,"ax",%progbits
 609              		.align	1
 610              		.p2align 4,,15
 611              		.global	SPI_Disable
 612              		.syntax unified
 613              		.thumb
 614              		.thumb_func
 615              		.fpu fpv4-sp-d16
 616              		.type	SPI_Disable, %function
 617              	SPI_Disable:
 618              	.LFB266:
 619              		.loc 1 227 0
 620              		.cfi_startproc
 621              		@ args = 0, pretend = 0, frame = 0
 622              		@ frame_needed = 0, uses_anonymous_args = 0
 623              		@ link register save eliminated.
 624              		.loc 1 228 0
 625 0000 024A     		ldr	r2, .L55
 626 0002 1368     		ldr	r3, [r2]
 627 0004 23F04003 		bic	r3, r3, #64
ARM GAS  /tmp/ccDQ7jkU.s 			page 12


 628 0008 1360     		str	r3, [r2]
 629              		.loc 1 229 0
 630 000a 7047     		bx	lr
 631              	.L56:
 632              		.align	2
 633              	.L55:
 634 000c 00300140 		.word	1073819648
 635              		.cfi_endproc
 636              	.LFE266:
 637              		.size	SPI_Disable, .-SPI_Disable
 638              		.section	.text.CS_Enable,"ax",%progbits
 639              		.align	1
 640              		.p2align 4,,15
 641              		.global	CS_Enable
 642              		.syntax unified
 643              		.thumb
 644              		.thumb_func
 645              		.fpu fpv4-sp-d16
 646              		.type	CS_Enable, %function
 647              	CS_Enable:
 648              	.LFB267:
 649              		.loc 1 232 0
 650              		.cfi_startproc
 651              		@ args = 0, pretend = 0, frame = 0
 652              		@ frame_needed = 0, uses_anonymous_args = 0
 653              		@ link register save eliminated.
 654              		.loc 1 234 0
 655 0000 014B     		ldr	r3, .L58
 656 0002 1022     		movs	r2, #16
 657 0004 5A83     		strh	r2, [r3, #26]	@ movhi
 658              		.loc 1 235 0
 659 0006 7047     		bx	lr
 660              	.L59:
 661              		.align	2
 662              	.L58:
 663 0008 00000240 		.word	1073872896
 664              		.cfi_endproc
 665              	.LFE267:
 666              		.size	CS_Enable, .-CS_Enable
 667              		.section	.text.CS_Disable,"ax",%progbits
 668              		.align	1
 669              		.p2align 4,,15
 670              		.global	CS_Disable
 671              		.syntax unified
 672              		.thumb
 673              		.thumb_func
 674              		.fpu fpv4-sp-d16
 675              		.type	CS_Disable, %function
 676              	CS_Disable:
 677              	.LFB268:
 678              		.loc 1 238 0
 679              		.cfi_startproc
 680              		@ args = 0, pretend = 0, frame = 0
 681              		@ frame_needed = 0, uses_anonymous_args = 0
 682              		@ link register save eliminated.
 683              		.loc 1 239 0
 684 0000 014B     		ldr	r3, .L61
ARM GAS  /tmp/ccDQ7jkU.s 			page 13


 685 0002 1022     		movs	r2, #16
 686 0004 1A83     		strh	r2, [r3, #24]	@ movhi
 687              		.loc 1 240 0
 688 0006 7047     		bx	lr
 689              	.L62:
 690              		.align	2
 691              	.L61:
 692 0008 00000240 		.word	1073872896
 693              		.cfi_endproc
 694              	.LFE268:
 695              		.size	CS_Disable, .-CS_Disable
 696              		.section	.text.SPI_Transmit,"ax",%progbits
 697              		.align	1
 698              		.p2align 4,,15
 699              		.global	SPI_Transmit
 700              		.syntax unified
 701              		.thumb
 702              		.thumb_func
 703              		.fpu fpv4-sp-d16
 704              		.type	SPI_Transmit, %function
 705              	SPI_Transmit:
 706              	.LFB269:
 707              		.loc 1 243 0
 708              		.cfi_startproc
 709              		@ args = 0, pretend = 0, frame = 0
 710              		@ frame_needed = 0, uses_anonymous_args = 0
 711              		@ link register save eliminated.
 712              	.LVL60:
 713              		.loc 1 253 0
 714 0000 0029     		cmp	r1, #0
 715 0002 0ADD     		ble	.L64
 716 0004 0138     		subs	r0, r0, #1
 717              	.LVL61:
 718              		.loc 1 255 0
 719 0006 0A4A     		ldr	r2, .L75
 720 0008 0144     		add	r1, r1, r0
 721              	.LVL62:
 722              	.L65:
 723              		.loc 1 255 0 is_stmt 0 discriminator 1
 724 000a 9368     		ldr	r3, [r2, #8]
 725 000c 9B07     		lsls	r3, r3, #30
 726 000e FCD5     		bpl	.L65
 727              		.loc 1 256 0 is_stmt 1
 728 0010 10F8013F 		ldrb	r3, [r0, #1]!	@ zero_extendqisi2
 729 0014 D360     		str	r3, [r2, #12]
 730              	.LVL63:
 731              		.loc 1 253 0
 732 0016 8842     		cmp	r0, r1
 733 0018 F7D1     		bne	.L65
 734              	.LVL64:
 735              	.L64:
 736              		.loc 1 266 0
 737 001a 054A     		ldr	r2, .L75
 738              	.L67:
 739              		.loc 1 266 0 is_stmt 0 discriminator 1
 740 001c 9368     		ldr	r3, [r2, #8]
 741 001e 9907     		lsls	r1, r3, #30
ARM GAS  /tmp/ccDQ7jkU.s 			page 14


 742 0020 FCD5     		bpl	.L67
 743              		.loc 1 267 0 is_stmt 1
 744 0022 034A     		ldr	r2, .L75
 745              	.L68:
 746              		.loc 1 267 0 is_stmt 0 discriminator 1
 747 0024 9368     		ldr	r3, [r2, #8]
 748 0026 1B06     		lsls	r3, r3, #24
 749 0028 FCD4     		bmi	.L68
 750              		.loc 1 270 0 is_stmt 1
 751 002a D368     		ldr	r3, [r2, #12]
 752              		.loc 1 271 0
 753 002c 9368     		ldr	r3, [r2, #8]
 754              		.loc 1 272 0
 755 002e 7047     		bx	lr
 756              	.L76:
 757              		.align	2
 758              	.L75:
 759 0030 00300140 		.word	1073819648
 760              		.cfi_endproc
 761              	.LFE269:
 762              		.size	SPI_Transmit, .-SPI_Transmit
 763              		.section	.text.arraybau,"ax",%progbits
 764              		.align	1
 765              		.p2align 4,,15
 766              		.global	arraybau
 767              		.syntax unified
 768              		.thumb
 769              		.thumb_func
 770              		.fpu fpv4-sp-d16
 771              		.type	arraybau, %function
 772              	arraybau:
 773              	.LFB270:
 774              		.loc 1 276 0
 775              		.cfi_startproc
 776              		@ args = 0, pretend = 0, frame = 0
 777              		@ frame_needed = 0, uses_anonymous_args = 0
 778              		@ link register save eliminated.
 779              	.LVL65:
 780              		.loc 1 283 0
 781 0000 024B     		ldr	r3, .L78
 782              		.loc 1 286 0
 783 0002 0349     		ldr	r1, .L78+4
 784 0004 034A     		ldr	r2, .L78+8
 785 0006 C3E90012 		strd	r1, r2, [r3]
 786              		.loc 1 295 0
 787 000a 7047     		bx	lr
 788              	.L79:
 789              		.align	2
 790              	.L78:
 791 000c 00000000 		.word	.LANCHOR0
 792 0010 00001388 		.word	-2012020736
 793 0014 00001ED4 		.word	-736231424
 794              		.cfi_endproc
 795              	.LFE270:
 796              		.size	arraybau, .-arraybau
 797              		.section	.text.senddata,"ax",%progbits
 798              		.align	1
ARM GAS  /tmp/ccDQ7jkU.s 			page 15


 799              		.p2align 4,,15
 800              		.global	senddata
 801              		.syntax unified
 802              		.thumb
 803              		.thumb_func
 804              		.fpu fpv4-sp-d16
 805              		.type	senddata, %function
 806              	senddata:
 807              	.LFB271:
 808              		.loc 1 298 0
 809              		.cfi_startproc
 810              		@ args = 0, pretend = 0, frame = 0
 811              		@ frame_needed = 0, uses_anonymous_args = 0
 812              	.LVL66:
 813 0000 38B5     		push	{r3, r4, r5, lr}
 814              		.cfi_def_cfa_offset 16
 815              		.cfi_offset 3, -16
 816              		.cfi_offset 4, -12
 817              		.cfi_offset 5, -8
 818              		.cfi_offset 14, -4
 819              	.LBB52:
 820              	.LBB53:
 821              		.loc 1 283 0
 822 0002 094B     		ldr	r3, .L82
 823              	.LBE53:
 824              	.LBE52:
 825              	.LBB57:
 826              	.LBB58:
 827              		.loc 1 234 0
 828 0004 094C     		ldr	r4, .L82+4
 829              	.LBE58:
 830              	.LBE57:
 831              	.LBB61:
 832              	.LBB54:
 833              		.loc 1 283 0
 834 0006 0A4A     		ldr	r2, .L82+8
 835 0008 1A60     		str	r2, [r3]
 836              	.LBE54:
 837              	.LBE61:
 838              	.LBB62:
 839              	.LBB59:
 840              		.loc 1 234 0
 841 000a 1025     		movs	r5, #16
 842              	.LBE59:
 843              	.LBE62:
 844              	.LBB63:
 845              	.LBB55:
 846              		.loc 1 286 0
 847 000c 094A     		ldr	r2, .L82+12
 848              	.LBE55:
 849              	.LBE63:
 850              	.LBB64:
 851              	.LBB60:
 852              		.loc 1 234 0
 853 000e 6583     		strh	r5, [r4, #26]	@ movhi
 854              	.LBE60:
 855              	.LBE64:
ARM GAS  /tmp/ccDQ7jkU.s 			page 16


 856              		.loc 1 301 0
 857 0010 1846     		mov	r0, r3
 858              	.LBB65:
 859              	.LBB56:
 860              		.loc 1 286 0
 861 0012 5A60     		str	r2, [r3, #4]
 862              	.LBE56:
 863              	.LBE65:
 864              		.loc 1 301 0
 865 0014 0821     		movs	r1, #8
 866 0016 FFF7FEFF 		bl	SPI_Transmit
 867              	.LVL67:
 868              	.LBB66:
 869              	.LBB67:
 870              		.loc 1 239 0
 871 001a 2583     		strh	r5, [r4, #24]	@ movhi
 872              	.LBE67:
 873              	.LBE66:
 874              		.loc 1 303 0
 875 001c 0A20     		movs	r0, #10
 876              		.loc 1 304 0
 877 001e BDE83840 		pop	{r3, r4, r5, lr}
 878              		.cfi_restore 14
 879              		.cfi_restore 5
 880              		.cfi_restore 4
 881              		.cfi_restore 3
 882              		.cfi_def_cfa_offset 0
 883              		.loc 1 303 0
 884 0022 FFF7FEBF 		b	chThdSleep
 885              	.LVL68:
 886              	.L83:
 887 0026 00BF     		.align	2
 888              	.L82:
 889 0028 00000000 		.word	.LANCHOR0
 890 002c 00000240 		.word	1073872896
 891 0030 00001388 		.word	-2012020736
 892 0034 00001ED4 		.word	-736231424
 893              		.cfi_endproc
 894              	.LFE271:
 895              		.size	senddata, .-senddata
 896              		.section	.text.startup.main,"ax",%progbits
 897              		.align	1
 898              		.p2align 4,,15
 899              		.global	main
 900              		.syntax unified
 901              		.thumb
 902              		.thumb_func
 903              		.fpu fpv4-sp-d16
 904              		.type	main, %function
 905              	main:
 906              	.LFB272:
 907              		.loc 1 306 0
 908              		.cfi_startproc
 909              		@ Volatile: function does not return.
 910              		@ args = 0, pretend = 0, frame = 840
 911              		@ frame_needed = 0, uses_anonymous_args = 0
 912 0000 00B5     		push	{lr}
ARM GAS  /tmp/ccDQ7jkU.s 			page 17


 913              		.cfi_def_cfa_offset 4
 914              		.cfi_offset 14, -4
 915 0002 ADF5557D 		sub	sp, sp, #852
 916              		.cfi_def_cfa_offset 856
 917              		.loc 1 307 0
 918 0006 FFF7FEFF 		bl	halInit
 919              	.LVL69:
 920              		.loc 1 308 0
 921 000a FFF7FEFF 		bl	chSysInit
 922              	.LVL70:
 923              	.LBB68:
 924              	.LBB69:
 925              		.loc 1 212 0
 926 000e 3F49     		ldr	r1, .L89
 927              		.loc 1 214 0
 928 0010 3F4B     		ldr	r3, .L89+4
 929              		.loc 1 212 0
 930 0012 0A6B     		ldr	r2, [r1, #48]
 931              	.LBE69:
 932              	.LBE68:
 933              		.loc 1 330 0
 934 0014 3F4D     		ldr	r5, .L89+8
 935              	.LBB71:
 936              	.LBB70:
 937              		.loc 1 212 0
 938 0016 42F00102 		orr	r2, r2, #1
 939 001a 0A63     		str	r2, [r1, #48]
 940              		.loc 1 214 0
 941 001c 1A68     		ldr	r2, [r3]
 942 001e 42F42942 		orr	r2, r2, #43264
 943 0022 1A60     		str	r2, [r3]
 944              		.loc 1 216 0
 945 0024 9A68     		ldr	r2, [r3, #8]
 946 0026 42F47F42 		orr	r2, r2, #65280
 947 002a 9A60     		str	r2, [r3, #8]
 948              		.loc 1 218 0
 949 002c 1A6A     		ldr	r2, [r3, #32]
 950 002e 42F0AA42 		orr	r2, r2, #1426063360
 951 0032 42F4A002 		orr	r2, r2, #5242880
 952 0036 1A62     		str	r2, [r3, #32]
 953              	.LBE70:
 954              	.LBE71:
 955              		.loc 1 310 0
 956 0038 FFF7FEFF 		bl	SPI_Config
 957              	.LVL71:
 958              	.LBB72:
 959              	.LBB73:
 960              		.loc 1 223 0
 961 003c 364A     		ldr	r2, .L89+12
 962 003e 1368     		ldr	r3, [r2]
 963 0040 43F04003 		orr	r3, r3, #64
 964 0044 1360     		str	r3, [r2]
 965              	.LBE73:
 966              	.LBE72:
 967              		.loc 1 327 0
 968 0046 4FF47A70 		mov	r0, #1000
 969 004a FFF7FEFF 		bl	chThdSleep
ARM GAS  /tmp/ccDQ7jkU.s 			page 18


 970              	.LVL72:
 971              		.loc 1 330 0
 972 004e 0224     		movs	r4, #2
 973              		.loc 1 329 0
 974 0050 FFF7FEFF 		bl	hw_init_gpio
 975              	.LVL73:
 976              		.loc 1 331 0
 977 0054 0123     		movs	r3, #1
 978              		.loc 1 330 0
 979 0056 6C83     		strh	r4, [r5, #26]	@ movhi
 980              		.loc 1 331 0
 981 0058 6B83     		strh	r3, [r5, #26]	@ movhi
 982              		.loc 1 333 0
 983 005a FFF7FEFF 		bl	timer_init
 984              	.LVL74:
 985              		.loc 1 334 0
 986 005e FFF7FEFF 		bl	conf_general_init
 987              	.LVL75:
 988              		.loc 1 336 0
 989 0062 FFF7FEFF 		bl	flash_helper_verify_flash_memory
 990              	.LVL76:
 991 0066 0E28     		cmp	r0, #14
 992 0068 44D0     		beq	.L86
 993              		.loc 1 346 0
 994 006a FFF7FEFF 		bl	ledpwm_init
 995              	.LVL77:
 996              		.loc 1 349 0
 997 006e 62A8     		add	r0, sp, #392
 998 0070 FFF7FEFF 		bl	conf_general_read_mc_configuration
 999              	.LVL78:
 1000              		.loc 1 351 0
 1001 0074 62A8     		add	r0, sp, #392
 1002 0076 FFF7FEFF 		bl	mc_interface_init
 1003              	.LVL79:
 1004              		.loc 1 354 0
 1005 007a 03A8     		add	r0, sp, #12
 1006 007c FFF7FEFF 		bl	conf_general_read_custom_configuration
 1007              	.LVL80:
 1008              		.loc 1 356 0
 1009 0080 FFF7FEFF 		bl	commands_init
 1010              	.LVL81:
 1011              		.loc 1 360 0
 1012 0084 FFF7FEFF 		bl	comm_usb_init
 1013              	.LVL82:
 1014              		.loc 1 364 0
 1015 0088 FFF7FEFF 		bl	comm_can_init
 1016              	.LVL83:
 1017              		.loc 1 368 0
 1018 008c 04A8     		add	r0, sp, #16
 1019 008e FFF7FEFF 		bl	conf_general_read_app_configuration
 1020              	.LVL84:
 1021              		.loc 1 369 0
 1022 0092 04A8     		add	r0, sp, #16
 1023 0094 FFF7FEFF 		bl	app_set_configuration
 1024              	.LVL85:
 1025              		.loc 1 408 0
 1026 0098 0025     		movs	r5, #0
ARM GAS  /tmp/ccDQ7jkU.s 			page 19


 1027              		.loc 1 375 0
 1028 009a 0398     		ldr	r0, [sp, #12]
 1029 009c FFF7FEFF 		bl	mc_interface_set_odo_value
 1030              	.LVL86:
 1031              		.loc 1 377 0
 1032 00a0 FFF7FEFF 		bl	app_uartcomm_start_permanent
 1033              	.LVL87:
 1034              		.loc 1 408 0
 1035 00a4 1D4B     		ldr	r3, .L89+16
 1036 00a6 0095     		str	r5, [sp]
 1037 00a8 4022     		movs	r2, #64
 1038 00aa 4FF4B361 		mov	r1, #1432
 1039 00ae 1C48     		ldr	r0, .L89+20
 1040 00b0 FFF7FEFF 		bl	chThdCreateStatic
 1041              	.LVL88:
 1042              		.loc 1 409 0
 1043 00b4 1B4B     		ldr	r3, .L89+24
 1044 00b6 0095     		str	r5, [sp]
 1045 00b8 4022     		movs	r2, #64
 1046 00ba 4FF40671 		mov	r1, #536
 1047 00be 1A48     		ldr	r0, .L89+28
 1048 00c0 FFF7FEFF 		bl	chThdCreateStatic
 1049              	.LVL89:
 1050              		.loc 1 410 0
 1051 00c4 2246     		mov	r2, r4
 1052 00c6 194B     		ldr	r3, .L89+32
 1053 00c8 0095     		str	r5, [sp]
 1054 00ca 4FF42671 		mov	r1, #664
 1055 00ce 1848     		ldr	r0, .L89+36
 1056 00d0 FFF7FEFF 		bl	chThdCreateStatic
 1057              	.LVL90:
 1058              		.loc 1 472 0
 1059 00d4 FFF7FEFF 		bl	timeout_init
 1060              	.LVL91:
 1061              		.loc 1 473 0
 1062 00d8 9DED060A 		vldr.32	s0, [sp, #24]
 1063 00dc 0598     		ldr	r0, [sp, #20]
 1064 00de FFF7FEFF 		bl	timeout_configure
 1065              	.LVL92:
 1066              		.loc 1 474 0
 1067 00e2 4FA8     		add	r0, sp, #316
 1068 00e4 FFF7FEFF 		bl	imu_init
 1069              	.LVL93:
 1070              		.loc 1 477 0
 1071 00e8 FFF7FEFF 		bl	bm_init
 1072              	.LVL94:
 1073              	.L87:
 1074              		.loc 1 485 0 discriminator 1
 1075 00ec 6420     		movs	r0, #100
 1076 00ee FFF7FEFF 		bl	chThdSleep
 1077              	.LVL95:
 1078 00f2 FBE7     		b	.L87
 1079              	.L86:
 1080              		.loc 1 339 0 discriminator 1
 1081 00f4 4FF47A70 		mov	r0, #1000
 1082 00f8 FFF7FEFF 		bl	chThdSleep
 1083              	.LVL96:
ARM GAS  /tmp/ccDQ7jkU.s 			page 20


 1084              		.loc 1 340 0 discriminator 1
 1085 00fc 2C83     		strh	r4, [r5, #24]	@ movhi
 1086              		.loc 1 341 0 discriminator 1
 1087 00fe 40F2EE20 		movw	r0, #750
 1088 0102 FFF7FEFF 		bl	chThdSleep
 1089              	.LVL97:
 1090              		.loc 1 342 0 discriminator 1
 1091 0106 6C83     		strh	r4, [r5, #26]	@ movhi
 1092 0108 F4E7     		b	.L86
 1093              	.L90:
 1094 010a 00BF     		.align	2
 1095              	.L89:
 1096 010c 00380240 		.word	1073887232
 1097 0110 00000240 		.word	1073872896
 1098 0114 00040240 		.word	1073873920
 1099 0118 00300140 		.word	1073819648
 1100 011c 00000000 		.word	periodic_thread
 1101 0120 00000000 		.word	.LANCHOR1
 1102 0124 00000000 		.word	timer_thread
 1103 0128 00000000 		.word	.LANCHOR2
 1104 012c 00000000 		.word	flash_integrity_check_thread
 1105 0130 00000000 		.word	.LANCHOR3
 1106              		.cfi_endproc
 1107              	.LFE272:
 1108              		.size	main, .-main
 1109              		.global	data
 1110              		.section	.bss.data,"aw",%nobits
 1111              		.align	2
 1112              		.set	.LANCHOR0,. + 0
 1113              		.type	data, %object
 1114              		.size	data, 8
 1115              	data:
 1116 0000 00000000 		.space	8
 1116      00000000 
 1117              		.section	.bss.flash_integrity_check_thread_wa,"aw",%nobits
 1118              		.align	3
 1119              		.set	.LANCHOR3,. + 0
 1120              		.type	flash_integrity_check_thread_wa, %object
 1121              		.size	flash_integrity_check_thread_wa, 664
 1122              	flash_integrity_check_thread_wa:
 1123 0000 00000000 		.space	664
 1123      00000000 
 1123      00000000 
 1123      00000000 
 1123      00000000 
 1124              		.section	.bss.periodic_thread_wa,"aw",%nobits
 1125              		.align	3
 1126              		.set	.LANCHOR1,. + 0
 1127              		.type	periodic_thread_wa, %object
 1128              		.size	periodic_thread_wa, 1432
 1129              	periodic_thread_wa:
 1130 0000 00000000 		.space	1432
 1130      00000000 
 1130      00000000 
 1130      00000000 
 1130      00000000 
 1131              		.section	.bss.timer_thread_wa,"aw",%nobits
ARM GAS  /tmp/ccDQ7jkU.s 			page 21


 1132              		.align	3
 1133              		.set	.LANCHOR2,. + 0
 1134              		.type	timer_thread_wa, %object
 1135              		.size	timer_thread_wa, 536
 1136              	timer_thread_wa:
 1137 0000 00000000 		.space	536
 1137      00000000 
 1137      00000000 
 1137      00000000 
 1137      00000000 
 1138              		.section	.rodata.assert_failed.str1.4,"aMS",%progbits,1
 1139              		.align	2
 1140              	.LC3:
 1141 0000 57726F6E 		.ascii	"Wrong parameters value: file %s on line %d\015\012\000"
 1141      67207061 
 1141      72616D65 
 1141      74657273 
 1141      2076616C 
 1142              		.section	.rodata.flash_integrity_check_thread.str1.4,"aMS",%progbits,1
 1143              		.align	2
 1144              	.LC0:
 1145 0000 466C6173 		.ascii	"Flash check\000"
 1145      68206368 
 1145      65636B00 
 1146              		.section	.rodata.periodic_thread.str1.4,"aMS",%progbits,1
 1147              		.align	2
 1148              	.LC2:
 1149 0000 4D61696E 		.ascii	"Main periodic\000"
 1149      20706572 
 1149      696F6469 
 1149      6300
 1150              		.section	.rodata.timer_thread.str1.4,"aMS",%progbits,1
 1151              		.align	2
 1152              	.LC1:
 1153 0000 6D736563 		.ascii	"msec_timer\000"
 1153      5F74696D 
 1153      657200
 1154              		.text
 1155              	.Letext0:
 1156              		.file 5 "/usr/lib/gcc/arm-none-eabi/7.3.1/include/stddef.h"
 1157              		.file 6 "/usr/arm-none-eabi/include/machine/_default_types.h"
 1158              		.file 7 "/usr/arm-none-eabi/include/sys/_stdint.h"
 1159              		.file 8 "ChibiOS_3.0.2/os/rt/ports/ARMCMx/compilers/GCC/chtypes.h"
 1160              		.file 9 "ChibiOS_3.0.2/os/rt/include/chsystypes.h"
 1161              		.file 10 "ChibiOS_3.0.2/os/rt/include/chschd.h"
 1162              		.file 11 "ChibiOS_3.0.2/os/ext/CMSIS/ST/system_stm32f4xx.h"
 1163              		.file 12 "ChibiOS_3.0.2/os/ext/CMSIS/ST/stm32f407xx.h"
 1164              		.file 13 "ChibiOS_3.0.2/os/rt/ports/ARMCMx/chcore.h"
 1165              		.file 14 "ChibiOS_3.0.2/os/rt/ports/ARMCMx/chcore_v7m.h"
 1166              		.file 15 "ChibiOS_3.0.2/os/rt/include/chtm.h"
 1167              		.file 16 "ChibiOS_3.0.2/os/rt/include/chsem.h"
 1168              		.file 17 "ChibiOS_3.0.2/os/rt/include/chmtx.h"
 1169              		.file 18 "ChibiOS_3.0.2/os/rt/include/chevents.h"
 1170              		.file 19 "ChibiOS_3.0.2/os/rt/include/chqueues.h"
 1171              		.file 20 "ChibiOS_3.0.2/os/ext/CMSIS/ST/stm32f4xx.h"
 1172              		.file 21 "./datatypes.h"
 1173              		.file 22 "./conf_general.h"
ARM GAS  /tmp/ccDQ7jkU.s 			page 22


 1174              		.file 23 "ChibiOS_3.0.2/os/hal/ports/STM32/STM32F4xx/stm32_dma.h"
 1175              		.file 24 "ChibiOS_3.0.2/os/hal/ports/STM32/LLD/GPIOv2/pal_lld.h"
 1176              		.file 25 "ChibiOS_3.0.2/os/hal/include/can.h"
 1177              		.file 26 "ChibiOS_3.0.2/os/hal/ports/STM32/LLD/can_lld.h"
 1178              		.file 27 "ChibiOS_3.0.2/os/hal/include/i2c.h"
 1179              		.file 28 "ChibiOS_3.0.2/os/hal/ports/STM32/LLD/I2Cv1/i2c_lld.h"
 1180              		.file 29 "ChibiOS_3.0.2/os/hal/include/icu.h"
 1181              		.file 30 "ChibiOS_3.0.2/os/hal/ports/STM32/LLD/TIMv1/icu_lld.h"
 1182              		.file 31 "ChibiOS_3.0.2/os/hal/ports/STM32/LLD/TIMv1/stm32_tim.h"
 1183              		.file 32 "ChibiOS_3.0.2/os/hal/include/serial.h"
 1184              		.file 33 "ChibiOS_3.0.2/os/hal/ports/STM32/LLD/USARTv1/serial_lld.h"
 1185              		.file 34 "ChibiOS_3.0.2/os/hal/include/spi.h"
 1186              		.file 35 "ChibiOS_3.0.2/os/hal/ports/STM32/LLD/SPIv1/spi_lld.h"
 1187              		.file 36 "ChibiOS_3.0.2/os/hal/include/usb.h"
 1188              		.file 37 "ChibiOS_3.0.2/os/hal/ports/STM32/LLD/OTGv1/usb_lld.h"
 1189              		.file 38 "ChibiOS_3.0.2/os/hal/ports/STM32/LLD/OTGv1/stm32_otg.h"
 1190              		.file 39 "/usr/arm-none-eabi/include/sys/lock.h"
 1191              		.file 40 "/usr/arm-none-eabi/include/sys/_types.h"
 1192              		.file 41 "/usr/arm-none-eabi/include/sys/reent.h"
 1193              		.file 42 "/usr/arm-none-eabi/include/math.h"
 1194              		.file 43 "/usr/arm-none-eabi/include/stdlib.h"
 1195              		.file 44 "mc_interface.h"
 1196              		.file 45 "mcpwm.h"
 1197              		.file 46 "timeout.h"
 1198              		.file 47 "ChibiOS_3.0.2/os/hal/include/hal.h"
 1199              		.file 48 "ChibiOS_3.0.2/os/rt/include/chsys.h"
 1200              		.file 49 "ChibiOS_3.0.2/os/rt/include/chthreads.h"
 1201              		.file 50 "hwconf/hw.h"
 1202              		.file 51 "timer.h"
 1203              		.file 52 "flash_helper.h"
 1204              		.file 53 "ledpwm.h"
 1205              		.file 54 "commands.h"
 1206              		.file 55 "comm_usb.h"
 1207              		.file 56 "comm_can.h"
 1208              		.file 57 "applications/app.h"
 1209              		.file 58 "imu/imu.h"
 1210              		.file 59 "blackmagic/bm_if.h"
 1211              		.file 60 "packet.h"
 1212              		.file 61 "mcpwm_foc.h"
 1213              		.file 62 "utils.h"
 1214              		.file 63 "encoder.h"
 1215              		.file 64 "ChibiOS_3.0.2/ext/stdperiph_stm32f4/inc/stm32f4xx_rcc.h"