ARM GAS  /tmp/ccQWNbUQ.s 			page 1


   1              		.cpu cortex-m4
   2              		.eabi_attribute 27, 1
   3              		.eabi_attribute 28, 1
   4              		.eabi_attribute 20, 1
   5              		.eabi_attribute 21, 1
   6              		.eabi_attribute 23, 3
   7              		.eabi_attribute 24, 1
   8              		.eabi_attribute 25, 1
   9              		.eabi_attribute 26, 1
  10              		.eabi_attribute 30, 2
  11              		.eabi_attribute 34, 1
  12              		.eabi_attribute 18, 4
  13              		.file	"main.c"
  14              		.text
  15              	.Ltext0:
  16              		.cfi_sections	.debug_frame
  17              		.section	.text.assert_failed,"ax",%progbits
  18              		.align	1
  19              		.p2align 4,,15
  20              		.global	assert_failed
  21              		.syntax unified
  22              		.thumb
  23              		.thumb_func
  24              		.fpu fpv4-sp-d16
  25              		.type	assert_failed, %function
  26              	assert_failed:
  27              	.LFB262:
  28              		.file 1 "main.c"
  29              		.loc 1 177 0
  30              		.cfi_startproc
  31              		@ Volatile: function does not return.
  32              		@ args = 0, pretend = 0, frame = 0
  33              		@ frame_needed = 0, uses_anonymous_args = 0
  34              	.LVL0:
  35              		.loc 1 178 0
  36 0000 0A46     		mov	r2, r1
  37              		.loc 1 177 0
  38 0002 08B5     		push	{r3, lr}
  39              		.cfi_def_cfa_offset 8
  40              		.cfi_offset 3, -8
  41              		.cfi_offset 14, -4
  42              		.loc 1 178 0
  43 0004 0146     		mov	r1, r0
  44              	.LVL1:
  45 0006 0448     		ldr	r0, .L5
  46              	.LVL2:
  47 0008 FFF7FEFF 		bl	commands_printf
  48              	.LVL3:
  49              		.loc 1 179 0
  50 000c FFF7FEFF 		bl	mc_interface_release_motor
  51              	.LVL4:
  52              	.L2:
  53              		.loc 1 181 0 discriminator 1
  54 0010 0A20     		movs	r0, #10
  55 0012 FFF7FEFF 		bl	chThdSleep
  56              	.LVL5:
  57 0016 FBE7     		b	.L2
ARM GAS  /tmp/ccQWNbUQ.s 			page 2


  58              	.L6:
  59              		.align	2
  60              	.L5:
  61 0018 00000000 		.word	.LC0
  62              		.cfi_endproc
  63              	.LFE262:
  64              		.size	assert_failed, .-assert_failed
  65              		.section	.text.SPI_Config,"ax",%progbits
  66              		.align	1
  67              		.p2align 4,,15
  68              		.global	SPI_Config
  69              		.syntax unified
  70              		.thumb
  71              		.thumb_func
  72              		.fpu fpv4-sp-d16
  73              		.type	SPI_Config, %function
  74              	SPI_Config:
  75              	.LFB263:
  76              		.loc 1 188 0
  77              		.cfi_startproc
  78              		@ args = 0, pretend = 0, frame = 0
  79              		@ frame_needed = 0, uses_anonymous_args = 0
  80              		@ link register save eliminated.
  81              		.loc 1 189 0
  82 0000 1249     		ldr	r1, .L8
  83              		.loc 1 191 0
  84 0002 134B     		ldr	r3, .L8+4
  85              		.loc 1 189 0
  86 0004 4A6C     		ldr	r2, [r1, #68]
  87 0006 42F48052 		orr	r2, r2, #4096
  88 000a 4A64     		str	r2, [r1, #68]
  89              		.loc 1 191 0
  90 000c 1A68     		ldr	r2, [r3]
  91 000e 42F00302 		orr	r2, r2, #3
  92 0012 1A60     		str	r2, [r3]
  93              		.loc 1 193 0
  94 0014 1A68     		ldr	r2, [r3]
  95 0016 42F00402 		orr	r2, r2, #4
  96 001a 1A60     		str	r2, [r3]
  97              		.loc 1 195 0
  98 001c 1A68     		ldr	r2, [r3]
  99 001e 42F03802 		orr	r2, r2, #56
 100 0022 1A60     		str	r2, [r3]
 101              		.loc 1 197 0
 102 0024 1A68     		ldr	r2, [r3]
 103 0026 22F08002 		bic	r2, r2, #128
 104 002a 1A60     		str	r2, [r3]
 105              		.loc 1 199 0
 106 002c 1A68     		ldr	r2, [r3]
 107 002e 42F44072 		orr	r2, r2, #768
 108 0032 1A60     		str	r2, [r3]
 109              		.loc 1 201 0
 110 0034 1A68     		ldr	r2, [r3]
 111 0036 22F48062 		bic	r2, r2, #1024
 112 003a 1A60     		str	r2, [r3]
 113              		.loc 1 203 0
 114 003c 1A68     		ldr	r2, [r3]
ARM GAS  /tmp/ccQWNbUQ.s 			page 3


 115              		.loc 1 205 0
 116 003e 0021     		movs	r1, #0
 117              		.loc 1 203 0
 118 0040 22F40062 		bic	r2, r2, #2048
 119 0044 1A60     		str	r2, [r3]
 120              		.loc 1 205 0
 121 0046 5960     		str	r1, [r3, #4]
 122              		.loc 1 206 0
 123 0048 7047     		bx	lr
 124              	.L9:
 125 004a 00BF     		.align	2
 126              	.L8:
 127 004c 00380240 		.word	1073887232
 128 0050 00300140 		.word	1073819648
 129              		.cfi_endproc
 130              	.LFE263:
 131              		.size	SPI_Config, .-SPI_Config
 132              		.section	.text.GPIOConfig,"ax",%progbits
 133              		.align	1
 134              		.p2align 4,,15
 135              		.global	GPIOConfig
 136              		.syntax unified
 137              		.thumb
 138              		.thumb_func
 139              		.fpu fpv4-sp-d16
 140              		.type	GPIOConfig, %function
 141              	GPIOConfig:
 142              	.LFB264:
 143              		.loc 1 211 0
 144              		.cfi_startproc
 145              		@ args = 0, pretend = 0, frame = 0
 146              		@ frame_needed = 0, uses_anonymous_args = 0
 147              		@ link register save eliminated.
 148              		.loc 1 212 0
 149 0000 0A49     		ldr	r1, .L11
 150              		.loc 1 214 0
 151 0002 0B4B     		ldr	r3, .L11+4
 152              		.loc 1 212 0
 153 0004 0A6B     		ldr	r2, [r1, #48]
 154 0006 42F00102 		orr	r2, r2, #1
 155 000a 0A63     		str	r2, [r1, #48]
 156              		.loc 1 214 0
 157 000c 1A68     		ldr	r2, [r3]
 158 000e 42F42942 		orr	r2, r2, #43264
 159 0012 1A60     		str	r2, [r3]
 160              		.loc 1 216 0
 161 0014 9A68     		ldr	r2, [r3, #8]
 162 0016 42F47F42 		orr	r2, r2, #65280
 163 001a 9A60     		str	r2, [r3, #8]
 164              		.loc 1 218 0
 165 001c 1A6A     		ldr	r2, [r3, #32]
 166 001e 42F0AA42 		orr	r2, r2, #1426063360
 167 0022 42F4A002 		orr	r2, r2, #5242880
 168 0026 1A62     		str	r2, [r3, #32]
 169              		.loc 1 219 0
 170 0028 7047     		bx	lr
 171              	.L12:
ARM GAS  /tmp/ccQWNbUQ.s 			page 4


 172 002a 00BF     		.align	2
 173              	.L11:
 174 002c 00380240 		.word	1073887232
 175 0030 00000240 		.word	1073872896
 176              		.cfi_endproc
 177              	.LFE264:
 178              		.size	GPIOConfig, .-GPIOConfig
 179              		.section	.text.SPI_Enable,"ax",%progbits
 180              		.align	1
 181              		.p2align 4,,15
 182              		.global	SPI_Enable
 183              		.syntax unified
 184              		.thumb
 185              		.thumb_func
 186              		.fpu fpv4-sp-d16
 187              		.type	SPI_Enable, %function
 188              	SPI_Enable:
 189              	.LFB265:
 190              		.loc 1 222 0
 191              		.cfi_startproc
 192              		@ args = 0, pretend = 0, frame = 0
 193              		@ frame_needed = 0, uses_anonymous_args = 0
 194              		@ link register save eliminated.
 195              		.loc 1 223 0
 196 0000 024A     		ldr	r2, .L14
 197 0002 1368     		ldr	r3, [r2]
 198 0004 43F04003 		orr	r3, r3, #64
 199 0008 1360     		str	r3, [r2]
 200              		.loc 1 224 0
 201 000a 7047     		bx	lr
 202              	.L15:
 203              		.align	2
 204              	.L14:
 205 000c 00300140 		.word	1073819648
 206              		.cfi_endproc
 207              	.LFE265:
 208              		.size	SPI_Enable, .-SPI_Enable
 209              		.section	.text.SPI_Disable,"ax",%progbits
 210              		.align	1
 211              		.p2align 4,,15
 212              		.global	SPI_Disable
 213              		.syntax unified
 214              		.thumb
 215              		.thumb_func
 216              		.fpu fpv4-sp-d16
 217              		.type	SPI_Disable, %function
 218              	SPI_Disable:
 219              	.LFB266:
 220              		.loc 1 227 0
 221              		.cfi_startproc
 222              		@ args = 0, pretend = 0, frame = 0
 223              		@ frame_needed = 0, uses_anonymous_args = 0
 224              		@ link register save eliminated.
 225              		.loc 1 228 0
 226 0000 024A     		ldr	r2, .L17
 227 0002 1368     		ldr	r3, [r2]
 228 0004 23F04003 		bic	r3, r3, #64
ARM GAS  /tmp/ccQWNbUQ.s 			page 5


 229 0008 1360     		str	r3, [r2]
 230              		.loc 1 229 0
 231 000a 7047     		bx	lr
 232              	.L18:
 233              		.align	2
 234              	.L17:
 235 000c 00300140 		.word	1073819648
 236              		.cfi_endproc
 237              	.LFE266:
 238              		.size	SPI_Disable, .-SPI_Disable
 239              		.section	.text.CS_Enable,"ax",%progbits
 240              		.align	1
 241              		.p2align 4,,15
 242              		.global	CS_Enable
 243              		.syntax unified
 244              		.thumb
 245              		.thumb_func
 246              		.fpu fpv4-sp-d16
 247              		.type	CS_Enable, %function
 248              	CS_Enable:
 249              	.LFB267:
 250              		.loc 1 232 0
 251              		.cfi_startproc
 252              		@ args = 0, pretend = 0, frame = 0
 253              		@ frame_needed = 0, uses_anonymous_args = 0
 254              		@ link register save eliminated.
 255              		.loc 1 234 0
 256 0000 014B     		ldr	r3, .L20
 257 0002 1022     		movs	r2, #16
 258 0004 5A83     		strh	r2, [r3, #26]	@ movhi
 259              		.loc 1 235 0
 260 0006 7047     		bx	lr
 261              	.L21:
 262              		.align	2
 263              	.L20:
 264 0008 00000240 		.word	1073872896
 265              		.cfi_endproc
 266              	.LFE267:
 267              		.size	CS_Enable, .-CS_Enable
 268              		.section	.text.CS_Disable,"ax",%progbits
 269              		.align	1
 270              		.p2align 4,,15
 271              		.global	CS_Disable
 272              		.syntax unified
 273              		.thumb
 274              		.thumb_func
 275              		.fpu fpv4-sp-d16
 276              		.type	CS_Disable, %function
 277              	CS_Disable:
 278              	.LFB268:
 279              		.loc 1 238 0
 280              		.cfi_startproc
 281              		@ args = 0, pretend = 0, frame = 0
 282              		@ frame_needed = 0, uses_anonymous_args = 0
 283              		@ link register save eliminated.
 284              		.loc 1 239 0
 285 0000 014B     		ldr	r3, .L23
ARM GAS  /tmp/ccQWNbUQ.s 			page 6


 286 0002 1022     		movs	r2, #16
 287 0004 1A83     		strh	r2, [r3, #24]	@ movhi
 288              		.loc 1 240 0
 289 0006 7047     		bx	lr
 290              	.L24:
 291              		.align	2
 292              	.L23:
 293 0008 00000240 		.word	1073872896
 294              		.cfi_endproc
 295              	.LFE268:
 296              		.size	CS_Disable, .-CS_Disable
 297              		.section	.text.SPI_Transmit,"ax",%progbits
 298              		.align	1
 299              		.p2align 4,,15
 300              		.global	SPI_Transmit
 301              		.syntax unified
 302              		.thumb
 303              		.thumb_func
 304              		.fpu fpv4-sp-d16
 305              		.type	SPI_Transmit, %function
 306              	SPI_Transmit:
 307              	.LFB269:
 308              		.loc 1 243 0
 309              		.cfi_startproc
 310              		@ args = 0, pretend = 0, frame = 0
 311              		@ frame_needed = 0, uses_anonymous_args = 0
 312              		@ link register save eliminated.
 313              	.LVL6:
 314              		.loc 1 253 0
 315 0000 0029     		cmp	r1, #0
 316 0002 0ADD     		ble	.L26
 317 0004 0138     		subs	r0, r0, #1
 318              	.LVL7:
 319              		.loc 1 255 0
 320 0006 0A4A     		ldr	r2, .L37
 321 0008 0144     		add	r1, r1, r0
 322              	.LVL8:
 323              	.L27:
 324              		.loc 1 255 0 is_stmt 0 discriminator 1
 325 000a 9368     		ldr	r3, [r2, #8]
 326 000c 9B07     		lsls	r3, r3, #30
 327 000e FCD5     		bpl	.L27
 328              		.loc 1 256 0 is_stmt 1
 329 0010 10F8013F 		ldrb	r3, [r0, #1]!	@ zero_extendqisi2
 330 0014 D360     		str	r3, [r2, #12]
 331              	.LVL9:
 332              		.loc 1 253 0
 333 0016 8842     		cmp	r0, r1
 334 0018 F7D1     		bne	.L27
 335              	.LVL10:
 336              	.L26:
 337              		.loc 1 266 0
 338 001a 054A     		ldr	r2, .L37
 339              	.L29:
 340              		.loc 1 266 0 is_stmt 0 discriminator 1
 341 001c 9368     		ldr	r3, [r2, #8]
 342 001e 9907     		lsls	r1, r3, #30
ARM GAS  /tmp/ccQWNbUQ.s 			page 7


 343 0020 FCD5     		bpl	.L29
 344              		.loc 1 267 0 is_stmt 1
 345 0022 034A     		ldr	r2, .L37
 346              	.L30:
 347              		.loc 1 267 0 is_stmt 0 discriminator 1
 348 0024 9368     		ldr	r3, [r2, #8]
 349 0026 1B06     		lsls	r3, r3, #24
 350 0028 FCD4     		bmi	.L30
 351              		.loc 1 270 0 is_stmt 1
 352 002a D368     		ldr	r3, [r2, #12]
 353              		.loc 1 271 0
 354 002c 9368     		ldr	r3, [r2, #8]
 355              		.loc 1 272 0
 356 002e 7047     		bx	lr
 357              	.L38:
 358              		.align	2
 359              	.L37:
 360 0030 00300140 		.word	1073819648
 361              		.cfi_endproc
 362              	.LFE269:
 363              		.size	SPI_Transmit, .-SPI_Transmit
 364              		.section	.text.startup.main,"ax",%progbits
 365              		.align	1
 366              		.p2align 4,,15
 367              		.global	main
 368              		.syntax unified
 369              		.thumb
 370              		.thumb_func
 371              		.fpu fpv4-sp-d16
 372              		.type	main, %function
 373              	main:
 374              	.LFB270:
 375              		.loc 1 298 0
 376              		.cfi_startproc
 377              		@ Volatile: function does not return.
 378              		@ args = 0, pretend = 0, frame = 0
 379              		@ frame_needed = 0, uses_anonymous_args = 0
 380 0000 80B5     		push	{r7, lr}
 381              		.cfi_def_cfa_offset 8
 382              		.cfi_offset 7, -8
 383              		.cfi_offset 14, -4
 384              		.loc 1 299 0
 385 0002 FFF7FEFF 		bl	halInit
 386              	.LVL11:
 387              		.loc 1 300 0
 388 0006 FFF7FEFF 		bl	chSysInit
 389              	.LVL12:
 390              	.LBB10:
 391              	.LBB11:
 392              		.loc 1 212 0
 393 000a 144A     		ldr	r2, .L42
 394              		.loc 1 214 0
 395 000c 144C     		ldr	r4, .L42+4
 396              		.loc 1 212 0
 397 000e 136B     		ldr	r3, [r2, #48]
 398 0010 144F     		ldr	r7, .L42+8
 399 0012 43F00103 		orr	r3, r3, #1
ARM GAS  /tmp/ccQWNbUQ.s 			page 8


 400 0016 1363     		str	r3, [r2, #48]
 401              		.loc 1 214 0
 402 0018 2368     		ldr	r3, [r4]
 403 001a 43F42943 		orr	r3, r3, #43264
 404 001e 2360     		str	r3, [r4]
 405              		.loc 1 216 0
 406 0020 A368     		ldr	r3, [r4, #8]
 407 0022 43F47F43 		orr	r3, r3, #65280
 408 0026 A360     		str	r3, [r4, #8]
 409              		.loc 1 218 0
 410 0028 236A     		ldr	r3, [r4, #32]
 411 002a 43F0AA43 		orr	r3, r3, #1426063360
 412 002e 43F4A003 		orr	r3, r3, #5242880
 413 0032 2362     		str	r3, [r4, #32]
 414              	.LBE11:
 415              	.LBE10:
 416              		.loc 1 302 0
 417 0034 FFF7FEFF 		bl	SPI_Config
 418              	.LVL13:
 419              	.LBB12:
 420              	.LBB13:
 421              		.loc 1 223 0
 422 0038 0B4A     		ldr	r2, .L42+12
 423 003a 1368     		ldr	r3, [r2]
 424              	.LBE13:
 425              	.LBE12:
 426              	.LBB15:
 427              	.LBB16:
 428              		.loc 1 234 0
 429 003c 1025     		movs	r5, #16
 430              	.LBE16:
 431              	.LBE15:
 432              	.LBB18:
 433              	.LBB14:
 434              		.loc 1 223 0
 435 003e 43F04003 		orr	r3, r3, #64
 436 0042 1360     		str	r3, [r2]
 437              	.LBE14:
 438              	.LBE18:
 439              	.LBB19:
 440              	.LBB17:
 441              		.loc 1 234 0
 442 0044 2E46     		mov	r6, r5	@ movhi
 443              	.L40:
 444              		.loc 1 234 0 is_stmt 0 discriminator 1
 445 0046 6683     		strh	r6, [r4, #26]	@ movhi
 446              	.LBE17:
 447              	.LBE19:
 448              		.loc 1 308 0 is_stmt 1 discriminator 1
 449 0048 3878     		ldrb	r0, [r7]	@ zero_extendqisi2
 450 004a 0121     		movs	r1, #1
 451 004c FFF7FEFF 		bl	SPI_Transmit
 452              	.LVL14:
 453              	.LBB20:
 454              	.LBB21:
 455              		.loc 1 239 0 discriminator 1
 456 0050 2583     		strh	r5, [r4, #24]	@ movhi
ARM GAS  /tmp/ccQWNbUQ.s 			page 9


 457              	.LBE21:
 458              	.LBE20:
 459              		.loc 1 310 0 discriminator 1
 460 0052 0A20     		movs	r0, #10
 461 0054 FFF7FEFF 		bl	chThdSleep
 462              	.LVL15:
 463 0058 F5E7     		b	.L40
 464              	.L43:
 465 005a 00BF     		.align	2
 466              	.L42:
 467 005c 00380240 		.word	1073887232
 468 0060 00000240 		.word	1073872896
 469 0064 00000000 		.word	.LANCHOR0
 470 0068 00300140 		.word	1073819648
 471              		.cfi_endproc
 472              	.LFE270:
 473              		.size	main, .-main
 474              		.global	data
 475              		.section	.data.data,"aw",%progbits
 476              		.set	.LANCHOR0,. + 0
 477              		.type	data, %object
 478              		.size	data, 1
 479              	data:
 480 0000 0C       		.byte	12
 481              		.section	.rodata.assert_failed.str1.4,"aMS",%progbits,1
 482              		.align	2
 483              	.LC0:
 484 0000 57726F6E 		.ascii	"Wrong parameters value: file %s on line %d\015\012\000"
 484      67207061 
 484      72616D65 
 484      74657273 
 484      2076616C 
 485              		.text
 486              	.Letext0:
 487              		.file 2 "/usr/lib/gcc/arm-none-eabi/7.3.1/include/stddef.h"
 488              		.file 3 "/usr/arm-none-eabi/include/machine/_default_types.h"
 489              		.file 4 "/usr/arm-none-eabi/include/sys/_stdint.h"
 490              		.file 5 "ChibiOS_3.0.2/os/rt/ports/ARMCMx/compilers/GCC/chtypes.h"
 491              		.file 6 "ChibiOS_3.0.2/os/rt/include/chsystypes.h"
 492              		.file 7 "ChibiOS_3.0.2/os/rt/include/chschd.h"
 493              		.file 8 "ChibiOS_3.0.2/os/ext/CMSIS/include/core_cm4.h"
 494              		.file 9 "ChibiOS_3.0.2/os/ext/CMSIS/ST/system_stm32f4xx.h"
 495              		.file 10 "ChibiOS_3.0.2/os/ext/CMSIS/ST/stm32f407xx.h"
 496              		.file 11 "ChibiOS_3.0.2/os/rt/ports/ARMCMx/chcore.h"
 497              		.file 12 "ChibiOS_3.0.2/os/rt/ports/ARMCMx/chcore_v7m.h"
 498              		.file 13 "ChibiOS_3.0.2/os/rt/include/chtm.h"
 499              		.file 14 "ChibiOS_3.0.2/os/rt/include/chsem.h"
 500              		.file 15 "ChibiOS_3.0.2/os/rt/include/chmtx.h"
 501              		.file 16 "ChibiOS_3.0.2/os/rt/include/chregistry.h"
 502              		.file 17 "ChibiOS_3.0.2/os/rt/include/chevents.h"
 503              		.file 18 "ChibiOS_3.0.2/os/rt/include/chqueues.h"
 504              		.file 19 "./datatypes.h"
 505              		.file 20 "./conf_general.h"
 506              		.file 21 "ChibiOS_3.0.2/os/hal/ports/STM32/STM32F4xx/stm32_dma.h"
 507              		.file 22 "ChibiOS_3.0.2/os/hal/ports/STM32/LLD/GPIOv2/pal_lld.h"
 508              		.file 23 "ChibiOS_3.0.2/os/hal/include/can.h"
 509              		.file 24 "ChibiOS_3.0.2/os/hal/ports/STM32/LLD/can_lld.h"
ARM GAS  /tmp/ccQWNbUQ.s 			page 10


 510              		.file 25 "ChibiOS_3.0.2/os/hal/include/i2c.h"
 511              		.file 26 "ChibiOS_3.0.2/os/hal/ports/STM32/LLD/I2Cv1/i2c_lld.h"
 512              		.file 27 "ChibiOS_3.0.2/os/hal/include/icu.h"
 513              		.file 28 "ChibiOS_3.0.2/os/hal/ports/STM32/LLD/TIMv1/icu_lld.h"
 514              		.file 29 "ChibiOS_3.0.2/os/hal/ports/STM32/LLD/TIMv1/stm32_tim.h"
 515              		.file 30 "ChibiOS_3.0.2/os/hal/include/serial.h"
 516              		.file 31 "ChibiOS_3.0.2/os/hal/ports/STM32/LLD/USARTv1/serial_lld.h"
 517              		.file 32 "ChibiOS_3.0.2/os/hal/include/spi.h"
 518              		.file 33 "ChibiOS_3.0.2/os/hal/ports/STM32/LLD/SPIv1/spi_lld.h"
 519              		.file 34 "ChibiOS_3.0.2/os/hal/include/usb.h"
 520              		.file 35 "ChibiOS_3.0.2/os/hal/ports/STM32/LLD/OTGv1/usb_lld.h"
 521              		.file 36 "ChibiOS_3.0.2/os/hal/ports/STM32/LLD/OTGv1/stm32_otg.h"
 522              		.file 37 "/usr/arm-none-eabi/include/sys/lock.h"
 523              		.file 38 "/usr/arm-none-eabi/include/sys/_types.h"
 524              		.file 39 "/usr/arm-none-eabi/include/sys/reent.h"
 525              		.file 40 "/usr/arm-none-eabi/include/math.h"
 526              		.file 41 "/usr/arm-none-eabi/include/stdlib.h"
 527              		.file 42 "mc_interface.h"
 528              		.file 43 "mcpwm.h"
 529              		.file 44 "ChibiOS_3.0.2/os/hal/include/hal.h"
 530              		.file 45 "ChibiOS_3.0.2/os/rt/include/chsys.h"
 531              		.file 46 "ChibiOS_3.0.2/os/rt/include/chthreads.h"
 532              		.file 47 "commands.h"