ARM GAS  /tmp/ccyW3Gtb.s 			page 1


   1              		.cpu cortex-m4
   2              		.eabi_attribute 27, 1
   3              		.eabi_attribute 28, 1
   4              		.eabi_attribute 20, 1
   5              		.eabi_attribute 21, 1
   6              		.eabi_attribute 23, 3
   7              		.eabi_attribute 24, 1
   8              		.eabi_attribute 25, 1
   9              		.eabi_attribute 26, 1
  10              		.eabi_attribute 30, 2
  11              		.eabi_attribute 34, 1
  12              		.eabi_attribute 18, 4
  13              		.file	"adiv5_swdp.c"
  14              		.text
  15              	.Ltext0:
  16              		.cfi_sections	.debug_frame
  17              		.section	.text.adiv5_swdp_abort,"ax",%progbits
  18              		.align	1
  19              		.p2align 4,,15
  20              		.syntax unified
  21              		.thumb
  22              		.thumb_func
  23              		.fpu fpv4-sp-d16
  24              		.type	adiv5_swdp_abort, %function
  25              	adiv5_swdp_abort:
  26              	.LFB267:
  27              		.file 1 "blackmagic/target/adiv5_swdp.c"
  28              		.loc 1 181 0
  29              		.cfi_startproc
  30              		@ args = 0, pretend = 0, frame = 0
  31              		@ frame_needed = 0, uses_anonymous_args = 0
  32              		@ link register save eliminated.
  33              	.LVL0:
  34              		.loc 1 182 0
  35 0000 0A46     		mov	r2, r1
  36 0002 0021     		movs	r1, #0
  37              	.LVL1:
  38 0004 FFF7FEBF 		b	adiv5_dp_write
  39              	.LVL2:
  40              		.cfi_endproc
  41              	.LFE267:
  42              		.size	adiv5_swdp_abort, .-adiv5_swdp_abort
  43              		.section	.text.adiv5_swdp_low_access,"ax",%progbits
  44              		.align	1
  45              		.p2align 4,,15
  46              		.syntax unified
  47              		.thumb
  48              		.thumb_func
  49              		.fpu fpv4-sp-d16
  50              		.type	adiv5_swdp_low_access, %function
  51              	adiv5_swdp_low_access:
  52              	.LFB266:
  53              		.loc 1 124 0
  54              		.cfi_startproc
  55              		@ args = 0, pretend = 0, frame = 8
  56              		@ frame_needed = 0, uses_anonymous_args = 0
  57              	.LVL3:
ARM GAS  /tmp/ccyW3Gtb.s 			page 2


  58 0000 2DE9F041 		push	{r4, r5, r6, r7, r8, lr}
  59              		.cfi_def_cfa_offset 24
  60              		.cfi_offset 4, -24
  61              		.cfi_offset 5, -20
  62              		.cfi_offset 6, -16
  63              		.cfi_offset 7, -12
  64              		.cfi_offset 8, -8
  65              		.cfi_offset 14, -4
  66 0004 82B0     		sub	sp, sp, #8
  67              		.cfi_def_cfa_offset 32
  68              		.loc 1 128 0
  69 0006 0024     		movs	r4, #0
  70 0008 0094     		str	r4, [sp]
  71              		.loc 1 132 0
  72 000a D405     		lsls	r4, r2, #23
  73 000c 32D5     		bpl	.L18
  74              		.loc 1 132 0 is_stmt 0 discriminator 1
  75 000e 90F82050 		ldrb	r5, [r0, #32]	@ zero_extendqisi2
  76 0012 002D     		cmp	r5, #0
  77 0014 3FD1     		bne	.L34
  78              		.loc 1 134 0 is_stmt 1
  79 0016 A325     		movs	r5, #163
  80              	.LVL4:
  81              		.loc 1 135 0
  82 0018 79BB     		cbnz	r1, .L35
  83              	.L6:
  84              		.loc 1 137 0
  85 001a 02F00C02 		and	r2, r2, #12
  86              	.LVL5:
  87              		.loc 1 139 0
  88 001e 042A     		cmp	r2, #4
  89              		.loc 1 138 0
  90 0020 45EA4205 		orr	r5, r5, r2, lsl #1
  91              	.LVL6:
  92              		.loc 1 139 0
  93 0024 31D0     		beq	.L7
  94              	.L40:
  95              		.loc 1 139 0 is_stmt 0 discriminator 1
  96 0026 082A     		cmp	r2, #8
  97 0028 2FD0     		beq	.L7
  98              	.L8:
  99 002a 0E46     		mov	r6, r1
 100 002c 0746     		mov	r7, r0
 101              		.loc 1 142 0 is_stmt 1
 102 002e 4FF4FA61 		mov	r1, #2000
 103              	.LVL7:
 104 0032 01A8     		add	r0, sp, #4
 105              	.LVL8:
 106 0034 9846     		mov	r8, r3
 107 0036 FFF7FEFF 		bl	platform_timeout_set
 108              	.LVL9:
 109 003a 02E0     		b	.L11
 110              	.LVL10:
 111              	.L37:
 112              		.loc 1 146 0 discriminator 1
 113 003c FFF7FEFF 		bl	platform_timeout_is_expired
 114              	.LVL11:
ARM GAS  /tmp/ccyW3Gtb.s 			page 3


 115 0040 68BB     		cbnz	r0, .L36
 116              	.LVL12:
 117              	.L11:
 118              		.loc 1 144 0 discriminator 2
 119 0042 0821     		movs	r1, #8
 120 0044 2846     		mov	r0, r5
 121 0046 FFF7FEFF 		bl	swdptap_seq_out
 122              	.LVL13:
 123              		.loc 1 145 0 discriminator 2
 124 004a 0320     		movs	r0, #3
 125 004c FFF7FEFF 		bl	swdptap_seq_in
 126              	.LVL14:
 127 0050 0446     		mov	r4, r0
 128              	.LVL15:
 129              		.loc 1 146 0 discriminator 2
 130 0052 022C     		cmp	r4, #2
 131 0054 01A8     		add	r0, sp, #4
 132              	.LVL16:
 133 0056 F1D0     		beq	.L37
 134              		.loc 1 151 0
 135 0058 042C     		cmp	r4, #4
 136 005a 19D0     		beq	.L38
 137              		.loc 1 156 0
 138 005c 012C     		cmp	r4, #1
 139 005e 22D1     		bne	.L15
 140              		.loc 1 159 0
 141 0060 3EB3     		cbz	r6, .L13
 142              	.L41:
 143              		.loc 1 160 0
 144 0062 2021     		movs	r1, #32
 145 0064 6846     		mov	r0, sp
 146 0066 FFF7FEFF 		bl	swdptap_seq_in_parity
 147              	.LVL17:
 148 006a 60BB     		cbnz	r0, .L39
 149              	.L14:
 150              		.loc 1 177 0
 151 006c 0098     		ldr	r0, [sp]
 152              	.L42:
 153              		.loc 1 178 0
 154 006e 02B0     		add	sp, sp, #8
 155              		.cfi_remember_state
 156              		.cfi_def_cfa_offset 24
 157              		@ sp needed
 158 0070 BDE8F081 		pop	{r4, r5, r6, r7, r8, pc}
 159              	.LVL18:
 160              	.L18:
 161              		.cfi_restore_state
 162              		.loc 1 127 0
 163 0074 8125     		movs	r5, #129
 164              	.LVL19:
 165              		.loc 1 135 0
 166 0076 0029     		cmp	r1, #0
 167 0078 CFD0     		beq	.L6
 168              	.L35:
 169              		.loc 1 137 0 discriminator 1
 170 007a 02F00C02 		and	r2, r2, #12
 171              	.LVL20:
ARM GAS  /tmp/ccyW3Gtb.s 			page 4


 172              		.loc 1 135 0 discriminator 1
 173 007e 85F02405 		eor	r5, r5, #36
 174              	.LVL21:
 175              		.loc 1 139 0 discriminator 1
 176 0082 042A     		cmp	r2, #4
 177              		.loc 1 138 0 discriminator 1
 178 0084 45EA4205 		orr	r5, r5, r2, lsl #1
 179              	.LVL22:
 180              		.loc 1 139 0 discriminator 1
 181 0088 CDD1     		bne	.L40
 182              	.L7:
 183              		.loc 1 140 0
 184 008a 85F02005 		eor	r5, r5, #32
 185              	.LVL23:
 186 008e CCE7     		b	.L8
 187              	.LVL24:
 188              	.L38:
 189              		.loc 1 152 0
 190 0090 0123     		movs	r3, #1
 191 0092 87F82030 		strb	r3, [r7, #32]
 192              	.LVL25:
 193              	.L34:
 194              		.loc 1 153 0
 195 0096 0020     		movs	r0, #0
 196              		.loc 1 178 0
 197 0098 02B0     		add	sp, sp, #8
 198              		.cfi_remember_state
 199              		.cfi_def_cfa_offset 24
 200              		@ sp needed
 201 009a BDE8F081 		pop	{r4, r5, r6, r7, r8, pc}
 202              	.LVL26:
 203              	.L36:
 204              		.cfi_restore_state
 205              		.loc 1 149 0
 206 009e 2046     		mov	r0, r4
 207 00a0 0B49     		ldr	r1, .L43
 208 00a2 FFF7FEFF 		bl	raise_exception
 209              	.LVL27:
 210              	.L15:
 211              		.loc 1 157 0
 212 00a6 0B49     		ldr	r1, .L43+4
 213 00a8 0120     		movs	r0, #1
 214 00aa FFF7FEFF 		bl	raise_exception
 215              	.LVL28:
 216              		.loc 1 159 0
 217 00ae 002E     		cmp	r6, #0
 218 00b0 D7D1     		bne	.L41
 219              	.L13:
 220              		.loc 1 163 0
 221 00b2 4046     		mov	r0, r8
 222 00b4 2021     		movs	r1, #32
 223 00b6 FFF7FEFF 		bl	swdptap_seq_out_parity
 224              	.LVL29:
 225              		.loc 1 174 0
 226 00ba 3046     		mov	r0, r6
 227 00bc 0221     		movs	r1, #2
 228 00be FFF7FEFF 		bl	swdptap_seq_out
ARM GAS  /tmp/ccyW3Gtb.s 			page 5


 229              	.LVL30:
 230              		.loc 1 177 0
 231 00c2 0098     		ldr	r0, [sp]
 232 00c4 D3E7     		b	.L42
 233              	.L39:
 234              		.loc 1 161 0
 235 00c6 0449     		ldr	r1, .L43+8
 236 00c8 0120     		movs	r0, #1
 237 00ca FFF7FEFF 		bl	raise_exception
 238              	.LVL31:
 239 00ce CDE7     		b	.L14
 240              	.L44:
 241              		.align	2
 242              	.L43:
 243 00d0 28000000 		.word	.LC2
 244 00d4 00000000 		.word	.LC0
 245 00d8 14000000 		.word	.LC1
 246              		.cfi_endproc
 247              	.LFE266:
 248              		.size	adiv5_swdp_low_access, .-adiv5_swdp_low_access
 249              		.section	.text.adiv5_swdp_read,"ax",%progbits
 250              		.align	1
 251              		.p2align 4,,15
 252              		.syntax unified
 253              		.thumb
 254              		.thumb_func
 255              		.fpu fpv4-sp-d16
 256              		.type	adiv5_swdp_read, %function
 257              	adiv5_swdp_read:
 258              	.LFB264:
 259              		.loc 1 89 0
 260              		.cfi_startproc
 261              		@ args = 0, pretend = 0, frame = 0
 262              		@ frame_needed = 0, uses_anonymous_args = 0
 263              	.LVL32:
 264              		.loc 1 90 0
 265 0000 11F48073 		ands	r3, r1, #256
 266 0004 0FD0     		beq	.L46
 267              		.loc 1 89 0
 268 0006 70B5     		push	{r4, r5, r6, lr}
 269              		.cfi_def_cfa_offset 16
 270              		.cfi_offset 4, -16
 271              		.cfi_offset 5, -12
 272              		.cfi_offset 6, -8
 273              		.cfi_offset 14, -4
 274 0008 0446     		mov	r4, r0
 275 000a 0A46     		mov	r2, r1
 276              	.LVL33:
 277              	.LBB20:
 278              	.LBB21:
 279              		.file 2 "blackmagic/target/adiv5.h"
 280              		.loc 2 153 0
 281 000c 8569     		ldr	r5, [r0, #24]
 282 000e 0023     		movs	r3, #0
 283 0010 0121     		movs	r1, #1
 284              	.LVL34:
 285 0012 A847     		blx	r5
ARM GAS  /tmp/ccyW3Gtb.s 			page 6


 286              	.LVL35:
 287              	.LBE21:
 288              	.LBE20:
 289              	.LBB22:
 290              	.LBB23:
 291 0014 A569     		ldr	r5, [r4, #24]
 292 0016 2046     		mov	r0, r4
 293 0018 AC46     		mov	ip, r5
 294 001a 0023     		movs	r3, #0
 295 001c 0C22     		movs	r2, #12
 296 001e 0121     		movs	r1, #1
 297              	.LBE23:
 298              	.LBE22:
 299              		.loc 1 97 0
 300 0020 BDE87040 		pop	{r4, r5, r6, lr}
 301              		.cfi_restore 14
 302              		.cfi_restore 6
 303              		.cfi_restore 5
 304              		.cfi_restore 4
 305              		.cfi_def_cfa_offset 0
 306              	.LVL36:
 307              	.LBB25:
 308              	.LBB24:
 309              		.loc 2 153 0
 310 0024 6047     		bx	ip
 311              	.LVL37:
 312              	.L46:
 313              	.LBE24:
 314              	.LBE25:
 315              	.LBB26:
 316              	.LBB27:
 317              		.loc 1 95 0
 318 0026 0A46     		mov	r2, r1
 319 0028 0121     		movs	r1, #1
 320              	.LVL38:
 321 002a FFF7FEBF 		b	adiv5_swdp_low_access
 322              	.LVL39:
 323              	.LBE27:
 324              	.LBE26:
 325              		.cfi_endproc
 326              	.LFE264:
 327              		.size	adiv5_swdp_read, .-adiv5_swdp_read
 328              		.section	.text.adiv5_swdp_error,"ax",%progbits
 329              		.align	1
 330              		.p2align 4,,15
 331              		.syntax unified
 332              		.thumb
 333              		.thumb_func
 334              		.fpu fpv4-sp-d16
 335              		.type	adiv5_swdp_error, %function
 336              	adiv5_swdp_error:
 337              	.LFB265:
 338              		.loc 1 100 0
 339              		.cfi_startproc
 340              		@ args = 0, pretend = 0, frame = 0
 341              		@ frame_needed = 0, uses_anonymous_args = 0
 342              	.LVL40:
ARM GAS  /tmp/ccyW3Gtb.s 			page 7


 343 0000 38B5     		push	{r3, r4, r5, lr}
 344              		.cfi_def_cfa_offset 16
 345              		.cfi_offset 3, -16
 346              		.cfi_offset 4, -12
 347              		.cfi_offset 5, -8
 348              		.cfi_offset 14, -4
 349              		.loc 1 103 0
 350 0002 0421     		movs	r1, #4
 351              		.loc 1 100 0
 352 0004 0446     		mov	r4, r0
 353              		.loc 1 103 0
 354 0006 FFF7FEFF 		bl	adiv5_swdp_read
 355              	.LVL41:
 356              		.loc 1 108 0
 357 000a 10F0020F 		tst	r0, #2
 358 000e 0CBF     		ite	eq
 359 0010 0022     		moveq	r2, #0
 360 0012 1022     		movne	r2, #16
 361              		.loc 1 109 0
 362 0014 C306     		lsls	r3, r0, #27
 363              		.loc 1 110 0
 364 0016 48BF     		it	mi
 365 0018 42F00202 		orrmi	r2, r2, #2
 366              		.loc 1 111 0
 367 001c 8106     		lsls	r1, r0, #26
 368              		.loc 1 112 0
 369 001e 48BF     		it	mi
 370 0020 42F00402 		orrmi	r2, r2, #4
 371              		.loc 1 113 0
 372 0024 0306     		lsls	r3, r0, #24
 373              		.loc 1 103 0
 374 0026 00F0B205 		and	r5, r0, #178
 375              	.LVL42:
 376              		.loc 1 114 0
 377 002a 48BF     		it	mi
 378 002c 42F00802 		orrmi	r2, r2, #8
 379              	.LVL43:
 380              		.loc 1 116 0
 381 0030 2046     		mov	r0, r4
 382 0032 0021     		movs	r1, #0
 383 0034 FFF7FEFF 		bl	adiv5_dp_write
 384              	.LVL44:
 385              		.loc 1 117 0
 386 0038 0023     		movs	r3, #0
 387              		.loc 1 120 0
 388 003a 2846     		mov	r0, r5
 389              		.loc 1 117 0
 390 003c 84F82030 		strb	r3, [r4, #32]
 391              		.loc 1 120 0
 392 0040 38BD     		pop	{r3, r4, r5, pc}
 393              		.cfi_endproc
 394              	.LFE265:
 395              		.size	adiv5_swdp_error, .-adiv5_swdp_error
 396 0042 00BF     		.section	.text.adiv5_swdp_scan,"ax",%progbits
 397              		.align	1
 398              		.p2align 4,,15
 399              		.global	adiv5_swdp_scan
ARM GAS  /tmp/ccyW3Gtb.s 			page 8


 400              		.syntax unified
 401              		.thumb
 402              		.thumb_func
 403              		.fpu fpv4-sp-d16
 404              		.type	adiv5_swdp_scan, %function
 405              	adiv5_swdp_scan:
 406              	.LFB263:
 407              		.loc 1 46 0
 408              		.cfi_startproc
 409              		@ args = 0, pretend = 0, frame = 0
 410              		@ frame_needed = 0, uses_anonymous_args = 0
 411 0000 38B5     		push	{r3, r4, r5, lr}
 412              		.cfi_def_cfa_offset 16
 413              		.cfi_offset 3, -16
 414              		.cfi_offset 4, -12
 415              		.cfi_offset 5, -8
 416              		.cfi_offset 14, -4
 417              		.loc 1 49 0
 418 0002 FFF7FEFF 		bl	target_list_free
 419              	.LVL45:
 420              		.loc 1 50 0
 421 0006 2421     		movs	r1, #36
 422 0008 0120     		movs	r0, #1
 423 000a FFF7FEFF 		bl	calloc
 424              	.LVL46:
 425 000e 0446     		mov	r4, r0
 426              	.LVL47:
 427              		.loc 1 52 0
 428 0010 FFF7FEFF 		bl	swdptap_init
 429              	.LVL48:
 430 0014 0028     		cmp	r0, #0
 431 0016 47D1     		bne	.L72
 432 0018 0546     		mov	r5, r0
 433              		.loc 1 58 0
 434 001a 1021     		movs	r1, #16
 435 001c 4FF0FF30 		mov	r0, #-1
 436 0020 FFF7FEFF 		bl	swdptap_seq_out
 437              	.LVL49:
 438              		.loc 1 59 0
 439 0024 2021     		movs	r1, #32
 440 0026 4FF0FF30 		mov	r0, #-1
 441 002a FFF7FEFF 		bl	swdptap_seq_out
 442              	.LVL50:
 443              		.loc 1 60 0
 444 002e 1221     		movs	r1, #18
 445 0030 4FF0FF30 		mov	r0, #-1
 446 0034 FFF7FEFF 		bl	swdptap_seq_out
 447              	.LVL51:
 448              		.loc 1 61 0
 449 0038 1021     		movs	r1, #16
 450 003a 4EF29E70 		movw	r0, #59294
 451 003e FFF7FEFF 		bl	swdptap_seq_out
 452              	.LVL52:
 453              		.loc 1 62 0
 454 0042 2021     		movs	r1, #32
 455 0044 4FF0FF30 		mov	r0, #-1
 456 0048 FFF7FEFF 		bl	swdptap_seq_out
ARM GAS  /tmp/ccyW3Gtb.s 			page 9


 457              	.LVL53:
 458              		.loc 1 63 0
 459 004c 1221     		movs	r1, #18
 460 004e 4FF0FF30 		mov	r0, #-1
 461 0052 FFF7FEFF 		bl	swdptap_seq_out
 462              	.LVL54:
 463              		.loc 1 64 0
 464 0056 2846     		mov	r0, r5
 465 0058 1021     		movs	r1, #16
 466 005a FFF7FEFF 		bl	swdptap_seq_out
 467              	.LVL55:
 468              		.loc 1 69 0
 469 005e 0821     		movs	r1, #8
 470 0060 A520     		movs	r0, #165
 471 0062 FFF7FEFF 		bl	swdptap_seq_out
 472              	.LVL56:
 473              		.loc 1 70 0
 474 0066 0320     		movs	r0, #3
 475 0068 FFF7FEFF 		bl	swdptap_seq_in
 476              	.LVL57:
 477              		.loc 1 71 0
 478 006c 0128     		cmp	r0, #1
 479 006e 18D1     		bne	.L70
 480              		.loc 1 71 0 is_stmt 0 discriminator 1
 481 0070 2021     		movs	r1, #32
 482 0072 201D     		adds	r0, r4, #4
 483              	.LVL58:
 484 0074 FFF7FEFF 		bl	swdptap_seq_in_parity
 485              	.LVL59:
 486 0078 98B9     		cbnz	r0, .L70
 487              		.loc 1 78 0 is_stmt 1
 488 007a 0E49     		ldr	r1, .L73
 489              		.loc 1 79 0
 490 007c 0E4A     		ldr	r2, .L73+4
 491              		.loc 1 77 0
 492 007e 0F48     		ldr	r0, .L73+8
 493              		.loc 1 80 0
 494 0080 0F4B     		ldr	r3, .L73+12
 495              		.loc 1 77 0
 496 0082 2061     		str	r0, [r4, #16]
 497              		.loc 1 82 0
 498 0084 2046     		mov	r0, r4
 499              		.loc 1 80 0
 500 0086 E361     		str	r3, [r4, #28]
 501              		.loc 1 79 0
 502 0088 C4E90512 		strd	r1, r2, [r4, #20]
 503              		.loc 1 82 0
 504 008c FFF7FEFF 		bl	adiv5_swdp_error
 505              	.LVL60:
 506              		.loc 1 83 0
 507 0090 2046     		mov	r0, r4
 508 0092 FFF7FEFF 		bl	adiv5_dp_init
 509              	.LVL61:
 510              		.loc 1 85 0
 511 0096 0B4B     		ldr	r3, .L73+16
 512 0098 1868     		ldr	r0, [r3]
 513 009a 0030     		adds	r0, r0, #0
ARM GAS  /tmp/ccyW3Gtb.s 			page 10


 514 009c 18BF     		it	ne
 515 009e 0120     		movne	r0, #1
 516              		.loc 1 86 0
 517 00a0 38BD     		pop	{r3, r4, r5, pc}
 518              	.LVL62:
 519              	.L70:
 520              		.loc 1 72 0
 521 00a2 0948     		ldr	r0, .L73+20
 522 00a4 FFF7FEFF 		bl	commands_printf
 523              	.LVL63:
 524              	.L72:
 525              		.loc 1 73 0
 526 00a8 2046     		mov	r0, r4
 527 00aa FFF7FEFF 		bl	free
 528              	.LVL64:
 529              		.loc 1 74 0
 530 00ae 4FF0FF30 		mov	r0, #-1
 531              		.loc 1 86 0
 532 00b2 38BD     		pop	{r3, r4, r5, pc}
 533              	.LVL65:
 534              	.L74:
 535              		.align	2
 536              	.L73:
 537 00b4 00000000 		.word	adiv5_swdp_error
 538 00b8 00000000 		.word	adiv5_swdp_low_access
 539 00bc 00000000 		.word	adiv5_swdp_read
 540 00c0 00000000 		.word	adiv5_swdp_abort
 541 00c4 00000000 		.word	target_list
 542 00c8 00000000 		.word	.LC3
 543              		.cfi_endproc
 544              	.LFE263:
 545              		.size	adiv5_swdp_scan, .-adiv5_swdp_scan
 546              		.section	.rodata.adiv5_swdp_low_access.str1.4,"aMS",%progbits,1
 547              		.align	2
 548              	.LC0:
 549 0000 53574450 		.ascii	"SWDP invalid ACK\000"
 549      20696E76 
 549      616C6964 
 549      2041434B 
 549      00
 550 0011 000000   		.space	3
 551              	.LC1:
 552 0014 53574450 		.ascii	"SWDP Parity error\000"
 552      20506172 
 552      69747920 
 552      6572726F 
 552      7200
 553 0026 0000     		.space	2
 554              	.LC2:
 555 0028 53574450 		.ascii	"SWDP ACK timeout\000"
 555      2041434B 
 555      2074696D 
 555      656F7574 
 555      00
 556              		.section	.rodata.adiv5_swdp_scan.str1.4,"aMS",%progbits,1
 557              		.align	2
 558              	.LC3:
ARM GAS  /tmp/ccyW3Gtb.s 			page 11


 559 0000 0A00     		.ascii	"\012\000"
 560              		.text
 561              	.Letext0:
 562              		.file 3 "/usr/arm-none-eabi/include/machine/_default_types.h"
 563              		.file 4 "/usr/arm-none-eabi/include/sys/_stdint.h"
 564              		.file 5 "/usr/lib/gcc/arm-none-eabi/7.3.1/include/stddef.h"
 565              		.file 6 "/usr/arm-none-eabi/include/sys/lock.h"
 566              		.file 7 "/usr/arm-none-eabi/include/sys/_types.h"
 567              		.file 8 "/usr/arm-none-eabi/include/sys/reent.h"
 568              		.file 9 "/usr/arm-none-eabi/include/stdlib.h"
 569              		.file 10 "/usr/lib/gcc/arm-none-eabi/7.3.1/include/stdarg.h"
 570              		.file 11 "<built-in>"
 571              		.file 12 "/usr/arm-none-eabi/include/stdio.h"
 572              		.file 13 "/usr/arm-none-eabi/include/sys/types.h"
 573              		.file 14 "ChibiOS_3.0.2/os/rt/ports/ARMCMx/compilers/GCC/chtypes.h"
 574              		.file 15 "ChibiOS_3.0.2/os/rt/include/chsystypes.h"
 575              		.file 16 "ChibiOS_3.0.2/os/rt/include/chschd.h"
 576              		.file 17 "ChibiOS_3.0.2/os/ext/CMSIS/include/core_cm4.h"
 577              		.file 18 "ChibiOS_3.0.2/os/ext/CMSIS/ST/system_stm32f4xx.h"
 578              		.file 19 "ChibiOS_3.0.2/os/ext/CMSIS/ST/stm32f407xx.h"
 579              		.file 20 "ChibiOS_3.0.2/os/rt/ports/ARMCMx/chcore.h"
 580              		.file 21 "ChibiOS_3.0.2/os/rt/ports/ARMCMx/chcore_v7m.h"
 581              		.file 22 "ChibiOS_3.0.2/os/rt/include/chtm.h"
 582              		.file 23 "ChibiOS_3.0.2/os/rt/include/chsem.h"
 583              		.file 24 "ChibiOS_3.0.2/os/rt/include/chmtx.h"
 584              		.file 25 "ChibiOS_3.0.2/os/rt/include/chregistry.h"
 585              		.file 26 "ChibiOS_3.0.2/os/rt/include/chevents.h"
 586              		.file 27 "ChibiOS_3.0.2/os/rt/include/chqueues.h"
 587              		.file 28 "./conf_general.h"
 588              		.file 29 "ChibiOS_3.0.2/os/hal/ports/STM32/STM32F4xx/stm32_dma.h"
 589              		.file 30 "ChibiOS_3.0.2/os/hal/ports/STM32/LLD/GPIOv2/pal_lld.h"
 590              		.file 31 "ChibiOS_3.0.2/os/hal/include/can.h"
 591              		.file 32 "ChibiOS_3.0.2/os/hal/ports/STM32/LLD/can_lld.h"
 592              		.file 33 "ChibiOS_3.0.2/os/hal/include/i2c.h"
 593              		.file 34 "ChibiOS_3.0.2/os/hal/ports/STM32/LLD/I2Cv1/i2c_lld.h"
 594              		.file 35 "ChibiOS_3.0.2/os/hal/include/icu.h"
 595              		.file 36 "ChibiOS_3.0.2/os/hal/ports/STM32/LLD/TIMv1/icu_lld.h"
 596              		.file 37 "ChibiOS_3.0.2/os/hal/ports/STM32/LLD/TIMv1/stm32_tim.h"
 597              		.file 38 "ChibiOS_3.0.2/os/hal/include/serial.h"
 598              		.file 39 "ChibiOS_3.0.2/os/hal/ports/STM32/LLD/USARTv1/serial_lld.h"
 599              		.file 40 "ChibiOS_3.0.2/os/hal/include/spi.h"
 600              		.file 41 "ChibiOS_3.0.2/os/hal/ports/STM32/LLD/SPIv1/spi_lld.h"
 601              		.file 42 "ChibiOS_3.0.2/os/hal/include/usb.h"
 602              		.file 43 "ChibiOS_3.0.2/os/hal/ports/STM32/LLD/OTGv1/usb_lld.h"
 603              		.file 44 "ChibiOS_3.0.2/os/hal/ports/STM32/LLD/OTGv1/stm32_otg.h"
 604              		.file 45 "blackmagic/timing.h"
 605              		.file 46 "blackmagic/platform.h"
 606              		.file 47 "blackmagic/platform_support.h"
 607              		.file 48 "/usr/arm-none-eabi/include/machine/setjmp.h"
 608              		.file 49 "blackmagic/exception.h"
 609              		.file 50 "blackmagic/target/jtag_scan.h"
 610              		.file 51 "blackmagic/target.h"
 611              		.file 52 "blackmagic/target/target_internal.h"
 612              		.file 53 "blackmagic/swdptap.h"
 613              		.file 54 "./commands.h"