ARM GAS  /tmp/ccfTQtla.s 			page 1


   1              		.cpu cortex-m4
   2              		.eabi_attribute 27, 1
   3              		.eabi_attribute 28, 1
   4              		.eabi_attribute 20, 1
   5              		.eabi_attribute 21, 1
   6              		.eabi_attribute 23, 3
   7              		.eabi_attribute 24, 1
   8              		.eabi_attribute 25, 1
   9              		.eabi_attribute 26, 1
  10              		.eabi_attribute 30, 2
  11              		.eabi_attribute 34, 1
  12              		.eabi_attribute 18, 4
  13              		.file	"bm_if.c"
  14              		.text
  15              	.Ltext0:
  16              		.cfi_sections	.debug_frame
  17              		.section	.text.target_destroy_callback,"ax",%progbits
  18              		.align	1
  19              		.p2align 4,,15
  20              		.syntax unified
  21              		.thumb
  22              		.thumb_func
  23              		.fpu fpv4-sp-d16
  24              		.type	target_destroy_callback, %function
  25              	target_destroy_callback:
  26              	.LFB259:
  27              		.file 1 "blackmagic/bm_if.c"
  28              		.loc 1 36 0
  29              		.cfi_startproc
  30              		@ args = 0, pretend = 0, frame = 0
  31              		@ frame_needed = 0, uses_anonymous_args = 0
  32              		@ link register save eliminated.
  33              	.LVL0:
  34              		.loc 1 39 0
  35 0000 034B     		ldr	r3, .L4
  36 0002 1A68     		ldr	r2, [r3]
  37 0004 8A42     		cmp	r2, r1
  38              		.loc 1 40 0
  39 0006 04BF     		itt	eq
  40 0008 0022     		moveq	r2, #0
  41 000a 1A60     		streq	r2, [r3]
  42              		.loc 1 42 0
  43 000c 7047     		bx	lr
  44              	.L5:
  45 000e 00BF     		.align	2
  46              	.L4:
  47 0010 00000000 		.word	.LANCHOR0
  48              		.cfi_endproc
  49              	.LFE259:
  50              		.size	target_destroy_callback, .-target_destroy_callback
  51              		.section	.text.target_printf,"ax",%progbits
  52              		.align	1
  53              		.p2align 4,,15
  54              		.syntax unified
  55              		.thumb
  56              		.thumb_func
  57              		.fpu fpv4-sp-d16
ARM GAS  /tmp/ccfTQtla.s 			page 2


  58              		.type	target_printf, %function
  59              	target_printf:
  60              	.LFB260:
  61              		.loc 1 44 0
  62              		.cfi_startproc
  63              		@ args = 0, pretend = 0, frame = 8
  64              		@ frame_needed = 0, uses_anonymous_args = 0
  65              	.LVL1:
  66              		.loc 1 47 0
  67 0000 094B     		ldr	r3, .L17
  68 0002 1B78     		ldrb	r3, [r3]	@ zero_extendqisi2
  69 0004 03B9     		cbnz	r3, .L16
  70 0006 7047     		bx	lr
  71              	.L16:
  72              		.loc 1 44 0
  73 0008 00B5     		push	{lr}
  74              		.cfi_def_cfa_offset 4
  75              		.cfi_offset 14, -4
  76 000a 83B0     		sub	sp, sp, #12
  77              		.cfi_def_cfa_offset 16
  78              	.LBB5:
  79              		.loc 1 49 0
  80 000c 01A8     		add	r0, sp, #4
  81              	.LVL2:
  82 000e FFF7FEFF 		bl	vasprintf
  83              	.LVL3:
  84 0012 0028     		cmp	r0, #0
  85 0014 05DB     		blt	.L6
  86              		.loc 1 52 0
  87 0016 0198     		ldr	r0, [sp, #4]
  88 0018 FFF7FEFF 		bl	commands_printf
  89              	.LVL4:
  90              		.loc 1 53 0
  91 001c 0198     		ldr	r0, [sp, #4]
  92 001e FFF7FEFF 		bl	free
  93              	.LVL5:
  94              	.L6:
  95              	.LBE5:
  96              		.loc 1 55 0
  97 0022 03B0     		add	sp, sp, #12
  98              		.cfi_def_cfa_offset 4
  99              		@ sp needed
 100 0024 5DF804FB 		ldr	pc, [sp], #4
 101              	.L18:
 102              		.align	2
 103              	.L17:
 104 0028 00000000 		.word	.LANCHOR1
 105              		.cfi_endproc
 106              	.LFE260:
 107              		.size	target_printf, .-target_printf
 108              		.section	.text.display_target,"ax",%progbits
 109              		.align	1
 110              		.p2align 4,,15
 111              		.syntax unified
 112              		.thumb
 113              		.thumb_func
 114              		.fpu fpv4-sp-d16
ARM GAS  /tmp/ccfTQtla.s 			page 3


 115              		.type	display_target, %function
 116              	display_target:
 117              	.LFB261:
 118              		.loc 1 75 0
 119              		.cfi_startproc
 120              		@ args = 0, pretend = 0, frame = 0
 121              		@ frame_needed = 0, uses_anonymous_args = 0
 122              	.LVL6:
 123 0000 70B5     		push	{r4, r5, r6, lr}
 124              		.cfi_def_cfa_offset 16
 125              		.cfi_offset 4, -16
 126              		.cfi_offset 5, -12
 127              		.cfi_offset 6, -8
 128              		.cfi_offset 14, -4
 129              		.loc 1 75 0
 130 0002 0546     		mov	r5, r0
 131              		.loc 1 77 0
 132 0004 0846     		mov	r0, r1
 133              	.LVL7:
 134              		.loc 1 75 0
 135 0006 0C46     		mov	r4, r1
 136              		.loc 1 77 0
 137 0008 FFF7FEFF 		bl	target_attached
 138              	.LVL8:
 139 000c 0028     		cmp	r0, #0
 140 000e 2046     		mov	r0, r4
 141 0010 14BF     		ite	ne
 142 0012 2A26     		movne	r6, #42
 143 0014 2026     		moveq	r6, #32
 144 0016 FFF7FEFF 		bl	target_driver_name
 145              	.LVL9:
 146 001a 3246     		mov	r2, r6
 147 001c 0346     		mov	r3, r0
 148 001e 2946     		mov	r1, r5
 149 0020 0248     		ldr	r0, .L23
 150              		.loc 1 78 0
 151 0022 BDE87040 		pop	{r4, r5, r6, lr}
 152              		.cfi_restore 14
 153              		.cfi_restore 6
 154              		.cfi_restore 5
 155              		.cfi_restore 4
 156              		.cfi_def_cfa_offset 0
 157              	.LVL10:
 158              		.loc 1 77 0
 159 0026 FFF7FEBF 		b	commands_printf
 160              	.LVL11:
 161              	.L24:
 162 002a 00BF     		.align	2
 163              	.L23:
 164 002c 00000000 		.word	.LC0
 165              		.cfi_endproc
 166              	.LFE261:
 167              		.size	display_target, .-display_target
 168              		.section	.text.bm_init,"ax",%progbits
 169              		.align	1
 170              		.p2align 4,,15
 171              		.global	bm_init
ARM GAS  /tmp/ccfTQtla.s 			page 4


 172              		.syntax unified
 173              		.thumb
 174              		.thumb_func
 175              		.fpu fpv4-sp-d16
 176              		.type	bm_init, %function
 177              	bm_init:
 178              	.LFB269:
 179              		.loc 1 268 0
 180              		.cfi_startproc
 181              		@ args = 0, pretend = 0, frame = 0
 182              		@ frame_needed = 0, uses_anonymous_args = 0
 183 0000 10B5     		push	{r4, lr}
 184              		.cfi_def_cfa_offset 8
 185              		.cfi_offset 4, -8
 186              		.cfi_offset 14, -4
 187              		.loc 1 269 0
 188 0002 134B     		ldr	r3, .L27
 189 0004 1349     		ldr	r1, .L27+4
 190 0006 1448     		ldr	r0, .L27+8
 191 0008 0022     		movs	r2, #0
 192 000a FFF7FEFF 		bl	terminal_register_command_callback
 193              	.LVL12:
 194              		.loc 1 275 0
 195 000e 134B     		ldr	r3, .L27+12
 196 0010 134A     		ldr	r2, .L27+16
 197 0012 1449     		ldr	r1, .L27+20
 198 0014 1448     		ldr	r0, .L27+24
 199 0016 FFF7FEFF 		bl	terminal_register_command_callback
 200              	.LVL13:
 201              		.loc 1 281 0
 202 001a 144B     		ldr	r3, .L27+28
 203 001c 144A     		ldr	r2, .L27+32
 204 001e 1549     		ldr	r1, .L27+36
 205 0020 1548     		ldr	r0, .L27+40
 206 0022 FFF7FEFF 		bl	terminal_register_command_callback
 207              	.LVL14:
 208              		.loc 1 287 0
 209 0026 154B     		ldr	r3, .L27+44
 210 0028 1549     		ldr	r1, .L27+48
 211 002a 1648     		ldr	r0, .L27+52
 212 002c 0022     		movs	r2, #0
 213 002e FFF7FEFF 		bl	terminal_register_command_callback
 214              	.LVL15:
 215              		.loc 1 293 0
 216 0032 154B     		ldr	r3, .L27+56
 217 0034 154A     		ldr	r2, .L27+60
 218 0036 1649     		ldr	r1, .L27+64
 219 0038 1648     		ldr	r0, .L27+68
 220 003a FFF7FEFF 		bl	terminal_register_command_callback
 221              	.LVL16:
 222              		.loc 1 299 0
 223 003e 164B     		ldr	r3, .L27+72
 224 0040 1649     		ldr	r1, .L27+76
 225 0042 1748     		ldr	r0, .L27+80
 226 0044 0022     		movs	r2, #0
 227              		.loc 1 304 0
 228 0046 BDE81040 		pop	{r4, lr}
ARM GAS  /tmp/ccfTQtla.s 			page 5


 229              		.cfi_restore 14
 230              		.cfi_restore 4
 231              		.cfi_def_cfa_offset 0
 232              		.loc 1 299 0
 233 004a FFF7FEBF 		b	terminal_register_command_callback
 234              	.LVL17:
 235              	.L28:
 236 004e 00BF     		.align	2
 237              	.L27:
 238 0050 00000000 		.word	terminal_swdp_scan
 239 0054 00000000 		.word	.LC1
 240 0058 18000000 		.word	.LC2
 241 005c 00000000 		.word	terminal_attach
 242 0060 28000000 		.word	.LC3
 243 0064 30000000 		.word	.LC4
 244 0068 4C000000 		.word	.LC5
 245 006c 00000000 		.word	terminal_flash_erase
 246 0070 58000000 		.word	.LC6
 247 0074 6C000000 		.word	.LC7
 248 0078 8C000000 		.word	.LC8
 249 007c 00000000 		.word	terminal_target_help
 250 0080 9C000000 		.word	.LC9
 251 0084 C0000000 		.word	.LC10
 252 0088 00000000 		.word	terminal_target_cmd
 253 008c D0000000 		.word	.LC11
 254 0090 D8000000 		.word	.LC12
 255 0094 FC000000 		.word	.LC13
 256 0098 00000000 		.word	terminal_detach
 257 009c 0C010000 		.word	.LC14
 258 00a0 28010000 		.word	.LC15
 259              		.cfi_endproc
 260              	.LFE269:
 261              		.size	bm_init, .-bm_init
 262              		.section	.text.bm_set_enabled,"ax",%progbits
 263              		.align	1
 264              		.p2align 4,,15
 265              		.global	bm_set_enabled
 266              		.syntax unified
 267              		.thumb
 268              		.thumb_func
 269              		.fpu fpv4-sp-d16
 270              		.type	bm_set_enabled, %function
 271              	bm_set_enabled:
 272              	.LFB270:
 273              		.loc 1 316 0
 274              		.cfi_startproc
 275              		@ args = 0, pretend = 0, frame = 0
 276              		@ frame_needed = 0, uses_anonymous_args = 0
 277              	.LVL18:
 278              		.loc 1 319 0
 279 0000 1B4A     		ldr	r2, .L36
 280 0002 1378     		ldrb	r3, [r2]	@ zero_extendqisi2
 281 0004 8342     		cmp	r3, r0
 282 0006 32D0     		beq	.L29
 283 0008 1A49     		ldr	r1, .L36+4
 284 000a 0346     		mov	r3, r0
 285 000c 0968     		ldr	r1, [r1]
ARM GAS  /tmp/ccfTQtla.s 			page 6


 286 000e 1A48     		ldr	r0, .L36+8
 287              	.LVL19:
 288              		.loc 1 316 0
 289 0010 10B5     		push	{r4, lr}
 290              		.cfi_def_cfa_offset 8
 291              		.cfi_offset 4, -8
 292              		.cfi_offset 14, -4
 293 0012 0124     		movs	r4, #1
 294              		.loc 1 322 0
 295 0014 1370     		strb	r3, [r2]
 296 0016 04FA01F1 		lsl	r1, r4, r1
 297 001a 0068     		ldr	r0, [r0]
 298              		.loc 1 325 0
 299 001c CBB9     		cbnz	r3, .L35
 300              		.loc 1 329 0
 301 001e 0222     		movs	r2, #2
 302 0020 FFF7FEFF 		bl	_pal_lld_setgroupmode
 303              	.LVL20:
 304              		.loc 1 330 0
 305 0024 154A     		ldr	r2, .L36+12
 306 0026 164B     		ldr	r3, .L36+16
 307 0028 1168     		ldr	r1, [r2]
 308 002a 1868     		ldr	r0, [r3]
 309 002c 04FA01F1 		lsl	r1, r4, r1
 310 0030 0222     		movs	r2, #2
 311 0032 FFF7FEFF 		bl	_pal_lld_setgroupmode
 312              	.LVL21:
 313              		.loc 1 333 0
 314 0036 0222     		movs	r2, #2
 315 0038 4FF40051 		mov	r1, #8192
 316 003c 1148     		ldr	r0, .L36+20
 317 003e FFF7FEFF 		bl	_pal_lld_setgroupmode
 318              	.LVL22:
 319              		.loc 1 334 0
 320 0042 0222     		movs	r2, #2
 321 0044 4FF48041 		mov	r1, #16384
 322 0048 0E48     		ldr	r0, .L36+20
 323              		.loc 1 336 0
 324 004a BDE81040 		pop	{r4, lr}
 325              		.cfi_remember_state
 326              		.cfi_restore 14
 327              		.cfi_restore 4
 328              		.cfi_def_cfa_offset 0
 329              		.loc 1 334 0
 330 004e FFF7FEBF 		b	_pal_lld_setgroupmode
 331              	.LVL23:
 332              	.L35:
 333              		.cfi_restore_state
 334              	.LBB8:
 335              	.LBB9:
 336              		.loc 1 326 0
 337 0052 0022     		movs	r2, #0
 338 0054 FFF7FEFF 		bl	_pal_lld_setgroupmode
 339              	.LVL24:
 340              		.loc 1 327 0
 341 0058 084A     		ldr	r2, .L36+12
 342 005a 094B     		ldr	r3, .L36+16
ARM GAS  /tmp/ccfTQtla.s 			page 7


 343 005c 1168     		ldr	r1, [r2]
 344 005e 1868     		ldr	r0, [r3]
 345 0060 04FA01F1 		lsl	r1, r4, r1
 346 0064 1922     		movs	r2, #25
 347              	.LBE9:
 348              	.LBE8:
 349              		.loc 1 336 0
 350 0066 BDE81040 		pop	{r4, lr}
 351              		.cfi_restore 14
 352              		.cfi_restore 4
 353              		.cfi_def_cfa_offset 0
 354              	.LBB11:
 355              	.LBB10:
 356              		.loc 1 327 0
 357 006a FFF7FEBF 		b	_pal_lld_setgroupmode
 358              	.LVL25:
 359              	.L29:
 360 006e 7047     		bx	lr
 361              	.L37:
 362              		.align	2
 363              	.L36:
 364 0070 00000000 		.word	.LANCHOR2
 365 0074 00000000 		.word	platform_swdio_pin
 366 0078 00000000 		.word	platform_swdio_port
 367 007c 00000000 		.word	platform_swclk_pin
 368 0080 00000000 		.word	platform_swclk_port
 369 0084 00000240 		.word	1073872896
 370              	.LBE10:
 371              	.LBE11:
 372              		.cfi_endproc
 373              	.LFE270:
 374              		.size	bm_set_enabled, .-bm_set_enabled
 375              		.section	.text.terminal_detach,"ax",%progbits
 376              		.align	1
 377              		.p2align 4,,15
 378              		.syntax unified
 379              		.thumb
 380              		.thumb_func
 381              		.fpu fpv4-sp-d16
 382              		.type	terminal_detach, %function
 383              	terminal_detach:
 384              	.LFB268:
 385              		.loc 1 254 0
 386              		.cfi_startproc
 387              		@ args = 0, pretend = 0, frame = 0
 388              		@ frame_needed = 0, uses_anonymous_args = 0
 389              	.LVL26:
 390 0000 10B5     		push	{r4, lr}
 391              		.cfi_def_cfa_offset 8
 392              		.cfi_offset 4, -8
 393              		.cfi_offset 14, -4
 394              		.loc 1 258 0
 395 0002 0A4C     		ldr	r4, .L41
 396 0004 2068     		ldr	r0, [r4]
 397              	.LVL27:
 398 0006 58B1     		cbz	r0, .L39
 399              		.loc 1 259 0
ARM GAS  /tmp/ccfTQtla.s 			page 8


 400 0008 FFF7FEFF 		bl	target_detach
 401              	.LVL28:
 402              		.loc 1 260 0
 403 000c 0023     		movs	r3, #0
 404              		.loc 1 261 0
 405 000e 1846     		mov	r0, r3
 406              		.loc 1 260 0
 407 0010 2360     		str	r3, [r4]
 408              		.loc 1 261 0
 409 0012 FFF7FEFF 		bl	bm_set_enabled
 410              	.LVL29:
 411              		.loc 1 262 0
 412 0016 0648     		ldr	r0, .L41+4
 413              		.loc 1 266 0
 414 0018 BDE81040 		pop	{r4, lr}
 415              		.cfi_remember_state
 416              		.cfi_restore 14
 417              		.cfi_restore 4
 418              		.cfi_def_cfa_offset 0
 419              		.loc 1 262 0
 420 001c FFF7FEBF 		b	commands_printf
 421              	.LVL30:
 422              	.L39:
 423              		.cfi_restore_state
 424              		.loc 1 264 0
 425 0020 0448     		ldr	r0, .L41+8
 426              		.loc 1 266 0
 427 0022 BDE81040 		pop	{r4, lr}
 428              		.cfi_restore 14
 429              		.cfi_restore 4
 430              		.cfi_def_cfa_offset 0
 431              		.loc 1 264 0
 432 0026 FFF7FEBF 		b	commands_printf
 433              	.LVL31:
 434              	.L42:
 435 002a 00BF     		.align	2
 436              	.L41:
 437 002c 00000000 		.word	.LANCHOR0
 438 0030 00000000 		.word	.LC16
 439 0034 08000000 		.word	.LC17
 440              		.cfi_endproc
 441              	.LFE268:
 442              		.size	terminal_detach, .-terminal_detach
 443              		.section	.text.terminal_target_cmd,"ax",%progbits
 444              		.align	1
 445              		.p2align 4,,15
 446              		.syntax unified
 447              		.thumb
 448              		.thumb_func
 449              		.fpu fpv4-sp-d16
 450              		.type	terminal_target_cmd, %function
 451              	terminal_target_cmd:
 452              	.LFB267:
 453              		.loc 1 234 0
 454              		.cfi_startproc
 455              		@ args = 0, pretend = 0, frame = 0
 456              		@ frame_needed = 0, uses_anonymous_args = 0
ARM GAS  /tmp/ccfTQtla.s 			page 9


 457              	.LVL32:
 458 0000 70B5     		push	{r4, r5, r6, lr}
 459              		.cfi_def_cfa_offset 16
 460              		.cfi_offset 4, -16
 461              		.cfi_offset 5, -12
 462              		.cfi_offset 6, -8
 463              		.cfi_offset 14, -4
 464              		.loc 1 235 0
 465 0002 134E     		ldr	r6, .L50
 466 0004 3368     		ldr	r3, [r6]
 467 0006 CBB1     		cbz	r3, .L44
 468              	.LBB12:
 469              		.loc 1 236 0
 470 0008 0123     		movs	r3, #1
 471 000a 124A     		ldr	r2, .L50+4
 472 000c 0D46     		mov	r5, r1
 473 000e 0446     		mov	r4, r0
 474              		.loc 1 238 0
 475 0010 1846     		mov	r0, r3
 476              	.LVL33:
 477              		.loc 1 236 0
 478 0012 1370     		strb	r3, [r2]
 479              		.loc 1 238 0
 480 0014 FFF7FEFF 		bl	bm_set_enabled
 481              	.LVL34:
 482              		.loc 1 240 0
 483 0018 611E     		subs	r1, r4, #1
 484 001a 2A1D     		adds	r2, r5, #4
 485 001c 3068     		ldr	r0, [r6]
 486 001e FFF7FEFF 		bl	target_command
 487              	.LVL35:
 488              		.loc 1 242 0
 489 0022 011E     		subs	r1, r0, #0
 490 0024 05D0     		beq	.L48
 491              		.loc 1 244 0
 492 0026 0EDB     		blt	.L49
 493              		.loc 1 247 0
 494 0028 0B48     		ldr	r0, .L50+8
 495              	.LVL36:
 496              	.LBE12:
 497              		.loc 1 252 0
 498 002a BDE87040 		pop	{r4, r5, r6, lr}
 499              		.cfi_remember_state
 500              		.cfi_restore 14
 501              		.cfi_restore 6
 502              		.cfi_restore 5
 503              		.cfi_restore 4
 504              		.cfi_def_cfa_offset 0
 505              	.LVL37:
 506              	.LBB13:
 507              		.loc 1 247 0
 508 002e FFF7FEBF 		b	commands_printf
 509              	.LVL38:
 510              	.L48:
 511              		.cfi_restore_state
 512              		.loc 1 243 0
 513 0032 0A48     		ldr	r0, .L50+12
ARM GAS  /tmp/ccfTQtla.s 			page 10


 514              	.LVL39:
 515              	.LBE13:
 516              		.loc 1 252 0
 517 0034 BDE87040 		pop	{r4, r5, r6, lr}
 518              		.cfi_remember_state
 519              		.cfi_restore 14
 520              		.cfi_restore 6
 521              		.cfi_restore 5
 522              		.cfi_restore 4
 523              		.cfi_def_cfa_offset 0
 524              	.LVL40:
 525              	.LBB14:
 526              		.loc 1 243 0
 527 0038 FFF7FEBF 		b	commands_printf
 528              	.LVL41:
 529              	.L44:
 530              		.cfi_restore_state
 531              	.LBE14:
 532              		.loc 1 250 0
 533 003c 0848     		ldr	r0, .L50+16
 534              	.LVL42:
 535              		.loc 1 252 0
 536 003e BDE87040 		pop	{r4, r5, r6, lr}
 537              		.cfi_remember_state
 538              		.cfi_restore 14
 539              		.cfi_restore 6
 540              		.cfi_restore 5
 541              		.cfi_restore 4
 542              		.cfi_def_cfa_offset 0
 543              		.loc 1 250 0
 544 0042 FFF7FEBF 		b	commands_printf
 545              	.LVL43:
 546              	.L49:
 547              		.cfi_restore_state
 548              	.LBB15:
 549              		.loc 1 245 0
 550 0046 0748     		ldr	r0, .L50+20
 551              	.LVL44:
 552              	.LBE15:
 553              		.loc 1 252 0
 554 0048 BDE87040 		pop	{r4, r5, r6, lr}
 555              		.cfi_restore 14
 556              		.cfi_restore 6
 557              		.cfi_restore 5
 558              		.cfi_restore 4
 559              		.cfi_def_cfa_offset 0
 560              	.LVL45:
 561              	.LBB16:
 562              		.loc 1 245 0
 563 004c FFF7FEBF 		b	commands_printf
 564              	.LVL46:
 565              	.L51:
 566              		.align	2
 567              	.L50:
 568 0050 00000000 		.word	.LANCHOR0
 569 0054 00000000 		.word	.LANCHOR1
 570 0058 14000000 		.word	.LC19
ARM GAS  /tmp/ccfTQtla.s 			page 11


 571 005c 00000000 		.word	.LC16
 572 0060 08000000 		.word	.LC17
 573 0064 00000000 		.word	.LC18
 574              	.LBE16:
 575              		.cfi_endproc
 576              	.LFE267:
 577              		.size	terminal_target_cmd, .-terminal_target_cmd
 578              		.section	.text.terminal_target_help,"ax",%progbits
 579              		.align	1
 580              		.p2align 4,,15
 581              		.syntax unified
 582              		.thumb
 583              		.thumb_func
 584              		.fpu fpv4-sp-d16
 585              		.type	terminal_target_help, %function
 586              	terminal_target_help:
 587              	.LFB266:
 588              		.loc 1 221 0
 589              		.cfi_startproc
 590              		@ args = 0, pretend = 0, frame = 0
 591              		@ frame_needed = 0, uses_anonymous_args = 0
 592              	.LVL47:
 593 0000 10B5     		push	{r4, lr}
 594              		.cfi_def_cfa_offset 8
 595              		.cfi_offset 4, -8
 596              		.cfi_offset 14, -4
 597              		.loc 1 225 0
 598 0002 094C     		ldr	r4, .L55
 599 0004 2368     		ldr	r3, [r4]
 600 0006 53B1     		cbz	r3, .L53
 601              	.LVL48:
 602              	.LBB19:
 603              	.LBB20:
 604              		.loc 1 226 0
 605 0008 0120     		movs	r0, #1
 606              	.LVL49:
 607 000a FFF7FEFF 		bl	bm_set_enabled
 608              	.LVL50:
 609              		.loc 1 227 0
 610 000e 074B     		ldr	r3, .L55+4
 611              		.loc 1 228 0
 612 0010 2068     		ldr	r0, [r4]
 613              		.loc 1 227 0
 614 0012 0122     		movs	r2, #1
 615              	.LBE20:
 616              	.LBE19:
 617              		.loc 1 232 0
 618 0014 BDE81040 		pop	{r4, lr}
 619              		.cfi_remember_state
 620              		.cfi_restore 14
 621              		.cfi_restore 4
 622              		.cfi_def_cfa_offset 0
 623              	.LBB22:
 624              	.LBB21:
 625              		.loc 1 227 0
 626 0018 1A70     		strb	r2, [r3]
 627              		.loc 1 228 0
ARM GAS  /tmp/ccfTQtla.s 			page 12


 628 001a FFF7FEBF 		b	target_command_help
 629              	.LVL51:
 630              	.L53:
 631              		.cfi_restore_state
 632              	.LBE21:
 633              	.LBE22:
 634              		.loc 1 230 0
 635 001e 0448     		ldr	r0, .L55+8
 636              	.LVL52:
 637              		.loc 1 232 0
 638 0020 BDE81040 		pop	{r4, lr}
 639              		.cfi_restore 14
 640              		.cfi_restore 4
 641              		.cfi_def_cfa_offset 0
 642              		.loc 1 230 0
 643 0024 FFF7FEBF 		b	commands_printf
 644              	.LVL53:
 645              	.L56:
 646              		.align	2
 647              	.L55:
 648 0028 00000000 		.word	.LANCHOR0
 649 002c 00000000 		.word	.LANCHOR1
 650 0030 08000000 		.word	.LC17
 651              		.cfi_endproc
 652              	.LFE266:
 653              		.size	terminal_target_help, .-terminal_target_help
 654              		.section	.text.terminal_flash_erase,"ax",%progbits
 655              		.align	1
 656              		.p2align 4,,15
 657              		.syntax unified
 658              		.thumb
 659              		.thumb_func
 660              		.fpu fpv4-sp-d16
 661              		.type	terminal_flash_erase, %function
 662              	terminal_flash_erase:
 663              	.LFB265:
 664              		.loc 1 191 0
 665              		.cfi_startproc
 666              		@ args = 0, pretend = 0, frame = 8
 667              		@ frame_needed = 0, uses_anonymous_args = 0
 668              	.LVL54:
 669 0000 10B5     		push	{r4, lr}
 670              		.cfi_def_cfa_offset 8
 671              		.cfi_offset 4, -8
 672              		.cfi_offset 14, -4
 673              		.loc 1 192 0
 674 0002 0328     		cmp	r0, #3
 675              		.loc 1 191 0
 676 0004 82B0     		sub	sp, sp, #8
 677              		.cfi_def_cfa_offset 16
 678              		.loc 1 192 0
 679 0006 04D0     		beq	.L65
 680              		.loc 1 217 0
 681 0008 1C48     		ldr	r0, .L66
 682              	.LVL55:
 683 000a FFF7FEFF 		bl	commands_printf
 684              	.LVL56:
ARM GAS  /tmp/ccfTQtla.s 			page 13


 685              	.L57:
 686              		.loc 1 219 0
 687 000e 02B0     		add	sp, sp, #8
 688              		.cfi_remember_state
 689              		.cfi_def_cfa_offset 8
 690              		@ sp needed
 691 0010 10BD     		pop	{r4, pc}
 692              	.LVL57:
 693              	.L65:
 694              		.cfi_restore_state
 695 0012 0C46     		mov	r4, r1
 696              	.LVL58:
 697              	.LBB27:
 698              	.LBB28:
 699              		.loc 1 193 0
 700 0014 4FF0FF33 		mov	r3, #-1
 701              		.loc 1 195 0
 702 0018 6A46     		mov	r2, sp
 703 001a 1949     		ldr	r1, .L66+4
 704              	.LVL59:
 705 001c 6068     		ldr	r0, [r4, #4]
 706              	.LVL60:
 707              		.loc 1 194 0
 708 001e CDE90033 		strd	r3, r3, [sp]
 709              		.loc 1 195 0
 710 0022 FFF7FEFF 		bl	sscanf
 711              	.LVL61:
 712              		.loc 1 196 0
 713 0026 A068     		ldr	r0, [r4, #8]
 714 0028 1649     		ldr	r1, .L66+8
 715 002a 01AA     		add	r2, sp, #4
 716 002c FFF7FEFF 		bl	sscanf
 717              	.LVL62:
 718              		.loc 1 198 0
 719 0030 019B     		ldr	r3, [sp, #4]
 720 0032 002B     		cmp	r3, #0
 721 0034 1DDB     		blt	.L59
 722              		.loc 1 199 0
 723 0036 144C     		ldr	r4, .L66+12
 724              	.LVL63:
 725 0038 2368     		ldr	r3, [r4]
 726 003a 93B1     		cbz	r3, .L60
 727              	.LBB29:
 728              		.loc 1 200 0
 729 003c 0120     		movs	r0, #1
 730 003e FFF7FEFF 		bl	bm_set_enabled
 731              	.LVL64:
 732              		.loc 1 201 0
 733 0042 124B     		ldr	r3, .L66+16
 734              		.loc 1 202 0
 735 0044 2068     		ldr	r0, [r4]
 736              		.loc 1 201 0
 737 0046 0122     		movs	r2, #1
 738 0048 1A70     		strb	r2, [r3]
 739              		.loc 1 202 0
 740 004a FFF7FEFF 		bl	target_reset
 741              	.LVL65:
ARM GAS  /tmp/ccfTQtla.s 			page 14


 742              		.loc 1 203 0
 743 004e 2068     		ldr	r0, [r4]
 744 0050 DDE90012 		ldrd	r1, r2, [sp]
 745 0054 FFF7FEFF 		bl	target_flash_erase
 746              	.LVL66:
 747              		.loc 1 205 0
 748 0058 38B9     		cbnz	r0, .L61
 749              		.loc 1 206 0
 750 005a 0D48     		ldr	r0, .L66+20
 751              	.LVL67:
 752 005c FFF7FEFF 		bl	commands_printf
 753              	.LVL68:
 754 0060 D5E7     		b	.L57
 755              	.L60:
 756              	.LBE29:
 757              		.loc 1 211 0
 758 0062 0C48     		ldr	r0, .L66+24
 759 0064 FFF7FEFF 		bl	commands_printf
 760              	.LVL69:
 761 0068 D1E7     		b	.L57
 762              	.LVL70:
 763              	.L61:
 764              	.LBB30:
 765              		.loc 1 208 0
 766 006a 0B48     		ldr	r0, .L66+28
 767              	.LVL71:
 768 006c FFF7FEFF 		bl	commands_printf
 769              	.LVL72:
 770 0070 CDE7     		b	.L57
 771              	.LVL73:
 772              	.L59:
 773              	.LBE30:
 774              		.loc 1 214 0
 775 0072 0A48     		ldr	r0, .L66+32
 776 0074 FFF7FEFF 		bl	commands_printf
 777              	.LVL74:
 778 0078 C9E7     		b	.L57
 779              	.L67:
 780 007a 00BF     		.align	2
 781              	.L66:
 782 007c 3C000000 		.word	.LC25
 783 0080 00000000 		.word	.LC20
 784 0084 04000000 		.word	.LC21
 785 0088 00000000 		.word	.LANCHOR0
 786 008c 00000000 		.word	.LANCHOR1
 787 0090 08000000 		.word	.LC22
 788 0094 08000000 		.word	.LC17
 789 0098 10000000 		.word	.LC23
 790 009c 24000000 		.word	.LC24
 791              	.LBE28:
 792              	.LBE27:
 793              		.cfi_endproc
 794              	.LFE265:
 795              		.size	terminal_flash_erase, .-terminal_flash_erase
 796              		.section	.text.terminal_attach,"ax",%progbits
 797              		.align	1
 798              		.p2align 4,,15
ARM GAS  /tmp/ccfTQtla.s 			page 15


 799              		.syntax unified
 800              		.thumb
 801              		.thumb_func
 802              		.fpu fpv4-sp-d16
 803              		.type	terminal_attach, %function
 804              	terminal_attach:
 805              	.LFB264:
 806              		.loc 1 168 0
 807              		.cfi_startproc
 808              		@ args = 0, pretend = 0, frame = 8
 809              		@ frame_needed = 0, uses_anonymous_args = 0
 810              	.LVL75:
 811 0000 00B5     		push	{lr}
 812              		.cfi_def_cfa_offset 4
 813              		.cfi_offset 14, -4
 814              		.loc 1 169 0
 815 0002 0228     		cmp	r0, #2
 816              		.loc 1 168 0
 817 0004 83B0     		sub	sp, sp, #12
 818              		.cfi_def_cfa_offset 16
 819              		.loc 1 169 0
 820 0006 05D0     		beq	.L75
 821              		.loc 1 187 0
 822 0008 1748     		ldr	r0, .L76
 823              	.LVL76:
 824 000a FFF7FEFF 		bl	commands_printf
 825              	.LVL77:
 826              	.L68:
 827              		.loc 1 189 0
 828 000e 03B0     		add	sp, sp, #12
 829              		.cfi_remember_state
 830              		.cfi_def_cfa_offset 4
 831              		@ sp needed
 832 0010 5DF804FB 		ldr	pc, [sp], #4
 833              	.LVL78:
 834              	.L75:
 835              		.cfi_restore_state
 836              	.LBB34:
 837              	.LBB35:
 838              		.loc 1 170 0
 839 0014 02AA     		add	r2, sp, #8
 840 0016 4FF0FF33 		mov	r3, #-1
 841 001a 42F8043D 		str	r3, [r2, #-4]!
 842              		.loc 1 171 0
 843 001e 4868     		ldr	r0, [r1, #4]
 844              	.LVL79:
 845 0020 1249     		ldr	r1, .L76+4
 846              	.LVL80:
 847 0022 FFF7FEFF 		bl	sscanf
 848              	.LVL81:
 849              		.loc 1 173 0
 850 0026 019B     		ldr	r3, [sp, #4]
 851 0028 002B     		cmp	r3, #0
 852 002a 16DB     		blt	.L70
 853              		.loc 1 174 0
 854 002c 0120     		movs	r0, #1
 855 002e FFF7FEFF 		bl	bm_set_enabled
ARM GAS  /tmp/ccfTQtla.s 			page 16


 856              	.LVL82:
 857              		.loc 1 175 0
 858 0032 0F4B     		ldr	r3, .L76+8
 859              		.loc 1 176 0
 860 0034 0F49     		ldr	r1, .L76+12
 861 0036 0198     		ldr	r0, [sp, #4]
 862              		.loc 1 175 0
 863 0038 0122     		movs	r2, #1
 864 003a 1A70     		strb	r2, [r3]
 865              		.loc 1 176 0
 866 003c FFF7FEFF 		bl	target_attach_n
 867              	.LVL83:
 868 0040 0D4B     		ldr	r3, .L76+16
 869 0042 1860     		str	r0, [r3]
 870              		.loc 1 178 0
 871 0044 28B1     		cbz	r0, .L71
 872              		.loc 1 179 0
 873 0046 0D48     		ldr	r0, .L76+20
 874 0048 FFF7FEFF 		bl	commands_printf
 875              	.LVL84:
 876              	.LBE35:
 877              	.LBE34:
 878              		.loc 1 189 0
 879 004c 03B0     		add	sp, sp, #12
 880              		.cfi_remember_state
 881              		.cfi_def_cfa_offset 4
 882              		@ sp needed
 883 004e 5DF804FB 		ldr	pc, [sp], #4
 884              	.L71:
 885              		.cfi_restore_state
 886              	.LBB37:
 887              	.LBB36:
 888              		.loc 1 181 0
 889 0052 0B48     		ldr	r0, .L76+24
 890 0054 FFF7FEFF 		bl	commands_printf
 891              	.LVL85:
 892 0058 D9E7     		b	.L68
 893              	.L70:
 894              		.loc 1 184 0
 895 005a 0A48     		ldr	r0, .L76+28
 896 005c FFF7FEFF 		bl	commands_printf
 897              	.LVL86:
 898              	.LBE36:
 899              	.LBE37:
 900              		.loc 1 189 0
 901 0060 03B0     		add	sp, sp, #12
 902              		.cfi_def_cfa_offset 4
 903              		@ sp needed
 904 0062 5DF804FB 		ldr	pc, [sp], #4
 905              	.L77:
 906 0066 00BF     		.align	2
 907              	.L76:
 908 0068 30000000 		.word	.LC28
 909 006c 04000000 		.word	.LC21
 910 0070 00000000 		.word	.LANCHOR1
 911 0074 00000000 		.word	.LANCHOR3
 912 0078 00000000 		.word	.LANCHOR0
ARM GAS  /tmp/ccfTQtla.s 			page 17


 913 007c 08000000 		.word	.LC22
 914 0080 00000000 		.word	.LC26
 915 0084 1C000000 		.word	.LC27
 916              		.cfi_endproc
 917              	.LFE264:
 918              		.size	terminal_attach, .-terminal_attach
 919              		.section	.text.terminal_swdp_scan,"ax",%progbits
 920              		.align	1
 921              		.p2align 4,,15
 922              		.syntax unified
 923              		.thumb
 924              		.thumb_func
 925              		.fpu fpv4-sp-d16
 926              		.type	terminal_swdp_scan, %function
 927              	terminal_swdp_scan:
 928              	.LFB263:
 929              		.loc 1 145 0
 930              		.cfi_startproc
 931              		@ args = 0, pretend = 0, frame = 0
 932              		@ frame_needed = 0, uses_anonymous_args = 0
 933              	.LVL87:
 934 0000 38B5     		push	{r3, r4, r5, lr}
 935              		.cfi_def_cfa_offset 16
 936              		.cfi_offset 3, -16
 937              		.cfi_offset 4, -12
 938              		.cfi_offset 5, -8
 939              		.cfi_offset 14, -4
 940              		.loc 1 149 0
 941 0002 0124     		movs	r4, #1
 942 0004 0F4D     		ldr	r5, .L84
 943              		.loc 1 151 0
 944 0006 2046     		mov	r0, r4
 945              	.LVL88:
 946              		.loc 1 149 0
 947 0008 2C70     		strb	r4, [r5]
 948              		.loc 1 151 0
 949 000a FFF7FEFF 		bl	bm_set_enabled
 950              	.LVL89:
 951              		.loc 1 152 0
 952 000e 2C70     		strb	r4, [r5]
 953              		.loc 1 154 0
 954 0010 FFF7FEFF 		bl	adiv5_swdp_scan
 955              	.LVL90:
 956              		.loc 1 156 0
 957 0014 0028     		cmp	r0, #0
 958 0016 10DD     		ble	.L82
 959              	.LVL91:
 960              	.LBB40:
 961              	.LBB41:
 962              		.loc 1 159 0
 963 0018 0B48     		ldr	r0, .L84+4
 964              	.LVL92:
 965 001a FFF7FEFF 		bl	commands_printf
 966              	.LVL93:
 967              		.loc 1 160 0
 968 001e 0B48     		ldr	r0, .L84+8
 969 0020 FFF7FEFF 		bl	commands_printf
ARM GAS  /tmp/ccfTQtla.s 			page 18


 970              	.LVL94:
 971              		.loc 1 162 0
 972 0024 0021     		movs	r1, #0
 973 0026 0A48     		ldr	r0, .L84+12
 974 0028 FFF7FEFF 		bl	target_foreach
 975              	.LVL95:
 976 002c 00B1     		cbz	r0, .L83
 977              	.LBE41:
 978              	.LBE40:
 979              		.loc 1 166 0
 980 002e 38BD     		pop	{r3, r4, r5, pc}
 981              	.L83:
 982              	.LBB44:
 983              	.LBB42:
 984              		.loc 1 163 0
 985 0030 0848     		ldr	r0, .L84+16
 986              	.LBE42:
 987              	.LBE44:
 988              		.loc 1 166 0
 989 0032 BDE83840 		pop	{r3, r4, r5, lr}
 990              		.cfi_remember_state
 991              		.cfi_restore 14
 992              		.cfi_restore 5
 993              		.cfi_restore 4
 994              		.cfi_restore 3
 995              		.cfi_def_cfa_offset 0
 996              	.LBB45:
 997              	.LBB43:
 998              		.loc 1 163 0
 999 0036 FFF7FEBF 		b	commands_printf
 1000              	.LVL96:
 1001              	.L82:
 1002              		.cfi_restore_state
 1003              	.LBE43:
 1004              	.LBE45:
 1005              		.loc 1 157 0
 1006 003a 0748     		ldr	r0, .L84+20
 1007              	.LVL97:
 1008              		.loc 1 166 0
 1009 003c BDE83840 		pop	{r3, r4, r5, lr}
 1010              		.cfi_restore 14
 1011              		.cfi_restore 5
 1012              		.cfi_restore 4
 1013              		.cfi_restore 3
 1014              		.cfi_def_cfa_offset 0
 1015              		.loc 1 157 0
 1016 0040 FFF7FEBF 		b	commands_printf
 1017              	.LVL98:
 1018              	.L85:
 1019              		.align	2
 1020              	.L84:
 1021 0044 00000000 		.word	.LANCHOR1
 1022 0048 14000000 		.word	.LC30
 1023 004c 28000000 		.word	.LC31
 1024 0050 00000000 		.word	display_target
 1025 0054 38000000 		.word	.LC32
 1026 0058 00000000 		.word	.LC29
ARM GAS  /tmp/ccfTQtla.s 			page 19


 1027              		.cfi_endproc
 1028              	.LFE263:
 1029              		.size	terminal_swdp_scan, .-terminal_swdp_scan
 1030              		.section	.text.bm_erase_flash_all,"ax",%progbits
 1031              		.align	1
 1032              		.p2align 4,,15
 1033              		.global	bm_erase_flash_all
 1034              		.syntax unified
 1035              		.thumb
 1036              		.thumb_func
 1037              		.fpu fpv4-sp-d16
 1038              		.type	bm_erase_flash_all, %function
 1039              	bm_erase_flash_all:
 1040              	.LFB272:
 1041              		.loc 1 385 0
 1042              		.cfi_startproc
 1043              		@ args = 0, pretend = 0, frame = 8
 1044              		@ frame_needed = 0, uses_anonymous_args = 0
 1045              	.LVL99:
 1046 0000 10B5     		push	{r4, lr}
 1047              		.cfi_def_cfa_offset 8
 1048              		.cfi_offset 4, -8
 1049              		.cfi_offset 14, -4
 1050              		.loc 1 388 0
 1051 0002 0D4C     		ldr	r4, .L92
 1052 0004 2068     		ldr	r0, [r4]
 1053              		.loc 1 385 0
 1054 0006 82B0     		sub	sp, sp, #8
 1055              		.cfi_def_cfa_offset 16
 1056              		.loc 1 388 0
 1057 0008 98B1     		cbz	r0, .L89
 1058              	.LBB46:
 1059              		.loc 1 389 0
 1060 000a 0C4B     		ldr	r3, .L92+4
 1061 000c 0022     		movs	r2, #0
 1062 000e 1A70     		strb	r2, [r3]
 1063              		.loc 1 391 0
 1064 0010 FFF7FEFF 		bl	target_reset
 1065              	.LVL100:
 1066              		.loc 1 393 0
 1067 0014 02AA     		add	r2, sp, #8
 1068 0016 0A4B     		ldr	r3, .L92+8
 1069 0018 42F8043D 		str	r3, [r2, #-4]!
 1070              		.loc 1 394 0
 1071 001c 2068     		ldr	r0, [r4]
 1072 001e 0121     		movs	r1, #1
 1073 0020 FFF7FEFF 		bl	target_command
 1074              	.LVL101:
 1075 0024 0028     		cmp	r0, #0
 1076 0026 14BF     		ite	ne
 1077 0028 6FF00200 		mvnne	r0, #2
 1078 002c 0120     		moveq	r0, #1
 1079              	.L86:
 1080              	.LBE46:
 1081              		.loc 1 433 0
 1082 002e 02B0     		add	sp, sp, #8
 1083              		.cfi_remember_state
ARM GAS  /tmp/ccfTQtla.s 			page 20


 1084              		.cfi_def_cfa_offset 8
 1085              		@ sp needed
 1086 0030 10BD     		pop	{r4, pc}
 1087              	.L89:
 1088              		.cfi_restore_state
 1089              		.loc 1 386 0
 1090 0032 4FF0FF30 		mov	r0, #-1
 1091              		.loc 1 432 0
 1092 0036 FAE7     		b	.L86
 1093              	.L93:
 1094              		.align	2
 1095              	.L92:
 1096 0038 00000000 		.word	.LANCHOR0
 1097 003c 00000000 		.word	.LANCHOR1
 1098 0040 00000000 		.word	.LC33
 1099              		.cfi_endproc
 1100              	.LFE272:
 1101              		.size	bm_erase_flash_all, .-bm_erase_flash_all
 1102              		.section	.text.bm_write_flash,"ax",%progbits
 1103              		.align	1
 1104              		.p2align 4,,15
 1105              		.global	bm_write_flash
 1106              		.syntax unified
 1107              		.thumb
 1108              		.thumb_func
 1109              		.fpu fpv4-sp-d16
 1110              		.type	bm_write_flash, %function
 1111              	bm_write_flash:
 1112              	.LFB273:
 1113              		.loc 1 452 0
 1114              		.cfi_startproc
 1115              		@ args = 0, pretend = 0, frame = 0
 1116              		@ frame_needed = 0, uses_anonymous_args = 0
 1117              	.LVL102:
 1118 0000 38B5     		push	{r3, r4, r5, lr}
 1119              		.cfi_def_cfa_offset 16
 1120              		.cfi_offset 3, -16
 1121              		.cfi_offset 4, -12
 1122              		.cfi_offset 5, -8
 1123              		.cfi_offset 14, -4
 1124              		.loc 1 455 0
 1125 0002 0A4B     		ldr	r3, .L99
 1126 0004 1C68     		ldr	r4, [r3]
 1127 0006 74B1     		cbz	r4, .L96
 1128              		.loc 1 456 0
 1129 0008 094D     		ldr	r5, .L99+4
 1130 000a 1346     		mov	r3, r2
 1131 000c 0A46     		mov	r2, r1
 1132              	.LVL103:
 1133 000e 0146     		mov	r1, r0
 1134              	.LVL104:
 1135              		.loc 1 457 0
 1136 0010 2046     		mov	r0, r4
 1137              	.LVL105:
 1138              		.loc 1 456 0
 1139 0012 0024     		movs	r4, #0
 1140 0014 2C70     		strb	r4, [r5]
ARM GAS  /tmp/ccfTQtla.s 			page 21


 1141              		.loc 1 457 0
 1142 0016 FFF7FEFF 		bl	target_flash_write
 1143              	.LVL106:
 1144 001a A042     		cmp	r0, r4
 1145 001c 14BF     		ite	ne
 1146 001e 6FF00100 		mvnne	r0, #1
 1147 0022 0120     		moveq	r0, #1
 1148              		.loc 1 461 0
 1149 0024 38BD     		pop	{r3, r4, r5, pc}
 1150              	.LVL107:
 1151              	.L96:
 1152              		.loc 1 453 0
 1153 0026 4FF0FF30 		mov	r0, #-1
 1154              	.LVL108:
 1155              		.loc 1 461 0
 1156 002a 38BD     		pop	{r3, r4, r5, pc}
 1157              	.L100:
 1158              		.align	2
 1159              	.L99:
 1160 002c 00000000 		.word	.LANCHOR0
 1161 0030 00000000 		.word	.LANCHOR1
 1162              		.cfi_endproc
 1163              	.LFE273:
 1164              		.size	bm_write_flash, .-bm_write_flash
 1165              		.section	.text.bm_mem_read,"ax",%progbits
 1166              		.align	1
 1167              		.p2align 4,,15
 1168              		.global	bm_mem_read
 1169              		.syntax unified
 1170              		.thumb
 1171              		.thumb_func
 1172              		.fpu fpv4-sp-d16
 1173              		.type	bm_mem_read, %function
 1174              	bm_mem_read:
 1175              	.LFB274:
 1176              		.loc 1 480 0
 1177              		.cfi_startproc
 1178              		@ args = 0, pretend = 0, frame = 0
 1179              		@ frame_needed = 0, uses_anonymous_args = 0
 1180              	.LVL109:
 1181 0000 F8B5     		push	{r3, r4, r5, r6, r7, lr}
 1182              		.cfi_def_cfa_offset 24
 1183              		.cfi_offset 3, -24
 1184              		.cfi_offset 4, -20
 1185              		.cfi_offset 5, -16
 1186              		.cfi_offset 6, -12
 1187              		.cfi_offset 7, -8
 1188              		.cfi_offset 14, -4
 1189              		.loc 1 483 0
 1190 0002 0D4F     		ldr	r7, .L106
 1191 0004 3B68     		ldr	r3, [r7]
 1192 0006 A3B1     		cbz	r3, .L103
 1193 0008 1646     		mov	r6, r2
 1194              		.loc 1 484 0
 1195 000a 0C4A     		ldr	r2, .L106+4
 1196              	.LVL110:
 1197 000c 0C46     		mov	r4, r1
ARM GAS  /tmp/ccfTQtla.s 			page 22


 1198 000e 0546     		mov	r5, r0
 1199              		.loc 1 485 0
 1200 0010 1846     		mov	r0, r3
 1201              	.LVL111:
 1202              		.loc 1 484 0
 1203 0012 0023     		movs	r3, #0
 1204 0014 1370     		strb	r3, [r2]
 1205              		.loc 1 485 0
 1206 0016 FFF7FEFF 		bl	target_flash_done
 1207              	.LVL112:
 1208              		.loc 1 486 0
 1209 001a 3346     		mov	r3, r6
 1210 001c 2A46     		mov	r2, r5
 1211 001e 2146     		mov	r1, r4
 1212 0020 3868     		ldr	r0, [r7]
 1213 0022 FFF7FEFF 		bl	target_mem_read
 1214              	.LVL113:
 1215 0026 0028     		cmp	r0, #0
 1216 0028 14BF     		ite	ne
 1217 002a 6FF00100 		mvnne	r0, #1
 1218 002e 0120     		moveq	r0, #1
 1219              		.loc 1 490 0
 1220 0030 F8BD     		pop	{r3, r4, r5, r6, r7, pc}
 1221              	.LVL114:
 1222              	.L103:
 1223              		.loc 1 481 0
 1224 0032 4FF0FF30 		mov	r0, #-1
 1225              	.LVL115:
 1226              		.loc 1 490 0
 1227 0036 F8BD     		pop	{r3, r4, r5, r6, r7, pc}
 1228              	.L107:
 1229              		.align	2
 1230              	.L106:
 1231 0038 00000000 		.word	.LANCHOR0
 1232 003c 00000000 		.word	.LANCHOR1
 1233              		.cfi_endproc
 1234              	.LFE274:
 1235              		.size	bm_mem_read, .-bm_mem_read
 1236              		.section	.text.bm_reboot,"ax",%progbits
 1237              		.align	1
 1238              		.p2align 4,,15
 1239              		.global	bm_reboot
 1240              		.syntax unified
 1241              		.thumb
 1242              		.thumb_func
 1243              		.fpu fpv4-sp-d16
 1244              		.type	bm_reboot, %function
 1245              	bm_reboot:
 1246              	.LFB275:
 1247              		.loc 1 500 0
 1248              		.cfi_startproc
 1249              		@ args = 0, pretend = 0, frame = 0
 1250              		@ frame_needed = 0, uses_anonymous_args = 0
 1251              	.LVL116:
 1252 0000 10B5     		push	{r4, lr}
 1253              		.cfi_def_cfa_offset 8
 1254              		.cfi_offset 4, -8
ARM GAS  /tmp/ccfTQtla.s 			page 23


 1255              		.cfi_offset 14, -4
 1256              		.loc 1 503 0
 1257 0002 0A4C     		ldr	r4, .L114
 1258 0004 2068     		ldr	r0, [r4]
 1259 0006 70B1     		cbz	r0, .L111
 1260              		.loc 1 504 0
 1261 0008 094B     		ldr	r3, .L114+4
 1262 000a 0022     		movs	r2, #0
 1263 000c 1A70     		strb	r2, [r3]
 1264              		.loc 1 505 0
 1265 000e FFF7FEFF 		bl	target_flash_done
 1266              	.LVL117:
 1267 0012 0028     		cmp	r0, #0
 1268              		.loc 1 506 0
 1269 0014 2068     		ldr	r0, [r4]
 1270              		.loc 1 505 0
 1271 0016 14BF     		ite	ne
 1272 0018 6FF00104 		mvnne	r4, #1
 1273 001c 0124     		moveq	r4, #1
 1274              	.LVL118:
 1275              		.loc 1 506 0
 1276 001e FFF7FEFF 		bl	target_reset
 1277              	.LVL119:
 1278              	.L108:
 1279              		.loc 1 510 0
 1280 0022 2046     		mov	r0, r4
 1281 0024 10BD     		pop	{r4, pc}
 1282              	.LVL120:
 1283              	.L111:
 1284              		.loc 1 501 0
 1285 0026 4FF0FF34 		mov	r4, #-1
 1286              		.loc 1 509 0
 1287 002a FAE7     		b	.L108
 1288              	.L115:
 1289              		.align	2
 1290              	.L114:
 1291 002c 00000000 		.word	.LANCHOR0
 1292 0030 00000000 		.word	.LANCHOR1
 1293              		.cfi_endproc
 1294              	.LFE275:
 1295              		.size	bm_reboot, .-bm_reboot
 1296              		.section	.text.bm_disconnect,"ax",%progbits
 1297              		.align	1
 1298              		.p2align 4,,15
 1299              		.global	bm_disconnect
 1300              		.syntax unified
 1301              		.thumb
 1302              		.thumb_func
 1303              		.fpu fpv4-sp-d16
 1304              		.type	bm_disconnect, %function
 1305              	bm_disconnect:
 1306              	.LFB276:
 1307              		.loc 1 515 0
 1308              		.cfi_startproc
 1309              		@ args = 0, pretend = 0, frame = 0
 1310              		@ frame_needed = 0, uses_anonymous_args = 0
 1311 0000 38B5     		push	{r3, r4, r5, lr}
ARM GAS  /tmp/ccfTQtla.s 			page 24


 1312              		.cfi_def_cfa_offset 16
 1313              		.cfi_offset 3, -16
 1314              		.cfi_offset 4, -12
 1315              		.cfi_offset 5, -8
 1316              		.cfi_offset 14, -4
 1317              		.loc 1 516 0
 1318 0002 084C     		ldr	r4, .L122
 1319 0004 2068     		ldr	r0, [r4]
 1320 0006 40B1     		cbz	r0, .L117
 1321              		.loc 1 517 0
 1322 0008 074B     		ldr	r3, .L122+4
 1323 000a 0025     		movs	r5, #0
 1324 000c 1D70     		strb	r5, [r3]
 1325              		.loc 1 518 0
 1326 000e FFF7FEFF 		bl	target_flash_done
 1327              	.LVL121:
 1328              		.loc 1 519 0
 1329 0012 2068     		ldr	r0, [r4]
 1330 0014 FFF7FEFF 		bl	target_detach
 1331              	.LVL122:
 1332              		.loc 1 520 0
 1333 0018 2560     		str	r5, [r4]
 1334              	.L117:
 1335              		.loc 1 523 0
 1336 001a 0020     		movs	r0, #0
 1337              		.loc 1 524 0
 1338 001c BDE83840 		pop	{r3, r4, r5, lr}
 1339              		.cfi_restore 14
 1340              		.cfi_restore 5
 1341              		.cfi_restore 4
 1342              		.cfi_restore 3
 1343              		.cfi_def_cfa_offset 0
 1344              		.loc 1 523 0
 1345 0020 FFF7FEBF 		b	bm_set_enabled
 1346              	.LVL123:
 1347              	.L123:
 1348              		.align	2
 1349              	.L122:
 1350 0024 00000000 		.word	.LANCHOR0
 1351 0028 00000000 		.word	.LANCHOR1
 1352              		.cfi_endproc
 1353              	.LFE276:
 1354              		.size	bm_disconnect, .-bm_disconnect
 1355              		.section	.text.bm_connect,"ax",%progbits
 1356              		.align	1
 1357              		.p2align 4,,15
 1358              		.global	bm_connect
 1359              		.syntax unified
 1360              		.thumb
 1361              		.thumb_func
 1362              		.fpu fpv4-sp-d16
 1363              		.type	bm_connect, %function
 1364              	bm_connect:
 1365              	.LFB271:
 1366              		.loc 1 353 0
 1367              		.cfi_startproc
 1368              		@ args = 0, pretend = 0, frame = 0
ARM GAS  /tmp/ccfTQtla.s 			page 25


 1369              		@ frame_needed = 0, uses_anonymous_args = 0
 1370              	.LVL124:
 1371 0000 10B5     		push	{r4, lr}
 1372              		.cfi_def_cfa_offset 8
 1373              		.cfi_offset 4, -8
 1374              		.cfi_offset 14, -4
 1375              		.loc 1 356 0
 1376 0002 0120     		movs	r0, #1
 1377 0004 FFF7FEFF 		bl	bm_set_enabled
 1378              	.LVL125:
 1379              		.loc 1 357 0
 1380 0008 474B     		ldr	r3, .L229
 1381 000a 0022     		movs	r2, #0
 1382 000c 1A70     		strb	r2, [r3]
 1383              		.loc 1 359 0
 1384 000e FFF7FEFF 		bl	adiv5_swdp_scan
 1385              	.LVL126:
 1386              		.loc 1 361 0
 1387 0012 0028     		cmp	r0, #0
 1388 0014 21DD     		ble	.L125
 1389              		.loc 1 362 0
 1390 0016 4549     		ldr	r1, .L229+4
 1391 0018 0120     		movs	r0, #1
 1392              	.LVL127:
 1393 001a FFF7FEFF 		bl	target_attach_n
 1394              	.LVL128:
 1395 001e 444A     		ldr	r2, .L229+8
 1396 0020 1060     		str	r0, [r2]
 1397              		.loc 1 364 0
 1398 0022 D0B1     		cbz	r0, .L125
 1399              		.loc 1 365 0
 1400 0024 FFF7FEFF 		bl	target_idcode
 1401              	.LVL129:
 1402              	.LBB49:
 1403              	.LBB50:
 1404              		.loc 1 83 0
 1405 0028 7128     		cmp	r0, #113
 1406 002a 4AD0     		beq	.L127
 1407 002c 1BD9     		bls	.L220
 1408 002e AC28     		cmp	r0, #172
 1409 0030 45D0     		beq	.L137
 1410 0032 2ED9     		bls	.L221
 1411 0034 B0F58A7F 		cmp	r0, #276
 1412 0038 3DD0     		beq	.L129
 1413 003a 21D9     		bls	.L222
 1414 003c B0F5A87F 		cmp	r0, #336
 1415 0040 25D0     		beq	.L142
 1416 0042 52D9     		bls	.L223
 1417 0044 40F26913 		movw	r3, #361
 1418 0048 9842     		cmp	r0, r3
 1419 004a 3AD0     		beq	.L127
 1420 004c 40F21343 		movw	r3, #1043
 1421 0050 9842     		cmp	r0, r3
 1422              		.loc 1 84 0
 1423 0052 08BF     		it	eq
 1424 0054 0124     		moveq	r4, #1
 1425              		.loc 1 83 0
ARM GAS  /tmp/ccfTQtla.s 			page 26


 1426 0056 04D0     		beq	.L124
 1427 0058 23E0     		b	.L145
 1428              	.LVL130:
 1429              	.L125:
 1430              	.LBE50:
 1431              	.LBE49:
 1432              		.loc 1 354 0
 1433 005a 4FF0FF34 		mov	r4, #-1
 1434              	.L126:
 1435              		.loc 1 370 0
 1436 005e FFF7FEFF 		bl	bm_disconnect
 1437              	.LVL131:
 1438              	.L124:
 1439              		.loc 1 374 0
 1440 0062 2046     		mov	r0, r4
 1441 0064 10BD     		pop	{r4, pc}
 1442              	.LVL132:
 1443              	.L220:
 1444              	.LBB52:
 1445              	.LBB51:
 1446              		.loc 1 83 0
 1447 0066 3128     		cmp	r0, #49
 1448 0068 25D0     		beq	.L129
 1449 006a 2CD9     		bls	.L224
 1450 006c 4A28     		cmp	r0, #74
 1451 006e 22D0     		beq	.L129
 1452 0070 1AD9     		bls	.L225
 1453 0072 5028     		cmp	r0, #80
 1454 0074 1FD0     		beq	.L129
 1455 0076 41D8     		bhi	.L136
 1456 0078 4C28     		cmp	r0, #76
 1457 007a 51D1     		bne	.L226
 1458              	.L132:
 1459              	.LVL133:
 1460              		.loc 1 119 0
 1461 007c 0224     		movs	r4, #2
 1462 007e F0E7     		b	.L124
 1463              	.LVL134:
 1464              	.L222:
 1465              		.loc 1 83 0
 1466 0080 D128     		cmp	r0, #209
 1467 0082 18D0     		beq	.L129
 1468 0084 19D9     		bls	.L227
 1469 0086 E328     		cmp	r0, #227
 1470 0088 19D0     		beq	.L137
 1471 008a EB28     		cmp	r0, #235
 1472 008c 09D1     		bne	.L145
 1473              	.L142:
 1474              		.loc 1 137 0
 1475 008e 0824     		movs	r4, #8
 1476 0090 E7E7     		b	.L124
 1477              	.L221:
 1478              		.loc 1 83 0
 1479 0092 7E28     		cmp	r0, #126
 1480 0094 22D8     		bhi	.L139
 1481 0096 7B28     		cmp	r0, #123
 1482 0098 F0D2     		bcs	.L132
ARM GAS  /tmp/ccfTQtla.s 			page 27


 1483 009a 7328     		cmp	r0, #115
 1484 009c 0BD9     		bls	.L129
 1485 009e 7928     		cmp	r0, #121
 1486 00a0 09D2     		bcs	.L129
 1487              	.LVL135:
 1488              	.L145:
 1489              		.loc 1 138 0
 1490 00a2 6FF00104 		mvn	r4, #1
 1491 00a6 DAE7     		b	.L126
 1492              	.LVL136:
 1493              	.L225:
 1494              		.loc 1 83 0
 1495 00a8 4028     		cmp	r0, #64
 1496 00aa 04D0     		beq	.L129
 1497 00ac 35D9     		bls	.L228
 1498 00ae 4428     		cmp	r0, #68
 1499 00b0 01D0     		beq	.L129
 1500 00b2 4728     		cmp	r0, #71
 1501 00b4 F5D1     		bne	.L145
 1502              	.LVL137:
 1503              	.L129:
 1504              		.loc 1 110 0
 1505 00b6 0324     		movs	r4, #3
 1506 00b8 D3E7     		b	.L124
 1507              	.LVL138:
 1508              	.L227:
 1509              		.loc 1 83 0
 1510 00ba C728     		cmp	r0, #199
 1511 00bc F1D1     		bne	.L145
 1512              	.L137:
 1513              	.LVL139:
 1514              		.loc 1 134 0
 1515 00be 0724     		movs	r4, #7
 1516 00c0 CFE7     		b	.L124
 1517              	.LVL140:
 1518              	.L127:
 1519              		.loc 1 128 0
 1520 00c2 0424     		movs	r4, #4
 1521 00c4 CDE7     		b	.L124
 1522              	.LVL141:
 1523              	.L224:
 1524              		.loc 1 83 0
 1525 00c6 2728     		cmp	r0, #39
 1526 00c8 1DD8     		bhi	.L131
 1527 00ca 2628     		cmp	r0, #38
 1528 00cc D6D2     		bcs	.L132
 1529 00ce 2028     		cmp	r0, #32
 1530 00d0 F1D0     		beq	.L129
 1531 00d2 1FD8     		bhi	.L133
 1532 00d4 1D38     		subs	r0, r0, #29
 1533              	.LVL142:
 1534 00d6 0128     		cmp	r0, #1
 1535 00d8 E3D8     		bhi	.L145
 1536 00da ECE7     		b	.L129
 1537              	.LVL143:
 1538              	.L139:
 1539 00dc 8328     		cmp	r0, #131
ARM GAS  /tmp/ccfTQtla.s 			page 28


 1540 00de E0D3     		bcc	.L145
 1541 00e0 8828     		cmp	r0, #136
 1542 00e2 EED9     		bls	.L127
 1543 00e4 8F28     		cmp	r0, #143
 1544 00e6 DCD1     		bne	.L145
 1545 00e8 E5E7     		b	.L129
 1546              	.L223:
 1547 00ea 40F23913 		movw	r3, #313
 1548 00ee 9842     		cmp	r0, r3
 1549 00f0 E5D0     		beq	.L137
 1550 00f2 40F24F13 		movw	r3, #335
 1551 00f6 9842     		cmp	r0, r3
 1552 00f8 E1D0     		beq	.L137
 1553 00fa D2E7     		b	.L145
 1554              	.L136:
 1555 00fc 5728     		cmp	r0, #87
 1556 00fe DAD0     		beq	.L129
 1557 0100 6128     		cmp	r0, #97
 1558 0102 BBD0     		beq	.L132
 1559 0104 CDE7     		b	.L145
 1560              	.L131:
 1561 0106 2A28     		cmp	r0, #42
 1562 0108 D5D0     		beq	.L129
 1563 010a CAD3     		bcc	.L145
 1564 010c 2D38     		subs	r0, r0, #45
 1565              	.LVL144:
 1566 010e 0228     		cmp	r0, #2
 1567 0110 C7D8     		bhi	.L145
 1568 0112 D0E7     		b	.L129
 1569              	.LVL145:
 1570              	.L133:
 1571 0114 2428     		cmp	r0, #36
 1572 0116 C4D1     		bne	.L145
 1573 0118 CDE7     		b	.L129
 1574              	.L228:
 1575 011a 3C28     		cmp	r0, #60
 1576 011c C1D1     		bne	.L145
 1577 011e CAE7     		b	.L129
 1578              	.L226:
 1579 0120 4D28     		cmp	r0, #77
 1580 0122 BED1     		bne	.L145
 1581 0124 C7E7     		b	.L129
 1582              	.L230:
 1583 0126 00BF     		.align	2
 1584              	.L229:
 1585 0128 00000000 		.word	.LANCHOR1
 1586 012c 00000000 		.word	.LANCHOR3
 1587 0130 00000000 		.word	.LANCHOR0
 1588              	.LBE51:
 1589              	.LBE52:
 1590              		.cfi_endproc
 1591              	.LFE271:
 1592              		.size	bm_connect, .-bm_connect
 1593              		.section	.text.bm_change_swd_pins,"ax",%progbits
 1594              		.align	1
 1595              		.p2align 4,,15
 1596              		.global	bm_change_swd_pins
ARM GAS  /tmp/ccfTQtla.s 			page 29


 1597              		.syntax unified
 1598              		.thumb
 1599              		.thumb_func
 1600              		.fpu fpv4-sp-d16
 1601              		.type	bm_change_swd_pins, %function
 1602              	bm_change_swd_pins:
 1603              	.LFB277:
 1604              		.loc 1 542 0
 1605              		.cfi_startproc
 1606              		@ args = 0, pretend = 0, frame = 0
 1607              		@ frame_needed = 0, uses_anonymous_args = 0
 1608              	.LVL146:
 1609 0000 F8B5     		push	{r3, r4, r5, r6, r7, lr}
 1610              		.cfi_def_cfa_offset 24
 1611              		.cfi_offset 3, -24
 1612              		.cfi_offset 4, -20
 1613              		.cfi_offset 5, -16
 1614              		.cfi_offset 6, -12
 1615              		.cfi_offset 7, -8
 1616              		.cfi_offset 14, -4
 1617              		.loc 1 542 0
 1618 0002 0746     		mov	r7, r0
 1619              		.loc 1 543 0
 1620 0004 0020     		movs	r0, #0
 1621              	.LVL147:
 1622              		.loc 1 542 0
 1623 0006 1546     		mov	r5, r2
 1624 0008 1C46     		mov	r4, r3
 1625 000a 0E46     		mov	r6, r1
 1626              		.loc 1 543 0
 1627 000c FFF7FEFF 		bl	bm_set_enabled
 1628              	.LVL148:
 1629              		.loc 1 544 0
 1630 0010 044B     		ldr	r3, .L233
 1631              		.loc 1 545 0
 1632 0012 054A     		ldr	r2, .L233+4
 1633              		.loc 1 544 0
 1634 0014 1F60     		str	r7, [r3]
 1635              		.loc 1 547 0
 1636 0016 0548     		ldr	r0, .L233+8
 1637              		.loc 1 546 0
 1638 0018 054B     		ldr	r3, .L233+12
 1639              		.loc 1 545 0
 1640 001a 1660     		str	r6, [r2]
 1641              		.loc 1 546 0
 1642 001c 1D60     		str	r5, [r3]
 1643              		.loc 1 547 0
 1644 001e 0460     		str	r4, [r0]
 1645              		.loc 1 548 0
 1646 0020 F8BD     		pop	{r3, r4, r5, r6, r7, pc}
 1647              	.LVL149:
 1648              	.L234:
 1649 0022 00BF     		.align	2
 1650              	.L233:
 1651 0024 00000000 		.word	platform_swdio_port
 1652 0028 00000000 		.word	platform_swdio_pin
 1653 002c 00000000 		.word	platform_swclk_pin
ARM GAS  /tmp/ccfTQtla.s 			page 30


 1654 0030 00000000 		.word	platform_swclk_port
 1655              		.cfi_endproc
 1656              	.LFE277:
 1657              		.size	bm_change_swd_pins, .-bm_change_swd_pins
 1658              		.section	.text.bm_default_swd_pins,"ax",%progbits
 1659              		.align	1
 1660              		.p2align 4,,15
 1661              		.global	bm_default_swd_pins
 1662              		.syntax unified
 1663              		.thumb
 1664              		.thumb_func
 1665              		.fpu fpv4-sp-d16
 1666              		.type	bm_default_swd_pins, %function
 1667              	bm_default_swd_pins:
 1668              	.LFB278:
 1669              		.loc 1 553 0
 1670              		.cfi_startproc
 1671              		@ args = 0, pretend = 0, frame = 0
 1672              		@ frame_needed = 0, uses_anonymous_args = 0
 1673 0000 38B5     		push	{r3, r4, r5, lr}
 1674              		.cfi_def_cfa_offset 16
 1675              		.cfi_offset 3, -16
 1676              		.cfi_offset 4, -12
 1677              		.cfi_offset 5, -8
 1678              		.cfi_offset 14, -4
 1679              		.loc 1 554 0
 1680 0002 0020     		movs	r0, #0
 1681 0004 FFF7FEFF 		bl	bm_set_enabled
 1682              	.LVL150:
 1683              		.loc 1 555 0
 1684 0008 0549     		ldr	r1, .L237
 1685 000a 064B     		ldr	r3, .L237+4
 1686              		.loc 1 557 0
 1687 000c 064D     		ldr	r5, .L237+8
 1688              		.loc 1 556 0
 1689 000e 0748     		ldr	r0, .L237+12
 1690              		.loc 1 558 0
 1691 0010 074A     		ldr	r2, .L237+16
 1692              		.loc 1 555 0
 1693 0012 0B60     		str	r3, [r1]
 1694              		.loc 1 556 0
 1695 0014 0D24     		movs	r4, #13
 1696              		.loc 1 558 0
 1697 0016 0E21     		movs	r1, #14
 1698              		.loc 1 557 0
 1699 0018 2B60     		str	r3, [r5]
 1700              		.loc 1 556 0
 1701 001a 0460     		str	r4, [r0]
 1702              		.loc 1 558 0
 1703 001c 1160     		str	r1, [r2]
 1704              		.loc 1 559 0
 1705 001e 38BD     		pop	{r3, r4, r5, pc}
 1706              	.L238:
 1707              		.align	2
 1708              	.L237:
 1709 0020 00000000 		.word	platform_swdio_port
 1710 0024 00000240 		.word	1073872896
ARM GAS  /tmp/ccfTQtla.s 			page 31


 1711 0028 00000000 		.word	platform_swclk_port
 1712 002c 00000000 		.word	platform_swdio_pin
 1713 0030 00000000 		.word	platform_swclk_pin
 1714              		.cfi_endproc
 1715              	.LFE278:
 1716              		.size	bm_default_swd_pins, .-bm_default_swd_pins
 1717              		.global	cortexm_wait_timeout
 1718              		.section	.bss.cur_target,"aw",%nobits
 1719              		.align	2
 1720              		.set	.LANCHOR0,. + 0
 1721              		.type	cur_target, %object
 1722              		.size	cur_target, 4
 1723              	cur_target:
 1724 0000 00000000 		.space	4
 1725              		.section	.bss.enabled_now.13020,"aw",%nobits
 1726              		.set	.LANCHOR2,. + 0
 1727              		.type	enabled_now.13020, %object
 1728              		.size	enabled_now.13020, 1
 1729              	enabled_now.13020:
 1730 0000 00       		.space	1
 1731              		.section	.data.cortexm_wait_timeout,"aw",%progbits
 1732              		.align	2
 1733              		.type	cortexm_wait_timeout, %object
 1734              		.size	cortexm_wait_timeout, 4
 1735              	cortexm_wait_timeout:
 1736 0000 D0070000 		.word	2000
 1737              		.section	.data.gdb_controller,"aw",%progbits
 1738              		.align	2
 1739              		.set	.LANCHOR3,. + 0
 1740              		.type	gdb_controller, %object
 1741              		.size	gdb_controller, 60
 1742              	gdb_controller:
 1743 0000 00000000 		.word	target_destroy_callback
 1744 0004 00000000 		.word	target_printf
 1745 0008 00000000 		.word	0
 1746 000c 00000000 		.word	0
 1747 0010 00000000 		.word	0
 1748 0014 00000000 		.word	0
 1749 0018 00000000 		.word	0
 1750 001c 00000000 		.word	0
 1751 0020 00000000 		.word	0
 1752 0024 00000000 		.word	0
 1753 0028 00000000 		.word	0
 1754 002c 00000000 		.word	0
 1755 0030 00000000 		.word	0
 1756 0034 00000000 		.word	0
 1757 0038 00000000 		.space	4
 1758              		.section	.data.target_print_en,"aw",%progbits
 1759              		.set	.LANCHOR1,. + 0
 1760              		.type	target_print_en, %object
 1761              		.size	target_print_en, 1
 1762              	target_print_en:
 1763 0000 01       		.byte	1
 1764              		.section	.rodata.bm_erase_flash_all.str1.4,"aMS",%progbits,1
 1765              		.align	2
 1766              	.LC33:
 1767 0000 65726173 		.ascii	"erase_mass\000"
ARM GAS  /tmp/ccfTQtla.s 			page 32


 1767      655F6D61 
 1767      737300
 1768              		.section	.rodata.bm_init.str1.4,"aMS",%progbits,1
 1769              		.align	2
 1770              	.LC1:
 1771 0000 426C6163 		.ascii	"BlackMagic: Scan SWD\000"
 1771      6B4D6167 
 1771      69633A20 
 1771      5363616E 
 1771      20535744 
 1772 0015 000000   		.space	3
 1773              	.LC2:
 1774 0018 626D5F73 		.ascii	"bm_swdp_scan\000"
 1774      7764705F 
 1774      7363616E 
 1774      00
 1775 0025 000000   		.space	3
 1776              	.LC3:
 1777 0028 5B696E64 		.ascii	"[index]\000"
 1777      65785D00 
 1778              	.LC4:
 1779 0030 426C6163 		.ascii	"BlackMagic: Attach target\000"
 1779      6B4D6167 
 1779      69633A20 
 1779      41747461 
 1779      63682074 
 1780 004a 0000     		.space	2
 1781              	.LC5:
 1782 004c 626D5F61 		.ascii	"bm_attach\000"
 1782      74746163 
 1782      6800
 1783 0056 0000     		.space	2
 1784              	.LC6:
 1785 0058 5B686578 		.ascii	"[hex_addr] [len]\000"
 1785      5F616464 
 1785      725D205B 
 1785      6C656E5D 
 1785      00
 1786 0069 000000   		.space	3
 1787              	.LC7:
 1788 006c 426C6163 		.ascii	"BlackMagic: Erase flash memory\000"
 1788      6B4D6167 
 1788      69633A20 
 1788      45726173 
 1788      6520666C 
 1789 008b 00       		.space	1
 1790              	.LC8:
 1791 008c 626D5F66 		.ascii	"bm_flash_erase\000"
 1791      6C617368 
 1791      5F657261 
 1791      736500
 1792 009b 00       		.space	1
 1793              	.LC9:
 1794 009c 426C6163 		.ascii	"BlackMagic: Show target commands\000"
 1794      6B4D6167 
 1794      69633A20 
 1794      53686F77 
ARM GAS  /tmp/ccfTQtla.s 			page 33


 1794      20746172 
 1795 00bd 000000   		.space	3
 1796              	.LC10:
 1797 00c0 626D5F74 		.ascii	"bm_target_help\000"
 1797      61726765 
 1797      745F6865 
 1797      6C7000
 1798 00cf 00       		.space	1
 1799              	.LC11:
 1800 00d0 5B2E2E2E 		.ascii	"[...]\000"
 1800      5D00
 1801 00d6 0000     		.space	2
 1802              	.LC12:
 1803 00d8 426C6163 		.ascii	"BlackMagic: Run command on target\000"
 1803      6B4D6167 
 1803      69633A20 
 1803      52756E20 
 1803      636F6D6D 
 1804 00fa 0000     		.space	2
 1805              	.LC13:
 1806 00fc 626D5F74 		.ascii	"bm_target_cmd\000"
 1806      61726765 
 1806      745F636D 
 1806      6400
 1807 010a 0000     		.space	2
 1808              	.LC14:
 1809 010c 426C6163 		.ascii	"BlackMagic: Detach target\000"
 1809      6B4D6167 
 1809      69633A20 
 1809      44657461 
 1809      63682074 
 1810 0126 0000     		.space	2
 1811              	.LC15:
 1812 0128 626D5F64 		.ascii	"bm_detach\000"
 1812      65746163 
 1812      6800
 1813              		.section	.rodata.display_target.str1.4,"aMS",%progbits,1
 1814              		.align	2
 1815              	.LC0:
 1816 0000 25326420 		.ascii	"%2d   %c  %s\000"
 1816      20202563 
 1816      20202573 
 1816      00
 1817              		.section	.rodata.terminal_attach.str1.4,"aMS",%progbits,1
 1818              		.align	2
 1819              	.LC26:
 1820 0000 436F756C 		.ascii	"Could not attach target.\012\000"
 1820      64206E6F 
 1820      74206174 
 1820      74616368 
 1820      20746172 
 1821 001a 0000     		.space	2
 1822              	.LC27:
 1823 001c 496E7661 		.ascii	"Invalid argument.\012\000"
 1823      6C696420 
 1823      61726775 
 1823      6D656E74 
ARM GAS  /tmp/ccfTQtla.s 			page 34


 1823      2E0A00
 1824 002f 00       		.space	1
 1825              	.LC28:
 1826 0030 54686973 		.ascii	"This command requires one argument.\012\000"
 1826      20636F6D 
 1826      6D616E64 
 1826      20726571 
 1826      75697265 
 1827              		.section	.rodata.terminal_detach.str1.4,"aMS",%progbits,1
 1828              		.align	2
 1829              	.LC16:
 1830 0000 446F6E65 		.ascii	"Done.\012\000"
 1830      2E0A00
 1831 0007 00       		.space	1
 1832              	.LC17:
 1833 0008 4E6F2074 		.ascii	"No target attached\012\000"
 1833      61726765 
 1833      74206174 
 1833      74616368 
 1833      65640A00 
 1834              		.section	.rodata.terminal_flash_erase.str1.4,"aMS",%progbits,1
 1835              		.align	2
 1836              	.LC20:
 1837 0000 257800   		.ascii	"%x\000"
 1838 0003 00       		.space	1
 1839              	.LC21:
 1840 0004 256400   		.ascii	"%d\000"
 1841 0007 00       		.space	1
 1842              	.LC22:
 1843 0008 4F4B210A 		.ascii	"OK!\012\000"
 1843      00
 1844 000d 000000   		.space	3
 1845              	.LC23:
 1846 0010 436F756C 		.ascii	"Could erase flash.\012\000"
 1846      64206572 
 1846      61736520 
 1846      666C6173 
 1846      682E0A00 
 1847              	.LC24:
 1848 0024 496E7661 		.ascii	"Invalid argument(s).\012\000"
 1848      6C696420 
 1848      61726775 
 1848      6D656E74 
 1848      2873292E 
 1849 003a 0000     		.space	2
 1850              	.LC25:
 1851 003c 54686973 		.ascii	"This command requires two arguments.\012\000"
 1851      20636F6D 
 1851      6D616E64 
 1851      20726571 
 1851      75697265 
 1852              		.section	.rodata.terminal_swdp_scan.str1.4,"aMS",%progbits,1
 1853              		.align	2
 1854              	.LC29:
 1855 0000 53572D44 		.ascii	"SW-DP scan failed!\000"
 1855      50207363 
 1855      616E2066 
ARM GAS  /tmp/ccfTQtla.s 			page 35


 1855      61696C65 
 1855      642100
 1856 0013 00       		.space	1
 1857              	.LC30:
 1858 0014 41766169 		.ascii	"Available Targets:\000"
 1858      6C61626C 
 1858      65205461 
 1858      72676574 
 1858      733A00
 1859 0027 00       		.space	1
 1860              	.LC31:
 1861 0028 4E6F2E20 		.ascii	"No. Att Driver\000"
 1861      41747420 
 1861      44726976 
 1861      657200
 1862 0037 00       		.space	1
 1863              	.LC32:
 1864 0038 4E6F2075 		.ascii	"No usable targets found.\000"
 1864      7361626C 
 1864      65207461 
 1864      72676574 
 1864      7320666F 
 1865              		.section	.rodata.terminal_target_cmd.str1.4,"aMS",%progbits,1
 1866              		.align	2
 1867              	.LC18:
 1868 0000 496E7661 		.ascii	"Invalid command\012\000"
 1868      6C696420 
 1868      636F6D6D 
 1868      616E640A 
 1868      00
 1869 0011 000000   		.space	3
 1870              	.LC19:
 1871 0014 436F6D6D 		.ascii	"Command failed: %d\012\000"
 1871      616E6420 
 1871      6661696C 
 1871      65643A20 
 1871      25640A00 
 1872              		.text
 1873              	.Letext0:
 1874              		.file 2 "/usr/arm-none-eabi/include/machine/_default_types.h"
 1875              		.file 3 "/usr/arm-none-eabi/include/sys/_stdint.h"
 1876              		.file 4 "/usr/lib/gcc/arm-none-eabi/7.3.1/include/stddef.h"
 1877              		.file 5 "ChibiOS_3.0.2/os/rt/ports/ARMCMx/compilers/GCC/chtypes.h"
 1878              		.file 6 "ChibiOS_3.0.2/os/rt/include/chsystypes.h"
 1879              		.file 7 "ChibiOS_3.0.2/os/rt/include/chschd.h"
 1880              		.file 8 "ChibiOS_3.0.2/os/ext/CMSIS/include/core_cm4.h"
 1881              		.file 9 "ChibiOS_3.0.2/os/ext/CMSIS/ST/system_stm32f4xx.h"
 1882              		.file 10 "ChibiOS_3.0.2/os/ext/CMSIS/ST/stm32f407xx.h"
 1883              		.file 11 "ChibiOS_3.0.2/os/rt/ports/ARMCMx/chcore.h"
 1884              		.file 12 "ChibiOS_3.0.2/os/rt/ports/ARMCMx/chcore_v7m.h"
 1885              		.file 13 "ChibiOS_3.0.2/os/rt/include/chtm.h"
 1886              		.file 14 "ChibiOS_3.0.2/os/rt/include/chsem.h"
 1887              		.file 15 "ChibiOS_3.0.2/os/rt/include/chmtx.h"
 1888              		.file 16 "ChibiOS_3.0.2/os/rt/include/chregistry.h"
 1889              		.file 17 "ChibiOS_3.0.2/os/rt/include/chevents.h"
 1890              		.file 18 "ChibiOS_3.0.2/os/rt/include/chqueues.h"
 1891              		.file 19 "./conf_general.h"
ARM GAS  /tmp/ccfTQtla.s 			page 36


 1892              		.file 20 "ChibiOS_3.0.2/os/hal/ports/STM32/STM32F4xx/stm32_dma.h"
 1893              		.file 21 "ChibiOS_3.0.2/os/hal/ports/STM32/LLD/GPIOv2/pal_lld.h"
 1894              		.file 22 "ChibiOS_3.0.2/os/hal/include/can.h"
 1895              		.file 23 "ChibiOS_3.0.2/os/hal/ports/STM32/LLD/can_lld.h"
 1896              		.file 24 "ChibiOS_3.0.2/os/hal/include/i2c.h"
 1897              		.file 25 "ChibiOS_3.0.2/os/hal/ports/STM32/LLD/I2Cv1/i2c_lld.h"
 1898              		.file 26 "ChibiOS_3.0.2/os/hal/include/icu.h"
 1899              		.file 27 "ChibiOS_3.0.2/os/hal/ports/STM32/LLD/TIMv1/icu_lld.h"
 1900              		.file 28 "ChibiOS_3.0.2/os/hal/ports/STM32/LLD/TIMv1/stm32_tim.h"
 1901              		.file 29 "ChibiOS_3.0.2/os/hal/include/serial.h"
 1902              		.file 30 "ChibiOS_3.0.2/os/hal/ports/STM32/LLD/USARTv1/serial_lld.h"
 1903              		.file 31 "ChibiOS_3.0.2/os/hal/include/spi.h"
 1904              		.file 32 "ChibiOS_3.0.2/os/hal/ports/STM32/LLD/SPIv1/spi_lld.h"
 1905              		.file 33 "ChibiOS_3.0.2/os/hal/include/usb.h"
 1906              		.file 34 "ChibiOS_3.0.2/os/hal/ports/STM32/LLD/OTGv1/usb_lld.h"
 1907              		.file 35 "ChibiOS_3.0.2/os/hal/ports/STM32/LLD/OTGv1/stm32_otg.h"
 1908              		.file 36 "blackmagic/platform.h"
 1909              		.file 37 "/usr/arm-none-eabi/include/sys/lock.h"
 1910              		.file 38 "/usr/arm-none-eabi/include/sys/_types.h"
 1911              		.file 39 "/usr/arm-none-eabi/include/sys/reent.h"
 1912              		.file 40 "/usr/arm-none-eabi/include/stdlib.h"
 1913              		.file 41 "/usr/lib/gcc/arm-none-eabi/7.3.1/include/stdarg.h"
 1914              		.file 42 "<built-in>"
 1915              		.file 43 "/usr/arm-none-eabi/include/stdio.h"
 1916              		.file 44 "/usr/arm-none-eabi/include/sys/types.h"
 1917              		.file 45 "blackmagic/target.h"
 1918              		.file 46 "/usr/arm-none-eabi/include/machine/setjmp.h"
 1919              		.file 47 "blackmagic/exception.h"
 1920              		.file 48 "./terminal.h"
 1921              		.file 49 "./commands.h"