ARM GAS  /tmp/ccy0t8nv.s 			page 1


   1              		.cpu cortex-m4
   2              		.eabi_attribute 27, 1
   3              		.eabi_attribute 28, 1
   4              		.eabi_attribute 20, 1
   5              		.eabi_attribute 21, 1
   6              		.eabi_attribute 23, 3
   7              		.eabi_attribute 24, 1
   8              		.eabi_attribute 25, 1
   9              		.eabi_attribute 26, 1
  10              		.eabi_attribute 30, 2
  11              		.eabi_attribute 34, 1
  12              		.eabi_attribute 18, 4
  13              		.file	"can.c"
  14              		.text
  15              	.Ltext0:
  16              		.cfi_sections	.debug_frame
  17              		.section	.text.canInit,"ax",%progbits
  18              		.align	1
  19              		.p2align 4,,15
  20              		.global	canInit
  21              		.syntax unified
  22              		.thumb
  23              		.thumb_func
  24              		.fpu fpv4-sp-d16
  25              		.type	canInit, %function
  26              	canInit:
  27              	.LFB256:
  28              		.file 1 "ChibiOS_3.0.2/os/hal/src/can.c"
  29              		.loc 1 56 0
  30              		.cfi_startproc
  31              		@ args = 0, pretend = 0, frame = 0
  32              		@ frame_needed = 0, uses_anonymous_args = 0
  33              		@ link register save eliminated.
  34              		.loc 1 58 0
  35 0000 FFF7FEBF 		b	can_lld_init
  36              	.LVL0:
  37              		.cfi_endproc
  38              	.LFE256:
  39              		.size	canInit, .-canInit
  40              		.section	.text.canObjectInit,"ax",%progbits
  41              		.align	1
  42              		.p2align 4,,15
  43              		.global	canObjectInit
  44              		.syntax unified
  45              		.thumb
  46              		.thumb_func
  47              		.fpu fpv4-sp-d16
  48              		.type	canObjectInit, %function
  49              	canObjectInit:
  50              	.LFB257:
  51              		.loc 1 68 0
  52              		.cfi_startproc
  53              		@ args = 0, pretend = 0, frame = 0
  54              		@ frame_needed = 0, uses_anonymous_args = 0
  55              		@ link register save eliminated.
  56              	.LVL1:
  57 0000 30B4     		push	{r4, r5}
ARM GAS  /tmp/ccy0t8nv.s 			page 2


  58              		.cfi_def_cfa_offset 8
  59              		.cfi_offset 4, -8
  60              		.cfi_offset 5, -4
  61              		.loc 1 71 0
  62 0002 0021     		movs	r1, #0
  63              		.loc 1 70 0
  64 0004 0124     		movs	r4, #1
  65              		.loc 1 74 0
  66 0006 00F11802 		add	r2, r0, #24
  67              		.loc 1 75 0
  68 000a 00F11C03 		add	r3, r0, #28
  69              		.loc 1 76 0
  70 000e 00F12005 		add	r5, r0, #32
  71              		.loc 1 70 0
  72 0012 0470     		strb	r4, [r0]
  73              		.loc 1 71 0
  74 0014 4160     		str	r1, [r0, #4]
  75              		.loc 1 78 0
  76 0016 00F12404 		add	r4, r0, #36
  77              		.loc 1 79 0
  78 001a 00F12801 		add	r1, r0, #40
  79              	.LBB174:
  80              	.LBB175:
  81              	.LBB176:
  82              		.file 2 "ChibiOS_3.0.2/os/rt/include/chevents.h"
  83              		.loc 2 172 0
  84 001e 8261     		str	r2, [r0, #24]
  85              	.LBE176:
  86              	.LBE175:
  87              	.LBE174:
  88              	.LBB177:
  89              	.LBB178:
  90              	.LBB179:
  91 0020 C361     		str	r3, [r0, #28]
  92              	.LBE179:
  93              	.LBE178:
  94              	.LBE177:
  95              		.loc 1 72 0
  96 0022 00F10802 		add	r2, r0, #8
  97              	.LVL2:
  98              		.loc 1 73 0
  99 0026 00F11003 		add	r3, r0, #16
 100              	.LBB180:
 101              	.LBB181:
 102              	.LBB182:
 103              		.loc 2 172 0
 104 002a C0E90854 		strd	r5, r4, [r0, #32]
 105              	.LBE182:
 106              	.LBE181:
 107              	.LBE180:
 108              	.LBB183:
 109              	.LBB184:
 110              	.LBB185:
 111 002e 8162     		str	r1, [r0, #40]
 112              	.LBE185:
 113              	.LBE184:
 114              	.LBE183:
ARM GAS  /tmp/ccy0t8nv.s 			page 3


 115              	.LBB186:
 116              	.LBB187:
 117              	.LBB188:
 118              	.LBB189:
 119              		.file 3 "ChibiOS_3.0.2/os/rt/include/chschd.h"
 120              		.loc 3 605 0
 121 0030 C0E90222 		strd	r2, r2, [r0, #8]
 122              	.LVL3:
 123              	.LBE189:
 124              	.LBE188:
 125              	.LBE187:
 126              	.LBE186:
 127              	.LBB190:
 128              	.LBB191:
 129              	.LBB192:
 130              	.LBB193:
 131 0034 C0E90433 		strd	r3, r3, [r0, #16]
 132              	.LVL4:
 133              	.LBE193:
 134              	.LBE192:
 135              	.LBE191:
 136              	.LBE190:
 137              		.loc 1 81 0
 138 0038 30BC     		pop	{r4, r5}
 139              		.cfi_restore 5
 140              		.cfi_restore 4
 141              		.cfi_def_cfa_offset 0
 142 003a 7047     		bx	lr
 143              		.cfi_endproc
 144              	.LFE257:
 145              		.size	canObjectInit, .-canObjectInit
 146              		.section	.text.canStart,"ax",%progbits
 147              		.align	1
 148              		.p2align 4,,15
 149              		.global	canStart
 150              		.syntax unified
 151              		.thumb
 152              		.thumb_func
 153              		.fpu fpv4-sp-d16
 154              		.type	canStart, %function
 155              	canStart:
 156              	.LFB258:
 157              		.loc 1 95 0
 158              		.cfi_startproc
 159              		@ args = 0, pretend = 0, frame = 0
 160              		@ frame_needed = 0, uses_anonymous_args = 0
 161              	.LVL5:
 162 0000 10B5     		push	{r4, lr}
 163              		.cfi_def_cfa_offset 8
 164              		.cfi_offset 4, -8
 165              		.cfi_offset 14, -4
 166              		.loc 1 95 0
 167 0002 0446     		mov	r4, r0
 168              	.LBB194:
 169              	.LBB195:
 170              	.LBB196:
 171              	.LBB197:
ARM GAS  /tmp/ccy0t8nv.s 			page 4


 172              	.LBB198:
 173              		.file 4 "ChibiOS_3.0.2/os/ext/CMSIS/include/core_cmFunc.h"
 174              		.loc 4 342 0
 175              		.syntax unified
 176              	@ 342 "ChibiOS_3.0.2/os/ext/CMSIS/include/core_cmFunc.h" 1
 177 0004 72B6     		cpsid i
 178              	@ 0 "" 2
 179              		.thumb
 180              		.syntax unified
 181              	.LBE198:
 182              	.LBE197:
 183              	.LBE196:
 184              	.LBE195:
 185              	.LBE194:
 186              		.loc 1 103 0
 187 0006 0223     		movs	r3, #2
 188 0008 0370     		strb	r3, [r0]
 189              		.loc 1 104 0
 190 000a 4160     		str	r1, [r0, #4]
 191              		.loc 1 108 0
 192 000c FFF7FEFF 		bl	can_lld_start
 193              	.LVL6:
 194              		.loc 1 111 0
 195 0010 0323     		movs	r3, #3
 196 0012 2370     		strb	r3, [r4]
 197              	.LBB199:
 198              	.LBB200:
 199              	.LBB201:
 200              	.LBB202:
 201              	.LBB203:
 202              	.LBB204:
 203              		.loc 4 331 0
 204              		.syntax unified
 205              	@ 331 "ChibiOS_3.0.2/os/ext/CMSIS/include/core_cmFunc.h" 1
 206 0014 62B6     		cpsie i
 207              	@ 0 "" 2
 208              		.thumb
 209              		.syntax unified
 210              	.LBE204:
 211              	.LBE203:
 212              	.LBE202:
 213              	.LBE201:
 214              	.LBE200:
 215              	.LBE199:
 216              		.loc 1 113 0
 217 0016 10BD     		pop	{r4, pc}
 218              		.cfi_endproc
 219              	.LFE258:
 220              		.size	canStart, .-canStart
 221              		.section	.text.canStop,"ax",%progbits
 222              		.align	1
 223              		.p2align 4,,15
 224              		.global	canStop
 225              		.syntax unified
 226              		.thumb
 227              		.thumb_func
 228              		.fpu fpv4-sp-d16
ARM GAS  /tmp/ccy0t8nv.s 			page 5


 229              		.type	canStop, %function
 230              	canStop:
 231              	.LFB259:
 232              		.loc 1 122 0
 233              		.cfi_startproc
 234              		@ args = 0, pretend = 0, frame = 0
 235              		@ frame_needed = 0, uses_anonymous_args = 0
 236              	.LVL7:
 237 0000 10B5     		push	{r4, lr}
 238              		.cfi_def_cfa_offset 8
 239              		.cfi_offset 4, -8
 240              		.cfi_offset 14, -4
 241              		.loc 1 122 0
 242 0002 0446     		mov	r4, r0
 243              	.LBB205:
 244              	.LBB206:
 245              	.LBB207:
 246              	.LBB208:
 247              	.LBB209:
 248              		.loc 4 342 0
 249              		.syntax unified
 250              	@ 342 "ChibiOS_3.0.2/os/ext/CMSIS/include/core_cmFunc.h" 1
 251 0004 72B6     		cpsid i
 252              	@ 0 "" 2
 253              		.thumb
 254              		.syntax unified
 255              	.LBE209:
 256              	.LBE208:
 257              	.LBE207:
 258              	.LBE206:
 259              	.LBE205:
 260              		.loc 1 131 0
 261 0006 FFF7FEFF 		bl	can_lld_stop
 262              	.LVL8:
 263              		.loc 1 132 0
 264 000a 2046     		mov	r0, r4
 265 000c 0123     		movs	r3, #1
 266 000e 00F8103B 		strb	r3, [r0], #16
 267              	.LVL9:
 268              	.LBB210:
 269              	.LBB211:
 270              		.file 5 "ChibiOS_3.0.2/os/hal/osal/rt/osal.h"
 271              		.loc 5 810 0
 272 0012 6FF00101 		mvn	r1, #1
 273 0016 FFF7FEFF 		bl	chThdDequeueAllI
 274              	.LVL10:
 275              	.LBE211:
 276              	.LBE210:
 277              	.LBB212:
 278              	.LBB213:
 279 001a 04F10800 		add	r0, r4, #8
 280              	.LVL11:
 281 001e 6FF00101 		mvn	r1, #1
 282 0022 FFF7FEFF 		bl	chThdDequeueAllI
 283              	.LVL12:
 284              	.LBE213:
 285              	.LBE212:
ARM GAS  /tmp/ccy0t8nv.s 			page 6


 286              	.LBB214:
 287              	.LBB215:
 288              		.loc 5 600 0
 289 0026 FFF7FEFF 		bl	chSchRescheduleS
 290              	.LVL13:
 291              	.LBE215:
 292              	.LBE214:
 293              	.LBB216:
 294              	.LBB217:
 295              	.LBB218:
 296              	.LBB219:
 297              	.LBB220:
 298              	.LBB221:
 299              		.loc 4 331 0
 300              		.syntax unified
 301              	@ 331 "ChibiOS_3.0.2/os/ext/CMSIS/include/core_cmFunc.h" 1
 302 002a 62B6     		cpsie i
 303              	@ 0 "" 2
 304              		.thumb
 305              		.syntax unified
 306              	.LBE221:
 307              	.LBE220:
 308              	.LBE219:
 309              	.LBE218:
 310              	.LBE217:
 311              	.LBE216:
 312              		.loc 1 140 0
 313 002c 10BD     		pop	{r4, pc}
 314              		.cfi_endproc
 315              	.LFE259:
 316              		.size	canStop, .-canStop
 317 002e 00BF     		.section	.text.canTransmit,"ax",%progbits
 318              		.align	1
 319              		.p2align 4,,15
 320              		.global	canTransmit
 321              		.syntax unified
 322              		.thumb
 323              		.thumb_func
 324              		.fpu fpv4-sp-d16
 325              		.type	canTransmit, %function
 326              	canTransmit:
 327              	.LFB260:
 328              		.loc 1 166 0
 329              		.cfi_startproc
 330              		@ args = 0, pretend = 0, frame = 0
 331              		@ frame_needed = 0, uses_anonymous_args = 0
 332              	.LVL14:
 333 0000 2DE9F041 		push	{r4, r5, r6, r7, r8, lr}
 334              		.cfi_def_cfa_offset 24
 335              		.cfi_offset 4, -24
 336              		.cfi_offset 5, -20
 337              		.cfi_offset 6, -16
 338              		.cfi_offset 7, -12
 339              		.cfi_offset 8, -8
 340              		.cfi_offset 14, -4
 341              		.loc 1 166 0
 342 0004 0446     		mov	r4, r0
ARM GAS  /tmp/ccy0t8nv.s 			page 7


 343 0006 0D46     		mov	r5, r1
 344 0008 9046     		mov	r8, r2
 345 000a 1F46     		mov	r7, r3
 346              	.LBB222:
 347              	.LBB223:
 348              	.LBB224:
 349              	.LBB225:
 350              	.LBB226:
 351              		.loc 4 342 0
 352              		.syntax unified
 353              	@ 342 "ChibiOS_3.0.2/os/ext/CMSIS/include/core_cmFunc.h" 1
 354 000c 72B6     		cpsid i
 355              	@ 0 "" 2
 356              		.thumb
 357              		.syntax unified
 358              	.LBE226:
 359              	.LBE225:
 360              	.LBE224:
 361              	.LBE223:
 362              	.LBE222:
 363              	.LBB227:
 364              		.loc 1 177 0
 365 000e 00F10806 		add	r6, r0, #8
 366              	.LVL15:
 367              	.L10:
 368              	.LBE227:
 369              		.loc 1 175 0
 370 0012 2378     		ldrb	r3, [r4]	@ zero_extendqisi2
 371 0014 042B     		cmp	r3, #4
 372 0016 2946     		mov	r1, r5
 373 0018 2046     		mov	r0, r4
 374 001a 02D0     		beq	.L12
 375              	.LVL16:
 376              		.loc 1 175 0 is_stmt 0 discriminator 1
 377 001c FFF7FEFF 		bl	can_lld_is_tx_empty
 378              	.LVL17:
 379 0020 40B9     		cbnz	r0, .L22
 380              	.L12:
 381              	.LVL18:
 382              	.LBB236:
 383              	.LBB228:
 384              	.LBB229:
 385              		.loc 5 784 0 is_stmt 1
 386 0022 3946     		mov	r1, r7
 387 0024 3046     		mov	r0, r6
 388 0026 FFF7FEFF 		bl	chThdEnqueueTimeoutS
 389              	.LVL19:
 390              	.LBE229:
 391              	.LBE228:
 392              		.loc 1 178 0
 393 002a 0028     		cmp	r0, #0
 394 002c F1D0     		beq	.L10
 395              	.LBB230:
 396              	.LBB231:
 397              	.LBB232:
 398              	.LBB233:
 399              	.LBB234:
ARM GAS  /tmp/ccy0t8nv.s 			page 8


 400              	.LBB235:
 401              		.loc 4 331 0
 402              		.syntax unified
 403              	@ 331 "ChibiOS_3.0.2/os/ext/CMSIS/include/core_cmFunc.h" 1
 404 002e 62B6     		cpsie i
 405              	@ 0 "" 2
 406              		.thumb
 407              		.syntax unified
 408              	.LBE235:
 409              	.LBE234:
 410              	.LBE233:
 411              	.LBE232:
 412              	.LBE231:
 413              	.LBE230:
 414              	.LBE236:
 415              		.loc 1 186 0
 416 0030 BDE8F081 		pop	{r4, r5, r6, r7, r8, pc}
 417              	.LVL20:
 418              	.L22:
 419              		.loc 1 183 0
 420 0034 4246     		mov	r2, r8
 421 0036 2946     		mov	r1, r5
 422 0038 2046     		mov	r0, r4
 423 003a FFF7FEFF 		bl	can_lld_transmit
 424              	.LVL21:
 425              	.LBB237:
 426              	.LBB238:
 427              	.LBB239:
 428              	.LBB240:
 429              	.LBB241:
 430              	.LBB242:
 431              		.loc 4 331 0
 432              		.syntax unified
 433              	@ 331 "ChibiOS_3.0.2/os/ext/CMSIS/include/core_cmFunc.h" 1
 434 003e 62B6     		cpsie i
 435              	@ 0 "" 2
 436              		.thumb
 437              		.syntax unified
 438              	.LBE242:
 439              	.LBE241:
 440              	.LBE240:
 441              	.LBE239:
 442              	.LBE238:
 443              	.LBE237:
 444              		.loc 1 185 0
 445 0040 0020     		movs	r0, #0
 446              		.loc 1 186 0
 447 0042 BDE8F081 		pop	{r4, r5, r6, r7, r8, pc}
 448              		.cfi_endproc
 449              	.LFE260:
 450              		.size	canTransmit, .-canTransmit
 451 0046 00BF     		.section	.text.canReceive,"ax",%progbits
 452              		.align	1
 453              		.p2align 4,,15
 454              		.global	canReceive
 455              		.syntax unified
 456              		.thumb
ARM GAS  /tmp/ccy0t8nv.s 			page 9


 457              		.thumb_func
 458              		.fpu fpv4-sp-d16
 459              		.type	canReceive, %function
 460              	canReceive:
 461              	.LFB261:
 462              		.loc 1 213 0
 463              		.cfi_startproc
 464              		@ args = 0, pretend = 0, frame = 0
 465              		@ frame_needed = 0, uses_anonymous_args = 0
 466              	.LVL22:
 467 0000 2DE9F041 		push	{r4, r5, r6, r7, r8, lr}
 468              		.cfi_def_cfa_offset 24
 469              		.cfi_offset 4, -24
 470              		.cfi_offset 5, -20
 471              		.cfi_offset 6, -16
 472              		.cfi_offset 7, -12
 473              		.cfi_offset 8, -8
 474              		.cfi_offset 14, -4
 475              		.loc 1 213 0
 476 0004 0446     		mov	r4, r0
 477 0006 0D46     		mov	r5, r1
 478 0008 9046     		mov	r8, r2
 479 000a 1F46     		mov	r7, r3
 480              	.LBB243:
 481              	.LBB244:
 482              	.LBB245:
 483              	.LBB246:
 484              	.LBB247:
 485              		.loc 4 342 0
 486              		.syntax unified
 487              	@ 342 "ChibiOS_3.0.2/os/ext/CMSIS/include/core_cmFunc.h" 1
 488 000c 72B6     		cpsid i
 489              	@ 0 "" 2
 490              		.thumb
 491              		.syntax unified
 492              	.LBE247:
 493              	.LBE246:
 494              	.LBE245:
 495              	.LBE244:
 496              	.LBE243:
 497              	.LBB248:
 498              		.loc 1 224 0
 499 000e 00F11006 		add	r6, r0, #16
 500              	.LVL23:
 501              	.L24:
 502              	.LBE248:
 503              		.loc 1 222 0
 504 0012 2378     		ldrb	r3, [r4]	@ zero_extendqisi2
 505 0014 042B     		cmp	r3, #4
 506 0016 2946     		mov	r1, r5
 507 0018 2046     		mov	r0, r4
 508 001a 02D0     		beq	.L26
 509              	.LVL24:
 510              		.loc 1 222 0 is_stmt 0 discriminator 1
 511 001c FFF7FEFF 		bl	can_lld_is_rx_nonempty
 512              	.LVL25:
 513 0020 40B9     		cbnz	r0, .L36
ARM GAS  /tmp/ccy0t8nv.s 			page 10


 514              	.L26:
 515              	.LVL26:
 516              	.LBB257:
 517              	.LBB249:
 518              	.LBB250:
 519              		.loc 5 784 0 is_stmt 1
 520 0022 3946     		mov	r1, r7
 521 0024 3046     		mov	r0, r6
 522 0026 FFF7FEFF 		bl	chThdEnqueueTimeoutS
 523              	.LVL27:
 524              	.LBE250:
 525              	.LBE249:
 526              		.loc 1 225 0
 527 002a 0028     		cmp	r0, #0
 528 002c F1D0     		beq	.L24
 529              	.LBB251:
 530              	.LBB252:
 531              	.LBB253:
 532              	.LBB254:
 533              	.LBB255:
 534              	.LBB256:
 535              		.loc 4 331 0
 536              		.syntax unified
 537              	@ 331 "ChibiOS_3.0.2/os/ext/CMSIS/include/core_cmFunc.h" 1
 538 002e 62B6     		cpsie i
 539              	@ 0 "" 2
 540              		.thumb
 541              		.syntax unified
 542              	.LBE256:
 543              	.LBE255:
 544              	.LBE254:
 545              	.LBE253:
 546              	.LBE252:
 547              	.LBE251:
 548              	.LBE257:
 549              		.loc 1 233 0
 550 0030 BDE8F081 		pop	{r4, r5, r6, r7, r8, pc}
 551              	.LVL28:
 552              	.L36:
 553              		.loc 1 230 0
 554 0034 4246     		mov	r2, r8
 555 0036 2946     		mov	r1, r5
 556 0038 2046     		mov	r0, r4
 557 003a FFF7FEFF 		bl	can_lld_receive
 558              	.LVL29:
 559              	.LBB258:
 560              	.LBB259:
 561              	.LBB260:
 562              	.LBB261:
 563              	.LBB262:
 564              	.LBB263:
 565              		.loc 4 331 0
 566              		.syntax unified
 567              	@ 331 "ChibiOS_3.0.2/os/ext/CMSIS/include/core_cmFunc.h" 1
 568 003e 62B6     		cpsie i
 569              	@ 0 "" 2
 570              		.thumb
ARM GAS  /tmp/ccy0t8nv.s 			page 11


 571              		.syntax unified
 572              	.LBE263:
 573              	.LBE262:
 574              	.LBE261:
 575              	.LBE260:
 576              	.LBE259:
 577              	.LBE258:
 578              		.loc 1 232 0
 579 0040 0020     		movs	r0, #0
 580              		.loc 1 233 0
 581 0042 BDE8F081 		pop	{r4, r5, r6, r7, r8, pc}
 582              		.cfi_endproc
 583              	.LFE261:
 584              		.size	canReceive, .-canReceive
 585 0046 00BF     		.section	.text.canSleep,"ax",%progbits
 586              		.align	1
 587              		.p2align 4,,15
 588              		.global	canSleep
 589              		.syntax unified
 590              		.thumb
 591              		.thumb_func
 592              		.fpu fpv4-sp-d16
 593              		.type	canSleep, %function
 594              	canSleep:
 595              	.LFB262:
 596              		.loc 1 248 0
 597              		.cfi_startproc
 598              		@ args = 0, pretend = 0, frame = 0
 599              		@ frame_needed = 0, uses_anonymous_args = 0
 600              	.LVL30:
 601              	.LBB264:
 602              	.LBB265:
 603              	.LBB266:
 604              	.LBB267:
 605              	.LBB268:
 606              		.loc 4 342 0
 607              		.syntax unified
 608              	@ 342 "ChibiOS_3.0.2/os/ext/CMSIS/include/core_cmFunc.h" 1
 609 0000 72B6     		cpsid i
 610              	@ 0 "" 2
 611              		.thumb
 612              		.syntax unified
 613              	.LBE268:
 614              	.LBE267:
 615              	.LBE266:
 616              	.LBE265:
 617              	.LBE264:
 618              		.loc 1 255 0
 619 0002 0278     		ldrb	r2, [r0]	@ zero_extendqisi2
 620 0004 032A     		cmp	r2, #3
 621 0006 01D0     		beq	.L43
 622              	.LBB269:
 623              	.LBB270:
 624              	.LBB271:
 625              	.LBB272:
 626              	.LBB273:
 627              	.LBB274:
ARM GAS  /tmp/ccy0t8nv.s 			page 12


 628              		.loc 4 331 0
 629              		.syntax unified
 630              	@ 331 "ChibiOS_3.0.2/os/ext/CMSIS/include/core_cmFunc.h" 1
 631 0008 62B6     		cpsie i
 632              	@ 0 "" 2
 633              		.thumb
 634              		.syntax unified
 635 000a 7047     		bx	lr
 636              	.L43:
 637              	.LBE274:
 638              	.LBE273:
 639              	.LBE272:
 640              	.LBE271:
 641              	.LBE270:
 642              	.LBE269:
 643              		.loc 1 248 0
 644 000c 10B5     		push	{r4, lr}
 645              		.cfi_def_cfa_offset 8
 646              		.cfi_offset 4, -8
 647              		.cfi_offset 14, -4
 648 000e 0446     		mov	r4, r0
 649              		.loc 1 256 0
 650 0010 FFF7FEFF 		bl	can_lld_sleep
 651              	.LVL31:
 652              		.loc 1 257 0
 653 0014 2046     		mov	r0, r4
 654 0016 0423     		movs	r3, #4
 655 0018 00F8243B 		strb	r3, [r0], #36
 656              	.LVL32:
 657              	.LBB280:
 658              	.LBB281:
 659              		.loc 5 844 0
 660 001c 0021     		movs	r1, #0
 661 001e FFF7FEFF 		bl	chEvtBroadcastFlagsI
 662              	.LVL33:
 663              	.LBE281:
 664              	.LBE280:
 665              	.LBB282:
 666              	.LBB283:
 667              		.loc 5 600 0
 668 0022 FFF7FEFF 		bl	chSchRescheduleS
 669              	.LVL34:
 670              	.LBE283:
 671              	.LBE282:
 672              	.LBB284:
 673              	.LBB279:
 674              	.LBB278:
 675              	.LBB277:
 676              	.LBB276:
 677              	.LBB275:
 678              		.loc 4 331 0
 679              		.syntax unified
 680              	@ 331 "ChibiOS_3.0.2/os/ext/CMSIS/include/core_cmFunc.h" 1
 681 0026 62B6     		cpsie i
 682              	@ 0 "" 2
 683              		.thumb
 684              		.syntax unified
ARM GAS  /tmp/ccy0t8nv.s 			page 13


 685              	.LBE275:
 686              	.LBE276:
 687              	.LBE277:
 688              	.LBE278:
 689              	.LBE279:
 690              	.LBE284:
 691              		.loc 1 262 0
 692 0028 10BD     		pop	{r4, pc}
 693              		.cfi_endproc
 694              	.LFE262:
 695              		.size	canSleep, .-canSleep
 696 002a 00BF     		.section	.text.canWakeup,"ax",%progbits
 697              		.align	1
 698              		.p2align 4,,15
 699              		.global	canWakeup
 700              		.syntax unified
 701              		.thumb
 702              		.thumb_func
 703              		.fpu fpv4-sp-d16
 704              		.type	canWakeup, %function
 705              	canWakeup:
 706              	.LFB263:
 707              		.loc 1 271 0
 708              		.cfi_startproc
 709              		@ args = 0, pretend = 0, frame = 0
 710              		@ frame_needed = 0, uses_anonymous_args = 0
 711              	.LVL35:
 712              	.LBB285:
 713              	.LBB286:
 714              	.LBB287:
 715              	.LBB288:
 716              	.LBB289:
 717              		.loc 4 342 0
 718              		.syntax unified
 719              	@ 342 "ChibiOS_3.0.2/os/ext/CMSIS/include/core_cmFunc.h" 1
 720 0000 72B6     		cpsid i
 721              	@ 0 "" 2
 722              		.thumb
 723              		.syntax unified
 724              	.LBE289:
 725              	.LBE288:
 726              	.LBE287:
 727              	.LBE286:
 728              	.LBE285:
 729              		.loc 1 278 0
 730 0002 0278     		ldrb	r2, [r0]	@ zero_extendqisi2
 731 0004 042A     		cmp	r2, #4
 732 0006 01D0     		beq	.L50
 733              	.LBB290:
 734              	.LBB291:
 735              	.LBB292:
 736              	.LBB293:
 737              	.LBB294:
 738              	.LBB295:
 739              		.loc 4 331 0
 740              		.syntax unified
 741              	@ 331 "ChibiOS_3.0.2/os/ext/CMSIS/include/core_cmFunc.h" 1
ARM GAS  /tmp/ccy0t8nv.s 			page 14


 742 0008 62B6     		cpsie i
 743              	@ 0 "" 2
 744              		.thumb
 745              		.syntax unified
 746 000a 7047     		bx	lr
 747              	.L50:
 748              	.LBE295:
 749              	.LBE294:
 750              	.LBE293:
 751              	.LBE292:
 752              	.LBE291:
 753              	.LBE290:
 754              		.loc 1 271 0
 755 000c 10B5     		push	{r4, lr}
 756              		.cfi_def_cfa_offset 8
 757              		.cfi_offset 4, -8
 758              		.cfi_offset 14, -4
 759 000e 0446     		mov	r4, r0
 760              		.loc 1 279 0
 761 0010 FFF7FEFF 		bl	can_lld_wakeup
 762              	.LVL36:
 763              		.loc 1 280 0
 764 0014 2046     		mov	r0, r4
 765 0016 0323     		movs	r3, #3
 766 0018 00F8283B 		strb	r3, [r0], #40
 767              	.LVL37:
 768              	.LBB301:
 769              	.LBB302:
 770              		.loc 5 844 0
 771 001c 0021     		movs	r1, #0
 772 001e FFF7FEFF 		bl	chEvtBroadcastFlagsI
 773              	.LVL38:
 774              	.LBE302:
 775              	.LBE301:
 776              	.LBB303:
 777              	.LBB304:
 778              		.loc 5 600 0
 779 0022 FFF7FEFF 		bl	chSchRescheduleS
 780              	.LVL39:
 781              	.LBE304:
 782              	.LBE303:
 783              	.LBB305:
 784              	.LBB300:
 785              	.LBB299:
 786              	.LBB298:
 787              	.LBB297:
 788              	.LBB296:
 789              		.loc 4 331 0
 790              		.syntax unified
 791              	@ 331 "ChibiOS_3.0.2/os/ext/CMSIS/include/core_cmFunc.h" 1
 792 0026 62B6     		cpsie i
 793              	@ 0 "" 2
 794              		.thumb
 795              		.syntax unified
 796              	.LBE296:
 797              	.LBE297:
 798              	.LBE298:
ARM GAS  /tmp/ccy0t8nv.s 			page 15


 799              	.LBE299:
 800              	.LBE300:
 801              	.LBE305:
 802              		.loc 1 285 0
 803 0028 10BD     		pop	{r4, pc}
 804              		.cfi_endproc
 805              	.LFE263:
 806              		.size	canWakeup, .-canWakeup
 807 002a 00BF     		.text
 808              	.Letext0:
 809              		.file 6 "/usr/lib/gcc/arm-none-eabi/7.3.1/include/stddef.h"
 810              		.file 7 "/usr/arm-none-eabi/include/machine/_default_types.h"
 811              		.file 8 "/usr/arm-none-eabi/include/sys/_stdint.h"
 812              		.file 9 "ChibiOS_3.0.2/os/rt/ports/ARMCMx/compilers/GCC/chtypes.h"
 813              		.file 10 "ChibiOS_3.0.2/os/rt/include/chsystypes.h"
 814              		.file 11 "ChibiOS_3.0.2/os/ext/CMSIS/include/core_cm4.h"
 815              		.file 12 "ChibiOS_3.0.2/os/ext/CMSIS/ST/system_stm32f4xx.h"
 816              		.file 13 "ChibiOS_3.0.2/os/ext/CMSIS/ST/stm32f407xx.h"
 817              		.file 14 "ChibiOS_3.0.2/os/rt/ports/ARMCMx/chcore.h"
 818              		.file 15 "ChibiOS_3.0.2/os/rt/ports/ARMCMx/chcore_v7m.h"
 819              		.file 16 "ChibiOS_3.0.2/os/rt/include/chtm.h"
 820              		.file 17 "ChibiOS_3.0.2/os/rt/include/chsem.h"
 821              		.file 18 "ChibiOS_3.0.2/os/rt/include/chmtx.h"
 822              		.file 19 "ChibiOS_3.0.2/os/rt/include/chregistry.h"
 823              		.file 20 "ChibiOS_3.0.2/os/rt/include/chqueues.h"
 824              		.file 21 "./conf_general.h"
 825              		.file 22 "ChibiOS_3.0.2/os/hal/ports/STM32/STM32F4xx/stm32_dma.h"
 826              		.file 23 "ChibiOS_3.0.2/os/hal/ports/STM32/LLD/GPIOv2/pal_lld.h"
 827              		.file 24 "ChibiOS_3.0.2/os/hal/include/can.h"
 828              		.file 25 "ChibiOS_3.0.2/os/hal/ports/STM32/LLD/can_lld.h"
 829              		.file 26 "ChibiOS_3.0.2/os/hal/include/i2c.h"
 830              		.file 27 "ChibiOS_3.0.2/os/hal/ports/STM32/LLD/I2Cv1/i2c_lld.h"
 831              		.file 28 "ChibiOS_3.0.2/os/hal/include/icu.h"
 832              		.file 29 "ChibiOS_3.0.2/os/hal/ports/STM32/LLD/TIMv1/icu_lld.h"
 833              		.file 30 "ChibiOS_3.0.2/os/hal/ports/STM32/LLD/TIMv1/stm32_tim.h"
 834              		.file 31 "ChibiOS_3.0.2/os/hal/include/serial.h"
 835              		.file 32 "ChibiOS_3.0.2/os/hal/ports/STM32/LLD/USARTv1/serial_lld.h"
 836              		.file 33 "ChibiOS_3.0.2/os/hal/include/spi.h"
 837              		.file 34 "ChibiOS_3.0.2/os/hal/ports/STM32/LLD/SPIv1/spi_lld.h"
 838              		.file 35 "ChibiOS_3.0.2/os/hal/include/usb.h"
 839              		.file 36 "ChibiOS_3.0.2/os/hal/ports/STM32/LLD/OTGv1/usb_lld.h"
 840              		.file 37 "ChibiOS_3.0.2/os/hal/ports/STM32/LLD/OTGv1/stm32_otg.h"
 841              		.file 38 "ChibiOS_3.0.2/os/rt/include/chsys.h"
 842              		.file 39 "ChibiOS_3.0.2/os/rt/include/chthreads.h"