ARM GAS  /tmp/ccGlCutS.s 			page 1


   1              		.cpu cortex-m4
   2              		.eabi_attribute 27, 1
   3              		.eabi_attribute 28, 1
   4              		.eabi_attribute 20, 1
   5              		.eabi_attribute 21, 1
   6              		.eabi_attribute 23, 3
   7              		.eabi_attribute 24, 1
   8              		.eabi_attribute 25, 1
   9              		.eabi_attribute 26, 1
  10              		.eabi_attribute 30, 2
  11              		.eabi_attribute 34, 1
  12              		.eabi_attribute 18, 4
  13              		.file	"comm_usb.c"
  14              		.text
  15              	.Ltext0:
  16              		.cfi_sections	.debug_frame
  17              		.section	.text.send_packet_raw,"ax",%progbits
  18              		.align	1
  19              		.p2align 4,,15
  20              		.syntax unified
  21              		.thumb
  22              		.thumb_func
  23              		.fpu fpv4-sp-d16
  24              		.type	send_packet_raw, %function
  25              	send_packet_raw:
  26              	.LFB259:
  27              		.file 1 "comm_usb.c"
  28              		.loc 1 96 0
  29              		.cfi_startproc
  30              		@ args = 0, pretend = 0, frame = 0
  31              		@ frame_needed = 0, uses_anonymous_args = 0
  32              		@ link register save eliminated.
  33              	.LVL0:
  34              		.loc 1 97 0
  35 0000 054B     		ldr	r3, .L4
  36              		.loc 1 96 0
  37 0002 10B4     		push	{r4}
  38              		.cfi_def_cfa_offset 4
  39              		.cfi_offset 4, -4
  40              		.loc 1 97 0
  41 0004 1C68     		ldr	r4, [r3]
  42 0006 2468     		ldr	r4, [r4]
  43 0008 0A46     		mov	r2, r1
  44 000a 0146     		mov	r1, r0
  45              	.LVL1:
  46 000c 1846     		mov	r0, r3
  47              	.LVL2:
  48 000e 2346     		mov	r3, r4
  49              		.loc 1 98 0
  50 0010 5DF8044B 		ldr	r4, [sp], #4
  51              		.cfi_restore 4
  52              		.cfi_def_cfa_offset 0
  53              		.loc 1 97 0
  54 0014 1847     		bx	r3
  55              	.LVL3:
  56              	.L5:
  57 0016 00BF     		.align	2
ARM GAS  /tmp/ccGlCutS.s 			page 2


  58              	.L4:
  59 0018 00000000 		.word	SDU1
  60              		.cfi_endproc
  61              	.LFE259:
  62              		.size	send_packet_raw, .-send_packet_raw
  63              		.section	.text.serial_process_thread,"ax",%progbits
  64              		.align	1
  65              		.p2align 4,,15
  66              		.syntax unified
  67              		.thumb
  68              		.thumb_func
  69              		.fpu fpv4-sp-d16
  70              		.type	serial_process_thread, %function
  71              	serial_process_thread:
  72              	.LFB257:
  73              		.loc 1 72 0
  74              		.cfi_startproc
  75              		@ Volatile: function does not return.
  76              		@ args = 0, pretend = 0, frame = 0
  77              		@ frame_needed = 0, uses_anonymous_args = 0
  78              	.LVL4:
  79              	.LBB10:
  80              	.LBB11:
  81              		.file 2 "ChibiOS_3.0.2/os/rt/include/chregistry.h"
  82              		.loc 2 135 0
  83 0000 114B     		ldr	r3, .L13
  84              	.LBE11:
  85              	.LBE10:
  86              		.loc 1 77 0
  87 0002 124A     		ldr	r2, .L13+4
  88              	.LBB14:
  89              	.LBB12:
  90              		.loc 2 135 0
  91 0004 9B69     		ldr	r3, [r3, #24]
  92 0006 1249     		ldr	r1, .L13+8
  93 0008 124C     		ldr	r4, .L13+12
  94 000a 134E     		ldr	r6, .L13+16
  95              	.LBE12:
  96              	.LBE14:
  97              		.loc 1 72 0
  98 000c 80B5     		push	{r7, lr}
  99              		.cfi_def_cfa_offset 8
 100              		.cfi_offset 7, -8
 101              		.cfi_offset 14, -4
 102 000e 134F     		ldr	r7, .L13+20
 103              	.LBB15:
 104              	.LBB13:
 105              		.loc 2 135 0
 106 0010 9961     		str	r1, [r3, #24]
 107              	.LVL5:
 108              	.LBE13:
 109              	.LBE15:
 110              		.loc 1 77 0
 111 0012 1360     		str	r3, [r2]
 112              		.loc 1 83 0
 113 0014 4FF00008 		mov	r8, #0
 114              	.LVL6:
ARM GAS  /tmp/ccGlCutS.s 			page 3


 115              	.L10:
 116              		.loc 1 80 0
 117 0018 0120     		movs	r0, #1
 118 001a FFF7FEFF 		bl	chEvtWaitAny
 119              	.LVL7:
 120 001e 2368     		ldr	r3, [r4]
 121              	.L8:
 122              		.loc 1 82 0
 123 0020 3268     		ldr	r2, [r6]
 124 0022 9A42     		cmp	r2, r3
 125              		.loc 1 83 0
 126 0024 03F10105 		add	r5, r3, #1
 127 0028 4FF00001 		mov	r1, #0
 128              		.loc 1 82 0
 129 002c F4D0     		beq	.L10
 130              		.loc 1 83 0
 131 002e F85C     		ldrb	r0, [r7, r3]	@ zero_extendqisi2
 132 0030 2560     		str	r5, [r4]
 133 0032 FFF7FEFF 		bl	packet_process_byte
 134              	.LVL8:
 135              		.loc 1 85 0
 136 0036 2368     		ldr	r3, [r4]
 137 0038 B3F5006F 		cmp	r3, #2048
 138              		.loc 1 86 0
 139 003c 04BF     		itt	eq
 140 003e C4F80080 		streq	r8, [r4]
 141 0042 0023     		moveq	r3, #0
 142 0044 ECE7     		b	.L8
 143              	.L14:
 144 0046 00BF     		.align	2
 145              	.L13:
 146 0048 00000000 		.word	ch
 147 004c 00000000 		.word	.LANCHOR0
 148 0050 00000000 		.word	.LC0
 149 0054 00000000 		.word	.LANCHOR1
 150 0058 00000000 		.word	.LANCHOR3
 151 005c 00000000 		.word	.LANCHOR2
 152              		.cfi_endproc
 153              	.LFE257:
 154              		.size	serial_process_thread, .-serial_process_thread
 155              		.section	.text.serial_read_thread,"ax",%progbits
 156              		.align	1
 157              		.p2align 4,,15
 158              		.syntax unified
 159              		.thumb
 160              		.thumb_func
 161              		.fpu fpv4-sp-d16
 162              		.type	serial_read_thread, %function
 163              	serial_read_thread:
 164              	.LFB256:
 165              		.loc 1 44 0
 166              		.cfi_startproc
 167              		@ args = 0, pretend = 0, frame = 128
 168              		@ frame_needed = 0, uses_anonymous_args = 0
 169              	.LVL9:
 170 0000 2DE9F043 		push	{r4, r5, r6, r7, r8, r9, lr}
 171              		.cfi_def_cfa_offset 28
ARM GAS  /tmp/ccGlCutS.s 			page 4


 172              		.cfi_offset 4, -28
 173              		.cfi_offset 5, -24
 174              		.cfi_offset 6, -20
 175              		.cfi_offset 7, -16
 176              		.cfi_offset 8, -12
 177              		.cfi_offset 9, -8
 178              		.cfi_offset 14, -4
 179              	.LBB16:
 180              	.LBB17:
 181              		.loc 2 135 0
 182 0004 154B     		ldr	r3, .L24
 183 0006 164E     		ldr	r6, .L24+4
 184 0008 9B69     		ldr	r3, [r3, #24]
 185 000a 164A     		ldr	r2, .L24+8
 186 000c 164D     		ldr	r5, .L24+12
 187 000e DFF85C90 		ldr	r9, .L24+16
 188 0012 DFF85C80 		ldr	r8, .L24+20
 189 0016 9A61     		str	r2, [r3, #24]
 190              	.LVL10:
 191              	.LBE17:
 192              	.LBE16:
 193              		.loc 1 44 0
 194 0018 A1B0     		sub	sp, sp, #132
 195              		.cfi_def_cfa_offset 160
 196              	.LBB18:
 197              		.loc 1 53 0
 198 001a 3746     		mov	r7, r6
 199 001c 6C46     		mov	r4, sp
 200              	.LVL11:
 201              	.L16:
 202 001e 3368     		ldr	r3, [r6]
 203 0020 0122     		movs	r2, #1
 204 0022 5B68     		ldr	r3, [r3, #4]
 205 0024 2146     		mov	r1, r4
 206 0026 3846     		mov	r0, r7
 207 0028 9847     		blx	r3
 208              	.LVL12:
 209              	.LBB19:
 210              		.loc 1 55 0
 211 002a 0028     		cmp	r0, #0
 212 002c F7DD     		ble	.L16
 213 002e 2B68     		ldr	r3, [r5]
 214 0030 2246     		mov	r2, r4
 215              	.LVL13:
 216              	.L18:
 217              		.loc 1 56 0
 218 0032 12F8011B 		ldrb	r1, [r2], #1	@ zero_extendqisi2
 219              	.LVL14:
 220 0036 09F80310 		strb	r1, [r9, r3]
 221 003a 0133     		adds	r3, r3, #1
 222              		.loc 1 59 0
 223 003c B3F5006F 		cmp	r3, #2048
 224              		.loc 1 55 0
 225 0040 A2EB0401 		sub	r1, r2, r4
 226              		.loc 1 59 0
 227 0044 08BF     		it	eq
 228 0046 0023     		moveq	r3, #0
ARM GAS  /tmp/ccGlCutS.s 			page 5


 229              	.LVL15:
 230              		.loc 1 55 0
 231 0048 8842     		cmp	r0, r1
 232 004a F2DC     		bgt	.L18
 233              	.LBE19:
 234              		.loc 1 66 0
 235 004c 0121     		movs	r1, #1
 236 004e D8F80000 		ldr	r0, [r8]
 237              	.LVL16:
 238 0052 2B60     		str	r3, [r5]
 239 0054 FFF7FEFF 		bl	chEvtSignal
 240              	.LVL17:
 241 0058 E1E7     		b	.L16
 242              	.L25:
 243 005a 00BF     		.align	2
 244              	.L24:
 245 005c 00000000 		.word	ch
 246 0060 00000000 		.word	SDU1
 247 0064 00000000 		.word	.LC1
 248 0068 00000000 		.word	.LANCHOR3
 249 006c 00000000 		.word	.LANCHOR2
 250 0070 00000000 		.word	.LANCHOR0
 251              	.LBE18:
 252              		.cfi_endproc
 253              	.LFE256:
 254              		.size	serial_read_thread, .-serial_read_thread
 255              		.section	.text.process_packet,"ax",%progbits
 256              		.align	1
 257              		.p2align 4,,15
 258              		.syntax unified
 259              		.thumb
 260              		.thumb_func
 261              		.fpu fpv4-sp-d16
 262              		.type	process_packet, %function
 263              	process_packet:
 264              	.LFB258:
 265              		.loc 1 92 0
 266              		.cfi_startproc
 267              		@ args = 0, pretend = 0, frame = 0
 268              		@ frame_needed = 0, uses_anonymous_args = 0
 269              		@ link register save eliminated.
 270              	.LVL18:
 271              		.loc 1 93 0
 272 0000 014A     		ldr	r2, .L27
 273 0002 FFF7FEBF 		b	commands_process_packet
 274              	.LVL19:
 275              	.L28:
 276 0006 00BF     		.align	2
 277              	.L27:
 278 0008 00000000 		.word	comm_usb_send_packet
 279              		.cfi_endproc
 280              	.LFE258:
 281              		.size	process_packet, .-process_packet
 282              		.section	.text.comm_usb_send_packet,"ax",%progbits
 283              		.align	1
 284              		.p2align 4,,15
 285              		.global	comm_usb_send_packet
ARM GAS  /tmp/ccGlCutS.s 			page 6


 286              		.syntax unified
 287              		.thumb
 288              		.thumb_func
 289              		.fpu fpv4-sp-d16
 290              		.type	comm_usb_send_packet, %function
 291              	comm_usb_send_packet:
 292              	.LFB261:
 293              		.loc 1 111 0
 294              		.cfi_startproc
 295              		@ args = 0, pretend = 0, frame = 0
 296              		@ frame_needed = 0, uses_anonymous_args = 0
 297              	.LVL20:
 298 0000 70B5     		push	{r4, r5, r6, lr}
 299              		.cfi_def_cfa_offset 16
 300              		.cfi_offset 4, -16
 301              		.cfi_offset 5, -12
 302              		.cfi_offset 6, -8
 303              		.cfi_offset 14, -4
 304              		.loc 1 112 0
 305 0002 084C     		ldr	r4, .L31
 306              		.loc 1 111 0
 307 0004 0546     		mov	r5, r0
 308 0006 0E46     		mov	r6, r1
 309              		.loc 1 112 0
 310 0008 2046     		mov	r0, r4
 311              	.LVL21:
 312 000a FFF7FEFF 		bl	chMtxLock
 313              	.LVL22:
 314              		.loc 1 113 0
 315 000e 2846     		mov	r0, r5
 316 0010 3146     		mov	r1, r6
 317 0012 0022     		movs	r2, #0
 318 0014 FFF7FEFF 		bl	packet_send_packet
 319              	.LVL23:
 320              		.loc 1 114 0
 321 0018 2046     		mov	r0, r4
 322              		.loc 1 115 0
 323 001a BDE87040 		pop	{r4, r5, r6, lr}
 324              		.cfi_restore 14
 325              		.cfi_restore 6
 326              		.cfi_restore 5
 327              		.cfi_restore 4
 328              		.cfi_def_cfa_offset 0
 329              	.LVL24:
 330              		.loc 1 114 0
 331 001e FFF7FEBF 		b	chMtxUnlock
 332              	.LVL25:
 333              	.L32:
 334 0022 00BF     		.align	2
 335              	.L31:
 336 0024 00000000 		.word	.LANCHOR4
 337              		.cfi_endproc
 338              	.LFE261:
 339              		.size	comm_usb_send_packet, .-comm_usb_send_packet
 340              		.section	.text.comm_usb_init,"ax",%progbits
 341              		.align	1
 342              		.p2align 4,,15
ARM GAS  /tmp/ccGlCutS.s 			page 7


 343              		.global	comm_usb_init
 344              		.syntax unified
 345              		.thumb
 346              		.thumb_func
 347              		.fpu fpv4-sp-d16
 348              		.type	comm_usb_init, %function
 349              	comm_usb_init:
 350              	.LFB260:
 351              		.loc 1 100 0
 352              		.cfi_startproc
 353              		@ args = 0, pretend = 0, frame = 0
 354              		@ frame_needed = 0, uses_anonymous_args = 0
 355 0000 10B5     		push	{r4, lr}
 356              		.cfi_def_cfa_offset 8
 357              		.cfi_offset 4, -8
 358              		.cfi_offset 14, -4
 359 0002 82B0     		sub	sp, sp, #8
 360              		.cfi_def_cfa_offset 16
 361              		.loc 1 101 0
 362 0004 FFF7FEFF 		bl	comm_usb_serial_init
 363              	.LVL26:
 364              		.loc 1 102 0
 365 0008 0022     		movs	r2, #0
 366 000a 0D49     		ldr	r1, .L35
 367 000c 0D48     		ldr	r0, .L35+4
 368 000e FFF7FEFF 		bl	packet_init
 369              	.LVL27:
 370              		.loc 1 107 0
 371 0012 0024     		movs	r4, #0
 372              		.loc 1 104 0
 373 0014 0C48     		ldr	r0, .L35+8
 374 0016 FFF7FEFF 		bl	chMtxObjectInit
 375              	.LVL28:
 376              		.loc 1 107 0
 377 001a 0094     		str	r4, [sp]
 378 001c 0B4B     		ldr	r3, .L35+12
 379 001e 0C48     		ldr	r0, .L35+16
 380 0020 4022     		movs	r2, #64
 381 0022 4FF42671 		mov	r1, #664
 382 0026 FFF7FEFF 		bl	chThdCreateStatic
 383              	.LVL29:
 384              		.loc 1 108 0
 385 002a 0094     		str	r4, [sp]
 386 002c 094B     		ldr	r3, .L35+20
 387 002e 0A48     		ldr	r0, .L35+24
 388 0030 4022     		movs	r2, #64
 389 0032 41F29811 		movw	r1, #4504
 390 0036 FFF7FEFF 		bl	chThdCreateStatic
 391              	.LVL30:
 392              		.loc 1 109 0
 393 003a 02B0     		add	sp, sp, #8
 394              		.cfi_def_cfa_offset 8
 395              		@ sp needed
 396 003c 10BD     		pop	{r4, pc}
 397              	.L36:
 398 003e 00BF     		.align	2
 399              	.L35:
ARM GAS  /tmp/ccGlCutS.s 			page 8


 400 0040 00000000 		.word	process_packet
 401 0044 00000000 		.word	send_packet_raw
 402 0048 00000000 		.word	.LANCHOR4
 403 004c 00000000 		.word	serial_read_thread
 404 0050 00000000 		.word	.LANCHOR5
 405 0054 00000000 		.word	serial_process_thread
 406 0058 00000000 		.word	serial_process_thread_wa
 407              		.cfi_endproc
 408              	.LFE260:
 409              		.size	comm_usb_init, .-comm_usb_init
 410              		.section	.bss.process_tp,"aw",%nobits
 411              		.align	2
 412              		.set	.LANCHOR0,. + 0
 413              		.type	process_tp, %object
 414              		.size	process_tp, 4
 415              	process_tp:
 416 0000 00000000 		.space	4
 417              		.section	.bss.send_mutex,"aw",%nobits
 418              		.align	2
 419              		.set	.LANCHOR4,. + 0
 420              		.type	send_mutex, %object
 421              		.size	send_mutex, 16
 422              	send_mutex:
 423 0000 00000000 		.space	16
 423      00000000 
 423      00000000 
 423      00000000 
 424              		.section	.bss.serial_process_thread_wa,"aw",%nobits
 425              		.align	3
 426              		.type	serial_process_thread_wa, %object
 427              		.size	serial_process_thread_wa, 4504
 428              	serial_process_thread_wa:
 429 0000 00000000 		.space	4504
 429      00000000 
 429      00000000 
 429      00000000 
 429      00000000 
 430              		.section	.bss.serial_read_thread_wa,"aw",%nobits
 431              		.align	3
 432              		.set	.LANCHOR5,. + 0
 433              		.type	serial_read_thread_wa, %object
 434              		.size	serial_read_thread_wa, 664
 435              	serial_read_thread_wa:
 436 0000 00000000 		.space	664
 436      00000000 
 436      00000000 
 436      00000000 
 436      00000000 
 437              		.section	.bss.serial_rx_buffer,"aw",%nobits
 438              		.align	2
 439              		.set	.LANCHOR2,. + 0
 440              		.type	serial_rx_buffer, %object
 441              		.size	serial_rx_buffer, 2048
 442              	serial_rx_buffer:
 443 0000 00000000 		.space	2048
 443      00000000 
 443      00000000 
ARM GAS  /tmp/ccGlCutS.s 			page 9


 443      00000000 
 443      00000000 
 444              		.section	.bss.serial_rx_read_pos,"aw",%nobits
 445              		.align	2
 446              		.set	.LANCHOR1,. + 0
 447              		.type	serial_rx_read_pos, %object
 448              		.size	serial_rx_read_pos, 4
 449              	serial_rx_read_pos:
 450 0000 00000000 		.space	4
 451              		.section	.bss.serial_rx_write_pos,"aw",%nobits
 452              		.align	2
 453              		.set	.LANCHOR3,. + 0
 454              		.type	serial_rx_write_pos, %object
 455              		.size	serial_rx_write_pos, 4
 456              	serial_rx_write_pos:
 457 0000 00000000 		.space	4
 458              		.section	.rodata.serial_process_thread.str1.4,"aMS",%progbits,1
 459              		.align	2
 460              	.LC0:
 461 0000 5553422D 		.ascii	"USB-Serial process\000"
 461      53657269 
 461      616C2070 
 461      726F6365 
 461      737300
 462              		.section	.rodata.serial_read_thread.str1.4,"aMS",%progbits,1
 463              		.align	2
 464              	.LC1:
 465 0000 5553422D 		.ascii	"USB-Serial read\000"
 465      53657269 
 465      616C2072 
 465      65616400 
 466              		.text
 467              	.Letext0:
 468              		.file 3 "/usr/lib/gcc/arm-none-eabi/7.3.1/include/stddef.h"
 469              		.file 4 "/usr/arm-none-eabi/include/machine/_default_types.h"
 470              		.file 5 "/usr/arm-none-eabi/include/sys/_stdint.h"
 471              		.file 6 "ChibiOS_3.0.2/os/rt/ports/ARMCMx/compilers/GCC/chtypes.h"
 472              		.file 7 "ChibiOS_3.0.2/os/rt/include/chsystypes.h"
 473              		.file 8 "ChibiOS_3.0.2/os/rt/include/chschd.h"
 474              		.file 9 "ChibiOS_3.0.2/os/ext/CMSIS/include/core_cm4.h"
 475              		.file 10 "ChibiOS_3.0.2/os/ext/CMSIS/ST/system_stm32f4xx.h"
 476              		.file 11 "ChibiOS_3.0.2/os/ext/CMSIS/ST/stm32f407xx.h"
 477              		.file 12 "ChibiOS_3.0.2/os/rt/ports/ARMCMx/chcore.h"
 478              		.file 13 "ChibiOS_3.0.2/os/rt/ports/ARMCMx/chcore_v7m.h"
 479              		.file 14 "ChibiOS_3.0.2/os/rt/include/chtm.h"
 480              		.file 15 "ChibiOS_3.0.2/os/rt/include/chsem.h"
 481              		.file 16 "ChibiOS_3.0.2/os/rt/include/chmtx.h"
 482              		.file 17 "ChibiOS_3.0.2/os/rt/include/chevents.h"
 483              		.file 18 "ChibiOS_3.0.2/os/rt/include/chqueues.h"
 484              		.file 19 "./conf_general.h"
 485              		.file 20 "ChibiOS_3.0.2/os/hal/ports/STM32/STM32F4xx/stm32_dma.h"
 486              		.file 21 "ChibiOS_3.0.2/os/hal/ports/STM32/LLD/GPIOv2/pal_lld.h"
 487              		.file 22 "ChibiOS_3.0.2/os/hal/include/can.h"
 488              		.file 23 "ChibiOS_3.0.2/os/hal/ports/STM32/LLD/can_lld.h"
 489              		.file 24 "ChibiOS_3.0.2/os/hal/include/i2c.h"
 490              		.file 25 "ChibiOS_3.0.2/os/hal/ports/STM32/LLD/I2Cv1/i2c_lld.h"
 491              		.file 26 "ChibiOS_3.0.2/os/hal/include/icu.h"
ARM GAS  /tmp/ccGlCutS.s 			page 10


 492              		.file 27 "ChibiOS_3.0.2/os/hal/ports/STM32/LLD/TIMv1/icu_lld.h"
 493              		.file 28 "ChibiOS_3.0.2/os/hal/ports/STM32/LLD/TIMv1/stm32_tim.h"
 494              		.file 29 "ChibiOS_3.0.2/os/hal/include/serial.h"
 495              		.file 30 "ChibiOS_3.0.2/os/hal/ports/STM32/LLD/USARTv1/serial_lld.h"
 496              		.file 31 "ChibiOS_3.0.2/os/hal/include/spi.h"
 497              		.file 32 "ChibiOS_3.0.2/os/hal/ports/STM32/LLD/SPIv1/spi_lld.h"
 498              		.file 33 "ChibiOS_3.0.2/os/hal/include/usb.h"
 499              		.file 34 "ChibiOS_3.0.2/os/hal/ports/STM32/LLD/OTGv1/usb_lld.h"
 500              		.file 35 "ChibiOS_3.0.2/os/hal/ports/STM32/LLD/OTGv1/stm32_otg.h"
 501              		.file 36 "ChibiOS_3.0.2/os/hal/include/serial_usb.h"
 502              		.file 37 "comm_usb_serial.h"
 503              		.file 38 "packet.h"
 504              		.file 39 "ChibiOS_3.0.2/os/rt/include/chthreads.h"
 505              		.file 40 "commands.h"