ARM GAS  /tmp/cccRWWaa.s 			page 1


   1              		.cpu cortex-m4
   2              		.eabi_attribute 27, 1
   3              		.eabi_attribute 28, 1
   4              		.eabi_attribute 20, 1
   5              		.eabi_attribute 21, 1
   6              		.eabi_attribute 23, 3
   7              		.eabi_attribute 24, 1
   8              		.eabi_attribute 25, 1
   9              		.eabi_attribute 26, 1
  10              		.eabi_attribute 30, 2
  11              		.eabi_attribute 34, 1
  12              		.eabi_attribute 18, 4
  13              		.file	"icu.c"
  14              		.text
  15              	.Ltext0:
  16              		.cfi_sections	.debug_frame
  17              		.section	.text.icuInit,"ax",%progbits
  18              		.align	1
  19              		.p2align 4,,15
  20              		.global	icuInit
  21              		.syntax unified
  22              		.thumb
  23              		.thumb_func
  24              		.fpu fpv4-sp-d16
  25              		.type	icuInit, %function
  26              	icuInit:
  27              	.LFB256:
  28              		.file 1 "ChibiOS_3.0.2/os/hal/src/icu.c"
  29              		.loc 1 56 0
  30              		.cfi_startproc
  31              		@ args = 0, pretend = 0, frame = 0
  32              		@ frame_needed = 0, uses_anonymous_args = 0
  33              		@ link register save eliminated.
  34              		.loc 1 58 0
  35 0000 FFF7FEBF 		b	icu_lld_init
  36              	.LVL0:
  37              		.cfi_endproc
  38              	.LFE256:
  39              		.size	icuInit, .-icuInit
  40              		.section	.text.icuObjectInit,"ax",%progbits
  41              		.align	1
  42              		.p2align 4,,15
  43              		.global	icuObjectInit
  44              		.syntax unified
  45              		.thumb
  46              		.thumb_func
  47              		.fpu fpv4-sp-d16
  48              		.type	icuObjectInit, %function
  49              	icuObjectInit:
  50              	.LFB257:
  51              		.loc 1 68 0
  52              		.cfi_startproc
  53              		@ args = 0, pretend = 0, frame = 0
  54              		@ frame_needed = 0, uses_anonymous_args = 0
  55              		@ link register save eliminated.
  56              	.LVL1:
  57              		.loc 1 70 0
ARM GAS  /tmp/cccRWWaa.s 			page 2


  58 0000 0122     		movs	r2, #1
  59              		.loc 1 71 0
  60 0002 0023     		movs	r3, #0
  61              		.loc 1 70 0
  62 0004 0270     		strb	r2, [r0]
  63              		.loc 1 71 0
  64 0006 4360     		str	r3, [r0, #4]
  65              		.loc 1 72 0
  66 0008 7047     		bx	lr
  67              		.cfi_endproc
  68              	.LFE257:
  69              		.size	icuObjectInit, .-icuObjectInit
  70 000a 00BF     		.section	.text.icuStart,"ax",%progbits
  71              		.align	1
  72              		.p2align 4,,15
  73              		.global	icuStart
  74              		.syntax unified
  75              		.thumb
  76              		.thumb_func
  77              		.fpu fpv4-sp-d16
  78              		.type	icuStart, %function
  79              	icuStart:
  80              	.LFB258:
  81              		.loc 1 82 0
  82              		.cfi_startproc
  83              		@ args = 0, pretend = 0, frame = 0
  84              		@ frame_needed = 0, uses_anonymous_args = 0
  85              	.LVL2:
  86 0000 10B5     		push	{r4, lr}
  87              		.cfi_def_cfa_offset 8
  88              		.cfi_offset 4, -8
  89              		.cfi_offset 14, -4
  90              		.loc 1 82 0
  91 0002 0446     		mov	r4, r0
  92              	.LBB115:
  93              	.LBB116:
  94              	.LBB117:
  95              	.LBB118:
  96              	.LBB119:
  97              		.file 2 "ChibiOS_3.0.2/os/ext/CMSIS/include/core_cmFunc.h"
  98              		.loc 2 342 0
  99              		.syntax unified
 100              	@ 342 "ChibiOS_3.0.2/os/ext/CMSIS/include/core_cmFunc.h" 1
 101 0004 72B6     		cpsid i
 102              	@ 0 "" 2
 103              		.thumb
 104              		.syntax unified
 105              	.LBE119:
 106              	.LBE118:
 107              	.LBE117:
 108              	.LBE116:
 109              	.LBE115:
 110              		.loc 1 89 0
 111 0006 4160     		str	r1, [r0, #4]
 112              		.loc 1 90 0
 113 0008 FFF7FEFF 		bl	icu_lld_start
 114              	.LVL3:
ARM GAS  /tmp/cccRWWaa.s 			page 3


 115              		.loc 1 91 0
 116 000c 0223     		movs	r3, #2
 117 000e 2370     		strb	r3, [r4]
 118              	.LBB120:
 119              	.LBB121:
 120              	.LBB122:
 121              	.LBB123:
 122              	.LBB124:
 123              	.LBB125:
 124              		.loc 2 331 0
 125              		.syntax unified
 126              	@ 331 "ChibiOS_3.0.2/os/ext/CMSIS/include/core_cmFunc.h" 1
 127 0010 62B6     		cpsie i
 128              	@ 0 "" 2
 129              		.thumb
 130              		.syntax unified
 131              	.LBE125:
 132              	.LBE124:
 133              	.LBE123:
 134              	.LBE122:
 135              	.LBE121:
 136              	.LBE120:
 137              		.loc 1 93 0
 138 0012 10BD     		pop	{r4, pc}
 139              		.cfi_endproc
 140              	.LFE258:
 141              		.size	icuStart, .-icuStart
 142              		.section	.text.icuStop,"ax",%progbits
 143              		.align	1
 144              		.p2align 4,,15
 145              		.global	icuStop
 146              		.syntax unified
 147              		.thumb
 148              		.thumb_func
 149              		.fpu fpv4-sp-d16
 150              		.type	icuStop, %function
 151              	icuStop:
 152              	.LFB259:
 153              		.loc 1 102 0
 154              		.cfi_startproc
 155              		@ args = 0, pretend = 0, frame = 0
 156              		@ frame_needed = 0, uses_anonymous_args = 0
 157              	.LVL4:
 158 0000 10B5     		push	{r4, lr}
 159              		.cfi_def_cfa_offset 8
 160              		.cfi_offset 4, -8
 161              		.cfi_offset 14, -4
 162              		.loc 1 102 0
 163 0002 0446     		mov	r4, r0
 164              	.LBB126:
 165              	.LBB127:
 166              	.LBB128:
 167              	.LBB129:
 168              	.LBB130:
 169              		.loc 2 342 0
 170              		.syntax unified
 171              	@ 342 "ChibiOS_3.0.2/os/ext/CMSIS/include/core_cmFunc.h" 1
ARM GAS  /tmp/cccRWWaa.s 			page 4


 172 0004 72B6     		cpsid i
 173              	@ 0 "" 2
 174              		.thumb
 175              		.syntax unified
 176              	.LBE130:
 177              	.LBE129:
 178              	.LBE128:
 179              	.LBE127:
 180              	.LBE126:
 181              		.loc 1 109 0
 182 0006 FFF7FEFF 		bl	icu_lld_stop
 183              	.LVL5:
 184              		.loc 1 110 0
 185 000a 0123     		movs	r3, #1
 186 000c 2370     		strb	r3, [r4]
 187              	.LBB131:
 188              	.LBB132:
 189              	.LBB133:
 190              	.LBB134:
 191              	.LBB135:
 192              	.LBB136:
 193              		.loc 2 331 0
 194              		.syntax unified
 195              	@ 331 "ChibiOS_3.0.2/os/ext/CMSIS/include/core_cmFunc.h" 1
 196 000e 62B6     		cpsie i
 197              	@ 0 "" 2
 198              		.thumb
 199              		.syntax unified
 200              	.LBE136:
 201              	.LBE135:
 202              	.LBE134:
 203              	.LBE133:
 204              	.LBE132:
 205              	.LBE131:
 206              		.loc 1 112 0
 207 0010 10BD     		pop	{r4, pc}
 208              		.cfi_endproc
 209              	.LFE259:
 210              		.size	icuStop, .-icuStop
 211 0012 00BF     		.section	.text.icuStartCapture,"ax",%progbits
 212              		.align	1
 213              		.p2align 4,,15
 214              		.global	icuStartCapture
 215              		.syntax unified
 216              		.thumb
 217              		.thumb_func
 218              		.fpu fpv4-sp-d16
 219              		.type	icuStartCapture, %function
 220              	icuStartCapture:
 221              	.LFB260:
 222              		.loc 1 121 0
 223              		.cfi_startproc
 224              		@ args = 0, pretend = 0, frame = 0
 225              		@ frame_needed = 0, uses_anonymous_args = 0
 226              	.LVL6:
 227 0000 10B5     		push	{r4, lr}
 228              		.cfi_def_cfa_offset 8
ARM GAS  /tmp/cccRWWaa.s 			page 5


 229              		.cfi_offset 4, -8
 230              		.cfi_offset 14, -4
 231              		.loc 1 121 0
 232 0002 0446     		mov	r4, r0
 233              	.LBB137:
 234              	.LBB138:
 235              	.LBB139:
 236              	.LBB140:
 237              	.LBB141:
 238              		.loc 2 342 0
 239              		.syntax unified
 240              	@ 342 "ChibiOS_3.0.2/os/ext/CMSIS/include/core_cmFunc.h" 1
 241 0004 72B6     		cpsid i
 242              	@ 0 "" 2
 243              		.thumb
 244              		.syntax unified
 245              	.LBE141:
 246              	.LBE140:
 247              	.LBE139:
 248              	.LBE138:
 249              	.LBE137:
 250              		.loc 1 127 0
 251 0006 FFF7FEFF 		bl	icu_lld_start_capture
 252              	.LVL7:
 253 000a 0323     		movs	r3, #3
 254 000c 2370     		strb	r3, [r4]
 255              	.LBB142:
 256              	.LBB143:
 257              	.LBB144:
 258              	.LBB145:
 259              	.LBB146:
 260              	.LBB147:
 261              		.loc 2 331 0
 262              		.syntax unified
 263              	@ 331 "ChibiOS_3.0.2/os/ext/CMSIS/include/core_cmFunc.h" 1
 264 000e 62B6     		cpsie i
 265              	@ 0 "" 2
 266              		.thumb
 267              		.syntax unified
 268              	.LBE147:
 269              	.LBE146:
 270              	.LBE145:
 271              	.LBE144:
 272              	.LBE143:
 273              	.LBE142:
 274              		.loc 1 129 0
 275 0010 10BD     		pop	{r4, pc}
 276              		.cfi_endproc
 277              	.LFE260:
 278              		.size	icuStartCapture, .-icuStartCapture
 279 0012 00BF     		.section	.text.icuWaitCapture,"ax",%progbits
 280              		.align	1
 281              		.p2align 4,,15
 282              		.global	icuWaitCapture
 283              		.syntax unified
 284              		.thumb
 285              		.thumb_func
ARM GAS  /tmp/cccRWWaa.s 			page 6


 286              		.fpu fpv4-sp-d16
 287              		.type	icuWaitCapture, %function
 288              	icuWaitCapture:
 289              	.LFB261:
 290              		.loc 1 147 0
 291              		.cfi_startproc
 292              		@ args = 0, pretend = 0, frame = 0
 293              		@ frame_needed = 0, uses_anonymous_args = 0
 294              	.LVL8:
 295 0000 10B5     		push	{r4, lr}
 296              		.cfi_def_cfa_offset 8
 297              		.cfi_offset 4, -8
 298              		.cfi_offset 14, -4
 299              		.loc 1 147 0
 300 0002 0446     		mov	r4, r0
 301              	.LBB148:
 302              	.LBB149:
 303              	.LBB150:
 304              	.LBB151:
 305              	.LBB152:
 306              		.loc 2 342 0
 307              		.syntax unified
 308              	@ 342 "ChibiOS_3.0.2/os/ext/CMSIS/include/core_cmFunc.h" 1
 309 0004 72B6     		cpsid i
 310              	@ 0 "" 2
 311              		.thumb
 312              		.syntax unified
 313              	.LBE152:
 314              	.LBE151:
 315              	.LBE150:
 316              	.LBE149:
 317              	.LBE148:
 318              		.loc 1 157 0
 319 0006 FFF7FEFF 		bl	icu_lld_wait_capture
 320              	.LVL9:
 321              		.loc 1 158 0
 322 000a 0028     		cmp	r0, #0
 323 000c 14BF     		ite	ne
 324 000e 0323     		movne	r3, #3
 325 0010 0423     		moveq	r3, #4
 326 0012 2370     		strb	r3, [r4]
 327              	.LBB153:
 328              	.LBB154:
 329              	.LBB155:
 330              	.LBB156:
 331              	.LBB157:
 332              	.LBB158:
 333              		.loc 2 331 0
 334              		.syntax unified
 335              	@ 331 "ChibiOS_3.0.2/os/ext/CMSIS/include/core_cmFunc.h" 1
 336 0014 62B6     		cpsie i
 337              	@ 0 "" 2
 338              		.thumb
 339              		.syntax unified
 340              	.LBE158:
 341              	.LBE157:
 342              	.LBE156:
ARM GAS  /tmp/cccRWWaa.s 			page 7


 343              	.LBE155:
 344              	.LBE154:
 345              	.LBE153:
 346              		.loc 1 162 0
 347 0016 10BD     		pop	{r4, pc}
 348              		.cfi_endproc
 349              	.LFE261:
 350              		.size	icuWaitCapture, .-icuWaitCapture
 351              		.section	.text.icuStopCapture,"ax",%progbits
 352              		.align	1
 353              		.p2align 4,,15
 354              		.global	icuStopCapture
 355              		.syntax unified
 356              		.thumb
 357              		.thumb_func
 358              		.fpu fpv4-sp-d16
 359              		.type	icuStopCapture, %function
 360              	icuStopCapture:
 361              	.LFB262:
 362              		.loc 1 171 0
 363              		.cfi_startproc
 364              		@ args = 0, pretend = 0, frame = 0
 365              		@ frame_needed = 0, uses_anonymous_args = 0
 366              	.LVL10:
 367 0000 10B5     		push	{r4, lr}
 368              		.cfi_def_cfa_offset 8
 369              		.cfi_offset 4, -8
 370              		.cfi_offset 14, -4
 371              		.loc 1 171 0
 372 0002 0446     		mov	r4, r0
 373              	.LBB159:
 374              	.LBB160:
 375              	.LBB161:
 376              	.LBB162:
 377              	.LBB163:
 378              		.loc 2 342 0
 379              		.syntax unified
 380              	@ 342 "ChibiOS_3.0.2/os/ext/CMSIS/include/core_cmFunc.h" 1
 381 0004 72B6     		cpsid i
 382              	@ 0 "" 2
 383              		.thumb
 384              		.syntax unified
 385              	.LBE163:
 386              	.LBE162:
 387              	.LBE161:
 388              	.LBE160:
 389              	.LBE159:
 390              		.loc 1 179 0
 391 0006 FFF7FEFF 		bl	icu_lld_stop_capture
 392              	.LVL11:
 393 000a 0223     		movs	r3, #2
 394 000c 2370     		strb	r3, [r4]
 395              	.LBB164:
 396              	.LBB165:
 397              	.LBB166:
 398              	.LBB167:
 399              	.LBB168:
ARM GAS  /tmp/cccRWWaa.s 			page 8


 400              	.LBB169:
 401              		.loc 2 331 0
 402              		.syntax unified
 403              	@ 331 "ChibiOS_3.0.2/os/ext/CMSIS/include/core_cmFunc.h" 1
 404 000e 62B6     		cpsie i
 405              	@ 0 "" 2
 406              		.thumb
 407              		.syntax unified
 408              	.LBE169:
 409              	.LBE168:
 410              	.LBE167:
 411              	.LBE166:
 412              	.LBE165:
 413              	.LBE164:
 414              		.loc 1 181 0
 415 0010 10BD     		pop	{r4, pc}
 416              		.cfi_endproc
 417              	.LFE262:
 418              		.size	icuStopCapture, .-icuStopCapture
 419 0012 00BF     		.section	.text.icuEnableNotifications,"ax",%progbits
 420              		.align	1
 421              		.p2align 4,,15
 422              		.global	icuEnableNotifications
 423              		.syntax unified
 424              		.thumb
 425              		.thumb_func
 426              		.fpu fpv4-sp-d16
 427              		.type	icuEnableNotifications, %function
 428              	icuEnableNotifications:
 429              	.LFB263:
 430              		.loc 1 192 0
 431              		.cfi_startproc
 432              		@ args = 0, pretend = 0, frame = 0
 433              		@ frame_needed = 0, uses_anonymous_args = 0
 434              	.LVL12:
 435 0000 08B5     		push	{r3, lr}
 436              		.cfi_def_cfa_offset 8
 437              		.cfi_offset 3, -8
 438              		.cfi_offset 14, -4
 439              	.LBB170:
 440              	.LBB171:
 441              	.LBB172:
 442              	.LBB173:
 443              	.LBB174:
 444              		.loc 2 342 0
 445              		.syntax unified
 446              	@ 342 "ChibiOS_3.0.2/os/ext/CMSIS/include/core_cmFunc.h" 1
 447 0002 72B6     		cpsid i
 448              	@ 0 "" 2
 449              		.thumb
 450              		.syntax unified
 451              	.LBE174:
 452              	.LBE173:
 453              	.LBE172:
 454              	.LBE171:
 455              	.LBE170:
 456              		.loc 1 199 0
ARM GAS  /tmp/cccRWWaa.s 			page 9


 457 0004 FFF7FEFF 		bl	icu_lld_enable_notifications
 458              	.LVL13:
 459              	.LBB175:
 460              	.LBB176:
 461              	.LBB177:
 462              	.LBB178:
 463              	.LBB179:
 464              	.LBB180:
 465              		.loc 2 331 0
 466              		.syntax unified
 467              	@ 331 "ChibiOS_3.0.2/os/ext/CMSIS/include/core_cmFunc.h" 1
 468 0008 62B6     		cpsie i
 469              	@ 0 "" 2
 470              		.thumb
 471              		.syntax unified
 472              	.LBE180:
 473              	.LBE179:
 474              	.LBE178:
 475              	.LBE177:
 476              	.LBE176:
 477              	.LBE175:
 478              		.loc 1 201 0
 479 000a 08BD     		pop	{r3, pc}
 480              		.cfi_endproc
 481              	.LFE263:
 482              		.size	icuEnableNotifications, .-icuEnableNotifications
 483              		.section	.text.icuDisableNotifications,"ax",%progbits
 484              		.align	1
 485              		.p2align 4,,15
 486              		.global	icuDisableNotifications
 487              		.syntax unified
 488              		.thumb
 489              		.thumb_func
 490              		.fpu fpv4-sp-d16
 491              		.type	icuDisableNotifications, %function
 492              	icuDisableNotifications:
 493              	.LFB264:
 494              		.loc 1 212 0
 495              		.cfi_startproc
 496              		@ args = 0, pretend = 0, frame = 0
 497              		@ frame_needed = 0, uses_anonymous_args = 0
 498              	.LVL14:
 499 0000 08B5     		push	{r3, lr}
 500              		.cfi_def_cfa_offset 8
 501              		.cfi_offset 3, -8
 502              		.cfi_offset 14, -4
 503              	.LBB181:
 504              	.LBB182:
 505              	.LBB183:
 506              	.LBB184:
 507              	.LBB185:
 508              		.loc 2 342 0
 509              		.syntax unified
 510              	@ 342 "ChibiOS_3.0.2/os/ext/CMSIS/include/core_cmFunc.h" 1
 511 0002 72B6     		cpsid i
 512              	@ 0 "" 2
 513              		.thumb
ARM GAS  /tmp/cccRWWaa.s 			page 10


 514              		.syntax unified
 515              	.LBE185:
 516              	.LBE184:
 517              	.LBE183:
 518              	.LBE182:
 519              	.LBE181:
 520              		.loc 1 219 0
 521 0004 FFF7FEFF 		bl	icu_lld_disable_notifications
 522              	.LVL15:
 523              	.LBB186:
 524              	.LBB187:
 525              	.LBB188:
 526              	.LBB189:
 527              	.LBB190:
 528              	.LBB191:
 529              		.loc 2 331 0
 530              		.syntax unified
 531              	@ 331 "ChibiOS_3.0.2/os/ext/CMSIS/include/core_cmFunc.h" 1
 532 0008 62B6     		cpsie i
 533              	@ 0 "" 2
 534              		.thumb
 535              		.syntax unified
 536              	.LBE191:
 537              	.LBE190:
 538              	.LBE189:
 539              	.LBE188:
 540              	.LBE187:
 541              	.LBE186:
 542              		.loc 1 221 0
 543 000a 08BD     		pop	{r3, pc}
 544              		.cfi_endproc
 545              	.LFE264:
 546              		.size	icuDisableNotifications, .-icuDisableNotifications
 547              		.text
 548              	.Letext0:
 549              		.file 3 "/usr/lib/gcc/arm-none-eabi/7.3.1/include/stddef.h"
 550              		.file 4 "/usr/arm-none-eabi/include/machine/_default_types.h"
 551              		.file 5 "/usr/arm-none-eabi/include/sys/_stdint.h"
 552              		.file 6 "ChibiOS_3.0.2/os/rt/ports/ARMCMx/compilers/GCC/chtypes.h"
 553              		.file 7 "ChibiOS_3.0.2/os/rt/include/chsystypes.h"
 554              		.file 8 "ChibiOS_3.0.2/os/rt/include/chschd.h"
 555              		.file 9 "ChibiOS_3.0.2/os/ext/CMSIS/include/core_cm4.h"
 556              		.file 10 "ChibiOS_3.0.2/os/ext/CMSIS/ST/system_stm32f4xx.h"
 557              		.file 11 "ChibiOS_3.0.2/os/ext/CMSIS/ST/stm32f407xx.h"
 558              		.file 12 "ChibiOS_3.0.2/os/rt/ports/ARMCMx/chcore.h"
 559              		.file 13 "ChibiOS_3.0.2/os/rt/ports/ARMCMx/chcore_v7m.h"
 560              		.file 14 "ChibiOS_3.0.2/os/rt/include/chtm.h"
 561              		.file 15 "ChibiOS_3.0.2/os/rt/include/chsem.h"
 562              		.file 16 "ChibiOS_3.0.2/os/rt/include/chmtx.h"
 563              		.file 17 "ChibiOS_3.0.2/os/rt/include/chregistry.h"
 564              		.file 18 "ChibiOS_3.0.2/os/rt/include/chevents.h"
 565              		.file 19 "ChibiOS_3.0.2/os/rt/include/chqueues.h"
 566              		.file 20 "./conf_general.h"
 567              		.file 21 "ChibiOS_3.0.2/os/hal/ports/STM32/STM32F4xx/stm32_dma.h"
 568              		.file 22 "ChibiOS_3.0.2/os/hal/ports/STM32/LLD/GPIOv2/pal_lld.h"
 569              		.file 23 "ChibiOS_3.0.2/os/hal/include/can.h"
 570              		.file 24 "ChibiOS_3.0.2/os/hal/ports/STM32/LLD/can_lld.h"
ARM GAS  /tmp/cccRWWaa.s 			page 11


 571              		.file 25 "ChibiOS_3.0.2/os/hal/include/i2c.h"
 572              		.file 26 "ChibiOS_3.0.2/os/hal/ports/STM32/LLD/I2Cv1/i2c_lld.h"
 573              		.file 27 "ChibiOS_3.0.2/os/hal/include/icu.h"
 574              		.file 28 "ChibiOS_3.0.2/os/hal/ports/STM32/LLD/TIMv1/icu_lld.h"
 575              		.file 29 "ChibiOS_3.0.2/os/hal/ports/STM32/LLD/TIMv1/stm32_tim.h"
 576              		.file 30 "ChibiOS_3.0.2/os/hal/include/serial.h"
 577              		.file 31 "ChibiOS_3.0.2/os/hal/ports/STM32/LLD/USARTv1/serial_lld.h"
 578              		.file 32 "ChibiOS_3.0.2/os/hal/include/spi.h"
 579              		.file 33 "ChibiOS_3.0.2/os/hal/ports/STM32/LLD/SPIv1/spi_lld.h"
 580              		.file 34 "ChibiOS_3.0.2/os/hal/include/usb.h"
 581              		.file 35 "ChibiOS_3.0.2/os/hal/ports/STM32/LLD/OTGv1/usb_lld.h"
 582              		.file 36 "ChibiOS_3.0.2/os/hal/ports/STM32/LLD/OTGv1/stm32_otg.h"
 583              		.file 37 "ChibiOS_3.0.2/os/hal/osal/rt/osal.h"
 584              		.file 38 "ChibiOS_3.0.2/os/rt/include/chsys.h"