ARM GAS  /tmp/ccOZCvxb.s 			page 1


   1              		.cpu cortex-m4
   2              		.eabi_attribute 27, 1
   3              		.eabi_attribute 28, 1
   4              		.eabi_attribute 20, 1
   5              		.eabi_attribute 21, 1
   6              		.eabi_attribute 23, 3
   7              		.eabi_attribute 24, 1
   8              		.eabi_attribute 25, 1
   9              		.eabi_attribute 26, 1
  10              		.eabi_attribute 30, 2
  11              		.eabi_attribute 34, 1
  12              		.eabi_attribute 18, 4
  13              		.file	"swdptap_generic.c"
  14              		.text
  15              	.Ltext0:
  16              		.cfi_sections	.debug_frame
  17              		.section	.text.swdptap_seq_in,"ax",%progbits
  18              		.align	1
  19              		.p2align 4,,15
  20              		.weak	swdptap_seq_in
  21              		.syntax unified
  22              		.thumb
  23              		.thumb_func
  24              		.fpu fpv4-sp-d16
  25              		.type	swdptap_seq_in, %function
  26              	swdptap_seq_in:
  27              	.LFB259:
  28              		.file 1 "blackmagic/target/swdptap_generic.c"
  29              		.loc 1 25 0
  30              		.cfi_startproc
  31              		@ args = 0, pretend = 0, frame = 0
  32              		@ frame_needed = 0, uses_anonymous_args = 0
  33              	.LVL0:
  34 0000 70B5     		push	{r4, r5, r6, lr}
  35              		.cfi_def_cfa_offset 16
  36              		.cfi_offset 4, -16
  37              		.cfi_offset 5, -12
  38              		.cfi_offset 6, -8
  39              		.cfi_offset 14, -4
  40              		.loc 1 29 0
  41 0002 68B1     		cbz	r0, .L5
  42 0004 441E     		subs	r4, r0, #1
  43              	.LVL1:
  44              		.loc 1 27 0
  45 0006 0026     		movs	r6, #0
  46              		.loc 1 26 0
  47 0008 0125     		movs	r5, #1
  48              	.LVL2:
  49              	.L4:
  50              		.loc 1 30 0
  51 000a FFF7FEFF 		bl	swdptap_bit_in
  52              	.LVL3:
  53              		.loc 1 29 0
  54 000e 013C     		subs	r4, r4, #1
  55              	.LVL4:
  56              		.loc 1 30 0
  57 0010 00B1     		cbz	r0, .L3
ARM GAS  /tmp/ccOZCvxb.s 			page 2


  58              		.loc 1 31 0
  59 0012 2E43     		orrs	r6, r6, r5
  60              	.LVL5:
  61              	.L3:
  62              		.loc 1 29 0
  63 0014 631C     		adds	r3, r4, #1
  64              		.loc 1 32 0
  65 0016 4FEA4505 		lsl	r5, r5, #1
  66              	.LVL6:
  67              		.loc 1 29 0
  68 001a F6D1     		bne	.L4
  69              		.loc 1 36 0
  70 001c 3046     		mov	r0, r6
  71 001e 70BD     		pop	{r4, r5, r6, pc}
  72              	.LVL7:
  73              	.L5:
  74              		.loc 1 27 0
  75 0020 0646     		mov	r6, r0
  76              		.loc 1 36 0
  77 0022 3046     		mov	r0, r6
  78 0024 70BD     		pop	{r4, r5, r6, pc}
  79              		.cfi_endproc
  80              	.LFE259:
  81              		.size	swdptap_seq_in, .-swdptap_seq_in
  82 0026 00BF     		.section	.text.swdptap_seq_in_parity,"ax",%progbits
  83              		.align	1
  84              		.p2align 4,,15
  85              		.weak	swdptap_seq_in_parity
  86              		.syntax unified
  87              		.thumb
  88              		.thumb_func
  89              		.fpu fpv4-sp-d16
  90              		.type	swdptap_seq_in_parity, %function
  91              	swdptap_seq_in_parity:
  92              	.LFB260:
  93              		.loc 1 40 0
  94              		.cfi_startproc
  95              		@ args = 0, pretend = 0, frame = 0
  96              		@ frame_needed = 0, uses_anonymous_args = 0
  97              	.LVL8:
  98 0000 F8B5     		push	{r3, r4, r5, r6, r7, lr}
  99              		.cfi_def_cfa_offset 24
 100              		.cfi_offset 3, -24
 101              		.cfi_offset 4, -20
 102              		.cfi_offset 5, -16
 103              		.cfi_offset 6, -12
 104              		.cfi_offset 7, -8
 105              		.cfi_offset 14, -4
 106              		.loc 1 43 0
 107 0002 0026     		movs	r6, #0
 108 0004 0660     		str	r6, [r0]
 109              	.LVL9:
 110              		.loc 1 45 0
 111 0006 B9B1     		cbz	r1, .L17
 112 0008 0746     		mov	r7, r0
 113 000a 4C1E     		subs	r4, r1, #1
 114              	.LVL10:
ARM GAS  /tmp/ccOZCvxb.s 			page 3


 115              		.loc 1 41 0
 116 000c 0125     		movs	r5, #1
 117              	.LVL11:
 118              	.L15:
 119              		.loc 1 46 0
 120 000e FFF7FEFF 		bl	swdptap_bit_in
 121              	.LVL12:
 122              		.loc 1 45 0
 123 0012 013C     		subs	r4, r4, #1
 124              	.LVL13:
 125              		.loc 1 46 0
 126 0014 20B1     		cbz	r0, .L14
 127              		.loc 1 47 0
 128 0016 3B68     		ldr	r3, [r7]
 129 0018 2B43     		orrs	r3, r3, r5
 130              		.loc 1 48 0
 131 001a 86F00106 		eor	r6, r6, #1
 132              	.LVL14:
 133              		.loc 1 47 0
 134 001e 3B60     		str	r3, [r7]
 135              	.L14:
 136              		.loc 1 45 0
 137 0020 631C     		adds	r3, r4, #1
 138              		.loc 1 50 0
 139 0022 4FEA4505 		lsl	r5, r5, #1
 140              	.LVL15:
 141              		.loc 1 45 0
 142 0026 F2D1     		bne	.L15
 143              	.LVL16:
 144              	.L13:
 145              		.loc 1 52 0
 146 0028 FFF7FEFF 		bl	swdptap_bit_in
 147              	.LVL17:
 148 002c 08B1     		cbz	r0, .L16
 149              		.loc 1 53 0
 150 002e 86F00106 		eor	r6, r6, #1
 151              	.LVL18:
 152              	.L16:
 153              		.loc 1 56 0
 154 0032 06F00100 		and	r0, r6, #1
 155 0036 F8BD     		pop	{r3, r4, r5, r6, r7, pc}
 156              	.LVL19:
 157              	.L17:
 158              		.loc 1 42 0
 159 0038 0E46     		mov	r6, r1
 160 003a F5E7     		b	.L13
 161              		.cfi_endproc
 162              	.LFE260:
 163              		.size	swdptap_seq_in_parity, .-swdptap_seq_in_parity
 164              		.section	.text.swdptap_seq_out,"ax",%progbits
 165              		.align	1
 166              		.p2align 4,,15
 167              		.weak	swdptap_seq_out
 168              		.syntax unified
 169              		.thumb
 170              		.thumb_func
 171              		.fpu fpv4-sp-d16
ARM GAS  /tmp/ccOZCvxb.s 			page 4


 172              		.type	swdptap_seq_out, %function
 173              	swdptap_seq_out:
 174              	.LFB261:
 175              		.loc 1 60 0
 176              		.cfi_startproc
 177              		@ args = 0, pretend = 0, frame = 0
 178              		@ frame_needed = 0, uses_anonymous_args = 0
 179              	.LVL20:
 180              		.loc 1 61 0
 181 0000 61B1     		cbz	r1, .L34
 182              		.loc 1 60 0
 183 0002 38B5     		push	{r3, r4, r5, lr}
 184              		.cfi_def_cfa_offset 16
 185              		.cfi_offset 3, -16
 186              		.cfi_offset 4, -12
 187              		.cfi_offset 5, -8
 188              		.cfi_offset 14, -4
 189 0004 0546     		mov	r5, r0
 190 0006 4C1E     		subs	r4, r1, #1
 191              	.LVL21:
 192              	.L28:
 193              		.loc 1 62 0
 194 0008 05F00100 		and	r0, r5, #1
 195              		.loc 1 61 0
 196 000c 013C     		subs	r4, r4, #1
 197              	.LVL22:
 198              		.loc 1 62 0
 199 000e FFF7FEFF 		bl	swdptap_bit_out
 200              	.LVL23:
 201              		.loc 1 61 0
 202 0012 631C     		adds	r3, r4, #1
 203              		.loc 1 63 0
 204 0014 4FEA5505 		lsr	r5, r5, #1
 205              	.LVL24:
 206              		.loc 1 61 0
 207 0018 F6D1     		bne	.L28
 208              		.loc 1 65 0
 209 001a 38BD     		pop	{r3, r4, r5, pc}
 210              	.LVL25:
 211              	.L34:
 212              		.cfi_def_cfa_offset 0
 213              		.cfi_restore 3
 214              		.cfi_restore 4
 215              		.cfi_restore 5
 216              		.cfi_restore 14
 217 001c 7047     		bx	lr
 218              		.cfi_endproc
 219              	.LFE261:
 220              		.size	swdptap_seq_out, .-swdptap_seq_out
 221 001e 00BF     		.section	.text.swdptap_seq_out_parity,"ax",%progbits
 222              		.align	1
 223              		.p2align 4,,15
 224              		.weak	swdptap_seq_out_parity
 225              		.syntax unified
 226              		.thumb
 227              		.thumb_func
 228              		.fpu fpv4-sp-d16
ARM GAS  /tmp/ccOZCvxb.s 			page 5


 229              		.type	swdptap_seq_out_parity, %function
 230              	swdptap_seq_out_parity:
 231              	.LFB262:
 232              		.loc 1 69 0
 233              		.cfi_startproc
 234              		@ args = 0, pretend = 0, frame = 0
 235              		@ frame_needed = 0, uses_anonymous_args = 0
 236              	.LVL26:
 237              		.loc 1 72 0
 238 0000 A1B1     		cbz	r1, .L40
 239              		.loc 1 69 0
 240 0002 70B5     		push	{r4, r5, r6, lr}
 241              		.cfi_def_cfa_offset 16
 242              		.cfi_offset 4, -16
 243              		.cfi_offset 5, -12
 244              		.cfi_offset 6, -8
 245              		.cfi_offset 14, -4
 246 0004 0546     		mov	r5, r0
 247 0006 4E1E     		subs	r6, r1, #1
 248              	.LVL27:
 249              		.loc 1 70 0
 250 0008 0024     		movs	r4, #0
 251              	.LVL28:
 252              	.L39:
 253              		.loc 1 73 0
 254 000a 05F00100 		and	r0, r5, #1
 255              		.loc 1 72 0
 256 000e 013E     		subs	r6, r6, #1
 257              	.LVL29:
 258              		.loc 1 74 0
 259 0010 6C40     		eors	r4, r4, r5
 260              	.LVL30:
 261              		.loc 1 73 0
 262 0012 FFF7FEFF 		bl	swdptap_bit_out
 263              	.LVL31:
 264              		.loc 1 72 0
 265 0016 731C     		adds	r3, r6, #1
 266              		.loc 1 74 0
 267 0018 E4B2     		uxtb	r4, r4
 268              	.LVL32:
 269              		.loc 1 75 0
 270 001a 4FEA5505 		lsr	r5, r5, #1
 271              	.LVL33:
 272              		.loc 1 72 0
 273 001e F4D1     		bne	.L39
 274 0020 04F00100 		and	r0, r4, #1
 275              		.loc 1 78 0
 276 0024 BDE87040 		pop	{r4, r5, r6, lr}
 277              		.cfi_restore 14
 278              		.cfi_restore 6
 279              		.cfi_restore 5
 280              		.cfi_restore 4
 281              		.cfi_def_cfa_offset 0
 282              	.LVL34:
 283              		.loc 1 77 0
 284 0028 FFF7FEBF 		b	swdptap_bit_out
 285              	.LVL35:
ARM GAS  /tmp/ccOZCvxb.s 			page 6


 286              	.L40:
 287              		.loc 1 72 0
 288 002c 0846     		mov	r0, r1
 289              	.LVL36:
 290              		.loc 1 77 0
 291 002e FFF7FEBF 		b	swdptap_bit_out
 292              	.LVL37:
 293              		.cfi_endproc
 294              	.LFE262:
 295              		.size	swdptap_seq_out_parity, .-swdptap_seq_out_parity
 296 0032 00BF     		.text
 297              	.Letext0:
 298              		.file 2 "/usr/arm-none-eabi/include/machine/_default_types.h"
 299              		.file 3 "/usr/arm-none-eabi/include/sys/_stdint.h"
 300              		.file 4 "/usr/lib/gcc/arm-none-eabi/7.3.1/include/stddef.h"
 301              		.file 5 "/usr/arm-none-eabi/include/sys/lock.h"
 302              		.file 6 "/usr/arm-none-eabi/include/sys/_types.h"
 303              		.file 7 "/usr/arm-none-eabi/include/sys/reent.h"
 304              		.file 8 "/usr/arm-none-eabi/include/stdlib.h"
 305              		.file 9 "ChibiOS_3.0.2/os/rt/ports/ARMCMx/compilers/GCC/chtypes.h"
 306              		.file 10 "ChibiOS_3.0.2/os/rt/include/chsystypes.h"
 307              		.file 11 "ChibiOS_3.0.2/os/rt/include/chschd.h"
 308              		.file 12 "ChibiOS_3.0.2/os/ext/CMSIS/include/core_cm4.h"
 309              		.file 13 "ChibiOS_3.0.2/os/ext/CMSIS/ST/system_stm32f4xx.h"
 310              		.file 14 "ChibiOS_3.0.2/os/ext/CMSIS/ST/stm32f407xx.h"
 311              		.file 15 "ChibiOS_3.0.2/os/rt/ports/ARMCMx/chcore.h"
 312              		.file 16 "ChibiOS_3.0.2/os/rt/ports/ARMCMx/chcore_v7m.h"
 313              		.file 17 "ChibiOS_3.0.2/os/rt/include/chtm.h"
 314              		.file 18 "ChibiOS_3.0.2/os/rt/include/chsem.h"
 315              		.file 19 "ChibiOS_3.0.2/os/rt/include/chmtx.h"
 316              		.file 20 "ChibiOS_3.0.2/os/rt/include/chregistry.h"
 317              		.file 21 "ChibiOS_3.0.2/os/rt/include/chevents.h"
 318              		.file 22 "ChibiOS_3.0.2/os/rt/include/chqueues.h"
 319              		.file 23 "./conf_general.h"
 320              		.file 24 "ChibiOS_3.0.2/os/hal/ports/STM32/STM32F4xx/stm32_dma.h"
 321              		.file 25 "ChibiOS_3.0.2/os/hal/ports/STM32/LLD/GPIOv2/pal_lld.h"
 322              		.file 26 "ChibiOS_3.0.2/os/hal/include/can.h"
 323              		.file 27 "ChibiOS_3.0.2/os/hal/ports/STM32/LLD/can_lld.h"
 324              		.file 28 "ChibiOS_3.0.2/os/hal/include/i2c.h"
 325              		.file 29 "ChibiOS_3.0.2/os/hal/ports/STM32/LLD/I2Cv1/i2c_lld.h"
 326              		.file 30 "ChibiOS_3.0.2/os/hal/include/icu.h"
 327              		.file 31 "ChibiOS_3.0.2/os/hal/ports/STM32/LLD/TIMv1/icu_lld.h"
 328              		.file 32 "ChibiOS_3.0.2/os/hal/ports/STM32/LLD/TIMv1/stm32_tim.h"
 329              		.file 33 "ChibiOS_3.0.2/os/hal/include/serial.h"
 330              		.file 34 "ChibiOS_3.0.2/os/hal/ports/STM32/LLD/USARTv1/serial_lld.h"
 331              		.file 35 "ChibiOS_3.0.2/os/hal/include/spi.h"
 332              		.file 36 "ChibiOS_3.0.2/os/hal/ports/STM32/LLD/SPIv1/spi_lld.h"
 333              		.file 37 "ChibiOS_3.0.2/os/hal/include/usb.h"
 334              		.file 38 "ChibiOS_3.0.2/os/hal/ports/STM32/LLD/OTGv1/usb_lld.h"
 335              		.file 39 "ChibiOS_3.0.2/os/hal/ports/STM32/LLD/OTGv1/stm32_otg.h"
 336              		.file 40 "blackmagic/platform.h"
 337              		.file 41 "blackmagic/swdptap.h"