ARM GAS  /tmp/cc9FUOUa.s 			page 1


   1              		.cpu cortex-m4
   2              		.eabi_attribute 27, 1
   3              		.eabi_attribute 28, 1
   4              		.eabi_attribute 20, 1
   5              		.eabi_attribute 21, 1
   6              		.eabi_attribute 23, 3
   7              		.eabi_attribute 24, 1
   8              		.eabi_attribute 25, 1
   9              		.eabi_attribute 26, 1
  10              		.eabi_attribute 30, 2
  11              		.eabi_attribute 34, 1
  12              		.eabi_attribute 18, 4
  13              		.file	"timing.c"
  14              		.text
  15              	.Ltext0:
  16              		.cfi_sections	.debug_frame
  17              		.section	.text.platform_timeout_set,"ax",%progbits
  18              		.align	1
  19              		.p2align 4,,15
  20              		.global	platform_timeout_set
  21              		.syntax unified
  22              		.thumb
  23              		.thumb_func
  24              		.fpu fpv4-sp-d16
  25              		.type	platform_timeout_set, %function
  26              	platform_timeout_set:
  27              	.LFB259:
  28              		.file 1 "blackmagic/timing.c"
  29              		.loc 1 23 0
  30              		.cfi_startproc
  31              		@ args = 0, pretend = 0, frame = 0
  32              		@ frame_needed = 0, uses_anonymous_args = 0
  33              	.LVL0:
  34 0000 38B5     		push	{r3, r4, r5, lr}
  35              		.cfi_def_cfa_offset 16
  36              		.cfi_offset 3, -16
  37              		.cfi_offset 4, -12
  38              		.cfi_offset 5, -8
  39              		.cfi_offset 14, -4
  40              		.loc 1 23 0
  41 0002 0546     		mov	r5, r0
  42 0004 0C46     		mov	r4, r1
  43              		.loc 1 24 0
  44 0006 FFF7FEFF 		bl	platform_time_ms
  45              	.LVL1:
  46 000a 2044     		add	r0, r0, r4
  47 000c 2860     		str	r0, [r5]
  48              		.loc 1 25 0
  49 000e 38BD     		pop	{r3, r4, r5, pc}
  50              		.cfi_endproc
  51              	.LFE259:
  52              		.size	platform_timeout_set, .-platform_timeout_set
  53              		.section	.text.platform_timeout_is_expired,"ax",%progbits
  54              		.align	1
  55              		.p2align 4,,15
  56              		.global	platform_timeout_is_expired
  57              		.syntax unified
ARM GAS  /tmp/cc9FUOUa.s 			page 2


  58              		.thumb
  59              		.thumb_func
  60              		.fpu fpv4-sp-d16
  61              		.type	platform_timeout_is_expired, %function
  62              	platform_timeout_is_expired:
  63              	.LFB260:
  64              		.loc 1 28 0
  65              		.cfi_startproc
  66              		@ args = 0, pretend = 0, frame = 0
  67              		@ frame_needed = 0, uses_anonymous_args = 0
  68              	.LVL2:
  69 0000 10B5     		push	{r4, lr}
  70              		.cfi_def_cfa_offset 8
  71              		.cfi_offset 4, -8
  72              		.cfi_offset 14, -4
  73              		.loc 1 28 0
  74 0002 0446     		mov	r4, r0
  75              		.loc 1 29 0
  76 0004 FFF7FEFF 		bl	platform_time_ms
  77              	.LVL3:
  78 0008 2368     		ldr	r3, [r4]
  79              		.loc 1 30 0
  80 000a 9842     		cmp	r0, r3
  81 000c 94BF     		ite	ls
  82 000e 0020     		movls	r0, #0
  83 0010 0120     		movhi	r0, #1
  84 0012 10BD     		pop	{r4, pc}
  85              		.cfi_endproc
  86              	.LFE260:
  87              		.size	platform_timeout_is_expired, .-platform_timeout_is_expired
  88              		.text
  89              	.Letext0:
  90              		.file 2 "/usr/arm-none-eabi/include/machine/_default_types.h"
  91              		.file 3 "/usr/arm-none-eabi/include/sys/_stdint.h"
  92              		.file 4 "/usr/lib/gcc/arm-none-eabi/7.3.1/include/stddef.h"
  93              		.file 5 "/usr/arm-none-eabi/include/sys/lock.h"
  94              		.file 6 "/usr/arm-none-eabi/include/sys/_types.h"
  95              		.file 7 "/usr/arm-none-eabi/include/sys/reent.h"
  96              		.file 8 "/usr/arm-none-eabi/include/stdlib.h"
  97              		.file 9 "ChibiOS_3.0.2/os/rt/ports/ARMCMx/compilers/GCC/chtypes.h"
  98              		.file 10 "ChibiOS_3.0.2/os/rt/include/chsystypes.h"
  99              		.file 11 "ChibiOS_3.0.2/os/rt/include/chschd.h"
 100              		.file 12 "ChibiOS_3.0.2/os/ext/CMSIS/include/core_cm4.h"
 101              		.file 13 "ChibiOS_3.0.2/os/ext/CMSIS/ST/system_stm32f4xx.h"
 102              		.file 14 "ChibiOS_3.0.2/os/ext/CMSIS/ST/stm32f407xx.h"
 103              		.file 15 "ChibiOS_3.0.2/os/rt/ports/ARMCMx/chcore.h"
 104              		.file 16 "ChibiOS_3.0.2/os/rt/ports/ARMCMx/chcore_v7m.h"
 105              		.file 17 "ChibiOS_3.0.2/os/rt/include/chtm.h"
 106              		.file 18 "ChibiOS_3.0.2/os/rt/include/chsem.h"
 107              		.file 19 "ChibiOS_3.0.2/os/rt/include/chmtx.h"
 108              		.file 20 "ChibiOS_3.0.2/os/rt/include/chregistry.h"
 109              		.file 21 "ChibiOS_3.0.2/os/rt/include/chevents.h"
 110              		.file 22 "ChibiOS_3.0.2/os/rt/include/chqueues.h"
 111              		.file 23 "./conf_general.h"
 112              		.file 24 "ChibiOS_3.0.2/os/hal/ports/STM32/STM32F4xx/stm32_dma.h"
 113              		.file 25 "ChibiOS_3.0.2/os/hal/ports/STM32/LLD/GPIOv2/pal_lld.h"
 114              		.file 26 "ChibiOS_3.0.2/os/hal/include/can.h"
ARM GAS  /tmp/cc9FUOUa.s 			page 3


 115              		.file 27 "ChibiOS_3.0.2/os/hal/ports/STM32/LLD/can_lld.h"
 116              		.file 28 "ChibiOS_3.0.2/os/hal/include/i2c.h"
 117              		.file 29 "ChibiOS_3.0.2/os/hal/ports/STM32/LLD/I2Cv1/i2c_lld.h"
 118              		.file 30 "ChibiOS_3.0.2/os/hal/include/icu.h"
 119              		.file 31 "ChibiOS_3.0.2/os/hal/ports/STM32/LLD/TIMv1/icu_lld.h"
 120              		.file 32 "ChibiOS_3.0.2/os/hal/ports/STM32/LLD/TIMv1/stm32_tim.h"
 121              		.file 33 "ChibiOS_3.0.2/os/hal/include/serial.h"
 122              		.file 34 "ChibiOS_3.0.2/os/hal/ports/STM32/LLD/USARTv1/serial_lld.h"
 123              		.file 35 "ChibiOS_3.0.2/os/hal/include/spi.h"
 124              		.file 36 "ChibiOS_3.0.2/os/hal/ports/STM32/LLD/SPIv1/spi_lld.h"
 125              		.file 37 "ChibiOS_3.0.2/os/hal/include/usb.h"
 126              		.file 38 "ChibiOS_3.0.2/os/hal/ports/STM32/LLD/OTGv1/usb_lld.h"
 127              		.file 39 "ChibiOS_3.0.2/os/hal/ports/STM32/LLD/OTGv1/stm32_otg.h"
 128              		.file 40 "blackmagic/timing.h"
 129              		.file 41 "blackmagic/platform.h"
 130              		.file 42 "blackmagic/platform_support.h"