ARM GAS  /tmp/ccH3nHCY.s 			page 1


   1              		.cpu cortex-m4
   2              		.eabi_attribute 27, 1
   3              		.eabi_attribute 28, 1
   4              		.eabi_attribute 20, 1
   5              		.eabi_attribute 21, 1
   6              		.eabi_attribute 23, 3
   7              		.eabi_attribute 24, 1
   8              		.eabi_attribute 25, 1
   9              		.eabi_attribute 26, 1
  10              		.eabi_attribute 30, 2
  11              		.eabi_attribute 34, 1
  12              		.eabi_attribute 18, 4
  13              		.file	"conf_general.c"
  14              		.text
  15              	.Ltext0:
  16              		.cfi_sections	.debug_frame
  17              		.section	.text.conf_general_init,"ax",%progbits
  18              		.align	1
  19              		.p2align 4,,15
  20              		.global	conf_general_init
  21              		.syntax unified
  22              		.thumb
  23              		.thumb_func
  24              		.fpu fpv4-sp-d16
  25              		.type	conf_general_init, %function
  26              	conf_general_init:
  27              	.LFB256:
  28              		.file 1 "conf_general.c"
  29              		.loc 1 55 0
  30              		.cfi_startproc
  31              		@ args = 0, pretend = 0, frame = 0
  32              		@ frame_needed = 0, uses_anonymous_args = 0
  33 0000 10B5     		push	{r4, lr}
  34              		.cfi_def_cfa_offset 8
  35              		.cfi_offset 4, -8
  36              		.cfi_offset 14, -4
  37              		.loc 1 57 0
  38 0002 1B4C     		ldr	r4, .L10
  39 0004 40F24442 		movw	r2, #1092
  40 0008 0021     		movs	r1, #0
  41 000a 2046     		mov	r0, r4
  42 000c FFF7FEFF 		bl	memset
  43              	.LVL0:
  44 0010 A21E     		subs	r2, r4, #2
  45 0012 04F5E371 		add	r1, r4, #454
  46 0016 4FF47A73 		mov	r3, #1000
  47              	.LVL1:
  48              	.L2:
  49              	.LBB3:
  50              		.loc 1 61 0 discriminator 3
  51 001a 22F8023F 		strh	r3, [r2, #2]!	@ movhi
  52 001e 0133     		adds	r3, r3, #1
  53              		.loc 1 60 0 discriminator 3
  54 0020 8A42     		cmp	r2, r1
  55 0022 9BB2     		uxth	r3, r3
  56 0024 F9D1     		bne	.L2
  57 0026 134A     		ldr	r2, .L10+4
ARM GAS  /tmp/ccH3nHCY.s 			page 2


  58              		.loc 1 60 0 is_stmt 0
  59 0028 4FF4FA63 		mov	r3, #2000
  60 002c 02F5BC71 		add	r1, r2, #376
  61              	.L3:
  62              	.LBE3:
  63              	.LBB4:
  64              		.loc 1 65 0 is_stmt 1 discriminator 3
  65 0030 22F8023F 		strh	r3, [r2, #2]!	@ movhi
  66              	.LVL2:
  67 0034 0133     		adds	r3, r3, #1
  68              		.loc 1 64 0 discriminator 3
  69 0036 8A42     		cmp	r2, r1
  70 0038 9BB2     		uxth	r3, r3
  71 003a F9D1     		bne	.L3
  72 003c 0E4A     		ldr	r2, .L10+8
  73              		.loc 1 64 0 is_stmt 0
  74 003e 40F6B833 		movw	r3, #3000
  75 0042 02F58071 		add	r1, r2, #256
  76              	.L4:
  77              	.LBE4:
  78              	.LBB5:
  79              		.loc 1 69 0 is_stmt 1 discriminator 3
  80 0046 22F8023F 		strh	r3, [r2, #2]!	@ movhi
  81              	.LVL3:
  82 004a 0133     		adds	r3, r3, #1
  83              		.loc 1 68 0 discriminator 3
  84 004c 9142     		cmp	r1, r2
  85 004e 9BB2     		uxth	r3, r3
  86 0050 F9D1     		bne	.L4
  87              	.LVL4:
  88              	.LBE5:
  89              	.LBB6:
  90              		.loc 1 74 0
  91 0052 0A4B     		ldr	r3, .L10+12
  92 0054 C4F84034 		str	r3, [r4, #1088]
  93              	.LVL5:
  94              	.LBE6:
  95              		.loc 1 77 0
  96 0058 FFF7FEFF 		bl	FLASH_Unlock
  97              	.LVL6:
  98              		.loc 1 78 0
  99 005c F220     		movs	r0, #242
 100 005e FFF7FEFF 		bl	FLASH_ClearFlag
 101              	.LVL7:
 102              		.loc 1 80 0
 103 0062 FFF7FEFF 		bl	EE_Init
 104              	.LVL8:
 105              		.loc 1 82 0
 106 0066 BDE81040 		pop	{r4, lr}
 107              		.cfi_restore 14
 108              		.cfi_restore 4
 109              		.cfi_def_cfa_offset 0
 110              		.loc 1 81 0
 111 006a FFF7FEBF 		b	FLASH_Lock
 112              	.LVL9:
 113              	.L11:
 114 006e 00BF     		.align	2
ARM GAS  /tmp/ccH3nHCY.s 			page 3


 115              	.L10:
 116 0070 00000000 		.word	.LANCHOR0
 117 0074 C6010000 		.word	.LANCHOR0+454
 118 0078 3E030000 		.word	.LANCHOR0+830
 119 007c A00FA10F 		.word	262213536
 120              		.cfi_endproc
 121              	.LFE256:
 122              		.size	conf_general_init, .-conf_general_init
 123              		.section	.text.conf_general_read_eeprom_var_hw,"ax",%progbits
 124              		.align	1
 125              		.p2align 4,,15
 126              		.global	conf_general_read_eeprom_var_hw
 127              		.syntax unified
 128              		.thumb
 129              		.thumb_func
 130              		.fpu fpv4-sp-d16
 131              		.type	conf_general_read_eeprom_var_hw, %function
 132              	conf_general_read_eeprom_var_hw:
 133              	.LFB257:
 134              		.loc 1 96 0
 135              		.cfi_startproc
 136              		@ args = 0, pretend = 0, frame = 8
 137              		@ frame_needed = 0, uses_anonymous_args = 0
 138              	.LVL10:
 139 0000 30B5     		push	{r4, r5, lr}
 140              		.cfi_def_cfa_offset 12
 141              		.cfi_offset 4, -12
 142              		.cfi_offset 5, -8
 143              		.cfi_offset 14, -4
 144              	.LBB10:
 145              	.LBB11:
 146              		.loc 1 197 0
 147 0002 4900     		lsls	r1, r1, #1
 148              	.LVL11:
 149 0004 8CB2     		uxth	r4, r1
 150 0006 04F6B833 		addw	r3, r4, #3000
 151              	.LBE11:
 152              	.LBE10:
 153              		.loc 1 96 0
 154 000a 83B0     		sub	sp, sp, #12
 155              		.cfi_def_cfa_offset 24
 156              	.LBB17:
 157              	.LBB14:
 158              		.loc 1 197 0
 159 000c 9BB2     		uxth	r3, r3
 160              	.LBE14:
 161              	.LBE17:
 162              		.loc 1 96 0
 163 000e 0546     		mov	r5, r0
 164              	.LVL12:
 165              	.LBB18:
 166              	.LBB15:
 167              		.loc 1 197 0
 168 0010 01A9     		add	r1, sp, #4
 169 0012 1846     		mov	r0, r3
 170              	.LVL13:
 171 0014 FFF7FEFF 		bl	EE_ReadVariable
ARM GAS  /tmp/ccH3nHCY.s 			page 4


 172              	.LVL14:
 173 0018 10B1     		cbz	r0, .L13
 174              	.L15:
 175              		.loc 1 202 0
 176 001a 0020     		movs	r0, #0
 177              	.LVL15:
 178              	.LBE15:
 179              	.LBE18:
 180              		.loc 1 98 0
 181 001c 03B0     		add	sp, sp, #12
 182              		.cfi_remember_state
 183              		.cfi_def_cfa_offset 12
 184              		@ sp needed
 185 001e 30BD     		pop	{r4, r5, pc}
 186              	.LVL16:
 187              	.L13:
 188              		.cfi_restore_state
 189              	.LBB19:
 190              	.LBB16:
 191              		.loc 1 198 0
 192 0020 04F6B930 		addw	r0, r4, #3001
 193 0024 80B2     		uxth	r0, r0
 194 0026 0DF10601 		add	r1, sp, #6
 195 002a FFF7FEFF 		bl	EE_ReadVariable
 196              	.LVL17:
 197              		.loc 1 197 0
 198 002e 0028     		cmp	r0, #0
 199 0030 F3D1     		bne	.L15
 200              	.LVL18:
 201              	.LBB12:
 202              		.loc 1 199 0
 203 0032 BDF80420 		ldrh	r2, [sp, #4]
 204 0036 BDF80630 		ldrh	r3, [sp, #6]
 205              	.LBE12:
 206              		.loc 1 194 0
 207 003a 0120     		movs	r0, #1
 208              	.LVL19:
 209              	.LBB13:
 210              		.loc 1 199 0
 211 003c 43EA0243 		orr	r3, r3, r2, lsl #16
 212              		.loc 1 200 0
 213 0040 2B60     		str	r3, [r5]
 214              	.LBE13:
 215              	.LBE16:
 216              	.LBE19:
 217              		.loc 1 98 0
 218 0042 03B0     		add	sp, sp, #12
 219              		.cfi_def_cfa_offset 12
 220              		@ sp needed
 221 0044 30BD     		pop	{r4, r5, pc}
 222              		.cfi_endproc
 223              	.LFE257:
 224              		.size	conf_general_read_eeprom_var_hw, .-conf_general_read_eeprom_var_hw
 225              		.section	.text.conf_general_read_custom_configuration,"ax",%progbits
 226              		.align	1
 227              		.p2align 4,,15
 228              		.global	conf_general_read_custom_configuration
ARM GAS  /tmp/ccH3nHCY.s 			page 5


 229              		.syntax unified
 230              		.thumb
 231              		.thumb_func
 232              		.fpu fpv4-sp-d16
 233              		.type	conf_general_read_custom_configuration, %function
 234              	conf_general_read_custom_configuration:
 235              	.LFB258:
 236              		.loc 1 112 0
 237              		.cfi_startproc
 238              		@ args = 0, pretend = 0, frame = 8
 239              		@ frame_needed = 0, uses_anonymous_args = 0
 240              	.LVL20:
 241 0000 10B5     		push	{r4, lr}
 242              		.cfi_def_cfa_offset 8
 243              		.cfi_offset 4, -8
 244              		.cfi_offset 14, -4
 245 0002 82B0     		sub	sp, sp, #8
 246              		.cfi_def_cfa_offset 16
 247              		.loc 1 112 0
 248 0004 0446     		mov	r4, r0
 249              	.LVL21:
 250              	.LBB20:
 251              		.loc 1 118 0
 252 0006 0DF10601 		add	r1, sp, #6
 253 000a 4FF47A60 		mov	r0, #4000
 254              	.LVL22:
 255 000e FFF7FEFF 		bl	EE_ReadVariable
 256              	.LVL23:
 257 0012 90B9     		cbnz	r0, .L18
 258              		.loc 1 119 0
 259 0014 BDF80630 		ldrh	r3, [sp, #6]
 260              		.loc 1 120 0
 261 0018 6370     		strb	r3, [r4, #1]
 262              	.LVL24:
 263              		.loc 1 119 0
 264 001a 1B0A     		lsrs	r3, r3, #8
 265              		.loc 1 118 0
 266 001c 0DF10601 		add	r1, sp, #6
 267              		.loc 1 119 0
 268 0020 2370     		strb	r3, [r4]
 269              		.loc 1 118 0
 270 0022 40F6A170 		movw	r0, #4001
 271 0026 FFF7FEFF 		bl	EE_ReadVariable
 272              	.LVL25:
 273 002a 30B9     		cbnz	r0, .L18
 274              		.loc 1 119 0
 275 002c BDF80630 		ldrh	r3, [sp, #6]
 276              		.loc 1 120 0
 277 0030 E370     		strb	r3, [r4, #3]
 278              	.LVL26:
 279              		.loc 1 119 0
 280 0032 1B0A     		lsrs	r3, r3, #8
 281 0034 A370     		strb	r3, [r4, #2]
 282              	.LBE20:
 283              		.loc 1 131 0
 284 0036 02B0     		add	sp, sp, #8
 285              		.cfi_remember_state
ARM GAS  /tmp/ccH3nHCY.s 			page 6


 286              		.cfi_def_cfa_offset 8
 287              		@ sp needed
 288 0038 10BD     		pop	{r4, pc}
 289              	.LVL27:
 290              	.L18:
 291              		.cfi_restore_state
 292              		.loc 1 129 0
 293 003a 2046     		mov	r0, r4
 294 003c FFF7FEFF 		bl	confgenerator_set_defaults_customconf
 295              	.LVL28:
 296              		.loc 1 131 0
 297 0040 02B0     		add	sp, sp, #8
 298              		.cfi_def_cfa_offset 8
 299              		@ sp needed
 300 0042 10BD     		pop	{r4, pc}
 301              		.cfi_endproc
 302              	.LFE258:
 303              		.size	conf_general_read_custom_configuration, .-conf_general_read_custom_configuration
 304              		.section	.text.conf_general_store_eeprom_var_hw,"ax",%progbits
 305              		.align	1
 306              		.p2align 4,,15
 307              		.global	conf_general_store_eeprom_var_hw
 308              		.syntax unified
 309              		.thumb
 310              		.thumb_func
 311              		.fpu fpv4-sp-d16
 312              		.type	conf_general_store_eeprom_var_hw, %function
 313              	conf_general_store_eeprom_var_hw:
 314              	.LFB259:
 315              		.loc 1 145 0
 316              		.cfi_startproc
 317              		@ args = 0, pretend = 0, frame = 0
 318              		@ frame_needed = 0, uses_anonymous_args = 0
 319              	.LVL29:
 320 0000 38B5     		push	{r3, r4, r5, lr}
 321              		.cfi_def_cfa_offset 16
 322              		.cfi_offset 3, -16
 323              		.cfi_offset 4, -12
 324              		.cfi_offset 5, -8
 325              		.cfi_offset 14, -4
 326              		.loc 1 145 0
 327 0002 0C46     		mov	r4, r1
 328              	.LVL30:
 329              	.LBB23:
 330              	.LBB24:
 331              		.loc 1 221 0
 332 0004 6400     		lsls	r4, r4, #1
 333              		.loc 1 212 0
 334 0006 0568     		ldr	r5, [r0]
 335              	.LVL31:
 336              		.loc 1 221 0
 337 0008 A4B2     		uxth	r4, r4
 338              		.loc 1 215 0
 339 000a FFF7FEFF 		bl	timeout_configure_IWDT_slowest
 340              	.LVL32:
 341              		.loc 1 217 0
 342 000e FFF7FEFF 		bl	FLASH_Unlock
ARM GAS  /tmp/ccH3nHCY.s 			page 7


 343              	.LVL33:
 344              		.loc 1 218 0
 345 0012 F220     		movs	r0, #242
 346 0014 FFF7FEFF 		bl	FLASH_ClearFlag
 347              	.LVL34:
 348              		.loc 1 221 0
 349 0018 04F6B830 		addw	r0, r4, #3000
 350 001c 80B2     		uxth	r0, r0
 351 001e 290C     		lsrs	r1, r5, #16
 352 0020 FFF7FEFF 		bl	EE_WriteVariable
 353              	.LVL35:
 354 0024 0928     		cmp	r0, #9
 355 0026 06D0     		beq	.L25
 356              		.loc 1 222 0
 357 0028 0024     		movs	r4, #0
 358              	.LVL36:
 359              		.loc 1 231 0
 360 002a FFF7FEFF 		bl	FLASH_Lock
 361              	.LVL37:
 362              		.loc 1 233 0
 363 002e FFF7FEFF 		bl	timeout_configure_IWDT
 364              	.LVL38:
 365              	.LBE24:
 366              	.LBE23:
 367              		.loc 1 147 0
 368 0032 2046     		mov	r0, r4
 369 0034 38BD     		pop	{r3, r4, r5, pc}
 370              	.LVL39:
 371              	.L25:
 372              	.LBB26:
 373              	.LBB25:
 374              		.loc 1 226 0
 375 0036 04F6B930 		addw	r0, r4, #3001
 376 003a A9B2     		uxth	r1, r5
 377 003c 80B2     		uxth	r0, r0
 378 003e FFF7FEFF 		bl	EE_WriteVariable
 379              	.LVL40:
 380 0042 A0F10904 		sub	r4, r0, #9
 381 0046 B4FA84F4 		clz	r4, r4
 382 004a 6409     		lsrs	r4, r4, #5
 383              	.LVL41:
 384              		.loc 1 231 0
 385 004c FFF7FEFF 		bl	FLASH_Lock
 386              	.LVL42:
 387              		.loc 1 233 0
 388 0050 FFF7FEFF 		bl	timeout_configure_IWDT
 389              	.LVL43:
 390              	.LBE25:
 391              	.LBE26:
 392              		.loc 1 147 0
 393 0054 2046     		mov	r0, r4
 394 0056 38BD     		pop	{r3, r4, r5, pc}
 395              		.cfi_endproc
 396              	.LFE259:
 397              		.size	conf_general_store_eeprom_var_hw, .-conf_general_store_eeprom_var_hw
 398              		.section	.text.conf_general_store_custom_configuration,"ax",%progbits
 399              		.align	1
ARM GAS  /tmp/ccH3nHCY.s 			page 8


 400              		.p2align 4,,15
 401              		.global	conf_general_store_custom_configuration
 402              		.syntax unified
 403              		.thumb
 404              		.thumb_func
 405              		.fpu fpv4-sp-d16
 406              		.type	conf_general_store_custom_configuration, %function
 407              	conf_general_store_custom_configuration:
 408              	.LFB260:
 409              		.loc 1 161 0
 410              		.cfi_startproc
 411              		@ args = 0, pretend = 0, frame = 0
 412              		@ frame_needed = 0, uses_anonymous_args = 0
 413              	.LVL44:
 414 0000 10B5     		push	{r4, lr}
 415              		.cfi_def_cfa_offset 8
 416              		.cfi_offset 4, -8
 417              		.cfi_offset 14, -4
 418              		.loc 1 161 0
 419 0002 0446     		mov	r4, r0
 420              	.LVL45:
 421              		.loc 1 166 0
 422 0004 FFF7FEFF 		bl	timeout_configure_IWDT_slowest
 423              	.LVL46:
 424              		.loc 1 168 0
 425 0008 FFF7FEFF 		bl	FLASH_Unlock
 426              	.LVL47:
 427              		.loc 1 169 0
 428 000c F220     		movs	r0, #242
 429 000e FFF7FEFF 		bl	FLASH_ClearFlag
 430              	.LVL48:
 431              	.LBB27:
 432              		.loc 1 173 0
 433 0012 2178     		ldrb	r1, [r4]	@ zero_extendqisi2
 434              	.LVL49:
 435              		.loc 1 174 0
 436 0014 6378     		ldrb	r3, [r4, #1]	@ zero_extendqisi2
 437              		.loc 1 176 0
 438 0016 4FF47A60 		mov	r0, #4000
 439 001a 43EA0121 		orr	r1, r3, r1, lsl #8
 440              	.LVL50:
 441 001e FFF7FEFF 		bl	EE_WriteVariable
 442              	.LVL51:
 443 0022 0928     		cmp	r0, #9
 444 0024 12D1     		bne	.L28
 445              	.LVL52:
 446              		.loc 1 173 0
 447 0026 A178     		ldrb	r1, [r4, #2]	@ zero_extendqisi2
 448              	.LVL53:
 449              		.loc 1 174 0
 450 0028 E378     		ldrb	r3, [r4, #3]	@ zero_extendqisi2
 451              		.loc 1 176 0
 452 002a 40F6A170 		movw	r0, #4001
 453 002e 43EA0121 		orr	r1, r3, r1, lsl #8
 454              	.LVL54:
 455 0032 FFF7FEFF 		bl	EE_WriteVariable
 456              	.LVL55:
ARM GAS  /tmp/ccH3nHCY.s 			page 9


 457 0036 A0F10904 		sub	r4, r0, #9
 458              	.LVL56:
 459 003a B4FA84F4 		clz	r4, r4
 460 003e 6409     		lsrs	r4, r4, #5
 461              	.LVL57:
 462              	.L27:
 463              	.LBE27:
 464              		.loc 1 181 0
 465 0040 FFF7FEFF 		bl	FLASH_Lock
 466              	.LVL58:
 467              		.loc 1 183 0
 468 0044 FFF7FEFF 		bl	timeout_configure_IWDT
 469              	.LVL59:
 470              		.loc 1 186 0
 471 0048 2046     		mov	r0, r4
 472 004a 10BD     		pop	{r4, pc}
 473              	.LVL60:
 474              	.L28:
 475              	.LBB28:
 476              		.loc 1 177 0
 477 004c 0024     		movs	r4, #0
 478              	.LVL61:
 479 004e F7E7     		b	.L27
 480              	.LBE28:
 481              		.cfi_endproc
 482              	.LFE260:
 483              		.size	conf_general_store_custom_configuration, .-conf_general_store_custom_configuration
 484              		.section	.text.conf_general_read_app_configuration,"ax",%progbits
 485              		.align	1
 486              		.p2align 4,,15
 487              		.global	conf_general_read_app_configuration
 488              		.syntax unified
 489              		.thumb
 490              		.thumb_func
 491              		.fpu fpv4-sp-d16
 492              		.type	conf_general_read_app_configuration, %function
 493              	conf_general_read_app_configuration:
 494              	.LFB263:
 495              		.loc 1 244 0
 496              		.cfi_startproc
 497              		@ args = 0, pretend = 0, frame = 8
 498              		@ frame_needed = 0, uses_anonymous_args = 0
 499              	.LVL62:
 500 0000 F0B5     		push	{r4, r5, r6, r7, lr}
 501              		.cfi_def_cfa_offset 20
 502              		.cfi_offset 4, -20
 503              		.cfi_offset 5, -16
 504              		.cfi_offset 6, -12
 505              		.cfi_offset 7, -8
 506              		.cfi_offset 14, -4
 507 0002 0746     		mov	r7, r0
 508              	.LVL63:
 509 0004 83B0     		sub	sp, sp, #12
 510              		.cfi_def_cfa_offset 32
 511 0006 451C     		adds	r5, r0, #1
 512              		.loc 1 244 0
 513 0008 4FF4FA64 		mov	r4, #2000
ARM GAS  /tmp/ccH3nHCY.s 			page 10


 514              	.LBB29:
 515              		.loc 1 249 0
 516 000c 40F68C06 		movw	r6, #2188
 517 0010 09E0     		b	.L32
 518              	.LVL64:
 519              	.L36:
 520              		.loc 1 251 0
 521 0012 BDF80630 		ldrh	r3, [sp, #6]
 522              		.loc 1 249 0
 523 0016 B442     		cmp	r4, r6
 524              		.loc 1 251 0
 525 0018 4FEA1322 		lsr	r2, r3, #8
 526 001c 05F8012C 		strb	r2, [r5, #-1]
 527              		.loc 1 252 0
 528 0020 05F8023B 		strb	r3, [r5], #2
 529              		.loc 1 249 0
 530 0024 0BD0     		beq	.L30
 531              	.L32:
 532              		.loc 1 250 0
 533 0026 2046     		mov	r0, r4
 534 0028 0DF10601 		add	r1, sp, #6
 535 002c FFF7FEFF 		bl	EE_ReadVariable
 536              	.LVL65:
 537 0030 0134     		adds	r4, r4, #1
 538 0032 A4B2     		uxth	r4, r4
 539 0034 0028     		cmp	r0, #0
 540 0036 ECD0     		beq	.L36
 541              	.LVL66:
 542              	.LBE29:
 543              		.loc 1 261 0
 544 0038 3846     		mov	r0, r7
 545 003a FFF7FEFF 		bl	confgenerator_set_defaults_appconf
 546              	.LVL67:
 547              	.L30:
 548              		.loc 1 263 0
 549 003e 03B0     		add	sp, sp, #12
 550              		.cfi_def_cfa_offset 20
 551              		@ sp needed
 552 0040 F0BD     		pop	{r4, r5, r6, r7, pc}
 553              		.cfi_endproc
 554              	.LFE263:
 555              		.size	conf_general_read_app_configuration, .-conf_general_read_app_configuration
 556 0042 00BF     		.section	.text.conf_general_store_app_configuration,"ax",%progbits
 557              		.align	1
 558              		.p2align 4,,15
 559              		.global	conf_general_store_app_configuration
 560              		.syntax unified
 561              		.thumb
 562              		.thumb_func
 563              		.fpu fpv4-sp-d16
 564              		.type	conf_general_store_app_configuration, %function
 565              	conf_general_store_app_configuration:
 566              	.LFB264:
 567              		.loc 1 271 0
 568              		.cfi_startproc
 569              		@ args = 0, pretend = 0, frame = 0
 570              		@ frame_needed = 0, uses_anonymous_args = 0
ARM GAS  /tmp/ccH3nHCY.s 			page 11


 571              	.LVL68:
 572 0000 70B5     		push	{r4, r5, r6, lr}
 573              		.cfi_def_cfa_offset 16
 574              		.cfi_offset 4, -16
 575              		.cfi_offset 5, -12
 576              		.cfi_offset 6, -8
 577              		.cfi_offset 14, -4
 578              		.loc 1 271 0
 579 0002 0546     		mov	r5, r0
 580              		.loc 1 272 0
 581 0004 FFF7FEFF 		bl	mc_interface_unlock
 582              	.LVL69:
 583              		.loc 1 273 0
 584 0008 FFF7FEFF 		bl	mc_interface_release_motor
 585              	.LVL70:
 586              		.loc 1 275 0
 587 000c FFF7FEFF 		bl	utils_sys_lock_cnt
 588              	.LVL71:
 589              		.loc 1 276 0
 590 0010 FFF7FEFF 		bl	mc_interface_lock
 591              	.LVL72:
 592              		.loc 1 278 0
 593 0014 FFF7FEFF 		bl	timeout_configure_IWDT_slowest
 594              	.LVL73:
 595              		.loc 1 284 0
 596 0018 FFF7FEFF 		bl	FLASH_Unlock
 597              	.LVL74:
 598              		.loc 1 285 0
 599 001c F220     		movs	r0, #242
 600 001e FFF7FEFF 		bl	FLASH_ClearFlag
 601              	.LVL75:
 602 0022 0135     		adds	r5, r5, #1
 603              	.LVL76:
 604 0024 4FF4FA64 		mov	r4, #2000
 605              	.LBB30:
 606              		.loc 1 288 0
 607 0028 40F68C06 		movw	r6, #2188
 608 002c 01E0     		b	.L39
 609              	.LVL77:
 610              	.L44:
 611              		.loc 1 288 0 is_stmt 0 discriminator 2
 612 002e B442     		cmp	r4, r6
 613 0030 1CD0     		beq	.L43
 614              	.L39:
 615              		.loc 1 289 0 is_stmt 1
 616 0032 15F8011C 		ldrb	r1, [r5, #-1]	@ zero_extendqisi2
 617              	.LVL78:
 618              		.loc 1 290 0
 619 0036 2B78     		ldrb	r3, [r5]	@ zero_extendqisi2
 620              		.loc 1 292 0
 621 0038 2046     		mov	r0, r4
 622 003a 43EA0121 		orr	r1, r3, r1, lsl #8
 623              	.LVL79:
 624 003e FFF7FEFF 		bl	EE_WriteVariable
 625              	.LVL80:
 626 0042 0134     		adds	r4, r4, #1
 627 0044 0928     		cmp	r0, #9
ARM GAS  /tmp/ccH3nHCY.s 			page 12


 628 0046 A4B2     		uxth	r4, r4
 629 0048 05F10205 		add	r5, r5, #2
 630 004c EFD0     		beq	.L44
 631              		.loc 1 293 0
 632 004e 0024     		movs	r4, #0
 633              	.L38:
 634              	.LVL81:
 635              	.LBE30:
 636              		.loc 1 297 0
 637 0050 FFF7FEFF 		bl	FLASH_Lock
 638              	.LVL82:
 639              		.loc 1 299 0
 640 0054 FFF7FEFF 		bl	timeout_configure_IWDT
 641              	.LVL83:
 642              		.loc 1 301 0
 643 0058 4FF47A70 		mov	r0, #1000
 644 005c FFF7FEFF 		bl	chThdSleep
 645              	.LVL84:
 646              		.loc 1 302 0
 647 0060 FFF7FEFF 		bl	mc_interface_unlock
 648              	.LVL85:
 649              		.loc 1 303 0
 650 0064 FFF7FEFF 		bl	utils_sys_unlock_cnt
 651              	.LVL86:
 652              		.loc 1 306 0
 653 0068 2046     		mov	r0, r4
 654 006a 70BD     		pop	{r4, r5, r6, pc}
 655              	.LVL87:
 656              	.L43:
 657              		.loc 1 280 0
 658 006c 0124     		movs	r4, #1
 659              	.LBB31:
 660 006e EFE7     		b	.L38
 661              	.LBE31:
 662              		.cfi_endproc
 663              	.LFE264:
 664              		.size	conf_general_store_app_configuration, .-conf_general_store_app_configuration
 665              		.section	.text.save_odo_value,"ax",%progbits
 666              		.align	1
 667              		.p2align 4,,15
 668              		.global	save_odo_value
 669              		.syntax unified
 670              		.thumb
 671              		.thumb_func
 672              		.fpu fpv4-sp-d16
 673              		.type	save_odo_value, %function
 674              	save_odo_value:
 675              	.LFB265:
 676              		.loc 1 309 0
 677              		.cfi_startproc
 678              		@ args = 0, pretend = 0, frame = 8
 679              		@ frame_needed = 0, uses_anonymous_args = 0
 680              	.LVL88:
 681 0000 10B5     		push	{r4, lr}
 682              		.cfi_def_cfa_offset 8
 683              		.cfi_offset 4, -8
 684              		.cfi_offset 14, -4
ARM GAS  /tmp/ccH3nHCY.s 			page 13


 685 0002 0446     		mov	r4, r0
 686 0004 82B0     		sub	sp, sp, #8
 687              		.cfi_def_cfa_offset 16
 688              		.loc 1 310 0
 689 0006 FFF7FEFF 		bl	custom_get_configuration
 690              	.LVL89:
 691              		.loc 1 311 0
 692 000a 642C     		cmp	r4, #100
 693 000c 01D8     		bhi	.L50
 694              	.L45:
 695              		.loc 1 322 0
 696 000e 02B0     		add	sp, sp, #8
 697              		.cfi_remember_state
 698              		.cfi_def_cfa_offset 8
 699              		@ sp needed
 700 0010 10BD     		pop	{r4, pc}
 701              	.LVL90:
 702              	.L50:
 703              		.cfi_restore_state
 704              		.loc 1 312 0
 705 0012 02A8     		add	r0, sp, #8
 706 0014 40F8044D 		str	r4, [r0, #-4]!
 707              		.loc 1 313 0
 708 0018 FFF7FEFF 		bl	conf_general_store_custom_configuration
 709              	.LVL91:
 710 001c 0028     		cmp	r0, #0
 711 001e F6D1     		bne	.L45
 712              		.loc 1 314 0
 713 0020 0248     		ldr	r0, .L51
 714 0022 FFF7FEFF 		bl	commands_printf
 715              	.LVL92:
 716              		.loc 1 322 0
 717 0026 02B0     		add	sp, sp, #8
 718              		.cfi_def_cfa_offset 8
 719              		@ sp needed
 720 0028 10BD     		pop	{r4, pc}
 721              	.LVL93:
 722              	.L52:
 723 002a 00BF     		.align	2
 724              	.L51:
 725 002c 00000000 		.word	.LC0
 726              		.cfi_endproc
 727              	.LFE265:
 728              		.size	save_odo_value, .-save_odo_value
 729              		.section	.text.conf_general_read_mc_configuration,"ax",%progbits
 730              		.align	1
 731              		.p2align 4,,15
 732              		.global	conf_general_read_mc_configuration
 733              		.syntax unified
 734              		.thumb
 735              		.thumb_func
 736              		.fpu fpv4-sp-d16
 737              		.type	conf_general_read_mc_configuration, %function
 738              	conf_general_read_mc_configuration:
 739              	.LFB266:
 740              		.loc 1 330 0
 741              		.cfi_startproc
ARM GAS  /tmp/ccH3nHCY.s 			page 14


 742              		@ args = 0, pretend = 0, frame = 8
 743              		@ frame_needed = 0, uses_anonymous_args = 0
 744              	.LVL94:
 745 0000 F0B5     		push	{r4, r5, r6, r7, lr}
 746              		.cfi_def_cfa_offset 20
 747              		.cfi_offset 4, -20
 748              		.cfi_offset 5, -16
 749              		.cfi_offset 6, -12
 750              		.cfi_offset 7, -8
 751              		.cfi_offset 14, -4
 752 0002 0746     		mov	r7, r0
 753              	.LVL95:
 754 0004 83B0     		sub	sp, sp, #12
 755              		.cfi_def_cfa_offset 32
 756 0006 451C     		adds	r5, r0, #1
 757              		.loc 1 330 0
 758 0008 4FF47A74 		mov	r4, #1000
 759              	.LBB32:
 760              		.loc 1 335 0
 761 000c 40F2CC46 		movw	r6, #1228
 762 0010 09E0     		b	.L55
 763              	.LVL96:
 764              	.L59:
 765              		.loc 1 337 0
 766 0012 BDF80630 		ldrh	r3, [sp, #6]
 767              		.loc 1 335 0
 768 0016 B442     		cmp	r4, r6
 769              		.loc 1 337 0
 770 0018 4FEA1322 		lsr	r2, r3, #8
 771 001c 05F8012C 		strb	r2, [r5, #-1]
 772              		.loc 1 338 0
 773 0020 05F8023B 		strb	r3, [r5], #2
 774              		.loc 1 335 0
 775 0024 0BD0     		beq	.L53
 776              	.L55:
 777              		.loc 1 336 0
 778 0026 2046     		mov	r0, r4
 779 0028 0DF10601 		add	r1, sp, #6
 780 002c FFF7FEFF 		bl	EE_ReadVariable
 781              	.LVL97:
 782 0030 0134     		adds	r4, r4, #1
 783 0032 A4B2     		uxth	r4, r4
 784 0034 0028     		cmp	r0, #0
 785 0036 ECD0     		beq	.L59
 786              	.LVL98:
 787              	.LBE32:
 788              		.loc 1 346 0
 789 0038 3846     		mov	r0, r7
 790 003a FFF7FEFF 		bl	confgenerator_set_defaults_mcconf
 791              	.LVL99:
 792              	.L53:
 793              		.loc 1 348 0
 794 003e 03B0     		add	sp, sp, #12
 795              		.cfi_def_cfa_offset 20
 796              		@ sp needed
 797 0040 F0BD     		pop	{r4, r5, r6, r7, pc}
 798              		.cfi_endproc
ARM GAS  /tmp/ccH3nHCY.s 			page 15


 799              	.LFE266:
 800              		.size	conf_general_read_mc_configuration, .-conf_general_read_mc_configuration
 801 0042 00BF     		.section	.text.conf_general_store_mc_configuration,"ax",%progbits
 802              		.align	1
 803              		.p2align 4,,15
 804              		.global	conf_general_store_mc_configuration
 805              		.syntax unified
 806              		.thumb
 807              		.thumb_func
 808              		.fpu fpv4-sp-d16
 809              		.type	conf_general_store_mc_configuration, %function
 810              	conf_general_store_mc_configuration:
 811              	.LFB267:
 812              		.loc 1 356 0
 813              		.cfi_startproc
 814              		@ args = 0, pretend = 0, frame = 0
 815              		@ frame_needed = 0, uses_anonymous_args = 0
 816              	.LVL100:
 817 0000 70B5     		push	{r4, r5, r6, lr}
 818              		.cfi_def_cfa_offset 16
 819              		.cfi_offset 4, -16
 820              		.cfi_offset 5, -12
 821              		.cfi_offset 6, -8
 822              		.cfi_offset 14, -4
 823              		.loc 1 356 0
 824 0002 0546     		mov	r5, r0
 825              		.loc 1 357 0
 826 0004 FFF7FEFF 		bl	mc_interface_unlock
 827              	.LVL101:
 828              		.loc 1 358 0
 829 0008 FFF7FEFF 		bl	mc_interface_release_motor
 830              	.LVL102:
 831              		.loc 1 360 0
 832 000c FFF7FEFF 		bl	utils_sys_lock_cnt
 833              	.LVL103:
 834              		.loc 1 361 0
 835 0010 FFF7FEFF 		bl	mc_interface_lock
 836              	.LVL104:
 837              		.loc 1 363 0
 838 0014 FFF7FEFF 		bl	timeout_configure_IWDT_slowest
 839              	.LVL105:
 840              		.loc 1 368 0
 841 0018 FFF7FEFF 		bl	FLASH_Unlock
 842              	.LVL106:
 843              		.loc 1 369 0
 844 001c F220     		movs	r0, #242
 845 001e FFF7FEFF 		bl	FLASH_ClearFlag
 846              	.LVL107:
 847 0022 0135     		adds	r5, r5, #1
 848              	.LVL108:
 849 0024 4FF47A74 		mov	r4, #1000
 850              	.LBB33:
 851              		.loc 1 372 0
 852 0028 40F2CC46 		movw	r6, #1228
 853 002c 01E0     		b	.L62
 854              	.LVL109:
 855              	.L67:
ARM GAS  /tmp/ccH3nHCY.s 			page 16


 856              		.loc 1 372 0 is_stmt 0 discriminator 2
 857 002e B442     		cmp	r4, r6
 858 0030 1CD0     		beq	.L66
 859              	.L62:
 860              	.LBB34:
 861              		.loc 1 373 0 is_stmt 1
 862 0032 15F8011C 		ldrb	r1, [r5, #-1]	@ zero_extendqisi2
 863              	.LVL110:
 864              		.loc 1 374 0
 865 0036 2B78     		ldrb	r3, [r5]	@ zero_extendqisi2
 866              		.loc 1 376 0
 867 0038 2046     		mov	r0, r4
 868 003a 43EA0121 		orr	r1, r3, r1, lsl #8
 869              	.LVL111:
 870 003e FFF7FEFF 		bl	EE_WriteVariable
 871              	.LVL112:
 872 0042 0134     		adds	r4, r4, #1
 873 0044 0928     		cmp	r0, #9
 874 0046 A4B2     		uxth	r4, r4
 875 0048 05F10205 		add	r5, r5, #2
 876 004c EFD0     		beq	.L67
 877              		.loc 1 377 0
 878 004e 0024     		movs	r4, #0
 879              	.L61:
 880              	.LVL113:
 881              	.LBE34:
 882              	.LBE33:
 883              		.loc 1 381 0
 884 0050 FFF7FEFF 		bl	FLASH_Lock
 885              	.LVL114:
 886              		.loc 1 383 0
 887 0054 FFF7FEFF 		bl	timeout_configure_IWDT
 888              	.LVL115:
 889              		.loc 1 385 0
 890 0058 4FF47A70 		mov	r0, #1000
 891 005c FFF7FEFF 		bl	chThdSleep
 892              	.LVL116:
 893              		.loc 1 386 0
 894 0060 FFF7FEFF 		bl	mc_interface_unlock
 895              	.LVL117:
 896              		.loc 1 387 0
 897 0064 FFF7FEFF 		bl	utils_sys_unlock_cnt
 898              	.LVL118:
 899              		.loc 1 390 0
 900 0068 2046     		mov	r0, r4
 901 006a 70BD     		pop	{r4, r5, r6, pc}
 902              	.LVL119:
 903              	.L66:
 904              		.loc 1 365 0
 905 006c 0124     		movs	r4, #1
 906              	.LBB35:
 907 006e EFE7     		b	.L61
 908              	.LBE35:
 909              		.cfi_endproc
 910              	.LFE267:
 911              		.size	conf_general_store_mc_configuration, .-conf_general_store_mc_configuration
 912              		.section	.text.conf_general_detect_motor_param,"ax",%progbits
ARM GAS  /tmp/ccH3nHCY.s 			page 17


 913              		.align	1
 914              		.p2align 4,,15
 915              		.global	conf_general_detect_motor_param
 916              		.syntax unified
 917              		.thumb
 918              		.thumb_func
 919              		.fpu fpv4-sp-d16
 920              		.type	conf_general_detect_motor_param, %function
 921              	conf_general_detect_motor_param:
 922              	.LFB268:
 923              		.loc 1 393 0
 924              		.cfi_startproc
 925              		@ args = 0, pretend = 0, frame = 8
 926              		@ frame_needed = 0, uses_anonymous_args = 0
 927              	.LVL120:
 928 0000 2DE9F04F 		push	{r4, r5, r6, r7, r8, r9, r10, fp, lr}
 929              		.cfi_def_cfa_offset 36
 930              		.cfi_offset 4, -36
 931              		.cfi_offset 5, -32
 932              		.cfi_offset 6, -28
 933              		.cfi_offset 7, -24
 934              		.cfi_offset 8, -20
 935              		.cfi_offset 9, -16
 936              		.cfi_offset 10, -12
 937              		.cfi_offset 11, -8
 938              		.cfi_offset 14, -4
 939 0004 2DED068B 		vpush.64	{d8, d9, d10}
 940              		.cfi_def_cfa_offset 60
 941              		.cfi_offset 80, -60
 942              		.cfi_offset 81, -56
 943              		.cfi_offset 82, -52
 944              		.cfi_offset 83, -48
 945              		.cfi_offset 84, -44
 946              		.cfi_offset 85, -40
 947 0008 83B0     		sub	sp, sp, #12
 948              		.cfi_def_cfa_offset 72
 949              		.loc 1 393 0
 950 000a F0EE609A 		vmov.f32	s19, s1
 951 000e B0EE40AA 		vmov.f32	s20, s0
 952 0012 B0EE419A 		vmov.f32	s18, s2
 953 0016 0193     		str	r3, [sp, #4]
 954 0018 8A46     		mov	r10, r1
 955 001a 9346     		mov	fp, r2
 956 001c 8046     		mov	r8, r0
 957              		.loc 1 398 0
 958 001e FFF7FEFF 		bl	mc_interface_get_configuration
 959              	.LVL121:
 960 0022 C14E     		ldr	r6, .L129
 961 0024 0146     		mov	r1, r0
 962 0026 4FF4E472 		mov	r2, #456
 963 002a 3046     		mov	r0, r6
 964 002c FFF7FEFF 		bl	memcpy
 965              	.LVL122:
 966              		.loc 1 399 0
 967 0030 3146     		mov	r1, r6
 968 0032 4FF4E472 		mov	r2, #456
 969 0036 BD48     		ldr	r0, .L129+4
ARM GAS  /tmp/ccH3nHCY.s 			page 18


 970 0038 FFF7FEFF 		bl	memcpy
 971              	.LVL123:
 972              		.loc 1 406 0
 973 003c BC4B     		ldr	r3, .L129+8
 974              		.loc 1 407 0
 975 003e BD49     		ldr	r1, .L129+12
 976              		.loc 1 408 0
 977 0040 BD4A     		ldr	r2, .L129+16
 978              		.loc 1 406 0
 979 0042 C6F89C30 		str	r3, [r6, #156]	@ float
 980              		.loc 1 404 0
 981 0046 4FF07E50 		mov	r0, #1065353216
 982              		.loc 1 401 0
 983 004a 0023     		movs	r3, #0
 984              		.loc 1 404 0
 985 004c C6F89400 		str	r0, [r6, #148]	@ float
 986              		.loc 1 410 0
 987 0050 3046     		mov	r0, r6
 988              		.loc 1 405 0
 989 0052 C6ED219A 		vstr.32	s19, [r6, #132]
 990              		.loc 1 407 0
 991 0056 C6F89010 		str	r1, [r6, #144]	@ float
 992              		.loc 1 408 0
 993 005a C6F88820 		str	r2, [r6, #136]	@ float
 994              		.loc 1 401 0
 995 005e B370     		strb	r3, [r6, #2]
 996              		.loc 1 402 0
 997 0060 F370     		strb	r3, [r6, #3]
 998              		.loc 1 403 0
 999 0062 7370     		strb	r3, [r6, #1]
 1000              		.loc 1 409 0
 1001 0064 86F89931 		strb	r3, [r6, #409]
 1002              		.loc 1 410 0
 1003 0068 4FF4FA74 		mov	r4, #500
 1004 006c FFF7FEFF 		bl	mc_interface_set_configuration
 1005              	.LVL124:
 1006 0070 04E0     		b	.L70
 1007              	.LVL125:
 1008              	.L118:
 1009              	.LBB36:
 1010              		.loc 1 417 0 discriminator 2
 1011 0072 6420     		movs	r0, #100
 1012 0074 FFF7FEFF 		bl	chThdSleep
 1013              	.LVL126:
 1014              		.loc 1 413 0 discriminator 2
 1015 0078 013C     		subs	r4, r4, #1
 1016              	.LVL127:
 1017 007a 03D0     		beq	.L69
 1018              	.LVL128:
 1019              	.L70:
 1020              		.loc 1 414 0
 1021 007c FFF7FEFF 		bl	mc_interface_get_fault
 1022              	.LVL129:
 1023 0080 0028     		cmp	r0, #0
 1024 0082 F6D1     		bne	.L118
 1025              	.LVL130:
 1026              	.L69:
ARM GAS  /tmp/ccH3nHCY.s 			page 19


 1027              	.LBE36:
 1028              		.loc 1 422 0
 1029 0084 42F21070 		movw	r0, #10000
 1030 0088 FFF7FEFF 		bl	chThdSleep
 1031              	.LVL131:
 1032              		.loc 1 425 0
 1033 008c FFF7FEFF 		bl	timeout_get_timeout_msec
 1034              	.LVL132:
 1035 0090 8146     		mov	r9, r0
 1036              	.LVL133:
 1037              		.loc 1 426 0
 1038 0092 FFF7FEFF 		bl	timeout_get_brake_current
 1039              	.LVL134:
 1040 0096 F0EE40AA 		vmov.f32	s21, s0
 1041              	.LVL135:
 1042              		.loc 1 427 0
 1043 009a FFF7FEFF 		bl	timeout_reset
 1044              	.LVL136:
 1045              		.loc 1 428 0
 1046 009e 9FEDA70A 		vldr.32	s0, .L129+20
 1047 00a2 4EF66020 		movw	r0, #60000
 1048 00a6 FFF7FEFF 		bl	timeout_configure
 1049              	.LVL137:
 1050              		.loc 1 430 0
 1051 00aa FFF7FEFF 		bl	mc_interface_lock
 1052              	.LVL138:
 1053              		.loc 1 432 0
 1054 00ae FFF7FEFF 		bl	mc_interface_lock_override_once
 1055              	.LVL139:
 1056              		.loc 1 433 0
 1057 00b2 B0EE4A0A 		vmov.f32	s0, s20
 1058 00b6 FFF7FEFF 		bl	mc_interface_set_current
 1059              	.LVL140:
 1060              	.LBB37:
 1061              		.loc 1 437 0
 1062 00ba 0027     		movs	r7, #0
 1063              	.LBB38:
 1064              		.loc 1 468 0
 1065 00bc F5EE008A 		vmov.f32	s17, #2.5e-1
 1066              	.LVL141:
 1067              	.L83:
 1068              		.loc 1 438 0
 1069 00c0 012F     		cmp	r7, #1
 1070 00c2 00F00881 		beq	.L119
 1071              		.loc 1 448 0
 1072 00c6 022F     		cmp	r7, #2
 1073 00c8 00F02081 		beq	.L120
 1074              	.L72:
 1075              	.LBE38:
 1076              		.loc 1 437 0
 1077 00cc 0025     		movs	r5, #0
 1078 00ce 2C46     		mov	r4, r5
 1079              	.LBB39:
 1080              		.loc 1 464 0
 1081 00d0 B6EE008A 		vmov.f32	s16, #5.0e-1
 1082              	.L73:
 1083              	.LVL142:
ARM GAS  /tmp/ccH3nHCY.s 			page 20


 1084 00d4 FFF7FEFF 		bl	mc_interface_get_duty_cycle_now
 1085              	.LVL143:
 1086 00d8 B4EEC80A 		vcmpe.f32	s0, s16
 1087 00dc F1EE10FA 		vmrs	APSR_nzcv, FPSCR
 1088              		.loc 1 465 0
 1089 00e0 4FF00A00 		mov	r0, #10
 1090              		.loc 1 466 0
 1091 00e4 04F10104 		add	r4, r4, #1
 1092              	.LVL144:
 1093              		.loc 1 464 0
 1094 00e8 40F1E980 		bpl	.L121
 1095              		.loc 1 465 0
 1096 00ec FFF7FEFF 		bl	chThdSleep
 1097              	.LVL145:
 1098              		.loc 1 468 0
 1099 00f0 FFF7FEFF 		bl	mc_interface_get_duty_cycle_now
 1100              	.LVL146:
 1101 00f4 B4EEE80A 		vcmpe.f32	s0, s17
 1102 00f8 F1EE10FA 		vmrs	APSR_nzcv, FPSCR
 1103 00fc 0CDB     		blt	.L113
 1104              	.LVL147:
 1105              		.loc 1 468 0 is_stmt 0 discriminator 1
 1106 00fe 002D     		cmp	r5, #0
 1107 0100 00F0C180 		beq	.L122
 1108              		.loc 1 473 0 is_stmt 1
 1109 0104 B4F5FA6F 		cmp	r4, #2000
 1110 0108 04DD     		ble	.L97
 1111              	.LVL148:
 1112              	.L77:
 1113              		.loc 1 478 0
 1114 010a 41F28833 		movw	r3, #5000
 1115 010e 9C42     		cmp	r4, r3
 1116 0110 00F0C180 		beq	.L80
 1117              	.L97:
 1118              	.LBE39:
 1119              		.loc 1 437 0
 1120 0114 0125     		movs	r5, #1
 1121 0116 DDE7     		b	.L73
 1122              	.LVL149:
 1123              	.L113:
 1124              	.LBB40:
 1125              		.loc 1 473 0
 1126 0118 B4F5FA6F 		cmp	r4, #2000
 1127 011c DADD     		ble	.L73
 1128              		.loc 1 473 0 is_stmt 0 discriminator 1
 1129 011e 002D     		cmp	r5, #0
 1130 0120 F3D1     		bne	.L77
 1131              	.LVL150:
 1132              	.LBE40:
 1133              		.loc 1 437 0 is_stmt 1 discriminator 2
 1134 0122 0137     		adds	r7, r7, #1
 1135              	.LVL151:
 1136 0124 032F     		cmp	r7, #3
 1137 0126 CBD1     		bne	.L83
 1138              	.LVL152:
 1139              	.L128:
 1140              	.LBE37:
ARM GAS  /tmp/ccH3nHCY.s 			page 21


 1141              		.loc 1 489 0
 1142 0128 002D     		cmp	r5, #0
 1143 012a 00F0B480 		beq	.L80
 1144              	.LVL153:
 1145              	.L82:
 1146              		.loc 1 500 0
 1147 012e FFF7FEFF 		bl	mcpwm_reset_hall_detect_table
 1148              	.LVL154:
 1149              		.loc 1 503 0
 1150 0132 FFF7FEFF 		bl	mc_interface_lock_override_once
 1151              	.LVL155:
 1152              		.loc 1 504 0
 1153 0136 B6EE000A 		vmov.f32	s0, #5.0e-1
 1154 013a FFF7FEFF 		bl	mc_interface_set_duty
 1155              	.LVL156:
 1156              		.loc 1 505 0
 1157 013e 4FF47A60 		mov	r0, #4000
 1158 0142 FFF7FEFF 		bl	chThdSleep
 1159              	.LVL157:
 1160              		.loc 1 508 0
 1161 0146 FFF7FEFF 		bl	mc_interface_lock_override_once
 1162              	.LVL158:
 1163              		.loc 1 509 0
 1164 014a 9FED7C0A 		vldr.32	s0, .L129+20
 1165 014e FFF7FEFF 		bl	mc_interface_set_current
 1166              	.LVL159:
 1167              		.loc 1 510 0
 1168 0152 0020     		movs	r0, #0
 1169 0154 FFF7FEFF 		bl	mc_interface_get_tachometer_value
 1170              	.LVL160:
 1171 0158 4FF4FA64 		mov	r4, #2000
 1172 015c 0546     		mov	r5, r0
 1173              	.LVL161:
 1174 015e 04E0     		b	.L86
 1175              	.LVL162:
 1176              	.L124:
 1177              	.LBB45:
 1178              		.loc 1 513 0
 1179 0160 FFF7FEFF 		bl	chThdSleep
 1180              	.LVL163:
 1181              		.loc 1 511 0
 1182 0164 013C     		subs	r4, r4, #1
 1183              	.LVL164:
 1184 0166 00F0B480 		beq	.L123
 1185              	.LVL165:
 1186              	.L86:
 1187              		.loc 1 512 0
 1188 016a 0020     		movs	r0, #0
 1189 016c FFF7FEFF 		bl	mc_interface_get_tachometer_value
 1190              	.LVL166:
 1191 0170 431B     		subs	r3, r0, r5
 1192 0172 022B     		cmp	r3, #2
 1193              		.loc 1 513 0
 1194 0174 4FF00A00 		mov	r0, #10
 1195              		.loc 1 512 0
 1196 0178 F2DD     		ble	.L124
 1197              		.loc 1 515 0
ARM GAS  /tmp/ccH3nHCY.s 			page 22


 1198 017a 0225     		movs	r5, #2
 1199              	.LVL167:
 1200              	.L85:
 1201              	.LBE45:
 1202              		.loc 1 521 0
 1203 017c FFF7FEFF 		bl	mcpwm_read_reset_avg_cycle_integrator
 1204              	.LVL168:
 1205              		.loc 1 522 0
 1206 0180 0020     		movs	r0, #0
 1207 0182 FFF7FEFF 		bl	mc_interface_get_tachometer_value
 1208              	.LVL169:
 1209 0186 40F6B834 		movw	r4, #3000
 1210 018a 0646     		mov	r6, r0
 1211              	.LVL170:
 1212 018c 03E0     		b	.L88
 1213              	.LVL171:
 1214              	.L125:
 1215              	.LBB46:
 1216              		.loc 1 525 0
 1217 018e FFF7FEFF 		bl	chThdSleep
 1218              	.LVL172:
 1219              		.loc 1 523 0
 1220 0192 013C     		subs	r4, r4, #1
 1221              	.LVL173:
 1222 0194 08D0     		beq	.L89
 1223              	.LVL174:
 1224              	.L88:
 1225              		.loc 1 524 0
 1226 0196 0020     		movs	r0, #0
 1227 0198 FFF7FEFF 		bl	mc_interface_get_tachometer_value
 1228              	.LVL175:
 1229 019c 831B     		subs	r3, r0, r6
 1230 019e 312B     		cmp	r3, #49
 1231              		.loc 1 525 0
 1232 01a0 4FF00A00 		mov	r0, #10
 1233              		.loc 1 524 0
 1234 01a4 F3DD     		ble	.L125
 1235              		.loc 1 527 0
 1236 01a6 0135     		adds	r5, r5, #1
 1237              	.LVL176:
 1238              	.L89:
 1239              	.LBE46:
 1240              		.loc 1 533 0
 1241 01a8 5846     		mov	r0, fp
 1242 01aa FFF7FEFF 		bl	mcpwm_get_hall_detect_result
 1243              	.LVL177:
 1244 01ae 019B     		ldr	r3, [sp, #4]
 1245 01b0 1860     		str	r0, [r3]
 1246              		.loc 1 535 0
 1247 01b2 FFF7FEFF 		bl	mcpwm_read_reset_avg_cycle_integrator
 1248              	.LVL178:
 1249 01b6 41F28834 		movw	r4, #5000
 1250 01ba 88ED000A 		vstr.32	s0, [r8]
 1251              	.LVL179:
 1252 01be 03E0     		b	.L92
 1253              	.LVL180:
 1254              	.L126:
ARM GAS  /tmp/ccH3nHCY.s 			page 23


 1255              	.LBB47:
 1256              		.loc 1 540 0
 1257 01c0 FFF7FEFF 		bl	chThdSleep
 1258              	.LVL181:
 1259              		.loc 1 538 0
 1260 01c4 013C     		subs	r4, r4, #1
 1261              	.LVL182:
 1262 01c6 09D0     		beq	.L93
 1263              	.LVL183:
 1264              	.L92:
 1265              		.loc 1 539 0
 1266 01c8 FFF7FEFF 		bl	mc_interface_get_duty_cycle_now
 1267              	.LVL184:
 1268 01cc B4EEC90A 		vcmpe.f32	s0, s18
 1269 01d0 F1EE10FA 		vmrs	APSR_nzcv, FPSCR
 1270              		.loc 1 540 0
 1271 01d4 4FF00A00 		mov	r0, #10
 1272              		.loc 1 539 0
 1273 01d8 F2DC     		bgt	.L126
 1274              		.loc 1 542 0
 1275 01da 0135     		adds	r5, r5, #1
 1276              	.LVL185:
 1277              	.L93:
 1278              	.LBE47:
 1279              		.loc 1 547 0
 1280 01dc FFF7FEFF 		bl	mc_interface_lock_override_once
 1281              	.LVL186:
 1282              		.loc 1 548 0
 1283 01e0 B0EE490A 		vmov.f32	s0, s18
 1284 01e4 FFF7FEFF 		bl	mc_interface_set_duty
 1285              	.LVL187:
 1286              		.loc 1 551 0
 1287 01e8 FFF7FEFF 		bl	mcpwm_read_reset_avg_cycle_integrator
 1288              	.LVL188:
 1289              		.loc 1 552 0
 1290 01ec 0020     		movs	r0, #0
 1291 01ee FFF7FEFF 		bl	mc_interface_get_tachometer_value
 1292              	.LVL189:
 1293              		.loc 1 554 0
 1294 01f2 9FED528A 		vldr.32	s16, .L129+20
 1295              		.loc 1 552 0
 1296 01f6 0646     		mov	r6, r0
 1297              	.LVL190:
 1298              		.loc 1 553 0
 1299 01f8 F0EE488A 		vmov.f32	s17, s16
 1300              		.loc 1 552 0
 1301 01fc 40F6B834 		movw	r4, #3000
 1302              	.LBB48:
 1303              		.loc 1 558 0
 1304 0200 B7EE009A 		vmov.f32	s18, #1.0e+0
 1305              	.LVL191:
 1306 0204 0AE0     		b	.L95
 1307              	.LVL192:
 1308              	.L127:
 1309              		.loc 1 557 0
 1310 0206 FFF7FEFF 		bl	mc_interface_get_rpm
 1311              	.LVL193:
ARM GAS  /tmp/ccH3nHCY.s 			page 24


 1312              		.loc 1 559 0
 1313 020a 0A20     		movs	r0, #10
 1314              		.loc 1 557 0
 1315 020c 78EE808A 		vadd.f32	s17, s17, s0
 1316              	.LVL194:
 1317              		.loc 1 559 0
 1318 0210 FFF7FEFF 		bl	chThdSleep
 1319              	.LVL195:
 1320              		.loc 1 555 0
 1321 0214 013C     		subs	r4, r4, #1
 1322              	.LVL196:
 1323              		.loc 1 558 0
 1324 0216 38EE098A 		vadd.f32	s16, s16, s18
 1325              	.LVL197:
 1326              		.loc 1 555 0
 1327 021a 06D0     		beq	.L96
 1328              	.LVL198:
 1329              	.L95:
 1330              		.loc 1 556 0
 1331 021c 0020     		movs	r0, #0
 1332 021e FFF7FEFF 		bl	mc_interface_get_tachometer_value
 1333              	.LVL199:
 1334 0222 801B     		subs	r0, r0, r6
 1335 0224 6328     		cmp	r0, #99
 1336 0226 EEDD     		ble	.L127
 1337              		.loc 1 561 0
 1338 0228 0135     		adds	r5, r5, #1
 1339              	.LVL200:
 1340              	.L96:
 1341              	.LBE48:
 1342              		.loc 1 566 0
 1343 022a FFF7FEFF 		bl	mcpwm_read_reset_avg_cycle_integrator
 1344              	.LVL201:
 1345 022e B0EE409A 		vmov.f32	s18, s0
 1346              	.LVL202:
 1347              		.loc 1 569 0
 1348 0232 FFF7FEFF 		bl	mc_interface_lock_override_once
 1349              	.LVL203:
 1350              		.loc 1 570 0
 1351 0236 FFF7FEFF 		bl	mc_interface_release_motor
 1352              	.LVL204:
 1353              		.loc 1 574 0
 1354 023a 414B     		ldr	r3, .L129+24
 1355              		.loc 1 573 0
 1356 023c 98ED000A 		vldr.32	s0, [r8]
 1357              		.loc 1 574 0
 1358 0240 DB8A     		ldrh	r3, [r3, #22]
 1359              		.loc 1 579 0
 1360 0242 3A48     		ldr	r0, .L129+4
 1361              		.loc 1 574 0
 1362 0244 07EE103A 		vmov	s14, r3	@ int
 1363              		.loc 1 573 0
 1364 0248 39EE400A 		vsub.f32	s0, s18, s0
 1365              		.loc 1 574 0
 1366 024c B8EE477A 		vcvt.f32.u32	s14, s14
 1367              		.loc 1 567 0
 1368 0250 C8EE887A 		vdiv.f32	s15, s17, s16
ARM GAS  /tmp/ccH3nHCY.s 			page 25


 1369              	.LVL205:
 1370              		.loc 1 574 0
 1371 0254 C0EE076A 		vdiv.f32	s13, s0, s14
 1372              	.LVL206:
 1373              		.loc 1 575 0
 1374 0258 67EEA67A 		vmul.f32	s15, s15, s13
 1375              	.LVL207:
 1376              		.loc 1 576 0
 1377 025c CAED007A 		vstr.32	s15, [r10]
 1378              		.loc 1 579 0
 1379 0260 FFF7FEFF 		bl	mc_interface_set_configuration
 1380              	.LVL208:
 1381              		.loc 1 580 0
 1382 0264 4846     		mov	r0, r9
 1383 0266 B0EE6A0A 		vmov.f32	s0, s21
 1384 026a FFF7FEFF 		bl	timeout_configure
 1385              	.LVL209:
 1386              		.loc 1 582 0
 1387 026e FFF7FEFF 		bl	mc_interface_unlock
 1388              	.LVL210:
 1389              		.loc 1 584 0
 1390 0272 A5F10500 		sub	r0, r5, #5
 1391 0276 B0FA80F0 		clz	r0, r0
 1392 027a 4009     		lsrs	r0, r0, #5
 1393              		.loc 1 585 0
 1394 027c 03B0     		add	sp, sp, #12
 1395              		.cfi_remember_state
 1396              		.cfi_def_cfa_offset 60
 1397              		@ sp needed
 1398 027e BDEC068B 		vldm	sp!, {d8-d10}
 1399              		.cfi_restore 84
 1400              		.cfi_restore 85
 1401              		.cfi_restore 82
 1402              		.cfi_restore 83
 1403              		.cfi_restore 80
 1404              		.cfi_restore 81
 1405              		.cfi_def_cfa_offset 36
 1406              	.LVL211:
 1407 0282 BDE8F08F 		pop	{r4, r5, r6, r7, r8, r9, r10, fp, pc}
 1408              	.LVL212:
 1409              	.L122:
 1410              		.cfi_restore_state
 1411              	.LBB49:
 1412              	.LBB41:
 1413              		.loc 1 469 0
 1414 0286 0120     		movs	r0, #1
 1415 0288 FFF7FEFF 		bl	mcpwm_switch_comm_mode
 1416              	.LVL213:
 1417              		.loc 1 478 0
 1418 028c 41F28833 		movw	r3, #5000
 1419 0290 9C42     		cmp	r4, r3
 1420 0292 7FF43FAF 		bne	.L97
 1421              	.LVL214:
 1422              	.L80:
 1423              	.LBE41:
 1424              	.LBE49:
 1425              		.loc 1 490 0
ARM GAS  /tmp/ccH3nHCY.s 			page 26


 1426 0296 9FED290A 		vldr.32	s0, .L129+20
 1427 029a FFF7FEFF 		bl	mc_interface_set_current
 1428              	.LVL215:
 1429              		.loc 1 491 0
 1430 029e B0EE6A0A 		vmov.f32	s0, s21
 1431 02a2 4846     		mov	r0, r9
 1432 02a4 FFF7FEFF 		bl	timeout_configure
 1433              	.LVL216:
 1434              		.loc 1 492 0
 1435 02a8 2048     		ldr	r0, .L129+4
 1436 02aa FFF7FEFF 		bl	mc_interface_set_configuration
 1437              	.LVL217:
 1438              		.loc 1 493 0
 1439 02ae FFF7FEFF 		bl	mc_interface_unlock
 1440              	.LVL218:
 1441              		.loc 1 494 0
 1442 02b2 0020     		movs	r0, #0
 1443              		.loc 1 585 0
 1444 02b4 03B0     		add	sp, sp, #12
 1445              		.cfi_remember_state
 1446              		.cfi_def_cfa_offset 60
 1447              		@ sp needed
 1448 02b6 BDEC068B 		vldm	sp!, {d8-d10}
 1449              		.cfi_restore 84
 1450              		.cfi_restore 85
 1451              		.cfi_restore 82
 1452              		.cfi_restore 83
 1453              		.cfi_restore 80
 1454              		.cfi_restore 81
 1455              		.cfi_def_cfa_offset 36
 1456              	.LVL219:
 1457 02ba BDE8F08F 		pop	{r4, r5, r6, r7, r8, r9, r10, fp, pc}
 1458              	.LVL220:
 1459              	.L121:
 1460              		.cfi_restore_state
 1461              	.LBB50:
 1462              	.LBB42:
 1463              		.loc 1 484 0
 1464 02be 002D     		cmp	r5, #0
 1465 02c0 7FF435AF 		bne	.L82
 1466              	.LBE42:
 1467              		.loc 1 437 0
 1468 02c4 0137     		adds	r7, r7, #1
 1469              	.LVL221:
 1470 02c6 032F     		cmp	r7, #3
 1471              	.LBB43:
 1472              		.loc 1 462 0
 1473 02c8 4FF00105 		mov	r5, #1
 1474              	.LVL222:
 1475              	.LBE43:
 1476              		.loc 1 437 0
 1477 02cc 7FF4F8AE 		bne	.L83
 1478 02d0 2AE7     		b	.L128
 1479              	.LVL223:
 1480              	.L123:
 1481              	.LBE50:
 1482              		.loc 1 497 0
ARM GAS  /tmp/ccH3nHCY.s 			page 27


 1483 02d2 0125     		movs	r5, #1
 1484              	.LVL224:
 1485              	.LBB51:
 1486 02d4 52E7     		b	.L85
 1487              	.LVL225:
 1488              	.L119:
 1489              	.LBE51:
 1490              	.LBB52:
 1491              	.LBB44:
 1492              		.loc 1 439 0
 1493 02d6 FFF7FEFF 		bl	mc_interface_lock_override_once
 1494              	.LVL226:
 1495              		.loc 1 440 0
 1496 02da FFF7FEFF 		bl	mc_interface_release_motor
 1497              	.LVL227:
 1498              		.loc 1 441 0
 1499 02de 79EEA97A 		vadd.f32	s15, s19, s19
 1500              		.loc 1 442 0
 1501 02e2 184B     		ldr	r3, .L129+28
 1502              		.loc 1 441 0
 1503 02e4 C6ED217A 		vstr.32	s15, [r6, #132]
 1504              		.loc 1 442 0
 1505 02e8 C6F89030 		str	r3, [r6, #144]	@ float
 1506              	.L117:
 1507              		.loc 1 453 0
 1508 02ec FFF7FEFF 		bl	mc_interface_lock_override_once
 1509              	.LVL228:
 1510              		.loc 1 454 0
 1511 02f0 0D48     		ldr	r0, .L129
 1512 02f2 FFF7FEFF 		bl	mc_interface_set_configuration
 1513              	.LVL229:
 1514              		.loc 1 455 0
 1515 02f6 42F21070 		movw	r0, #10000
 1516 02fa FFF7FEFF 		bl	chThdSleep
 1517              	.LVL230:
 1518              		.loc 1 456 0
 1519 02fe FFF7FEFF 		bl	mc_interface_lock_override_once
 1520              	.LVL231:
 1521              		.loc 1 457 0
 1522 0302 B0EE4A0A 		vmov.f32	s0, s20
 1523 0306 FFF7FEFF 		bl	mc_interface_set_current
 1524              	.LVL232:
 1525 030a DFE6     		b	.L72
 1526              	.L120:
 1527              		.loc 1 449 0
 1528 030c FFF7FEFF 		bl	mc_interface_lock_override_once
 1529              	.LVL233:
 1530              		.loc 1 450 0
 1531 0310 FFF7FEFF 		bl	mc_interface_release_motor
 1532              	.LVL234:
 1533              		.loc 1 451 0
 1534 0314 F1EE007A 		vmov.f32	s15, #4.0e+0
 1535 0318 69EEA77A 		vmul.f32	s15, s19, s15
 1536              		.loc 1 452 0
 1537 031c 0123     		movs	r3, #1
 1538              		.loc 1 451 0
 1539 031e C6ED217A 		vstr.32	s15, [r6, #132]
ARM GAS  /tmp/ccH3nHCY.s 			page 28


 1540              		.loc 1 452 0
 1541 0322 7370     		strb	r3, [r6, #1]
 1542 0324 E2E7     		b	.L117
 1543              	.L130:
 1544 0326 00BF     		.align	2
 1545              	.L129:
 1546 0328 00000000 		.word	.LANCHOR1
 1547 032c 00000000 		.word	.LANCHOR2
 1548 0330 00009643 		.word	1133903872
 1549 0334 00004842 		.word	1112014848
 1550 0338 00808944 		.word	1149861888
 1551 033c 00000000 		.word	0
 1552 0340 00000000 		.word	ADC_Value
 1553 0344 0000A041 		.word	1101004800
 1554              	.LBE44:
 1555              	.LBE52:
 1556              		.cfi_endproc
 1557              	.LFE268:
 1558              		.size	conf_general_detect_motor_param, .-conf_general_detect_motor_param
 1559              		.section	.text.conf_general_measure_flux_linkage,"ax",%progbits
 1560              		.align	1
 1561              		.p2align 4,,15
 1562              		.global	conf_general_measure_flux_linkage
 1563              		.syntax unified
 1564              		.thumb
 1565              		.thumb_func
 1566              		.fpu fpv4-sp-d16
 1567              		.type	conf_general_measure_flux_linkage, %function
 1568              	conf_general_measure_flux_linkage:
 1569              	.LFB269:
 1570              		.loc 1 609 0
 1571              		.cfi_startproc
 1572              		@ args = 0, pretend = 0, frame = 0
 1573              		@ frame_needed = 0, uses_anonymous_args = 0
 1574              	.LVL235:
 1575 0000 2DE9F84F 		push	{r3, r4, r5, r6, r7, r8, r9, r10, fp, lr}
 1576              		.cfi_def_cfa_offset 40
 1577              		.cfi_offset 3, -40
 1578              		.cfi_offset 4, -36
 1579              		.cfi_offset 5, -32
 1580              		.cfi_offset 6, -28
 1581              		.cfi_offset 7, -24
 1582              		.cfi_offset 8, -20
 1583              		.cfi_offset 9, -16
 1584              		.cfi_offset 10, -12
 1585              		.cfi_offset 11, -8
 1586              		.cfi_offset 14, -4
 1587 0004 2DED0A8B 		vpush.64	{d8, d9, d10, d11, d12}
 1588              		.cfi_def_cfa_offset 80
 1589              		.cfi_offset 80, -80
 1590              		.cfi_offset 81, -76
 1591              		.cfi_offset 82, -72
 1592              		.cfi_offset 83, -68
 1593              		.cfi_offset 84, -64
 1594              		.cfi_offset 85, -60
 1595              		.cfi_offset 86, -56
 1596              		.cfi_offset 87, -52
ARM GAS  /tmp/ccH3nHCY.s 			page 29


 1597              		.cfi_offset 88, -48
 1598              		.cfi_offset 89, -44
 1599              		.loc 1 609 0
 1600 0008 0746     		mov	r7, r0
 1601 000a B0EE419A 		vmov.f32	s18, s2
 1602 000e F0EE409A 		vmov.f32	s19, s0
 1603 0012 B0EE608A 		vmov.f32	s16, s1
 1604 0016 F0EE61BA 		vmov.f32	s23, s3
 1605              		.loc 1 610 0
 1606 001a FFF7FEFF 		bl	mc_interface_get_configuration
 1607              	.LVL236:
 1608 001e A84E     		ldr	r6, .L174
 1609 0020 0146     		mov	r1, r0
 1610 0022 4FF4E472 		mov	r2, #456
 1611 0026 3046     		mov	r0, r6
 1612 0028 FFF7FEFF 		bl	memcpy
 1613              	.LVL237:
 1614              		.loc 1 611 0
 1615 002c 3146     		mov	r1, r6
 1616 002e 4FF4E472 		mov	r2, #456
 1617 0032 A448     		ldr	r0, .L174+4
 1618 0034 FFF7FEFF 		bl	memcpy
 1619              	.LVL238:
 1620              		.loc 1 618 0
 1621 0038 A348     		ldr	r0, .L174+8
 1622              		.loc 1 619 0
 1623 003a A44B     		ldr	r3, .L174+12
 1624              		.loc 1 620 0
 1625 003c A449     		ldr	r1, .L174+16
 1626              		.loc 1 621 0
 1627 003e A54A     		ldr	r2, .L174+20
 1628              		.loc 1 618 0
 1629 0040 C6F8A001 		str	r0, [r6, #416]	@ float
 1630              		.loc 1 616 0
 1631 0044 4FF07E54 		mov	r4, #1065353216
 1632              		.loc 1 619 0
 1633 0048 C6F89C30 		str	r3, [r6, #156]	@ float
 1634              		.loc 1 622 0
 1635 004c 3046     		mov	r0, r6
 1636              		.loc 1 613 0
 1637 004e 0023     		movs	r3, #0
 1638              		.loc 1 616 0
 1639 0050 C6F89440 		str	r4, [r6, #148]	@ float
 1640              		.loc 1 617 0
 1641 0054 86ED219A 		vstr.32	s18, [r6, #132]
 1642              		.loc 1 620 0
 1643 0058 C6F89010 		str	r1, [r6, #144]	@ float
 1644              		.loc 1 621 0
 1645 005c C6F88820 		str	r2, [r6, #136]	@ float
 1646              		.loc 1 613 0
 1647 0060 B370     		strb	r3, [r6, #2]
 1648              		.loc 1 614 0
 1649 0062 F370     		strb	r3, [r6, #3]
 1650              		.loc 1 615 0
 1651 0064 7370     		strb	r3, [r6, #1]
 1652              		.loc 1 622 0
 1653 0066 4FF4FA74 		mov	r4, #500
ARM GAS  /tmp/ccH3nHCY.s 			page 30


 1654 006a FFF7FEFF 		bl	mc_interface_set_configuration
 1655              	.LVL239:
 1656 006e 04E0     		b	.L133
 1657              	.LVL240:
 1658              	.L166:
 1659              	.LBB53:
 1660              		.loc 1 629 0 discriminator 2
 1661 0070 6420     		movs	r0, #100
 1662 0072 FFF7FEFF 		bl	chThdSleep
 1663              	.LVL241:
 1664              		.loc 1 625 0 discriminator 2
 1665 0076 013C     		subs	r4, r4, #1
 1666              	.LVL242:
 1667 0078 03D0     		beq	.L132
 1668              	.LVL243:
 1669              	.L133:
 1670              		.loc 1 626 0
 1671 007a FFF7FEFF 		bl	mc_interface_get_fault
 1672              	.LVL244:
 1673 007e 0028     		cmp	r0, #0
 1674 0080 F6D1     		bne	.L166
 1675              	.LVL245:
 1676              	.L132:
 1677              	.LBE53:
 1678              		.loc 1 632 0
 1679 0082 FFF7FEFF 		bl	mc_interface_get_fault
 1680              	.LVL246:
 1681 0086 8146     		mov	r9, r0
 1682 0088 0028     		cmp	r0, #0
 1683 008a 40F0E180 		bne	.L167
 1684              		.loc 1 639 0
 1685 008e 42F21070 		movw	r0, #10000
 1686 0092 FFF7FEFF 		bl	chThdSleep
 1687              	.LVL247:
 1688              		.loc 1 642 0
 1689 0096 FFF7FEFF 		bl	timeout_get_timeout_msec
 1690              	.LVL248:
 1691 009a 8046     		mov	r8, r0
 1692              	.LVL249:
 1693              		.loc 1 643 0
 1694 009c FFF7FEFF 		bl	timeout_get_brake_current
 1695              	.LVL250:
 1696 00a0 B0EE40CA 		vmov.f32	s24, s0
 1697              	.LVL251:
 1698              		.loc 1 644 0
 1699 00a4 FFF7FEFF 		bl	timeout_reset
 1700              	.LVL252:
 1701              		.loc 1 645 0
 1702 00a8 9FED8B0A 		vldr.32	s0, .L174+24
 1703              	.LBB54:
 1704              	.LBB55:
 1705              		.loc 1 658 0
 1706 00ac DFF844B2 		ldr	fp, .L174+52
 1707              	.LBE55:
 1708              	.LBE54:
 1709              		.loc 1 645 0
 1710 00b0 4EF66020 		movw	r0, #60000
ARM GAS  /tmp/ccH3nHCY.s 			page 31


 1711 00b4 FFF7FEFF 		bl	timeout_configure
 1712              	.LVL253:
 1713              		.loc 1 647 0
 1714 00b8 FFF7FEFF 		bl	mc_interface_lock
 1715              	.LVL254:
 1716              		.loc 1 649 0
 1717 00bc FFF7FEFF 		bl	mc_interface_lock_override_once
 1718              	.LVL255:
 1719              		.loc 1 650 0
 1720 00c0 B0EE690A 		vmov.f32	s0, s19
 1721 00c4 FFF7FEFF 		bl	mc_interface_set_current
 1722              	.LVL256:
 1723              	.LBB63:
 1724              	.LBB56:
 1725              		.loc 1 678 0
 1726 00c8 4FF0010A 		mov	r10, #1
 1727              	.LVL257:
 1728              	.L149:
 1729              		.loc 1 655 0
 1730 00cc B9F1010F 		cmp	r9, #1
 1731 00d0 00F0EE80 		beq	.L168
 1732              		.loc 1 664 0
 1733 00d4 B9F1020F 		cmp	r9, #2
 1734 00d8 00F0DE80 		beq	.L169
 1735              		.loc 1 674 0
 1736 00dc B9F1030F 		cmp	r9, #3
 1737 00e0 00F0BE80 		beq	.L170
 1738              	.L137:
 1739              	.LBE56:
 1740              		.loc 1 654 0
 1741 00e4 0025     		movs	r5, #0
 1742 00e6 2C46     		mov	r4, r5
 1743              	.LBB57:
 1744              		.loc 1 694 0
 1745 00e8 F6EE008A 		vmov.f32	s17, #5.0e-1
 1746              	.L139:
 1747              	.LVL258:
 1748              		.loc 1 690 0
 1749 00ec FFF7FEFF 		bl	mc_interface_get_duty_cycle_now
 1750              	.LVL259:
 1751 00f0 B4EEC80A 		vcmpe.f32	s0, s16
 1752 00f4 F1EE10FA 		vmrs	APSR_nzcv, FPSCR
 1753              		.loc 1 691 0
 1754 00f8 4FF00A00 		mov	r0, #10
 1755              		.loc 1 692 0
 1756 00fc 04F10104 		add	r4, r4, #1
 1757              	.LVL260:
 1758              		.loc 1 690 0
 1759 0100 40F19B80 		bpl	.L171
 1760              		.loc 1 691 0
 1761 0104 FFF7FEFF 		bl	chThdSleep
 1762              	.LVL261:
 1763              		.loc 1 694 0
 1764 0108 FFF7FEFF 		bl	mc_interface_get_duty_cycle_now
 1765              	.LVL262:
 1766 010c 68EE287A 		vmul.f32	s15, s16, s17
 1767 0110 B4EEE70A 		vcmpe.f32	s0, s15
ARM GAS  /tmp/ccH3nHCY.s 			page 32


 1768 0114 F1EE10FA 		vmrs	APSR_nzcv, FPSCR
 1769 0118 0ADB     		blt	.L163
 1770              	.LVL263:
 1771              		.loc 1 694 0 is_stmt 0 discriminator 1
 1772 011a 002D     		cmp	r5, #0
 1773 011c 73D0     		beq	.L172
 1774              		.loc 1 699 0 is_stmt 1
 1775 011e B4F5FA6F 		cmp	r4, #2000
 1776 0122 03DD     		ble	.L151
 1777              	.LVL264:
 1778              	.L143:
 1779              		.loc 1 704 0
 1780 0124 41F28833 		movw	r3, #5000
 1781 0128 9C42     		cmp	r4, r3
 1782 012a 73D0     		beq	.L146
 1783              	.L151:
 1784              	.LBE57:
 1785              		.loc 1 654 0
 1786 012c 0125     		movs	r5, #1
 1787 012e DDE7     		b	.L139
 1788              	.LVL265:
 1789              	.L163:
 1790              	.LBB58:
 1791              		.loc 1 699 0
 1792 0130 B4F5FA6F 		cmp	r4, #2000
 1793 0134 DADD     		ble	.L139
 1794              		.loc 1 699 0 is_stmt 0 discriminator 1
 1795 0136 002D     		cmp	r5, #0
 1796 0138 F4D1     		bne	.L143
 1797              	.LVL266:
 1798              	.LBE58:
 1799              		.loc 1 654 0 is_stmt 1 discriminator 2
 1800 013a 09F10109 		add	r9, r9, #1
 1801              	.LVL267:
 1802 013e B9F1040F 		cmp	r9, #4
 1803 0142 C3D1     		bne	.L149
 1804              	.LVL268:
 1805              	.L173:
 1806              	.LBE63:
 1807              		.loc 1 715 0
 1808 0144 002D     		cmp	r5, #0
 1809 0146 65D0     		beq	.L146
 1810              	.LVL269:
 1811              	.L148:
 1812              		.loc 1 723 0
 1813 0148 FFF7FEFF 		bl	mc_interface_lock_override_once
 1814              	.LVL270:
 1815              		.loc 1 724 0
 1816 014c B0EE480A 		vmov.f32	s0, s16
 1817 0150 FFF7FEFF 		bl	mc_interface_set_duty
 1818              	.LVL271:
 1819              		.loc 1 729 0
 1820 0154 9FED608A 		vldr.32	s16, .L174+24
 1821              	.LVL272:
 1822 0158 604E     		ldr	r6, .L174+28
 1823              	.LBB64:
 1824              		.loc 1 731 0
ARM GAS  /tmp/ccH3nHCY.s 			page 33


 1825 015a 9FED61BA 		vldr.32	s22, .L174+32
 1826 015e DFED61AA 		vldr.32	s21, .L174+36
 1827              	.LBE64:
 1828              		.loc 1 728 0
 1829 0162 F0EE489A 		vmov.f32	s19, s16
 1830              	.LVL273:
 1831              		.loc 1 727 0
 1832 0166 F0EE488A 		vmov.f32	s17, s16
 1833              		.loc 1 726 0
 1834 016a B0EE489A 		vmov.f32	s18, s16
 1835              	.LVL274:
 1836              		.loc 1 724 0
 1837 016e 4FF4FA65 		mov	r5, #2000
 1838              	.LBB65:
 1839              		.loc 1 734 0
 1840 0172 B7EE00AA 		vmov.f32	s20, #1.0e+0
 1841              	.LVL275:
 1842              	.L150:
 1843              		.loc 1 731 0 discriminator 3
 1844 0176 F38A     		ldrh	r3, [r6, #22]
 1845 0178 9CB2     		uxth	r4, r3
 1846 017a FFF7FEFF 		bl	mc_interface_get_duty_cycle_now
 1847              	.LVL276:
 1848 017e 07EE904A 		vmov	s15, r4	@ int
 1849 0182 F8EE677A 		vcvt.f32.u32	s15, s15
 1850 0186 67EE8B7A 		vmul.f32	s15, s15, s22
 1851 018a 67EEAA7A 		vmul.f32	s15, s15, s21
 1852 018e A7EE809A 		vfma.f32	s18, s15, s0
 1853              	.LVL277:
 1854              		.loc 1 732 0 discriminator 3
 1855 0192 FFF7FEFF 		bl	mc_interface_get_rpm
 1856              	.LVL278:
 1857 0196 78EE808A 		vadd.f32	s17, s17, s0
 1858              	.LVL279:
 1859              		.loc 1 733 0 discriminator 3
 1860 019a FFF7FEFF 		bl	mc_interface_get_tot_current
 1861              	.LVL280:
 1862              		.loc 1 735 0 discriminator 3
 1863 019e 0A20     		movs	r0, #10
 1864              		.loc 1 733 0 discriminator 3
 1865 01a0 79EE809A 		vadd.f32	s19, s19, s0
 1866              	.LVL281:
 1867              		.loc 1 735 0 discriminator 3
 1868 01a4 FFF7FEFF 		bl	chThdSleep
 1869              	.LVL282:
 1870              		.loc 1 730 0 discriminator 3
 1871 01a8 013D     		subs	r5, r5, #1
 1872              	.LVL283:
 1873              		.loc 1 734 0 discriminator 3
 1874 01aa 38EE0A8A 		vadd.f32	s16, s16, s20
 1875              	.LVL284:
 1876              		.loc 1 730 0 discriminator 3
 1877 01ae E2D1     		bne	.L150
 1878              	.LBE65:
 1879              		.loc 1 738 0
 1880 01b0 B0EE4C0A 		vmov.f32	s0, s24
 1881 01b4 4046     		mov	r0, r8
ARM GAS  /tmp/ccH3nHCY.s 			page 34


 1882 01b6 FFF7FEFF 		bl	timeout_configure
 1883              	.LVL285:
 1884              		.loc 1 739 0
 1885 01ba 4248     		ldr	r0, .L174+4
 1886 01bc FFF7FEFF 		bl	mc_interface_set_configuration
 1887              	.LVL286:
 1888              		.loc 1 740 0
 1889 01c0 FFF7FEFF 		bl	mc_interface_unlock
 1890              	.LVL287:
 1891              		.loc 1 741 0
 1892 01c4 9FED440A 		vldr.32	s0, .L174+24
 1893 01c8 FFF7FEFF 		bl	mc_interface_set_current
 1894              	.LVL288:
 1895              		.loc 1 745 0
 1896 01cc C9EE886A 		vdiv.f32	s13, s19, s16
 1897              		.loc 1 750 0
 1898 01d0 0120     		movs	r0, #1
 1899              		.loc 1 743 0
 1900 01d2 C9EE087A 		vdiv.f32	s15, s18, s16
 1901              	.LVL289:
 1902              		.loc 1 744 0
 1903 01d6 88EE887A 		vdiv.f32	s14, s17, s16
 1904              	.LVL290:
 1905              		.loc 1 746 0
 1906 01da 6BEEE6BA 		vnmul.f32	s23, s23, s13
 1907              	.LVL291:
 1908 01de F0EE006A 		vmov.f32	s13, #2.0e+0
 1909 01e2 EBEEA67A 		vfma.f32	s15, s23, s13
 1910              	.LVL292:
 1911              		.loc 1 751 0
 1912 01e6 BDEC0A8B 		vldm	sp!, {d8-d12}
 1913              		.cfi_remember_state
 1914              		.cfi_restore 88
 1915              		.cfi_restore 89
 1916              		.cfi_restore 86
 1917              		.cfi_restore 87
 1918              		.cfi_restore 84
 1919              		.cfi_restore 85
 1920              		.cfi_restore 82
 1921              		.cfi_restore 83
 1922              		.cfi_restore 80
 1923              		.cfi_restore 81
 1924              		.cfi_def_cfa_offset 40
 1925              	.LVL293:
 1926              		.loc 1 748 0
 1927 01ea DFED3F6A 		vldr.32	s13, .L174+40
 1928 01ee 9FED3F6A 		vldr.32	s12, .L174+44
 1929 01f2 27EE267A 		vmul.f32	s14, s14, s13
 1930              	.LVL294:
 1931 01f6 67EE867A 		vmul.f32	s15, s15, s12
 1932 01fa C7EE876A 		vdiv.f32	s13, s15, s14
 1933 01fe C7ED006A 		vstr.32	s13, [r7]
 1934              		.loc 1 751 0
 1935 0202 BDE8F88F 		pop	{r3, r4, r5, r6, r7, r8, r9, r10, fp, pc}
 1936              	.LVL295:
 1937              	.L172:
 1938              		.cfi_restore_state
ARM GAS  /tmp/ccH3nHCY.s 			page 35


 1939              	.LBB66:
 1940              	.LBB59:
 1941              		.loc 1 695 0
 1942 0206 0120     		movs	r0, #1
 1943 0208 FFF7FEFF 		bl	mcpwm_switch_comm_mode
 1944              	.LVL296:
 1945              		.loc 1 704 0
 1946 020c 41F28833 		movw	r3, #5000
 1947 0210 9C42     		cmp	r4, r3
 1948 0212 8BD1     		bne	.L151
 1949              	.LVL297:
 1950              	.L146:
 1951              	.LBE59:
 1952              	.LBE66:
 1953              		.loc 1 716 0
 1954 0214 9FED300A 		vldr.32	s0, .L174+24
 1955 0218 FFF7FEFF 		bl	mc_interface_set_current
 1956              	.LVL298:
 1957              		.loc 1 717 0
 1958 021c B0EE4C0A 		vmov.f32	s0, s24
 1959 0220 4046     		mov	r0, r8
 1960 0222 FFF7FEFF 		bl	timeout_configure
 1961              	.LVL299:
 1962              		.loc 1 718 0
 1963 0226 2748     		ldr	r0, .L174+4
 1964 0228 FFF7FEFF 		bl	mc_interface_set_configuration
 1965              	.LVL300:
 1966              		.loc 1 719 0
 1967 022c FFF7FEFF 		bl	mc_interface_unlock
 1968              	.LVL301:
 1969              		.loc 1 751 0
 1970 0230 BDEC0A8B 		vldm	sp!, {d8-d12}
 1971              		.cfi_remember_state
 1972              		.cfi_restore 88
 1973              		.cfi_restore 89
 1974              		.cfi_restore 86
 1975              		.cfi_restore 87
 1976              		.cfi_restore 84
 1977              		.cfi_restore 85
 1978              		.cfi_restore 82
 1979              		.cfi_restore 83
 1980              		.cfi_restore 80
 1981              		.cfi_restore 81
 1982              		.cfi_def_cfa_offset 40
 1983              	.LVL302:
 1984              		.loc 1 720 0
 1985 0234 0020     		movs	r0, #0
 1986              		.loc 1 751 0
 1987 0236 BDE8F88F 		pop	{r3, r4, r5, r6, r7, r8, r9, r10, fp, pc}
 1988              	.LVL303:
 1989              	.L171:
 1990              		.cfi_restore_state
 1991              	.LBB67:
 1992              	.LBB60:
 1993              		.loc 1 710 0
 1994 023a 002D     		cmp	r5, #0
 1995 023c 84D1     		bne	.L148
ARM GAS  /tmp/ccH3nHCY.s 			page 36


 1996              	.LBE60:
 1997              		.loc 1 654 0
 1998 023e 09F10109 		add	r9, r9, #1
 1999              	.LVL304:
 2000 0242 B9F1040F 		cmp	r9, #4
 2001              	.LBB61:
 2002              		.loc 1 688 0
 2003 0246 4FF00105 		mov	r5, #1
 2004              	.LVL305:
 2005              	.LBE61:
 2006              		.loc 1 654 0
 2007 024a 7FF43FAF 		bne	.L149
 2008 024e 79E7     		b	.L173
 2009              	.LVL306:
 2010              	.L167:
 2011              	.LBE67:
 2012              		.loc 1 633 0
 2013 0250 1C48     		ldr	r0, .L174+4
 2014 0252 FFF7FEFF 		bl	mc_interface_set_configuration
 2015              	.LVL307:
 2016              		.loc 1 751 0
 2017 0256 BDEC0A8B 		vldm	sp!, {d8-d12}
 2018              		.cfi_remember_state
 2019              		.cfi_restore 88
 2020              		.cfi_restore 89
 2021              		.cfi_restore 86
 2022              		.cfi_restore 87
 2023              		.cfi_restore 84
 2024              		.cfi_restore 85
 2025              		.cfi_restore 82
 2026              		.cfi_restore 83
 2027              		.cfi_restore 80
 2028              		.cfi_restore 81
 2029              		.cfi_def_cfa_offset 40
 2030              	.LVL308:
 2031              		.loc 1 634 0
 2032 025a 0020     		movs	r0, #0
 2033              		.loc 1 751 0
 2034 025c BDE8F88F 		pop	{r3, r4, r5, r6, r7, r8, r9, r10, fp, pc}
 2035              	.LVL309:
 2036              	.L170:
 2037              		.cfi_restore_state
 2038              	.LBB68:
 2039              	.LBB62:
 2040              		.loc 1 675 0
 2041 0260 FFF7FEFF 		bl	mc_interface_lock_override_once
 2042              	.LVL310:
 2043              		.loc 1 676 0
 2044 0264 FFF7FEFF 		bl	mc_interface_release_motor
 2045              	.LVL311:
 2046              		.loc 1 677 0
 2047 0268 F1EE007A 		vmov.f32	s15, #4.0e+0
 2048 026c 69EE277A 		vmul.f32	s15, s18, s15
 2049              		.loc 1 678 0
 2050 0270 86F801A0 		strb	r10, [r6, #1]
 2051              		.loc 1 677 0
 2052 0274 C6ED217A 		vstr.32	s15, [r6, #132]
ARM GAS  /tmp/ccH3nHCY.s 			page 37


 2053              	.L165:
 2054              		.loc 1 679 0
 2055 0278 FFF7FEFF 		bl	mc_interface_lock_override_once
 2056              	.LVL312:
 2057              		.loc 1 680 0
 2058 027c 1048     		ldr	r0, .L174
 2059 027e FFF7FEFF 		bl	mc_interface_set_configuration
 2060              	.LVL313:
 2061              		.loc 1 681 0
 2062 0282 42F21070 		movw	r0, #10000
 2063 0286 FFF7FEFF 		bl	chThdSleep
 2064              	.LVL314:
 2065              		.loc 1 682 0
 2066 028a FFF7FEFF 		bl	mc_interface_lock_override_once
 2067              	.LVL315:
 2068              		.loc 1 683 0
 2069 028e B0EE690A 		vmov.f32	s0, s19
 2070 0292 FFF7FEFF 		bl	mc_interface_set_current
 2071              	.LVL316:
 2072 0296 25E7     		b	.L137
 2073              	.L169:
 2074              		.loc 1 665 0
 2075 0298 FFF7FEFF 		bl	mc_interface_lock_override_once
 2076              	.LVL317:
 2077              		.loc 1 666 0
 2078 029c FFF7FEFF 		bl	mc_interface_release_motor
 2079              	.LVL318:
 2080              		.loc 1 667 0
 2081 02a0 79EE097A 		vadd.f32	s15, s18, s18
 2082              		.loc 1 668 0
 2083 02a4 124B     		ldr	r3, .L174+48
 2084              		.loc 1 667 0
 2085 02a6 C6ED217A 		vstr.32	s15, [r6, #132]
 2086              		.loc 1 668 0
 2087 02aa C6F89030 		str	r3, [r6, #144]	@ float
 2088 02ae E3E7     		b	.L165
 2089              	.L168:
 2090              		.loc 1 656 0
 2091 02b0 FFF7FEFF 		bl	mc_interface_lock_override_once
 2092              	.LVL319:
 2093              		.loc 1 657 0
 2094 02b4 FFF7FEFF 		bl	mc_interface_release_motor
 2095              	.LVL320:
 2096              		.loc 1 658 0
 2097 02b8 C6F890B0 		str	fp, [r6, #144]	@ float
 2098 02bc DCE7     		b	.L165
 2099              	.L175:
 2100 02be 00BF     		.align	2
 2101              	.L174:
 2102 02c0 00000000 		.word	.LANCHOR1
 2103 02c4 00000000 		.word	.LANCHOR3
 2104 02c8 00401C46 		.word	1176256512
 2105 02cc 00009643 		.word	1133903872
 2106 02d0 00004842 		.word	1112014848
 2107 02d4 00808944 		.word	1149861888
 2108 02d8 00000000 		.word	0
 2109 02dc 00000000 		.word	ADC_Value
ARM GAS  /tmp/ccH3nHCY.s 			page 38


 2110 02e0 C07B523A 		.word	978484160
 2111 02e4 BAE8B241 		.word	1102244026
 2112 02e8 EF1F2E41 		.word	1093541871
 2113 02ec 00007042 		.word	1114636288
 2114 02f0 0000A041 		.word	1101004800
 2115 02f4 00007A43 		.word	1132068864
 2116              	.LBE62:
 2117              	.LBE68:
 2118              		.cfi_endproc
 2119              	.LFE269:
 2120              		.size	conf_general_measure_flux_linkage, .-conf_general_measure_flux_linkage
 2121              		.section	.text.conf_general_calculate_deadtime,"ax",%progbits
 2122              		.align	1
 2123              		.p2align 4,,15
 2124              		.global	conf_general_calculate_deadtime
 2125              		.syntax unified
 2126              		.thumb
 2127              		.thumb_func
 2128              		.fpu fpv4-sp-d16
 2129              		.type	conf_general_calculate_deadtime, %function
 2130              	conf_general_calculate_deadtime:
 2131              	.LFB270:
 2132              		.loc 1 754 0
 2133              		.cfi_startproc
 2134              		@ args = 0, pretend = 0, frame = 8
 2135              		@ frame_needed = 0, uses_anonymous_args = 0
 2136              		@ link register save eliminated.
 2137              	.LVL321:
 2138              		.loc 1 756 0
 2139 0000 DFED387A 		vldr.32	s15, .L201
 2140 0004 DFED386A 		vldr.32	s13, .L201+4
 2141              		.loc 1 758 0
 2142 0008 9FED387A 		vldr.32	s14, .L201+8
 2143              		.loc 1 756 0
 2144 000c C0EEA70A 		vdiv.f32	s1, s1, s15
 2145              	.LVL322:
 2146 0010 B7EE006A 		vmov.f32	s12, #1.0e+0
 2147 0014 C6EE207A 		vdiv.f32	s15, s12, s1
 2148 0018 67EEA67A 		vmul.f32	s15, s15, s13
 2149              	.LVL323:
 2150              		.loc 1 758 0
 2151 001c 27EE877A 		vmul.f32	s14, s15, s14
 2152 0020 B4EEC07A 		vcmpe.f32	s14, s0
 2153 0024 F1EE10FA 		vmrs	APSR_nzcv, FPSCR
 2154 0028 3CDA     		bge	.L198
 2155              		.loc 1 761 0
 2156 002a 9FED317A 		vldr.32	s14, .L201+12
 2157 002e 27EE877A 		vmul.f32	s14, s15, s14
 2158 0032 B4EEC07A 		vcmpe.f32	s14, s0
 2159 0036 F1EE10FA 		vmrs	APSR_nzcv, FPSCR
 2160 003a 23DA     		bge	.L199
 2161              		.loc 1 765 0
 2162 003c 9FED2D7A 		vldr.32	s14, .L201+16
 2163 0040 27EE877A 		vmul.f32	s14, s15, s14
 2164 0044 B4EEC07A 		vcmpe.f32	s14, s0
 2165 0048 F1EE10FA 		vmrs	APSR_nzcv, FPSCR
 2166 004c 35DA     		bge	.L200
ARM GAS  /tmp/ccH3nHCY.s 			page 39


 2167              		.loc 1 769 0
 2168 004e 9FED2A7A 		vldr.32	s14, .L201+20
 2169 0052 27EE877A 		vmul.f32	s14, s15, s14
 2170 0056 B4EEC07A 		vcmpe.f32	s14, s0
 2171 005a F1EE10FA 		vmrs	APSR_nzcv, FPSCR
 2172 005e 3EDB     		blt	.L193
 2173              		.loc 1 770 0
 2174 0060 B3EE007A 		vmov.f32	s14, #1.6e+1
 2175 0064 67EE877A 		vmul.f32	s15, s15, s14
 2176              	.LVL324:
 2177 0068 DFED246A 		vldr.32	s13, .L201+24
 2178              	.LVL325:
 2179 006c 80EE277A 		vdiv.f32	s14, s0, s15
 2180 0070 77EE667A 		vsub.f32	s15, s14, s13
 2181 0074 FCEEE77A 		vcvt.u32.f32	s15, s15
 2182 0078 17EE900A 		vmov	r0, s15	@ int
 2183              	.LVL326:
 2184              		.loc 1 771 0
 2185 007c 60F01F00 		orn	r0, r0, #31
 2186              	.LVL327:
 2187 0080 C0B2     		uxtb	r0, r0
 2188              	.LVL328:
 2189 0082 7047     		bx	lr
 2190              	.LVL329:
 2191              	.L199:
 2192              		.loc 1 762 0
 2193 0084 77EEA77A 		vadd.f32	s15, s15, s15
 2194              	.LVL330:
 2195 0088 DFED1D6A 		vldr.32	s13, .L201+28
 2196              	.LVL331:
 2197 008c 80EE277A 		vdiv.f32	s14, s0, s15
 2198 0090 77EE667A 		vsub.f32	s15, s14, s13
 2199 0094 FCEEE77A 		vcvt.u32.f32	s15, s15
 2200 0098 17EE900A 		vmov	r0, s15	@ int
 2201              	.LVL332:
 2202              		.loc 1 763 0
 2203 009c 60F07F00 		orn	r0, r0, #127
 2204              	.LVL333:
 2205 00a0 C0B2     		uxtb	r0, r0
 2206              	.LVL334:
 2207 00a2 7047     		bx	lr
 2208              	.LVL335:
 2209              	.L198:
 2210              		.loc 1 759 0
 2211 00a4 80EE277A 		vdiv.f32	s14, s0, s15
 2212              		.loc 1 754 0
 2213 00a8 82B0     		sub	sp, sp, #8
 2214              		.cfi_def_cfa_offset 8
 2215              		.loc 1 759 0
 2216 00aa FCEEC77A 		vcvt.u32.f32	s15, s14
 2217              	.LVL336:
 2218 00ae CDED017A 		vstr.32	s15, [sp, #4]	@ int
 2219 00b2 9DF80400 		ldrb	r0, [sp, #4]	@ zero_extendqisi2
 2220              	.LVL337:
 2221              		.loc 1 783 0
 2222 00b6 02B0     		add	sp, sp, #8
 2223              		.cfi_def_cfa_offset 0
ARM GAS  /tmp/ccH3nHCY.s 			page 40


 2224              		@ sp needed
 2225 00b8 7047     		bx	lr
 2226              	.LVL338:
 2227              	.L200:
 2228              		.loc 1 766 0
 2229 00ba B2EE007A 		vmov.f32	s14, #8.0e+0
 2230 00be 67EE877A 		vmul.f32	s15, s15, s14
 2231              	.LVL339:
 2232 00c2 DFED0E6A 		vldr.32	s13, .L201+24
 2233              	.LVL340:
 2234 00c6 80EE277A 		vdiv.f32	s14, s0, s15
 2235 00ca 77EE667A 		vsub.f32	s15, s14, s13
 2236 00ce FCEEE77A 		vcvt.u32.f32	s15, s15
 2237 00d2 17EE900A 		vmov	r0, s15	@ int
 2238              	.LVL341:
 2239              		.loc 1 767 0
 2240 00d6 60F03F00 		orn	r0, r0, #63
 2241              	.LVL342:
 2242 00da C0B2     		uxtb	r0, r0
 2243              	.LVL343:
 2244 00dc 7047     		bx	lr
 2245              	.LVL344:
 2246              	.L193:
 2247              		.loc 1 775 0
 2248 00de FF20     		movs	r0, #255
 2249              	.LVL345:
 2250              		.loc 1 783 0
 2251 00e0 7047     		bx	lr
 2252              	.L202:
 2253 00e2 00BF     		.align	2
 2254              	.L201:
 2255 00e4 00247449 		.word	1232348160
 2256 00e8 00007A44 		.word	1148846080
 2257 00ec 0000FE42 		.word	1123942400
 2258 00f0 00007E43 		.word	1132331008
 2259 00f4 0000FC43 		.word	1140588544
 2260 00f8 00007C44 		.word	1148977152
 2261 00fc 00000042 		.word	1107296256
 2262 0100 00008042 		.word	1115684864
 2263              		.cfi_endproc
 2264              	.LFE270:
 2265              		.size	conf_general_calculate_deadtime, .-conf_general_calculate_deadtime
 2266              		.section	.text.conf_general_measure_flux_linkage_openloop,"ax",%progbits
 2267              		.align	1
 2268              		.p2align 4,,15
 2269              		.global	conf_general_measure_flux_linkage_openloop
 2270              		.syntax unified
 2271              		.thumb
 2272              		.thumb_func
 2273              		.fpu fpv4-sp-d16
 2274              		.type	conf_general_measure_flux_linkage_openloop, %function
 2275              	conf_general_measure_flux_linkage_openloop:
 2276              	.LFB271:
 2277              		.loc 1 807 0
 2278              		.cfi_startproc
 2279              		@ args = 0, pretend = 0, frame = 0
 2280              		@ frame_needed = 0, uses_anonymous_args = 0
ARM GAS  /tmp/ccH3nHCY.s 			page 41


 2281              	.LVL346:
 2282 0000 2DE9F041 		push	{r4, r5, r6, r7, r8, lr}
 2283              		.cfi_def_cfa_offset 24
 2284              		.cfi_offset 4, -24
 2285              		.cfi_offset 5, -20
 2286              		.cfi_offset 6, -16
 2287              		.cfi_offset 7, -12
 2288              		.cfi_offset 8, -8
 2289              		.cfi_offset 14, -4
 2290 0004 2DED0E8B 		vpush.64	{d8, d9, d10, d11, d12, d13, d14}
 2291              		.cfi_def_cfa_offset 80
 2292              		.cfi_offset 80, -80
 2293              		.cfi_offset 81, -76
 2294              		.cfi_offset 82, -72
 2295              		.cfi_offset 83, -68
 2296              		.cfi_offset 84, -64
 2297              		.cfi_offset 85, -60
 2298              		.cfi_offset 86, -56
 2299              		.cfi_offset 87, -52
 2300              		.cfi_offset 88, -48
 2301              		.cfi_offset 89, -44
 2302              		.cfi_offset 90, -40
 2303              		.cfi_offset 91, -36
 2304              		.cfi_offset 92, -32
 2305              		.cfi_offset 93, -28
 2306              		.loc 1 807 0
 2307 0008 0746     		mov	r7, r0
 2308 000a B0EE40AA 		vmov.f32	s20, s0
 2309 000e F0EE609A 		vmov.f32	s19, s1
 2310 0012 F0EE41AA 		vmov.f32	s21, s2
 2311 0016 F0EE61BA 		vmov.f32	s23, s3
 2312              		.loc 1 810 0
 2313 001a FFF7FEFF 		bl	mc_interface_get_configuration
 2314              	.LVL347:
 2315 001e 9F4D     		ldr	r5, .L245
 2316 0020 0146     		mov	r1, r0
 2317 0022 4FF4E472 		mov	r2, #456
 2318 0026 2846     		mov	r0, r5
 2319 0028 FFF7FEFF 		bl	memcpy
 2320              	.LVL348:
 2321              		.loc 1 811 0
 2322 002c 2946     		mov	r1, r5
 2323 002e 4FF4E472 		mov	r2, #456
 2324 0032 9B48     		ldr	r0, .L245+4
 2325 0034 FFF7FEFF 		bl	memcpy
 2326              	.LVL349:
 2327              		.loc 1 813 0
 2328 0038 0220     		movs	r0, #2
 2329              		.loc 1 815 0
 2330 003a 9A4A     		ldr	r2, .L245+8
 2331              		.loc 1 813 0
 2332 003c A870     		strb	r0, [r5, #2]
 2333              		.loc 1 814 0
 2334 003e 0021     		movs	r1, #0
 2335              		.loc 1 816 0
 2336 0040 4FF07E53 		mov	r3, #1065353216
 2337              		.loc 1 817 0
ARM GAS  /tmp/ccH3nHCY.s 			page 42


 2338 0044 2846     		mov	r0, r5
 2339              		.loc 1 814 0
 2340 0046 85F81411 		strb	r1, [r5, #276]
 2341              		.loc 1 815 0
 2342 004a C5F8AC20 		str	r2, [r5, #172]	@ float
 2343              		.loc 1 816 0
 2344 004e C5F8B030 		str	r3, [r5, #176]	@ float
 2345              		.loc 1 817 0
 2346 0052 4FF4FA74 		mov	r4, #500
 2347 0056 FFF7FEFF 		bl	mc_interface_set_configuration
 2348              	.LVL350:
 2349 005a 04E0     		b	.L205
 2350              	.LVL351:
 2351              	.L237:
 2352              	.LBB69:
 2353              		.loc 1 824 0 discriminator 2
 2354 005c 6420     		movs	r0, #100
 2355 005e FFF7FEFF 		bl	chThdSleep
 2356              	.LVL352:
 2357              		.loc 1 820 0 discriminator 2
 2358 0062 013C     		subs	r4, r4, #1
 2359              	.LVL353:
 2360 0064 03D0     		beq	.L204
 2361              	.LVL354:
 2362              	.L205:
 2363              		.loc 1 821 0
 2364 0066 FFF7FEFF 		bl	mc_interface_get_fault
 2365              	.LVL355:
 2366 006a 0028     		cmp	r0, #0
 2367 006c F6D1     		bne	.L237
 2368              	.LVL356:
 2369              	.L204:
 2370              	.LBE69:
 2371              		.loc 1 827 0
 2372 006e FFF7FEFF 		bl	mc_interface_get_fault
 2373              	.LVL357:
 2374 0072 0028     		cmp	r0, #0
 2375 0074 40F08680 		bne	.L238
 2376              		.loc 1 834 0
 2377 0078 42F21070 		movw	r0, #10000
 2378 007c FFF7FEFF 		bl	chThdSleep
 2379              	.LVL358:
 2380              		.loc 1 837 0
 2381 0080 FFF7FEFF 		bl	timeout_get_timeout_msec
 2382              	.LVL359:
 2383 0084 8046     		mov	r8, r0
 2384              	.LVL360:
 2385              		.loc 1 838 0
 2386 0086 FFF7FEFF 		bl	timeout_get_brake_current
 2387              	.LVL361:
 2388 008a B0EE40CA 		vmov.f32	s24, s0
 2389              	.LVL362:
 2390              		.loc 1 839 0
 2391 008e FFF7FEFF 		bl	timeout_reset
 2392              	.LVL363:
 2393              		.loc 1 840 0
 2394 0092 9FED850A 		vldr.32	s0, .L245+12
ARM GAS  /tmp/ccH3nHCY.s 			page 43


 2395 0096 4EF66020 		movw	r0, #60000
 2396              		.loc 1 851 0
 2397 009a B0EE408A 		vmov.f32	s16, s0
 2398              		.loc 1 840 0
 2399 009e FFF7FEFF 		bl	timeout_configure
 2400              	.LVL364:
 2401              		.loc 1 842 0
 2402 00a2 FFF7FEFF 		bl	mc_interface_lock
 2403              	.LVL365:
 2404              		.loc 1 848 0
 2405 00a6 F0EE480A 		vmov.f32	s1, s16
 2406 00aa B0EE4A0A 		vmov.f32	s0, s20
 2407 00ae FFF7FEFF 		bl	mcpwm_foc_set_openloop
 2408              	.LVL366:
 2409              		.loc 1 850 0
 2410 00b2 F0EE488A 		vmov.f32	s17, s16
 2411              		.loc 1 848 0
 2412 00b6 4FF47A74 		mov	r4, #1000
 2413              	.LBB70:
 2414              		.loc 1 854 0
 2415 00ba B7EE009A 		vmov.f32	s18, #1.0e+0
 2416              	.LVL367:
 2417              	.L208:
 2418              		.loc 1 853 0 discriminator 3
 2419 00be FFF7FEFF 		bl	mc_interface_get_duty_cycle_now
 2420              	.LVL368:
 2421              		.loc 1 855 0 discriminator 3
 2422 00c2 0A20     		movs	r0, #10
 2423              		.loc 1 853 0 discriminator 3
 2424 00c4 B0EEC00A 		vabs.f32	s0, s0
 2425 00c8 78EE808A 		vadd.f32	s17, s17, s0
 2426              	.LVL369:
 2427              		.loc 1 855 0 discriminator 3
 2428 00cc FFF7FEFF 		bl	chThdSleep
 2429              	.LVL370:
 2430              		.loc 1 852 0 discriminator 3
 2431 00d0 013C     		subs	r4, r4, #1
 2432              	.LVL371:
 2433              		.loc 1 854 0 discriminator 3
 2434 00d2 38EE098A 		vadd.f32	s16, s16, s18
 2435              	.LVL372:
 2436              		.loc 1 852 0 discriminator 3
 2437 00d6 F2D1     		bne	.L208
 2438              	.LBE70:
 2439              		.loc 1 859 0
 2440 00d8 9FED739A 		vldr.32	s18, .L245+12
 2441              	.LBB71:
 2442              		.loc 1 863 0
 2443 00dc DFED73CA 		vldr.32	s25, .L245+16
 2444              		.loc 1 880 0
 2445 00e0 DFED73EA 		vldr.32	s29, .L245+20
 2446              		.loc 1 886 0
 2447 00e4 9FED73EA 		vldr.32	s28, .L245+24
 2448              		.loc 1 892 0
 2449 00e8 9FED73DA 		vldr.32	s26, .L245+28
 2450              	.LBE71:
 2451              		.loc 1 858 0
ARM GAS  /tmp/ccH3nHCY.s 			page 44


 2452 00ec C8EE88DA 		vdiv.f32	s27, s17, s16
 2453              	.LVL373:
 2454              	.LBB72:
 2455              		.loc 1 875 0
 2456 00f0 43F69826 		movw	r6, #15000
 2457              	.LBE72:
 2458              		.loc 1 845 0
 2459 00f4 B0EE49BA 		vmov.f32	s22, s18
 2460              		.loc 1 862 0
 2461 00f8 30E0     		b	.L209
 2462              	.LVL374:
 2463              	.L242:
 2464              	.LBB73:
 2465              		.loc 1 864 0 discriminator 1
 2466 00fa F1EE4B0A 		vneg.f32	s1, s22
 2467              	.L210:
 2468              		.loc 1 864 0 is_stmt 0 discriminator 4
 2469 00fe B0EE4A0A 		vmov.f32	s0, s20
 2470 0102 FFF7FEFF 		bl	mcpwm_foc_set_openloop
 2471              	.LVL375:
 2472              		.loc 1 866 0 is_stmt 1 discriminator 4
 2473 0106 0A20     		movs	r0, #10
 2474 0108 FFF7FEFF 		bl	chThdSleep
 2475              	.LVL376:
 2476              		.loc 1 869 0 discriminator 4
 2477 010c FFF7FEFF 		bl	mc_interface_get_duty_cycle_now
 2478              	.LVL377:
 2479 0110 B0EEC00A 		vabs.f32	s0, s0
 2480              		.loc 1 872 0 discriminator 4
 2481 0114 B4EE409A 		vcmp.f32	s18, s0
 2482 0118 F1EE10FA 		vmrs	APSR_nzcv, FPSCR
 2483              		.loc 1 867 0 discriminator 4
 2484 011c 04F10104 		add	r4, r4, #1
 2485              	.LVL378:
 2486              		.loc 1 872 0 discriminator 4
 2487 0120 48BF     		it	mi
 2488 0122 B0EE409A 		vmovmi.f32	s18, s0
 2489              	.LVL379:
 2490              		.loc 1 875 0 discriminator 4
 2491 0126 B442     		cmp	r4, r6
 2492 0128 00F0A980 		beq	.L239
 2493              		.loc 1 880 0
 2494 012c B4F57A6F 		cmp	r4, #4000
 2495 0130 0FDD     		ble	.L215
 2496              		.loc 1 880 0 is_stmt 0 discriminator 1
 2497 0132 69EE2E7A 		vmul.f32	s15, s18, s29
 2498 0136 F4EEC07A 		vcmpe.f32	s15, s0
 2499 013a F1EE10FA 		vmrs	APSR_nzcv, FPSCR
 2500 013e 00F39580 		bgt	.L240
 2501              		.loc 1 886 0 is_stmt 1 discriminator 1
 2502 0142 6DEE8E7A 		vmul.f32	s15, s27, s28
 2503 0146 F4EEE97A 		vcmpe.f32	s15, s19
 2504 014a F1EE10FA 		vmrs	APSR_nzcv, FPSCR
 2505 014e 00F38580 		bgt	.L241
 2506              	.L215:
 2507              		.loc 1 892 0
 2508 0152 B4EECDBA 		vcmpe.f32	s22, s26
ARM GAS  /tmp/ccH3nHCY.s 			page 45


 2509 0156 F1EE10FA 		vmrs	APSR_nzcv, FPSCR
 2510 015a 1CDA     		bge	.L219
 2511              	.LVL380:
 2512              	.L209:
 2513              	.LBE73:
 2514              		.loc 1 862 0
 2515 015c FFF7FEFF 		bl	mc_interface_get_duty_cycle_now
 2516              	.LVL381:
 2517 0160 B0EEC00A 		vabs.f32	s0, s0
 2518 0164 B4EEE90A 		vcmpe.f32	s0, s19
 2519 0168 F1EE10FA 		vmrs	APSR_nzcv, FPSCR
 2520 016c 13D5     		bpl	.L219
 2521              	.LBB74:
 2522              		.loc 1 863 0
 2523 016e CAEEAC7A 		vdiv.f32	s15, s21, s25
 2524              		.loc 1 864 0
 2525 0172 95F89931 		ldrb	r3, [r5, #409]	@ zero_extendqisi2
 2526              		.loc 1 863 0
 2527 0176 3BEE27BA 		vadd.f32	s22, s22, s15
 2528              		.loc 1 864 0
 2529 017a 002B     		cmp	r3, #0
 2530 017c BDD1     		bne	.L242
 2531              		.loc 1 863 0
 2532 017e F0EE4B0A 		vmov.f32	s1, s22
 2533 0182 BCE7     		b	.L210
 2534              	.LVL382:
 2535              	.L238:
 2536              	.LBE74:
 2537              		.loc 1 828 0
 2538 0184 4648     		ldr	r0, .L245+4
 2539 0186 FFF7FEFF 		bl	mc_interface_set_configuration
 2540              	.LVL383:
 2541              		.loc 1 931 0
 2542 018a BDEC0E8B 		vldm	sp!, {d8-d14}
 2543              		.cfi_remember_state
 2544              		.cfi_restore 92
 2545              		.cfi_restore 93
 2546              		.cfi_restore 90
 2547              		.cfi_restore 91
 2548              		.cfi_restore 88
 2549              		.cfi_restore 89
 2550              		.cfi_restore 86
 2551              		.cfi_restore 87
 2552              		.cfi_restore 84
 2553              		.cfi_restore 85
 2554              		.cfi_restore 82
 2555              		.cfi_restore 83
 2556              		.cfi_restore 80
 2557              		.cfi_restore 81
 2558              		.cfi_def_cfa_offset 24
 2559              	.LVL384:
 2560              		.loc 1 829 0
 2561 018e 0024     		movs	r4, #0
 2562              		.loc 1 931 0
 2563 0190 2046     		mov	r0, r4
 2564 0192 BDE8F081 		pop	{r4, r5, r6, r7, r8, pc}
 2565              	.LVL385:
ARM GAS  /tmp/ccH3nHCY.s 			page 46


 2566              	.L219:
 2567              		.cfi_restore_state
 2568              		.loc 1 897 0
 2569 0196 42F21070 		movw	r0, #10000
 2570              	.LBB75:
 2571              		.loc 1 904 0
 2572 019a 9FED438A 		vldr.32	s16, .L245+12
 2573              	.LVL386:
 2574              	.LBE75:
 2575              		.loc 1 897 0
 2576 019e FFF7FEFF 		bl	chThdSleep
 2577              	.LVL387:
 2578              	.LBB77:
 2579              		.loc 1 903 0
 2580 01a2 B0EE48AA 		vmov.f32	s20, s16
 2581              	.LVL388:
 2582              		.loc 1 902 0
 2583 01a6 F0EE489A 		vmov.f32	s19, s16
 2584              	.LVL389:
 2585              		.loc 1 901 0
 2586 01aa B0EE489A 		vmov.f32	s18, s16
 2587              	.LVL390:
 2588              		.loc 1 900 0
 2589 01ae F0EE488A 		vmov.f32	s17, s16
 2590              	.LBE77:
 2591              		.loc 1 897 0
 2592 01b2 47F23054 		movw	r4, #30000
 2593              	.LBB78:
 2594              	.LBB76:
 2595              		.loc 1 911 0
 2596 01b6 F7EE00AA 		vmov.f32	s21, #1.0e+0
 2597              	.LVL391:
 2598              	.L221:
 2599              		.loc 1 907 0 discriminator 3
 2600 01ba FFF7FEFF 		bl	mcpwm_foc_get_vq
 2601              	.LVL392:
 2602 01be 78EE808A 		vadd.f32	s17, s17, s0
 2603              	.LVL393:
 2604              		.loc 1 908 0 discriminator 3
 2605 01c2 FFF7FEFF 		bl	mcpwm_foc_get_vd
 2606              	.LVL394:
 2607 01c6 39EE009A 		vadd.f32	s18, s18, s0
 2608              	.LVL395:
 2609              		.loc 1 909 0 discriminator 3
 2610 01ca FFF7FEFF 		bl	mcpwm_foc_get_iq
 2611              	.LVL396:
 2612 01ce 79EE809A 		vadd.f32	s19, s19, s0
 2613              	.LVL397:
 2614              		.loc 1 910 0 discriminator 3
 2615 01d2 FFF7FEFF 		bl	mcpwm_foc_get_id
 2616              	.LVL398:
 2617              		.loc 1 912 0 discriminator 3
 2618 01d6 0120     		movs	r0, #1
 2619              		.loc 1 910 0 discriminator 3
 2620 01d8 3AEE00AA 		vadd.f32	s20, s20, s0
 2621              	.LVL399:
 2622              		.loc 1 912 0 discriminator 3
ARM GAS  /tmp/ccH3nHCY.s 			page 47


 2623 01dc FFF7FEFF 		bl	chThdSleep
 2624              	.LVL400:
 2625              		.loc 1 906 0 discriminator 3
 2626 01e0 013C     		subs	r4, r4, #1
 2627              	.LVL401:
 2628              		.loc 1 911 0 discriminator 3
 2629 01e2 38EE2A8A 		vadd.f32	s16, s16, s21
 2630              	.LVL402:
 2631              		.loc 1 906 0 discriminator 3
 2632 01e6 E8D1     		bne	.L221
 2633              	.LBE76:
 2634              		.loc 1 916 0
 2635 01e8 89EE080A 		vdiv.f32	s0, s18, s16
 2636              		.loc 1 915 0
 2637 01ec C8EE887A 		vdiv.f32	s15, s17, s16
 2638              	.LVL403:
 2639              		.loc 1 920 0
 2640 01f0 20EE000A 		vmul.f32	s0, s0, s0
 2641              	.LVL404:
 2642              		.loc 1 917 0
 2643 01f4 89EE889A 		vdiv.f32	s18, s19, s16
 2644              	.LVL405:
 2645              		.loc 1 920 0
 2646 01f8 A7EEA70A 		vfma.f32	s0, s15, s15
 2647              		.loc 1 918 0
 2648 01fc CAEE088A 		vdiv.f32	s17, s20, s16
 2649              	.LVL406:
 2650 0200 B5EE400A 		vcmp.f32	s0, #0
 2651 0204 F1EE10FA 		vmrs	APSR_nzcv, FPSCR
 2652              		.loc 1 920 0
 2653 0208 B1EEC08A 		vsqrt.f32	s16, s0
 2654              	.LVL407:
 2655 020c 42D4     		bmi	.L243
 2656              	.LVL408:
 2657              	.L222:
 2658              		.loc 1 921 0
 2659 020e 28EEA80A 		vmul.f32	s0, s17, s17
 2660 0212 A9EE090A 		vfma.f32	s0, s18, s18
 2661 0216 B5EE400A 		vcmp.f32	s0, #0
 2662 021a F1EE10FA 		vmrs	APSR_nzcv, FPSCR
 2663 021e F1EEC08A 		vsqrt.f32	s17, s0
 2664              	.LVL409:
 2665 0222 34D4     		bmi	.L244
 2666              	.L223:
 2667              		.loc 1 923 0
 2668 0224 0124     		movs	r4, #1
 2669              		.loc 1 921 0
 2670 0226 DFED257A 		vldr.32	s15, .L245+32
 2671              		.loc 1 920 0
 2672 022a A8EEEB8A 		vfms.f32	s16, s17, s23
 2673              		.loc 1 921 0
 2674 022e 2BEE27BA 		vmul.f32	s22, s22, s15
 2675 0232 C8EE0B7A 		vdiv.f32	s15, s16, s22
 2676              		.loc 1 920 0
 2677 0236 C7ED007A 		vstr.32	s15, [r7]
 2678              	.LVL410:
 2679              	.L214:
ARM GAS  /tmp/ccH3nHCY.s 			page 48


 2680              	.LBE78:
 2681              		.loc 1 926 0
 2682 023a B0EE4C0A 		vmov.f32	s0, s24
 2683 023e 4046     		mov	r0, r8
 2684 0240 FFF7FEFF 		bl	timeout_configure
 2685              	.LVL411:
 2686              		.loc 1 927 0
 2687 0244 FFF7FEFF 		bl	mc_interface_unlock
 2688              	.LVL412:
 2689              		.loc 1 928 0
 2690 0248 FFF7FEFF 		bl	mc_interface_release_motor
 2691              	.LVL413:
 2692              		.loc 1 929 0
 2693 024c 1448     		ldr	r0, .L245+4
 2694 024e FFF7FEFF 		bl	mc_interface_set_configuration
 2695              	.LVL414:
 2696              		.loc 1 931 0
 2697 0252 BDEC0E8B 		vldm	sp!, {d8-d14}
 2698              		.cfi_remember_state
 2699              		.cfi_restore 92
 2700              		.cfi_restore 93
 2701              		.cfi_restore 90
 2702              		.cfi_restore 91
 2703              		.cfi_restore 88
 2704              		.cfi_restore 89
 2705              		.cfi_restore 86
 2706              		.cfi_restore 87
 2707              		.cfi_restore 84
 2708              		.cfi_restore 85
 2709              		.cfi_restore 82
 2710              		.cfi_restore 83
 2711              		.cfi_restore 80
 2712              		.cfi_restore 81
 2713              		.cfi_def_cfa_offset 24
 2714              	.LVL415:
 2715 0256 2046     		mov	r0, r4
 2716 0258 BDE8F081 		pop	{r4, r5, r6, r7, r8, pc}
 2717              	.LVL416:
 2718              	.L241:
 2719              		.cfi_restore_state
 2720              	.LBB79:
 2721              		.loc 1 888 0
 2722 025c 184B     		ldr	r3, .L245+36
 2723 025e 3B60     		str	r3, [r7]	@ float
 2724              	.LBE79:
 2725              		.loc 1 897 0
 2726 0260 42F21070 		movw	r0, #10000
 2727 0264 FFF7FEFF 		bl	chThdSleep
 2728              	.LVL417:
 2729              		.loc 1 808 0
 2730 0268 0024     		movs	r4, #0
 2731 026a E6E7     		b	.L214
 2732              	.LVL418:
 2733              	.L240:
 2734              	.LBB80:
 2735              		.loc 1 882 0
 2736 026c 4FF04043 		mov	r3, #-1073741824
ARM GAS  /tmp/ccH3nHCY.s 			page 49


 2737 0270 3B60     		str	r3, [r7]	@ float
 2738              	.LBE80:
 2739              		.loc 1 897 0
 2740 0272 42F21070 		movw	r0, #10000
 2741 0276 FFF7FEFF 		bl	chThdSleep
 2742              	.LVL419:
 2743              		.loc 1 808 0
 2744 027a 0024     		movs	r4, #0
 2745 027c DDE7     		b	.L214
 2746              	.LVL420:
 2747              	.L239:
 2748              	.LBB81:
 2749              		.loc 1 876 0
 2750 027e 114B     		ldr	r3, .L245+40
 2751 0280 3B60     		str	r3, [r7]	@ float
 2752              	.LVL421:
 2753              	.LBE81:
 2754              		.loc 1 897 0
 2755 0282 42F21070 		movw	r0, #10000
 2756 0286 FFF7FEFF 		bl	chThdSleep
 2757              	.LVL422:
 2758              		.loc 1 808 0
 2759 028a 0024     		movs	r4, #0
 2760 028c D5E7     		b	.L214
 2761              	.LVL423:
 2762              	.L244:
 2763              	.LBB82:
 2764              		.loc 1 921 0
 2765 028e FFF7FEFF 		bl	sqrtf
 2766              	.LVL424:
 2767 0292 C7E7     		b	.L223
 2768              	.LVL425:
 2769              	.L243:
 2770              		.loc 1 920 0
 2771 0294 FFF7FEFF 		bl	sqrtf
 2772              	.LVL426:
 2773 0298 B9E7     		b	.L222
 2774              	.L246:
 2775 029a 00BF     		.align	2
 2776              	.L245:
 2777 029c 00000000 		.word	.LANCHOR1
 2778 02a0 00000000 		.word	.LANCHOR3
 2779 02a4 6F12033A 		.word	973279855
 2780 02a8 00000000 		.word	0
 2781 02ac 00007A44 		.word	1148846080
 2782 02b0 3333333F 		.word	1060320051
 2783 02b4 CDCC8C3F 		.word	1066192077
 2784 02b8 00803B46 		.word	1178304512
 2785 02bc 5077D63D 		.word	1037465424
 2786 02c0 000040C0 		.word	-1069547520
 2787 02c4 000080BF 		.word	-1082130432
 2788              	.LBE82:
 2789              		.cfi_endproc
 2790              	.LFE271:
 2791              		.size	conf_general_measure_flux_linkage_openloop, .-conf_general_measure_flux_linkage_openloop
 2792              		.section	.text.conf_general_autodetect_apply_sensors_foc,"ax",%progbits
 2793              		.align	1
ARM GAS  /tmp/ccH3nHCY.s 			page 50


 2794              		.p2align 4,,15
 2795              		.global	conf_general_autodetect_apply_sensors_foc
 2796              		.syntax unified
 2797              		.thumb
 2798              		.thumb_func
 2799              		.fpu fpv4-sp-d16
 2800              		.type	conf_general_autodetect_apply_sensors_foc, %function
 2801              	conf_general_autodetect_apply_sensors_foc:
 2802              	.LFB272:
 2803              		.loc 1 952 0
 2804              		.cfi_startproc
 2805              		@ args = 0, pretend = 0, frame = 24
 2806              		@ frame_needed = 0, uses_anonymous_args = 0
 2807              	.LVL427:
 2808 0000 2DE9F043 		push	{r4, r5, r6, r7, r8, r9, lr}
 2809              		.cfi_def_cfa_offset 28
 2810              		.cfi_offset 4, -28
 2811              		.cfi_offset 5, -24
 2812              		.cfi_offset 6, -20
 2813              		.cfi_offset 7, -16
 2814              		.cfi_offset 8, -12
 2815              		.cfi_offset 9, -8
 2816              		.cfi_offset 14, -4
 2817 0004 2DED068B 		vpush.64	{d8, d9, d10}
 2818              		.cfi_def_cfa_offset 52
 2819              		.cfi_offset 80, -52
 2820              		.cfi_offset 81, -48
 2821              		.cfi_offset 82, -44
 2822              		.cfi_offset 83, -40
 2823              		.cfi_offset 84, -36
 2824              		.cfi_offset 85, -32
 2825 0008 87B0     		sub	sp, sp, #28
 2826              		.cfi_def_cfa_offset 80
 2827              		.loc 1 952 0
 2828 000a B0EE408A 		vmov.f32	s16, s0
 2829 000e 0E46     		mov	r6, r1
 2830 0010 0546     		mov	r5, r0
 2831              		.loc 1 955 0
 2832 0012 FFF7FEFF 		bl	mc_interface_get_configuration
 2833              	.LVL428:
 2834 0016 DFF82882 		ldr	r8, .L279+12
 2835 001a 0146     		mov	r1, r0
 2836 001c 4FF4E472 		mov	r2, #456
 2837 0020 4046     		mov	r0, r8
 2838 0022 FFF7FEFF 		bl	memcpy
 2839              	.LVL429:
 2840              		.loc 1 956 0
 2841 0026 4146     		mov	r1, r8
 2842 0028 4FF4E472 		mov	r2, #456
 2843 002c 8148     		ldr	r0, .L279
 2844 002e FFF7FEFF 		bl	memcpy
 2845              	.LVL430:
 2846              		.loc 1 958 0
 2847 0032 0220     		movs	r0, #2
 2848              		.loc 1 960 0
 2849 0034 804A     		ldr	r2, .L279+4
 2850              		.loc 1 958 0
ARM GAS  /tmp/ccH3nHCY.s 			page 51


 2851 0036 88F80200 		strb	r0, [r8, #2]
 2852              		.loc 1 959 0
 2853 003a 0021     		movs	r1, #0
 2854              		.loc 1 961 0
 2855 003c 4FF07E53 		mov	r3, #1065353216
 2856              		.loc 1 962 0
 2857 0040 4046     		mov	r0, r8
 2858              		.loc 1 959 0
 2859 0042 88F81411 		strb	r1, [r8, #276]
 2860              		.loc 1 960 0
 2861 0046 C8F8AC20 		str	r2, [r8, #172]	@ float
 2862              		.loc 1 961 0
 2863 004a C8F8B030 		str	r3, [r8, #176]	@ float
 2864              		.loc 1 962 0
 2865 004e 4FF4FA74 		mov	r4, #500
 2866 0052 FFF7FEFF 		bl	mc_interface_set_configuration
 2867              	.LVL431:
 2868 0056 04E0     		b	.L249
 2869              	.LVL432:
 2870              	.L274:
 2871              	.LBB83:
 2872              		.loc 1 969 0 discriminator 2
 2873 0058 6420     		movs	r0, #100
 2874 005a FFF7FEFF 		bl	chThdSleep
 2875              	.LVL433:
 2876              		.loc 1 965 0 discriminator 2
 2877 005e 013C     		subs	r4, r4, #1
 2878              	.LVL434:
 2879 0060 03D0     		beq	.L248
 2880              	.LVL435:
 2881              	.L249:
 2882              		.loc 1 966 0
 2883 0062 FFF7FEFF 		bl	mc_interface_get_fault
 2884              	.LVL436:
 2885 0066 0028     		cmp	r0, #0
 2886 0068 F6D1     		bne	.L274
 2887              	.LVL437:
 2888              	.L248:
 2889              	.LBE83:
 2890              		.loc 1 972 0
 2891 006a FFF7FEFF 		bl	mc_interface_get_fault
 2892              	.LVL438:
 2893 006e 8146     		mov	r9, r0
 2894 0070 0028     		cmp	r0, #0
 2895 0072 40F0D980 		bne	.L275
 2896              		.loc 1 979 0
 2897 0076 42F21070 		movw	r0, #10000
 2898 007a FFF7FEFF 		bl	chThdSleep
 2899              	.LVL439:
 2900              		.loc 1 982 0
 2901 007e FFF7FEFF 		bl	timeout_get_timeout_msec
 2902              	.LVL440:
 2903 0082 0746     		mov	r7, r0
 2904              	.LVL441:
 2905              		.loc 1 983 0
 2906 0084 FFF7FEFF 		bl	timeout_get_brake_current
 2907              	.LVL442:
ARM GAS  /tmp/ccH3nHCY.s 			page 52


 2908 0088 B0EE40AA 		vmov.f32	s20, s0
 2909              	.LVL443:
 2910              		.loc 1 984 0
 2911 008c FFF7FEFF 		bl	timeout_reset
 2912              	.LVL444:
 2913              		.loc 1 985 0
 2914 0090 9FED6A0A 		vldr.32	s0, .L279+8
 2915 0094 4EF66020 		movw	r0, #60000
 2916 0098 FFF7FEFF 		bl	timeout_configure
 2917              	.LVL445:
 2918              		.loc 1 987 0
 2919 009c FFF7FEFF 		bl	mc_interface_lock
 2920              	.LVL446:
 2921              		.loc 1 991 0
 2922 00a0 6748     		ldr	r0, .L279+12
 2923              		.loc 1 990 0
 2924 00a2 88F89891 		strb	r9, [r8, #408]
 2925              		.loc 1 991 0
 2926 00a6 FFF7FEFF 		bl	mc_interface_set_configuration
 2927              	.LVL447:
 2928              		.loc 1 994 0
 2929 00aa B0EE480A 		vmov.f32	s0, s16
 2930 00ae 04A8     		add	r0, sp, #16
 2931 00b0 FFF7FEFF 		bl	mcpwm_foc_hall_detect
 2932              	.LVL448:
 2933 00b4 0446     		mov	r4, r0
 2934              	.LVL449:
 2935              		.loc 1 997 0
 2936 00b6 FFF7FEFF 		bl	timeout_reset
 2937              	.LVL450:
 2938              		.loc 1 998 0
 2939 00ba 9FED600A 		vldr.32	s0, .L279+8
 2940 00be 4EF66020 		movw	r0, #60000
 2941 00c2 FFF7FEFF 		bl	timeout_configure
 2942              	.LVL451:
 2943              		.loc 1 999 0
 2944 00c6 FFF7FEFF 		bl	mc_interface_lock
 2945              	.LVL452:
 2946              		.loc 1 1001 0
 2947 00ca 002C     		cmp	r4, #0
 2948 00cc 71D1     		bne	.L276
 2949              	.LBB84:
 2950              		.loc 1 1020 0
 2951 00ce 9FED5B9A 		vldr.32	s18, .L279+8
 2952              		.loc 1 1014 0
 2953 00d2 5B48     		ldr	r0, .L279+12
 2954              	.LBB85:
 2955              		.loc 1 1023 0
 2956 00d4 DFED5B8A 		vldr.32	s17, .L279+16
 2957 00d8 DFED5B9A 		vldr.32	s19, .L279+20
 2958              	.LBE85:
 2959              		.loc 1 1013 0
 2960 00dc 0223     		movs	r3, #2
 2961 00de 88F89831 		strb	r3, [r8, #408]
 2962              		.loc 1 1014 0
 2963 00e2 FFF7FEFF 		bl	mc_interface_set_configuration
 2964              	.LVL453:
ARM GAS  /tmp/ccH3nHCY.s 			page 53


 2965              		.loc 1 1016 0
 2966 00e6 F0EE490A 		vmov.f32	s1, s18
 2967 00ea B0EE480A 		vmov.f32	s0, s16
 2968 00ee FFF7FEFF 		bl	mcpwm_foc_set_openloop_phase
 2969              	.LVL454:
 2970              		.loc 1 1017 0
 2971 00f2 42F21070 		movw	r0, #10000
 2972 00f6 FFF7FEFF 		bl	chThdSleep
 2973              	.LVL455:
 2974              		.loc 1 1019 0
 2975 00fa FFF7FEFF 		bl	encoder_read_deg
 2976              	.LVL456:
 2977              	.LBB86:
 2978              		.loc 1 1023 0
 2979 00fe F0EE490A 		vmov.f32	s1, s18
 2980              	.LBE86:
 2981              		.loc 1 1019 0
 2982 0102 F0EE40AA 		vmov.f32	s21, s0
 2983              	.LVL457:
 2984              	.L260:
 2985              	.LBB87:
 2986              		.loc 1 1024 0
 2987 0106 B0EE480A 		vmov.f32	s0, s16
 2988 010a FFF7FEFF 		bl	mcpwm_foc_set_openloop_phase
 2989              	.LVL458:
 2990 010e 0134     		adds	r4, r4, #1
 2991              	.LVL459:
 2992              		.loc 1 1025 0
 2993 0110 3220     		movs	r0, #50
 2994 0112 FFF7FEFF 		bl	chThdSleep
 2995              	.LVL460:
 2996              		.loc 1 1027 0
 2997 0116 5B2C     		cmp	r4, #91
 2998 0118 7BD0     		beq	.L277
 2999              		.loc 1 1023 0 discriminator 2
 3000 011a 07EE904A 		vmov	s15, r4	@ int
 3001 011e F8EEE70A 		vcvt.f32.s32	s1, s15
 3002 0122 F4EEE80A 		vcmpe.f32	s1, s17
 3003 0126 F1EE10FA 		vmrs	APSR_nzcv, FPSCR
 3004 012a ECD4     		bmi	.L260
 3005              	.LBE87:
 3006              		.loc 1 1032 0
 3007 012c FFF7FEFF 		bl	encoder_read_deg
 3008              	.LVL461:
 3009 0130 F0EE408A 		vmov.f32	s17, s0
 3010              	.LVL462:
 3011              		.loc 1 1033 0
 3012 0134 F0EE400A 		vmov.f32	s1, s0
 3013 0138 B0EE6A0A 		vmov.f32	s0, s21
 3014              	.LVL463:
 3015 013c FFF7FEFF 		bl	utils_angle_difference
 3016              	.LVL464:
 3017              		.loc 1 1034 0
 3018 0140 F0EE680A 		vmov.f32	s1, s17
 3019              		.loc 1 1033 0
 3020 0144 F0EEC08A 		vabs.f32	s17, s0
 3021              	.LVL465:
ARM GAS  /tmp/ccH3nHCY.s 			page 54


 3022              		.loc 1 1034 0
 3023 0148 B0EE490A 		vmov.f32	s0, s18
 3024 014c FFF7FEFF 		bl	utils_angle_difference
 3025              	.LVL466:
 3026              		.loc 1 1036 0
 3027 0150 F0EE007A 		vmov.f32	s15, #2.0e+0
 3028 0154 F4EEE78A 		vcmpe.f32	s17, s15
 3029 0158 F1EE10FA 		vmrs	APSR_nzcv, FPSCR
 3030 015c 54DD     		ble	.L257
 3031              		.loc 1 1036 0 is_stmt 0 discriminator 1
 3032 015e F6EE007A 		vmov.f32	s15, #5.0e-1
 3033              		.loc 1 1034 0 is_stmt 1 discriminator 1
 3034 0162 B0EEC00A 		vabs.f32	s0, s0
 3035              	.LVL467:
 3036              		.loc 1 1036 0 discriminator 1
 3037 0166 A8EEE70A 		vfms.f32	s0, s17, s15
 3038              	.LVL468:
 3039 016a F5EE007A 		vmov.f32	s15, #2.5e-1
 3040 016e 68EEA78A 		vmul.f32	s17, s17, s15
 3041              	.LVL469:
 3042 0172 B4EEE80A 		vcmpe.f32	s0, s17
 3043 0176 F1EE10FA 		vmrs	APSR_nzcv, FPSCR
 3044 017a 45D5     		bpl	.L257
 3045              	.LBB88:
 3046              		.loc 1 1039 0
 3047 017c 0DF10703 		add	r3, sp, #7
 3048 0180 03AA     		add	r2, sp, #12
 3049 0182 02A9     		add	r1, sp, #8
 3050 0184 0020     		movs	r0, #0
 3051 0186 B0EE480A 		vmov.f32	s0, s16
 3052 018a FFF7FEFF 		bl	mcpwm_foc_encoder_detect
 3053              	.LVL470:
 3054              		.loc 1 1040 0
 3055 018e 294A     		ldr	r2, .L279
 3056              		.loc 1 1042 0
 3057 0190 0298     		ldr	r0, [sp, #8]	@ float
 3058              		.loc 1 1043 0
 3059 0192 0399     		ldr	r1, [sp, #12]	@ float
 3060              		.loc 1 1044 0
 3061 0194 9DF80730 		ldrb	r3, [sp, #7]	@ zero_extendqisi2
 3062              		.loc 1 1042 0
 3063 0198 C2F8BC00 		str	r0, [r2, #188]	@ float
 3064              		.loc 1 1040 0
 3065 019c 0224     		movs	r4, #2
 3066              	.LVL471:
 3067              		.loc 1 1041 0
 3068 019e 0120     		movs	r0, #1
 3069 01a0 82F81401 		strb	r0, [r2, #276]
 3070              		.loc 1 1043 0
 3071 01a4 C2F8C410 		str	r1, [r2, #196]	@ float
 3072              		.loc 1 1044 0
 3073 01a8 82F8C030 		strb	r3, [r2, #192]
 3074              	.LVL472:
 3075              		.loc 1 1040 0
 3076 01ac 82F89841 		strb	r4, [r2, #408]
 3077 01b0 12E0     		b	.L254
 3078              	.LVL473:
ARM GAS  /tmp/ccH3nHCY.s 			page 55


 3079              	.L276:
 3080              	.LBE88:
 3081              	.LBE84:
 3082              		.loc 1 1002 0
 3083 01b2 204A     		ldr	r2, .L279
 3084              		.loc 1 1003 0
 3085 01b4 0223     		movs	r3, #2
 3086 01b6 82F81431 		strb	r3, [r2, #276]
 3087              	.LVL474:
 3088              		.loc 1 1002 0
 3089 01ba 82F89891 		strb	r9, [r2, #408]
 3090 01be 0DF10F03 		add	r3, sp, #15
 3091 01c2 02F21512 		addw	r2, r2, #277
 3092 01c6 0DF11700 		add	r0, sp, #23
 3093              	.LVL475:
 3094              	.L253:
 3095              	.LBB90:
 3096              		.loc 1 1005 0 discriminator 3
 3097 01ca 13F8011F 		ldrb	r1, [r3, #1]!	@ zero_extendqisi2
 3098              	.LVL476:
 3099 01ce 02F8011B 		strb	r1, [r2], #1
 3100              	.LVL477:
 3101              		.loc 1 1004 0 discriminator 3
 3102 01d2 8342     		cmp	r3, r0
 3103 01d4 F9D1     		bne	.L253
 3104              	.LBE90:
 3105              		.loc 1 1008 0
 3106 01d6 0124     		movs	r4, #1
 3107              	.LVL478:
 3108              	.L254:
 3109              		.loc 1 1058 0
 3110 01d8 3846     		mov	r0, r7
 3111 01da B0EE4A0A 		vmov.f32	s0, s20
 3112 01de FFF7FEFF 		bl	timeout_configure
 3113              	.LVL479:
 3114              		.loc 1 1059 0
 3115 01e2 FFF7FEFF 		bl	mc_interface_unlock
 3116              	.LVL480:
 3117              		.loc 1 1060 0
 3118 01e6 FFF7FEFF 		bl	mc_interface_release_motor
 3119              	.LVL481:
 3120              		.loc 1 1061 0
 3121 01ea 1248     		ldr	r0, .L279
 3122 01ec FFF7FEFF 		bl	mc_interface_set_configuration
 3123              	.LVL482:
 3124              		.loc 1 1065 0
 3125 01f0 B5B9     		cbnz	r5, .L278
 3126              	.L262:
 3127              		.loc 1 1069 0
 3128 01f2 1EB1     		cbz	r6, .L247
 3129              		.loc 1 1070 0
 3130 01f4 0F49     		ldr	r1, .L279
 3131 01f6 0E20     		movs	r0, #14
 3132 01f8 FFF7FEFF 		bl	commands_send_mcconf
 3133              	.LVL483:
 3134              	.L247:
 3135              		.loc 1 1075 0
ARM GAS  /tmp/ccH3nHCY.s 			page 56


 3136 01fc 2046     		mov	r0, r4
 3137 01fe 07B0     		add	sp, sp, #28
 3138              		.cfi_remember_state
 3139              		.cfi_def_cfa_offset 52
 3140              		@ sp needed
 3141 0200 BDEC068B 		vldm	sp!, {d8-d10}
 3142              		.cfi_restore 84
 3143              		.cfi_restore 85
 3144              		.cfi_restore 82
 3145              		.cfi_restore 83
 3146              		.cfi_restore 80
 3147              		.cfi_restore 81
 3148              		.cfi_def_cfa_offset 28
 3149              	.LVL484:
 3150 0204 BDE8F083 		pop	{r4, r5, r6, r7, r8, r9, pc}
 3151              	.LVL485:
 3152              	.L257:
 3153              		.cfi_restore_state
 3154              		.loc 1 1053 0
 3155 0208 0A4A     		ldr	r2, .L279
 3156 020a 0024     		movs	r4, #0
 3157              	.LVL486:
 3158 020c 82F81441 		strb	r4, [r2, #276]
 3159              	.LVL487:
 3160 0210 E2E7     		b	.L254
 3161              	.LVL488:
 3162              	.L277:
 3163              	.LBB91:
 3164              	.LBB89:
 3165              		.loc 1 1028 0
 3166 0212 FFF7FEFF 		bl	encoder_read_deg
 3167              	.LVL489:
 3168              		.loc 1 1023 0
 3169 0216 F0EE690A 		vmov.f32	s1, s19
 3170              		.loc 1 1028 0
 3171 021a B0EE409A 		vmov.f32	s18, s0
 3172              	.LVL490:
 3173 021e 72E7     		b	.L260
 3174              	.LVL491:
 3175              	.L278:
 3176              	.LBE89:
 3177              	.LBE91:
 3178              		.loc 1 1066 0
 3179 0220 0448     		ldr	r0, .L279
 3180 0222 FFF7FEFF 		bl	conf_general_store_mc_configuration
 3181              	.LVL492:
 3182 0226 E4E7     		b	.L262
 3183              	.LVL493:
 3184              	.L275:
 3185              		.loc 1 973 0
 3186 0228 0248     		ldr	r0, .L279
 3187 022a FFF7FEFF 		bl	mc_interface_set_configuration
 3188              	.LVL494:
 3189              		.loc 1 974 0
 3190 022e 4FF0FF34 		mov	r4, #-1
 3191 0232 E3E7     		b	.L247
 3192              	.L280:
ARM GAS  /tmp/ccH3nHCY.s 			page 57


 3193              		.align	2
 3194              	.L279:
 3195 0234 00000000 		.word	.LANCHOR3
 3196 0238 6F12033A 		.word	973279855
 3197 023c 00000000 		.word	0
 3198 0240 00000000 		.word	.LANCHOR1
 3199 0244 00003443 		.word	1127481344
 3200 0248 0000B642 		.word	1119223808
 3201              		.cfi_endproc
 3202              	.LFE272:
 3203              		.size	conf_general_autodetect_apply_sensors_foc, .-conf_general_autodetect_apply_sensors_foc
 3204              		.section	.text.conf_general_detect_apply_all_foc,"ax",%progbits
 3205              		.align	1
 3206              		.p2align 4,,15
 3207              		.global	conf_general_detect_apply_all_foc
 3208              		.syntax unified
 3209              		.thumb
 3210              		.thumb_func
 3211              		.fpu fpv4-sp-d16
 3212              		.type	conf_general_detect_apply_all_foc, %function
 3213              	conf_general_detect_apply_all_foc:
 3214              	.LFB273:
 3215              		.loc 1 1095 0
 3216              		.cfi_startproc
 3217              		@ args = 0, pretend = 0, frame = 16
 3218              		@ frame_needed = 0, uses_anonymous_args = 0
 3219              	.LVL495:
 3220 0000 2DE9F04F 		push	{r4, r5, r6, r7, r8, r9, r10, fp, lr}
 3221              		.cfi_def_cfa_offset 36
 3222              		.cfi_offset 4, -36
 3223              		.cfi_offset 5, -32
 3224              		.cfi_offset 6, -28
 3225              		.cfi_offset 7, -24
 3226              		.cfi_offset 8, -20
 3227              		.cfi_offset 9, -16
 3228              		.cfi_offset 10, -12
 3229              		.cfi_offset 11, -8
 3230              		.cfi_offset 14, -4
 3231 0004 2DED068B 		vpush.64	{d8, d9, d10}
 3232              		.cfi_def_cfa_offset 60
 3233              		.cfi_offset 80, -60
 3234              		.cfi_offset 81, -56
 3235              		.cfi_offset 82, -52
 3236              		.cfi_offset 83, -48
 3237              		.cfi_offset 84, -44
 3238              		.cfi_offset 85, -40
 3239 0008 85B0     		sub	sp, sp, #20
 3240              		.cfi_def_cfa_offset 80
 3241              		.loc 1 1095 0
 3242 000a B0EE409A 		vmov.f32	s18, s0
 3243 000e 0F46     		mov	r7, r1
 3244 0010 0646     		mov	r6, r0
 3245              		.loc 1 1098 0
 3246 0012 FFF7FEFF 		bl	mc_interface_get_configuration
 3247              	.LVL496:
 3248 0016 C44D     		ldr	r5, .L313
 3249 0018 0146     		mov	r1, r0
ARM GAS  /tmp/ccH3nHCY.s 			page 58


 3250 001a 4FF4E472 		mov	r2, #456
 3251 001e 2846     		mov	r0, r5
 3252 0020 FFF7FEFF 		bl	memcpy
 3253              	.LVL497:
 3254              		.loc 1 1099 0
 3255 0024 2946     		mov	r1, r5
 3256 0026 4FF4E472 		mov	r2, #456
 3257 002a C048     		ldr	r0, .L313+4
 3258 002c FFF7FEFF 		bl	memcpy
 3259              	.LVL498:
 3260              		.loc 1 1103 0
 3261 0030 BF48     		ldr	r0, .L313+8
 3262 0032 C5F8B400 		str	r0, [r5, #180]	@ float
 3263              		.loc 1 1101 0
 3264 0036 0220     		movs	r0, #2
 3265              		.loc 1 1104 0
 3266 0038 BE4B     		ldr	r3, .L313+12
 3267              		.loc 1 1101 0
 3268 003a A870     		strb	r0, [r5, #2]
 3269              		.loc 1 1102 0
 3270 003c 0020     		movs	r0, #0
 3271              		.loc 1 1106 0
 3272 003e BE49     		ldr	r1, .L313+16
 3273              		.loc 1 1107 0
 3274 0040 BE4A     		ldr	r2, .L313+20
 3275              		.loc 1 1102 0
 3276 0042 85F81401 		strb	r0, [r5, #276]
 3277              		.loc 1 1104 0
 3278 0046 C5F8AC30 		str	r3, [r5, #172]	@ float
 3279              		.loc 1 1110 0
 3280 004a BD48     		ldr	r0, .L313+24
 3281              		.loc 1 1111 0
 3282 004c BD4B     		ldr	r3, .L313+28
 3283              		.loc 1 1106 0
 3284 004e 6960     		str	r1, [r5, #4]	@ float
 3285              		.loc 1 1107 0
 3286 0050 AA60     		str	r2, [r5, #8]	@ float
 3287              		.loc 1 1112 0
 3288 0052 BD49     		ldr	r1, .L313+32
 3289              		.loc 1 1113 0
 3290 0054 BD4A     		ldr	r2, .L313+36
 3291              		.loc 1 1110 0
 3292 0056 E865     		str	r0, [r5, #92]	@ float
 3293              		.loc 1 1111 0
 3294 0058 2B66     		str	r3, [r5, #96]	@ float
 3295              		.loc 1 1114 0
 3296 005a 2846     		mov	r0, r5
 3297              		.loc 1 1105 0
 3298 005c 4FF07E53 		mov	r3, #1065353216
 3299              		.loc 1 1112 0
 3300 0060 E961     		str	r1, [r5, #28]	@ float
 3301              		.loc 1 1113 0
 3302 0062 AA61     		str	r2, [r5, #24]	@ float
 3303              		.loc 1 1105 0
 3304 0064 C5F8B030 		str	r3, [r5, #176]	@ float
 3305              		.loc 1 1108 0
 3306 0068 6B66     		str	r3, [r5, #100]	@ float
ARM GAS  /tmp/ccH3nHCY.s 			page 59


 3307              		.loc 1 1109 0
 3308 006a AB66     		str	r3, [r5, #104]	@ float
 3309              		.loc 1 1114 0
 3310 006c 4FF4FA74 		mov	r4, #500
 3311 0070 FFF7FEFF 		bl	mc_interface_set_configuration
 3312              	.LVL499:
 3313 0074 04E0     		b	.L283
 3314              	.LVL500:
 3315              	.L309:
 3316              	.LBB92:
 3317              		.loc 1 1121 0 discriminator 2
 3318 0076 6420     		movs	r0, #100
 3319 0078 FFF7FEFF 		bl	chThdSleep
 3320              	.LVL501:
 3321              		.loc 1 1117 0 discriminator 2
 3322 007c 013C     		subs	r4, r4, #1
 3323              	.LVL502:
 3324 007e 03D0     		beq	.L282
 3325              	.LVL503:
 3326              	.L283:
 3327              		.loc 1 1118 0
 3328 0080 FFF7FEFF 		bl	mc_interface_get_fault
 3329              	.LVL504:
 3330 0084 0028     		cmp	r0, #0
 3331 0086 F6D1     		bne	.L309
 3332              	.LVL505:
 3333              	.L282:
 3334              	.LBE92:
 3335              		.loc 1 1124 0
 3336 0088 FFF7FEFF 		bl	mc_interface_get_fault
 3337              	.LVL506:
 3338 008c 0028     		cmp	r0, #0
 3339 008e 40F04281 		bne	.L310
 3340              		.loc 1 1131 0
 3341 0092 42F21070 		movw	r0, #10000
 3342 0096 FFF7FEFF 		bl	chThdSleep
 3343              	.LVL507:
 3344              		.loc 1 1134 0
 3345 009a FFF7FEFF 		bl	timeout_get_timeout_msec
 3346              	.LVL508:
 3347 009e 8046     		mov	r8, r0
 3348              	.LVL509:
 3349              		.loc 1 1135 0
 3350 00a0 FFF7FEFF 		bl	timeout_get_brake_current
 3351              	.LVL510:
 3352 00a4 F0EE40AA 		vmov.f32	s21, s0
 3353              	.LVL511:
 3354              		.loc 1 1136 0
 3355 00a8 FFF7FEFF 		bl	timeout_reset
 3356              	.LVL512:
 3357              		.loc 1 1137 0
 3358 00ac 9FEDA80A 		vldr.32	s0, .L313+40
 3359 00b0 4EF66020 		movw	r0, #60000
 3360 00b4 FFF7FEFF 		bl	timeout_configure
 3361              	.LVL513:
 3362              		.loc 1 1139 0
 3363 00b8 FFF7FEFF 		bl	mc_interface_lock
ARM GAS  /tmp/ccH3nHCY.s 			page 60


 3364              	.LVL514:
 3365              		.loc 1 1141 0
 3366 00bc 95ED017A 		vldr.32	s14, [r5, #4]
 3367 00c0 9FEDA46A 		vldr.32	s12, .L313+44
 3368              		.loc 1 1142 0
 3369 00c4 D5ED5F7A 		vldr.32	s15, [r5, #380]
 3370 00c8 DFEDA36A 		vldr.32	s13, .L313+48
 3371              		.loc 1 1141 0
 3372 00cc 87EE068A 		vdiv.f32	s16, s14, s12
 3373              	.LVL515:
 3374              		.loc 1 1142 0
 3375 00d0 67EEA67A 		vmul.f32	s15, s15, s13
 3376              		.loc 1 1143 0
 3377 00d4 F4EE487A 		vcmp.f32	s15, s16
 3378 00d8 F1EE10FA 		vmrs	APSR_nzcv, FPSCR
 3379 00dc C8BF     		it	gt
 3380 00de B0EE678A 		vmovgt.f32	s16, s15
 3381              	.LVL516:
 3382              	.LBB93:
 3383              		.loc 1 1147 0
 3384 00e2 B4EEC87A 		vcmpe.f32	s14, s16
 3385 00e6 F1EE10FA 		vmrs	APSR_nzcv, FPSCR
 3386 00ea 38DD     		ble	.L307
 3387              	.LBB94:
 3388              		.loc 1 1159 0
 3389 00ec F0EE089A 		vmov.f32	s19, #3.0e+0
 3390              	.LBE94:
 3391              		.loc 1 1147 0
 3392 00f0 B7EE08AA 		vmov.f32	s20, #1.5e+0
 3393 00f4 15E0     		b	.L291
 3394              	.LVL517:
 3395              	.L290:
 3396              	.LBB95:
 3397              		.loc 1 1159 0
 3398 00f6 C9EE297A 		vdiv.f32	s15, s18, s19
 3399 00fa 28EE087A 		vmul.f32	s14, s16, s16
 3400 00fe 27EE280A 		vmul.f32	s0, s14, s17
 3401 0102 B4EEE70A 		vcmpe.f32	s0, s15
 3402 0106 F1EE10FA 		vmrs	APSR_nzcv, FPSCR
 3403 010a 2ADA     		bge	.L288
 3404              	.LBE95:
 3405              		.loc 1 1147 0 discriminator 2
 3406 010c 68EE0A7A 		vmul.f32	s15, s16, s20
 3407              	.LVL518:
 3408 0110 95ED017A 		vldr.32	s14, [r5, #4]
 3409 0114 B4EEE77A 		vcmpe.f32	s14, s15
 3410 0118 F1EE10FA 		vmrs	APSR_nzcv, FPSCR
 3411 011c 21DD     		ble	.L288
 3412              		.loc 1 1147 0 is_stmt 0
 3413 011e B0EE678A 		vmov.f32	s16, s15
 3414              	.LVL519:
 3415              	.L291:
 3416              	.LBB96:
 3417              		.loc 1 1148 0 is_stmt 1
 3418 0122 0520     		movs	r0, #5
 3419 0124 B0EE480A 		vmov.f32	s0, s16
 3420 0128 FFF7FEFF 		bl	mcpwm_foc_measure_resistance
ARM GAS  /tmp/ccH3nHCY.s 			page 61


 3421              	.LVL520:
 3422 012c F0EE408A 		vmov.f32	s17, s0
 3423              	.LVL521:
 3424              		.loc 1 1151 0
 3425 0130 FFF7FEFF 		bl	mc_interface_get_fault
 3426              	.LVL522:
 3427 0134 0028     		cmp	r0, #0
 3428 0136 DED0     		beq	.L290
 3429              		.loc 1 1152 0
 3430 0138 B0EE6A0A 		vmov.f32	s0, s21
 3431 013c 4046     		mov	r0, r8
 3432 013e FFF7FEFF 		bl	timeout_configure
 3433              	.LVL523:
 3434              		.loc 1 1153 0
 3435 0142 FFF7FEFF 		bl	mc_interface_unlock
 3436              	.LVL524:
 3437              		.loc 1 1154 0
 3438 0146 FFF7FEFF 		bl	mc_interface_release_motor
 3439              	.LVL525:
 3440              		.loc 1 1155 0
 3441 014a 7848     		ldr	r0, .L313+4
 3442 014c FFF7FEFF 		bl	mc_interface_set_configuration
 3443              	.LVL526:
 3444              		.loc 1 1156 0
 3445 0150 6FF00A00 		mvn	r0, #10
 3446              	.LBE96:
 3447              	.LBE93:
 3448              		.loc 1 1253 0
 3449 0154 05B0     		add	sp, sp, #20
 3450              		.cfi_remember_state
 3451              		.cfi_def_cfa_offset 60
 3452              		@ sp needed
 3453 0156 BDEC068B 		vldm	sp!, {d8-d10}
 3454              		.cfi_restore 84
 3455              		.cfi_restore 85
 3456              		.cfi_restore 82
 3457              		.cfi_restore 83
 3458              		.cfi_restore 80
 3459              		.cfi_restore 81
 3460              		.cfi_def_cfa_offset 36
 3461              	.LVL527:
 3462 015a BDE8F08F 		pop	{r4, r5, r6, r7, r8, r9, r10, fp, pc}
 3463              	.LVL528:
 3464              	.L307:
 3465              		.cfi_restore_state
 3466              	.LBB97:
 3467              		.loc 1 1147 0
 3468 015e 9FED7C8A 		vldr.32	s16, .L313+40
 3469              	.LVL529:
 3470              	.L288:
 3471              	.LBE97:
 3472              		.loc 1 1164 0
 3473 0162 6420     		movs	r0, #100
 3474 0164 B0EE480A 		vmov.f32	s0, s16
 3475 0168 FFF7FEFF 		bl	mcpwm_foc_measure_resistance
 3476              	.LVL530:
 3477              		.loc 1 1165 0
ARM GAS  /tmp/ccH3nHCY.s 			page 62


 3478 016c 0021     		movs	r1, #0
 3479              		.loc 1 1164 0
 3480 016e F0EE408A 		vmov.f32	s17, s0
 3481              	.LVL531:
 3482              		.loc 1 1165 0
 3483 0172 6420     		movs	r0, #100
 3484 0174 B0EE480A 		vmov.f32	s0, s16
 3485              	.LVL532:
 3486 0178 FFF7FEFF 		bl	mcpwm_foc_measure_inductance_current
 3487              	.LVL533:
 3488 017c F0EE409A 		vmov.f32	s19, s0
 3489              	.LVL534:
 3490              		.loc 1 1166 0
 3491 0180 89EE280A 		vdiv.f32	s0, s18, s17
 3492              	.LVL535:
 3493 0184 B5EE400A 		vcmp.f32	s0, #0
 3494 0188 F1EE10FA 		vmrs	APSR_nzcv, FPSCR
 3495 018c B1EEC08A 		vsqrt.f32	s16, s0
 3496              	.LVL536:
 3497 0190 00F1C780 		bmi	.L311
 3498              	.L292:
 3499 0194 04A8     		add	r0, sp, #16
 3500 0196 18EE103A 		vmov	r3, s16
 3501              		.loc 1 1167 0
 3502 019a DFED700A 		vldr.32	s1, .L313+52
 3503 019e 9FED700A 		vldr.32	s0, .L313+56
 3504              		.loc 1 1166 0
 3505 01a2 40F8083D 		str	r3, [r0, #-8]!	@ float
 3506              		.loc 1 1167 0
 3507 01a6 FFF7FEFF 		bl	utils_truncate_number
 3508              	.LVL537:
 3509              		.loc 1 1172 0
 3510 01aa 6E4B     		ldr	r3, .L313+60
 3511              		.loc 1 1173 0
 3512 01ac 5E48     		ldr	r0, .L313
 3513              		.loc 1 1172 0
 3514 01ae C5F8B430 		str	r3, [r5, #180]	@ float
 3515              		.loc 1 1173 0
 3516 01b2 FFF7FEFF 		bl	mc_interface_set_configuration
 3517              	.LVL538:
 3518              		.loc 1 1176 0
 3519 01b6 9DED020A 		vldr.32	s0, [sp, #8]
 3520 01ba 9FED6B1A 		vldr.32	s2, .L313+64
 3521 01be DFED6B0A 		vldr.32	s1, .L313+68
 3522              		.loc 1 1175 0
 3523 01c2 04A8     		add	r0, sp, #16
 3524 01c4 0023     		movs	r3, #0
 3525              		.loc 1 1176 0
 3526 01c6 F0EE047A 		vmov.f32	s15, #2.5e+0
 3527              		.loc 1 1175 0
 3528 01ca 40F8043D 		str	r3, [r0, #-4]!	@ float
 3529              		.loc 1 1176 0
 3530 01ce 80EE270A 		vdiv.f32	s0, s0, s15
 3531 01d2 F0EE681A 		vmov.f32	s3, s17
 3532 01d6 FFF7FEFF 		bl	conf_general_measure_flux_linkage_openloop
 3533              	.LVL539:
 3534              		.loc 1 1188 0
ARM GAS  /tmp/ccH3nHCY.s 			page 63


 3535 01da 0028     		cmp	r0, #0
 3536 01dc 60D0     		beq	.L293
 3537              	.LBB98:
 3538              		.loc 1 1196 0
 3539 01de DFED645A 		vldr.32	s11, .L313+72
 3540 01e2 DDED037A 		vldr.32	s15, [sp, #12]
 3541              	.LBE98:
 3542              		.loc 1 1165 0
 3543 01e6 9FED637A 		vldr.32	s14, .L313+76
 3544              	.LBB99:
 3545              		.loc 1 1189 0
 3546 01ea 504D     		ldr	r5, .L313+4
 3547              		.loc 1 1204 0
 3548 01ec 9FED625A 		vldr.32	s10, .L313+80
 3549              		.loc 1 1194 0
 3550 01f0 9FED626A 		vldr.32	s12, .L313+84
 3551              		.loc 1 1189 0
 3552 01f4 DDED026A 		vldr.32	s13, [sp, #8]
 3553              		.loc 1 1199 0
 3554 01f8 C5ED388A 		vstr.32	s17, [r5, #224]
 3555              	.LVL540:
 3556              		.loc 1 1196 0
 3557 01fc C5EEA84A 		vdiv.f32	s9, s11, s17
 3558              		.loc 1 1198 0
 3559 0200 0223     		movs	r3, #2
 3560              	.LBE99:
 3561              		.loc 1 1219 0
 3562 0202 4046     		mov	r0, r8
 3563              	.LVL541:
 3564              	.LBB100:
 3565              		.loc 1 1198 0
 3566 0204 AB70     		strb	r3, [r5, #2]
 3567              	.LVL542:
 3568              	.LBE100:
 3569              		.loc 1 1227 0
 3570 0206 4FF47A74 		mov	r4, #1000
 3571              	.LBB101:
 3572              		.loc 1 1196 0
 3573 020a 67EEA75A 		vmul.f32	s11, s15, s15
 3574              	.LBE101:
 3575              		.loc 1 1165 0
 3576 020e 69EE879A 		vmul.f32	s19, s19, s14
 3577              	.LVL543:
 3578              	.LBB102:
 3579              		.loc 1 1196 0
 3580 0212 84EEA57A 		vdiv.f32	s14, s9, s11
 3581              		.loc 1 1195 0
 3582 0216 68EE868A 		vmul.f32	s17, s17, s12
 3583              	.LVL544:
 3584              		.loc 1 1194 0
 3585 021a 69EE865A 		vmul.f32	s11, s19, s12
 3586              		.loc 1 1204 0
 3587 021e 27EE057A 		vmul.f32	s14, s14, s10
 3588              		.loc 1 1190 0
 3589 0222 B1EE666A 		vneg.f32	s12, s13
 3590              	.LBE102:
 3591              		.loc 1 1219 0
ARM GAS  /tmp/ccH3nHCY.s 			page 64


 3592 0226 B0EE6A0A 		vmov.f32	s0, s21
 3593              	.LBB103:
 3594              		.loc 1 1204 0
 3595 022a 85ED3A7A 		vstr.32	s14, [r5, #232]
 3596              	.LVL545:
 3597              		.loc 1 1201 0
 3598 022e C5ED397A 		vstr.32	s15, [r5, #228]
 3599              	.LVL546:
 3600              		.loc 1 1189 0
 3601 0232 C5ED016A 		vstr.32	s13, [r5, #4]
 3602              		.loc 1 1190 0
 3603 0236 85ED026A 		vstr.32	s12, [r5, #8]
 3604              	.LVL547:
 3605              		.loc 1 1202 0
 3606 023a C5ED2B5A 		vstr.32	s11, [r5, #172]
 3607              	.LVL548:
 3608              		.loc 1 1200 0
 3609 023e C5ED379A 		vstr.32	s19, [r5, #220]
 3610              	.LVL549:
 3611              		.loc 1 1203 0
 3612 0242 C5ED2C8A 		vstr.32	s17, [r5, #176]
 3613              	.LVL550:
 3614              	.LBE103:
 3615              		.loc 1 1219 0
 3616 0246 FFF7FEFF 		bl	timeout_configure
 3617              	.LVL551:
 3618              		.loc 1 1220 0
 3619 024a FFF7FEFF 		bl	mc_interface_unlock
 3620              	.LVL552:
 3621              		.loc 1 1221 0
 3622 024e FFF7FEFF 		bl	mc_interface_release_motor
 3623              	.LVL553:
 3624              		.loc 1 1222 0
 3625 0252 2846     		mov	r0, r5
 3626 0254 FFF7FEFF 		bl	mc_interface_set_configuration
 3627              	.LVL554:
 3628              		.loc 1 1227 0
 3629 0258 2046     		mov	r0, r4
 3630              	.LBB104:
 3631              		.loc 1 1229 0
 3632 025a 9FED498A 		vldr.32	s16, .L313+88
 3633              	.LBE104:
 3634              		.loc 1 1227 0
 3635 025e FFF7FEFF 		bl	chThdSleep
 3636              	.LVL555:
 3637 0262 03E0     		b	.L296
 3638              	.LVL556:
 3639              	.L312:
 3640              	.LBB105:
 3641              		.loc 1 1230 0 discriminator 2
 3642 0264 FFF7FEFF 		bl	chThdSleep
 3643              	.LVL557:
 3644              		.loc 1 1228 0 discriminator 2
 3645 0268 013C     		subs	r4, r4, #1
 3646              	.LVL558:
 3647 026a 0AD0     		beq	.L294
 3648              	.LVL559:
ARM GAS  /tmp/ccH3nHCY.s 			page 65


 3649              	.L296:
 3650              		.loc 1 1229 0
 3651 026c FFF7FEFF 		bl	mc_interface_get_rpm
 3652              	.LVL560:
 3653 0270 B0EEC00A 		vabs.f32	s0, s0
 3654 0274 B4EEC80A 		vcmpe.f32	s0, s16
 3655 0278 F1EE10FA 		vmrs	APSR_nzcv, FPSCR
 3656              		.loc 1 1230 0
 3657 027c 4FF06400 		mov	r0, #100
 3658              		.loc 1 1229 0
 3659 0280 F0DC     		bgt	.L312
 3660              	.LVL561:
 3661              	.L294:
 3662              	.LBE105:
 3663              		.loc 1 1237 0
 3664 0282 9DED020A 		vldr.32	s0, [sp, #8]
 3665 0286 F0EE087A 		vmov.f32	s15, #3.0e+0
 3666 028a 80EE270A 		vdiv.f32	s0, s0, s15
 3667 028e 3946     		mov	r1, r7
 3668 0290 3046     		mov	r0, r6
 3669 0292 FFF7FEFF 		bl	conf_general_autodetect_apply_sensors_foc
 3670              	.LVL562:
 3671              		.loc 1 1253 0
 3672 0296 05B0     		add	sp, sp, #20
 3673              		.cfi_remember_state
 3674              		.cfi_def_cfa_offset 60
 3675              		@ sp needed
 3676 0298 BDEC068B 		vldm	sp!, {d8-d10}
 3677              		.cfi_restore 84
 3678              		.cfi_restore 85
 3679              		.cfi_restore 82
 3680              		.cfi_restore 83
 3681              		.cfi_restore 80
 3682              		.cfi_restore 81
 3683              		.cfi_def_cfa_offset 36
 3684              	.LVL563:
 3685 029c BDE8F08F 		pop	{r4, r5, r6, r7, r8, r9, r10, fp, pc}
 3686              	.LVL564:
 3687              	.L293:
 3688              		.cfi_restore_state
 3689              		.loc 1 1178 0
 3690 02a0 224C     		ldr	r4, .L313+4
 3691              		.loc 1 1219 0
 3692 02a2 B0EE6A0A 		vmov.f32	s0, s21
 3693              		.loc 1 1178 0
 3694 02a6 A378     		ldrb	r3, [r4, #2]	@ zero_extendqisi2
 3695 02a8 0193     		str	r3, [sp, #4]
 3696              		.loc 1 1219 0
 3697 02aa 4046     		mov	r0, r8
 3698              	.LVL565:
 3699              		.loc 1 1179 0
 3700 02ac 94ED388A 		vldr.32	s16, [r4, #224]
 3701              		.loc 1 1180 0
 3702 02b0 D4F8DCB0 		ldr	fp, [r4, #220]	@ float
 3703              		.loc 1 1181 0
 3704 02b4 D4F8E4A0 		ldr	r10, [r4, #228]	@ float
 3705              		.loc 1 1182 0
ARM GAS  /tmp/ccH3nHCY.s 			page 66


 3706 02b8 D4F8AC90 		ldr	r9, [r4, #172]	@ float
 3707              		.loc 1 1183 0
 3708 02bc D4F8B080 		ldr	r8, [r4, #176]	@ float
 3709              	.LVL566:
 3710              		.loc 1 1184 0
 3711 02c0 D4F8E870 		ldr	r7, [r4, #232]	@ float
 3712              		.loc 1 1185 0
 3713 02c4 94F82C61 		ldrb	r6, [r4, #300]	@ zero_extendqisi2
 3714              		.loc 1 1186 0
 3715 02c8 D4F83051 		ldr	r5, [r4, #304]	@ float
 3716              	.LVL567:
 3717              		.loc 1 1219 0
 3718 02cc FFF7FEFF 		bl	timeout_configure
 3719              	.LVL568:
 3720              		.loc 1 1220 0
 3721 02d0 FFF7FEFF 		bl	mc_interface_unlock
 3722              	.LVL569:
 3723              		.loc 1 1221 0
 3724 02d4 FFF7FEFF 		bl	mc_interface_release_motor
 3725              	.LVL570:
 3726              		.loc 1 1222 0
 3727 02d8 2046     		mov	r0, r4
 3728 02da FFF7FEFF 		bl	mc_interface_set_configuration
 3729              	.LVL571:
 3730              		.loc 1 1249 0
 3731 02de 2046     		mov	r0, r4
 3732              		.loc 1 1240 0
 3733 02e0 019B     		ldr	r3, [sp, #4]
 3734 02e2 A370     		strb	r3, [r4, #2]
 3735              		.loc 1 1241 0
 3736 02e4 84ED388A 		vstr.32	s16, [r4, #224]
 3737              		.loc 1 1242 0
 3738 02e8 C4F8DCB0 		str	fp, [r4, #220]	@ float
 3739              		.loc 1 1243 0
 3740 02ec C4F8E4A0 		str	r10, [r4, #228]	@ float
 3741              		.loc 1 1244 0
 3742 02f0 C4F8AC90 		str	r9, [r4, #172]	@ float
 3743              		.loc 1 1245 0
 3744 02f4 C4F8B080 		str	r8, [r4, #176]	@ float
 3745              		.loc 1 1246 0
 3746 02f8 C4F8E870 		str	r7, [r4, #232]	@ float
 3747              		.loc 1 1247 0
 3748 02fc 84F82C61 		strb	r6, [r4, #300]
 3749              		.loc 1 1248 0
 3750 0300 C4F83051 		str	r5, [r4, #304]	@ float
 3751              		.loc 1 1249 0
 3752 0304 FFF7FEFF 		bl	mc_interface_set_configuration
 3753              	.LVL572:
 3754              		.loc 1 1216 0
 3755 0308 6FF00900 		mvn	r0, #9
 3756              	.LVL573:
 3757              	.L281:
 3758              		.loc 1 1253 0
 3759 030c 05B0     		add	sp, sp, #20
 3760              		.cfi_remember_state
 3761              		.cfi_def_cfa_offset 60
 3762              		@ sp needed
ARM GAS  /tmp/ccH3nHCY.s 			page 67


 3763 030e BDEC068B 		vldm	sp!, {d8-d10}
 3764              		.cfi_restore 84
 3765              		.cfi_restore 85
 3766              		.cfi_restore 82
 3767              		.cfi_restore 83
 3768              		.cfi_restore 80
 3769              		.cfi_restore 81
 3770              		.cfi_def_cfa_offset 36
 3771              	.LVL574:
 3772 0312 BDE8F08F 		pop	{r4, r5, r6, r7, r8, r9, r10, fp, pc}
 3773              	.LVL575:
 3774              	.L310:
 3775              		.cfi_restore_state
 3776              		.loc 1 1125 0
 3777 0316 0548     		ldr	r0, .L313+4
 3778 0318 FFF7FEFF 		bl	mc_interface_set_configuration
 3779              	.LVL576:
 3780              		.loc 1 1126 0
 3781 031c 4FF0FF30 		mov	r0, #-1
 3782 0320 F4E7     		b	.L281
 3783              	.LVL577:
 3784              	.L311:
 3785              		.loc 1 1166 0
 3786 0322 FFF7FEFF 		bl	sqrtf
 3787              	.LVL578:
 3788 0326 35E7     		b	.L292
 3789              	.L314:
 3790              		.align	2
 3791              	.L313:
 3792 0328 00000000 		.word	.LANCHOR1
 3793 032c 00000000 		.word	.LANCHOR2
 3794 0330 00401C46 		.word	1176256512
 3795 0334 6F12033A 		.word	973279855
 3796 0338 00003443 		.word	1127481344
 3797 033c 0000A0C2 		.word	-1029701632
 3798 0340 00803B45 		.word	1161527296
 3799 0344 00409CC5 		.word	-979615744
 3800 0348 2E567C47 		.word	1199330862
 3801 034c 00007AC5 		.word	-981860352
 3802 0350 00000000 		.word	0
 3803 0354 00004842 		.word	1112014848
 3804 0358 CDCC8C3F 		.word	1066192077
 3805 035c 00009643 		.word	1133903872
 3806 0360 000096C3 		.word	3281387520
 3807 0364 00409C46 		.word	1184645120
 3808 0368 0000E144 		.word	1155596288
 3809 036c 9A99993E 		.word	1050253722
 3810 0370 ACC52737 		.word	925353388
 3811 0374 BD378635 		.word	897988541
 3812 0378 00247449 		.word	1232348160
 3813 037c FFFF7944 		.word	1148846079
 3814 0380 0000C842 		.word	1120403456
 3815              		.cfi_endproc
 3816              	.LFE273:
 3817              		.size	conf_general_detect_apply_all_foc, .-conf_general_detect_apply_all_foc
 3818              		.section	.text.conf_general_detect_apply_all_foc_can,"ax",%progbits
 3819              		.align	1
ARM GAS  /tmp/ccH3nHCY.s 			page 68


 3820              		.p2align 4,,15
 3821              		.global	conf_general_detect_apply_all_foc_can
 3822              		.syntax unified
 3823              		.thumb
 3824              		.thumb_func
 3825              		.fpu fpv4-sp-d16
 3826              		.type	conf_general_detect_apply_all_foc_can, %function
 3827              	conf_general_detect_apply_all_foc_can:
 3828              	.LFB274:
 3829              		.loc 1 1284 0
 3830              		.cfi_startproc
 3831              		@ args = 0, pretend = 0, frame = 376
 3832              		@ frame_needed = 0, uses_anonymous_args = 0
 3833              	.LVL579:
 3834 0000 2DE9F041 		push	{r4, r5, r6, r7, r8, lr}
 3835              		.cfi_def_cfa_offset 24
 3836              		.cfi_offset 4, -24
 3837              		.cfi_offset 5, -20
 3838              		.cfi_offset 6, -16
 3839              		.cfi_offset 7, -12
 3840              		.cfi_offset 8, -8
 3841              		.cfi_offset 14, -4
 3842 0004 2DED068B 		vpush.64	{d8, d9, d10}
 3843              		.cfi_def_cfa_offset 48
 3844              		.cfi_offset 80, -48
 3845              		.cfi_offset 81, -44
 3846              		.cfi_offset 82, -40
 3847              		.cfi_offset 83, -36
 3848              		.cfi_offset 84, -32
 3849              		.cfi_offset 85, -28
 3850 0008 DEB0     		sub	sp, sp, #376
 3851              		.cfi_def_cfa_offset 424
 3852              		.loc 1 1284 0
 3853 000a B0EE60AA 		vmov.f32	s20, s1
 3854 000e F0EE419A 		vmov.f32	s19, s2
 3855 0012 B0EE619A 		vmov.f32	s18, s3
 3856 0016 F0EE428A 		vmov.f32	s17, s4
 3857 001a B0EE408A 		vmov.f32	s16, s0
 3858 001e 0446     		mov	r4, r0
 3859              		.loc 1 1285 0
 3860 0020 FFF7FEFF 		bl	app_get_configuration
 3861              	.LVL580:
 3862 0024 4FF4BC72 		mov	r2, #376
 3863 0028 0146     		mov	r1, r0
 3864 002a 6846     		mov	r0, sp
 3865 002c FFF7FEFF 		bl	memcpy
 3866              	.LVL581:
 3867              		.loc 1 1286 0
 3868 0030 9DF80060 		ldrb	r6, [sp]	@ zero_extendqisi2
 3869              	.LVL582:
 3870              		.loc 1 1288 0
 3871 0034 6C4F     		ldr	r7, .L361
 3872 0036 FFF7FEFF 		bl	mc_interface_get_configuration
 3873              	.LVL583:
 3874 003a 4FF4E472 		mov	r2, #456
 3875 003e 0146     		mov	r1, r0
 3876 0040 3846     		mov	r0, r7
ARM GAS  /tmp/ccH3nHCY.s 			page 69


 3877 0042 FFF7FEFF 		bl	memcpy
 3878              	.LVL584:
 3879              		.loc 1 1290 0
 3880 0046 DFED697A 		vldr.32	s15, .L361+4
 3881              		.loc 1 1314 0
 3882 004a 6748     		ldr	r0, .L361
 3883              		.loc 1 1290 0
 3884 004c B0EECA7A 		vabs.f32	s14, s20
 3885 0050 B4EEE77A 		vcmpe.f32	s14, s15
 3886              		.loc 1 1296 0
 3887 0054 DFED657A 		vldr.32	s15, .L361+4
 3888              		.loc 1 1290 0
 3889 0058 F1EE10FA 		vmrs	APSR_nzcv, FPSCR
 3890              		.loc 1 1296 0
 3891 005c B0EEE97A 		vabs.f32	s14, s19
 3892              		.loc 1 1293 0
 3893 0060 DCBF     		itt	le
 3894 0062 634B     		ldrle	r3, .L361+8
 3895 0064 3B61     		strle	r3, [r7, #16]	@ float
 3896              		.loc 1 1296 0
 3897 0066 B4EEE77A 		vcmpe.f32	s14, s15
 3898              		.loc 1 1302 0
 3899 006a DFED607A 		vldr.32	s15, .L361+4
 3900              		.loc 1 1291 0
 3901 006e C8BF     		it	gt
 3902 0070 87ED04AA 		vstrgt.32	s20, [r7, #16]
 3903              		.loc 1 1302 0
 3904 0074 B0EEC97A 		vabs.f32	s14, s18
 3905              		.loc 1 1296 0
 3906 0078 F1EE10FA 		vmrs	APSR_nzcv, FPSCR
 3907              		.loc 1 1299 0
 3908 007c DCBF     		itt	le
 3909 007e 5D4B     		ldrle	r3, .L361+12
 3910 0080 FB60     		strle	r3, [r7, #12]	@ float
 3911              		.loc 1 1302 0
 3912 0082 B4EEE77A 		vcmpe.f32	s14, s15
 3913              		.loc 1 1308 0
 3914 0086 DFED597A 		vldr.32	s15, .L361+4
 3915              		.loc 1 1297 0
 3916 008a C8BF     		it	gt
 3917 008c C7ED039A 		vstrgt.32	s19, [r7, #12]
 3918              		.loc 1 1308 0
 3919 0090 B0EEE87A 		vabs.f32	s14, s17
 3920              		.loc 1 1302 0
 3921 0094 F1EE10FA 		vmrs	APSR_nzcv, FPSCR
 3922              		.loc 1 1305 0
 3923 0098 DCBF     		itt	le
 3924 009a 574B     		ldrle	r3, .L361+16
 3925 009c C7F80031 		strle	r3, [r7, #256]	@ float
 3926              		.loc 1 1308 0
 3927 00a0 B4EEE77A 		vcmpe.f32	s14, s15
 3928              		.loc 1 1303 0
 3929 00a4 C8BF     		it	gt
 3930 00a6 87ED409A 		vstrgt.32	s18, [r7, #256]
 3931              		.loc 1 1308 0
 3932 00aa F1EE10FA 		vmrs	APSR_nzcv, FPSCR
 3933              		.loc 1 1311 0
ARM GAS  /tmp/ccH3nHCY.s 			page 70


 3934 00ae D6BF     		itet	le
 3935 00b0 524B     		ldrle	r3, .L361+20
 3936              		.loc 1 1309 0
 3937 00b2 C7ED488A 		vstrgt.32	s17, [r7, #288]
 3938              		.loc 1 1311 0
 3939 00b6 C7F82031 		strle	r3, [r7, #288]	@ float
 3940              		.loc 1 1314 0
 3941 00ba FFF7FEFF 		bl	mc_interface_set_configuration
 3942              	.LVL585:
 3943              		.loc 1 1316 0
 3944 00be FFF7FEFF 		bl	comm_can_detect_all_foc_res_clear
 3945              	.LVL586:
 3946              		.loc 1 1318 0
 3947 00c2 002C     		cmp	r4, #0
 3948 00c4 00F08680 		beq	.L340
 3949              	.LBB106:
 3950              		.loc 1 1319 0
 3951 00c8 0024     		movs	r4, #0
 3952              	.LBE106:
 3953              		.loc 1 1315 0
 3954 00ca A046     		mov	r8, r4
 3955 00cc 02E0     		b	.L331
 3956              	.LVL587:
 3957              	.L329:
 3958              	.LBB107:
 3959              		.loc 1 1319 0 discriminator 2
 3960 00ce 0134     		adds	r4, r4, #1
 3961              	.LVL588:
 3962 00d0 FF2C     		cmp	r4, #255
 3963 00d2 27D0     		beq	.L328
 3964              	.LVL589:
 3965              	.L331:
 3966              		.loc 1 1320 0
 3967 00d4 E5B2     		uxtb	r5, r4
 3968 00d6 2846     		mov	r0, r5
 3969 00d8 FFF7FEFF 		bl	comm_can_ping
 3970              	.LVL590:
 3971 00dc 0028     		cmp	r0, #0
 3972 00de F6D0     		beq	.L329
 3973              		.loc 1 1321 0
 3974 00e0 D7ED030A 		vldr.32	s1, [r7, #12]
 3975 00e4 97ED040A 		vldr.32	s0, [r7, #16]
 3976 00e8 0021     		movs	r1, #0
 3977 00ea 2846     		mov	r0, r5
 3978 00ec FFF7FEFF 		bl	comm_can_conf_current_limits_in
 3979              	.LVL591:
 3980              		.loc 1 1322 0
 3981 00f0 D7ED480A 		vldr.32	s1, [r7, #288]
 3982 00f4 97ED400A 		vldr.32	s0, [r7, #256]
 3983 00f8 0021     		movs	r1, #0
 3984 00fa 2846     		mov	r0, r5
 3985 00fc FFF7FEFF 		bl	comm_can_conf_foc_erpms
 3986              	.LVL592:
 3987              		.loc 1 1323 0
 3988 0100 0121     		movs	r1, #1
 3989 0102 B0EE480A 		vmov.f32	s0, s16
 3990 0106 2846     		mov	r0, r5
ARM GAS  /tmp/ccH3nHCY.s 			page 71


 3991              		.loc 1 1324 0
 3992 0108 8844     		add	r8, r8, r1
 3993              	.LVL593:
 3994              		.loc 1 1323 0
 3995 010a FFF7FEFF 		bl	comm_can_detect_apply_all_foc
 3996              	.LVL594:
 3997              		.loc 1 1326 0
 3998 010e A642     		cmp	r6, r4
 3999              		.loc 1 1327 0
 4000 0110 04BF     		itt	eq
 4001 0112 0136     		addeq	r6, r6, #1
 4002              	.LVL595:
 4003 0114 F6B2     		uxtbeq	r6, r6
 4004              	.LVL596:
 4005              		.loc 1 1331 0
 4006 0116 FF2E     		cmp	r6, #255
 4007              		.loc 1 1319 0
 4008 0118 04F10104 		add	r4, r4, #1
 4009              	.LVL597:
 4010              		.loc 1 1331 0
 4011 011c 08BF     		it	eq
 4012 011e 0026     		moveq	r6, #0
 4013              	.LVL598:
 4014              		.loc 1 1319 0
 4015 0120 FF2C     		cmp	r4, #255
 4016 0122 D7D1     		bne	.L331
 4017              	.LVL599:
 4018              	.L328:
 4019              	.LBE107:
 4020              		.loc 1 1337 0
 4021 0124 0021     		movs	r1, #0
 4022 0126 B0EE480A 		vmov.f32	s0, s16
 4023 012a 0846     		mov	r0, r1
 4024 012c FFF7FEFF 		bl	conf_general_detect_apply_all_foc
 4025              	.LVL600:
 4026 0130 4FF47A64 		mov	r4, #4000
 4027 0134 0546     		mov	r5, r0
 4028              	.LVL601:
 4029 0136 03E0     		b	.L335
 4030              	.LVL602:
 4031              	.L332:
 4032              	.LBB108:
 4033              		.loc 1 1346 0 discriminator 2
 4034 0138 FFF7FEFF 		bl	chThdSleep
 4035              	.LVL603:
 4036              		.loc 1 1341 0 discriminator 2
 4037 013c 013C     		subs	r4, r4, #1
 4038              	.LVL604:
 4039 013e 4BD0     		beq	.L360
 4040              	.LVL605:
 4041              	.L335:
 4042              		.loc 1 1342 0
 4043 0140 FFF7FEFF 		bl	comm_can_detect_all_foc_res_size
 4044              	.LVL606:
 4045 0144 4045     		cmp	r0, r8
 4046              		.loc 1 1346 0
 4047 0146 4FF06400 		mov	r0, #100
ARM GAS  /tmp/ccH3nHCY.s 			page 72


 4048              		.loc 1 1342 0
 4049 014a F5DB     		blt	.L332
 4050              	.LVL607:
 4051              	.LBE108:
 4052              	.LBB109:
 4053              		.loc 1 1352 0
 4054 014c B8F1000F 		cmp	r8, #0
 4055 0150 0ADD     		ble	.L334
 4056 0152 0024     		movs	r4, #0
 4057              	.LVL608:
 4058              	.L333:
 4059              		.loc 1 1353 0
 4060 0154 2046     		mov	r0, r4
 4061 0156 FFF7FEFF 		bl	comm_can_detect_all_foc_res
 4062              	.LVL609:
 4063              		.loc 1 1352 0
 4064 015a 0134     		adds	r4, r4, #1
 4065              	.LVL610:
 4066              		.loc 1 1354 0
 4067 015c 0028     		cmp	r0, #0
 4068 015e B8BF     		it	lt
 4069 0160 6FF03205 		mvnlt	r5, #50
 4070              	.LVL611:
 4071              		.loc 1 1352 0
 4072 0164 A045     		cmp	r8, r4
 4073 0166 F5D1     		bne	.L333
 4074              	.LVL612:
 4075              	.L334:
 4076              	.LBE109:
 4077              		.loc 1 1360 0
 4078 0168 002D     		cmp	r5, #0
 4079 016a 2DDB     		blt	.L315
 4080              		.loc 1 1361 0
 4081 016c 9DF80030 		ldrb	r3, [sp]	@ zero_extendqisi2
 4082 0170 B342     		cmp	r3, r6
 4083 0172 03D1     		bne	.L338
 4084              		.loc 1 1361 0 is_stmt 0 discriminator 1
 4085 0174 9DF80C30 		ldrb	r3, [sp, #12]	@ zero_extendqisi2
 4086 0178 042B     		cmp	r3, #4
 4087 017a 12D0     		beq	.L339
 4088              	.L338:
 4089              		.loc 1 1363 0 is_stmt 1
 4090 017c 0423     		movs	r3, #4
 4091              		.loc 1 1364 0
 4092 017e 6846     		mov	r0, sp
 4093              		.loc 1 1363 0
 4094 0180 8DF80C30 		strb	r3, [sp, #12]
 4095              		.loc 1 1362 0
 4096 0184 8DF80060 		strb	r6, [sp]
 4097              		.loc 1 1364 0
 4098 0188 FFF7FEFF 		bl	conf_general_store_app_configuration
 4099              	.LVL613:
 4100              		.loc 1 1365 0
 4101 018c 6846     		mov	r0, sp
 4102 018e FFF7FEFF 		bl	app_set_configuration
 4103              	.LVL614:
 4104              		.loc 1 1366 0
ARM GAS  /tmp/ccH3nHCY.s 			page 73


 4105 0192 1120     		movs	r0, #17
 4106 0194 6946     		mov	r1, sp
 4107 0196 FFF7FEFF 		bl	commands_send_appconf
 4108              	.LVL615:
 4109              		.loc 1 1367 0
 4110 019a 42F21070 		movw	r0, #10000
 4111 019e FFF7FEFF 		bl	chThdSleep
 4112              	.LVL616:
 4113              	.L339:
 4114              		.loc 1 1370 0
 4115 01a2 FFF7FEFF 		bl	mc_interface_get_configuration
 4116              	.LVL617:
 4117 01a6 4FF4E472 		mov	r2, #456
 4118 01aa 0146     		mov	r1, r0
 4119 01ac 0E48     		ldr	r0, .L361
 4120 01ae FFF7FEFF 		bl	memcpy
 4121              	.LVL618:
 4122              		.loc 1 1371 0
 4123 01b2 0D48     		ldr	r0, .L361
 4124 01b4 FFF7FEFF 		bl	conf_general_store_mc_configuration
 4125              	.LVL619:
 4126              		.loc 1 1372 0
 4127 01b8 0E20     		movs	r0, #14
 4128 01ba 0B49     		ldr	r1, .L361
 4129 01bc FFF7FEFF 		bl	commands_send_mcconf
 4130              	.LVL620:
 4131              		.loc 1 1373 0
 4132 01c0 42F21070 		movw	r0, #10000
 4133 01c4 FFF7FEFF 		bl	chThdSleep
 4134              	.LVL621:
 4135              	.L315:
 4136              		.loc 1 1377 0
 4137 01c8 2846     		mov	r0, r5
 4138 01ca 5EB0     		add	sp, sp, #376
 4139              		.cfi_remember_state
 4140              		.cfi_def_cfa_offset 48
 4141              		@ sp needed
 4142 01cc BDEC068B 		vldm	sp!, {d8-d10}
 4143              		.cfi_restore 84
 4144              		.cfi_restore 85
 4145              		.cfi_restore 82
 4146              		.cfi_restore 83
 4147              		.cfi_restore 80
 4148              		.cfi_restore 81
 4149              		.cfi_def_cfa_offset 24
 4150              	.LVL622:
 4151 01d0 BDE8F081 		pop	{r4, r5, r6, r7, r8, pc}
 4152              	.LVL623:
 4153              	.L340:
 4154              		.cfi_restore_state
 4155              		.loc 1 1315 0
 4156 01d4 A046     		mov	r8, r4
 4157 01d6 A5E7     		b	.L328
 4158              	.LVL624:
 4159              	.L360:
 4160              		.loc 1 1350 0
 4161 01d8 6FF03105 		mvn	r5, #49
ARM GAS  /tmp/ccH3nHCY.s 			page 74


 4162              	.LVL625:
 4163              		.loc 1 1377 0
 4164 01dc 2846     		mov	r0, r5
 4165 01de 5EB0     		add	sp, sp, #376
 4166              		.cfi_def_cfa_offset 48
 4167              		@ sp needed
 4168 01e0 BDEC068B 		vldm	sp!, {d8-d10}
 4169              		.cfi_restore 84
 4170              		.cfi_restore 85
 4171              		.cfi_restore 82
 4172              		.cfi_restore 83
 4173              		.cfi_restore 80
 4174              		.cfi_restore 81
 4175              		.cfi_def_cfa_offset 24
 4176              	.LVL626:
 4177 01e4 BDE8F081 		pop	{r4, r5, r6, r7, r8, pc}
 4178              	.LVL627:
 4179              	.L362:
 4180              		.align	2
 4181              	.L361:
 4182 01e8 00000000 		.word	.LANCHOR1
 4183 01ec 6F12833A 		.word	981668463
 4184 01f0 000020C2 		.word	-1038090240
 4185 01f4 00006842 		.word	1114112000
 4186 01f8 0000C843 		.word	1137180672
 4187 01fc 00A00C46 		.word	1175232512
 4188              		.cfi_endproc
 4189              	.LFE274:
 4190              		.size	conf_general_detect_apply_all_foc_can, .-conf_general_detect_apply_all_foc_can
 4191              		.global	conf_general_permanent_nrf_found
 4192              		.global	VirtAddVarTab
 4193              		.section	.bss.VirtAddVarTab,"aw",%nobits
 4194              		.align	2
 4195              		.set	.LANCHOR0,. + 0
 4196              		.type	VirtAddVarTab, %object
 4197              		.size	VirtAddVarTab, 1092
 4198              	VirtAddVarTab:
 4199 0000 00000000 		.space	1092
 4199      00000000 
 4199      00000000 
 4199      00000000 
 4199      00000000 
 4200              		.section	.bss.conf_general_permanent_nrf_found,"aw",%nobits
 4201              		.type	conf_general_permanent_nrf_found, %object
 4202              		.size	conf_general_permanent_nrf_found, 1
 4203              	conf_general_permanent_nrf_found:
 4204 0000 00       		.space	1
 4205              		.section	.bss.mcconf,"aw",%nobits
 4206              		.align	2
 4207              		.set	.LANCHOR1,. + 0
 4208              		.type	mcconf, %object
 4209              		.size	mcconf, 456
 4210              	mcconf:
 4211 0000 00000000 		.space	456
 4211      00000000 
 4211      00000000 
 4211      00000000 
ARM GAS  /tmp/ccH3nHCY.s 			page 75


 4211      00000000 
 4212              		.section	.bss.mcconf_old,"aw",%nobits
 4213              		.align	2
 4214              		.set	.LANCHOR2,. + 0
 4215              		.type	mcconf_old, %object
 4216              		.size	mcconf_old, 456
 4217              	mcconf_old:
 4218 0000 00000000 		.space	456
 4218      00000000 
 4218      00000000 
 4218      00000000 
 4218      00000000 
 4219              		.section	.bss.mcconf_old_second,"aw",%nobits
 4220              		.align	2
 4221              		.set	.LANCHOR3,. + 0
 4222              		.type	mcconf_old_second, %object
 4223              		.size	mcconf_old_second, 456
 4224              	mcconf_old_second:
 4225 0000 00000000 		.space	456
 4225      00000000 
 4225      00000000 
 4225      00000000 
 4225      00000000 
 4226              		.section	.rodata.save_odo_value.str1.4,"aMS",%progbits,1
 4227              		.align	2
 4228              	.LC0:
 4229 0000 466C6173 		.ascii	"Flash failed\012\000"
 4229      68206661 
 4229      696C6564 
 4229      0A00
 4230              		.text
 4231              	.Letext0:
 4232              		.file 2 "/usr/arm-none-eabi/include/machine/_default_types.h"
 4233              		.file 3 "/usr/arm-none-eabi/include/sys/_stdint.h"
 4234              		.file 4 "/usr/lib/gcc/arm-none-eabi/7.3.1/include/stddef.h"
 4235              		.file 5 "ChibiOS_3.0.2/os/rt/ports/ARMCMx/compilers/GCC/chtypes.h"
 4236              		.file 6 "ChibiOS_3.0.2/os/rt/include/chsystypes.h"
 4237              		.file 7 "ChibiOS_3.0.2/os/rt/include/chschd.h"
 4238              		.file 8 "ChibiOS_3.0.2/os/ext/CMSIS/include/core_cm4.h"
 4239              		.file 9 "ChibiOS_3.0.2/os/ext/CMSIS/ST/system_stm32f4xx.h"
 4240              		.file 10 "ChibiOS_3.0.2/os/ext/CMSIS/ST/stm32f407xx.h"
 4241              		.file 11 "ChibiOS_3.0.2/os/rt/ports/ARMCMx/chcore.h"
 4242              		.file 12 "ChibiOS_3.0.2/os/rt/ports/ARMCMx/chcore_v7m.h"
 4243              		.file 13 "ChibiOS_3.0.2/os/rt/include/chtm.h"
 4244              		.file 14 "ChibiOS_3.0.2/os/rt/include/chsem.h"
 4245              		.file 15 "ChibiOS_3.0.2/os/rt/include/chmtx.h"
 4246              		.file 16 "ChibiOS_3.0.2/os/rt/include/chregistry.h"
 4247              		.file 17 "ChibiOS_3.0.2/os/rt/include/chevents.h"
 4248              		.file 18 "ChibiOS_3.0.2/os/rt/include/chqueues.h"
 4249              		.file 19 "datatypes.h"
 4250              		.file 20 "ChibiOS_3.0.2/ext/stdperiph_stm32f4/inc/stm32f4xx_flash.h"
 4251              		.file 21 "conf_general.h"
 4252              		.file 22 "mcpwm.h"
 4253              		.file 23 "mc_interface.h"
 4254              		.file 24 "ChibiOS_3.0.2/os/hal/ports/STM32/STM32F4xx/stm32_dma.h"
 4255              		.file 25 "ChibiOS_3.0.2/os/hal/ports/STM32/LLD/GPIOv2/pal_lld.h"
 4256              		.file 26 "ChibiOS_3.0.2/os/hal/include/can.h"
ARM GAS  /tmp/ccH3nHCY.s 			page 76


 4257              		.file 27 "ChibiOS_3.0.2/os/hal/ports/STM32/LLD/can_lld.h"
 4258              		.file 28 "ChibiOS_3.0.2/os/hal/include/i2c.h"
 4259              		.file 29 "ChibiOS_3.0.2/os/hal/ports/STM32/LLD/I2Cv1/i2c_lld.h"
 4260              		.file 30 "ChibiOS_3.0.2/os/hal/include/icu.h"
 4261              		.file 31 "ChibiOS_3.0.2/os/hal/ports/STM32/LLD/TIMv1/icu_lld.h"
 4262              		.file 32 "ChibiOS_3.0.2/os/hal/ports/STM32/LLD/TIMv1/stm32_tim.h"
 4263              		.file 33 "ChibiOS_3.0.2/os/hal/include/serial.h"
 4264              		.file 34 "ChibiOS_3.0.2/os/hal/ports/STM32/LLD/USARTv1/serial_lld.h"
 4265              		.file 35 "ChibiOS_3.0.2/os/hal/include/spi.h"
 4266              		.file 36 "ChibiOS_3.0.2/os/hal/ports/STM32/LLD/SPIv1/spi_lld.h"
 4267              		.file 37 "ChibiOS_3.0.2/os/hal/include/usb.h"
 4268              		.file 38 "ChibiOS_3.0.2/os/hal/ports/STM32/LLD/OTGv1/usb_lld.h"
 4269              		.file 39 "ChibiOS_3.0.2/os/hal/ports/STM32/LLD/OTGv1/stm32_otg.h"
 4270              		.file 40 "/usr/arm-none-eabi/include/sys/lock.h"
 4271              		.file 41 "/usr/arm-none-eabi/include/sys/_types.h"
 4272              		.file 42 "/usr/arm-none-eabi/include/sys/reent.h"
 4273              		.file 43 "/usr/arm-none-eabi/include/math.h"
 4274              		.file 44 "comm_can.h"
 4275              		.file 45 "ChibiOS_3.0.2/os/rt/include/chthreads.h"
 4276              		.file 46 "applications/app.h"
 4277              		.file 47 "commands.h"
 4278              		.file 48 "mcpwm_foc.h"
 4279              		.file 49 "timeout.h"
 4280              		.file 50 "utils.h"
 4281              		.file 51 "encoder.h"
 4282              		.file 52 "eeprom.h"
 4283              		.file 53 "confgenerator.h"
 4284              		.file 54 "<built-in>"