ARM GAS  /tmp/cc6nscCq.s 			page 1


   1              		.cpu cortex-m4
   2              		.eabi_attribute 27, 1
   3              		.eabi_attribute 28, 1
   4              		.eabi_attribute 20, 1
   5              		.eabi_attribute 21, 1
   6              		.eabi_attribute 23, 3
   7              		.eabi_attribute 24, 1
   8              		.eabi_attribute 25, 1
   9              		.eabi_attribute 26, 1
  10              		.eabi_attribute 30, 2
  11              		.eabi_attribute 34, 1
  12              		.eabi_attribute 18, 4
  13              		.file	"mcpwm.c"
  14              		.text
  15              	.Ltext0:
  16              		.cfi_sections	.debug_frame
  17              		.section	.text.update_adc_sample_pos,"ax",%progbits
  18              		.align	1
  19              		.p2align 4,,15
  20              		.syntax unified
  21              		.thumb
  22              		.thumb_func
  23              		.fpu fpv4-sp-d16
  24              		.type	update_adc_sample_pos, %function
  25              	update_adc_sample_pos:
  26              	.LFB317:
  27              		.file 1 "mcpwm.c"
  28              		.loc 1 2306 0
  29              		.cfi_startproc
  30              		@ args = 0, pretend = 0, frame = 24
  31              		@ frame_needed = 0, uses_anonymous_args = 0
  32              		@ link register save eliminated.
  33              	.LVL0:
  34 0000 F0B4     		push	{r4, r5, r6, r7}
  35              		.cfi_def_cfa_offset 16
  36              		.cfi_offset 4, -16
  37              		.cfi_offset 5, -12
  38              		.cfi_offset 6, -8
  39              		.cfi_offset 7, -4
  40 0002 86B0     		sub	sp, sp, #24
  41              		.cfi_def_cfa_offset 40
  42              		.loc 1 2307 0
  43 0004 8268     		ldr	r2, [r0, #8]
  44 0006 0092     		str	r2, [sp]
  45              		.loc 1 2308 0
  46 0008 4268     		ldr	r2, [r0, #4]
  47 000a 0192     		str	r2, [sp, #4]
  48              		.loc 1 2309 0
  49 000c C268     		ldr	r2, [r0, #12]
  50 000e 0292     		str	r2, [sp, #8]
  51              		.loc 1 2310 0
  52 0010 0269     		ldr	r2, [r0, #16]
  53 0012 0392     		str	r2, [sp, #12]
  54              		.loc 1 2311 0
  55 0014 4269     		ldr	r2, [r0, #20]
  56 0016 0492     		str	r2, [sp, #16]
  57              		.loc 1 2314 0
ARM GAS  /tmp/cc6nscCq.s 			page 2


  58 0018 8269     		ldr	r2, [r0, #24]
  59              		.loc 1 2317 0
  60 001a 6B4B     		ldr	r3, .L46
  61              		.loc 1 2314 0
  62 001c 0592     		str	r2, [sp, #20]
  63              		.loc 1 2317 0
  64 001e DDED017A 		vldr.32	s15, [sp, #4]	@ int
  65 0022 1B68     		ldr	r3, [r3]
  66 0024 F8EE677A 		vcvt.f32.u32	s15, s15
  67 0028 93ED167A 		vldr.32	s14, [r3, #88]
  68 002c 009A     		ldr	r2, [sp]
  69 002e 67EE877A 		vmul.f32	s15, s15, s14
  70 0032 FCEEE77A 		vcvt.u32.f32	s15, s15
  71 0036 17EE901A 		vmov	r1, s15	@ int
  72 003a 9142     		cmp	r1, r2
  73 003c 0BD2     		bcs	.L2
  74              		.loc 1 2318 0
  75 003e DDED017A 		vldr.32	s15, [sp, #4]	@ int
  76 0042 93ED167A 		vldr.32	s14, [r3, #88]
  77 0046 F8EE677A 		vcvt.f32.u32	s15, s15
  78 004a 67EE877A 		vmul.f32	s15, s15, s14
  79 004e FCEEE77A 		vcvt.u32.f32	s15, s15
  80 0052 CDED007A 		vstr.32	s15, [sp]	@ int
  81              	.L2:
  82              		.loc 1 2321 0
  83 0056 5D4A     		ldr	r2, .L46+4
  84 0058 0021     		movs	r1, #0
  85 005a 1160     		str	r1, [r2]
  86              		.loc 1 2323 0
  87 005c 9978     		ldrb	r1, [r3, #2]	@ zero_extendqisi2
  88 005e 0129     		cmp	r1, #1
  89 0060 50D0     		beq	.L43
  90              		.loc 1 2344 0
  91 0062 5B49     		ldr	r1, .L46+8
  92 0064 0978     		ldrb	r1, [r1]	@ zero_extendqisi2
  93 0066 0129     		cmp	r1, #1
  94 0068 29D0     		beq	.L44
  95              		.loc 1 2355 0
  96 006a 1B78     		ldrb	r3, [r3]	@ zero_extendqisi2
  97 006c 022B     		cmp	r3, #2
  98 006e 63D0     		beq	.L45
  99              		.loc 1 2440 0
 100 0070 009B     		ldr	r3, [sp]
 101 0072 5B08     		lsrs	r3, r3, #1
 102 0074 0293     		str	r3, [sp, #8]
 103              		.loc 1 2443 0
 104 0076 0199     		ldr	r1, [sp, #4]
 105 0078 009C     		ldr	r4, [sp]
 106 007a 009B     		ldr	r3, [sp]
 107 007c 091B     		subs	r1, r1, r4
 108 007e 03EB5103 		add	r3, r3, r1, lsr #1
 109 0082 0393     		str	r3, [sp, #12]
 110              		.loc 1 2444 0
 111 0084 019B     		ldr	r3, [sp, #4]
 112 0086 0399     		ldr	r1, [sp, #12]
 113 0088 463B     		subs	r3, r3, #70
 114 008a 8B42     		cmp	r3, r1
ARM GAS  /tmp/cc6nscCq.s 			page 3


 115 008c 02D2     		bcs	.L22
 116              		.loc 1 2445 0
 117 008e 019B     		ldr	r3, [sp, #4]
 118 0090 463B     		subs	r3, r3, #70
 119 0092 0393     		str	r3, [sp, #12]
 120              	.L22:
 121              		.loc 1 2448 0
 122 0094 039B     		ldr	r3, [sp, #12]
 123 0096 0493     		str	r3, [sp, #16]
 124              		.loc 1 2450 0
 125 0098 039B     		ldr	r3, [sp, #12]
 126 009a 0593     		str	r3, [sp, #20]
 127              		.loc 1 2455 0
 128 009c 0199     		ldr	r1, [sp, #4]
 129 009e 009B     		ldr	r3, [sp]
 130 00a0 B3EB510F 		cmp	r3, r1, lsr #1
 131 00a4 23D9     		bls	.L5
 132              		.loc 1 2478 0
 133 00a6 4B4B     		ldr	r3, .L46+12
 134 00a8 1B68     		ldr	r3, [r3]
 135              		.loc 1 2489 0
 136 00aa 4B4B     		ldr	r3, .L46+16
 137 00ac 1B68     		ldr	r3, [r3]
 138 00ae 013B     		subs	r3, r3, #1
 139 00b0 052B     		cmp	r3, #5
 140 00b2 1CD8     		bhi	.L5
 141 00b4 DFE803F0 		tbb	[pc, r3]
 142              	.L32:
 143 00b8 3D       		.byte	(.L37-.L32)/2
 144 00b9 3D       		.byte	(.L37-.L32)/2
 145 00ba 3D       		.byte	(.L37-.L32)/2
 146 00bb 3D       		.byte	(.L37-.L32)/2
 147 00bc 3D       		.byte	(.L37-.L32)/2
 148 00bd 3D       		.byte	(.L37-.L32)/2
 149              		.p2align 1
 150              	.L44:
 151              		.loc 1 2346 0
 152 00be 009B     		ldr	r3, [sp]
 153 00c0 5B08     		lsrs	r3, r3, #1
 154 00c2 0293     		str	r3, [sp, #8]
 155              		.loc 1 2349 0
 156 00c4 019A     		ldr	r2, [sp, #4]
 157 00c6 0099     		ldr	r1, [sp]
 158 00c8 009B     		ldr	r3, [sp]
 159 00ca 521A     		subs	r2, r2, r1
 160 00cc 03EB5203 		add	r3, r3, r2, lsr #1
 161 00d0 0393     		str	r3, [sp, #12]
 162              		.loc 1 2350 0
 163 00d2 019A     		ldr	r2, [sp, #4]
 164 00d4 0099     		ldr	r1, [sp]
 165 00d6 009B     		ldr	r3, [sp]
 166 00d8 521A     		subs	r2, r2, r1
 167 00da 03EB5203 		add	r3, r3, r2, lsr #1
 168 00de 0493     		str	r3, [sp, #16]
 169              		.loc 1 2352 0
 170 00e0 019A     		ldr	r2, [sp, #4]
 171 00e2 0099     		ldr	r1, [sp]
ARM GAS  /tmp/cc6nscCq.s 			page 4


 172 00e4 009B     		ldr	r3, [sp]
 173 00e6 521A     		subs	r2, r2, r1
 174 00e8 03EB5203 		add	r3, r3, r2, lsr #1
 175 00ec 0593     		str	r3, [sp, #20]
 176              	.L5:
 177              		.loc 1 2527 0
 178 00ee 029B     		ldr	r3, [sp, #8]
 179 00f0 C360     		str	r3, [r0, #12]
 180              		.loc 1 2528 0
 181 00f2 039B     		ldr	r3, [sp, #12]
 182 00f4 0361     		str	r3, [r0, #16]
 183              		.loc 1 2529 0
 184 00f6 049B     		ldr	r3, [sp, #16]
 185 00f8 4361     		str	r3, [r0, #20]
 186              		.loc 1 2531 0
 187 00fa 059B     		ldr	r3, [sp, #20]
 188 00fc 8361     		str	r3, [r0, #24]
 189              		.loc 1 2533 0
 190 00fe 06B0     		add	sp, sp, #24
 191              		.cfi_remember_state
 192              		.cfi_def_cfa_offset 16
 193              		@ sp needed
 194 0100 F0BC     		pop	{r4, r5, r6, r7}
 195              		.cfi_restore 7
 196              		.cfi_restore 6
 197              		.cfi_restore 5
 198              		.cfi_restore 4
 199              		.cfi_def_cfa_offset 0
 200 0102 7047     		bx	lr
 201              	.L43:
 202              		.cfi_restore_state
 203              		.loc 1 2324 0
 204 0104 019B     		ldr	r3, [sp, #4]
 205 0106 0A3B     		subs	r3, r3, #10
 206 0108 0393     		str	r3, [sp, #12]
 207              		.loc 1 2325 0
 208 010a 019B     		ldr	r3, [sp, #4]
 209 010c 0A3B     		subs	r3, r3, #10
 210 010e 0493     		str	r3, [sp, #16]
 211              		.loc 1 2327 0
 212 0110 019B     		ldr	r3, [sp, #4]
 213 0112 0A3B     		subs	r3, r3, #10
 214 0114 0593     		str	r3, [sp, #20]
 215              		.loc 1 2330 0
 216 0116 009B     		ldr	r3, [sp]
 217 0118 B3F57A7F 		cmp	r3, #1000
 218              		.loc 1 2331 0
 219 011c 009B     		ldr	r3, [sp]
 220              		.loc 1 2330 0
 221 011e 02D9     		bls	.L4
 222              		.loc 1 2331 0
 223 0120 5B08     		lsrs	r3, r3, #1
 224 0122 0293     		str	r3, [sp, #8]
 225 0124 E3E7     		b	.L5
 226              	.L4:
 227              		.loc 1 2334 0
 228 0126 0721     		movs	r1, #7
ARM GAS  /tmp/cc6nscCq.s 			page 5


 229              		.loc 1 2333 0
 230 0128 03F54873 		add	r3, r3, #800
 231 012c 0293     		str	r3, [sp, #8]
 232              		.loc 1 2334 0
 233 012e 1160     		str	r1, [r2]
 234 0130 DDE7     		b	.L5
 235              	.L37:
 236              		.loc 1 2495 0
 237 0132 0123     		movs	r3, #1
 238 0134 1360     		str	r3, [r2]
 239 0136 DAE7     		b	.L5
 240              	.L45:
 241              	.LBB74:
 242              		.loc 1 2356 0
 243 0138 019D     		ldr	r5, [sp, #4]
 244              		.loc 1 2357 0
 245 013a 0199     		ldr	r1, [sp, #4]
 246 013c 009F     		ldr	r7, [sp]
 247 013e 009E     		ldr	r6, [sp]
 248              		.loc 1 2358 0
 249 0140 019C     		ldr	r4, [sp, #4]
 250              		.loc 1 2361 0
 251 0142 019B     		ldr	r3, [sp, #4]
 252 0144 9B08     		lsrs	r3, r3, #2
 253 0146 0293     		str	r3, [sp, #8]
 254              		.loc 1 2358 0
 255 0148 023C     		subs	r4, r4, #2
 256              		.loc 1 2369 0
 257 014a 234B     		ldr	r3, .L46+16
 258              		.loc 1 2366 0
 259 014c 0594     		str	r4, [sp, #20]
 260              		.loc 1 2369 0
 261 014e 1B68     		ldr	r3, [r3]
 262              		.loc 1 2357 0
 263 0150 C91B     		subs	r1, r1, r7
 264              		.loc 1 2369 0
 265 0152 013B     		subs	r3, r3, #1
 266              		.loc 1 2356 0
 267 0154 023D     		subs	r5, r5, #2
 268              	.LVL1:
 269              		.loc 1 2357 0
 270 0156 06EB5101 		add	r1, r6, r1, lsr #1
 271              	.LVL2:
 272              		.loc 1 2369 0
 273 015a 052B     		cmp	r3, #5
 274 015c C7D8     		bhi	.L5
 275 015e DFE803F0 		tbb	[pc, r3]
 276              	.L10:
 277 0162 29       		.byte	(.L9-.L10)/2
 278 0163 20       		.byte	(.L11-.L10)/2
 279 0164 1A       		.byte	(.L12-.L10)/2
 280 0165 14       		.byte	(.L13-.L10)/2
 281 0166 0B       		.byte	(.L14-.L10)/2
 282 0167 03       		.byte	(.L15-.L10)/2
 283              		.p2align 1
 284              	.L15:
 285              		.loc 1 2427 0
ARM GAS  /tmp/cc6nscCq.s 			page 6


 286 0168 1A4B     		ldr	r3, .L46+12
 287 016a 1B68     		ldr	r3, [r3]
 288 016c 43B1     		cbz	r3, .L21
 289              	.L41:
 290              		.loc 1 2430 0
 291 016e 0123     		movs	r3, #1
 292              		.loc 1 2428 0
 293 0170 0395     		str	r5, [sp, #12]
 294              		.loc 1 2429 0
 295 0172 0494     		str	r4, [sp, #16]
 296              		.loc 1 2430 0
 297 0174 1360     		str	r3, [r2]
 298 0176 BAE7     		b	.L5
 299              	.L14:
 300              		.loc 1 2415 0
 301 0178 164B     		ldr	r3, .L46+12
 302 017a 1B68     		ldr	r3, [r3]
 303 017c 002B     		cmp	r3, #0
 304 017e F6D0     		beq	.L41
 305              	.L21:
 306              		.loc 1 2434 0
 307 0180 0123     		movs	r3, #1
 308              		.loc 1 2432 0
 309 0182 0395     		str	r5, [sp, #12]
 310              		.loc 1 2433 0
 311 0184 0491     		str	r1, [sp, #16]
 312              		.loc 1 2434 0
 313 0186 1360     		str	r3, [r2]
 314 0188 B1E7     		b	.L5
 315              	.L13:
 316              		.loc 1 2404 0
 317 018a 124B     		ldr	r3, .L46+12
 318 018c 1B68     		ldr	r3, [r3]
 319 018e ABB1     		cbz	r3, .L19
 320              	.L39:
 321              		.loc 1 2405 0
 322 0190 0394     		str	r4, [sp, #12]
 323              		.loc 1 2406 0
 324 0192 0491     		str	r1, [sp, #16]
 325 0194 ABE7     		b	.L5
 326              	.L12:
 327              		.loc 1 2393 0
 328 0196 0F4B     		ldr	r3, .L46+12
 329 0198 1B68     		ldr	r3, [r3]
 330 019a 33B1     		cbz	r3, .L18
 331              	.L40:
 332              		.loc 1 2394 0
 333 019c 0391     		str	r1, [sp, #12]
 334              		.loc 1 2395 0
 335 019e 0494     		str	r4, [sp, #16]
 336 01a0 A5E7     		b	.L5
 337              	.L11:
 338              		.loc 1 2382 0
 339 01a2 0C4B     		ldr	r3, .L46+12
 340 01a4 1B68     		ldr	r3, [r3]
 341 01a6 002B     		cmp	r3, #0
 342 01a8 F8D0     		beq	.L40
ARM GAS  /tmp/cc6nscCq.s 			page 7


 343              	.L18:
 344              		.loc 1 2399 0
 345 01aa 0223     		movs	r3, #2
 346              		.loc 1 2397 0
 347 01ac 0391     		str	r1, [sp, #12]
 348              		.loc 1 2398 0
 349 01ae 0495     		str	r5, [sp, #16]
 350              		.loc 1 2399 0
 351 01b0 1360     		str	r3, [r2]
 352 01b2 9CE7     		b	.L5
 353              	.L9:
 354              		.loc 1 2371 0
 355 01b4 074B     		ldr	r3, .L46+12
 356 01b6 1B68     		ldr	r3, [r3]
 357 01b8 002B     		cmp	r3, #0
 358 01ba E9D0     		beq	.L39
 359              	.L19:
 360              		.loc 1 2410 0
 361 01bc 0223     		movs	r3, #2
 362              		.loc 1 2408 0
 363 01be 0394     		str	r4, [sp, #12]
 364              		.loc 1 2409 0
 365 01c0 0495     		str	r5, [sp, #16]
 366              		.loc 1 2410 0
 367 01c2 1360     		str	r3, [r2]
 368 01c4 93E7     		b	.L5
 369              	.L47:
 370 01c6 00BF     		.align	2
 371              	.L46:
 372 01c8 00000000 		.word	.LANCHOR0
 373 01cc 00000000 		.word	.LANCHOR1
 374 01d0 00000000 		.word	.LANCHOR2
 375 01d4 00000000 		.word	.LANCHOR4
 376 01d8 00000000 		.word	.LANCHOR3
 377              	.LBE74:
 378              		.cfi_endproc
 379              	.LFE317:
 380              		.size	update_adc_sample_pos, .-update_adc_sample_pos
 381              		.section	.text.update_timer_attempt,"ax",%progbits
 382              		.align	1
 383              		.p2align 4,,15
 384              		.syntax unified
 385              		.thumb
 386              		.thumb_func
 387              		.fpu fpv4-sp-d16
 388              		.type	update_timer_attempt, %function
 389              	update_timer_attempt:
 390              	.LFB322:
 391              		.loc 1 2627 0
 392              		.cfi_startproc
 393              		@ args = 0, pretend = 0, frame = 0
 394              		@ frame_needed = 0, uses_anonymous_args = 0
 395 0000 08B5     		push	{r3, lr}
 396              		.cfi_def_cfa_offset 8
 397              		.cfi_offset 3, -8
 398              		.cfi_offset 14, -4
 399              		.loc 1 2628 0
ARM GAS  /tmp/cc6nscCq.s 			page 8


 400 0002 FFF7FEFF 		bl	utils_sys_lock_cnt
 401              	.LVL3:
 402              		.loc 1 2631 0
 403 0006 1A4B     		ldr	r3, .L51
 404 0008 1A78     		ldrb	r2, [r3]	@ zero_extendqisi2
 405 000a 002A     		cmp	r2, #0
 406 000c 2CD1     		bne	.L49
 407              		.loc 1 2631 0 is_stmt 0 discriminator 1
 408 000e 194A     		ldr	r2, .L51+4
 409 0010 516A     		ldr	r1, [r2, #36]
 410 0012 0A29     		cmp	r1, #10
 411 0014 28D9     		bls	.L49
 412              		.loc 1 2631 0 discriminator 2
 413 0016 506A     		ldr	r0, [r2, #36]
 414 0018 D16A     		ldr	r1, [r2, #44]
 415 001a A1F5FA71 		sub	r1, r1, #500
 416 001e 8842     		cmp	r0, r1
 417 0020 22D2     		bcs	.L49
 418              		.loc 1 2633 0 is_stmt 1
 419 0022 1068     		ldr	r0, [r2]
 420              		.loc 1 2634 0
 421 0024 1449     		ldr	r1, .L51+8
 422              		.loc 1 2633 0
 423 0026 40F00200 		orr	r0, r0, #2
 424 002a 1060     		str	r0, [r2]
 425              		.loc 1 2634 0
 426 002c 0868     		ldr	r0, [r1]
 427 002e 40F00200 		orr	r0, r0, #2
 428 0032 0860     		str	r0, [r1]
 429              		.loc 1 2637 0
 430 0034 5868     		ldr	r0, [r3, #4]
 431 0036 D062     		str	r0, [r2, #44]
 432              		.loc 1 2638 0
 433 0038 9868     		ldr	r0, [r3, #8]
 434 003a 5063     		str	r0, [r2, #52]
 435              		.loc 1 2639 0
 436 003c 9868     		ldr	r0, [r3, #8]
 437 003e 9063     		str	r0, [r2, #56]
 438              		.loc 1 2640 0
 439 0040 9868     		ldr	r0, [r3, #8]
 440 0042 D063     		str	r0, [r2, #60]
 441              		.loc 1 2641 0
 442 0044 D868     		ldr	r0, [r3, #12]
 443 0046 4863     		str	r0, [r1, #52]
 444              		.loc 1 2642 0
 445 0048 1869     		ldr	r0, [r3, #16]
 446 004a 1064     		str	r0, [r2, #64]
 447              		.loc 1 2643 0
 448 004c 5869     		ldr	r0, [r3, #20]
 449 004e 8863     		str	r0, [r1, #56]
 450              		.loc 1 2645 0
 451 0050 9869     		ldr	r0, [r3, #24]
 452 0052 C863     		str	r0, [r1, #60]
 453              		.loc 1 2649 0
 454 0054 1068     		ldr	r0, [r2]
 455 0056 20F00200 		bic	r0, r0, #2
 456 005a 1060     		str	r0, [r2]
ARM GAS  /tmp/cc6nscCq.s 			page 9


 457              		.loc 1 2650 0
 458 005c 0A68     		ldr	r2, [r1]
 459              		.loc 1 2651 0
 460 005e 0120     		movs	r0, #1
 461              		.loc 1 2650 0
 462 0060 22F00202 		bic	r2, r2, #2
 463 0064 0A60     		str	r2, [r1]
 464              		.loc 1 2651 0
 465 0066 1870     		strb	r0, [r3]
 466              	.L49:
 467              		.loc 1 2655 0
 468 0068 BDE80840 		pop	{r3, lr}
 469              		.cfi_restore 14
 470              		.cfi_restore 3
 471              		.cfi_def_cfa_offset 0
 472              		.loc 1 2654 0
 473 006c FFF7FEBF 		b	utils_sys_unlock_cnt
 474              	.LVL4:
 475              	.L52:
 476              		.align	2
 477              	.L51:
 478 0070 00000000 		.word	.LANCHOR5
 479 0074 00000140 		.word	1073807360
 480 0078 00040140 		.word	1073808384
 481              		.cfi_endproc
 482              	.LFE322:
 483              		.size	update_timer_attempt, .-update_timer_attempt
 484              		.section	.text.set_next_timer_settings,"ax",%progbits
 485              		.align	1
 486              		.p2align 4,,15
 487              		.syntax unified
 488              		.thumb
 489              		.thumb_func
 490              		.fpu fpv4-sp-d16
 491              		.type	set_next_timer_settings, %function
 492              	set_next_timer_settings:
 493              	.LFB321:
 494              		.loc 1 2614 0
 495              		.cfi_startproc
 496              		@ args = 0, pretend = 0, frame = 0
 497              		@ frame_needed = 0, uses_anonymous_args = 0
 498              	.LVL5:
 499 0000 70B5     		push	{r4, r5, r6, lr}
 500              		.cfi_def_cfa_offset 16
 501              		.cfi_offset 4, -16
 502              		.cfi_offset 5, -12
 503              		.cfi_offset 6, -8
 504              		.cfi_offset 14, -4
 505              		.loc 1 2614 0
 506 0002 0446     		mov	r4, r0
 507              		.loc 1 2615 0
 508 0004 FFF7FEFF 		bl	utils_sys_lock_cnt
 509              	.LVL6:
 510              		.loc 1 2616 0
 511 0008 0FCC     		ldmia	r4!, {r0, r1, r2, r3}
 512              	.LVL7:
 513 000a 074E     		ldr	r6, .L55
ARM GAS  /tmp/cc6nscCq.s 			page 10


 514 000c 3546     		mov	r5, r6
 515 000e 0FC5     		stmia	r5!, {r0, r1, r2, r3}
 516 0010 94E80700 		ldm	r4, {r0, r1, r2}
 517              		.loc 1 2617 0
 518 0014 0023     		movs	r3, #0
 519              		.loc 1 2616 0
 520 0016 85E80700 		stm	r5, {r0, r1, r2}
 521              		.loc 1 2617 0
 522 001a 3370     		strb	r3, [r6]
 523              		.loc 1 2618 0
 524 001c FFF7FEFF 		bl	utils_sys_unlock_cnt
 525              	.LVL8:
 526              		.loc 1 2621 0
 527 0020 BDE87040 		pop	{r4, r5, r6, lr}
 528              		.cfi_restore 14
 529              		.cfi_restore 6
 530              		.cfi_restore 5
 531              		.cfi_restore 4
 532              		.cfi_def_cfa_offset 0
 533              	.LVL9:
 534              		.loc 1 2620 0
 535 0024 FFF7FEBF 		b	update_timer_attempt
 536              	.LVL10:
 537              	.L56:
 538              		.align	2
 539              	.L55:
 540 0028 00000000 		.word	.LANCHOR5
 541              		.cfi_endproc
 542              	.LFE321:
 543              		.size	set_next_timer_settings, .-set_next_timer_settings
 544              		.section	.text.set_switching_frequency,"ax",%progbits
 545              		.align	1
 546              		.p2align 4,,15
 547              		.syntax unified
 548              		.thumb
 549              		.thumb_func
 550              		.fpu fpv4-sp-d16
 551              		.type	set_switching_frequency, %function
 552              	set_switching_frequency:
 553              	.LFB323:
 554              		.loc 1 2657 0
 555              		.cfi_startproc
 556              		@ args = 0, pretend = 0, frame = 32
 557              		@ frame_needed = 0, uses_anonymous_args = 0
 558              	.LVL11:
 559 0000 70B5     		push	{r4, r5, r6, lr}
 560              		.cfi_def_cfa_offset 16
 561              		.cfi_offset 4, -16
 562              		.cfi_offset 5, -12
 563              		.cfi_offset 6, -8
 564              		.cfi_offset 14, -4
 565              		.loc 1 2658 0
 566 0002 114E     		ldr	r6, .L59
 567              		.loc 1 2662 0
 568 0004 114D     		ldr	r5, .L59+4
 569              		.loc 1 2658 0
 570 0006 86ED000A 		vstr.32	s0, [r6]
ARM GAS  /tmp/cc6nscCq.s 			page 11


 571              		.loc 1 2657 0
 572 000a 88B0     		sub	sp, sp, #32
 573              		.cfi_def_cfa_offset 48
 574              		.loc 1 2661 0
 575 000c FFF7FEFF 		bl	utils_sys_lock_cnt
 576              	.LVL12:
 577              		.loc 1 2662 0
 578 0010 0FCD     		ldmia	r5!, {r0, r1, r2, r3}
 579 0012 01AC     		add	r4, sp, #4
 580 0014 0FC4     		stmia	r4!, {r0, r1, r2, r3}
 581 0016 95E80700 		ldm	r5, {r0, r1, r2}
 582 001a 84E80700 		stm	r4, {r0, r1, r2}
 583              		.loc 1 2663 0
 584 001e FFF7FEFF 		bl	utils_sys_unlock_cnt
 585              	.LVL13:
 586              		.loc 1 2665 0
 587 0022 D6ED007A 		vldr.32	s15, [r6]
 588 0026 0A4A     		ldr	r2, .L59+8
 589 0028 FDEEE77A 		vcvt.s32.f32	s15, s15
 590              		.loc 1 2666 0
 591 002c 01A8     		add	r0, sp, #4
 592              		.loc 1 2665 0
 593 002e 17EE903A 		vmov	r3, s15	@ int
 594 0032 92FBF3F3 		sdiv	r3, r2, r3
 595 0036 0293     		str	r3, [sp, #8]
 596              		.loc 1 2666 0
 597 0038 FFF7FEFF 		bl	update_adc_sample_pos
 598              	.LVL14:
 599              		.loc 1 2667 0
 600 003c 01A8     		add	r0, sp, #4
 601 003e FFF7FEFF 		bl	set_next_timer_settings
 602              	.LVL15:
 603              		.loc 1 2668 0
 604 0042 08B0     		add	sp, sp, #32
 605              		.cfi_def_cfa_offset 16
 606              		@ sp needed
 607 0044 70BD     		pop	{r4, r5, r6, pc}
 608              	.L60:
 609 0046 00BF     		.align	2
 610              	.L59:
 611 0048 00000000 		.word	.LANCHOR6
 612 004c 00000000 		.word	.LANCHOR5
 613 0050 007A030A 		.word	168000000
 614              		.cfi_endproc
 615              	.LFE323:
 616              		.size	set_switching_frequency, .-set_switching_frequency
 617              		.section	.text.set_duty_cycle_hw,"ax",%progbits
 618              		.align	1
 619              		.p2align 4,,15
 620              		.syntax unified
 621              		.thumb
 622              		.thumb_func
 623              		.fpu fpv4-sp-d16
 624              		.type	set_duty_cycle_hw, %function
 625              	set_duty_cycle_hw:
 626              	.LFB296:
 627              		.loc 1 1107 0
ARM GAS  /tmp/cc6nscCq.s 			page 12


 628              		.cfi_startproc
 629              		@ args = 0, pretend = 0, frame = 40
 630              		@ frame_needed = 0, uses_anonymous_args = 0
 631              	.LVL16:
 632 0000 70B5     		push	{r4, r5, r6, lr}
 633              		.cfi_def_cfa_offset 16
 634              		.cfi_offset 4, -16
 635              		.cfi_offset 5, -12
 636              		.cfi_offset 6, -8
 637              		.cfi_offset 14, -4
 638              		.loc 1 1111 0
 639 0002 404D     		ldr	r5, .L77
 640              		.loc 1 1114 0
 641 0004 404E     		ldr	r6, .L77+4
 642              		.loc 1 1107 0
 643 0006 8AB0     		sub	sp, sp, #40
 644              		.cfi_def_cfa_offset 56
 645              		.loc 1 1107 0
 646 0008 8DED010A 		vstr.32	s0, [sp, #4]
 647              		.loc 1 1110 0
 648 000c FFF7FEFF 		bl	utils_sys_lock_cnt
 649              	.LVL17:
 650              		.loc 1 1111 0
 651 0010 0FCD     		ldmia	r5!, {r0, r1, r2, r3}
 652 0012 03AC     		add	r4, sp, #12
 653 0014 0FC4     		stmia	r4!, {r0, r1, r2, r3}
 654 0016 95E80700 		ldm	r5, {r0, r1, r2}
 655 001a 84E80700 		stm	r4, {r0, r1, r2}
 656              		.loc 1 1112 0
 657 001e FFF7FEFF 		bl	utils_sys_unlock_cnt
 658              	.LVL18:
 659              		.loc 1 1114 0
 660 0022 3368     		ldr	r3, [r6]
 661 0024 01A8     		add	r0, sp, #4
 662 0026 93ED150A 		vldr.32	s0, [r3, #84]
 663 002a D3ED160A 		vldr.32	s1, [r3, #88]
 664 002e FFF7FEFF 		bl	utils_truncate_number
 665              	.LVL19:
 666              		.loc 1 1116 0
 667 0032 3368     		ldr	r3, [r6]
 668 0034 9A78     		ldrb	r2, [r3, #2]	@ zero_extendqisi2
 669 0036 012A     		cmp	r2, #1
 670 0038 41D0     		beq	.L75
 671              		.loc 1 1119 0
 672 003a 344A     		ldr	r2, .L77+8
 673 003c DDED016A 		vldr.32	s13, [sp, #4]
 674 0040 1278     		ldrb	r2, [r2]	@ zero_extendqisi2
 675 0042 012A     		cmp	r2, #1
 676 0044 36D0     		beq	.L64
 677              		.loc 1 1119 0 is_stmt 0 discriminator 1
 678 0046 1A78     		ldrb	r2, [r3]	@ zero_extendqisi2
 679 0048 022A     		cmp	r2, #2
 680 004a 33D0     		beq	.L64
 681              		.loc 1 1122 0 is_stmt 1
 682 004c D3ED685A 		vldr.32	s11, [r3, #416]
 683              		.loc 1 1123 0
 684 0050 D3ED697A 		vldr.32	s15, [r3, #420]
ARM GAS  /tmp/cc6nscCq.s 			page 13


 685              		.loc 1 1122 0
 686 0054 2E4A     		ldr	r2, .L77+12
 687 0056 B0EEE66A 		vabs.f32	s12, s13
 688 005a B7EE007A 		vmov.f32	s14, #1.0e+0
 689              		.loc 1 1123 0
 690 005e 66EE277A 		vmul.f32	s15, s12, s15
 691              		.loc 1 1122 0
 692 0062 37EE467A 		vsub.f32	s14, s14, s12
 693 0066 E5EE877A 		vfma.f32	s15, s11, s14
 694 006a C2ED007A 		vstr.32	s15, [r2]
 695              	.L63:
 696              		.loc 1 1127 0
 697 006e 92ED007A 		vldr.32	s14, [r2]
 698 0072 2849     		ldr	r1, .L77+16
 699 0074 FDEEC77A 		vcvt.s32.f32	s15, s14
 700 0078 17EE902A 		vmov	r2, s15	@ int
 701 007c 91FBF2F2 		sdiv	r2, r1, r2
 702 0080 0492     		str	r2, [sp, #16]
 703              		.loc 1 1129 0
 704 0082 9A78     		ldrb	r2, [r3, #2]	@ zero_extendqisi2
 705 0084 12B9     		cbnz	r2, .L66
 706              		.loc 1 1129 0 is_stmt 0 discriminator 1
 707 0086 1B78     		ldrb	r3, [r3]	@ zero_extendqisi2
 708 0088 022B     		cmp	r3, #2
 709 008a 1FD0     		beq	.L76
 710              	.L66:
 711              		.loc 1 1133 0 is_stmt 1
 712 008c DDED047A 		vldr.32	s15, [sp, #16]	@ int
 713 0090 F8EE677A 		vcvt.f32.u32	s15, s15
 714 0094 67EEA67A 		vmul.f32	s15, s15, s13
 715 0098 FCEEE77A 		vcvt.u32.f32	s15, s15
 716 009c 17EE903A 		vmov	r3, s15	@ int
 717 00a0 9BB2     		uxth	r3, r3
 718 00a2 0593     		str	r3, [sp, #20]
 719              	.L67:
 720              		.loc 1 1136 0
 721 00a4 03A8     		add	r0, sp, #12
 722 00a6 FFF7FEFF 		bl	update_adc_sample_pos
 723              	.LVL20:
 724              		.loc 1 1137 0
 725 00aa 03A8     		add	r0, sp, #12
 726 00ac FFF7FEFF 		bl	set_next_timer_settings
 727              	.LVL21:
 728              		.loc 1 1138 0
 729 00b0 0AB0     		add	sp, sp, #40
 730              		.cfi_remember_state
 731              		.cfi_def_cfa_offset 16
 732              		@ sp needed
 733 00b2 70BD     		pop	{r4, r5, r6, pc}
 734              	.L64:
 735              		.cfi_restore_state
 736              		.loc 1 1120 0
 737 00b4 164A     		ldr	r2, .L77+12
 738 00b6 D3F8A411 		ldr	r1, [r3, #420]	@ float
 739 00ba 1160     		str	r1, [r2]	@ float
 740 00bc D7E7     		b	.L63
 741              	.L75:
ARM GAS  /tmp/cc6nscCq.s 			page 14


 742              		.loc 1 1117 0
 743 00be 144A     		ldr	r2, .L77+12
 744 00c0 D3F8A811 		ldr	r1, [r3, #424]	@ float
 745 00c4 DDED016A 		vldr.32	s13, [sp, #4]
 746 00c8 1160     		str	r1, [r2]	@ float
 747 00ca D0E7     		b	.L63
 748              	.L76:
 749              		.loc 1 1129 0 discriminator 2
 750 00cc 0F4B     		ldr	r3, .L77+8
 751 00ce 1B78     		ldrb	r3, [r3]	@ zero_extendqisi2
 752 00d0 012B     		cmp	r3, #1
 753 00d2 DBD0     		beq	.L66
 754              		.loc 1 1130 0
 755 00d4 9DED047A 		vldr.32	s14, [sp, #16]	@ int
 756              		.loc 1 1131 0
 757 00d8 DDED047A 		vldr.32	s15, [sp, #16]	@ int
 758              		.loc 1 1130 0
 759 00dc B8EE477A 		vcvt.f32.u32	s14, s14
 760              		.loc 1 1131 0
 761 00e0 F8EE677A 		vcvt.f32.u32	s15, s15
 762              		.loc 1 1130 0
 763 00e4 B6EE006A 		vmov.f32	s12, #5.0e-1
 764 00e8 27EE067A 		vmul.f32	s14, s14, s12
 765              		.loc 1 1131 0
 766 00ec 67EE867A 		vmul.f32	s15, s15, s12
 767 00f0 E7EE267A 		vfma.f32	s15, s14, s13
 768              		.loc 1 1130 0
 769 00f4 FCEEE77A 		vcvt.u32.f32	s15, s15
 770 00f8 17EE903A 		vmov	r3, s15	@ int
 771 00fc 9BB2     		uxth	r3, r3
 772 00fe 0593     		str	r3, [sp, #20]
 773 0100 D0E7     		b	.L67
 774              	.L78:
 775 0102 00BF     		.align	2
 776              	.L77:
 777 0104 00000000 		.word	.LANCHOR5
 778 0108 00000000 		.word	.LANCHOR0
 779 010c 00000000 		.word	.LANCHOR2
 780 0110 00000000 		.word	.LANCHOR6
 781 0114 007A030A 		.word	168000000
 782              		.cfi_endproc
 783              	.LFE296:
 784              		.size	set_duty_cycle_hw, .-set_duty_cycle_hw
 785              		.section	.text.set_next_comm_step,"ax",%progbits
 786              		.align	1
 787              		.p2align 4,,15
 788              		.syntax unified
 789              		.thumb
 790              		.thumb_func
 791              		.fpu fpv4-sp-d16
 792              		.type	set_next_comm_step, %function
 793              	set_next_comm_step:
 794              	.LFB324:
 795              		.loc 1 2670 0
 796              		.cfi_startproc
 797              		@ args = 0, pretend = 0, frame = 0
 798              		@ frame_needed = 0, uses_anonymous_args = 0
ARM GAS  /tmp/cc6nscCq.s 			page 15


 799              	.LVL22:
 800 0000 F8B5     		push	{r3, r4, r5, r6, r7, lr}
 801              		.cfi_def_cfa_offset 24
 802              		.cfi_offset 3, -24
 803              		.cfi_offset 4, -20
 804              		.cfi_offset 5, -16
 805              		.cfi_offset 6, -12
 806              		.cfi_offset 7, -8
 807              		.cfi_offset 14, -4
 808              		.loc 1 2671 0
 809 0002 BD4B     		ldr	r3, .L116
 810 0004 1B68     		ldr	r3, [r3]
 811 0006 9C78     		ldrb	r4, [r3, #2]	@ zero_extendqisi2
 812 0008 E4B2     		uxtb	r4, r4
 813 000a 012C     		cmp	r4, #1
 814 000c 79D0     		beq	.L109
 815              	.LVL23:
 816              		.loc 1 2711 0
 817 000e BB4A     		ldr	r2, .L116+4
 818 0010 1278     		ldrb	r2, [r2]	@ zero_extendqisi2
 819 0012 012A     		cmp	r2, #1
 820 0014 0546     		mov	r5, r0
 821 0016 3CD0     		beq	.L97
 822              		.loc 1 2712 0
 823 0018 1B78     		ldrb	r3, [r3]	@ zero_extendqisi2
 824 001a 03F0FF04 		and	r4, r3, #255
 825 001e 002B     		cmp	r3, #0
 826 0020 38D0     		beq	.L100
 827              		.loc 1 2706 0
 828 0022 022C     		cmp	r4, #2
 829 0024 0CBF     		ite	eq
 830 0026 7026     		moveq	r6, #112
 831 0028 2026     		movne	r6, #32
 832              		.loc 1 2726 0
 833 002a 012D     		cmp	r5, #1
 834              		.loc 1 2706 0
 835 002c 4FF00404 		mov	r4, #4
 836              	.LVL24:
 837              		.loc 1 2726 0
 838 0030 34D0     		beq	.L110
 839              	.L85:
 840              		.loc 1 2768 0
 841 0032 022D     		cmp	r5, #2
 842 0034 00F0E180 		beq	.L111
 843              		.loc 1 2810 0
 844 0038 032D     		cmp	r5, #3
 845 003a 00F00781 		beq	.L112
 846              		.loc 1 2852 0
 847 003e 042D     		cmp	r5, #4
 848 0040 00F09280 		beq	.L113
 849              		.loc 1 2894 0
 850 0044 052D     		cmp	r5, #5
 851 0046 00F05F81 		beq	.L114
 852              		.loc 1 2936 0
 853 004a 062D     		cmp	r5, #6
 854 004c 40F0D581 		bne	.L95
 855              		.loc 1 2937 0
ARM GAS  /tmp/cc6nscCq.s 			page 16


 856 0050 AB4B     		ldr	r3, .L116+8
 857 0052 1D68     		ldr	r5, [r3]
 858              		.loc 1 2944 0
 859 0054 2022     		movs	r2, #32
 860              		.loc 1 2937 0
 861 0056 002D     		cmp	r5, #0
 862 0058 00F0B481 		beq	.L96
 863              		.loc 1 2944 0
 864 005c 0821     		movs	r1, #8
 865 005e A948     		ldr	r0, .L116+12
 866              	.LVL25:
 867 0060 FFF7FEFF 		bl	TIM_SelectOCxM
 868              	.LVL26:
 869              		.loc 1 2945 0
 870 0064 0122     		movs	r2, #1
 871 0066 0821     		movs	r1, #8
 872 0068 A648     		ldr	r0, .L116+12
 873 006a FFF7FEFF 		bl	TIM_CCxCmd
 874              	.LVL27:
 875              		.loc 1 2946 0
 876 006e 0022     		movs	r2, #0
 877 0070 0821     		movs	r1, #8
 878 0072 A448     		ldr	r0, .L116+12
 879 0074 FFF7FEFF 		bl	TIM_CCxNCmd
 880              	.LVL28:
 881              		.loc 1 2949 0
 882 0078 6022     		movs	r2, #96
 883 007a 0421     		movs	r1, #4
 884 007c A148     		ldr	r0, .L116+12
 885 007e FFF7FEFF 		bl	TIM_SelectOCxM
 886              	.LVL29:
 887              		.loc 1 2950 0
 888 0082 0122     		movs	r2, #1
 889 0084 0421     		movs	r1, #4
 890 0086 9F48     		ldr	r0, .L116+12
 891 0088 FFF7FEFF 		bl	TIM_CCxCmd
 892              	.LVL30:
 893              		.loc 1 2951 0
 894 008c 2246     		mov	r2, r4
 895 008e 0421     		movs	r1, #4
 896 0090 59E1     		b	.L105
 897              	.LVL31:
 898              	.L97:
 899              		.loc 1 2706 0
 900 0092 0424     		movs	r4, #4
 901              	.L100:
 902              		.loc 1 2726 0
 903 0094 012D     		cmp	r5, #1
 904              		.loc 1 2703 0
 905 0096 4FF02006 		mov	r6, #32
 906              	.LVL32:
 907              		.loc 1 2726 0
 908 009a CAD1     		bne	.L85
 909              	.L110:
 910              		.loc 1 2727 0
 911 009c 984B     		ldr	r3, .L116+8
 912 009e 1F68     		ldr	r7, [r3]
ARM GAS  /tmp/cc6nscCq.s 			page 17


 913              		.loc 1 2734 0
 914 00a0 2022     		movs	r2, #32
 915              		.loc 1 2727 0
 916 00a2 002F     		cmp	r7, #0
 917 00a4 66D0     		beq	.L108
 918              		.loc 1 2734 0
 919 00a6 0021     		movs	r1, #0
 920 00a8 9648     		ldr	r0, .L116+12
 921              	.LVL33:
 922 00aa FFF7FEFF 		bl	TIM_SelectOCxM
 923              	.LVL34:
 924              		.loc 1 2735 0
 925 00ae 2A46     		mov	r2, r5
 926 00b0 0021     		movs	r1, #0
 927 00b2 9448     		ldr	r0, .L116+12
 928 00b4 FFF7FEFF 		bl	TIM_CCxCmd
 929              	.LVL35:
 930              		.loc 1 2736 0
 931 00b8 0022     		movs	r2, #0
 932 00ba 1146     		mov	r1, r2
 933 00bc 9148     		ldr	r0, .L116+12
 934 00be FFF7FEFF 		bl	TIM_CCxNCmd
 935              	.LVL36:
 936              		.loc 1 2739 0
 937 00c2 6022     		movs	r2, #96
 938 00c4 0421     		movs	r1, #4
 939 00c6 8F48     		ldr	r0, .L116+12
 940 00c8 FFF7FEFF 		bl	TIM_SelectOCxM
 941              	.LVL37:
 942              		.loc 1 2740 0
 943 00cc 2A46     		mov	r2, r5
 944 00ce 0421     		movs	r1, #4
 945 00d0 8C48     		ldr	r0, .L116+12
 946 00d2 FFF7FEFF 		bl	TIM_CCxCmd
 947              	.LVL38:
 948              		.loc 1 2741 0
 949 00d6 2246     		mov	r2, r4
 950 00d8 0421     		movs	r1, #4
 951 00da 8A48     		ldr	r0, .L116+12
 952 00dc FFF7FEFF 		bl	TIM_CCxNCmd
 953              	.LVL39:
 954              		.loc 1 2744 0
 955 00e0 3246     		mov	r2, r6
 956 00e2 0821     		movs	r1, #8
 957 00e4 8748     		ldr	r0, .L116+12
 958 00e6 FFF7FEFF 		bl	TIM_SelectOCxM
 959              	.LVL40:
 960              		.loc 1 2745 0
 961 00ea 2A46     		mov	r2, r5
 962              	.LVL41:
 963              	.L101:
 964 00ec 0821     		movs	r1, #8
 965 00ee 8548     		ldr	r0, .L116+12
 966 00f0 FFF7FEFF 		bl	TIM_CCxCmd
 967              	.LVL42:
 968              		.loc 1 2746 0
 969 00f4 0422     		movs	r2, #4
ARM GAS  /tmp/cc6nscCq.s 			page 18


 970 00f6 0821     		movs	r1, #8
 971 00f8 8248     		ldr	r0, .L116+12
 972              		.loc 1 2997 0
 973 00fa BDE8F840 		pop	{r3, r4, r5, r6, r7, lr}
 974              		.cfi_remember_state
 975              		.cfi_restore 14
 976              		.cfi_restore 7
 977              		.cfi_restore 6
 978              		.cfi_restore 5
 979              		.cfi_restore 4
 980              		.cfi_restore 3
 981              		.cfi_def_cfa_offset 0
 982              		.loc 1 2746 0
 983 00fe FFF7FEBF 		b	TIM_CCxNCmd
 984              	.LVL43:
 985              	.L109:
 986              		.cfi_restore_state
 987              		.loc 1 2673 0
 988 0102 2022     		movs	r2, #32
 989 0104 0421     		movs	r1, #4
 990 0106 7F48     		ldr	r0, .L116+12
 991              	.LVL44:
 992 0108 FFF7FEFF 		bl	TIM_SelectOCxM
 993              	.LVL45:
 994              		.loc 1 2674 0
 995 010c 2246     		mov	r2, r4
 996 010e 0421     		movs	r1, #4
 997 0110 7C48     		ldr	r0, .L116+12
 998 0112 FFF7FEFF 		bl	TIM_CCxCmd
 999              	.LVL46:
 1000              		.loc 1 2675 0
 1001 0116 0022     		movs	r2, #0
 1002 0118 0421     		movs	r1, #4
 1003 011a 7A48     		ldr	r0, .L116+12
 1004 011c FFF7FEFF 		bl	TIM_CCxNCmd
 1005              	.LVL47:
 1006              		.loc 1 2677 0
 1007 0120 774B     		ldr	r3, .L116+8
 1008 0122 1D68     		ldr	r5, [r3]
 1009              		.loc 1 2679 0
 1010 0124 6022     		movs	r2, #96
 1011              		.loc 1 2677 0
 1012 0126 002D     		cmp	r5, #0
 1013 0128 52D1     		bne	.L115
 1014              		.loc 1 2689 0
 1015 012a 0821     		movs	r1, #8
 1016 012c 7548     		ldr	r0, .L116+12
 1017 012e FFF7FEFF 		bl	TIM_SelectOCxM
 1018              	.LVL48:
 1019              		.loc 1 2690 0
 1020 0132 2246     		mov	r2, r4
 1021 0134 0821     		movs	r1, #8
 1022 0136 7348     		ldr	r0, .L116+12
 1023 0138 FFF7FEFF 		bl	TIM_CCxCmd
 1024              	.LVL49:
 1025              		.loc 1 2691 0
 1026 013c 0422     		movs	r2, #4
ARM GAS  /tmp/cc6nscCq.s 			page 19


 1027 013e 0821     		movs	r1, #8
 1028 0140 7048     		ldr	r0, .L116+12
 1029 0142 FFF7FEFF 		bl	TIM_CCxNCmd
 1030              	.LVL50:
 1031              		.loc 1 2694 0
 1032 0146 2022     		movs	r2, #32
 1033              	.L102:
 1034              		.loc 1 2974 0
 1035 0148 2946     		mov	r1, r5
 1036 014a 6E48     		ldr	r0, .L116+12
 1037 014c FFF7FEFF 		bl	TIM_SelectOCxM
 1038              	.LVL51:
 1039              		.loc 1 2975 0
 1040 0150 2946     		mov	r1, r5
 1041 0152 0122     		movs	r2, #1
 1042 0154 6B48     		ldr	r0, .L116+12
 1043 0156 FFF7FEFF 		bl	TIM_CCxCmd
 1044              	.LVL52:
 1045              		.loc 1 2976 0
 1046 015a 2946     		mov	r1, r5
 1047 015c 0422     		movs	r2, #4
 1048 015e 6948     		ldr	r0, .L116+12
 1049              		.loc 1 2997 0
 1050 0160 BDE8F840 		pop	{r3, r4, r5, r6, r7, lr}
 1051              		.cfi_remember_state
 1052              		.cfi_restore 14
 1053              		.cfi_restore 7
 1054              		.cfi_restore 6
 1055              		.cfi_restore 5
 1056              		.cfi_restore 4
 1057              		.cfi_restore 3
 1058              		.cfi_def_cfa_offset 0
 1059              		.loc 1 2976 0
 1060 0164 FFF7FEBF 		b	TIM_CCxNCmd
 1061              	.LVL53:
 1062              	.L113:
 1063              		.cfi_restore_state
 1064              		.loc 1 2853 0
 1065 0168 654B     		ldr	r3, .L116+8
 1066 016a 1F68     		ldr	r7, [r3]
 1067              		.loc 1 2860 0
 1068 016c 2022     		movs	r2, #32
 1069              		.loc 1 2853 0
 1070 016e 002F     		cmp	r7, #0
 1071 0170 00F0FD80 		beq	.L92
 1072              	.L108:
 1073              		.loc 1 2860 0
 1074 0174 0021     		movs	r1, #0
 1075 0176 6348     		ldr	r0, .L116+12
 1076              	.LVL54:
 1077 0178 FFF7FEFF 		bl	TIM_SelectOCxM
 1078              	.LVL55:
 1079              		.loc 1 2861 0
 1080 017c 0122     		movs	r2, #1
 1081 017e 0021     		movs	r1, #0
 1082 0180 6048     		ldr	r0, .L116+12
 1083 0182 FFF7FEFF 		bl	TIM_CCxCmd
ARM GAS  /tmp/cc6nscCq.s 			page 20


 1084              	.LVL56:
 1085              		.loc 1 2862 0
 1086 0186 0022     		movs	r2, #0
 1087 0188 1146     		mov	r1, r2
 1088 018a 5E48     		ldr	r0, .L116+12
 1089 018c FFF7FEFF 		bl	TIM_CCxNCmd
 1090              	.LVL57:
 1091              		.loc 1 2865 0
 1092 0190 6022     		movs	r2, #96
 1093 0192 0821     		movs	r1, #8
 1094 0194 5B48     		ldr	r0, .L116+12
 1095 0196 FFF7FEFF 		bl	TIM_SelectOCxM
 1096              	.LVL58:
 1097              		.loc 1 2866 0
 1098 019a 0122     		movs	r2, #1
 1099 019c 0821     		movs	r1, #8
 1100 019e 5948     		ldr	r0, .L116+12
 1101 01a0 FFF7FEFF 		bl	TIM_CCxCmd
 1102              	.LVL59:
 1103              		.loc 1 2867 0
 1104 01a4 2246     		mov	r2, r4
 1105 01a6 0821     		movs	r1, #8
 1106              	.LVL60:
 1107              	.L103:
 1108              		.loc 1 2803 0
 1109 01a8 5648     		ldr	r0, .L116+12
 1110 01aa FFF7FEFF 		bl	TIM_CCxNCmd
 1111              	.LVL61:
 1112              		.loc 1 2806 0
 1113 01ae 3246     		mov	r2, r6
 1114 01b0 0421     		movs	r1, #4
 1115 01b2 5448     		ldr	r0, .L116+12
 1116 01b4 FFF7FEFF 		bl	TIM_SelectOCxM
 1117              	.LVL62:
 1118              		.loc 1 2807 0
 1119 01b8 0122     		movs	r2, #1
 1120 01ba 0421     		movs	r1, #4
 1121 01bc 5148     		ldr	r0, .L116+12
 1122 01be FFF7FEFF 		bl	TIM_CCxCmd
 1123              	.LVL63:
 1124              		.loc 1 2808 0
 1125 01c2 0422     		movs	r2, #4
 1126 01c4 1146     		mov	r1, r2
 1127 01c6 4F48     		ldr	r0, .L116+12
 1128              		.loc 1 2997 0
 1129 01c8 BDE8F840 		pop	{r3, r4, r5, r6, r7, lr}
 1130              		.cfi_remember_state
 1131              		.cfi_restore 14
 1132              		.cfi_restore 7
 1133              		.cfi_restore 6
 1134              		.cfi_restore 5
 1135              		.cfi_restore 4
 1136              		.cfi_restore 3
 1137              		.cfi_def_cfa_offset 0
 1138              	.LVL64:
 1139              		.loc 1 2808 0
 1140 01cc FFF7FEBF 		b	TIM_CCxNCmd
ARM GAS  /tmp/cc6nscCq.s 			page 21


 1141              	.LVL65:
 1142              	.L115:
 1143              		.cfi_restore_state
 1144              		.loc 1 2679 0
 1145 01d0 0021     		movs	r1, #0
 1146 01d2 4C48     		ldr	r0, .L116+12
 1147 01d4 FFF7FEFF 		bl	TIM_SelectOCxM
 1148              	.LVL66:
 1149              		.loc 1 2680 0
 1150 01d8 2246     		mov	r2, r4
 1151 01da 0021     		movs	r1, #0
 1152 01dc 4948     		ldr	r0, .L116+12
 1153 01de FFF7FEFF 		bl	TIM_CCxCmd
 1154              	.LVL67:
 1155              		.loc 1 2681 0
 1156 01e2 0422     		movs	r2, #4
 1157 01e4 0021     		movs	r1, #0
 1158 01e6 4748     		ldr	r0, .L116+12
 1159 01e8 FFF7FEFF 		bl	TIM_CCxNCmd
 1160              	.LVL68:
 1161              		.loc 1 2684 0
 1162 01ec 2022     		movs	r2, #32
 1163 01ee 0821     		movs	r1, #8
 1164 01f0 4448     		ldr	r0, .L116+12
 1165 01f2 FFF7FEFF 		bl	TIM_SelectOCxM
 1166              	.LVL69:
 1167              		.loc 1 2685 0
 1168 01f6 2246     		mov	r2, r4
 1169 01f8 78E7     		b	.L101
 1170              	.LVL70:
 1171              	.L111:
 1172              		.loc 1 2769 0
 1173 01fa 414B     		ldr	r3, .L116+8
 1174 01fc 1D68     		ldr	r5, [r3]
 1175              		.loc 1 2776 0
 1176 01fe 2022     		movs	r2, #32
 1177              		.loc 1 2769 0
 1178 0200 002D     		cmp	r5, #0
 1179 0202 42D0     		beq	.L88
 1180              		.loc 1 2776 0
 1181 0204 0421     		movs	r1, #4
 1182 0206 3F48     		ldr	r0, .L116+12
 1183              	.LVL71:
 1184 0208 FFF7FEFF 		bl	TIM_SelectOCxM
 1185              	.LVL72:
 1186              		.loc 1 2777 0
 1187 020c 0122     		movs	r2, #1
 1188 020e 0421     		movs	r1, #4
 1189 0210 3C48     		ldr	r0, .L116+12
 1190 0212 FFF7FEFF 		bl	TIM_CCxCmd
 1191              	.LVL73:
 1192              		.loc 1 2778 0
 1193 0216 0022     		movs	r2, #0
 1194 0218 0421     		movs	r1, #4
 1195 021a 3A48     		ldr	r0, .L116+12
 1196 021c FFF7FEFF 		bl	TIM_CCxNCmd
 1197              	.LVL74:
ARM GAS  /tmp/cc6nscCq.s 			page 22


 1198              		.loc 1 2781 0
 1199 0220 6022     		movs	r2, #96
 1200 0222 0021     		movs	r1, #0
 1201 0224 3748     		ldr	r0, .L116+12
 1202 0226 FFF7FEFF 		bl	TIM_SelectOCxM
 1203              	.LVL75:
 1204              		.loc 1 2782 0
 1205 022a 0122     		movs	r2, #1
 1206 022c 0021     		movs	r1, #0
 1207 022e 3548     		ldr	r0, .L116+12
 1208 0230 FFF7FEFF 		bl	TIM_CCxCmd
 1209              	.LVL76:
 1210              		.loc 1 2783 0
 1211 0234 2246     		mov	r2, r4
 1212 0236 0021     		movs	r1, #0
 1213              	.L107:
 1214              		.loc 1 2887 0
 1215 0238 3248     		ldr	r0, .L116+12
 1216 023a FFF7FEFF 		bl	TIM_CCxNCmd
 1217              	.LVL77:
 1218              		.loc 1 2890 0
 1219 023e 3246     		mov	r2, r6
 1220 0240 0821     		movs	r1, #8
 1221 0242 3048     		ldr	r0, .L116+12
 1222 0244 FFF7FEFF 		bl	TIM_SelectOCxM
 1223              	.LVL78:
 1224              		.loc 1 2891 0
 1225 0248 0122     		movs	r2, #1
 1226 024a 4FE7     		b	.L101
 1227              	.LVL79:
 1228              	.L112:
 1229              		.loc 1 2811 0
 1230 024c 2C4B     		ldr	r3, .L116+8
 1231 024e 1D68     		ldr	r5, [r3]
 1232              		.loc 1 2818 0
 1233 0250 2022     		movs	r2, #32
 1234              		.loc 1 2811 0
 1235 0252 ADB3     		cbz	r5, .L90
 1236              		.loc 1 2818 0
 1237 0254 0821     		movs	r1, #8
 1238 0256 2B48     		ldr	r0, .L116+12
 1239              	.LVL80:
 1240 0258 FFF7FEFF 		bl	TIM_SelectOCxM
 1241              	.LVL81:
 1242              		.loc 1 2819 0
 1243 025c 0122     		movs	r2, #1
 1244 025e 0821     		movs	r1, #8
 1245 0260 2848     		ldr	r0, .L116+12
 1246 0262 FFF7FEFF 		bl	TIM_CCxCmd
 1247              	.LVL82:
 1248              		.loc 1 2820 0
 1249 0266 0022     		movs	r2, #0
 1250 0268 0821     		movs	r1, #8
 1251 026a 2648     		ldr	r0, .L116+12
 1252 026c FFF7FEFF 		bl	TIM_CCxNCmd
 1253              	.LVL83:
 1254              		.loc 1 2823 0
ARM GAS  /tmp/cc6nscCq.s 			page 23


 1255 0270 6022     		movs	r2, #96
 1256 0272 0021     		movs	r1, #0
 1257 0274 2348     		ldr	r0, .L116+12
 1258 0276 FFF7FEFF 		bl	TIM_SelectOCxM
 1259              	.LVL84:
 1260              		.loc 1 2824 0
 1261 027a 0122     		movs	r2, #1
 1262 027c 0021     		movs	r1, #0
 1263 027e 2148     		ldr	r0, .L116+12
 1264 0280 FFF7FEFF 		bl	TIM_CCxCmd
 1265              	.LVL85:
 1266              		.loc 1 2825 0
 1267 0284 2246     		mov	r2, r4
 1268 0286 0021     		movs	r1, #0
 1269 0288 8EE7     		b	.L103
 1270              	.LVL86:
 1271              	.L88:
 1272              		.loc 1 2796 0
 1273 028a 0821     		movs	r1, #8
 1274 028c 1D48     		ldr	r0, .L116+12
 1275              	.LVL87:
 1276 028e FFF7FEFF 		bl	TIM_SelectOCxM
 1277              	.LVL88:
 1278              		.loc 1 2797 0
 1279 0292 0122     		movs	r2, #1
 1280 0294 0821     		movs	r1, #8
 1281 0296 1B48     		ldr	r0, .L116+12
 1282 0298 FFF7FEFF 		bl	TIM_CCxCmd
 1283              	.LVL89:
 1284              		.loc 1 2798 0
 1285 029c 2A46     		mov	r2, r5
 1286 029e 0821     		movs	r1, #8
 1287 02a0 1848     		ldr	r0, .L116+12
 1288 02a2 FFF7FEFF 		bl	TIM_CCxNCmd
 1289              	.LVL90:
 1290              		.loc 1 2801 0
 1291 02a6 6022     		movs	r2, #96
 1292 02a8 2946     		mov	r1, r5
 1293 02aa 1648     		ldr	r0, .L116+12
 1294 02ac FFF7FEFF 		bl	TIM_SelectOCxM
 1295              	.LVL91:
 1296              		.loc 1 2802 0
 1297 02b0 0122     		movs	r2, #1
 1298 02b2 2946     		mov	r1, r5
 1299 02b4 1348     		ldr	r0, .L116+12
 1300 02b6 FFF7FEFF 		bl	TIM_CCxCmd
 1301              	.LVL92:
 1302              		.loc 1 2803 0
 1303 02ba 2246     		mov	r2, r4
 1304 02bc 2946     		mov	r1, r5
 1305 02be 73E7     		b	.L103
 1306              	.LVL93:
 1307              	.L90:
 1308              		.loc 1 2838 0
 1309 02c0 0421     		movs	r1, #4
 1310 02c2 1048     		ldr	r0, .L116+12
 1311              	.LVL94:
ARM GAS  /tmp/cc6nscCq.s 			page 24


 1312 02c4 FFF7FEFF 		bl	TIM_SelectOCxM
 1313              	.LVL95:
 1314              		.loc 1 2839 0
 1315 02c8 0122     		movs	r2, #1
 1316 02ca 0421     		movs	r1, #4
 1317 02cc 0D48     		ldr	r0, .L116+12
 1318 02ce FFF7FEFF 		bl	TIM_CCxCmd
 1319              	.LVL96:
 1320              		.loc 1 2840 0
 1321 02d2 2A46     		mov	r2, r5
 1322 02d4 0421     		movs	r1, #4
 1323              	.L106:
 1324              		.loc 1 2882 0
 1325 02d6 0B48     		ldr	r0, .L116+12
 1326 02d8 FFF7FEFF 		bl	TIM_CCxNCmd
 1327              	.LVL97:
 1328              		.loc 1 2885 0
 1329 02dc 6022     		movs	r2, #96
 1330 02de 2946     		mov	r1, r5
 1331 02e0 0848     		ldr	r0, .L116+12
 1332 02e2 FFF7FEFF 		bl	TIM_SelectOCxM
 1333              	.LVL98:
 1334              		.loc 1 2886 0
 1335 02e6 0122     		movs	r2, #1
 1336 02e8 2946     		mov	r1, r5
 1337 02ea 0648     		ldr	r0, .L116+12
 1338 02ec FFF7FEFF 		bl	TIM_CCxCmd
 1339              	.LVL99:
 1340              		.loc 1 2887 0
 1341 02f0 2246     		mov	r2, r4
 1342 02f2 2946     		mov	r1, r5
 1343 02f4 A0E7     		b	.L107
 1344              	.L117:
 1345 02f6 00BF     		.align	2
 1346              	.L116:
 1347 02f8 00000000 		.word	.LANCHOR0
 1348 02fc 00000000 		.word	.LANCHOR2
 1349 0300 00000000 		.word	.LANCHOR4
 1350 0304 00000140 		.word	1073807360
 1351              	.LVL100:
 1352              	.L114:
 1353              		.loc 1 2895 0
 1354 0308 534B     		ldr	r3, .L118
 1355 030a 1D68     		ldr	r5, [r3]
 1356              		.loc 1 2902 0
 1357 030c 2022     		movs	r2, #32
 1358              		.loc 1 2895 0
 1359 030e 002D     		cmp	r5, #0
 1360 0310 39D0     		beq	.L94
 1361              		.loc 1 2902 0
 1362 0312 0421     		movs	r1, #4
 1363 0314 5148     		ldr	r0, .L118+4
 1364              	.LVL101:
 1365 0316 FFF7FEFF 		bl	TIM_SelectOCxM
 1366              	.LVL102:
 1367              		.loc 1 2903 0
 1368 031a 0122     		movs	r2, #1
ARM GAS  /tmp/cc6nscCq.s 			page 25


 1369 031c 0421     		movs	r1, #4
 1370 031e 4F48     		ldr	r0, .L118+4
 1371 0320 FFF7FEFF 		bl	TIM_CCxCmd
 1372              	.LVL103:
 1373              		.loc 1 2904 0
 1374 0324 0022     		movs	r2, #0
 1375 0326 0421     		movs	r1, #4
 1376 0328 4C48     		ldr	r0, .L118+4
 1377 032a FFF7FEFF 		bl	TIM_CCxNCmd
 1378              	.LVL104:
 1379              		.loc 1 2907 0
 1380 032e 6022     		movs	r2, #96
 1381 0330 0821     		movs	r1, #8
 1382 0332 4A48     		ldr	r0, .L118+4
 1383 0334 FFF7FEFF 		bl	TIM_SelectOCxM
 1384              	.LVL105:
 1385              		.loc 1 2908 0
 1386 0338 0122     		movs	r2, #1
 1387 033a 0821     		movs	r1, #8
 1388 033c 4748     		ldr	r0, .L118+4
 1389 033e FFF7FEFF 		bl	TIM_CCxCmd
 1390              	.LVL106:
 1391              		.loc 1 2909 0
 1392 0342 2246     		mov	r2, r4
 1393 0344 0821     		movs	r1, #8
 1394              	.L105:
 1395              		.loc 1 2951 0
 1396 0346 4548     		ldr	r0, .L118+4
 1397 0348 FFF7FEFF 		bl	TIM_CCxNCmd
 1398              	.LVL107:
 1399              		.loc 1 2954 0
 1400 034c 3246     		mov	r2, r6
 1401 034e 0021     		movs	r1, #0
 1402 0350 4248     		ldr	r0, .L118+4
 1403 0352 FFF7FEFF 		bl	TIM_SelectOCxM
 1404              	.LVL108:
 1405              		.loc 1 2955 0
 1406 0356 0122     		movs	r2, #1
 1407 0358 0021     		movs	r1, #0
 1408 035a 4048     		ldr	r0, .L118+4
 1409 035c FFF7FEFF 		bl	TIM_CCxCmd
 1410              	.LVL109:
 1411              		.loc 1 2956 0
 1412 0360 0422     		movs	r2, #4
 1413 0362 0021     		movs	r1, #0
 1414 0364 3D48     		ldr	r0, .L118+4
 1415              		.loc 1 2997 0
 1416 0366 BDE8F840 		pop	{r3, r4, r5, r6, r7, lr}
 1417              		.cfi_remember_state
 1418              		.cfi_restore 14
 1419              		.cfi_restore 7
 1420              		.cfi_restore 6
 1421              		.cfi_restore 5
 1422              		.cfi_restore 4
 1423              		.cfi_restore 3
 1424              		.cfi_def_cfa_offset 0
 1425              	.LVL110:
ARM GAS  /tmp/cc6nscCq.s 			page 26


 1426              		.loc 1 2956 0
 1427 036a FFF7FEBF 		b	TIM_CCxNCmd
 1428              	.LVL111:
 1429              	.L92:
 1430              		.cfi_restore_state
 1431              		.loc 1 2880 0
 1432 036e 3946     		mov	r1, r7
 1433 0370 3A48     		ldr	r0, .L118+4
 1434              	.LVL112:
 1435 0372 FFF7FEFF 		bl	TIM_SelectOCxM
 1436              	.LVL113:
 1437              		.loc 1 2881 0
 1438 0376 0122     		movs	r2, #1
 1439 0378 3946     		mov	r1, r7
 1440 037a 3848     		ldr	r0, .L118+4
 1441 037c FFF7FEFF 		bl	TIM_CCxCmd
 1442              	.LVL114:
 1443              		.loc 1 2882 0
 1444 0380 3A46     		mov	r2, r7
 1445 0382 3946     		mov	r1, r7
 1446 0384 A7E7     		b	.L106
 1447              	.LVL115:
 1448              	.L94:
 1449              		.loc 1 2922 0
 1450 0386 0821     		movs	r1, #8
 1451 0388 3448     		ldr	r0, .L118+4
 1452              	.LVL116:
 1453 038a FFF7FEFF 		bl	TIM_SelectOCxM
 1454              	.LVL117:
 1455              		.loc 1 2923 0
 1456 038e 0122     		movs	r2, #1
 1457 0390 0821     		movs	r1, #8
 1458 0392 3248     		ldr	r0, .L118+4
 1459 0394 FFF7FEFF 		bl	TIM_CCxCmd
 1460              	.LVL118:
 1461              		.loc 1 2924 0
 1462 0398 2A46     		mov	r2, r5
 1463 039a 0821     		movs	r1, #8
 1464 039c 2F48     		ldr	r0, .L118+4
 1465 039e FFF7FEFF 		bl	TIM_CCxNCmd
 1466              	.LVL119:
 1467              		.loc 1 2927 0
 1468 03a2 6022     		movs	r2, #96
 1469 03a4 0421     		movs	r1, #4
 1470 03a6 2D48     		ldr	r0, .L118+4
 1471 03a8 FFF7FEFF 		bl	TIM_SelectOCxM
 1472              	.LVL120:
 1473              		.loc 1 2928 0
 1474 03ac 0122     		movs	r2, #1
 1475 03ae 0421     		movs	r1, #4
 1476 03b0 2A48     		ldr	r0, .L118+4
 1477 03b2 FFF7FEFF 		bl	TIM_CCxCmd
 1478              	.LVL121:
 1479              		.loc 1 2929 0
 1480 03b6 2246     		mov	r2, r4
 1481 03b8 0421     		movs	r1, #4
 1482              	.L104:
ARM GAS  /tmp/cc6nscCq.s 			page 27


 1483              		.loc 1 2971 0
 1484 03ba 2848     		ldr	r0, .L118+4
 1485 03bc FFF7FEFF 		bl	TIM_CCxNCmd
 1486              	.LVL122:
 1487              		.loc 1 2974 0
 1488 03c0 3246     		mov	r2, r6
 1489 03c2 C1E6     		b	.L102
 1490              	.LVL123:
 1491              	.L96:
 1492              		.loc 1 2964 0
 1493 03c4 0421     		movs	r1, #4
 1494 03c6 2548     		ldr	r0, .L118+4
 1495              	.LVL124:
 1496 03c8 FFF7FEFF 		bl	TIM_SelectOCxM
 1497              	.LVL125:
 1498              		.loc 1 2965 0
 1499 03cc 0122     		movs	r2, #1
 1500 03ce 0421     		movs	r1, #4
 1501 03d0 2248     		ldr	r0, .L118+4
 1502 03d2 FFF7FEFF 		bl	TIM_CCxCmd
 1503              	.LVL126:
 1504              		.loc 1 2966 0
 1505 03d6 2A46     		mov	r2, r5
 1506 03d8 0421     		movs	r1, #4
 1507 03da 2048     		ldr	r0, .L118+4
 1508 03dc FFF7FEFF 		bl	TIM_CCxNCmd
 1509              	.LVL127:
 1510              		.loc 1 2969 0
 1511 03e0 6022     		movs	r2, #96
 1512 03e2 0821     		movs	r1, #8
 1513 03e4 1D48     		ldr	r0, .L118+4
 1514 03e6 FFF7FEFF 		bl	TIM_SelectOCxM
 1515              	.LVL128:
 1516              		.loc 1 2970 0
 1517 03ea 0122     		movs	r2, #1
 1518 03ec 0821     		movs	r1, #8
 1519 03ee 1B48     		ldr	r0, .L118+4
 1520 03f0 FFF7FEFF 		bl	TIM_CCxCmd
 1521              	.LVL129:
 1522              		.loc 1 2971 0
 1523 03f4 2246     		mov	r2, r4
 1524 03f6 0821     		movs	r1, #8
 1525 03f8 DFE7     		b	.L104
 1526              	.LVL130:
 1527              	.L95:
 1528              		.loc 1 2985 0
 1529 03fa 4022     		movs	r2, #64
 1530 03fc 0021     		movs	r1, #0
 1531 03fe 1748     		ldr	r0, .L118+4
 1532              	.LVL131:
 1533 0400 FFF7FEFF 		bl	TIM_SelectOCxM
 1534              	.LVL132:
 1535              		.loc 1 2986 0
 1536 0404 0122     		movs	r2, #1
 1537 0406 0021     		movs	r1, #0
 1538 0408 1448     		ldr	r0, .L118+4
 1539 040a FFF7FEFF 		bl	TIM_CCxCmd
ARM GAS  /tmp/cc6nscCq.s 			page 28


 1540              	.LVL133:
 1541              		.loc 1 2987 0
 1542 040e 0022     		movs	r2, #0
 1543 0410 1146     		mov	r1, r2
 1544 0412 1248     		ldr	r0, .L118+4
 1545 0414 FFF7FEFF 		bl	TIM_CCxNCmd
 1546              	.LVL134:
 1547              		.loc 1 2989 0
 1548 0418 4022     		movs	r2, #64
 1549 041a 0421     		movs	r1, #4
 1550 041c 0F48     		ldr	r0, .L118+4
 1551 041e FFF7FEFF 		bl	TIM_SelectOCxM
 1552              	.LVL135:
 1553              		.loc 1 2990 0
 1554 0422 0122     		movs	r2, #1
 1555 0424 0421     		movs	r1, #4
 1556 0426 0D48     		ldr	r0, .L118+4
 1557 0428 FFF7FEFF 		bl	TIM_CCxCmd
 1558              	.LVL136:
 1559              		.loc 1 2991 0
 1560 042c 0022     		movs	r2, #0
 1561 042e 0421     		movs	r1, #4
 1562 0430 0A48     		ldr	r0, .L118+4
 1563 0432 FFF7FEFF 		bl	TIM_CCxNCmd
 1564              	.LVL137:
 1565              		.loc 1 2993 0
 1566 0436 4022     		movs	r2, #64
 1567 0438 0821     		movs	r1, #8
 1568 043a 0848     		ldr	r0, .L118+4
 1569 043c FFF7FEFF 		bl	TIM_SelectOCxM
 1570              	.LVL138:
 1571              		.loc 1 2994 0
 1572 0440 0122     		movs	r2, #1
 1573 0442 0821     		movs	r1, #8
 1574 0444 0548     		ldr	r0, .L118+4
 1575 0446 FFF7FEFF 		bl	TIM_CCxCmd
 1576              	.LVL139:
 1577              		.loc 1 2995 0
 1578 044a 0022     		movs	r2, #0
 1579 044c 0821     		movs	r1, #8
 1580 044e 0348     		ldr	r0, .L118+4
 1581              		.loc 1 2997 0
 1582 0450 BDE8F840 		pop	{r3, r4, r5, r6, r7, lr}
 1583              		.cfi_restore 14
 1584              		.cfi_restore 7
 1585              		.cfi_restore 6
 1586              		.cfi_restore 5
 1587              		.cfi_restore 4
 1588              		.cfi_restore 3
 1589              		.cfi_def_cfa_offset 0
 1590              	.LVL140:
 1591              		.loc 1 2995 0
 1592 0454 FFF7FEBF 		b	TIM_CCxNCmd
 1593              	.LVL141:
 1594              	.L119:
 1595              		.align	2
 1596              	.L118:
ARM GAS  /tmp/cc6nscCq.s 			page 29


 1597 0458 00000000 		.word	.LANCHOR4
 1598 045c 00000140 		.word	1073807360
 1599              		.cfi_endproc
 1600              	.LFE324:
 1601              		.size	set_next_comm_step, .-set_next_comm_step
 1602              		.section	.text.full_brake_hw,"ax",%progbits
 1603              		.align	1
 1604              		.p2align 4,,15
 1605              		.syntax unified
 1606              		.thumb
 1607              		.thumb_func
 1608              		.fpu fpv4-sp-d16
 1609              		.type	full_brake_hw, %function
 1610              	full_brake_hw:
 1611              	.LFB293:
 1612              		.loc 1 938 0
 1613              		.cfi_startproc
 1614              		@ args = 0, pretend = 0, frame = 0
 1615              		@ frame_needed = 0, uses_anonymous_args = 0
 1616 0000 10B5     		push	{r4, lr}
 1617              		.cfi_def_cfa_offset 8
 1618              		.cfi_offset 4, -8
 1619              		.cfi_offset 14, -4
 1620              		.loc 1 943 0
 1621 0002 1D4C     		ldr	r4, .L122
 1622 0004 4022     		movs	r2, #64
 1623 0006 2046     		mov	r0, r4
 1624 0008 0021     		movs	r1, #0
 1625 000a FFF7FEFF 		bl	TIM_SelectOCxM
 1626              	.LVL142:
 1627              		.loc 1 944 0
 1628 000e 2046     		mov	r0, r4
 1629 0010 0122     		movs	r2, #1
 1630 0012 0021     		movs	r1, #0
 1631 0014 FFF7FEFF 		bl	TIM_CCxCmd
 1632              	.LVL143:
 1633              		.loc 1 945 0
 1634 0018 2046     		mov	r0, r4
 1635 001a 0422     		movs	r2, #4
 1636 001c 0021     		movs	r1, #0
 1637 001e FFF7FEFF 		bl	TIM_CCxNCmd
 1638              	.LVL144:
 1639              		.loc 1 947 0
 1640 0022 2046     		mov	r0, r4
 1641 0024 4022     		movs	r2, #64
 1642 0026 0421     		movs	r1, #4
 1643 0028 FFF7FEFF 		bl	TIM_SelectOCxM
 1644              	.LVL145:
 1645              		.loc 1 948 0
 1646 002c 2046     		mov	r0, r4
 1647 002e 0122     		movs	r2, #1
 1648 0030 0421     		movs	r1, #4
 1649 0032 FFF7FEFF 		bl	TIM_CCxCmd
 1650              	.LVL146:
 1651              		.loc 1 949 0
 1652 0036 0422     		movs	r2, #4
 1653 0038 2046     		mov	r0, r4
ARM GAS  /tmp/cc6nscCq.s 			page 30


 1654 003a 1146     		mov	r1, r2
 1655 003c FFF7FEFF 		bl	TIM_CCxNCmd
 1656              	.LVL147:
 1657              		.loc 1 951 0
 1658 0040 2046     		mov	r0, r4
 1659 0042 4022     		movs	r2, #64
 1660 0044 0821     		movs	r1, #8
 1661 0046 FFF7FEFF 		bl	TIM_SelectOCxM
 1662              	.LVL148:
 1663              		.loc 1 952 0
 1664 004a 2046     		mov	r0, r4
 1665 004c 0122     		movs	r2, #1
 1666 004e 0821     		movs	r1, #8
 1667 0050 FFF7FEFF 		bl	TIM_CCxCmd
 1668              	.LVL149:
 1669              		.loc 1 953 0
 1670 0054 2046     		mov	r0, r4
 1671 0056 0422     		movs	r2, #4
 1672 0058 0821     		movs	r1, #8
 1673 005a FFF7FEFF 		bl	TIM_CCxNCmd
 1674              	.LVL150:
 1675              		.loc 1 955 0
 1676 005e 2046     		mov	r0, r4
 1677 0060 2021     		movs	r1, #32
 1678 0062 FFF7FEFF 		bl	TIM_GenerateEvent
 1679              	.LVL151:
 1680              		.loc 1 957 0
 1681 0066 054B     		ldr	r3, .L122+4
 1682 0068 1B68     		ldr	r3, [r3]
 1683              		.loc 1 958 0
 1684 006a BDE81040 		pop	{r4, lr}
 1685              		.cfi_restore 14
 1686              		.cfi_restore 4
 1687              		.cfi_def_cfa_offset 0
 1688              		.loc 1 957 0
 1689 006e 93ED690A 		vldr.32	s0, [r3, #420]
 1690 0072 FFF7FEBF 		b	set_switching_frequency
 1691              	.LVL152:
 1692              	.L123:
 1693 0076 00BF     		.align	2
 1694              	.L122:
 1695 0078 00000140 		.word	1073807360
 1696 007c 00000000 		.word	.LANCHOR0
 1697              		.cfi_endproc
 1698              	.LFE293:
 1699              		.size	full_brake_hw, .-full_brake_hw
 1700              		.section	.text.stop_pwm_hw,"ax",%progbits
 1701              		.align	1
 1702              		.p2align 4,,15
 1703              		.syntax unified
 1704              		.thumb
 1705              		.thumb_func
 1706              		.fpu fpv4-sp-d16
 1707              		.type	stop_pwm_hw, %function
 1708              	stop_pwm_hw:
 1709              	.LFB291:
 1710              		.loc 1 910 0
ARM GAS  /tmp/cc6nscCq.s 			page 31


 1711              		.cfi_startproc
 1712              		@ args = 0, pretend = 0, frame = 0
 1713              		@ frame_needed = 0, uses_anonymous_args = 0
 1714 0000 10B5     		push	{r4, lr}
 1715              		.cfi_def_cfa_offset 8
 1716              		.cfi_offset 4, -8
 1717              		.cfi_offset 14, -4
 1718              		.loc 1 915 0
 1719 0002 1D4C     		ldr	r4, .L126
 1720 0004 4022     		movs	r2, #64
 1721 0006 2046     		mov	r0, r4
 1722 0008 0021     		movs	r1, #0
 1723 000a FFF7FEFF 		bl	TIM_SelectOCxM
 1724              	.LVL153:
 1725              		.loc 1 916 0
 1726 000e 2046     		mov	r0, r4
 1727 0010 0122     		movs	r2, #1
 1728 0012 0021     		movs	r1, #0
 1729 0014 FFF7FEFF 		bl	TIM_CCxCmd
 1730              	.LVL154:
 1731              		.loc 1 917 0
 1732 0018 0022     		movs	r2, #0
 1733 001a 2046     		mov	r0, r4
 1734 001c 1146     		mov	r1, r2
 1735 001e FFF7FEFF 		bl	TIM_CCxNCmd
 1736              	.LVL155:
 1737              		.loc 1 919 0
 1738 0022 2046     		mov	r0, r4
 1739 0024 4022     		movs	r2, #64
 1740 0026 0421     		movs	r1, #4
 1741 0028 FFF7FEFF 		bl	TIM_SelectOCxM
 1742              	.LVL156:
 1743              		.loc 1 920 0
 1744 002c 2046     		mov	r0, r4
 1745 002e 0122     		movs	r2, #1
 1746 0030 0421     		movs	r1, #4
 1747 0032 FFF7FEFF 		bl	TIM_CCxCmd
 1748              	.LVL157:
 1749              		.loc 1 921 0
 1750 0036 2046     		mov	r0, r4
 1751 0038 0022     		movs	r2, #0
 1752 003a 0421     		movs	r1, #4
 1753 003c FFF7FEFF 		bl	TIM_CCxNCmd
 1754              	.LVL158:
 1755              		.loc 1 923 0
 1756 0040 2046     		mov	r0, r4
 1757 0042 4022     		movs	r2, #64
 1758 0044 0821     		movs	r1, #8
 1759 0046 FFF7FEFF 		bl	TIM_SelectOCxM
 1760              	.LVL159:
 1761              		.loc 1 924 0
 1762 004a 2046     		mov	r0, r4
 1763 004c 0122     		movs	r2, #1
 1764 004e 0821     		movs	r1, #8
 1765 0050 FFF7FEFF 		bl	TIM_CCxCmd
 1766              	.LVL160:
 1767              		.loc 1 925 0
ARM GAS  /tmp/cc6nscCq.s 			page 32


 1768 0054 2046     		mov	r0, r4
 1769 0056 0022     		movs	r2, #0
 1770 0058 0821     		movs	r1, #8
 1771 005a FFF7FEFF 		bl	TIM_CCxNCmd
 1772              	.LVL161:
 1773              		.loc 1 927 0
 1774 005e 2046     		mov	r0, r4
 1775 0060 2021     		movs	r1, #32
 1776 0062 FFF7FEFF 		bl	TIM_GenerateEvent
 1777              	.LVL162:
 1778              		.loc 1 929 0
 1779 0066 054B     		ldr	r3, .L126+4
 1780 0068 1B68     		ldr	r3, [r3]
 1781              		.loc 1 930 0
 1782 006a BDE81040 		pop	{r4, lr}
 1783              		.cfi_restore 14
 1784              		.cfi_restore 4
 1785              		.cfi_def_cfa_offset 0
 1786              		.loc 1 929 0
 1787 006e 93ED690A 		vldr.32	s0, [r3, #420]
 1788 0072 FFF7FEBF 		b	set_switching_frequency
 1789              	.LVL163:
 1790              	.L127:
 1791 0076 00BF     		.align	2
 1792              	.L126:
 1793 0078 00000140 		.word	1073807360
 1794 007c 00000000 		.word	.LANCHOR0
 1795              		.cfi_endproc
 1796              	.LFE291:
 1797              		.size	stop_pwm_hw, .-stop_pwm_hw
 1798              		.section	.text.update_rpm_tacho,"ax",%progbits
 1799              		.align	1
 1800              		.p2align 4,,15
 1801              		.syntax unified
 1802              		.thumb
 1803              		.thumb_func
 1804              		.fpu fpv4-sp-d16
 1805              		.type	update_rpm_tacho, %function
 1806              	update_rpm_tacho:
 1807              	.LFB318:
 1808              		.loc 1 2535 0
 1809              		.cfi_startproc
 1810              		@ args = 0, pretend = 0, frame = 0
 1811              		@ frame_needed = 0, uses_anonymous_args = 0
 1812              		.loc 1 2536 0
 1813 0000 1F4B     		ldr	r3, .L140
 1814              		.loc 1 2538 0
 1815 0002 2049     		ldr	r1, .L140+4
 1816              		.loc 1 2536 0
 1817 0004 1A68     		ldr	r2, [r3]
 1818              		.loc 1 2538 0
 1819 0006 0B68     		ldr	r3, [r1]
 1820              		.loc 1 2535 0
 1821 0008 70B5     		push	{r4, r5, r6, lr}
 1822              		.cfi_def_cfa_offset 16
 1823              		.cfi_offset 4, -16
 1824              		.cfi_offset 5, -12
ARM GAS  /tmp/cc6nscCq.s 			page 33


 1825              		.cfi_offset 6, -8
 1826              		.cfi_offset 14, -4
 1827              		.loc 1 2536 0
 1828 000a 013A     		subs	r2, r2, #1
 1829              	.LVL164:
 1830              		.loc 1 2538 0
 1831 000c 1E4C     		ldr	r4, .L140+8
 1832              		.loc 1 2539 0
 1833 000e 0A60     		str	r2, [r1]
 1834              		.loc 1 2538 0
 1835 0010 D31A     		subs	r3, r2, r3
 1836 0012 84FB0304 		smull	r0, r4, r4, r3
 1837 0016 A4EBE374 		sub	r4, r4, r3, asr #31
 1838 001a 04EB4404 		add	r4, r4, r4, lsl #1
 1839 001e A3EB4404 		sub	r4, r3, r4, lsl #1
 1840              	.LVL165:
 1841              		.loc 1 2541 0
 1842 0022 032C     		cmp	r4, #3
 1843 0024 21DD     		ble	.L129
 1844              		.loc 1 2542 0
 1845 0026 063C     		subs	r4, r4, #6
 1846              	.LVL166:
 1847              	.L130:
 1848              		.loc 1 2548 0
 1849 0028 184D     		ldr	r5, .L140+12
 1850              		.loc 1 2549 0
 1851 002a 194E     		ldr	r6, .L140+16
 1852              		.loc 1 2548 0
 1853 002c 6B69     		ldr	r3, [r5, #20]
 1854 002e 2344     		add	r3, r3, r4
 1855 0030 6B61     		str	r3, [r5, #20]
 1856              		.loc 1 2549 0
 1857 0032 3068     		ldr	r0, [r6]
 1858 0034 FFF7FEFF 		bl	timer_seconds_elapsed_since
 1859              	.LVL167:
 1860 0038 D5ED067A 		vldr.32	s15, [r5, #24]
 1861 003c 37EE800A 		vadd.f32	s0, s15, s0
 1862 0040 85ED060A 		vstr.32	s0, [r5, #24]
 1863              		.loc 1 2550 0
 1864 0044 FFF7FEFF 		bl	timer_time_now
 1865              	.LVL168:
 1866 0048 3060     		str	r0, [r6]
 1867              	.L132:
 1868              		.loc 1 2554 0
 1869 004a 1249     		ldr	r1, .L140+20
 1870              		.loc 1 2555 0
 1871 004c 124A     		ldr	r2, .L140+24
 1872              		.loc 1 2554 0
 1873 004e 0B68     		ldr	r3, [r1]
 1874              		.loc 1 2557 0
 1875 0050 1248     		ldr	r0, .L140+28
 1876              		.loc 1 2554 0
 1877 0052 2344     		add	r3, r3, r4
 1878 0054 0B60     		str	r3, [r1]
 1879              		.loc 1 2555 0
 1880 0056 1368     		ldr	r3, [r2]
 1881 0058 2344     		add	r3, r3, r4
ARM GAS  /tmp/cc6nscCq.s 			page 34


 1882 005a 1360     		str	r3, [r2]
 1883              		.loc 1 2557 0
 1884 005c 0368     		ldr	r3, [r0]
 1885              		.loc 1 2558 0
 1886 005e 104A     		ldr	r2, .L140+32
 1887              		.loc 1 2557 0
 1888 0060 53B9     		cbnz	r3, .L139
 1889              		.loc 1 2560 0
 1890 0062 1368     		ldr	r3, [r2]
 1891 0064 1C1B     		subs	r4, r3, r4
 1892              	.LVL169:
 1893 0066 1460     		str	r4, [r2]
 1894              		.loc 1 2562 0
 1895 0068 70BD     		pop	{r4, r5, r6, pc}
 1896              	.LVL170:
 1897              	.L129:
 1898              		.loc 1 2543 0
 1899 006a A31C     		adds	r3, r4, #2
 1900 006c 01DA     		bge	.L131
 1901              		.loc 1 2544 0
 1902 006e 0634     		adds	r4, r4, #6
 1903              	.LVL171:
 1904 0070 DAE7     		b	.L130
 1905              	.L131:
 1906              		.loc 1 2547 0
 1907 0072 002C     		cmp	r4, #0
 1908 0074 E9D0     		beq	.L132
 1909 0076 D7E7     		b	.L130
 1910              	.LVL172:
 1911              	.L139:
 1912              		.loc 1 2558 0
 1913 0078 1368     		ldr	r3, [r2]
 1914 007a 1C44     		add	r4, r4, r3
 1915              	.LVL173:
 1916 007c 1460     		str	r4, [r2]
 1917              		.loc 1 2562 0
 1918 007e 70BD     		pop	{r4, r5, r6, pc}
 1919              	.L141:
 1920              		.align	2
 1921              	.L140:
 1922 0080 00000000 		.word	.LANCHOR3
 1923 0084 00000000 		.word	.LANCHOR7
 1924 0088 ABAAAA2A 		.word	715827883
 1925 008c 00000000 		.word	.LANCHOR8
 1926 0090 00000000 		.word	.LANCHOR9
 1927 0094 00000000 		.word	.LANCHOR10
 1928 0098 00000000 		.word	.LANCHOR11
 1929 009c 00000000 		.word	.LANCHOR4
 1930 00a0 00000000 		.word	.LANCHOR12
 1931              		.cfi_endproc
 1932              	.LFE318:
 1933              		.size	update_rpm_tacho, .-update_rpm_tacho
 1934              		.section	.text.timer_thread,"ax",%progbits
 1935              		.align	1
 1936              		.p2align 4,,15
 1937              		.syntax unified
 1938              		.thumb
ARM GAS  /tmp/cc6nscCq.s 			page 35


 1939              		.thumb_func
 1940              		.fpu fpv4-sp-d16
 1941              		.type	timer_thread, %function
 1942              	timer_thread:
 1943              	.LFB300:
 1944              		.loc 1 1347 0
 1945              		.cfi_startproc
 1946              		@ args = 0, pretend = 0, frame = 0
 1947              		@ frame_needed = 0, uses_anonymous_args = 0
 1948              	.LVL174:
 1949 0000 2DE9F041 		push	{r4, r5, r6, r7, r8, lr}
 1950              		.cfi_def_cfa_offset 24
 1951              		.cfi_offset 4, -24
 1952              		.cfi_offset 5, -20
 1953              		.cfi_offset 6, -16
 1954              		.cfi_offset 7, -12
 1955              		.cfi_offset 8, -8
 1956              		.cfi_offset 14, -4
 1957              	.LBB75:
 1958              	.LBB76:
 1959              		.file 2 "ChibiOS_3.0.2/os/rt/include/chregistry.h"
 1960              		.loc 2 135 0
 1961 0004 7A4B     		ldr	r3, .L194
 1962              	.LBE76:
 1963              	.LBE75:
 1964              	.LBB80:
 1965              		.loc 1 1357 0
 1966 0006 7B4E     		ldr	r6, .L194+4
 1967              	.LBE80:
 1968              	.LBB94:
 1969              	.LBB77:
 1970              		.loc 2 135 0
 1971 0008 9A69     		ldr	r2, [r3, #24]
 1972              	.LBE77:
 1973              	.LBE94:
 1974              	.LBB95:
 1975              		.loc 1 1357 0
 1976 000a 3378     		ldrb	r3, [r6]	@ zero_extendqisi2
 1977              	.LBE95:
 1978              	.LBB96:
 1979              	.LBB78:
 1980              		.loc 2 135 0
 1981 000c 7A49     		ldr	r1, .L194+8
 1982              	.LBE78:
 1983              	.LBE96:
 1984              		.loc 1 1347 0
 1985 000e 2DED068B 		vpush.64	{d8, d9, d10}
 1986              		.cfi_def_cfa_offset 48
 1987              		.cfi_offset 80, -48
 1988              		.cfi_offset 81, -44
 1989              		.cfi_offset 82, -40
 1990              		.cfi_offset 83, -36
 1991              		.cfi_offset 84, -32
 1992              		.cfi_offset 85, -28
 1993              	.LBB97:
 1994              	.LBB79:
 1995              		.loc 2 135 0
ARM GAS  /tmp/cc6nscCq.s 			page 36


 1996 0012 9161     		str	r1, [r2, #24]
 1997              	.LBE79:
 1998              	.LBE97:
 1999              	.LBB98:
 2000              		.loc 1 1357 0
 2001 0014 002B     		cmp	r3, #0
 2002 0016 5DD1     		bne	.L170
 2003 0018 784D     		ldr	r5, .L194+12
 2004 001a 794C     		ldr	r4, .L194+16
 2005              		.loc 1 1434 0
 2006 001c 794F     		ldr	r7, .L194+20
 2007              		.loc 1 1379 0
 2008 001e 9FED7AAA 		vldr.32	s20, .L194+24
 2009              		.loc 1 1378 0
 2010 0022 DFED7A9A 		vldr.32	s19, .L194+28
 2011              		.loc 1 1399 0
 2012 0026 9FED7A9A 		vldr.32	s18, .L194+32
 2013              	.LBB81:
 2014              	.LBB82:
 2015              		.loc 1 749 0
 2016 002a DFED7A8A 		vldr.32	s17, .L194+36
 2017 002e 9FED7A8A 		vldr.32	s16, .L194+40
 2018 0032 06E0     		b	.L143
 2019              	.LVL175:
 2020              	.L189:
 2021              	.LBE82:
 2022              	.LBE81:
 2023              		.loc 1 1439 0
 2024 0034 2360     		str	r3, [r4]
 2025              	.L166:
 2026              		.loc 1 1453 0
 2027 0036 0A20     		movs	r0, #10
 2028 0038 FFF7FEFF 		bl	chThdSleep
 2029              	.LVL176:
 2030              		.loc 1 1357 0
 2031 003c 3378     		ldrb	r3, [r6]	@ zero_extendqisi2
 2032 003e 002B     		cmp	r3, #0
 2033 0040 48D1     		bne	.L170
 2034              	.L143:
 2035              		.loc 1 1362 0
 2036 0042 2B78     		ldrb	r3, [r5]	@ zero_extendqisi2
 2037 0044 03F0FF08 		and	r8, r3, #255
 2038 0048 23B3     		cbz	r3, .L188
 2039              		.loc 1 1434 0
 2040 004a 0023     		movs	r3, #0
 2041 004c 3B60     		str	r3, [r7]
 2042              	.L164:
 2043              		.loc 1 1439 0
 2044 004e 2368     		ldr	r3, [r4]
 2045 0050 0133     		adds	r3, r3, #1
 2046              		.loc 1 1440 0
 2047 0052 092B     		cmp	r3, #9
 2048 0054 EEDD     		ble	.L189
 2049              		.loc 1 1442 0
 2050 0056 2B78     		ldrb	r3, [r5]	@ zero_extendqisi2
 2051              		.loc 1 1441 0
 2052 0058 0022     		movs	r2, #0
ARM GAS  /tmp/cc6nscCq.s 			page 37


 2053              		.loc 1 1442 0
 2054 005a 022B     		cmp	r3, #2
 2055              		.loc 1 1441 0
 2056 005c 2260     		str	r2, [r4]
 2057              		.loc 1 1442 0
 2058 005e 64D0     		beq	.L190
 2059              		.loc 1 1445 0
 2060 0060 2B78     		ldrb	r3, [r5]	@ zero_extendqisi2
 2061 0062 002B     		cmp	r3, #0
 2062 0064 E7D1     		bne	.L166
 2063              		.loc 1 1446 0
 2064 0066 6D4A     		ldr	r2, .L194+44
 2065 0068 6D4B     		ldr	r3, .L194+48
 2066 006a 1268     		ldr	r2, [r2]
 2067 006c 92ED157A 		vldr.32	s14, [r2, #84]
 2068 0070 D3ED007A 		vldr.32	s15, [r3]
 2069 0074 B4EEE77A 		vcmpe.f32	s14, s15
 2070 0078 F1EE10FA 		vmrs	APSR_nzcv, FPSCR
 2071 007c DBD8     		bhi	.L166
 2072              	.LBB86:
 2073              	.LBB83:
 2074              		.loc 1 749 0
 2075 007e 6949     		ldr	r1, .L194+52
 2076 0080 694A     		ldr	r2, .L194+56
 2077 0082 91ED000A 		vldr.32	s0, [r1]
 2078 0086 D28A     		ldrh	r2, [r2, #22]
 2079 0088 93ED007A 		vldr.32	s14, [r3]
 2080 008c 07EE902A 		vmov	s15, r2	@ int
 2081              	.LBE83:
 2082              	.LBE86:
 2083              		.loc 1 1447 0
 2084 0090 664A     		ldr	r2, .L194+60
 2085 0092 55E0     		b	.L187
 2086              	.L188:
 2087              		.loc 1 1365 0
 2088 0094 664B     		ldr	r3, .L194+64
 2089 0096 6749     		ldr	r1, .L194+68
 2090 0098 1B68     		ldr	r3, [r3]
 2091 009a 6748     		ldr	r0, .L194+72
 2092 009c 0722     		movs	r2, #7
 2093 009e FFF7FEFF 		bl	filter_run_fir_iteration
 2094              	.LVL177:
 2095              		.loc 1 1369 0
 2096 00a2 5E4B     		ldr	r3, .L194+44
 2097 00a4 1968     		ldr	r1, [r3]
 2098 00a6 8B78     		ldrb	r3, [r1, #2]	@ zero_extendqisi2
 2099 00a8 DBB2     		uxtb	r3, r3
 2100 00aa 012B     		cmp	r3, #1
 2101 00ac 18D0     		beq	.L191
 2102              		.loc 1 1377 0
 2103 00ae 634B     		ldr	r3, .L194+76
 2104 00b0 1B78     		ldrb	r3, [r3]	@ zero_extendqisi2
 2105 00b2 03F0FF00 		and	r0, r3, #255
 2106 00b6 002B     		cmp	r3, #0
 2107 00b8 59D1     		bne	.L192
 2108              		.loc 1 1414 0
 2109 00ba 3B68     		ldr	r3, [r7]
ARM GAS  /tmp/cc6nscCq.s 			page 38


 2110 00bc 0333     		adds	r3, r3, #3
 2111 00be 50DA     		bge	.L159
 2112              		.loc 1 1415 0
 2113 00c0 5F4A     		ldr	r2, .L194+80
 2114 00c2 1368     		ldr	r3, [r2]
 2115 00c4 012B     		cmp	r3, #1
 2116 00c6 00F09080 		beq	.L193
 2117              	.L160:
 2118              		.loc 1 1418 0
 2119 00ca 0123     		movs	r3, #1
 2120 00cc 1360     		str	r3, [r2]
 2121              	.L161:
 2122              		.loc 1 1420 0
 2123 00ce 0023     		movs	r3, #0
 2124 00d0 3B60     		str	r3, [r7]
 2125 00d2 10E0     		b	.L148
 2126              	.LVL178:
 2127              	.L170:
 2128              	.LBE98:
 2129              		.loc 1 1455 0
 2130 00d4 BDEC068B 		vldm	sp!, {d8-d10}
 2131              		.cfi_remember_state
 2132              		.cfi_restore 84
 2133              		.cfi_restore 85
 2134              		.cfi_restore 82
 2135              		.cfi_restore 83
 2136              		.cfi_restore 80
 2137              		.cfi_restore 81
 2138              		.cfi_def_cfa_offset 24
 2139              	.LBB99:
 2140              		.loc 1 1358 0
 2141 00d8 0023     		movs	r3, #0
 2142 00da 3370     		strb	r3, [r6]
 2143              	.LBE99:
 2144              		.loc 1 1455 0
 2145 00dc BDE8F081 		pop	{r4, r5, r6, r7, r8, pc}
 2146              	.LVL179:
 2147              	.L191:
 2148              		.cfi_restore_state
 2149              	.LBB100:
 2150              		.loc 1 1370 0
 2151 00e0 B5EEC00A 		vcmpe.f32	s0, #0
 2152              		.loc 1 1371 0
 2153 00e4 564A     		ldr	r2, .L194+80
 2154              		.loc 1 1370 0
 2155 00e6 F1EE10FA 		vmrs	APSR_nzcv, FPSCR
 2156              		.loc 1 1371 0
 2157 00ea CEBF     		itee	gt
 2158 00ec C2F80080 		strgt	r8, [r2]
 2159              		.loc 1 1374 0
 2160 00f0 B1EE400A 		vnegle.f32	s0, s0
 2161              	.LVL180:
 2162              		.loc 1 1373 0
 2163 00f4 1360     		strle	r3, [r2]
 2164              	.L148:
 2165              		.loc 1 1427 0
 2166 00f6 1368     		ldr	r3, [r2]
ARM GAS  /tmp/cc6nscCq.s 			page 39


 2167              		.loc 1 1428 0
 2168 00f8 4B4A     		ldr	r2, .L194+56
 2169              		.loc 1 1432 0
 2170 00fa 4948     		ldr	r0, .L194+48
 2171              		.loc 1 1428 0
 2172 00fc D28A     		ldrh	r2, [r2, #22]
 2173 00fe 07EE902A 		vmov	s15, r2	@ int
 2174              		.loc 1 1427 0
 2175 0102 012B     		cmp	r3, #1
 2176              		.loc 1 1428 0
 2177 0104 F8EE677A 		vcvt.f32.u32	s15, s15
 2178              		.loc 1 1430 0
 2179 0108 18BF     		it	ne
 2180 010a B1EE400A 		vnegne.f32	s0, s0
 2181              	.LVL181:
 2182 010e 80EE277A 		vdiv.f32	s14, s0, s15
 2183              		.loc 1 1428 0
 2184 0112 434B     		ldr	r3, .L194+48
 2185              		.loc 1 1430 0
 2186 0114 83ED007A 		vstr.32	s14, [r3]
 2187              		.loc 1 1432 0
 2188 0118 91ED160A 		vldr.32	s0, [r1, #88]
 2189 011c D1ED160A 		vldr.32	s1, [r1, #88]
 2190 0120 B1EE400A 		vneg.f32	s0, s0
 2191 0124 FFF7FEFF 		bl	utils_truncate_number
 2192              	.LVL182:
 2193 0128 91E7     		b	.L164
 2194              	.L190:
 2195              	.LBB87:
 2196              	.LBB88:
 2197              		.loc 1 749 0
 2198 012a 3E4A     		ldr	r2, .L194+52
 2199 012c 3E4B     		ldr	r3, .L194+56
 2200 012e 92ED000A 		vldr.32	s0, [r2]
 2201 0132 DB8A     		ldrh	r3, [r3, #22]
 2202              	.LBE88:
 2203              	.LBE87:
 2204              		.loc 1 1443 0
 2205 0134 3D4A     		ldr	r2, .L194+60
 2206              	.LBB90:
 2207              	.LBB89:
 2208              		.loc 1 749 0
 2209 0136 07EE903A 		vmov	s15, r3	@ int
 2210 013a 394B     		ldr	r3, .L194+48
 2211 013c 93ED007A 		vldr.32	s14, [r3]
 2212              	.L187:
 2213              	.LBE89:
 2214              	.LBE90:
 2215              		.loc 1 1447 0
 2216 0140 4048     		ldr	r0, .L194+84
 2217              	.LBB91:
 2218              	.LBB84:
 2219              		.loc 1 749 0
 2220 0142 F8EE677A 		vcvt.f32.u32	s15, s15
 2221 0146 B0EEC77A 		vabs.f32	s14, s14
 2222 014a 67EEA87A 		vmul.f32	s15, s15, s17
 2223              	.LBE84:
ARM GAS  /tmp/cc6nscCq.s 			page 40


 2224              	.LBE91:
 2225              		.loc 1 1447 0
 2226 014e 0721     		movs	r1, #7
 2227              	.LBB92:
 2228              	.LBB85:
 2229              		.loc 1 749 0
 2230 0150 67EE887A 		vmul.f32	s15, s15, s16
 2231 0154 67EE877A 		vmul.f32	s15, s15, s14
 2232              	.LBE85:
 2233              	.LBE92:
 2234              		.loc 1 1447 0
 2235 0158 80EE270A 		vdiv.f32	s0, s0, s15
 2236 015c FFF7FEFF 		bl	filter_add_sample
 2237              	.LVL183:
 2238 0160 69E7     		b	.L166
 2239              	.LVL184:
 2240              	.L159:
 2241              		.loc 1 1421 0
 2242 0162 3B68     		ldr	r3, [r7]
 2243 0164 364A     		ldr	r2, .L194+80
 2244 0166 002B     		cmp	r3, #0
 2245              		.loc 1 1422 0
 2246 0168 C8BF     		it	gt
 2247 016a 3860     		strgt	r0, [r7]
 2248 016c C3E7     		b	.L148
 2249              	.L192:
 2250 016e DFF8D8C0 		ldr	ip, .L194+88
 2251              		.loc 1 1379 0
 2252 0172 F0EE4A7A 		vmov.f32	s15, s20
 2253              		.loc 1 1378 0
 2254 0176 F0EE696A 		vmov.f32	s13, s19
 2255              	.LBB93:
 2256              		.loc 1 1381 0
 2257 017a 4346     		mov	r3, r8
 2258              	.L154:
 2259              	.LVL185:
 2260              		.loc 1 1382 0
 2261 017c 9A00     		lsls	r2, r3, #2
 2262 017e 0CEB0200 		add	r0, ip, r2
 2263 0182 90ED007A 		vldr.32	s14, [r0]
 2264 0186 B4EEE67A 		vcmpe.f32	s14, s13
 2265 018a F1EE10FA 		vmrs	APSR_nzcv, FPSCR
 2266              		.loc 1 1383 0
 2267 018e 48BF     		it	mi
 2268 0190 D0ED006A 		vldrmi.32	s13, [r0]
 2269              	.LVL186:
 2270              		.loc 1 1386 0
 2271 0194 90ED007A 		vldr.32	s14, [r0]
 2272 0198 B4EEE77A 		vcmpe.f32	s14, s15
 2273 019c F1EE10FA 		vmrs	APSR_nzcv, FPSCR
 2274              		.loc 1 1381 0
 2275 01a0 03F10103 		add	r3, r3, #1
 2276              	.LVL187:
 2277              		.loc 1 1387 0
 2278 01a4 C8BF     		it	gt
 2279 01a6 D0ED007A 		vldrgt.32	s15, [r0]
 2280              	.LVL188:
ARM GAS  /tmp/cc6nscCq.s 			page 41


 2281              		.loc 1 1381 0
 2282 01aa 062B     		cmp	r3, #6
 2283 01ac E6D1     		bne	.L154
 2284              	.LBE93:
 2285              		.loc 1 1399 0
 2286 01ae 36EEA77A 		vadd.f32	s14, s13, s15
 2287 01b2 B6EE006A 		vmov.f32	s12, #5.0e-1
 2288 01b6 77EEE67A 		vsub.f32	s15, s15, s13
 2289              	.LVL189:
 2290 01ba 27EE067A 		vmul.f32	s14, s14, s12
 2291 01be C7EE876A 		vdiv.f32	s13, s15, s14
 2292              	.LVL190:
 2293 01c2 F4EEC96A 		vcmpe.f32	s13, s18
 2294 01c6 F1EE10FA 		vmrs	APSR_nzcv, FPSCR
 2295 01ca 0ADD     		ble	.L182
 2296              		.loc 1 1400 0
 2297 01cc 3B68     		ldr	r3, [r7]
 2298              	.LVL191:
 2299              		.loc 1 1401 0
 2300 01ce 1C4A     		ldr	r2, .L194+80
 2301              		.loc 1 1400 0
 2302 01d0 0C2B     		cmp	r3, #12
 2303 01d2 90DD     		ble	.L148
 2304              		.loc 1 1401 0
 2305 01d4 1368     		ldr	r3, [r2]
 2306 01d6 012B     		cmp	r3, #1
 2307 01d8 7FF477AF 		bne	.L160
 2308              		.loc 1 1402 0
 2309 01dc 0023     		movs	r3, #0
 2310 01de 1360     		str	r3, [r2]
 2311 01e0 75E7     		b	.L161
 2312              	.LVL192:
 2313              	.L182:
 2314              		.loc 1 1409 0
 2315 01e2 0023     		movs	r3, #0
 2316              	.LVL193:
 2317 01e4 3B60     		str	r3, [r7]
 2318 01e6 164A     		ldr	r2, .L194+80
 2319 01e8 85E7     		b	.L148
 2320              	.L193:
 2321              		.loc 1 1416 0
 2322 01ea 1060     		str	r0, [r2]
 2323 01ec 6FE7     		b	.L161
 2324              	.L195:
 2325 01ee 00BF     		.align	2
 2326              	.L194:
 2327 01f0 00000000 		.word	ch
 2328 01f4 00000000 		.word	.LANCHOR13
 2329 01f8 00000000 		.word	.LC1
 2330 01fc 00000000 		.word	.LANCHOR2
 2331 0200 00000000 		.word	.LANCHOR20
 2332 0204 00000000 		.word	.LANCHOR10
 2333 0208 00000000 		.word	0
 2334 020c E7841155 		.word	1427211495
 2335 0210 9A99993F 		.word	1067030938
 2336 0214 C07B523A 		.word	978484160
 2337 0218 BAE8B241 		.word	1102244026
ARM GAS  /tmp/cc6nscCq.s 			page 42


 2338 021c 00000000 		.word	.LANCHOR0
 2339 0220 00000000 		.word	.LANCHOR19
 2340 0224 00000000 		.word	.LANCHOR21
 2341 0228 00000000 		.word	ADC_Value
 2342 022c 00000000 		.word	.LANCHOR22
 2343 0230 00000000 		.word	.LANCHOR14
 2344 0234 00000000 		.word	.LANCHOR15
 2345 0238 00000000 		.word	.LANCHOR16
 2346 023c 00000000 		.word	.LANCHOR17
 2347 0240 00000000 		.word	.LANCHOR4
 2348 0244 00000000 		.word	.LANCHOR23
 2349 0248 00000000 		.word	.LANCHOR18
 2350              	.LBE100:
 2351              		.cfi_endproc
 2352              	.LFE300:
 2353              		.size	timer_thread, .-timer_thread
 2354              		.section	.text.mcpwm_get_rpm.part.0,"ax",%progbits
 2355              		.align	1
 2356              		.p2align 4,,15
 2357              		.syntax unified
 2358              		.thumb
 2359              		.thumb_func
 2360              		.fpu fpv4-sp-d16
 2361              		.type	mcpwm_get_rpm.part.0, %function
 2362              	mcpwm_get_rpm.part.0:
 2363              	.LFB325:
 2364              		.loc 1 728 0
 2365              		.cfi_startproc
 2366              		@ args = 0, pretend = 0, frame = 0
 2367              		@ frame_needed = 0, uses_anonymous_args = 0
 2368              		@ link register save eliminated.
 2369              		.loc 1 732 0
 2370 0000 064B     		ldr	r3, .L200
 2371 0002 1B68     		ldr	r3, [r3]
 2372 0004 1BB1     		cbz	r3, .L199
 2373 0006 064B     		ldr	r3, .L200+4
 2374 0008 93ED000A 		vldr.32	s0, [r3]
 2375              		.loc 1 734 0
 2376 000c 7047     		bx	lr
 2377              	.L199:
 2378              		.loc 1 732 0
 2379 000e 044B     		ldr	r3, .L200+4
 2380 0010 93ED000A 		vldr.32	s0, [r3]
 2381 0014 B1EE400A 		vneg.f32	s0, s0
 2382 0018 7047     		bx	lr
 2383              	.L201:
 2384 001a 00BF     		.align	2
 2385              	.L200:
 2386 001c 00000000 		.word	.LANCHOR4
 2387 0020 00000000 		.word	.LANCHOR21
 2388              		.cfi_endproc
 2389              	.LFE325:
 2390              		.size	mcpwm_get_rpm.part.0, .-mcpwm_get_rpm.part.0
 2391              		.section	.text.update_sensor_mode,"ax",%progbits
 2392              		.align	1
 2393              		.p2align 4,,15
 2394              		.syntax unified
ARM GAS  /tmp/cc6nscCq.s 			page 43


 2395              		.thumb
 2396              		.thumb_func
 2397              		.fpu fpv4-sp-d16
 2398              		.type	update_sensor_mode, %function
 2399              	update_sensor_mode:
 2400              	.LFB319:
 2401              		.loc 1 2564 0
 2402              		.cfi_startproc
 2403              		@ args = 0, pretend = 0, frame = 0
 2404              		@ frame_needed = 0, uses_anonymous_args = 0
 2405 0000 08B5     		push	{r3, lr}
 2406              		.cfi_def_cfa_offset 8
 2407              		.cfi_offset 3, -8
 2408              		.cfi_offset 14, -4
 2409              		.loc 1 2565 0
 2410 0002 124B     		ldr	r3, .L211
 2411 0004 1A68     		ldr	r2, [r3]
 2412 0006 D378     		ldrb	r3, [r2, #3]	@ zero_extendqisi2
 2413 0008 CBB1     		cbz	r3, .L208
 2414              		.loc 1 2566 0 discriminator 1
 2415 000a D378     		ldrb	r3, [r2, #3]	@ zero_extendqisi2
 2416              		.loc 1 2565 0 discriminator 1
 2417 000c 022B     		cmp	r3, #2
 2418 000e 03D0     		beq	.L210
 2419              	.L205:
 2420              		.loc 1 2570 0
 2421 0010 0F4B     		ldr	r3, .L211+4
 2422 0012 0022     		movs	r2, #0
 2423 0014 1A70     		strb	r2, [r3]
 2424              		.loc 1 2572 0
 2425 0016 08BD     		pop	{r3, pc}
 2426              	.L210:
 2427              	.LBB101:
 2428              	.LBB102:
 2429              		.loc 1 729 0
 2430 0018 9378     		ldrb	r3, [r2, #2]	@ zero_extendqisi2
 2431 001a 012B     		cmp	r3, #1
 2432 001c 13D1     		bne	.L206
 2433              		.loc 1 730 0
 2434 001e 0D4B     		ldr	r3, .L211+8
 2435 0020 DFED0D7A 		vldr.32	s15, .L211+12
 2436 0024 93ED007A 		vldr.32	s14, [r3]
 2437 0028 87EE270A 		vdiv.f32	s0, s14, s15
 2438              	.L207:
 2439              	.LBE102:
 2440              	.LBE101:
 2441              		.loc 1 2567 0
 2442 002c D2ED2A7A 		vldr.32	s15, [r2, #168]
 2443 0030 B0EEC00A 		vabs.f32	s0, s0
 2444              		.loc 1 2566 0
 2445 0034 B4EEE70A 		vcmpe.f32	s0, s15
 2446 0038 F1EE10FA 		vmrs	APSR_nzcv, FPSCR
 2447 003c E8DD     		ble	.L205
 2448              	.L208:
 2449              		.loc 1 2568 0
 2450 003e 044B     		ldr	r3, .L211+4
 2451 0040 0122     		movs	r2, #1
ARM GAS  /tmp/cc6nscCq.s 			page 44


 2452 0042 1A70     		strb	r2, [r3]
 2453              		.loc 1 2572 0
 2454 0044 08BD     		pop	{r3, pc}
 2455              	.L206:
 2456              	.LBB104:
 2457              	.LBB103:
 2458 0046 FFF7FEFF 		bl	mcpwm_get_rpm.part.0
 2459              	.LVL194:
 2460 004a EFE7     		b	.L207
 2461              	.L212:
 2462              		.align	2
 2463              	.L211:
 2464 004c 00000000 		.word	.LANCHOR0
 2465 0050 00000000 		.word	.LANCHOR17
 2466 0054 00000000 		.word	.LANCHOR24
 2467 0058 5077D63D 		.word	1037465424
 2468              	.LBE103:
 2469              	.LBE104:
 2470              		.cfi_endproc
 2471              	.LFE319:
 2472              		.size	update_sensor_mode, .-update_sensor_mode
 2473              		.section	.text.commutate,"ax",%progbits
 2474              		.align	1
 2475              		.p2align 4,,15
 2476              		.syntax unified
 2477              		.thumb
 2478              		.thumb_func
 2479              		.fpu fpv4-sp-d16
 2480              		.type	commutate, %function
 2481              	commutate:
 2482              	.LFB320:
 2483              		.loc 1 2574 0
 2484              		.cfi_startproc
 2485              		@ args = 0, pretend = 0, frame = 32
 2486              		@ frame_needed = 0, uses_anonymous_args = 0
 2487              	.LVL195:
 2488              		.loc 1 2575 0
 2489 0000 2E4B     		ldr	r3, .L229
 2490 0002 2F4A     		ldr	r2, .L229+4
 2491 0004 1968     		ldr	r1, [r3]	@ float
 2492              		.loc 1 2574 0
 2493 0006 F0B5     		push	{r4, r5, r6, r7, lr}
 2494              		.cfi_def_cfa_offset 20
 2495              		.cfi_offset 4, -20
 2496              		.cfi_offset 5, -16
 2497              		.cfi_offset 6, -12
 2498              		.cfi_offset 7, -8
 2499              		.cfi_offset 14, -4
 2500              		.loc 1 2576 0
 2501 0008 2E4C     		ldr	r4, .L229+8
 2502              		.loc 1 2575 0
 2503 000a 1160     		str	r1, [r2]	@ float
 2504              		.loc 1 2576 0
 2505 000c 2168     		ldr	r1, [r4]
 2506 000e 2E4A     		ldr	r2, .L229+12
 2507              		.loc 1 2580 0
 2508 0010 2E4E     		ldr	r6, .L229+16
ARM GAS  /tmp/cc6nscCq.s 			page 45


 2509              		.loc 1 2576 0
 2510 0012 1F68     		ldr	r7, [r3]	@ float
 2511 0014 0139     		subs	r1, r1, #1
 2512 0016 02EB8102 		add	r2, r2, r1, lsl #2
 2513              		.loc 1 2577 0
 2514 001a 0025     		movs	r5, #0
 2515              		.loc 1 2578 0
 2516 001c 2C49     		ldr	r1, .L229+20
 2517              		.loc 1 2576 0
 2518 001e 1760     		str	r7, [r2]	@ float
 2519              		.loc 1 2577 0
 2520 0020 1D60     		str	r5, [r3]	@ float
 2521              		.loc 1 2580 0
 2522 0022 3268     		ldr	r2, [r6]
 2523              		.loc 1 2578 0
 2524 0024 0023     		movs	r3, #0
 2525 0026 0B60     		str	r3, [r1]
 2526              		.loc 1 2580 0
 2527 0028 9378     		ldrb	r3, [r2, #2]	@ zero_extendqisi2
 2528              		.loc 1 2574 0
 2529 002a 89B0     		sub	sp, sp, #36
 2530              		.cfi_def_cfa_offset 56
 2531              		.loc 1 2580 0
 2532 002c 23BB     		cbnz	r3, .L214
 2533              		.loc 1 2580 0 is_stmt 0 discriminator 1
 2534 002e 294B     		ldr	r3, .L229+24
 2535 0030 1B78     		ldrb	r3, [r3]	@ zero_extendqisi2
 2536 0032 0BB3     		cbz	r3, .L214
 2537              		.loc 1 2581 0 is_stmt 1
 2538 0034 2368     		ldr	r3, [r4]
 2539 0036 1844     		add	r0, r0, r3
 2540              	.LVL196:
 2541 0038 2060     		str	r0, [r4]
 2542              		.loc 1 2582 0
 2543 003a 2368     		ldr	r3, [r4]
 2544 003c 062B     		cmp	r3, #6
 2545 003e 0BDD     		ble	.L227
 2546              	.L216:
 2547              		.loc 1 2583 0
 2548 0040 2368     		ldr	r3, [r4]
 2549 0042 063B     		subs	r3, r3, #6
 2550 0044 2360     		str	r3, [r4]
 2551              		.loc 1 2582 0
 2552 0046 2368     		ldr	r3, [r4]
 2553 0048 062B     		cmp	r3, #6
 2554 004a F9DC     		bgt	.L216
 2555              		.loc 1 2585 0
 2556 004c 2368     		ldr	r3, [r4]
 2557 004e 002B     		cmp	r3, #0
 2558 0050 05DC     		bgt	.L228
 2559              	.L218:
 2560              		.loc 1 2586 0
 2561 0052 2368     		ldr	r3, [r4]
 2562 0054 0633     		adds	r3, r3, #6
 2563 0056 2360     		str	r3, [r4]
 2564              	.L227:
 2565              		.loc 1 2585 0
ARM GAS  /tmp/cc6nscCq.s 			page 46


 2566 0058 2368     		ldr	r3, [r4]
 2567 005a 002B     		cmp	r3, #0
 2568 005c F9DD     		ble	.L218
 2569              	.L228:
 2570              		.loc 1 2589 0
 2571 005e FFF7FEFF 		bl	update_rpm_tacho
 2572              	.LVL197:
 2573              		.loc 1 2591 0
 2574 0062 1D4B     		ldr	r3, .L229+28
 2575 0064 1B78     		ldrb	r3, [r3]	@ zero_extendqisi2
 2576 0066 022B     		cmp	r3, #2
 2577 0068 03D0     		beq	.L219
 2578              		.loc 1 2592 0
 2579 006a FFF7FEFF 		bl	update_sensor_mode
 2580              	.LVL198:
 2581              		.loc 1 2612 0
 2582 006e 09B0     		add	sp, sp, #36
 2583              		.cfi_remember_state
 2584              		.cfi_def_cfa_offset 20
 2585              		@ sp needed
 2586 0070 F0BD     		pop	{r4, r5, r6, r7, pc}
 2587              	.L219:
 2588              		.cfi_restore_state
 2589              		.loc 1 2596 0
 2590 0072 2068     		ldr	r0, [r4]
 2591 0074 FFF7FEFF 		bl	set_next_comm_step
 2592              	.LVL199:
 2593              	.L214:
 2594              		.loc 1 2599 0
 2595 0078 2021     		movs	r1, #32
 2596 007a 1848     		ldr	r0, .L229+32
 2597              		.loc 1 2605 0
 2598 007c 184D     		ldr	r5, .L229+36
 2599              		.loc 1 2599 0
 2600 007e FFF7FEFF 		bl	TIM_GenerateEvent
 2601              	.LVL200:
 2602              		.loc 1 2600 0
 2603 0082 184B     		ldr	r3, .L229+40
 2604 0084 0122     		movs	r2, #1
 2605 0086 1A60     		str	r2, [r3]
 2606              		.loc 1 2604 0
 2607 0088 FFF7FEFF 		bl	utils_sys_lock_cnt
 2608              	.LVL201:
 2609              		.loc 1 2605 0
 2610 008c 0FCD     		ldmia	r5!, {r0, r1, r2, r3}
 2611 008e 01AC     		add	r4, sp, #4
 2612 0090 0FC4     		stmia	r4!, {r0, r1, r2, r3}
 2613 0092 95E80700 		ldm	r5, {r0, r1, r2}
 2614 0096 84E80700 		stm	r4, {r0, r1, r2}
 2615              		.loc 1 2606 0
 2616 009a FFF7FEFF 		bl	utils_sys_unlock_cnt
 2617              	.LVL202:
 2618              		.loc 1 2608 0
 2619 009e 01A8     		add	r0, sp, #4
 2620 00a0 FFF7FEFF 		bl	update_adc_sample_pos
 2621              	.LVL203:
 2622              		.loc 1 2609 0
ARM GAS  /tmp/cc6nscCq.s 			page 47


 2623 00a4 01A8     		add	r0, sp, #4
 2624 00a6 FFF7FEFF 		bl	set_next_timer_settings
 2625              	.LVL204:
 2626              		.loc 1 2610 0
 2627 00aa FFF7FEFF 		bl	update_sensor_mode
 2628              	.LVL205:
 2629              		.loc 1 2611 0
 2630 00ae 0E4B     		ldr	r3, .L229+44
 2631 00b0 3268     		ldr	r2, [r6]
 2632 00b2 1B78     		ldrb	r3, [r3]	@ zero_extendqisi2
 2633 00b4 DBB2     		uxtb	r3, r3
 2634 00b6 5370     		strb	r3, [r2, #1]
 2635              		.loc 1 2612 0
 2636 00b8 09B0     		add	sp, sp, #36
 2637              		.cfi_def_cfa_offset 20
 2638              		@ sp needed
 2639 00ba F0BD     		pop	{r4, r5, r6, r7, pc}
 2640              	.L230:
 2641              		.align	2
 2642              	.L229:
 2643 00bc 00000000 		.word	.LANCHOR25
 2644 00c0 00000000 		.word	.LANCHOR26
 2645 00c4 00000000 		.word	.LANCHOR3
 2646 00c8 00000000 		.word	.LANCHOR18
 2647 00cc 00000000 		.word	.LANCHOR0
 2648 00d0 00000000 		.word	.LANCHOR27
 2649 00d4 00000000 		.word	.LANCHOR17
 2650 00d8 00000000 		.word	.LANCHOR2
 2651 00dc 00000140 		.word	1073807360
 2652 00e0 00000000 		.word	.LANCHOR5
 2653 00e4 00000000 		.word	.LANCHOR28
 2654 00e8 00000000 		.word	.LANCHOR29
 2655              		.cfi_endproc
 2656              	.LFE320:
 2657              		.size	commutate, .-commutate
 2658              		.section	.text.mcpwm_deinit,"ax",%progbits
 2659              		.align	1
 2660              		.p2align 4,,15
 2661              		.global	mcpwm_deinit
 2662              		.syntax unified
 2663              		.thumb
 2664              		.thumb_func
 2665              		.fpu fpv4-sp-d16
 2666              		.type	mcpwm_deinit, %function
 2667              	mcpwm_deinit:
 2668              	.LFB260:
 2669              		.loc 1 460 0
 2670              		.cfi_startproc
 2671              		@ args = 0, pretend = 0, frame = 0
 2672              		@ frame_needed = 0, uses_anonymous_args = 0
 2673 0000 38B5     		push	{r3, r4, r5, lr}
 2674              		.cfi_def_cfa_offset 16
 2675              		.cfi_offset 3, -16
 2676              		.cfi_offset 4, -12
 2677              		.cfi_offset 5, -8
 2678              		.cfi_offset 14, -4
 2679              		.loc 1 461 0
ARM GAS  /tmp/cc6nscCq.s 			page 48


 2680 0002 144B     		ldr	r3, .L236
 2681 0004 1A78     		ldrb	r2, [r3]	@ zero_extendqisi2
 2682 0006 1AB3     		cbz	r2, .L231
 2683              		.loc 1 467 0
 2684 0008 134C     		ldr	r4, .L236+4
 2685              		.loc 1 468 0
 2686 000a 144D     		ldr	r5, .L236+8
 2687              		.loc 1 467 0
 2688 000c 0122     		movs	r2, #1
 2689              		.loc 1 465 0
 2690 000e 0021     		movs	r1, #0
 2691 0010 1970     		strb	r1, [r3]
 2692              		.loc 1 467 0
 2693 0012 2270     		strb	r2, [r4]
 2694              		.loc 1 468 0
 2695 0014 2A70     		strb	r2, [r5]
 2696              		.loc 1 470 0
 2697 0016 01E0     		b	.L233
 2698              	.L234:
 2699              		.loc 1 471 0
 2700 0018 FFF7FEFF 		bl	chThdSleep
 2701              	.LVL206:
 2702              	.L233:
 2703              		.loc 1 470 0
 2704 001c 2378     		ldrb	r3, [r4]	@ zero_extendqisi2
 2705              		.loc 1 471 0
 2706 001e 0A20     		movs	r0, #10
 2707              		.loc 1 470 0
 2708 0020 002B     		cmp	r3, #0
 2709 0022 F9D1     		bne	.L234
 2710              		.loc 1 470 0 is_stmt 0 discriminator 1
 2711 0024 2B78     		ldrb	r3, [r5]	@ zero_extendqisi2
 2712 0026 002B     		cmp	r3, #0
 2713 0028 F6D1     		bne	.L234
 2714              		.loc 1 474 0 is_stmt 1
 2715 002a 0D48     		ldr	r0, .L236+12
 2716 002c FFF7FEFF 		bl	TIM_DeInit
 2717              	.LVL207:
 2718              		.loc 1 475 0
 2719 0030 0C48     		ldr	r0, .L236+16
 2720 0032 FFF7FEFF 		bl	TIM_DeInit
 2721              	.LVL208:
 2722              		.loc 1 476 0
 2723 0036 FFF7FEFF 		bl	ADC_DeInit
 2724              	.LVL209:
 2725              		.loc 1 477 0
 2726 003a 0B48     		ldr	r0, .L236+20
 2727 003c FFF7FEFF 		bl	DMA_DeInit
 2728              	.LVL210:
 2729              		.loc 1 478 0
 2730 0040 1220     		movs	r0, #18
 2731 0042 FFF7FEFF 		bl	nvicDisableVector
 2732              	.LVL211:
 2733              		.loc 1 479 0
 2734 0046 0948     		ldr	r0, .L236+24
 2735              		.loc 1 480 0
 2736 0048 BDE83840 		pop	{r3, r4, r5, lr}
ARM GAS  /tmp/cc6nscCq.s 			page 49


 2737              		.cfi_remember_state
 2738              		.cfi_restore 14
 2739              		.cfi_restore 5
 2740              		.cfi_restore 4
 2741              		.cfi_restore 3
 2742              		.cfi_def_cfa_offset 0
 2743              		.loc 1 479 0
 2744 004c FFF7FEBF 		b	dmaStreamRelease
 2745              	.LVL212:
 2746              	.L231:
 2747              		.cfi_restore_state
 2748              		.loc 1 480 0
 2749 0050 38BD     		pop	{r3, r4, r5, pc}
 2750              	.L237:
 2751 0052 00BF     		.align	2
 2752              	.L236:
 2753 0054 00000000 		.word	.LANCHOR30
 2754 0058 00000000 		.word	.LANCHOR13
 2755 005c 00000000 		.word	.LANCHOR31
 2756 0060 00000140 		.word	1073807360
 2757 0064 00040140 		.word	1073808384
 2758 0068 70640240 		.word	1073898608
 2759 006c 90000000 		.word	_stm32_dma_streams+144
 2760              		.cfi_endproc
 2761              	.LFE260:
 2762              		.size	mcpwm_deinit, .-mcpwm_deinit
 2763              		.section	.text.mcpwm_init_done,"ax",%progbits
 2764              		.align	1
 2765              		.p2align 4,,15
 2766              		.global	mcpwm_init_done
 2767              		.syntax unified
 2768              		.thumb
 2769              		.thumb_func
 2770              		.fpu fpv4-sp-d16
 2771              		.type	mcpwm_init_done, %function
 2772              	mcpwm_init_done:
 2773              	.LFB261:
 2774              		.loc 1 482 0
 2775              		.cfi_startproc
 2776              		@ args = 0, pretend = 0, frame = 0
 2777              		@ frame_needed = 0, uses_anonymous_args = 0
 2778              		@ link register save eliminated.
 2779              		.loc 1 483 0
 2780 0000 014B     		ldr	r3, .L239
 2781 0002 1878     		ldrb	r0, [r3]	@ zero_extendqisi2
 2782              		.loc 1 484 0
 2783 0004 7047     		bx	lr
 2784              	.L240:
 2785 0006 00BF     		.align	2
 2786              	.L239:
 2787 0008 00000000 		.word	.LANCHOR30
 2788              		.cfi_endproc
 2789              	.LFE261:
 2790              		.size	mcpwm_init_done, .-mcpwm_init_done
 2791              		.section	.text.mcpwm_init_hall_table,"ax",%progbits
 2792              		.align	1
 2793              		.p2align 4,,15
ARM GAS  /tmp/cc6nscCq.s 			page 50


 2794              		.global	mcpwm_init_hall_table
 2795              		.syntax unified
 2796              		.thumb
 2797              		.thumb_func
 2798              		.fpu fpv4-sp-d16
 2799              		.type	mcpwm_init_hall_table, %function
 2800              	mcpwm_init_hall_table:
 2801              	.LFB263:
 2802              		.loc 1 505 0
 2803              		.cfi_startproc
 2804              		@ args = 0, pretend = 0, frame = 32
 2805              		@ frame_needed = 0, uses_anonymous_args = 0
 2806              		@ link register save eliminated.
 2807              	.LVL213:
 2808 0000 F0B4     		push	{r4, r5, r6, r7}
 2809              		.cfi_def_cfa_offset 16
 2810              		.cfi_offset 4, -16
 2811              		.cfi_offset 5, -12
 2812              		.cfi_offset 6, -8
 2813              		.cfi_offset 7, -4
 2814              		.loc 1 506 0
 2815 0002 0F4F     		ldr	r7, .L248
 2816 0004 0F4C     		ldr	r4, .L248+4
 2817              		.loc 1 505 0
 2818 0006 0546     		mov	r5, r0
 2819              		.loc 1 506 0
 2820 0008 0FCF     		ldmia	r7!, {r0, r1, r2, r3}
 2821              	.LVL214:
 2822              		.loc 1 505 0
 2823 000a 88B0     		sub	sp, sp, #32
 2824              		.cfi_def_cfa_offset 48
 2825              		.loc 1 506 0
 2826 000c 01AE     		add	r6, sp, #4
 2827 000e 0FC6     		stmia	r6!, {r0, r1, r2, r3}
 2828 0010 97E80700 		ldm	r7, {r0, r1, r2}
 2829 0014 86E80700 		stm	r6, {r0, r1, r2}
 2830              	.LVL215:
 2831 0018 6A1E     		subs	r2, r5, #1
 2832 001a E81D     		adds	r0, r5, #7
 2833              	.LVL216:
 2834              	.L244:
 2835              	.LBB105:
 2836              	.LBB106:
 2837              		.loc 1 509 0
 2838 001c 12F9013F 		ldrsb	r3, [r2, #1]!
 2839              	.LVL217:
 2840 0020 44F8043B 		str	r3, [r4], #4
 2841              	.LVL218:
 2842              		.loc 1 517 0
 2843 0024 08A9     		add	r1, sp, #32
 2844 0026 01EB8301 		add	r1, r1, r3, lsl #2
 2845              		.loc 1 512 0
 2846 002a 002B     		cmp	r3, #0
 2847              		.loc 1 517 0
 2848 002c C8BF     		it	gt
 2849 002e 51F81C3C 		ldrgt	r3, [r1, #-28]
 2850              	.LVL219:
ARM GAS  /tmp/cc6nscCq.s 			page 51


 2851 0032 44F8243C 		str	r3, [r4, #-36]
 2852              	.LVL220:
 2853              	.LBE106:
 2854              		.loc 1 508 0
 2855 0036 8242     		cmp	r2, r0
 2856 0038 F0D1     		bne	.L244
 2857              	.LBE105:
 2858              		.loc 1 519 0
 2859 003a 08B0     		add	sp, sp, #32
 2860              		.cfi_def_cfa_offset 16
 2861              		@ sp needed
 2862 003c F0BC     		pop	{r4, r5, r6, r7}
 2863              		.cfi_restore 7
 2864              		.cfi_restore 6
 2865              		.cfi_restore 5
 2866              		.cfi_restore 4
 2867              		.cfi_def_cfa_offset 0
 2868              	.LVL221:
 2869 003e 7047     		bx	lr
 2870              	.L249:
 2871              		.align	2
 2872              	.L248:
 2873 0040 00000000 		.word	.LANCHOR32
 2874 0044 20000000 		.word	.LANCHOR33+32
 2875              		.cfi_endproc
 2876              	.LFE263:
 2877              		.size	mcpwm_init_hall_table, .-mcpwm_init_hall_table
 2878              		.section	.text.mcpwm_init,"ax",%progbits
 2879              		.align	1
 2880              		.p2align 4,,15
 2881              		.global	mcpwm_init
 2882              		.syntax unified
 2883              		.thumb
 2884              		.thumb_func
 2885              		.fpu fpv4-sp-d16
 2886              		.type	mcpwm_init, %function
 2887              	mcpwm_init:
 2888              	.LFB259:
 2889              		.loc 1 170 0
 2890              		.cfi_startproc
 2891              		@ args = 0, pretend = 0, frame = 176
 2892              		@ frame_needed = 0, uses_anonymous_args = 0
 2893              	.LVL222:
 2894 0000 2DE9F04F 		push	{r4, r5, r6, r7, r8, r9, r10, fp, lr}
 2895              		.cfi_def_cfa_offset 36
 2896              		.cfi_offset 4, -36
 2897              		.cfi_offset 5, -32
 2898              		.cfi_offset 6, -28
 2899              		.cfi_offset 7, -24
 2900              		.cfi_offset 8, -20
 2901              		.cfi_offset 9, -16
 2902              		.cfi_offset 10, -12
 2903              		.cfi_offset 11, -8
 2904              		.cfi_offset 14, -4
 2905 0004 2DED028B 		vpush.64	{d8}
 2906              		.cfi_def_cfa_offset 44
 2907              		.cfi_offset 80, -44
ARM GAS  /tmp/cc6nscCq.s 			page 52


 2908              		.cfi_offset 81, -40
 2909              		.loc 1 179 0
 2910 0008 C84C     		ldr	r4, .L262
 2911              		.loc 1 173 0
 2912 000a DFF8D8B3 		ldr	fp, .L262+184
 2913              		.loc 1 185 0
 2914 000e 9FEDC88A 		vldr.32	s16, .L262+4
 2915              		.loc 1 192 0
 2916 0012 DFF8D493 		ldr	r9, .L262+188
 2917              		.loc 1 198 0
 2918 0016 DFF8D4A3 		ldr	r10, .L262+192
 2919              		.loc 1 229 0
 2920 001a C64E     		ldr	r6, .L262+8
 2921              		.loc 1 230 0
 2922 001c C64F     		ldr	r7, .L262+12
 2923              		.loc 1 170 0
 2924 001e AFB0     		sub	sp, sp, #188
 2925              		.cfi_def_cfa_offset 232
 2926              		.loc 1 170 0
 2927 0020 8046     		mov	r8, r0
 2928              		.loc 1 171 0
 2929 0022 FFF7FEFF 		bl	utils_sys_lock_cnt
 2930              	.LVL223:
 2931              		.loc 1 182 0
 2932 0026 C54B     		ldr	r3, .L262+16
 2933              		.loc 1 179 0
 2934 0028 C4F80080 		str	r8, [r4]
 2935              		.loc 1 182 0
 2936 002c 0125     		movs	r5, #1
 2937              		.loc 1 173 0
 2938 002e 0024     		movs	r4, #0
 2939              		.loc 1 183 0
 2940 0030 DFF8BCE3 		ldr	lr, .L262+196
 2941              		.loc 1 184 0
 2942 0034 DFF8BCC3 		ldr	ip, .L262+200
 2943              		.loc 1 185 0
 2944 0038 C148     		ldr	r0, .L262+20
 2945              		.loc 1 173 0
 2946 003a 8BF80040 		strb	r4, [fp]
 2947              		.loc 1 186 0
 2948 003e C149     		ldr	r1, .L262+24
 2949              		.loc 1 182 0
 2950 0040 1D60     		str	r5, [r3]
 2951              		.loc 1 187 0
 2952 0042 C14A     		ldr	r2, .L262+28
 2953              		.loc 1 188 0
 2954 0044 C14B     		ldr	r3, .L262+32
 2955              		.loc 1 183 0
 2956 0046 CEF80040 		str	r4, [lr]
 2957              		.loc 1 184 0
 2958 004a CCF80050 		str	r5, [ip]
 2959              		.loc 1 185 0
 2960 004e 80ED008A 		vstr.32	s16, [r0]
 2961              		.loc 1 189 0
 2962 0052 DFF8A4C3 		ldr	ip, .L262+204
 2963              		.loc 1 190 0
 2964 0056 BE48     		ldr	r0, .L262+36
ARM GAS  /tmp/cc6nscCq.s 			page 53


 2965              		.loc 1 186 0
 2966 0058 81ED008A 		vstr.32	s16, [r1]
 2967              		.loc 1 187 0
 2968 005c 82ED008A 		vstr.32	s16, [r2]
 2969              		.loc 1 193 0
 2970 0060 BC49     		ldr	r1, .L262+40
 2971              		.loc 1 188 0
 2972 0062 83ED008A 		vstr.32	s16, [r3]
 2973              		.loc 1 191 0
 2974 0066 BC4B     		ldr	r3, .L262+44
 2975              		.loc 1 189 0
 2976 0068 8CED008A 		vstr.32	s16, [ip]
 2977              		.loc 1 194 0
 2978 006c BB4A     		ldr	r2, .L262+48
 2979              		.loc 1 190 0
 2980 006e 80ED008A 		vstr.32	s16, [r0]
 2981              		.loc 1 195 0
 2982 0072 DFF888E3 		ldr	lr, .L262+208
 2983              		.loc 1 196 0
 2984 0076 DFF888C3 		ldr	ip, .L262+212
 2985              		.loc 1 197 0
 2986 007a B948     		ldr	r0, .L262+52
 2987              		.loc 1 191 0
 2988 007c 1C60     		str	r4, [r3]
 2989              		.loc 1 192 0
 2990 007e C9F80040 		str	r4, [r9]
 2991              		.loc 1 193 0
 2992 0082 0C60     		str	r4, [r1]
 2993              		.loc 1 195 0
 2994 0084 0A21     		movs	r1, #10
 2995              		.loc 1 194 0
 2996 0086 1470     		strb	r4, [r2]
 2997              		.loc 1 195 0
 2998 0088 8EF80010 		strb	r1, [lr]
 2999              		.loc 1 196 0
 3000 008c 8CED008A 		vstr.32	s16, [ip]
 3001              		.loc 1 197 0
 3002 0090 80ED008A 		vstr.32	s16, [r0]
 3003              		.loc 1 198 0
 3004 0094 D8F8A431 		ldr	r3, [r8, #420]	@ float
 3005 0098 CAF80030 		str	r3, [r10]	@ float
 3006              		.loc 1 199 0
 3007 009c DFF864C3 		ldr	ip, .L262+216
 3008              		.loc 1 203 0
 3009 00a0 B04B     		ldr	r3, .L262+56
 3010              		.loc 1 200 0
 3011 00a2 B149     		ldr	r1, .L262+60
 3012              		.loc 1 201 0
 3013 00a4 B14A     		ldr	r2, .L262+64
 3014              		.loc 1 202 0
 3015 00a6 B248     		ldr	r0, .L262+68
 3016              		.loc 1 199 0
 3017 00a8 CCF80040 		str	r4, [ip]
 3018              		.loc 1 204 0
 3019 00ac DFF858E3 		ldr	lr, .L262+220
 3020              		.loc 1 200 0
 3021 00b0 0C60     		str	r4, [r1]
ARM GAS  /tmp/cc6nscCq.s 			page 54


 3022              		.loc 1 208 0
 3023 00b2 DFF858C3 		ldr	ip, .L262+224
 3024              		.loc 1 201 0
 3025 00b6 1460     		str	r4, [r2]
 3026              		.loc 1 205 0
 3027 00b8 AE49     		ldr	r1, .L262+72
 3028              		.loc 1 202 0
 3029 00ba 0460     		str	r4, [r0]
 3030              		.loc 1 206 0
 3031 00bc AE4A     		ldr	r2, .L262+76
 3032              		.loc 1 203 0
 3033 00be 1C60     		str	r4, [r3]
 3034              		.loc 1 207 0
 3035 00c0 AE48     		ldr	r0, .L262+80
 3036              		.loc 1 203 0
 3037 00c2 5C60     		str	r4, [r3, #4]
 3038 00c4 9C60     		str	r4, [r3, #8]
 3039 00c6 DC60     		str	r4, [r3, #12]
 3040 00c8 1C61     		str	r4, [r3, #16]
 3041 00ca 5C61     		str	r4, [r3, #20]
 3042 00cc 9C61     		str	r4, [r3, #24]
 3043              		.loc 1 209 0
 3044 00ce AC4B     		ldr	r3, .L262+84
 3045              		.loc 1 204 0
 3046 00d0 8EED008A 		vstr.32	s16, [lr]
 3047              		.loc 1 205 0
 3048 00d4 81ED008A 		vstr.32	s16, [r1]
 3049              		.loc 1 206 0
 3050 00d8 82ED008A 		vstr.32	s16, [r2]
 3051              		.loc 1 207 0
 3052 00dc 0460     		str	r4, [r0]
 3053              		.loc 1 208 0
 3054 00de 8CED008A 		vstr.32	s16, [ip]
 3055              		.loc 1 209 0
 3056 00e2 1C60     		str	r4, [r3]
 3057 00e4 5C60     		str	r4, [r3, #4]
 3058 00e6 9C60     		str	r4, [r3, #8]
 3059 00e8 DC60     		str	r4, [r3, #12]
 3060 00ea 1C61     		str	r4, [r3, #16]
 3061 00ec 5C61     		str	r4, [r3, #20]
 3062              		.loc 1 210 0
 3063 00ee A54B     		ldr	r3, .L262+88
 3064              		.loc 1 211 0
 3065 00f0 A548     		ldr	r0, .L262+92
 3066              		.loc 1 210 0
 3067 00f2 1C70     		strb	r4, [r3]
 3068              		.loc 1 211 0
 3069 00f4 2146     		mov	r1, r4
 3070 00f6 E022     		movs	r2, #224
 3071 00f8 FFF7FEFF 		bl	memset
 3072              	.LVL224:
 3073              		.loc 1 212 0
 3074 00fc FFF7FEFF 		bl	update_sensor_mode
 3075              	.LVL225:
 3076              		.loc 1 213 0
 3077 0100 98F80130 		ldrb	r3, [r8, #1]	@ zero_extendqisi2
 3078 0104 DFF808E3 		ldr	lr, .L262+228
ARM GAS  /tmp/cc6nscCq.s 			page 55


 3079              		.loc 1 214 0
 3080 0108 DFF808C3 		ldr	ip, .L262+232
 3081              		.loc 1 215 0
 3082 010c 9F49     		ldr	r1, .L262+96
 3083              		.loc 1 216 0
 3084 010e A04A     		ldr	r2, .L262+100
 3085              		.loc 1 213 0
 3086 0110 DBB2     		uxtb	r3, r3
 3087              		.loc 1 218 0
 3088 0112 08F1A000 		add	r0, r8, #160
 3089              		.loc 1 213 0
 3090 0116 8EF80030 		strb	r3, [lr]
 3091              		.loc 1 214 0
 3092 011a 8CED008A 		vstr.32	s16, [ip]
 3093              		.loc 1 215 0
 3094 011e 81ED008A 		vstr.32	s16, [r1]
 3095              		.loc 1 216 0
 3096 0122 1460     		str	r4, [r2]
 3097              		.loc 1 218 0
 3098 0124 FFF7FEFF 		bl	mcpwm_init_hall_table
 3099              	.LVL226:
 3100              		.loc 1 221 0
 3101 0128 2A46     		mov	r2, r5
 3102 012a 0721     		movs	r1, #7
 3103 012c 9FED990A 		vldr.32	s0, .L262+104
 3104 0130 9948     		ldr	r0, .L262+108
 3105 0132 FFF7FEFF 		bl	filter_create_fir_lowpass
 3106              	.LVL227:
 3107              		.loc 1 224 0
 3108 0136 2A46     		mov	r2, r5
 3109 0138 0721     		movs	r1, #7
 3110 013a 9FED960A 		vldr.32	s0, .L262+104
 3111 013e 9748     		ldr	r0, .L262+112
 3112 0140 FFF7FEFF 		bl	filter_create_fir_lowpass
 3113              	.LVL228:
 3114              		.loc 1 227 0
 3115 0144 9FED960A 		vldr.32	s0, .L262+116
 3116 0148 9648     		ldr	r0, .L262+120
 3117 014a 2A46     		mov	r2, r5
 3118 014c 0421     		movs	r1, #4
 3119 014e FFF7FEFF 		bl	filter_create_fir_lowpass
 3120              	.LVL229:
 3121              		.loc 1 229 0
 3122 0152 3046     		mov	r0, r6
 3123 0154 FFF7FEFF 		bl	TIM_DeInit
 3124              	.LVL230:
 3125              		.loc 1 230 0
 3126 0158 3846     		mov	r0, r7
 3127 015a FFF7FEFF 		bl	TIM_DeInit
 3128              	.LVL231:
 3129              		.loc 1 231 0
 3130 015e 7462     		str	r4, [r6, #36]
 3131              		.loc 1 235 0
 3132 0160 2946     		mov	r1, r5
 3133 0162 2846     		mov	r0, r5
 3134              		.loc 1 232 0
 3135 0164 7C62     		str	r4, [r7, #36]
ARM GAS  /tmp/cc6nscCq.s 			page 56


 3136              		.loc 1 235 0
 3137 0166 FFF7FEFF 		bl	RCC_APB2PeriphClockCmd
 3138              	.LVL232:
 3139              		.loc 1 240 0
 3140 016a DAED007A 		vldr.32	s15, [r10]
 3141 016e 8E4A     		ldr	r2, .L262+124
 3142              		.loc 1 238 0
 3143 0170 0294     		str	r4, [sp, #8]
 3144              		.loc 1 240 0
 3145 0172 FDEEE77A 		vcvt.s32.f32	s15, s15
 3146              		.loc 1 244 0
 3147 0176 3046     		mov	r0, r6
 3148              		.loc 1 240 0
 3149 0178 17EE903A 		vmov	r3, s15	@ int
 3150              		.loc 1 244 0
 3151 017c 02A9     		add	r1, sp, #8
 3152              		.loc 1 240 0
 3153 017e 92FBF3F3 		sdiv	r3, r2, r3
 3154              		.loc 1 241 0
 3155 0182 ADF81040 		strh	r4, [sp, #16]	@ movhi
 3156              		.loc 1 242 0
 3157 0186 8DF81240 		strb	r4, [sp, #18]
 3158              		.loc 1 240 0
 3159 018a 0393     		str	r3, [sp, #12]
 3160              		.loc 1 244 0
 3161 018c FFF7FEFF 		bl	TIM_TimeBaseInit
 3162              	.LVL233:
 3163              		.loc 1 250 0
 3164 0190 F36A     		ldr	r3, [r6, #44]
 3165              		.loc 1 247 0
 3166 0192 864A     		ldr	r2, .L262+128
 3167 0194 0D92     		str	r2, [sp, #52]
 3168              		.loc 1 250 0
 3169 0196 EB40     		lsrs	r3, r3, r5
 3170              		.loc 1 251 0
 3171 0198 CDE90F34 		strd	r3, r4, [sp, #60]
 3172              		.loc 1 256 0
 3173 019c 3046     		mov	r0, r6
 3174              		.loc 1 252 0
 3175 019e 844B     		ldr	r3, .L262+132
 3176 01a0 1193     		str	r3, [sp, #68]
 3177              		.loc 1 256 0
 3178 01a2 0DA9     		add	r1, sp, #52
 3179              		.loc 1 248 0
 3180 01a4 4FF00408 		mov	r8, #4
 3181              	.LVL234:
 3182 01a8 ADF83880 		strh	r8, [sp, #56]	@ movhi
 3183              		.loc 1 256 0
 3184 01ac FFF7FEFF 		bl	TIM_OC1Init
 3185              	.LVL235:
 3186              		.loc 1 257 0
 3187 01b0 0DA9     		add	r1, sp, #52
 3188 01b2 3046     		mov	r0, r6
 3189 01b4 FFF7FEFF 		bl	TIM_OC2Init
 3190              	.LVL236:
 3191              		.loc 1 258 0
 3192 01b8 0DA9     		add	r1, sp, #52
ARM GAS  /tmp/cc6nscCq.s 			page 57


 3193 01ba 3046     		mov	r0, r6
 3194 01bc FFF7FEFF 		bl	TIM_OC3Init
 3195              	.LVL237:
 3196              		.loc 1 259 0
 3197 01c0 0DA9     		add	r1, sp, #52
 3198 01c2 3046     		mov	r0, r6
 3199 01c4 FFF7FEFF 		bl	TIM_OC4Init
 3200              	.LVL238:
 3201              		.loc 1 261 0
 3202 01c8 3046     		mov	r0, r6
 3203 01ca 0821     		movs	r1, #8
 3204 01cc FFF7FEFF 		bl	TIM_OC1PreloadConfig
 3205              	.LVL239:
 3206              		.loc 1 262 0
 3207 01d0 3046     		mov	r0, r6
 3208 01d2 0821     		movs	r1, #8
 3209 01d4 FFF7FEFF 		bl	TIM_OC2PreloadConfig
 3210              	.LVL240:
 3211              		.loc 1 263 0
 3212 01d8 3046     		mov	r0, r6
 3213 01da 0821     		movs	r1, #8
 3214 01dc FFF7FEFF 		bl	TIM_OC3PreloadConfig
 3215              	.LVL241:
 3216              		.loc 1 264 0
 3217 01e0 0821     		movs	r1, #8
 3218 01e2 3046     		mov	r0, r6
 3219 01e4 FFF7FEFF 		bl	TIM_OC4PreloadConfig
 3220              	.LVL242:
 3221              		.loc 1 270 0
 3222 01e8 DFED720A 		vldr.32	s1, .L262+136
 3223 01ec 9FED720A 		vldr.32	s0, .L262+140
 3224              		.loc 1 267 0
 3225 01f0 724B     		ldr	r3, .L262+144
 3226 01f2 0593     		str	r3, [sp, #20]
 3227              		.loc 1 268 0
 3228 01f4 ADF81840 		strh	r4, [sp, #24]	@ movhi
 3229              		.loc 1 270 0
 3230 01f8 FFF7FEFF 		bl	conf_general_calculate_deadtime
 3231              	.LVL243:
 3232              		.loc 1 271 0
 3233 01fc 4FF0005A 		mov	r10, #536870912
 3234              		.loc 1 270 0
 3235 0200 ADF81A00 		strh	r0, [sp, #26]	@ movhi
 3236              		.loc 1 275 0
 3237 0204 05A9     		add	r1, sp, #20
 3238 0206 3046     		mov	r0, r6
 3239              		.loc 1 272 0
 3240 0208 ADF82040 		strh	r4, [sp, #32]	@ movhi
 3241              		.loc 1 271 0
 3242 020c CDF81CA0 		str	r10, [sp, #28]
 3243              		.loc 1 275 0
 3244 0210 FFF7FEFF 		bl	TIM_BDTRConfig
 3245              	.LVL244:
 3246              		.loc 1 276 0
 3247 0214 2946     		mov	r1, r5
 3248 0216 3046     		mov	r0, r6
 3249 0218 FFF7FEFF 		bl	TIM_CCPreloadControl
ARM GAS  /tmp/cc6nscCq.s 			page 58


 3250              	.LVL245:
 3251              		.loc 1 277 0
 3252 021c 2946     		mov	r1, r5
 3253 021e 3046     		mov	r0, r6
 3254 0220 FFF7FEFF 		bl	TIM_ARRPreloadConfig
 3255              	.LVL246:
 3256              		.loc 1 287 0
 3257 0224 2946     		mov	r1, r5
 3258 0226 6648     		ldr	r0, .L262+148
 3259 0228 FFF7FEFF 		bl	RCC_AHB1PeriphClockCmd
 3260              	.LVL247:
 3261              		.loc 1 288 0
 3262 022c 2946     		mov	r1, r5
 3263 022e 4FF4E060 		mov	r0, #1792
 3264 0232 FFF7FEFF 		bl	RCC_APB2PeriphClockCmd
 3265              	.LVL248:
 3266              		.loc 1 290 0
 3267 0236 2346     		mov	r3, r4
 3268 0238 624A     		ldr	r2, .L262+152
 3269 023a 6348     		ldr	r0, .L262+156
 3270 023c 0321     		movs	r1, #3
 3271 023e FFF7FEFF 		bl	dmaStreamAllocate
 3272              	.LVL249:
 3273              		.loc 1 297 0
 3274 0242 624A     		ldr	r2, .L262+160
 3275              		.loc 1 298 0
 3276 0244 624B     		ldr	r3, .L262+164
 3277              		.loc 1 297 0
 3278 0246 2192     		str	r2, [sp, #132]
 3279              		.loc 1 300 0
 3280 0248 0F21     		movs	r1, #15
 3281              		.loc 1 302 0
 3282 024a 4FF48062 		mov	r2, #1024
 3283              		.loc 1 298 0
 3284 024e 2093     		str	r3, [sp, #128]
 3285              		.loc 1 300 0
 3286 0250 2391     		str	r1, [sp, #140]
 3287              		.loc 1 303 0
 3288 0252 4FF40063 		mov	r3, #2048
 3289              		.loc 1 304 0
 3290 0256 4FF40051 		mov	r1, #8192
 3291              		.loc 1 311 0
 3292 025a 5E48     		ldr	r0, .L262+168
 3293              		.loc 1 302 0
 3294 025c 2592     		str	r2, [sp, #148]
 3295              		.loc 1 303 0
 3296 025e 2693     		str	r3, [sp, #152]
 3297              		.loc 1 305 0
 3298 0260 4FF48072 		mov	r2, #256
 3299              		.loc 1 306 0
 3300 0264 4FF40033 		mov	r3, #131072
 3301              		.loc 1 304 0
 3302 0268 2791     		str	r1, [sp, #156]
 3303              		.loc 1 311 0
 3304 026a 1FA9     		add	r1, sp, #124
 3305              		.loc 1 306 0
 3306 026c CDE92823 		strd	r2, r3, [sp, #160]
ARM GAS  /tmp/cc6nscCq.s 			page 59


 3307              		.loc 1 296 0
 3308 0270 1F94     		str	r4, [sp, #124]
 3309              		.loc 1 299 0
 3310 0272 2294     		str	r4, [sp, #136]
 3311              		.loc 1 301 0
 3312 0274 2494     		str	r4, [sp, #144]
 3313              		.loc 1 308 0
 3314 0276 CDE92A44 		strd	r4, r4, [sp, #168]
 3315              		.loc 1 310 0
 3316 027a CDE92C44 		strd	r4, r4, [sp, #176]
 3317              		.loc 1 311 0
 3318 027e FFF7FEFF 		bl	DMA_Init
 3319              	.LVL250:
 3320              		.loc 1 314 0
 3321 0282 2946     		mov	r1, r5
 3322 0284 5348     		ldr	r0, .L262+168
 3323 0286 FFF7FEFF 		bl	DMA_Cmd
 3324              	.LVL251:
 3325              		.loc 1 317 0
 3326 028a 2A46     		mov	r2, r5
 3327 028c 1021     		movs	r1, #16
 3328 028e 5148     		ldr	r0, .L262+168
 3329 0290 FFF7FEFF 		bl	DMA_ITConfig
 3330              	.LVL252:
 3331              		.loc 1 322 0
 3332 0294 1622     		movs	r2, #22
 3333              		.loc 1 324 0
 3334 0296 4FF48043 		mov	r3, #16384
 3335              		.loc 1 326 0
 3336 029a 09A8     		add	r0, sp, #36
 3337              		.loc 1 323 0
 3338 029c 0A94     		str	r4, [sp, #40]
 3339              		.loc 1 325 0
 3340 029e 0C94     		str	r4, [sp, #48]
 3341              		.loc 1 322 0
 3342 02a0 0992     		str	r2, [sp, #36]
 3343              		.loc 1 324 0
 3344 02a2 0B93     		str	r3, [sp, #44]
 3345              		.loc 1 326 0
 3346 02a4 FFF7FEFF 		bl	ADC_CommonInit
 3347              	.LVL253:
 3348              		.loc 1 335 0
 3349 02a8 0523     		movs	r3, #5
 3350              		.loc 1 333 0
 3351 02aa 4FF05062 		mov	r2, #218103808
 3352              		.loc 1 337 0
 3353 02ae 12A9     		add	r1, sp, #72
 3354 02b0 4948     		ldr	r0, .L262+172
 3355              		.loc 1 335 0
 3356 02b2 8DF85C30 		strb	r3, [sp, #92]
 3357              		.loc 1 333 0
 3358 02b6 CDE91524 		strd	r2, r4, [sp, #84]
 3359              		.loc 1 329 0
 3360 02ba 1294     		str	r4, [sp, #72]
 3361              		.loc 1 330 0
 3362 02bc 8DF84C50 		strb	r5, [sp, #76]
 3363              		.loc 1 331 0
ARM GAS  /tmp/cc6nscCq.s 			page 60


 3364 02c0 8DF84D40 		strb	r4, [sp, #77]
 3365              		.loc 1 332 0
 3366 02c4 CDF850A0 		str	r10, [sp, #80]
 3367              		.loc 1 337 0
 3368 02c8 FFF7FEFF 		bl	ADC_Init
 3369              	.LVL254:
 3370              		.loc 1 340 0
 3371 02cc 12A9     		add	r1, sp, #72
 3372 02ce 4348     		ldr	r0, .L262+176
 3373              		.loc 1 339 0
 3374 02d0 CDE91444 		strd	r4, r4, [sp, #80]
 3375              		.loc 1 340 0
 3376 02d4 FFF7FEFF 		bl	ADC_Init
 3377              	.LVL255:
 3378              		.loc 1 341 0
 3379 02d8 12A9     		add	r1, sp, #72
 3380 02da 4148     		ldr	r0, .L262+180
 3381 02dc FFF7FEFF 		bl	ADC_Init
 3382              	.LVL256:
 3383              		.loc 1 344 0
 3384 02e0 2846     		mov	r0, r5
 3385 02e2 FFF7FEFF 		bl	ADC_TempSensorVrefintCmd
 3386              	.LVL257:
 3387              		.loc 1 347 0
 3388 02e6 2846     		mov	r0, r5
 3389 02e8 FFF7FEFF 		bl	ADC_MultiModeDMARequestAfterLastTransferCmd
 3390              	.LVL258:
 3391              		.loc 1 350 0
 3392 02ec 2146     		mov	r1, r4
 3393 02ee 3A48     		ldr	r0, .L262+172
 3394 02f0 FFF7FEFF 		bl	ADC_ExternalTrigInjectedConvConfig
 3395              	.LVL259:
 3396              		.loc 1 351 0
 3397 02f4 4FF44021 		mov	r1, #786432
 3398 02f8 3848     		ldr	r0, .L262+176
 3399 02fa FFF7FEFF 		bl	ADC_ExternalTrigInjectedConvConfig
 3400              	.LVL260:
 3401              		.loc 1 353 0
 3402 02fe 4FF45021 		mov	r1, #851968
 3403 0302 3748     		ldr	r0, .L262+180
 3404 0304 FFF7FEFF 		bl	ADC_ExternalTrigInjectedConvConfig
 3405              	.LVL261:
 3406              		.loc 1 355 0
 3407 0308 4FF40011 		mov	r1, #2097152
 3408 030c 3248     		ldr	r0, .L262+172
 3409 030e FFF7FEFF 		bl	ADC_ExternalTrigInjectedConvEdgeConfig
 3410              	.LVL262:
 3411              		.loc 1 356 0
 3412 0312 4FF40011 		mov	r1, #2097152
 3413 0316 3148     		ldr	r0, .L262+176
 3414 0318 FFF7FEFF 		bl	ADC_ExternalTrigInjectedConvEdgeConfig
 3415              	.LVL263:
 3416              		.loc 1 358 0
 3417 031c 4FF40011 		mov	r1, #2097152
 3418 0320 2F48     		ldr	r0, .L262+180
 3419 0322 FFF7FEFF 		bl	ADC_ExternalTrigInjectedConvEdgeConfig
 3420              	.LVL264:
ARM GAS  /tmp/cc6nscCq.s 			page 61


 3421              		.loc 1 360 0
 3422 0326 0321     		movs	r1, #3
 3423 0328 76E0     		b	.L263
 3424              	.L264:
 3425 032a 00BF     		.align	2
 3426              	.L262:
 3427 032c 00000000 		.word	.LANCHOR0
 3428 0330 00000000 		.word	0
 3429 0334 00000140 		.word	1073807360
 3430 0338 00040140 		.word	1073808384
 3431 033c 00000000 		.word	.LANCHOR3
 3432 0340 00000000 		.word	.LANCHOR21
 3433 0344 00000000 		.word	.LANCHOR35
 3434 0348 00000000 		.word	.LANCHOR19
 3435 034c 00000000 		.word	.LANCHOR36
 3436 0350 00000000 		.word	.LANCHOR38
 3437 0354 00000000 		.word	.LANCHOR10
 3438 0358 00000000 		.word	.LANCHOR12
 3439 035c 00000000 		.word	.LANCHOR2
 3440 0360 00000000 		.word	.LANCHOR41
 3441 0364 00000000 		.word	.LANCHOR8
 3442 0368 00000000 		.word	.LANCHOR1
 3443 036c 00000000 		.word	.LANCHOR43
 3444 0370 00000000 		.word	.LANCHOR28
 3445 0374 00000000 		.word	.LANCHOR45
 3446 0378 00000000 		.word	.LANCHOR25
 3447 037c 00000000 		.word	.LANCHOR27
 3448 0380 00000000 		.word	.LANCHOR18
 3449 0384 00000000 		.word	.LANCHOR46
 3450 0388 00000000 		.word	.LANCHOR47
 3451 038c 00000000 		.word	.LANCHOR24
 3452 0390 00000000 		.word	.LANCHOR9
 3453 0394 0AD7A33C 		.word	1017370378
 3454 0398 00000000 		.word	.LANCHOR49
 3455 039c 00000000 		.word	.LANCHOR15
 3456 03a0 9A99193E 		.word	1041865114
 3457 03a4 00000000 		.word	.LANCHOR50
 3458 03a8 007A030A 		.word	168000000
 3459 03ac 60000100 		.word	65632
 3460 03b0 00010002 		.word	33554688
 3461 03b4 A037204D 		.word	1293957024
 3462 03b8 0000C843 		.word	1137180672
 3463 03bc 00080004 		.word	67110912
 3464 03c0 05004000 		.word	4194309
 3465 03c4 00000000 		.word	mcpwm_adc_int_handler
 3466 03c8 90000000 		.word	_stm32_dma_streams+144
 3467 03cc 00000000 		.word	ADC_Value
 3468 03d0 08230140 		.word	1073816328
 3469 03d4 70640240 		.word	1073898608
 3470 03d8 00200140 		.word	1073815552
 3471 03dc 00210140 		.word	1073815808
 3472 03e0 00220140 		.word	1073816064
 3473 03e4 00000000 		.word	.LANCHOR30
 3474 03e8 00000000 		.word	.LANCHOR11
 3475 03ec 00000000 		.word	.LANCHOR6
 3476 03f0 00000000 		.word	.LANCHOR34
 3477 03f4 00000000 		.word	.LANCHOR4
ARM GAS  /tmp/cc6nscCq.s 			page 62


 3478 03f8 00000000 		.word	.LANCHOR37
 3479 03fc 00000000 		.word	.LANCHOR39
 3480 0400 00000000 		.word	.LANCHOR40
 3481 0404 00000000 		.word	.LANCHOR42
 3482 0408 00000000 		.word	.LANCHOR44
 3483 040c 00000000 		.word	.LANCHOR26
 3484 0410 00000000 		.word	.LANCHOR29
 3485 0414 00000000 		.word	.LANCHOR48
 3486              	.L263:
 3487 0418 7648     		ldr	r0, .L265
 3488 041a FFF7FEFF 		bl	ADC_InjectedSequencerLengthConfig
 3489              	.LVL265:
 3490              		.loc 1 361 0
 3491 041e 0321     		movs	r1, #3
 3492 0420 7548     		ldr	r0, .L265+4
 3493 0422 FFF7FEFF 		bl	ADC_InjectedSequencerLengthConfig
 3494              	.LVL266:
 3495              		.loc 1 363 0
 3496 0426 0321     		movs	r1, #3
 3497 0428 7448     		ldr	r0, .L265+8
 3498 042a FFF7FEFF 		bl	ADC_InjectedSequencerLengthConfig
 3499              	.LVL267:
 3500              		.loc 1 366 0
 3501 042e FFF7FEFF 		bl	hw_setup_adc_channels
 3502              	.LVL268:
 3503              		.loc 1 369 0
 3504 0432 2A46     		mov	r2, r5
 3505 0434 40F20741 		movw	r1, #1031
 3506 0438 6E48     		ldr	r0, .L265
 3507 043a FFF7FEFF 		bl	ADC_ITConfig
 3508              	.LVL269:
 3509              		.loc 1 370 0
 3510 043e 0621     		movs	r1, #6
 3511 0440 1220     		movs	r0, #18
 3512 0442 FFF7FEFF 		bl	nvicEnableVector
 3513              	.LVL270:
 3514              		.loc 1 373 0
 3515 0446 2946     		mov	r1, r5
 3516 0448 6A48     		ldr	r0, .L265
 3517 044a FFF7FEFF 		bl	ADC_Cmd
 3518              	.LVL271:
 3519              		.loc 1 376 0
 3520 044e 2946     		mov	r1, r5
 3521 0450 6948     		ldr	r0, .L265+4
 3522 0452 FFF7FEFF 		bl	ADC_Cmd
 3523              	.LVL272:
 3524              		.loc 1 379 0
 3525 0456 2946     		mov	r1, r5
 3526 0458 6848     		ldr	r0, .L265+8
 3527 045a FFF7FEFF 		bl	ADC_Cmd
 3528              	.LVL273:
 3529              		.loc 1 383 0
 3530 045e 2946     		mov	r1, r5
 3531 0460 0220     		movs	r0, #2
 3532 0462 FFF7FEFF 		bl	RCC_APB2PeriphClockCmd
 3533              	.LVL274:
 3534              		.loc 1 386 0
ARM GAS  /tmp/cc6nscCq.s 			page 63


 3535 0466 4FF6FF73 		movw	r3, #65535
 3536              		.loc 1 390 0
 3537 046a 02A9     		add	r1, sp, #8
 3538 046c 3846     		mov	r0, r7
 3539              		.loc 1 385 0
 3540 046e 0294     		str	r4, [sp, #8]
 3541              		.loc 1 387 0
 3542 0470 ADF81040 		strh	r4, [sp, #16]	@ movhi
 3543              		.loc 1 388 0
 3544 0474 8DF81240 		strb	r4, [sp, #18]
 3545              		.loc 1 386 0
 3546 0478 0393     		str	r3, [sp, #12]
 3547              		.loc 1 390 0
 3548 047a FFF7FEFF 		bl	TIM_TimeBaseInit
 3549              	.LVL275:
 3550              		.loc 1 392 0
 3551 047e 604A     		ldr	r2, .L265+12
 3552 0480 0D92     		str	r2, [sp, #52]
 3553              		.loc 1 394 0
 3554 0482 4FF4FA73 		mov	r3, #500
 3555              		.loc 1 396 0
 3556 0486 5F4A     		ldr	r2, .L265+16
 3557 0488 1192     		str	r2, [sp, #68]
 3558              		.loc 1 399 0
 3559 048a 0DA9     		add	r1, sp, #52
 3560 048c 3846     		mov	r0, r7
 3561              		.loc 1 394 0
 3562 048e 0F93     		str	r3, [sp, #60]
 3563 0490 1094     		str	r4, [sp, #64]
 3564              		.loc 1 399 0
 3565 0492 FFF7FEFF 		bl	TIM_OC1Init
 3566              	.LVL276:
 3567              		.loc 1 400 0
 3568 0496 3846     		mov	r0, r7
 3569 0498 0821     		movs	r1, #8
 3570 049a FFF7FEFF 		bl	TIM_OC1PreloadConfig
 3571              	.LVL277:
 3572              		.loc 1 401 0
 3573 049e 0DA9     		add	r1, sp, #52
 3574 04a0 3846     		mov	r0, r7
 3575 04a2 FFF7FEFF 		bl	TIM_OC2Init
 3576              	.LVL278:
 3577              		.loc 1 402 0
 3578 04a6 3846     		mov	r0, r7
 3579 04a8 0821     		movs	r1, #8
 3580 04aa FFF7FEFF 		bl	TIM_OC2PreloadConfig
 3581              	.LVL279:
 3582              		.loc 1 403 0
 3583 04ae 0DA9     		add	r1, sp, #52
 3584 04b0 3846     		mov	r0, r7
 3585 04b2 FFF7FEFF 		bl	TIM_OC3Init
 3586              	.LVL280:
 3587              		.loc 1 404 0
 3588 04b6 3846     		mov	r0, r7
 3589 04b8 0821     		movs	r1, #8
 3590 04ba FFF7FEFF 		bl	TIM_OC3PreloadConfig
 3591              	.LVL281:
ARM GAS  /tmp/cc6nscCq.s 			page 64


 3592              		.loc 1 406 0
 3593 04be 2946     		mov	r1, r5
 3594 04c0 3846     		mov	r0, r7
 3595 04c2 FFF7FEFF 		bl	TIM_ARRPreloadConfig
 3596              	.LVL282:
 3597              		.loc 1 407 0
 3598 04c6 2946     		mov	r1, r5
 3599 04c8 3846     		mov	r0, r7
 3600 04ca FFF7FEFF 		bl	TIM_CCPreloadControl
 3601              	.LVL283:
 3602              		.loc 1 410 0
 3603 04ce 2946     		mov	r1, r5
 3604 04d0 3846     		mov	r0, r7
 3605 04d2 FFF7FEFF 		bl	TIM_CtrlPWMOutputs
 3606              	.LVL284:
 3607              		.loc 1 413 0
 3608 04d6 3046     		mov	r0, r6
 3609 04d8 2021     		movs	r1, #32
 3610 04da FFF7FEFF 		bl	TIM_SelectOutputTrigger
 3611              	.LVL285:
 3612              		.loc 1 414 0
 3613 04de 3046     		mov	r0, r6
 3614 04e0 8021     		movs	r1, #128
 3615 04e2 FFF7FEFF 		bl	TIM_SelectMasterSlaveMode
 3616              	.LVL286:
 3617              		.loc 1 415 0
 3618 04e6 2146     		mov	r1, r4
 3619 04e8 3846     		mov	r0, r7
 3620 04ea FFF7FEFF 		bl	TIM_SelectInputTrigger
 3621              	.LVL287:
 3622              		.loc 1 416 0
 3623 04ee 4146     		mov	r1, r8
 3624 04f0 3846     		mov	r0, r7
 3625 04f2 FFF7FEFF 		bl	TIM_SelectSlaveMode
 3626              	.LVL288:
 3627              		.loc 1 419 0
 3628 04f6 2946     		mov	r1, r5
 3629 04f8 3046     		mov	r0, r6
 3630 04fa FFF7FEFF 		bl	TIM_Cmd
 3631              	.LVL289:
 3632              		.loc 1 420 0
 3633 04fe 2946     		mov	r1, r5
 3634 0500 3846     		mov	r0, r7
 3635 0502 FFF7FEFF 		bl	TIM_Cmd
 3636              	.LVL290:
 3637              		.loc 1 423 0
 3638 0506 2946     		mov	r1, r5
 3639 0508 3046     		mov	r0, r6
 3640 050a FFF7FEFF 		bl	TIM_CtrlPWMOutputs
 3641              	.LVL291:
 3642              		.loc 1 426 0
 3643 050e FFF7FEFF 		bl	stop_pwm_hw
 3644              	.LVL292:
 3645              		.loc 1 428 0
 3646 0512 F36A     		ldr	r3, [r6, #44]
 3647 0514 1993     		str	r3, [sp, #100]
 3648              		.loc 1 429 0
ARM GAS  /tmp/cc6nscCq.s 			page 65


 3649 0516 F36A     		ldr	r3, [r6, #44]
 3650              		.loc 1 430 0
 3651 0518 18A8     		add	r0, sp, #96
 3652              		.loc 1 429 0
 3653 051a EB40     		lsrs	r3, r3, r5
 3654 051c 1A93     		str	r3, [sp, #104]
 3655              		.loc 1 430 0
 3656 051e FFF7FEFF 		bl	update_adc_sample_pos
 3657              	.LVL293:
 3658              		.loc 1 431 0
 3659 0522 18A8     		add	r0, sp, #96
 3660 0524 FFF7FEFF 		bl	set_next_timer_settings
 3661              	.LVL294:
 3662              		.loc 1 433 0
 3663 0528 FFF7FEFF 		bl	utils_sys_unlock_cnt
 3664              	.LVL295:
 3665              		.loc 1 438 0
 3666 052c 364A     		ldr	r2, .L265+20
 3667              	.LBB109:
 3668              	.LBB110:
 3669              		.loc 1 526 0
 3670 052e 364D     		ldr	r5, .L265+20
 3671              	.LBE110:
 3672              	.LBE109:
 3673              		.loc 1 438 0
 3674 0530 2023     		movs	r3, #32
 3675 0532 1383     		strh	r3, [r2, #24]	@ movhi
 3676              		.loc 1 439 0
 3677 0534 FFF7FEFF 		bl	drv8350_dccal_off
 3678              	.LVL296:
 3679              	.LBB116:
 3680              	.LBB111:
 3681              		.loc 1 522 0
 3682 0538 41F28934 		movw	r4, #5001
 3683 053c FFF7FEFF 		bl	drv8350_dccal_on
 3684              	.LVL297:
 3685 0540 03E0     		b	.L251
 3686              	.LVL298:
 3687              	.L253:
 3688              		.loc 1 527 0
 3689 0542 FFF7FEFF 		bl	chThdSleep
 3690              	.LVL299:
 3691              		.loc 1 529 0
 3692 0546 013C     		subs	r4, r4, #1
 3693              	.LVL300:
 3694 0548 04D0     		beq	.L254
 3695              	.LVL301:
 3696              	.L251:
 3697              		.loc 1 526 0
 3698 054a 2B69     		ldr	r3, [r5, #16]
 3699 054c 1B06     		lsls	r3, r3, #24
 3700              		.loc 1 527 0
 3701 054e 4FF00A00 		mov	r0, #10
 3702              		.loc 1 526 0
 3703 0552 F6D5     		bpl	.L253
 3704              	.LVL302:
 3705              	.L254:
ARM GAS  /tmp/cc6nscCq.s 			page 66


 3706              		.loc 1 534 0
 3707 0554 42F21070 		movw	r0, #10000
 3708 0558 FFF7FEFF 		bl	chThdSleep
 3709              	.LVL303:
 3710              		.loc 1 535 0
 3711 055c 2B4C     		ldr	r4, .L265+24
 3712              		.loc 1 536 0
 3713 055e 2C48     		ldr	r0, .L265+28
 3714              		.loc 1 539 0
 3715 0560 2C49     		ldr	r1, .L265+32
 3716              		.loc 1 542 0
 3717 0562 2D4A     		ldr	r2, .L265+36
 3718              		.loc 1 535 0
 3719 0564 0023     		movs	r3, #0
 3720 0566 2360     		str	r3, [r4]
 3721              		.loc 1 536 0
 3722 0568 0360     		str	r3, [r0]
 3723              		.loc 1 539 0
 3724 056a 0B60     		str	r3, [r1]
 3725              		.loc 1 542 0
 3726 056c 1360     		str	r3, [r2]
 3727              	.L252:
 3728              		.loc 1 543 0
 3729 056e 1368     		ldr	r3, [r2]
 3730 0570 B3F57A6F 		cmp	r3, #4000
 3731 0574 FBDB     		blt	.L252
 3732              		.loc 1 544 0
 3733 0576 294D     		ldr	r5, .L265+40
 3734 0578 2368     		ldr	r3, [r4]
 3735 057a 1468     		ldr	r4, [r2]
 3736 057c 93FBF4F3 		sdiv	r3, r3, r4
 3737              		.loc 1 545 0
 3738 0580 274C     		ldr	r4, .L265+44
 3739              		.loc 1 544 0
 3740 0582 2B60     		str	r3, [r5]
 3741              		.loc 1 548 0
 3742 0584 274D     		ldr	r5, .L265+48
 3743              		.loc 1 545 0
 3744 0586 0368     		ldr	r3, [r0]
 3745 0588 1068     		ldr	r0, [r2]
 3746 058a 93FBF0F3 		sdiv	r3, r3, r0
 3747 058e 2360     		str	r3, [r4]
 3748              		.loc 1 548 0
 3749 0590 0B68     		ldr	r3, [r1]
 3750              	.LBE111:
 3751              	.LBE116:
 3752              		.loc 1 443 0
 3753 0592 254E     		ldr	r6, .L265+52
 3754              	.LBB117:
 3755              	.LBB112:
 3756              		.loc 1 548 0
 3757 0594 1268     		ldr	r2, [r2]
 3758 0596 93FBF2F3 		sdiv	r3, r3, r2
 3759 059a 2B60     		str	r3, [r5]
 3760              		.loc 1 551 0
 3761 059c FFF7FEFF 		bl	drv8350_dccal_off
 3762              	.LVL304:
ARM GAS  /tmp/cc6nscCq.s 			page 67


 3763              	.LBE112:
 3764              	.LBE117:
 3765              		.loc 1 444 0
 3766 05a0 224D     		ldr	r5, .L265+56
 3767              	.LBB118:
 3768              	.LBB113:
 3769              		.loc 1 552 0
 3770 05a2 2349     		ldr	r1, .L265+60
 3771              	.LBE113:
 3772              	.LBE118:
 3773              		.loc 1 445 0
 3774 05a4 234B     		ldr	r3, .L265+64
 3775 05a6 2448     		ldr	r0, .L265+68
 3776              		.loc 1 443 0
 3777 05a8 0024     		movs	r4, #0
 3778              	.LBB119:
 3779              	.LBB114:
 3780              		.loc 1 552 0
 3781 05aa 0122     		movs	r2, #1
 3782              	.LBE114:
 3783              	.LBE119:
 3784              		.loc 1 445 0
 3785 05ac 0094     		str	r4, [sp]
 3786              	.LBB120:
 3787              	.LBB115:
 3788              		.loc 1 552 0
 3789 05ae 0A70     		strb	r2, [r1]
 3790              	.LBE115:
 3791              	.LBE120:
 3792              		.loc 1 445 0
 3793 05b0 4022     		movs	r2, #64
 3794 05b2 40F69811 		movw	r1, #2456
 3795              		.loc 1 443 0
 3796 05b6 3470     		strb	r4, [r6]
 3797              		.loc 1 444 0
 3798 05b8 2C70     		strb	r4, [r5]
 3799              		.loc 1 445 0
 3800 05ba FFF7FEFF 		bl	chThdCreateStatic
 3801              	.LVL305:
 3802              		.loc 1 446 0
 3803 05be 1F4B     		ldr	r3, .L265+72
 3804 05c0 0094     		str	r4, [sp]
 3805 05c2 4022     		movs	r2, #64
 3806 05c4 4FF4B361 		mov	r1, #1432
 3807 05c8 1D48     		ldr	r0, .L265+76
 3808 05ca FFF7FEFF 		bl	chThdCreateStatic
 3809              	.LVL306:
 3810              		.loc 1 449 0
 3811 05ce FFF7FEFF 		bl	timeout_had_IWDG_reset
 3812              	.LVL307:
 3813 05d2 10B1     		cbz	r0, .L255
 3814              		.loc 1 450 0
 3815 05d4 0A20     		movs	r0, #10
 3816 05d6 FFF7FEFF 		bl	mc_interface_fault_stop
 3817              	.LVL308:
 3818              	.L255:
 3819              		.loc 1 454 0
ARM GAS  /tmp/cc6nscCq.s 			page 68


 3820 05da 1A49     		ldr	r1, .L265+80
 3821 05dc 0023     		movs	r3, #0
 3822              		.loc 1 457 0
 3823 05de 0122     		movs	r2, #1
 3824              		.loc 1 454 0
 3825 05e0 0B60     		str	r3, [r1]
 3826              		.loc 1 455 0
 3827 05e2 C9F80030 		str	r3, [r9]
 3828              		.loc 1 457 0
 3829 05e6 8BF80020 		strb	r2, [fp]
 3830              		.loc 1 458 0
 3831 05ea 2FB0     		add	sp, sp, #188
 3832              		.cfi_def_cfa_offset 44
 3833              		@ sp needed
 3834 05ec BDEC028B 		vldm	sp!, {d8}
 3835              		.cfi_restore 80
 3836              		.cfi_restore 81
 3837              		.cfi_def_cfa_offset 36
 3838 05f0 BDE8F08F 		pop	{r4, r5, r6, r7, r8, r9, r10, fp, pc}
 3839              	.L266:
 3840              		.align	2
 3841              	.L265:
 3842 05f4 00200140 		.word	1073815552
 3843 05f8 00210140 		.word	1073815808
 3844 05fc 00220140 		.word	1073816064
 3845 0600 60000100 		.word	65632
 3846 0604 00010002 		.word	33554688
 3847 0608 00040240 		.word	1073873920
 3848 060c 00000000 		.word	.LANCHOR51
 3849 0610 00000000 		.word	.LANCHOR52
 3850 0614 00000000 		.word	.LANCHOR53
 3851 0618 00000000 		.word	.LANCHOR54
 3852 061c 00000000 		.word	.LANCHOR55
 3853 0620 00000000 		.word	.LANCHOR56
 3854 0624 00000000 		.word	.LANCHOR57
 3855 0628 00000000 		.word	.LANCHOR13
 3856 062c 00000000 		.word	.LANCHOR31
 3857 0630 00000000 		.word	.LANCHOR46
 3858 0634 00000000 		.word	timer_thread
 3859 0638 00000000 		.word	.LANCHOR58
 3860 063c 00000000 		.word	rpm_thread
 3861 0640 00000000 		.word	.LANCHOR59
 3862 0644 00000000 		.word	.LANCHOR12
 3863              		.cfi_endproc
 3864              	.LFE259:
 3865              		.size	mcpwm_init, .-mcpwm_init
 3866              		.section	.text.mcpwm_set_configuration,"ax",%progbits
 3867              		.align	1
 3868              		.p2align 4,,15
 3869              		.global	mcpwm_set_configuration
 3870              		.syntax unified
 3871              		.thumb
 3872              		.thumb_func
 3873              		.fpu fpv4-sp-d16
 3874              		.type	mcpwm_set_configuration, %function
 3875              	mcpwm_set_configuration:
 3876              	.LFB262:
ARM GAS  /tmp/cc6nscCq.s 			page 69


 3877              		.loc 1 486 0
 3878              		.cfi_startproc
 3879              		@ args = 0, pretend = 0, frame = 0
 3880              		@ frame_needed = 0, uses_anonymous_args = 0
 3881              	.LVL309:
 3882 0000 38B5     		push	{r3, r4, r5, lr}
 3883              		.cfi_def_cfa_offset 16
 3884              		.cfi_offset 3, -16
 3885              		.cfi_offset 4, -12
 3886              		.cfi_offset 5, -8
 3887              		.cfi_offset 14, -4
 3888              	.LBB121:
 3889              	.LBB122:
 3890              		.loc 1 905 0
 3891 0002 0E49     		ldr	r1, .L269
 3892              		.loc 1 906 0
 3893 0004 0E4A     		ldr	r2, .L269+4
 3894              	.LBE122:
 3895              	.LBE121:
 3896              		.loc 1 486 0
 3897 0006 0446     		mov	r4, r0
 3898              		.loc 1 488 0
 3899 0008 0E48     		ldr	r0, .L269+8
 3900              	.LVL310:
 3901              	.LBB125:
 3902              	.LBB123:
 3903              		.loc 1 905 0
 3904 000a 0023     		movs	r3, #0
 3905              	.LBE123:
 3906              	.LBE125:
 3907              		.loc 1 488 0
 3908 000c 0A25     		movs	r5, #10
 3909 000e 0570     		strb	r5, [r0]
 3910              	.LBB126:
 3911              	.LBB124:
 3912              		.loc 1 905 0
 3913 0010 0B70     		strb	r3, [r1]
 3914              		.loc 1 906 0
 3915 0012 1360     		str	r3, [r2]
 3916              		.loc 1 907 0
 3917 0014 FFF7FEFF 		bl	stop_pwm_hw
 3918              	.LVL311:
 3919              	.LBE124:
 3920              	.LBE126:
 3921              		.loc 1 491 0
 3922 0018 FFF7FEFF 		bl	utils_sys_lock_cnt
 3923              	.LVL312:
 3924              		.loc 1 493 0
 3925 001c 6378     		ldrb	r3, [r4, #1]	@ zero_extendqisi2
 3926              		.loc 1 492 0
 3927 001e 0A49     		ldr	r1, .L269+12
 3928              		.loc 1 493 0
 3929 0020 0A4A     		ldr	r2, .L269+16
 3930              		.loc 1 492 0
 3931 0022 0C60     		str	r4, [r1]
 3932              		.loc 1 493 0
 3933 0024 DBB2     		uxtb	r3, r3
ARM GAS  /tmp/cc6nscCq.s 			page 70


 3934              		.loc 1 494 0
 3935 0026 04F1A000 		add	r0, r4, #160
 3936              		.loc 1 493 0
 3937 002a 1370     		strb	r3, [r2]
 3938              		.loc 1 494 0
 3939 002c FFF7FEFF 		bl	mcpwm_init_hall_table
 3940              	.LVL313:
 3941              		.loc 1 495 0
 3942 0030 FFF7FEFF 		bl	update_sensor_mode
 3943              	.LVL314:
 3944              		.loc 1 497 0
 3945 0034 BDE83840 		pop	{r3, r4, r5, lr}
 3946              		.cfi_restore 14
 3947              		.cfi_restore 5
 3948              		.cfi_restore 4
 3949              		.cfi_restore 3
 3950              		.cfi_def_cfa_offset 0
 3951              	.LVL315:
 3952              		.loc 1 496 0
 3953 0038 FFF7FEBF 		b	utils_sys_unlock_cnt
 3954              	.LVL316:
 3955              	.L270:
 3956              		.align	2
 3957              	.L269:
 3958 003c 00000000 		.word	.LANCHOR2
 3959 0040 00000000 		.word	.LANCHOR42
 3960 0044 00000000 		.word	.LANCHOR39
 3961 0048 00000000 		.word	.LANCHOR0
 3962 004c 00000000 		.word	.LANCHOR29
 3963              		.cfi_endproc
 3964              	.LFE262:
 3965              		.size	mcpwm_set_configuration, .-mcpwm_set_configuration
 3966              		.section	.text.mcpwm_set_pid_speed,"ax",%progbits
 3967              		.align	1
 3968              		.p2align 4,,15
 3969              		.global	mcpwm_set_pid_speed
 3970              		.syntax unified
 3971              		.thumb
 3972              		.thumb_func
 3973              		.fpu fpv4-sp-d16
 3974              		.type	mcpwm_set_pid_speed, %function
 3975              	mcpwm_set_pid_speed:
 3976              	.LFB268:
 3977              		.loc 1 607 0
 3978              		.cfi_startproc
 3979              		@ args = 0, pretend = 0, frame = 0
 3980              		@ frame_needed = 0, uses_anonymous_args = 0
 3981              		@ link register save eliminated.
 3982              	.LVL317:
 3983              		.loc 1 608 0
 3984 0000 034A     		ldr	r2, .L272
 3985              		.loc 1 609 0
 3986 0002 044B     		ldr	r3, .L272+4
 3987              		.loc 1 608 0
 3988 0004 0121     		movs	r1, #1
 3989 0006 1170     		strb	r1, [r2]
 3990              		.loc 1 609 0
ARM GAS  /tmp/cc6nscCq.s 			page 71


 3991 0008 83ED000A 		vstr.32	s0, [r3]
 3992              		.loc 1 610 0
 3993 000c 7047     		bx	lr
 3994              	.L273:
 3995 000e 00BF     		.align	2
 3996              	.L272:
 3997 0010 00000000 		.word	.LANCHOR39
 3998 0014 00000000 		.word	.LANCHOR36
 3999              		.cfi_endproc
 4000              	.LFE268:
 4001              		.size	mcpwm_set_pid_speed, .-mcpwm_set_pid_speed
 4002              		.section	.text.mcpwm_set_brake_current,"ax",%progbits
 4003              		.align	1
 4004              		.p2align 4,,15
 4005              		.global	mcpwm_set_brake_current
 4006              		.syntax unified
 4007              		.thumb
 4008              		.thumb_func
 4009              		.fpu fpv4-sp-d16
 4010              		.type	mcpwm_set_brake_current, %function
 4011              	mcpwm_set_brake_current:
 4012              	.LFB271:
 4013              		.loc 1 661 0
 4014              		.cfi_startproc
 4015              		@ args = 0, pretend = 0, frame = 8
 4016              		@ frame_needed = 0, uses_anonymous_args = 0
 4017              	.LVL318:
 4018 0000 30B5     		push	{r4, r5, lr}
 4019              		.cfi_def_cfa_offset 12
 4020              		.cfi_offset 4, -12
 4021              		.cfi_offset 5, -8
 4022              		.cfi_offset 14, -4
 4023              		.loc 1 662 0
 4024 0002 2D4C     		ldr	r4, .L299
 4025 0004 2368     		ldr	r3, [r4]
 4026 0006 D3ED5F7A 		vldr.32	s15, [r3, #380]
 4027 000a B0EEC07A 		vabs.f32	s14, s0
 4028 000e B4EEE77A 		vcmpe.f32	s14, s15
 4029              		.loc 1 661 0
 4030 0012 83B0     		sub	sp, sp, #12
 4031              		.cfi_def_cfa_offset 24
 4032              		.loc 1 662 0
 4033 0014 F1EE10FA 		vmrs	APSR_nzcv, FPSCR
 4034              		.loc 1 661 0
 4035 0018 8DED010A 		vstr.32	s0, [sp, #4]
 4036              		.loc 1 662 0
 4037 001c 2DD4     		bmi	.L297
 4038              		.loc 1 668 0
 4039 001e 93ED1C0A 		vldr.32	s0, [r3, #112]
 4040              	.LVL319:
 4041 0022 D3ED1C0A 		vldr.32	s1, [r3, #112]
 4042              		.loc 1 670 0
 4043 0026 254D     		ldr	r5, .L299+4
 4044              		.loc 1 668 0
 4045 0028 B0EEC00A 		vabs.f32	s0, s0
 4046 002c B1EE400A 		vneg.f32	s0, s0
 4047 0030 F0EEE00A 		vabs.f32	s1, s1
ARM GAS  /tmp/cc6nscCq.s 			page 72


 4048 0034 01A8     		add	r0, sp, #4
 4049              	.LVL320:
 4050 0036 FFF7FEFF 		bl	utils_truncate_number
 4051              	.LVL321:
 4052              		.loc 1 671 0
 4053 003a 2149     		ldr	r1, .L299+8
 4054 003c 0198     		ldr	r0, [sp, #4]	@ float
 4055              		.loc 1 673 0
 4056 003e 214B     		ldr	r3, .L299+12
 4057              		.loc 1 670 0
 4058 0040 0322     		movs	r2, #3
 4059 0042 2A70     		strb	r2, [r5]
 4060              		.loc 1 671 0
 4061 0044 0860     		str	r0, [r1]	@ float
 4062              		.loc 1 673 0
 4063 0046 1978     		ldrb	r1, [r3]	@ zero_extendqisi2
 4064 0048 0229     		cmp	r1, #2
 4065 004a 14D0     		beq	.L274
 4066              		.loc 1 673 0 is_stmt 0 discriminator 1
 4067 004c 1978     		ldrb	r1, [r3]	@ zero_extendqisi2
 4068 004e 9142     		cmp	r1, r2
 4069 0050 11D0     		beq	.L274
 4070              		.loc 1 676 0 is_stmt 1
 4071 0052 2168     		ldr	r1, [r4]
 4072 0054 8878     		ldrb	r0, [r1, #2]	@ zero_extendqisi2
 4073 0056 0128     		cmp	r0, #1
 4074 0058 1BD0     		beq	.L298
 4075              		.loc 1 683 0
 4076 005a 1B48     		ldr	r0, .L299+16
 4077 005c D0ED007A 		vldr.32	s15, [r0]
 4078 0060 91ED097A 		vldr.32	s14, [r1, #36]
 4079 0064 F0EEE77A 		vabs.f32	s15, s15
 4080 0068 F4EEC77A 		vcmpe.f32	s15, s14
 4081 006c F1EE10FA 		vmrs	APSR_nzcv, FPSCR
 4082 0070 1BDD     		ble	.L294
 4083              	.L296:
 4084              		.loc 1 684 0
 4085 0072 0222     		movs	r2, #2
 4086 0074 1A70     		strb	r2, [r3]
 4087              	.L274:
 4088              		.loc 1 690 0
 4089 0076 03B0     		add	sp, sp, #12
 4090              		.cfi_remember_state
 4091              		.cfi_def_cfa_offset 12
 4092              		@ sp needed
 4093 0078 30BD     		pop	{r4, r5, pc}
 4094              	.LVL322:
 4095              	.L297:
 4096              		.cfi_restore_state
 4097              		.loc 1 663 0
 4098 007a 1048     		ldr	r0, .L299+4
 4099              	.LBB127:
 4100              	.LBB128:
 4101              		.loc 1 905 0
 4102 007c 1149     		ldr	r1, .L299+12
 4103              		.loc 1 906 0
 4104 007e 134A     		ldr	r2, .L299+20
ARM GAS  /tmp/cc6nscCq.s 			page 73


 4105              		.loc 1 905 0
 4106 0080 0023     		movs	r3, #0
 4107              	.LBE128:
 4108              	.LBE127:
 4109              		.loc 1 663 0
 4110 0082 0A24     		movs	r4, #10
 4111 0084 0470     		strb	r4, [r0]
 4112              	.LBB130:
 4113              	.LBB129:
 4114              		.loc 1 905 0
 4115 0086 0B70     		strb	r3, [r1]
 4116              		.loc 1 906 0
 4117 0088 1360     		str	r3, [r2]
 4118              		.loc 1 907 0
 4119 008a FFF7FEFF 		bl	stop_pwm_hw
 4120              	.LVL323:
 4121              	.LBE129:
 4122              	.LBE130:
 4123              		.loc 1 690 0
 4124 008e 03B0     		add	sp, sp, #12
 4125              		.cfi_remember_state
 4126              		.cfi_def_cfa_offset 12
 4127              		@ sp needed
 4128 0090 30BD     		pop	{r4, r5, pc}
 4129              	.L298:
 4130              		.cfi_restore_state
 4131              		.loc 1 677 0
 4132 0092 0F49     		ldr	r1, .L299+24
 4133 0094 9FED0F7A 		vldr.32	s14, .L299+28
 4134 0098 D1ED007A 		vldr.32	s15, [r1]
 4135 009c F0EEE77A 		vabs.f32	s15, s15
 4136 00a0 F4EEC77A 		vcmpe.f32	s15, s14
 4137 00a4 F1EE10FA 		vmrs	APSR_nzcv, FPSCR
 4138 00a8 E3DC     		bgt	.L296
 4139              	.L294:
 4140              	.LBB131:
 4141              	.LBB132:
 4142              		.loc 1 934 0
 4143 00aa 0849     		ldr	r1, .L299+20
 4144              		.loc 1 933 0
 4145 00ac 1A70     		strb	r2, [r3]
 4146              		.loc 1 934 0
 4147 00ae 0023     		movs	r3, #0
 4148 00b0 0B60     		str	r3, [r1]
 4149              		.loc 1 935 0
 4150 00b2 FFF7FEFF 		bl	full_brake_hw
 4151              	.LVL324:
 4152 00b6 DEE7     		b	.L274
 4153              	.L300:
 4154              		.align	2
 4155              	.L299:
 4156 00b8 00000000 		.word	.LANCHOR0
 4157 00bc 00000000 		.word	.LANCHOR39
 4158 00c0 00000000 		.word	.LANCHOR38
 4159 00c4 00000000 		.word	.LANCHOR2
 4160 00c8 00000000 		.word	.LANCHOR21
 4161 00cc 00000000 		.word	.LANCHOR42
ARM GAS  /tmp/cc6nscCq.s 			page 74


 4162 00d0 00000000 		.word	.LANCHOR19
 4163 00d4 CDCCCC3D 		.word	1036831949
 4164              	.LBE132:
 4165              	.LBE131:
 4166              		.cfi_endproc
 4167              	.LFE271:
 4168              		.size	mcpwm_set_brake_current, .-mcpwm_set_brake_current
 4169              		.section	.text.mcpwm_get_comm_step,"ax",%progbits
 4170              		.align	1
 4171              		.p2align 4,,15
 4172              		.global	mcpwm_get_comm_step
 4173              		.syntax unified
 4174              		.thumb
 4175              		.thumb_func
 4176              		.fpu fpv4-sp-d16
 4177              		.type	mcpwm_get_comm_step, %function
 4178              	mcpwm_get_comm_step:
 4179              	.LFB272:
 4180              		.loc 1 698 0
 4181              		.cfi_startproc
 4182              		@ args = 0, pretend = 0, frame = 0
 4183              		@ frame_needed = 0, uses_anonymous_args = 0
 4184              		@ link register save eliminated.
 4185              		.loc 1 699 0
 4186 0000 014B     		ldr	r3, .L302
 4187 0002 1868     		ldr	r0, [r3]
 4188              		.loc 1 700 0
 4189 0004 7047     		bx	lr
 4190              	.L303:
 4191 0006 00BF     		.align	2
 4192              	.L302:
 4193 0008 00000000 		.word	.LANCHOR3
 4194              		.cfi_endproc
 4195              	.LFE272:
 4196              		.size	mcpwm_get_comm_step, .-mcpwm_get_comm_step
 4197              		.section	.text.mcpwm_get_duty_cycle_set,"ax",%progbits
 4198              		.align	1
 4199              		.p2align 4,,15
 4200              		.global	mcpwm_get_duty_cycle_set
 4201              		.syntax unified
 4202              		.thumb
 4203              		.thumb_func
 4204              		.fpu fpv4-sp-d16
 4205              		.type	mcpwm_get_duty_cycle_set, %function
 4206              	mcpwm_get_duty_cycle_set:
 4207              	.LFB273:
 4208              		.loc 1 702 0
 4209              		.cfi_startproc
 4210              		@ args = 0, pretend = 0, frame = 0
 4211              		@ frame_needed = 0, uses_anonymous_args = 0
 4212              		@ link register save eliminated.
 4213              		.loc 1 703 0
 4214 0000 014B     		ldr	r3, .L305
 4215 0002 93ED000A 		vldr.32	s0, [r3]
 4216              		.loc 1 704 0
 4217 0006 7047     		bx	lr
 4218              	.L306:
ARM GAS  /tmp/cc6nscCq.s 			page 75


 4219              		.align	2
 4220              	.L305:
 4221 0008 00000000 		.word	.LANCHOR35
 4222              		.cfi_endproc
 4223              	.LFE273:
 4224              		.size	mcpwm_get_duty_cycle_set, .-mcpwm_get_duty_cycle_set
 4225              		.section	.text.mcpwm_get_duty_cycle_now,"ax",%progbits
 4226              		.align	1
 4227              		.p2align 4,,15
 4228              		.global	mcpwm_get_duty_cycle_now
 4229              		.syntax unified
 4230              		.thumb
 4231              		.thumb_func
 4232              		.fpu fpv4-sp-d16
 4233              		.type	mcpwm_get_duty_cycle_now, %function
 4234              	mcpwm_get_duty_cycle_now:
 4235              	.LFB274:
 4236              		.loc 1 706 0
 4237              		.cfi_startproc
 4238              		@ args = 0, pretend = 0, frame = 0
 4239              		@ frame_needed = 0, uses_anonymous_args = 0
 4240              		@ link register save eliminated.
 4241              		.loc 1 707 0
 4242 0000 014B     		ldr	r3, .L308
 4243 0002 93ED000A 		vldr.32	s0, [r3]
 4244              		.loc 1 708 0
 4245 0006 7047     		bx	lr
 4246              	.L309:
 4247              		.align	2
 4248              	.L308:
 4249 0008 00000000 		.word	.LANCHOR19
 4250              		.cfi_endproc
 4251              	.LFE274:
 4252              		.size	mcpwm_get_duty_cycle_now, .-mcpwm_get_duty_cycle_now
 4253              		.section	.text.mcpwm_get_switching_frequency_now,"ax",%progbits
 4254              		.align	1
 4255              		.p2align 4,,15
 4256              		.global	mcpwm_get_switching_frequency_now
 4257              		.syntax unified
 4258              		.thumb
 4259              		.thumb_func
 4260              		.fpu fpv4-sp-d16
 4261              		.type	mcpwm_get_switching_frequency_now, %function
 4262              	mcpwm_get_switching_frequency_now:
 4263              	.LFB275:
 4264              		.loc 1 716 0
 4265              		.cfi_startproc
 4266              		@ args = 0, pretend = 0, frame = 0
 4267              		@ frame_needed = 0, uses_anonymous_args = 0
 4268              		@ link register save eliminated.
 4269              		.loc 1 717 0
 4270 0000 014B     		ldr	r3, .L311
 4271 0002 93ED000A 		vldr.32	s0, [r3]
 4272              		.loc 1 718 0
 4273 0006 7047     		bx	lr
 4274              	.L312:
 4275              		.align	2
ARM GAS  /tmp/cc6nscCq.s 			page 76


 4276              	.L311:
 4277 0008 00000000 		.word	.LANCHOR6
 4278              		.cfi_endproc
 4279              	.LFE275:
 4280              		.size	mcpwm_get_switching_frequency_now, .-mcpwm_get_switching_frequency_now
 4281              		.section	.text.mcpwm_get_rpm,"ax",%progbits
 4282              		.align	1
 4283              		.p2align 4,,15
 4284              		.global	mcpwm_get_rpm
 4285              		.syntax unified
 4286              		.thumb
 4287              		.thumb_func
 4288              		.fpu fpv4-sp-d16
 4289              		.type	mcpwm_get_rpm, %function
 4290              	mcpwm_get_rpm:
 4291              	.LFB276:
 4292              		.loc 1 728 0
 4293              		.cfi_startproc
 4294              		@ args = 0, pretend = 0, frame = 0
 4295              		@ frame_needed = 0, uses_anonymous_args = 0
 4296              		@ link register save eliminated.
 4297              		.loc 1 729 0
 4298 0000 074B     		ldr	r3, .L318
 4299 0002 1B68     		ldr	r3, [r3]
 4300 0004 9B78     		ldrb	r3, [r3, #2]	@ zero_extendqisi2
 4301 0006 012B     		cmp	r3, #1
 4302 0008 01D0     		beq	.L317
 4303 000a FFF7FEBF 		b	mcpwm_get_rpm.part.0
 4304              	.LVL325:
 4305              	.L317:
 4306              		.loc 1 730 0
 4307 000e 054B     		ldr	r3, .L318+4
 4308 0010 DFED057A 		vldr.32	s15, .L318+8
 4309 0014 93ED007A 		vldr.32	s14, [r3]
 4310 0018 87EE270A 		vdiv.f32	s0, s14, s15
 4311              		.loc 1 734 0
 4312 001c 7047     		bx	lr
 4313              	.L319:
 4314 001e 00BF     		.align	2
 4315              	.L318:
 4316 0020 00000000 		.word	.LANCHOR0
 4317 0024 00000000 		.word	.LANCHOR24
 4318 0028 5077D63D 		.word	1037465424
 4319              		.cfi_endproc
 4320              	.LFE276:
 4321              		.size	mcpwm_get_rpm, .-mcpwm_get_rpm
 4322              		.section	.text.mcpwm_get_state,"ax",%progbits
 4323              		.align	1
 4324              		.p2align 4,,15
 4325              		.global	mcpwm_get_state
 4326              		.syntax unified
 4327              		.thumb
 4328              		.thumb_func
 4329              		.fpu fpv4-sp-d16
 4330              		.type	mcpwm_get_state, %function
 4331              	mcpwm_get_state:
 4332              	.LFB277:
ARM GAS  /tmp/cc6nscCq.s 			page 77


 4333              		.loc 1 736 0
 4334              		.cfi_startproc
 4335              		@ args = 0, pretend = 0, frame = 0
 4336              		@ frame_needed = 0, uses_anonymous_args = 0
 4337              		@ link register save eliminated.
 4338              		.loc 1 737 0
 4339 0000 014B     		ldr	r3, .L321
 4340 0002 1878     		ldrb	r0, [r3]	@ zero_extendqisi2
 4341              		.loc 1 738 0
 4342 0004 7047     		bx	lr
 4343              	.L322:
 4344 0006 00BF     		.align	2
 4345              	.L321:
 4346 0008 00000000 		.word	.LANCHOR2
 4347              		.cfi_endproc
 4348              	.LFE277:
 4349              		.size	mcpwm_get_state, .-mcpwm_get_state
 4350              		.section	.text.mcpwm_get_kv,"ax",%progbits
 4351              		.align	1
 4352              		.p2align 4,,15
 4353              		.global	mcpwm_get_kv
 4354              		.syntax unified
 4355              		.thumb
 4356              		.thumb_func
 4357              		.fpu fpv4-sp-d16
 4358              		.type	mcpwm_get_kv, %function
 4359              	mcpwm_get_kv:
 4360              	.LFB278:
 4361              		.loc 1 748 0
 4362              		.cfi_startproc
 4363              		@ args = 0, pretend = 0, frame = 0
 4364              		@ frame_needed = 0, uses_anonymous_args = 0
 4365              		@ link register save eliminated.
 4366              		.loc 1 749 0
 4367 0000 0D4A     		ldr	r2, .L324
 4368 0002 0E4B     		ldr	r3, .L324+4
 4369 0004 92ED000A 		vldr.32	s0, [r2]
 4370 0008 DB8A     		ldrh	r3, [r3, #22]
 4371 000a 9FED0D6A 		vldr.32	s12, .L324+8
 4372 000e DFED0D6A 		vldr.32	s13, .L324+12
 4373 0012 07EE903A 		vmov	s15, r3	@ int
 4374 0016 F8EE677A 		vcvt.f32.u32	s15, s15
 4375 001a 0B4B     		ldr	r3, .L324+16
 4376 001c 67EE867A 		vmul.f32	s15, s15, s12
 4377 0020 93ED007A 		vldr.32	s14, [r3]
 4378 0024 67EEA67A 		vmul.f32	s15, s15, s13
 4379 0028 B0EEC77A 		vabs.f32	s14, s14
 4380 002c 67EE877A 		vmul.f32	s15, s15, s14
 4381              		.loc 1 750 0
 4382 0030 80EE270A 		vdiv.f32	s0, s0, s15
 4383 0034 7047     		bx	lr
 4384              	.L325:
 4385 0036 00BF     		.align	2
 4386              	.L324:
 4387 0038 00000000 		.word	.LANCHOR21
 4388 003c 00000000 		.word	ADC_Value
 4389 0040 C07B523A 		.word	978484160
ARM GAS  /tmp/cc6nscCq.s 			page 78


 4390 0044 BAE8B241 		.word	1102244026
 4391 0048 00000000 		.word	.LANCHOR19
 4392              		.cfi_endproc
 4393              	.LFE278:
 4394              		.size	mcpwm_get_kv, .-mcpwm_get_kv
 4395              		.section	.text.mcpwm_get_kv_filtered,"ax",%progbits
 4396              		.align	1
 4397              		.p2align 4,,15
 4398              		.global	mcpwm_get_kv_filtered
 4399              		.syntax unified
 4400              		.thumb
 4401              		.thumb_func
 4402              		.fpu fpv4-sp-d16
 4403              		.type	mcpwm_get_kv_filtered, %function
 4404              	mcpwm_get_kv_filtered:
 4405              	.LFB279:
 4406              		.loc 1 760 0
 4407              		.cfi_startproc
 4408              		@ args = 0, pretend = 0, frame = 0
 4409              		@ frame_needed = 0, uses_anonymous_args = 0
 4410              		@ link register save eliminated.
 4411              		.loc 1 761 0
 4412 0000 034B     		ldr	r3, .L327
 4413 0002 0449     		ldr	r1, .L327+4
 4414 0004 1B68     		ldr	r3, [r3]
 4415 0006 0448     		ldr	r0, .L327+8
 4416 0008 0722     		movs	r2, #7
 4417 000a FFF7FEBF 		b	filter_run_fir_iteration
 4418              	.LVL326:
 4419              	.L328:
 4420 000e 00BF     		.align	2
 4421              	.L327:
 4422 0010 00000000 		.word	.LANCHOR22
 4423 0014 00000000 		.word	.LANCHOR49
 4424 0018 00000000 		.word	.LANCHOR23
 4425              		.cfi_endproc
 4426              	.LFE279:
 4427              		.size	mcpwm_get_kv_filtered, .-mcpwm_get_kv_filtered
 4428              		.section	.text.mcpwm_get_tot_current,"ax",%progbits
 4429              		.align	1
 4430              		.p2align 4,,15
 4431              		.global	mcpwm_get_tot_current
 4432              		.syntax unified
 4433              		.thumb
 4434              		.thumb_func
 4435              		.fpu fpv4-sp-d16
 4436              		.type	mcpwm_get_tot_current, %function
 4437              	mcpwm_get_tot_current:
 4438              	.LFB280:
 4439              		.loc 1 775 0
 4440              		.cfi_startproc
 4441              		@ args = 0, pretend = 0, frame = 0
 4442              		@ frame_needed = 0, uses_anonymous_args = 0
 4443              		@ link register save eliminated.
 4444              		.loc 1 776 0
 4445 0000 014B     		ldr	r3, .L330
 4446 0002 93ED000A 		vldr.32	s0, [r3]
ARM GAS  /tmp/cc6nscCq.s 			page 79


 4447              		.loc 1 777 0
 4448 0006 7047     		bx	lr
 4449              	.L331:
 4450              		.align	2
 4451              	.L330:
 4452 0008 00000000 		.word	.LANCHOR40
 4453              		.cfi_endproc
 4454              	.LFE280:
 4455              		.size	mcpwm_get_tot_current, .-mcpwm_get_tot_current
 4456              		.section	.text.mcpwm_get_tot_current_filtered,"ax",%progbits
 4457              		.align	1
 4458              		.p2align 4,,15
 4459              		.global	mcpwm_get_tot_current_filtered
 4460              		.syntax unified
 4461              		.thumb
 4462              		.thumb_func
 4463              		.fpu fpv4-sp-d16
 4464              		.type	mcpwm_get_tot_current_filtered, %function
 4465              	mcpwm_get_tot_current_filtered:
 4466              	.LFB281:
 4467              		.loc 1 787 0
 4468              		.cfi_startproc
 4469              		@ args = 0, pretend = 0, frame = 0
 4470              		@ frame_needed = 0, uses_anonymous_args = 0
 4471              		@ link register save eliminated.
 4472              		.loc 1 788 0
 4473 0000 014B     		ldr	r3, .L333
 4474 0002 93ED000A 		vldr.32	s0, [r3]
 4475              		.loc 1 789 0
 4476 0006 7047     		bx	lr
 4477              	.L334:
 4478              		.align	2
 4479              	.L333:
 4480 0008 00000000 		.word	.LANCHOR41
 4481              		.cfi_endproc
 4482              	.LFE281:
 4483              		.size	mcpwm_get_tot_current_filtered, .-mcpwm_get_tot_current_filtered
 4484              		.section	.text.mcpwm_get_tot_current_directional,"ax",%progbits
 4485              		.align	1
 4486              		.p2align 4,,15
 4487              		.global	mcpwm_get_tot_current_directional
 4488              		.syntax unified
 4489              		.thumb
 4490              		.thumb_func
 4491              		.fpu fpv4-sp-d16
 4492              		.type	mcpwm_get_tot_current_directional, %function
 4493              	mcpwm_get_tot_current_directional:
 4494              	.LFB282:
 4495              		.loc 1 798 0
 4496              		.cfi_startproc
 4497              		@ args = 0, pretend = 0, frame = 0
 4498              		@ frame_needed = 0, uses_anonymous_args = 0
 4499              		@ link register save eliminated.
 4500              	.LBB133:
 4501              	.LBB134:
 4502              		.loc 1 776 0
 4503 0000 064A     		ldr	r2, .L337
ARM GAS  /tmp/cc6nscCq.s 			page 80


 4504              	.LBE134:
 4505              	.LBE133:
 4506              		.loc 1 800 0
 4507 0002 074B     		ldr	r3, .L337+4
 4508              	.LBB136:
 4509              	.LBB135:
 4510              		.loc 1 776 0
 4511 0004 92ED000A 		vldr.32	s0, [r2]
 4512              	.LBE135:
 4513              	.LBE136:
 4514              		.loc 1 800 0
 4515 0008 D3ED007A 		vldr.32	s15, [r3]
 4516 000c F5EEC07A 		vcmpe.f32	s15, #0
 4517 0010 F1EE10FA 		vmrs	APSR_nzcv, FPSCR
 4518 0014 D8BF     		it	le
 4519 0016 B1EE400A 		vnegle.f32	s0, s0
 4520              		.loc 1 801 0
 4521 001a 7047     		bx	lr
 4522              	.L338:
 4523              		.align	2
 4524              	.L337:
 4525 001c 00000000 		.word	.LANCHOR40
 4526 0020 00000000 		.word	.LANCHOR19
 4527              		.cfi_endproc
 4528              	.LFE282:
 4529              		.size	mcpwm_get_tot_current_directional, .-mcpwm_get_tot_current_directional
 4530              		.section	.text.mcpwm_get_tot_current_directional_filtered,"ax",%progbits
 4531              		.align	1
 4532              		.p2align 4,,15
 4533              		.global	mcpwm_get_tot_current_directional_filtered
 4534              		.syntax unified
 4535              		.thumb
 4536              		.thumb_func
 4537              		.fpu fpv4-sp-d16
 4538              		.type	mcpwm_get_tot_current_directional_filtered, %function
 4539              	mcpwm_get_tot_current_directional_filtered:
 4540              	.LFB283:
 4541              		.loc 1 810 0
 4542              		.cfi_startproc
 4543              		@ args = 0, pretend = 0, frame = 0
 4544              		@ frame_needed = 0, uses_anonymous_args = 0
 4545              		@ link register save eliminated.
 4546              	.LBB137:
 4547              	.LBB138:
 4548              		.loc 1 788 0
 4549 0000 064A     		ldr	r2, .L341
 4550              	.LBE138:
 4551              	.LBE137:
 4552              		.loc 1 812 0
 4553 0002 074B     		ldr	r3, .L341+4
 4554              	.LBB140:
 4555              	.LBB139:
 4556              		.loc 1 788 0
 4557 0004 92ED000A 		vldr.32	s0, [r2]
 4558              	.LBE139:
 4559              	.LBE140:
 4560              		.loc 1 812 0
ARM GAS  /tmp/cc6nscCq.s 			page 81


 4561 0008 D3ED007A 		vldr.32	s15, [r3]
 4562 000c F5EEC07A 		vcmpe.f32	s15, #0
 4563 0010 F1EE10FA 		vmrs	APSR_nzcv, FPSCR
 4564 0014 D8BF     		it	le
 4565 0016 B1EE400A 		vnegle.f32	s0, s0
 4566              		.loc 1 813 0
 4567 001a 7047     		bx	lr
 4568              	.L342:
 4569              		.align	2
 4570              	.L341:
 4571 001c 00000000 		.word	.LANCHOR41
 4572 0020 00000000 		.word	.LANCHOR19
 4573              		.cfi_endproc
 4574              	.LFE283:
 4575              		.size	mcpwm_get_tot_current_directional_filtered, .-mcpwm_get_tot_current_directional_filtered
 4576              		.section	.text.mcpwm_get_tot_current_in,"ax",%progbits
 4577              		.align	1
 4578              		.p2align 4,,15
 4579              		.global	mcpwm_get_tot_current_in
 4580              		.syntax unified
 4581              		.thumb
 4582              		.thumb_func
 4583              		.fpu fpv4-sp-d16
 4584              		.type	mcpwm_get_tot_current_in, %function
 4585              	mcpwm_get_tot_current_in:
 4586              	.LFB284:
 4587              		.loc 1 821 0
 4588              		.cfi_startproc
 4589              		@ args = 0, pretend = 0, frame = 0
 4590              		@ frame_needed = 0, uses_anonymous_args = 0
 4591              		@ link register save eliminated.
 4592              	.LBB141:
 4593              	.LBB142:
 4594              		.loc 1 776 0
 4595 0000 054A     		ldr	r2, .L344
 4596              	.LBE142:
 4597              	.LBE141:
 4598              		.loc 1 822 0
 4599 0002 064B     		ldr	r3, .L344+4
 4600              	.LBB144:
 4601              	.LBB143:
 4602              		.loc 1 776 0
 4603 0004 92ED000A 		vldr.32	s0, [r2]
 4604              	.LBE143:
 4605              	.LBE144:
 4606              		.loc 1 822 0
 4607 0008 D3ED007A 		vldr.32	s15, [r3]
 4608 000c F0EEE77A 		vabs.f32	s15, s15
 4609              		.loc 1 823 0
 4610 0010 27EE800A 		vmul.f32	s0, s15, s0
 4611 0014 7047     		bx	lr
 4612              	.L345:
 4613 0016 00BF     		.align	2
 4614              	.L344:
 4615 0018 00000000 		.word	.LANCHOR40
 4616 001c 00000000 		.word	.LANCHOR19
 4617              		.cfi_endproc
ARM GAS  /tmp/cc6nscCq.s 			page 82


 4618              	.LFE284:
 4619              		.size	mcpwm_get_tot_current_in, .-mcpwm_get_tot_current_in
 4620              		.section	.text.mcpwm_get_tot_current_in_filtered,"ax",%progbits
 4621              		.align	1
 4622              		.p2align 4,,15
 4623              		.global	mcpwm_get_tot_current_in_filtered
 4624              		.syntax unified
 4625              		.thumb
 4626              		.thumb_func
 4627              		.fpu fpv4-sp-d16
 4628              		.type	mcpwm_get_tot_current_in_filtered, %function
 4629              	mcpwm_get_tot_current_in_filtered:
 4630              	.LFB285:
 4631              		.loc 1 831 0
 4632              		.cfi_startproc
 4633              		@ args = 0, pretend = 0, frame = 0
 4634              		@ frame_needed = 0, uses_anonymous_args = 0
 4635              		@ link register save eliminated.
 4636              	.LBB145:
 4637              	.LBB146:
 4638              		.loc 1 788 0
 4639 0000 054A     		ldr	r2, .L347
 4640              	.LBE146:
 4641              	.LBE145:
 4642              		.loc 1 832 0
 4643 0002 064B     		ldr	r3, .L347+4
 4644              	.LBB148:
 4645              	.LBB147:
 4646              		.loc 1 788 0
 4647 0004 92ED000A 		vldr.32	s0, [r2]
 4648              	.LBE147:
 4649              	.LBE148:
 4650              		.loc 1 832 0
 4651 0008 D3ED007A 		vldr.32	s15, [r3]
 4652 000c F0EEE77A 		vabs.f32	s15, s15
 4653              		.loc 1 833 0
 4654 0010 27EE800A 		vmul.f32	s0, s15, s0
 4655 0014 7047     		bx	lr
 4656              	.L348:
 4657 0016 00BF     		.align	2
 4658              	.L347:
 4659 0018 00000000 		.word	.LANCHOR41
 4660 001c 00000000 		.word	.LANCHOR19
 4661              		.cfi_endproc
 4662              	.LFE285:
 4663              		.size	mcpwm_get_tot_current_in_filtered, .-mcpwm_get_tot_current_in_filtered
 4664              		.section	.text.mcpwm_set_tachometer_value,"ax",%progbits
 4665              		.align	1
 4666              		.p2align 4,,15
 4667              		.global	mcpwm_set_tachometer_value
 4668              		.syntax unified
 4669              		.thumb
 4670              		.thumb_func
 4671              		.fpu fpv4-sp-d16
 4672              		.type	mcpwm_set_tachometer_value, %function
 4673              	mcpwm_set_tachometer_value:
 4674              	.LFB286:
ARM GAS  /tmp/cc6nscCq.s 			page 83


 4675              		.loc 1 847 0
 4676              		.cfi_startproc
 4677              		@ args = 0, pretend = 0, frame = 0
 4678              		@ frame_needed = 0, uses_anonymous_args = 0
 4679              		@ link register save eliminated.
 4680              	.LVL327:
 4681              		.loc 1 848 0
 4682 0000 024B     		ldr	r3, .L350
 4683 0002 1A68     		ldr	r2, [r3]
 4684              	.LVL328:
 4685              		.loc 1 850 0
 4686 0004 1860     		str	r0, [r3]
 4687              		.loc 1 853 0
 4688 0006 1046     		mov	r0, r2
 4689              	.LVL329:
 4690 0008 7047     		bx	lr
 4691              	.L351:
 4692 000a 00BF     		.align	2
 4693              	.L350:
 4694 000c 00000000 		.word	.LANCHOR12
 4695              		.cfi_endproc
 4696              	.LFE286:
 4697              		.size	mcpwm_set_tachometer_value, .-mcpwm_set_tachometer_value
 4698              		.section	.text.mcpwm_get_tachometer_value,"ax",%progbits
 4699              		.align	1
 4700              		.p2align 4,,15
 4701              		.global	mcpwm_get_tachometer_value
 4702              		.syntax unified
 4703              		.thumb
 4704              		.thumb_func
 4705              		.fpu fpv4-sp-d16
 4706              		.type	mcpwm_get_tachometer_value, %function
 4707              	mcpwm_get_tachometer_value:
 4708              	.LFB287:
 4709              		.loc 1 866 0
 4710              		.cfi_startproc
 4711              		@ args = 0, pretend = 0, frame = 0
 4712              		@ frame_needed = 0, uses_anonymous_args = 0
 4713              		@ link register save eliminated.
 4714              	.LVL330:
 4715              		.loc 1 867 0
 4716 0000 034B     		ldr	r3, .L357
 4717 0002 1A68     		ldr	r2, [r3]
 4718              	.LVL331:
 4719              		.loc 1 869 0
 4720 0004 08B1     		cbz	r0, .L352
 4721              		.loc 1 870 0
 4722 0006 0021     		movs	r1, #0
 4723 0008 1960     		str	r1, [r3]
 4724              	.L352:
 4725              		.loc 1 874 0
 4726 000a 1046     		mov	r0, r2
 4727              	.LVL332:
 4728 000c 7047     		bx	lr
 4729              	.L358:
 4730 000e 00BF     		.align	2
 4731              	.L357:
ARM GAS  /tmp/cc6nscCq.s 			page 84


 4732 0010 00000000 		.word	.LANCHOR12
 4733              		.cfi_endproc
 4734              	.LFE287:
 4735              		.size	mcpwm_get_tachometer_value, .-mcpwm_get_tachometer_value
 4736              		.section	.text.mcpwm_get_tachometer_abs_value,"ax",%progbits
 4737              		.align	1
 4738              		.p2align 4,,15
 4739              		.global	mcpwm_get_tachometer_abs_value
 4740              		.syntax unified
 4741              		.thumb
 4742              		.thumb_func
 4743              		.fpu fpv4-sp-d16
 4744              		.type	mcpwm_get_tachometer_abs_value, %function
 4745              	mcpwm_get_tachometer_abs_value:
 4746              	.LFB288:
 4747              		.loc 1 886 0
 4748              		.cfi_startproc
 4749              		@ args = 0, pretend = 0, frame = 0
 4750              		@ frame_needed = 0, uses_anonymous_args = 0
 4751              		@ link register save eliminated.
 4752              	.LVL333:
 4753              		.loc 1 887 0
 4754 0000 034B     		ldr	r3, .L364
 4755 0002 1A68     		ldr	r2, [r3]
 4756              	.LVL334:
 4757              		.loc 1 889 0
 4758 0004 08B1     		cbz	r0, .L359
 4759              		.loc 1 890 0
 4760 0006 0021     		movs	r1, #0
 4761 0008 1960     		str	r1, [r3]
 4762              	.L359:
 4763              		.loc 1 894 0
 4764 000a 1046     		mov	r0, r2
 4765              	.LVL335:
 4766 000c 7047     		bx	lr
 4767              	.L365:
 4768 000e 00BF     		.align	2
 4769              	.L364:
 4770 0010 00000000 		.word	.LANCHOR11
 4771              		.cfi_endproc
 4772              	.LFE288:
 4773              		.size	mcpwm_get_tachometer_abs_value, .-mcpwm_get_tachometer_abs_value
 4774              		.section	.text.mcpwm_stop_pwm,"ax",%progbits
 4775              		.align	1
 4776              		.p2align 4,,15
 4777              		.global	mcpwm_stop_pwm
 4778              		.syntax unified
 4779              		.thumb
 4780              		.thumb_func
 4781              		.fpu fpv4-sp-d16
 4782              		.type	mcpwm_stop_pwm, %function
 4783              	mcpwm_stop_pwm:
 4784              	.LFB289:
 4785              		.loc 1 899 0
 4786              		.cfi_startproc
 4787              		@ args = 0, pretend = 0, frame = 0
 4788              		@ frame_needed = 0, uses_anonymous_args = 0
ARM GAS  /tmp/cc6nscCq.s 			page 85


 4789              		@ link register save eliminated.
 4790              		.loc 1 900 0
 4791 0000 0648     		ldr	r0, .L368
 4792              	.LBB149:
 4793              	.LBB150:
 4794              		.loc 1 905 0
 4795 0002 0749     		ldr	r1, .L368+4
 4796              		.loc 1 906 0
 4797 0004 074A     		ldr	r2, .L368+8
 4798              	.LBE150:
 4799              	.LBE149:
 4800              		.loc 1 899 0
 4801 0006 10B4     		push	{r4}
 4802              		.cfi_def_cfa_offset 4
 4803              		.cfi_offset 4, -4
 4804              		.loc 1 900 0
 4805 0008 0A24     		movs	r4, #10
 4806 000a 0470     		strb	r4, [r0]
 4807              	.LBB153:
 4808              	.LBB151:
 4809              		.loc 1 905 0
 4810 000c 0023     		movs	r3, #0
 4811              	.LBE151:
 4812              	.LBE153:
 4813              		.loc 1 902 0
 4814 000e 5DF8044B 		ldr	r4, [sp], #4
 4815              		.cfi_restore 4
 4816              		.cfi_def_cfa_offset 0
 4817              	.LBB154:
 4818              	.LBB152:
 4819              		.loc 1 905 0
 4820 0012 0B70     		strb	r3, [r1]
 4821              		.loc 1 906 0
 4822 0014 1360     		str	r3, [r2]
 4823              		.loc 1 907 0
 4824 0016 FFF7FEBF 		b	stop_pwm_hw
 4825              	.LVL336:
 4826              	.L369:
 4827 001a 00BF     		.align	2
 4828              	.L368:
 4829 001c 00000000 		.word	.LANCHOR39
 4830 0020 00000000 		.word	.LANCHOR2
 4831 0024 00000000 		.word	.LANCHOR42
 4832              	.LBE152:
 4833              	.LBE154:
 4834              		.cfi_endproc
 4835              	.LFE289:
 4836              		.size	mcpwm_stop_pwm, .-mcpwm_stop_pwm
 4837              		.section	.text.mcpwm_adc_inj_int_handler,"ax",%progbits
 4838              		.align	1
 4839              		.p2align 4,,15
 4840              		.global	mcpwm_adc_inj_int_handler
 4841              		.syntax unified
 4842              		.thumb
 4843              		.thumb_func
 4844              		.fpu fpv4-sp-d16
 4845              		.type	mcpwm_adc_inj_int_handler, %function
ARM GAS  /tmp/cc6nscCq.s 			page 86


 4846              	mcpwm_adc_inj_int_handler:
 4847              	.LFB301:
 4848              		.loc 1 1457 0
 4849              		.cfi_startproc
 4850              		@ args = 0, pretend = 0, frame = 0
 4851              		@ frame_needed = 0, uses_anonymous_args = 0
 4852 0000 2DE9F041 		push	{r4, r5, r6, r7, r8, lr}
 4853              		.cfi_def_cfa_offset 24
 4854              		.cfi_offset 4, -24
 4855              		.cfi_offset 5, -20
 4856              		.cfi_offset 6, -16
 4857              		.cfi_offset 7, -12
 4858              		.cfi_offset 8, -8
 4859              		.cfi_offset 14, -4
 4860 0004 2DED028B 		vpush.64	{d8}
 4861              		.cfi_def_cfa_offset 32
 4862              		.cfi_offset 80, -32
 4863              		.cfi_offset 81, -28
 4864              		.loc 1 1458 0
 4865 0008 FFF7FEFF 		bl	timer_time_now
 4866              	.LVL337:
 4867              		.loc 1 1460 0
 4868 000c 1421     		movs	r1, #20
 4869              		.loc 1 1458 0
 4870 000e 0546     		mov	r5, r0
 4871              	.LVL338:
 4872              		.loc 1 1460 0
 4873 0010 AB48     		ldr	r0, .L447
 4874              	.LVL339:
 4875 0012 FFF7FEFF 		bl	ADC_GetInjectedConversionValue
 4876              	.LVL340:
 4877              		.loc 1 1461 0
 4878 0016 1421     		movs	r1, #20
 4879              		.loc 1 1460 0
 4880 0018 0646     		mov	r6, r0
 4881              	.LVL341:
 4882              		.loc 1 1461 0
 4883 001a AA48     		ldr	r0, .L447+4
 4884              	.LVL342:
 4885 001c FFF7FEFF 		bl	ADC_GetInjectedConversionValue
 4886              	.LVL343:
 4887              		.loc 1 1463 0
 4888 0020 1821     		movs	r1, #24
 4889              		.loc 1 1461 0
 4890 0022 0446     		mov	r4, r0
 4891              	.LVL344:
 4892              		.loc 1 1463 0
 4893 0024 A748     		ldr	r0, .L447+4
 4894              	.LVL345:
 4895 0026 FFF7FEFF 		bl	ADC_GetInjectedConversionValue
 4896              	.LVL346:
 4897              		.loc 1 1464 0
 4898 002a 1821     		movs	r1, #24
 4899 002c A448     		ldr	r0, .L447
 4900 002e FFF7FEFF 		bl	ADC_GetInjectedConversionValue
 4901              	.LVL347:
 4902              		.loc 1 1467 0
ARM GAS  /tmp/cc6nscCq.s 			page 87


 4903 0032 1421     		movs	r1, #20
 4904 0034 A448     		ldr	r0, .L447+8
 4905 0036 FFF7FEFF 		bl	ADC_GetInjectedConversionValue
 4906              	.LVL348:
 4907              		.loc 1 1476 0
 4908 003a A44B     		ldr	r3, .L447+12
 4909 003c 1A68     		ldr	r2, [r3]
 4910 003e D107     		lsls	r1, r2, #31
 4911 0040 02D5     		bpl	.L371
 4912              		.loc 1 1477 0
 4913 0042 A34A     		ldr	r2, .L447+16
 4914 0044 D688     		ldrh	r6, [r2, #6]
 4915              	.LVL349:
 4916 0046 B6B2     		uxth	r6, r6
 4917              	.LVL350:
 4918              	.L371:
 4919              		.loc 1 1480 0
 4920 0048 1A68     		ldr	r2, [r3]
 4921 004a 9207     		lsls	r2, r2, #30
 4922 004c 02D5     		bpl	.L372
 4923              		.loc 1 1481 0
 4924 004e A04A     		ldr	r2, .L447+16
 4925 0050 1489     		ldrh	r4, [r2, #8]
 4926              	.LVL351:
 4927 0052 A4B2     		uxth	r4, r4
 4928              	.LVL352:
 4929              	.L372:
 4930              		.loc 1 1485 0
 4931 0054 1B68     		ldr	r3, [r3]
 4932 0056 5B07     		lsls	r3, r3, #29
 4933 0058 02D5     		bpl	.L373
 4934              		.loc 1 1486 0
 4935 005a 9D4B     		ldr	r3, .L447+16
 4936 005c 5889     		ldrh	r0, [r3, #10]
 4937              	.LVL353:
 4938 005e 80B2     		uxth	r0, r0
 4939              	.LVL354:
 4940              	.L373:
 4941              		.loc 1 1503 0
 4942 0060 9C4F     		ldr	r7, .L447+20
 4943              		.loc 1 1504 0
 4944 0062 9D49     		ldr	r1, .L447+24
 4945              		.loc 1 1503 0
 4946 0064 3B68     		ldr	r3, [r7]
 4947              		.loc 1 1506 0
 4948 0066 9D4A     		ldr	r2, .L447+28
 4949              		.loc 1 1519 0
 4950 0068 DFF8C8C2 		ldr	ip, .L447+116
 4951              		.loc 1 1551 0
 4952 006c DFF8C882 		ldr	r8, .L447+120
 4953              		.loc 1 1503 0
 4954 0070 3344     		add	r3, r3, r6
 4955 0072 3B60     		str	r3, [r7]
 4956              		.loc 1 1504 0
 4957 0074 0B68     		ldr	r3, [r1]
 4958              		.loc 1 1509 0
 4959 0076 9A4F     		ldr	r7, .L447+32
ARM GAS  /tmp/cc6nscCq.s 			page 88


 4960              		.loc 1 1504 0
 4961 0078 2344     		add	r3, r3, r4
 4962 007a 0B60     		str	r3, [r1]
 4963              		.loc 1 1506 0
 4964 007c 1368     		ldr	r3, [r2]
 4965              		.loc 1 1511 0
 4966 007e 9949     		ldr	r1, .L447+36
 4967              		.loc 1 1506 0
 4968 0080 0344     		add	r3, r3, r0
 4969 0082 1360     		str	r3, [r2]
 4970              		.loc 1 1509 0
 4971 0084 3A68     		ldr	r2, [r7]
 4972              		.loc 1 1512 0
 4973 0086 984B     		ldr	r3, .L447+40
 4974              		.loc 1 1509 0
 4975 0088 0132     		adds	r2, r2, #1
 4976 008a 3A60     		str	r2, [r7]
 4977              		.loc 1 1511 0
 4978 008c 0A68     		ldr	r2, [r1]
 4979              	.LVL355:
 4980              		.loc 1 1512 0
 4981 008e 1A68     		ldr	r2, [r3]
 4982              	.LVL356:
 4983              		.loc 1 1513 0
 4984 0090 0F68     		ldr	r7, [r1]
 4985              		.loc 1 1514 0
 4986 0092 1A68     		ldr	r2, [r3]
 4987              		.loc 1 1515 0
 4988 0094 D1F800E0 		ldr	lr, [r1]
 4989              		.loc 1 1516 0
 4990 0098 1B68     		ldr	r3, [r3]
 4991              		.loc 1 1519 0
 4992 009a DCF80030 		ldr	r3, [ip]
 4993              		.loc 1 1520 0
 4994 009e DCF80030 		ldr	r3, [ip]
 4995              		.loc 1 1513 0
 4996 00a2 F61B     		subs	r6, r6, r7
 4997              	.LVL357:
 4998              		.loc 1 1541 0
 4999 00a4 914F     		ldr	r7, .L447+44
 5000              		.loc 1 1514 0
 5001 00a6 A41A     		subs	r4, r4, r2
 5002              	.LVL358:
 5003              		.loc 1 1520 0
 5004 00a8 C01A     		subs	r0, r0, r3
 5005              	.LVL359:
 5006              		.loc 1 1551 0
 5007 00aa D8F80020 		ldr	r2, [r8]
 5008              		.loc 1 1541 0
 5009 00ae 3E60     		str	r6, [r7]
 5010              		.loc 1 1542 0
 5011 00b0 7C60     		str	r4, [r7, #4]
 5012              		.loc 1 1545 0
 5013 00b2 B860     		str	r0, [r7, #8]
 5014              	.LVL360:
 5015              		.loc 1 1551 0
 5016 00b4 9378     		ldrb	r3, [r2, #2]	@ zero_extendqisi2
ARM GAS  /tmp/cc6nscCq.s 			page 89


 5017 00b6 012B     		cmp	r3, #1
 5018 00b8 23D0     		beq	.L443
 5019              	.LBB155:
 5020              		.loc 1 1584 0
 5021 00ba 8D4C     		ldr	r4, .L447+48
 5022              	.LVL361:
 5023 00bc 2378     		ldrb	r3, [r4]	@ zero_extendqisi2
 5024 00be 032B     		cmp	r3, #3
 5025 00c0 00F08C81 		beq	.L444
 5026              	.LBB156:
 5027              		.loc 1 1591 0
 5028 00c4 8B4B     		ldr	r3, .L447+52
 5029 00c6 1B68     		ldr	r3, [r3]
 5030 00c8 6BB1     		cbz	r3, .L379
 5031              		.loc 1 1592 0
 5032 00ca 8B4B     		ldr	r3, .L447+56
 5033 00cc 1A68     		ldr	r2, [r3]
 5034 00ce 013A     		subs	r2, r2, #1
 5035 00d0 052A     		cmp	r2, #5
 5036 00d2 00F2B681 		bhi	.L414
 5037 00d6 DFE812F0 		tbh	[pc, r2, lsl #1]
 5038              	.L382:
 5039 00da 7400     		.2byte	(.L392-.L382)/2
 5040 00dc 7400     		.2byte	(.L392-.L382)/2
 5041 00de E500     		.2byte	(.L390-.L382)/2
 5042 00e0 E500     		.2byte	(.L390-.L382)/2
 5043 00e2 EC00     		.2byte	(.L394-.L382)/2
 5044 00e4 EC00     		.2byte	(.L394-.L382)/2
 5045              		.p2align 1
 5046              	.L379:
 5047              		.loc 1 1602 0
 5048 00e6 844B     		ldr	r3, .L447+56
 5049 00e8 1A68     		ldr	r2, [r3]
 5050 00ea 013A     		subs	r2, r2, #1
 5051 00ec 052A     		cmp	r2, #5
 5052 00ee 00F2A881 		bhi	.L414
 5053 00f2 DFE812F0 		tbh	[pc, r2, lsl #1]
 5054              	.L389:
 5055 00f6 D700     		.2byte	(.L390-.L389)/2
 5056 00f8 D700     		.2byte	(.L390-.L389)/2
 5057 00fa 6600     		.2byte	(.L392-.L389)/2
 5058 00fc 6600     		.2byte	(.L392-.L389)/2
 5059 00fe DE00     		.2byte	(.L394-.L389)/2
 5060 0100 DE00     		.2byte	(.L394-.L389)/2
 5061              	.LVL362:
 5062              		.p2align 1
 5063              	.L443:
 5064              	.LBE156:
 5065              	.LBE155:
 5066              		.loc 1 1552 0
 5067 0102 7C4B     		ldr	r3, .L447+52
 5068 0104 1B68     		ldr	r3, [r3]
 5069 0106 002B     		cmp	r3, #0
 5070 0108 4FD1     		bne	.L445
 5071              		.loc 1 1559 0
 5072 010a 714B     		ldr	r3, .L447+16
 5073 010c DB88     		ldrh	r3, [r3, #6]
ARM GAS  /tmp/cc6nscCq.s 			page 90


 5074 010e 0968     		ldr	r1, [r1]
 5075 0110 5B1A     		subs	r3, r3, r1
 5076 0112 07EE903A 		vmov	s15, r3	@ int
 5077 0116 F8EEE77A 		vcvt.f32.s32	s15, s15
 5078 011a B1EE678A 		vneg.f32	s16, s15
 5079              	.LVL363:
 5080              	.L376:
 5081              		.loc 1 1714 0
 5082 011e DFED777A 		vldr.32	s15, .L447+60
 5083 0122 774B     		ldr	r3, .L447+64
 5084              		.loc 1 1717 0
 5085 0124 DFED776A 		vldr.32	s13, .L447+68
 5086              		.loc 1 1714 0
 5087 0128 68EE277A 		vmul.f32	s15, s16, s15
 5088 012c C3ED007A 		vstr.32	s15, [r3]
 5089              		.loc 1 1717 0
 5090 0130 93ED007A 		vldr.32	s14, [r3]
 5091 0134 D2ED057A 		vldr.32	s15, [r2, #20]
 5092 0138 67EEA67A 		vmul.f32	s15, s15, s13
 5093 013c B0EEC77A 		vabs.f32	s14, s14
 5094 0140 B4EEE77A 		vcmpe.f32	s14, s15
 5095 0144 F1EE10FA 		vmrs	APSR_nzcv, FPSCR
 5096 0148 14DD     		ble	.L409
 5097              		.loc 1 1718 0
 5098 014a 93ED007A 		vldr.32	s14, [r3]
 5099 014e D2ED057A 		vldr.32	s15, [r2, #20]
 5100 0152 B5EEC07A 		vcmpe.f32	s14, #0
 5101 0156 F1EE10FA 		vmrs	APSR_nzcv, FPSCR
 5102 015a BFEE007A 		vmov.f32	s14, #-1.0e+0
 5103 015e B7EE006A 		vmov.f32	s12, #1.0e+0
 5104 0162 58BF     		it	pl
 5105 0164 B0EE467A 		vmovpl.f32	s14, s12
 5106 0168 67EE877A 		vmul.f32	s15, s15, s14
 5107 016c 67EEA67A 		vmul.f32	s15, s15, s13
 5108 0170 C3ED007A 		vstr.32	s15, [r3]
 5109              	.L409:
 5110              		.loc 1 1721 0
 5111 0174 644C     		ldr	r4, .L447+72
 5112 0176 93ED000A 		vldr.32	s0, [r3]
 5113 017a 6448     		ldr	r0, .L447+76
 5114 017c 2246     		mov	r2, r4
 5115 017e 0421     		movs	r1, #4
 5116 0180 FFF7FEFF 		bl	filter_add_sample
 5117              	.LVL364:
 5118              		.loc 1 1723 0
 5119 0184 2368     		ldr	r3, [r4]
 5120 0186 6249     		ldr	r1, .L447+80
 5121 0188 6048     		ldr	r0, .L447+76
 5122 018a 0422     		movs	r2, #4
 5123 018c FFF7FEFF 		bl	filter_run_fir_iteration
 5124              	.LVL365:
 5125 0190 604B     		ldr	r3, .L447+84
 5126              		.loc 1 1727 0
 5127 0192 2846     		mov	r0, r5
 5128              		.loc 1 1723 0
 5129 0194 83ED000A 		vstr.32	s0, [r3]
 5130              		.loc 1 1727 0
ARM GAS  /tmp/cc6nscCq.s 			page 91


 5131 0198 FFF7FEFF 		bl	timer_seconds_elapsed_since
 5132              	.LVL366:
 5133              		.loc 1 1728 0
 5134 019c BDEC028B 		vldm	sp!, {d8}
 5135              		.cfi_remember_state
 5136              		.cfi_restore 80
 5137              		.cfi_restore 81
 5138              		.cfi_def_cfa_offset 24
 5139              	.LVL367:
 5140              		.loc 1 1727 0
 5141 01a0 5D4B     		ldr	r3, .L447+88
 5142 01a2 83ED000A 		vstr.32	s0, [r3]
 5143              		.loc 1 1728 0
 5144 01a6 BDE8F081 		pop	{r4, r5, r6, r7, r8, pc}
 5145              	.LVL368:
 5146              	.L445:
 5147              		.cfi_restore_state
 5148              		.loc 1 1554 0
 5149 01aa 494B     		ldr	r3, .L447+16
 5150 01ac 5B89     		ldrh	r3, [r3, #10]
 5151 01ae DCF80010 		ldr	r1, [ip]
 5152 01b2 5B1A     		subs	r3, r3, r1
 5153 01b4 07EE903A 		vmov	s15, r3	@ int
 5154 01b8 F8EEE77A 		vcvt.f32.s32	s15, s15
 5155 01bc B1EE678A 		vneg.f32	s16, s15
 5156              	.LVL369:
 5157 01c0 ADE7     		b	.L376
 5158              	.LVL370:
 5159              	.L392:
 5160              	.LBB163:
 5161              	.LBB157:
 5162              		.loc 1 1606 0
 5163 01c2 D7ED027A 		vldr.32	s15, [r7, #8]	@ int
 5164 01c6 F8EEE77A 		vcvt.f32.s32	s15, s15
 5165 01ca F1EE677A 		vneg.f32	s15, s15
 5166              	.LVL371:
 5167              	.L380:
 5168              		.loc 1 1639 0
 5169 01ce 534A     		ldr	r2, .L447+92
 5170 01d0 1868     		ldr	r0, [r3]
 5171              	.LVL372:
 5172 01d2 1168     		ldr	r1, [r2]
 5173              		.loc 1 1642 0
 5174 01d4 1B68     		ldr	r3, [r3]
 5175 01d6 1360     		str	r3, [r2]
 5176              		.loc 1 1639 0
 5177 01d8 8842     		cmp	r0, r1
 5178              		.loc 1 1640 0
 5179 01da 16BF     		itet	ne
 5180 01dc 5049     		ldrne	r1, .L447+96
 5181 01de 5049     		ldreq	r1, .L447+96
 5182 01e0 91ED008A 		vldrne.32	s16, [r1]
 5183              	.LVL373:
 5184              		.loc 1 1643 0
 5185 01e4 C1ED007A 		vstr.32	s15, [r1]
 5186 01e8 08BF     		it	eq
 5187 01ea B0EE678A 		vmoveq.f32	s16, s15
ARM GAS  /tmp/cc6nscCq.s 			page 92


 5188              	.LVL374:
 5189              	.L378:
 5190              	.LBE157:
 5191              		.loc 1 1646 0
 5192 01ee 4D4E     		ldr	r6, .L447+100
 5193              	.LVL375:
 5194 01f0 3368     		ldr	r3, [r6]
 5195 01f2 042B     		cmp	r3, #4
 5196 01f4 0BD0     		beq	.L446
 5197              	.L396:
 5198              		.loc 1 1693 0
 5199 01f6 002B     		cmp	r3, #0
 5200 01f8 00F0A280 		beq	.L405
 5201              		.loc 1 1697 0
 5202 01fc 2278     		ldrb	r2, [r4]	@ zero_extendqisi2
 5203              		.loc 1 1694 0
 5204 01fe 013B     		subs	r3, r3, #1
 5205              		.loc 1 1697 0
 5206 0200 012A     		cmp	r2, #1
 5207              		.loc 1 1694 0
 5208 0202 3360     		str	r3, [r6]
 5209              		.loc 1 1697 0
 5210 0204 00F0E680 		beq	.L406
 5211              	.L442:
 5212 0208 D8F80020 		ldr	r2, [r8]
 5213 020c 87E7     		b	.L376
 5214              	.L446:
 5215              	.LBB158:
 5216              		.loc 1 1647 0
 5217 020e 97ED007A 		vldr.32	s14, [r7]	@ int
 5218              		.loc 1 1648 0
 5219 0212 D7ED017A 		vldr.32	s15, [r7, #4]	@ int
 5220              		.loc 1 1651 0
 5221 0216 444B     		ldr	r3, .L447+104
 5222 0218 444A     		ldr	r2, .L447+108
 5223 021a 1968     		ldr	r1, [r3]
 5224              		.loc 1 1647 0
 5225 021c B8EEC77A 		vcvt.f32.s32	s14, s14
 5226              		.loc 1 1648 0
 5227 0220 F8EEE77A 		vcvt.f32.s32	s15, s15
 5228              		.loc 1 1647 0
 5229 0224 B0EEC77A 		vabs.f32	s14, s14
 5230              	.LVL376:
 5231              		.loc 1 1648 0
 5232 0228 F0EEE77A 		vabs.f32	s15, s15
 5233              	.LVL377:
 5234              		.loc 1 1650 0
 5235 022c B4EEE77A 		vcmpe.f32	s14, s15
 5236 0230 F1EE10FA 		vmrs	APSR_nzcv, FPSCR
 5237              		.loc 1 1651 0
 5238 0234 02EB8101 		add	r1, r2, r1, lsl #2
 5239 0238 CCBF     		ite	gt
 5240 023a 81ED007A 		vstrgt.32	s14, [r1]
 5241              		.loc 1 1653 0
 5242 023e C1ED007A 		vstrle.32	s15, [r1]
 5243              		.loc 1 1656 0
 5244 0242 1968     		ldr	r1, [r3]
ARM GAS  /tmp/cc6nscCq.s 			page 93


 5245 0244 0029     		cmp	r1, #0
 5246 0246 40F3EA80 		ble	.L400
 5247              		.loc 1 1658 0
 5248 024a 1968     		ldr	r1, [r3]
 5249              		.loc 1 1657 0
 5250 024c 3848     		ldr	r0, .L447+112
 5251              		.loc 1 1658 0
 5252 024e 0139     		subs	r1, r1, #1
 5253 0250 02EB8101 		add	r1, r2, r1, lsl #2
 5254 0254 D1ED007A 		vldr.32	s15, [r1]
 5255              	.LVL378:
 5256 0258 1968     		ldr	r1, [r3]
 5257 025a 02EB8101 		add	r1, r2, r1, lsl #2
 5258 025e 91ED007A 		vldr.32	s14, [r1]
 5259              	.LVL379:
 5260              		.loc 1 1657 0
 5261 0262 1968     		ldr	r1, [r3]
 5262              		.loc 1 1658 0
 5263 0264 77EEC77A 		vsub.f32	s15, s15, s14
 5264              		.loc 1 1657 0
 5265 0268 00EB8101 		add	r1, r0, r1, lsl #2
 5266 026c C1ED007A 		vstr.32	s15, [r1]
 5267              	.L401:
 5268              		.loc 1 1664 0
 5269 0270 174F     		ldr	r7, .L447+16
 5270              		.loc 1 1667 0
 5271 0272 2148     		ldr	r0, .L447+56
 5272              		.loc 1 1664 0
 5273 0274 F98A     		ldrh	r1, [r7, #22]
 5274              		.loc 1 1667 0
 5275 0276 0068     		ldr	r0, [r0]
 5276 0278 0628     		cmp	r0, #6
 5277              		.loc 1 1664 0
 5278 027a 89B2     		uxth	r1, r1
 5279              	.LVL380:
 5280 027c 00F28B80 		bhi	.L402
 5281 0280 4FF0010C 		mov	ip, #1
 5282 0284 0CFA00F0 		lsl	r0, ip, r0
 5283 0288 10F0480F 		tst	r0, #72
 5284 028c 21FA0CF1 		lsr	r1, r1, ip
 5285              	.LVL381:
 5286 0290 75D1     		bne	.L403
 5287 0292 10F0240F 		tst	r0, #36
 5288 0296 40F0D280 		bne	.L404
 5289 029a 10F0120F 		tst	r0, #18
 5290 029e 7AD0     		beq	.L402
 5291              		.loc 1 1670 0
 5292 02a0 3888     		ldrh	r0, [r7]
 5293 02a2 6DE0     		b	.L441
 5294              	.LVL382:
 5295              	.L390:
 5296              	.LBE158:
 5297              	.LBB159:
 5298              		.loc 1 1604 0
 5299 02a4 D7ED017A 		vldr.32	s15, [r7, #4]	@ int
 5300 02a8 F8EEE77A 		vcvt.f32.s32	s15, s15
 5301 02ac F1EE677A 		vneg.f32	s15, s15
ARM GAS  /tmp/cc6nscCq.s 			page 94


 5302              	.LVL383:
 5303 02b0 8DE7     		b	.L380
 5304              	.LVL384:
 5305              	.L394:
 5306              		.loc 1 1608 0
 5307 02b2 D7ED007A 		vldr.32	s15, [r7]	@ int
 5308 02b6 F8EEE77A 		vcvt.f32.s32	s15, s15
 5309 02ba F1EE677A 		vneg.f32	s15, s15
 5310              	.LVL385:
 5311 02be 86E7     		b	.L380
 5312              	.L448:
 5313              		.align	2
 5314              	.L447:
 5315 02c0 00200140 		.word	1073815552
 5316 02c4 00210140 		.word	1073815808
 5317 02c8 00220140 		.word	1073816064
 5318 02cc 00000000 		.word	.LANCHOR1
 5319 02d0 00000000 		.word	ADC_Value
 5320 02d4 00000000 		.word	.LANCHOR51
 5321 02d8 00000000 		.word	.LANCHOR52
 5322 02dc 00000000 		.word	.LANCHOR53
 5323 02e0 00000000 		.word	.LANCHOR54
 5324 02e4 00000000 		.word	.LANCHOR55
 5325 02e8 00000000 		.word	.LANCHOR56
 5326 02ec 00000000 		.word	ADC_curr_norm_value
 5327 02f0 00000000 		.word	.LANCHOR2
 5328 02f4 00000000 		.word	.LANCHOR4
 5329 02f8 00000000 		.word	.LANCHOR3
 5330 02fc AD70243E 		.word	1042575533
 5331 0300 00000000 		.word	.LANCHOR40
 5332 0304 9A99993F 		.word	1067030938
 5333 0308 00000000 		.word	.LANCHOR68
 5334 030c 00000000 		.word	.LANCHOR69
 5335 0310 00000000 		.word	.LANCHOR50
 5336 0314 00000000 		.word	.LANCHOR41
 5337 0318 00000000 		.word	.LANCHOR70
 5338 031c 00000000 		.word	.LANCHOR60
 5339 0320 00000000 		.word	.LANCHOR61
 5340 0324 00000000 		.word	.LANCHOR62
 5341 0328 00000000 		.word	.LANCHOR34
 5342 032c 00000000 		.word	.LANCHOR63
 5343 0330 00000000 		.word	.LANCHOR64
 5344 0334 00000000 		.word	.LANCHOR57
 5345 0338 00000000 		.word	.LANCHOR0
 5346 033c CDCC4C3E 		.word	1045220557
 5347              	.LVL386:
 5348              	.L405:
 5349              	.LBE159:
 5350              		.loc 1 1697 0
 5351 0340 2378     		ldrb	r3, [r4]	@ zero_extendqisi2
 5352 0342 012B     		cmp	r3, #1
 5353 0344 7FF460AF 		bne	.L442
 5354              	.L407:
 5355              		.loc 1 1698 0
 5356 0348 0523     		movs	r3, #5
 5357              		.loc 1 1700 0
 5358 034a 1FED040A 		vldr.32	s0, .L447+124
ARM GAS  /tmp/cc6nscCq.s 			page 95


 5359              		.loc 1 1698 0
 5360 034e 3360     		str	r3, [r6]
 5361              		.loc 1 1700 0
 5362 0350 FFF7FEFF 		bl	set_duty_cycle_hw
 5363              	.LVL387:
 5364              		.loc 1 1702 0
 5365 0354 3C4B     		ldr	r3, .L449
 5366 0356 1A68     		ldr	r2, [r3]
 5367 0358 0132     		adds	r2, r2, #1
 5368 035a 1A60     		str	r2, [r3]
 5369              		.loc 1 1703 0
 5370 035c 1A68     		ldr	r2, [r3]
 5371 035e 052A     		cmp	r2, #5
 5372              		.loc 1 1704 0
 5373 0360 C4BF     		itt	gt
 5374 0362 0022     		movgt	r2, #0
 5375 0364 1A60     		strgt	r2, [r3]
 5376              		.loc 1 1707 0
 5377 0366 1B68     		ldr	r3, [r3]
 5378 0368 384A     		ldr	r2, .L449+4
 5379 036a 0133     		adds	r3, r3, #1
 5380 036c 1360     		str	r3, [r2]
 5381              		.loc 1 1709 0
 5382 036e 1068     		ldr	r0, [r2]
 5383 0370 FFF7FEFF 		bl	set_next_comm_step
 5384              	.LVL388:
 5385              		.loc 1 1710 0
 5386 0374 2021     		movs	r1, #32
 5387 0376 3648     		ldr	r0, .L449+8
 5388 0378 FFF7FEFF 		bl	TIM_GenerateEvent
 5389              	.LVL389:
 5390 037c 44E7     		b	.L442
 5391              	.L403:
 5392              	.LBB160:
 5393              		.loc 1 1680 0
 5394 037e B888     		ldrh	r0, [r7, #4]
 5395              	.L441:
 5396 0380 344F     		ldr	r7, .L449+12
 5397 0382 411A     		subs	r1, r0, r1
 5398 0384 07EE901A 		vmov	s15, r1	@ int
 5399 0388 1868     		ldr	r0, [r3]
 5400 038a F8EEE77A 		vcvt.f32.s32	s15, s15
 5401 038e 07EB8001 		add	r1, r7, r0, lsl #2
 5402 0392 C1ED007A 		vstr.32	s15, [r1]
 5403              	.L402:
 5404              		.loc 1 1687 0
 5405 0396 1868     		ldr	r0, [r3]
 5406 0398 2F49     		ldr	r1, .L449+16
 5407 039a 02EB8002 		add	r2, r2, r0, lsl #2
 5408 039e D2ED007A 		vldr.32	s15, [r2]
 5409 03a2 1868     		ldr	r0, [r3]
 5410              		.loc 1 1688 0
 5411 03a4 2D4A     		ldr	r2, .L449+20
 5412              		.loc 1 1687 0
 5413 03a6 01EB8001 		add	r1, r1, r0, lsl #2
 5414 03aa 91ED007A 		vldr.32	s14, [r1]
 5415 03ae 37EE277A 		vadd.f32	s14, s14, s15
ARM GAS  /tmp/cc6nscCq.s 			page 96


 5416              		.loc 1 1688 0
 5417 03b2 F7EE006A 		vmov.f32	s13, #1.0e+0
 5418              		.loc 1 1687 0
 5419 03b6 81ED007A 		vstr.32	s14, [r1]
 5420              		.loc 1 1688 0
 5421 03ba 1B68     		ldr	r3, [r3]
 5422 03bc 02EB8303 		add	r3, r2, r3, lsl #2
 5423 03c0 D3ED007A 		vldr.32	s15, [r3]
 5424 03c4 77EEA67A 		vadd.f32	s15, s15, s13
 5425 03c8 C3ED007A 		vstr.32	s15, [r3]
 5426              		.loc 1 1690 0
 5427 03cc FFF7FEFF 		bl	stop_pwm_hw
 5428              	.LVL390:
 5429 03d0 3368     		ldr	r3, [r6]
 5430 03d2 10E7     		b	.L396
 5431              	.L406:
 5432              	.LBE160:
 5433              		.loc 1 1697 0 discriminator 1
 5434 03d4 002B     		cmp	r3, #0
 5435 03d6 7FF417AF 		bne	.L442
 5436 03da B5E7     		b	.L407
 5437              	.LVL391:
 5438              	.L444:
 5439              	.LBB161:
 5440              		.loc 1 1585 0
 5441 03dc D7ED006A 		vldr.32	s13, [r7]	@ int
 5442              		.loc 1 1586 0
 5443 03e0 D7ED017A 		vldr.32	s15, [r7, #4]	@ int
 5444              		.loc 1 1587 0
 5445 03e4 97ED027A 		vldr.32	s14, [r7, #8]	@ int
 5446              		.loc 1 1586 0
 5447 03e8 F8EEE77A 		vcvt.f32.s32	s15, s15
 5448              		.loc 1 1585 0
 5449 03ec F8EEE66A 		vcvt.f32.s32	s13, s13
 5450              	.LVL392:
 5451              		.loc 1 1588 0
 5452 03f0 67EEA77A 		vmul.f32	s15, s15, s15
 5453              	.LVL393:
 5454              		.loc 1 1587 0
 5455 03f4 B8EEC77A 		vcvt.f32.s32	s14, s14
 5456              	.LVL394:
 5457              		.loc 1 1588 0
 5458 03f8 E6EEA67A 		vfma.f32	s15, s13, s13
 5459 03fc F7EE086A 		vmov.f32	s13, #1.5e+0
 5460              	.LVL395:
 5461 0400 E7EE077A 		vfma.f32	s15, s14, s14
 5462 0404 87EEA60A 		vdiv.f32	s0, s15, s13
 5463 0408 B5EE400A 		vcmp.f32	s0, #0
 5464 040c F1EE10FA 		vmrs	APSR_nzcv, FPSCR
 5465 0410 B1EEC08A 		vsqrt.f32	s16, s0
 5466 0414 7FF5EBAE 		bpl	.L378
 5467 0418 FFF7FEFF 		bl	sqrtf
 5468              	.LVL396:
 5469 041c E7E6     		b	.L378
 5470              	.LVL397:
 5471              	.L400:
 5472              	.LBE161:
ARM GAS  /tmp/cc6nscCq.s 			page 97


 5473              	.LBB162:
 5474              		.loc 1 1661 0
 5475 041e D2ED057A 		vldr.32	s15, [r2, #20]
 5476              	.LVL398:
 5477 0422 1868     		ldr	r0, [r3]
 5478              		.loc 1 1660 0
 5479 0424 0E49     		ldr	r1, .L449+24
 5480              		.loc 1 1661 0
 5481 0426 02EB8000 		add	r0, r2, r0, lsl #2
 5482 042a 90ED007A 		vldr.32	s14, [r0]
 5483              	.LVL399:
 5484              		.loc 1 1660 0
 5485 042e 1868     		ldr	r0, [r3]
 5486              		.loc 1 1661 0
 5487 0430 77EEC77A 		vsub.f32	s15, s15, s14
 5488              		.loc 1 1660 0
 5489 0434 01EB8001 		add	r1, r1, r0, lsl #2
 5490 0438 C1ED007A 		vstr.32	s15, [r1]
 5491 043c 18E7     		b	.L401
 5492              	.L404:
 5493              		.loc 1 1675 0
 5494 043e 7888     		ldrh	r0, [r7, #2]
 5495 0440 9EE7     		b	.L441
 5496              	.LVL400:
 5497              	.L414:
 5498              	.LBE162:
 5499              	.LBE163:
 5500              		.loc 1 1550 0
 5501 0442 DFED087A 		vldr.32	s15, .L449+28
 5502 0446 C2E6     		b	.L380
 5503              	.L450:
 5504              		.align	2
 5505              	.L449:
 5506 0448 00000000 		.word	.LANCHOR34
 5507 044c 00000000 		.word	.LANCHOR3
 5508 0450 00000140 		.word	1073807360
 5509 0454 00000000 		.word	.LANCHOR65
 5510 0458 00000000 		.word	.LANCHOR66
 5511 045c 00000000 		.word	.LANCHOR67
 5512 0460 00000000 		.word	.LANCHOR64
 5513 0464 00000000 		.word	0
 5514              		.cfi_endproc
 5515              	.LFE301:
 5516              		.size	mcpwm_adc_inj_int_handler, .-mcpwm_adc_inj_int_handler
 5517              		.section	.text.mcpwm_set_detect,"ax",%progbits
 5518              		.align	1
 5519              		.p2align 4,,15
 5520              		.global	mcpwm_set_detect
 5521              		.syntax unified
 5522              		.thumb
 5523              		.thumb_func
 5524              		.fpu fpv4-sp-d16
 5525              		.type	mcpwm_set_detect, %function
 5526              	mcpwm_set_detect:
 5527              	.LFB303:
 5528              		.loc 1 2108 0
 5529              		.cfi_startproc
ARM GAS  /tmp/cc6nscCq.s 			page 98


 5530              		@ args = 0, pretend = 0, frame = 0
 5531              		@ frame_needed = 0, uses_anonymous_args = 0
 5532 0000 F8B5     		push	{r3, r4, r5, r6, r7, lr}
 5533              		.cfi_def_cfa_offset 24
 5534              		.cfi_offset 3, -24
 5535              		.cfi_offset 4, -20
 5536              		.cfi_offset 5, -16
 5537              		.cfi_offset 6, -12
 5538              		.cfi_offset 7, -8
 5539              		.cfi_offset 14, -4
 5540              		.loc 1 2109 0
 5541 0002 FFF7FEFF 		bl	mc_interface_try_input
 5542              	.LVL401:
 5543 0006 00B1     		cbz	r0, .L456
 5544              		.loc 1 2125 0
 5545 0008 F8BD     		pop	{r3, r4, r5, r6, r7, pc}
 5546              	.L456:
 5547              		.loc 1 2113 0
 5548 000a 0F4B     		ldr	r3, .L457
 5549 000c 0F4F     		ldr	r7, .L457+4
 5550 000e 104E     		ldr	r6, .L457+8
 5551 0010 104D     		ldr	r5, .L457+12
 5552 0012 0A22     		movs	r2, #10
 5553 0014 1A70     		strb	r2, [r3]
 5554 0016 0446     		mov	r4, r0
 5555              		.loc 1 2114 0
 5556 0018 FFF7FEFF 		bl	stop_pwm_hw
 5557              	.LVL402:
 5558              		.loc 1 2116 0
 5559 001c 0E4B     		ldr	r3, .L457+16
 5560 001e 1B68     		ldr	r3, [r3]
 5561 0020 93ED690A 		vldr.32	s0, [r3, #420]
 5562 0024 FFF7FEFF 		bl	set_switching_frequency
 5563              	.LVL403:
 5564              	.LBB164:
 5565              		.loc 1 2119 0
 5566 0028 0022     		movs	r2, #0
 5567              	.LVL404:
 5568              	.L453:
 5569              		.loc 1 2119 0 is_stmt 0 discriminator 3
 5570 002a A300     		lsls	r3, r4, #2
 5571 002c F818     		adds	r0, r7, r3
 5572              		.loc 1 2120 0 is_stmt 1 discriminator 3
 5573 002e F118     		adds	r1, r6, r3
 5574              		.loc 1 2118 0 discriminator 3
 5575 0030 0134     		adds	r4, r4, #1
 5576              	.LVL405:
 5577              		.loc 1 2121 0 discriminator 3
 5578 0032 2B44     		add	r3, r3, r5
 5579              		.loc 1 2118 0 discriminator 3
 5580 0034 062C     		cmp	r4, #6
 5581              		.loc 1 2119 0 discriminator 3
 5582 0036 0260     		str	r2, [r0]	@ float
 5583              		.loc 1 2120 0 discriminator 3
 5584 0038 0A60     		str	r2, [r1]	@ float
 5585              		.loc 1 2121 0 discriminator 3
 5586 003a 1A60     		str	r2, [r3]	@ float
ARM GAS  /tmp/cc6nscCq.s 			page 99


 5587              		.loc 1 2118 0 discriminator 3
 5588 003c F5D1     		bne	.L453
 5589              	.LBE164:
 5590              		.loc 1 2124 0
 5591 003e 074B     		ldr	r3, .L457+20
 5592 0040 0122     		movs	r2, #1
 5593 0042 1A70     		strb	r2, [r3]
 5594              		.loc 1 2125 0
 5595 0044 F8BD     		pop	{r3, r4, r5, r6, r7, pc}
 5596              	.LVL406:
 5597              	.L458:
 5598 0046 00BF     		.align	2
 5599              	.L457:
 5600 0048 00000000 		.word	.LANCHOR39
 5601 004c 00000000 		.word	.LANCHOR63
 5602 0050 00000000 		.word	.LANCHOR66
 5603 0054 00000000 		.word	.LANCHOR67
 5604 0058 00000000 		.word	.LANCHOR0
 5605 005c 00000000 		.word	.LANCHOR2
 5606              		.cfi_endproc
 5607              	.LFE303:
 5608              		.size	mcpwm_set_detect, .-mcpwm_set_detect
 5609              		.section	.text.mcpwm_get_detect_pos,"ax",%progbits
 5610              		.align	1
 5611              		.p2align 4,,15
 5612              		.global	mcpwm_get_detect_pos
 5613              		.syntax unified
 5614              		.thumb
 5615              		.thumb_func
 5616              		.fpu fpv4-sp-d16
 5617              		.type	mcpwm_get_detect_pos, %function
 5618              	mcpwm_get_detect_pos:
 5619              	.LFB304:
 5620              		.loc 1 2127 0
 5621              		.cfi_startproc
 5622              		@ args = 0, pretend = 0, frame = 8
 5623              		@ frame_needed = 0, uses_anonymous_args = 0
 5624 0000 30B5     		push	{r4, r5, lr}
 5625              		.cfi_def_cfa_offset 12
 5626              		.cfi_offset 4, -12
 5627              		.cfi_offset 5, -8
 5628              		.cfi_offset 14, -4
 5629              		.loc 1 2129 0
 5630 0002 3F48     		ldr	r0, .L467
 5631 0004 3F4C     		ldr	r4, .L467+4
 5632 0006 94ED002A 		vldr.32	s4, [r4]
 5633 000a D0ED002A 		vldr.32	s5, [r0]
 5634              		.loc 1 2130 0
 5635 000e 94ED013A 		vldr.32	s6, [r4, #4]
 5636 0012 D0ED013A 		vldr.32	s7, [r0, #4]
 5637              		.loc 1 2131 0
 5638 0016 94ED024A 		vldr.32	s8, [r4, #8]
 5639 001a D0ED026A 		vldr.32	s13, [r0, #8]
 5640              		.loc 1 2132 0
 5641 001e D4ED034A 		vldr.32	s9, [r4, #12]
 5642 0022 90ED037A 		vldr.32	s14, [r0, #12]
 5643              		.loc 1 2133 0
ARM GAS  /tmp/cc6nscCq.s 			page 100


 5644 0026 94ED045A 		vldr.32	s10, [r4, #16]
 5645 002a D0ED047A 		vldr.32	s15, [r0, #16]
 5646              		.loc 1 2134 0
 5647 002e D4ED055A 		vldr.32	s11, [r4, #20]
 5648 0032 90ED056A 		vldr.32	s12, [r0, #20]
 5649              		.loc 1 2127 0
 5650 0036 2DED048B 		vpush.64	{d8, d9}
 5651              		.cfi_def_cfa_offset 28
 5652              		.cfi_offset 80, -28
 5653              		.cfi_offset 81, -24
 5654              		.cfi_offset 82, -20
 5655              		.cfi_offset 83, -16
 5656              		.loc 1 2131 0
 5657 003a 84EE268A 		vdiv.f32	s16, s8, s13
 5658              		.loc 1 2127 0
 5659 003e 83B0     		sub	sp, sp, #12
 5660              		.cfi_def_cfa_offset 40
 5661              	.LBB165:
 5662              		.loc 1 2137 0
 5663 0040 0021     		movs	r1, #0
 5664              		.loc 1 2136 0
 5665 0042 0022     		movs	r2, #0
 5666              	.LBE165:
 5667              		.loc 1 2132 0
 5668 0044 C4EE876A 		vdiv.f32	s13, s9, s14
 5669              		.loc 1 2129 0
 5670 0048 82EE229A 		vdiv.f32	s18, s4, s5
 5671              	.LVL407:
 5672              		.loc 1 2133 0
 5673 004c 85EE277A 		vdiv.f32	s14, s10, s15
 5674              		.loc 1 2130 0
 5675 0050 C3EE238A 		vdiv.f32	s17, s6, s7
 5676              	.LVL408:
 5677              		.loc 1 2134 0
 5678 0054 C5EE867A 		vdiv.f32	s15, s11, s12
 5679              	.LVL409:
 5680              	.L460:
 5681              	.LBB166:
 5682              		.loc 1 2137 0 discriminator 3
 5683 0058 9300     		lsls	r3, r2, #2
 5684 005a E518     		adds	r5, r4, r3
 5685              		.loc 1 2136 0 discriminator 3
 5686 005c 0132     		adds	r2, r2, #1
 5687              	.LVL410:
 5688              		.loc 1 2138 0 discriminator 3
 5689 005e 0344     		add	r3, r3, r0
 5690              		.loc 1 2136 0 discriminator 3
 5691 0060 062A     		cmp	r2, #6
 5692              		.loc 1 2137 0 discriminator 3
 5693 0062 2960     		str	r1, [r5]	@ float
 5694              		.loc 1 2138 0 discriminator 3
 5695 0064 1960     		str	r1, [r3]	@ float
 5696              		.loc 1 2136 0 discriminator 3
 5697 0066 F7D1     		bne	.L460
 5698              	.LBE166:
 5699              		.loc 1 2141 0
 5700 0068 39EE269A 		vadd.f32	s18, s18, s13
ARM GAS  /tmp/cc6nscCq.s 			page 101


 5701              	.LVL411:
 5702              		.loc 1 2142 0
 5703 006c 78EE878A 		vadd.f32	s17, s17, s14
 5704              	.LVL412:
 5705              		.loc 1 2143 0
 5706 0070 38EE278A 		vadd.f32	s16, s16, s15
 5707              	.LVL413:
 5708              		.loc 1 2145 0
 5709 0074 79EE287A 		vadd.f32	s15, s18, s17
 5710              	.LVL414:
 5711 0078 B0EE086A 		vmov.f32	s12, #3.0e+0
 5712              	.LVL415:
 5713 007c 77EE887A 		vadd.f32	s15, s15, s16
 5714              		.loc 1 2150 0
 5715 0080 F7EE086A 		vmov.f32	s13, #1.5e+0
 5716              	.LVL416:
 5717              		.loc 1 2145 0
 5718 0084 87EE867A 		vdiv.f32	s14, s15, s12
 5719              	.LVL417:
 5720              		.loc 1 2147 0
 5721 0088 78EEC78A 		vsub.f32	s17, s17, s14
 5722              	.LVL418:
 5723              		.loc 1 2146 0
 5724 008c 39EE479A 		vsub.f32	s18, s18, s14
 5725              	.LVL419:
 5726              		.loc 1 2150 0
 5727 0090 68EEA87A 		vmul.f32	s15, s17, s17
 5728              		.loc 1 2148 0
 5729 0094 38EE478A 		vsub.f32	s16, s16, s14
 5730              	.LVL420:
 5731              		.loc 1 2150 0
 5732 0098 E9EE097A 		vfma.f32	s15, s18, s18
 5733 009c E8EE087A 		vfma.f32	s15, s16, s16
 5734 00a0 87EEA60A 		vdiv.f32	s0, s15, s13
 5735 00a4 B5EE400A 		vcmp.f32	s0, #0
 5736 00a8 F1EE10FA 		vmrs	APSR_nzcv, FPSCR
 5737 00ac F1EEC09A 		vsqrt.f32	s19, s0
 5738 00b0 23D4     		bmi	.L466
 5739              	.LVL421:
 5740              	.L461:
 5741              		.loc 1 2156 0
 5742 00b2 89EE290A 		vdiv.f32	s0, s18, s19
 5743              	.LVL422:
 5744 00b6 FFF7FEFF 		bl	asinf
 5745              	.LVL423:
 5746              		.loc 1 2163 0
 5747 00ba 01A8     		add	r0, sp, #4
 5748              		.loc 1 2156 0
 5749 00bc DFED127A 		vldr.32	s15, .L467+8
 5750 00c0 DFED125A 		vldr.32	s11, .L467+12
 5751 00c4 20EE270A 		vmul.f32	s0, s0, s15
 5752              		.loc 1 2152 0
 5753 00c8 88EEA96A 		vdiv.f32	s12, s17, s19
 5754              	.LVL424:
 5755              		.loc 1 2153 0
 5756 00cc C8EE296A 		vdiv.f32	s13, s16, s19
 5757              	.LVL425:
ARM GAS  /tmp/cc6nscCq.s 			page 102


 5758              		.loc 1 2156 0
 5759 00d0 80EE257A 		vdiv.f32	s14, s0, s11
 5760              	.LVL426:
 5761              		.loc 1 2159 0
 5762 00d4 B4EEE66A 		vcmpe.f32	s12, s13
 5763 00d8 F1EE10FA 		vmrs	APSR_nzcv, FPSCR
 5764              		.loc 1 2160 0
 5765 00dc 4ABF     		itet	mi
 5766 00de 77EEC77A 		vsubmi.f32	s15, s15, s14
 5767              		.loc 1 2158 0
 5768 00e2 8DED017A 		vstrpl.32	s14, [sp, #4]
 5769              		.loc 1 2160 0
 5770 00e6 CDED017A 		vstrmi.32	s15, [sp, #4]
 5771              		.loc 1 2163 0
 5772 00ea FFF7FEFF 		bl	utils_norm_angle
 5773              	.LVL427:
 5774              		.loc 1 2166 0
 5775 00ee 9DED010A 		vldr.32	s0, [sp, #4]
 5776 00f2 03B0     		add	sp, sp, #12
 5777              		.cfi_remember_state
 5778              		.cfi_def_cfa_offset 28
 5779              		@ sp needed
 5780 00f4 BDEC048B 		vldm	sp!, {d8-d9}
 5781              		.cfi_restore 82
 5782              		.cfi_restore 83
 5783              		.cfi_restore 80
 5784              		.cfi_restore 81
 5785              		.cfi_def_cfa_offset 12
 5786              	.LVL428:
 5787 00f8 30BD     		pop	{r4, r5, pc}
 5788              	.LVL429:
 5789              	.L466:
 5790              		.cfi_restore_state
 5791              		.loc 1 2150 0
 5792 00fa FFF7FEFF 		bl	sqrtf
 5793              	.LVL430:
 5794 00fe D8E7     		b	.L461
 5795              	.L468:
 5796              		.align	2
 5797              	.L467:
 5798 0100 00000000 		.word	.LANCHOR67
 5799 0104 00000000 		.word	.LANCHOR66
 5800 0108 00003443 		.word	1127481344
 5801 010c DB0F4940 		.word	1078530011
 5802              		.cfi_endproc
 5803              	.LFE304:
 5804              		.size	mcpwm_get_detect_pos, .-mcpwm_get_detect_pos
 5805              		.section	.text.mcpwm_read_reset_avg_cycle_integrator,"ax",%progbits
 5806              		.align	1
 5807              		.p2align 4,,15
 5808              		.global	mcpwm_read_reset_avg_cycle_integrator
 5809              		.syntax unified
 5810              		.thumb
 5811              		.thumb_func
 5812              		.fpu fpv4-sp-d16
 5813              		.type	mcpwm_read_reset_avg_cycle_integrator, %function
 5814              	mcpwm_read_reset_avg_cycle_integrator:
ARM GAS  /tmp/cc6nscCq.s 			page 103


 5815              	.LFB305:
 5816              		.loc 1 2168 0
 5817              		.cfi_startproc
 5818              		@ args = 0, pretend = 0, frame = 0
 5819              		@ frame_needed = 0, uses_anonymous_args = 0
 5820              		@ link register save eliminated.
 5821              		.loc 1 2169 0
 5822 0000 0549     		ldr	r1, .L470
 5823 0002 064B     		ldr	r3, .L470+4
 5824 0004 91ED000A 		vldr.32	s0, [r1]
 5825 0008 D3ED007A 		vldr.32	s15, [r3]
 5826              	.LVL431:
 5827              		.loc 1 2170 0
 5828 000c 0022     		movs	r2, #0
 5829 000e 0A60     		str	r2, [r1]	@ float
 5830              		.loc 1 2173 0
 5831 0010 80EE270A 		vdiv.f32	s0, s0, s15
 5832              	.LVL432:
 5833              		.loc 1 2171 0
 5834 0014 1A60     		str	r2, [r3]	@ float
 5835              		.loc 1 2173 0
 5836 0016 7047     		bx	lr
 5837              	.L471:
 5838              		.align	2
 5839              	.L470:
 5840 0018 00000000 		.word	.LANCHOR44
 5841 001c 00000000 		.word	.LANCHOR45
 5842              		.cfi_endproc
 5843              	.LFE305:
 5844              		.size	mcpwm_read_reset_avg_cycle_integrator, .-mcpwm_read_reset_avg_cycle_integrator
 5845              		.section	.text.mcpwm_set_comm_mode,"ax",%progbits
 5846              		.align	1
 5847              		.p2align 4,,15
 5848              		.global	mcpwm_set_comm_mode
 5849              		.syntax unified
 5850              		.thumb
 5851              		.thumb_func
 5852              		.fpu fpv4-sp-d16
 5853              		.type	mcpwm_set_comm_mode, %function
 5854              	mcpwm_set_comm_mode:
 5855              	.LFB306:
 5856              		.loc 1 2184 0
 5857              		.cfi_startproc
 5858              		@ args = 0, pretend = 0, frame = 0
 5859              		@ frame_needed = 0, uses_anonymous_args = 0
 5860              		@ link register save eliminated.
 5861              	.LVL433:
 5862              		.loc 1 2185 0
 5863 0000 014B     		ldr	r3, .L473
 5864 0002 1B68     		ldr	r3, [r3]
 5865 0004 5870     		strb	r0, [r3, #1]
 5866              		.loc 1 2186 0
 5867 0006 7047     		bx	lr
 5868              	.L474:
 5869              		.align	2
 5870              	.L473:
 5871 0008 00000000 		.word	.LANCHOR0
ARM GAS  /tmp/cc6nscCq.s 			page 104


 5872              		.cfi_endproc
 5873              	.LFE306:
 5874              		.size	mcpwm_set_comm_mode, .-mcpwm_set_comm_mode
 5875              		.section	.text.mcpwm_get_comm_mode,"ax",%progbits
 5876              		.align	1
 5877              		.p2align 4,,15
 5878              		.global	mcpwm_get_comm_mode
 5879              		.syntax unified
 5880              		.thumb
 5881              		.thumb_func
 5882              		.fpu fpv4-sp-d16
 5883              		.type	mcpwm_get_comm_mode, %function
 5884              	mcpwm_get_comm_mode:
 5885              	.LFB307:
 5886              		.loc 1 2188 0
 5887              		.cfi_startproc
 5888              		@ args = 0, pretend = 0, frame = 0
 5889              		@ frame_needed = 0, uses_anonymous_args = 0
 5890              		@ link register save eliminated.
 5891              		.loc 1 2189 0
 5892 0000 014B     		ldr	r3, .L476
 5893 0002 1B68     		ldr	r3, [r3]
 5894 0004 5878     		ldrb	r0, [r3, #1]	@ zero_extendqisi2
 5895              		.loc 1 2190 0
 5896 0006 7047     		bx	lr
 5897              	.L477:
 5898              		.align	2
 5899              	.L476:
 5900 0008 00000000 		.word	.LANCHOR0
 5901              		.cfi_endproc
 5902              	.LFE307:
 5903              		.size	mcpwm_get_comm_mode, .-mcpwm_get_comm_mode
 5904              		.section	.text.mcpwm_get_last_adc_isr_duration,"ax",%progbits
 5905              		.align	1
 5906              		.p2align 4,,15
 5907              		.global	mcpwm_get_last_adc_isr_duration
 5908              		.syntax unified
 5909              		.thumb
 5910              		.thumb_func
 5911              		.fpu fpv4-sp-d16
 5912              		.type	mcpwm_get_last_adc_isr_duration, %function
 5913              	mcpwm_get_last_adc_isr_duration:
 5914              	.LFB308:
 5915              		.loc 1 2192 0
 5916              		.cfi_startproc
 5917              		@ args = 0, pretend = 0, frame = 0
 5918              		@ frame_needed = 0, uses_anonymous_args = 0
 5919              		@ link register save eliminated.
 5920              		.loc 1 2193 0
 5921 0000 014B     		ldr	r3, .L479
 5922 0002 93ED000A 		vldr.32	s0, [r3]
 5923              		.loc 1 2194 0
 5924 0006 7047     		bx	lr
 5925              	.L480:
 5926              		.align	2
 5927              	.L479:
 5928 0008 00000000 		.word	.LANCHOR71
ARM GAS  /tmp/cc6nscCq.s 			page 105


 5929              		.cfi_endproc
 5930              	.LFE308:
 5931              		.size	mcpwm_get_last_adc_isr_duration, .-mcpwm_get_last_adc_isr_duration
 5932              		.section	.text.mcpwm_get_last_inj_adc_isr_duration,"ax",%progbits
 5933              		.align	1
 5934              		.p2align 4,,15
 5935              		.global	mcpwm_get_last_inj_adc_isr_duration
 5936              		.syntax unified
 5937              		.thumb
 5938              		.thumb_func
 5939              		.fpu fpv4-sp-d16
 5940              		.type	mcpwm_get_last_inj_adc_isr_duration, %function
 5941              	mcpwm_get_last_inj_adc_isr_duration:
 5942              	.LFB309:
 5943              		.loc 1 2196 0
 5944              		.cfi_startproc
 5945              		@ args = 0, pretend = 0, frame = 0
 5946              		@ frame_needed = 0, uses_anonymous_args = 0
 5947              		@ link register save eliminated.
 5948              		.loc 1 2197 0
 5949 0000 014B     		ldr	r3, .L482
 5950 0002 93ED000A 		vldr.32	s0, [r3]
 5951              		.loc 1 2198 0
 5952 0006 7047     		bx	lr
 5953              	.L483:
 5954              		.align	2
 5955              	.L482:
 5956 0008 00000000 		.word	.LANCHOR70
 5957              		.cfi_endproc
 5958              	.LFE309:
 5959              		.size	mcpwm_get_last_inj_adc_isr_duration, .-mcpwm_get_last_inj_adc_isr_duration
 5960              		.section	.text.mcpwm_get_rpm_dep,"ax",%progbits
 5961              		.align	1
 5962              		.p2align 4,,15
 5963              		.global	mcpwm_get_rpm_dep
 5964              		.syntax unified
 5965              		.thumb
 5966              		.thumb_func
 5967              		.fpu fpv4-sp-d16
 5968              		.type	mcpwm_get_rpm_dep, %function
 5969              	mcpwm_get_rpm_dep:
 5970              	.LFB310:
 5971              		.loc 1 2200 0
 5972              		.cfi_startproc
 5973              		@ args = 0, pretend = 0, frame = 0
 5974              		@ frame_needed = 0, uses_anonymous_args = 0
 5975              		@ link register save eliminated.
 5976              	.LVL434:
 5977 0000 70B4     		push	{r4, r5, r6}
 5978              		.cfi_def_cfa_offset 12
 5979              		.cfi_offset 4, -12
 5980              		.cfi_offset 5, -8
 5981              		.cfi_offset 6, -4
 5982              		.loc 1 2201 0
 5983 0002 064D     		ldr	r5, .L486
 5984              		.loc 1 2200 0
 5985 0004 0646     		mov	r6, r0
ARM GAS  /tmp/cc6nscCq.s 			page 106


 5986              		.loc 1 2201 0
 5987 0006 0FCD     		ldmia	r5!, {r0, r1, r2, r3}
 5988              	.LVL435:
 5989 0008 3446     		mov	r4, r6
 5990 000a 0FC4     		stmia	r4!, {r0, r1, r2, r3}
 5991 000c 95E80700 		ldm	r5, {r0, r1, r2}
 5992 0010 84E80700 		stm	r4, {r0, r1, r2}
 5993              		.loc 1 2202 0
 5994 0014 3046     		mov	r0, r6
 5995 0016 70BC     		pop	{r4, r5, r6}
 5996              		.cfi_restore 6
 5997              		.cfi_restore 5
 5998              		.cfi_restore 4
 5999              		.cfi_def_cfa_offset 0
 6000              	.LVL436:
 6001 0018 7047     		bx	lr
 6002              	.L487:
 6003 001a 00BF     		.align	2
 6004              	.L486:
 6005 001c 00000000 		.word	.LANCHOR8
 6006              		.cfi_endproc
 6007              	.LFE310:
 6008              		.size	mcpwm_get_rpm_dep, .-mcpwm_get_rpm_dep
 6009              		.section	.text.mcpwm_is_dccal_done,"ax",%progbits
 6010              		.align	1
 6011              		.p2align 4,,15
 6012              		.global	mcpwm_is_dccal_done
 6013              		.syntax unified
 6014              		.thumb
 6015              		.thumb_func
 6016              		.fpu fpv4-sp-d16
 6017              		.type	mcpwm_is_dccal_done, %function
 6018              	mcpwm_is_dccal_done:
 6019              	.LFB311:
 6020              		.loc 1 2204 0
 6021              		.cfi_startproc
 6022              		@ args = 0, pretend = 0, frame = 0
 6023              		@ frame_needed = 0, uses_anonymous_args = 0
 6024              		@ link register save eliminated.
 6025              		.loc 1 2205 0
 6026 0000 014B     		ldr	r3, .L489
 6027 0002 1878     		ldrb	r0, [r3]	@ zero_extendqisi2
 6028              		.loc 1 2206 0
 6029 0004 7047     		bx	lr
 6030              	.L490:
 6031 0006 00BF     		.align	2
 6032              	.L489:
 6033 0008 00000000 		.word	.LANCHOR46
 6034              		.cfi_endproc
 6035              	.LFE311:
 6036              		.size	mcpwm_is_dccal_done, .-mcpwm_is_dccal_done
 6037              		.section	.text.mcpwm_switch_comm_mode,"ax",%progbits
 6038              		.align	1
 6039              		.p2align 4,,15
 6040              		.global	mcpwm_switch_comm_mode
 6041              		.syntax unified
 6042              		.thumb
ARM GAS  /tmp/cc6nscCq.s 			page 107


 6043              		.thumb_func
 6044              		.fpu fpv4-sp-d16
 6045              		.type	mcpwm_switch_comm_mode, %function
 6046              	mcpwm_switch_comm_mode:
 6047              	.LFB312:
 6048              		.loc 1 2208 0
 6049              		.cfi_startproc
 6050              		@ args = 0, pretend = 0, frame = 0
 6051              		@ frame_needed = 0, uses_anonymous_args = 0
 6052              		@ link register save eliminated.
 6053              	.LVL437:
 6054              		.loc 1 2209 0
 6055 0000 014B     		ldr	r3, .L492
 6056 0002 1870     		strb	r0, [r3]
 6057              		.loc 1 2210 0
 6058 0004 7047     		bx	lr
 6059              	.L493:
 6060 0006 00BF     		.align	2
 6061              	.L492:
 6062 0008 00000000 		.word	.LANCHOR29
 6063              		.cfi_endproc
 6064              	.LFE312:
 6065              		.size	mcpwm_switch_comm_mode, .-mcpwm_switch_comm_mode
 6066              		.section	.text.mcpwm_reset_hall_detect_table,"ax",%progbits
 6067              		.align	1
 6068              		.p2align 4,,15
 6069              		.global	mcpwm_reset_hall_detect_table
 6070              		.syntax unified
 6071              		.thumb
 6072              		.thumb_func
 6073              		.fpu fpv4-sp-d16
 6074              		.type	mcpwm_reset_hall_detect_table, %function
 6075              	mcpwm_reset_hall_detect_table:
 6076              	.LFB313:
 6077              		.loc 1 2215 0
 6078              		.cfi_startproc
 6079              		@ args = 0, pretend = 0, frame = 0
 6080              		@ frame_needed = 0, uses_anonymous_args = 0
 6081              		@ link register save eliminated.
 6082              		.loc 1 2216 0
 6083 0000 E022     		movs	r2, #224
 6084 0002 0021     		movs	r1, #0
 6085 0004 0148     		ldr	r0, .L495
 6086 0006 FFF7FEBF 		b	memset
 6087              	.LVL438:
 6088              	.L496:
 6089 000a 00BF     		.align	2
 6090              	.L495:
 6091 000c 00000000 		.word	.LANCHOR47
 6092              		.cfi_endproc
 6093              	.LFE313:
 6094              		.size	mcpwm_reset_hall_detect_table, .-mcpwm_reset_hall_detect_table
 6095              		.section	.text.mcpwm_get_hall_detect_result,"ax",%progbits
 6096              		.align	1
 6097              		.p2align 4,,15
 6098              		.global	mcpwm_get_hall_detect_result
 6099              		.syntax unified
ARM GAS  /tmp/cc6nscCq.s 			page 108


 6100              		.thumb
 6101              		.thumb_func
 6102              		.fpu fpv4-sp-d16
 6103              		.type	mcpwm_get_hall_detect_result, %function
 6104              	mcpwm_get_hall_detect_result:
 6105              	.LFB314:
 6106              		.loc 1 2231 0
 6107              		.cfi_startproc
 6108              		@ args = 0, pretend = 0, frame = 32
 6109              		@ frame_needed = 0, uses_anonymous_args = 0
 6110              	.LVL439:
 6111              		.loc 1 2234 0
 6112 0000 2B4B     		ldr	r3, .L516
 6113 0002 1B68     		ldr	r3, [r3]
 6114 0004 93F89831 		ldrb	r3, [r3, #408]	@ zero_extendqisi2
 6115 0008 002B     		cmp	r3, #0
 6116 000a 4DD1     		bne	.L506
 6117              		.loc 1 2231 0
 6118 000c F0B5     		push	{r4, r5, r6, r7, lr}
 6119              		.cfi_def_cfa_offset 20
 6120              		.cfi_offset 4, -20
 6121              		.cfi_offset 5, -16
 6122              		.cfi_offset 6, -12
 6123              		.cfi_offset 7, -8
 6124              		.cfi_offset 14, -4
 6125 000e 294E     		ldr	r6, .L516+4
 6126 0010 89B0     		sub	sp, sp, #36
 6127              		.cfi_def_cfa_offset 56
 6128 0012 03F0FF0E 		and	lr, r3, #255
 6129              		.loc 1 2234 0
 6130 0016 0746     		mov	r7, r0
 6131              	.L499:
 6132              	.LVL440:
 6133              	.LBB167:
 6134              	.LBB168:
 6135              	.LBB169:
 6136              		.loc 1 2241 0
 6137 0018 0123     		movs	r3, #1
 6138              	.LBE169:
 6139              		.loc 1 2240 0
 6140 001a 4FF0FF34 		mov	r4, #-1
 6141              		.loc 1 2239 0
 6142 001e 0021     		movs	r1, #0
 6143              	.LBB170:
 6144              		.loc 1 2242 0
 6145 0020 CEEBCE0C 		rsb	ip, lr, lr, lsl #3
 6146              	.LVL441:
 6147              	.L501:
 6148 0024 0CEB0302 		add	r2, ip, r3
 6149 0028 56F82250 		ldr	r5, [r6, r2, lsl #2]
 6150 002c 8D42     		cmp	r5, r1
 6151 002e 04DD     		ble	.L500
 6152              		.loc 1 2243 0
 6153 0030 56F82210 		ldr	r1, [r6, r2, lsl #2]
 6154              	.LVL442:
 6155 0034 0F29     		cmp	r1, #15
 6156 0036 C8BF     		it	gt
ARM GAS  /tmp/cc6nscCq.s 			page 109


 6157 0038 1C46     		movgt	r4, r3
 6158              	.LVL443:
 6159              	.L500:
 6160              		.loc 1 2241 0 discriminator 2
 6161 003a 0133     		adds	r3, r3, #1
 6162              	.LVL444:
 6163 003c 072B     		cmp	r3, #7
 6164              		.loc 1 2248 0 discriminator 2
 6165 003e 3C70     		strb	r4, [r7]
 6166              		.loc 1 2241 0 discriminator 2
 6167 0040 F0D1     		bne	.L501
 6168              	.LBE170:
 6169              	.LBE168:
 6170              		.loc 1 2238 0 discriminator 2
 6171 0042 0EF1010E 		add	lr, lr, #1
 6172              	.LVL445:
 6173 0046 BEF1080F 		cmp	lr, #8
 6174 004a 07F10107 		add	r7, r7, #1
 6175 004e E3D1     		bne	.L499
 6176              	.LVL446:
 6177              	.LBE167:
 6178              		.loc 1 2253 0
 6179 0050 0023     		movs	r3, #0
 6180              	.LVL447:
 6181              		.loc 1 2254 0
 6182 0052 1C46     		mov	r4, r3
 6183              	.LVL448:
 6184              		.loc 1 2253 0
 6185 0054 0193     		str	r3, [sp, #4]
 6186              		.loc 1 2252 0
 6187 0056 1D46     		mov	r5, r3
 6188              		.loc 1 2253 0
 6189 0058 CDE90233 		strd	r3, r3, [sp, #8]
 6190 005c CDE90433 		strd	r3, r3, [sp, #16]
 6191 0060 CDE90633 		strd	r3, r3, [sp, #24]
 6192              	.LVL449:
 6193              	.LBB171:
 6194              		.loc 1 2260 0
 6195 0064 0126     		movs	r6, #1
 6196 0066 431E     		subs	r3, r0, #1
 6197 0068 0730     		adds	r0, r0, #7
 6198              	.LVL450:
 6199 006a 07E0     		b	.L505
 6200              	.LVL451:
 6201              	.L503:
 6202              		.loc 1 2259 0
 6203 006c 51F81C2C 		ldr	r2, [r1, #-28]
 6204 0070 12B9     		cbnz	r2, .L504
 6205              		.loc 1 2260 0
 6206 0072 41F81C6C 		str	r6, [r1, #-28]
 6207              		.loc 1 2261 0
 6208 0076 0134     		adds	r4, r4, #1
 6209              	.LVL452:
 6210              	.L504:
 6211              		.loc 1 2255 0 discriminator 2
 6212 0078 9842     		cmp	r0, r3
 6213 007a 0AD0     		beq	.L515
ARM GAS  /tmp/cc6nscCq.s 			page 110


 6214              	.LVL453:
 6215              	.L505:
 6216              		.loc 1 2256 0
 6217 007c 13F9012F 		ldrsb	r2, [r3, #1]!
 6218              	.LVL454:
 6219              		.loc 1 2259 0
 6220 0080 08A9     		add	r1, sp, #32
 6221 0082 01EB8201 		add	r1, r1, r2, lsl #2
 6222              		.loc 1 2256 0
 6223 0086 0132     		adds	r2, r2, #1
 6224 0088 F0D1     		bne	.L503
 6225              		.loc 1 2255 0
 6226 008a 9842     		cmp	r0, r3
 6227              		.loc 1 2257 0
 6228 008c 05F10105 		add	r5, r5, #1
 6229              	.LVL455:
 6230              		.loc 1 2255 0
 6231 0090 F4D1     		bne	.L505
 6232              	.LVL456:
 6233              	.L515:
 6234              	.LBE171:
 6235              		.loc 1 2266 0
 6236 0092 022D     		cmp	r5, #2
 6237 0094 05D1     		bne	.L508
 6238              		.loc 1 2266 0 is_stmt 0 discriminator 1
 6239 0096 A01F     		subs	r0, r4, #6
 6240              	.LVL457:
 6241 0098 18BF     		it	ne
 6242 009a 4FF0FF30 		movne	r0, #-1
 6243              	.L497:
 6244              		.loc 1 2271 0 is_stmt 1
 6245 009e 09B0     		add	sp, sp, #36
 6246              		.cfi_remember_state
 6247              		.cfi_def_cfa_offset 20
 6248              		@ sp needed
 6249 00a0 F0BD     		pop	{r4, r5, r6, r7, pc}
 6250              	.LVL458:
 6251              	.L508:
 6252              		.cfi_restore_state
 6253              		.loc 1 2269 0
 6254 00a2 4FF0FF30 		mov	r0, #-1
 6255 00a6 FAE7     		b	.L497
 6256              	.LVL459:
 6257              	.L506:
 6258              		.cfi_def_cfa_offset 0
 6259              		.cfi_restore 4
 6260              		.cfi_restore 5
 6261              		.cfi_restore 6
 6262              		.cfi_restore 7
 6263              		.cfi_restore 14
 6264              		.loc 1 2235 0
 6265 00a8 6FF00200 		mvn	r0, #2
 6266              	.LVL460:
 6267              		.loc 1 2271 0
 6268 00ac 7047     		bx	lr
 6269              	.L517:
 6270 00ae 00BF     		.align	2
ARM GAS  /tmp/cc6nscCq.s 			page 111


 6271              	.L516:
 6272 00b0 00000000 		.word	.LANCHOR0
 6273 00b4 00000000 		.word	.LANCHOR47
 6274              		.cfi_endproc
 6275              	.LFE314:
 6276              		.size	mcpwm_get_hall_detect_result, .-mcpwm_get_hall_detect_result
 6277              		.section	.text.mcpwm_read_hall_phase,"ax",%progbits
 6278              		.align	1
 6279              		.p2align 4,,15
 6280              		.global	mcpwm_read_hall_phase
 6281              		.syntax unified
 6282              		.thumb
 6283              		.thumb_func
 6284              		.fpu fpv4-sp-d16
 6285              		.type	mcpwm_read_hall_phase, %function
 6286              	mcpwm_read_hall_phase:
 6287              	.LFB315:
 6288              		.loc 1 2278 0
 6289              		.cfi_startproc
 6290              		@ args = 0, pretend = 0, frame = 0
 6291              		@ frame_needed = 0, uses_anonymous_args = 0
 6292              		@ link register save eliminated.
 6293              	.LBB172:
 6294              	.LBB173:
 6295              		.loc 1 2283 0
 6296 0000 0A4A     		ldr	r2, .L523
 6297              	.LBE173:
 6298              	.LBE172:
 6299              		.loc 1 2279 0
 6300 0002 0B48     		ldr	r0, .L523+4
 6301              	.LBB176:
 6302              	.LBB174:
 6303              		.loc 1 2283 0
 6304 0004 1169     		ldr	r1, [r2, #16]
 6305 0006 1369     		ldr	r3, [r2, #16]
 6306 0008 1269     		ldr	r2, [r2, #16]
 6307              	.LBE174:
 6308              	.LBE176:
 6309              		.loc 1 2279 0
 6310 000a 0068     		ldr	r0, [r0]
 6311              	.LBB177:
 6312              	.LBB175:
 6313              		.loc 1 2283 0
 6314 000c 9B09     		lsrs	r3, r3, #6
 6315 000e 9209     		lsrs	r2, r2, #6
 6316 0010 03F00203 		and	r3, r3, #2
 6317 0014 02F00402 		and	r2, r2, #4
 6318 0018 C1F38011 		ubfx	r1, r1, #6, #1
 6319 001c 1343     		orrs	r3, r3, r2
 6320 001e 0B43     		orrs	r3, r3, r1
 6321              	.LBE175:
 6322              	.LBE177:
 6323              		.loc 1 2279 0
 6324 0020 00B1     		cbz	r0, .L519
 6325 0022 0833     		adds	r3, r3, #8
 6326              	.L519:
 6327              		.loc 1 2279 0 is_stmt 0 discriminator 4
ARM GAS  /tmp/cc6nscCq.s 			page 112


 6328 0024 034A     		ldr	r2, .L523+8
 6329              		.loc 1 2280 0 is_stmt 1 discriminator 4
 6330 0026 52F82300 		ldr	r0, [r2, r3, lsl #2]
 6331 002a 7047     		bx	lr
 6332              	.L524:
 6333              		.align	2
 6334              	.L523:
 6335 002c 00080240 		.word	1073874944
 6336 0030 00000000 		.word	.LANCHOR4
 6337 0034 00000000 		.word	.LANCHOR33
 6338              		.cfi_endproc
 6339              	.LFE315:
 6340              		.size	mcpwm_read_hall_phase, .-mcpwm_read_hall_phase
 6341              		.section	.text.set_duty_cycle_ll,"ax",%progbits
 6342              		.align	1
 6343              		.p2align 4,,15
 6344              		.syntax unified
 6345              		.thumb
 6346              		.thumb_func
 6347              		.fpu fpv4-sp-d16
 6348              		.type	set_duty_cycle_ll, %function
 6349              	set_duty_cycle_ll:
 6350              	.LFB295:
 6351              		.loc 1 1021 0
 6352              		.cfi_startproc
 6353              		@ args = 0, pretend = 0, frame = 0
 6354              		@ frame_needed = 0, uses_anonymous_args = 0
 6355              	.LVL461:
 6356 0000 38B5     		push	{r3, r4, r5, lr}
 6357              		.cfi_def_cfa_offset 16
 6358              		.cfi_offset 3, -16
 6359              		.cfi_offset 4, -12
 6360              		.cfi_offset 5, -8
 6361              		.cfi_offset 14, -4
 6362              		.loc 1 1022 0
 6363 0002 5F4D     		ldr	r5, .L577
 6364 0004 2B68     		ldr	r3, [r5]
 6365 0006 D3ED157A 		vldr.32	s15, [r3, #84]
 6366 000a F4EEC07A 		vcmpe.f32	s15, s0
 6367 000e F1EE10FA 		vmrs	APSR_nzcv, FPSCR
 6368 0012 22D8     		bhi	.L567
 6369              		.loc 1 1023 0
 6370 0014 5B4A     		ldr	r2, .L577+4
 6371 0016 0121     		movs	r1, #1
 6372 0018 1160     		str	r1, [r2]
 6373              	.L528:
 6374              		.loc 1 1029 0
 6375 001a D3ED157A 		vldr.32	s15, [r3, #84]
 6376 001e F4EEC07A 		vcmpe.f32	s15, s0
 6377 0022 F1EE10FA 		vmrs	APSR_nzcv, FPSCR
 6378 0026 2DDD     		ble	.L568
 6379              	.L575:
 6380              	.LBB178:
 6381              		.loc 1 1032 0
 6382 0028 574A     		ldr	r2, .L577+8
 6383 002a 1178     		ldrb	r1, [r2]	@ zero_extendqisi2
 6384 002c 0229     		cmp	r1, #2
ARM GAS  /tmp/cc6nscCq.s 			page 113


 6385 002e 63D0     		beq	.L532
 6386              		.loc 1 1033 0 discriminator 1
 6387 0030 1178     		ldrb	r1, [r2]	@ zero_extendqisi2
 6388              		.loc 1 1032 0 discriminator 1
 6389 0032 0329     		cmp	r1, #3
 6390 0034 60D0     		beq	.L532
 6391              		.loc 1 1034 0
 6392 0036 1278     		ldrb	r2, [r2]	@ zero_extendqisi2
 6393              		.loc 1 1033 0
 6394 0038 012A     		cmp	r2, #1
 6395 003a 5DD0     		beq	.L532
 6396              		.loc 1 1043 0
 6397 003c 534C     		ldr	r4, .L577+12
 6398              		.loc 1 1040 0
 6399 003e D3ED097A 		vldr.32	s15, [r3, #36]
 6400              	.LVL462:
 6401              		.loc 1 1043 0
 6402 0042 2278     		ldrb	r2, [r4]	@ zero_extendqisi2
 6403 0044 D2B2     		uxtb	r2, r2
 6404 0046 012A     		cmp	r2, #1
 6405 0048 5DD1     		bne	.L574
 6406              	.L536:
 6407              	.LBB179:
 6408              	.LBB180:
 6409              		.loc 1 906 0
 6410 004a 514A     		ldr	r2, .L577+16
 6411              		.loc 1 905 0
 6412 004c 0023     		movs	r3, #0
 6413 004e 2370     		strb	r3, [r4]
 6414              		.loc 1 906 0
 6415 0050 1360     		str	r3, [r2]
 6416              	.LBE180:
 6417              	.LBE179:
 6418              	.LBE178:
 6419              		.loc 1 1097 0
 6420 0052 BDE83840 		pop	{r3, r4, r5, lr}
 6421              		.cfi_remember_state
 6422              		.cfi_restore 14
 6423              		.cfi_restore 5
 6424              		.cfi_restore 4
 6425              		.cfi_restore 3
 6426              		.cfi_def_cfa_offset 0
 6427              	.LBB187:
 6428              	.LBB182:
 6429              	.LBB181:
 6430              		.loc 1 907 0
 6431 0056 FFF7FEBF 		b	stop_pwm_hw
 6432              	.LVL463:
 6433              	.L567:
 6434              		.cfi_restore_state
 6435              	.LBE181:
 6436              	.LBE182:
 6437              	.LBE187:
 6438              		.loc 1 1024 0
 6439 005a D3ED157A 		vldr.32	s15, [r3, #84]
 6440 005e F1EE677A 		vneg.f32	s15, s15
 6441 0062 F4EEC07A 		vcmpe.f32	s15, s0
ARM GAS  /tmp/cc6nscCq.s 			page 114


 6442 0066 F1EE10FA 		vmrs	APSR_nzcv, FPSCR
 6443 006a D6DB     		blt	.L528
 6444              		.loc 1 1026 0
 6445 006c 454A     		ldr	r2, .L577+4
 6446 006e 0021     		movs	r1, #0
 6447 0070 1160     		str	r1, [r2]
 6448              		.loc 1 1029 0
 6449 0072 D3ED157A 		vldr.32	s15, [r3, #84]
 6450              		.loc 1 1025 0
 6451 0076 B1EE400A 		vneg.f32	s0, s0
 6452              	.LVL464:
 6453              		.loc 1 1029 0
 6454 007a F4EEC07A 		vcmpe.f32	s15, s0
 6455 007e F1EE10FA 		vmrs	APSR_nzcv, FPSCR
 6456 0082 D1DC     		bgt	.L575
 6457              	.L568:
 6458              		.loc 1 1062 0
 6459 0084 D3ED167A 		vldr.32	s15, [r3, #88]
 6460 0088 404C     		ldr	r4, .L577+12
 6461 008a F4EEC07A 		vcmpe.f32	s15, s0
 6462 008e F1EE10FA 		vmrs	APSR_nzcv, FPSCR
 6463              		.loc 1 1063 0
 6464 0092 48BF     		it	mi
 6465 0094 93ED160A 		vldrmi.32	s0, [r3, #88]
 6466              	.LVL465:
 6467              	.L540:
 6468              		.loc 1 1066 0
 6469 0098 FFF7FEFF 		bl	set_duty_cycle_hw
 6470              	.LVL466:
 6471              		.loc 1 1068 0
 6472 009c 2B68     		ldr	r3, [r5]
 6473 009e 9D78     		ldrb	r5, [r3, #2]	@ zero_extendqisi2
 6474 00a0 EDB2     		uxtb	r5, r5
 6475 00a2 012D     		cmp	r5, #1
 6476 00a4 3ED0     		beq	.L576
 6477              		.loc 1 1073 0
 6478 00a6 3B4A     		ldr	r2, .L577+20
 6479 00a8 1278     		ldrb	r2, [r2]	@ zero_extendqisi2
 6480 00aa A2B1     		cbz	r2, .L543
 6481              		.loc 1 1074 0
 6482 00ac 2278     		ldrb	r2, [r4]	@ zero_extendqisi2
 6483 00ae 022A     		cmp	r2, #2
 6484 00b0 10D0     		beq	.L525
 6485              		.loc 1 1075 0
 6486 00b2 2278     		ldrb	r2, [r4]	@ zero_extendqisi2
 6487 00b4 002A     		cmp	r2, #0
 6488 00b6 39D1     		bne	.L545
 6489              		.loc 1 1076 0
 6490 00b8 0221     		movs	r1, #2
 6491              		.loc 1 1078 0
 6492 00ba 374A     		ldr	r2, .L577+24
 6493              		.loc 1 1076 0
 6494 00bc 2170     		strb	r1, [r4]
 6495              		.loc 1 1078 0
 6496 00be D2ED007A 		vldr.32	s15, [r2]
 6497 00c2 93ED217A 		vldr.32	s14, [r3, #132]
 6498 00c6 F0EEE77A 		vabs.f32	s15, s15
ARM GAS  /tmp/cc6nscCq.s 			page 115


 6499 00ca F4EEC77A 		vcmpe.f32	s15, s14
 6500 00ce F1EE10FA 		vmrs	APSR_nzcv, FPSCR
 6501 00d2 0CD4     		bmi	.L573
 6502              	.L525:
 6503              		.loc 1 1097 0
 6504 00d4 38BD     		pop	{r3, r4, r5, pc}
 6505              	.L543:
 6506              		.loc 1 1089 0
 6507 00d6 2378     		ldrb	r3, [r4]	@ zero_extendqisi2
 6508 00d8 022B     		cmp	r3, #2
 6509 00da FBD0     		beq	.L525
 6510              		.loc 1 1090 0
 6511 00dc 0223     		movs	r3, #2
 6512 00de 2370     		strb	r3, [r4]
 6513              		.loc 1 1091 0
 6514 00e0 FFF7FEFF 		bl	mcpwm_read_hall_phase
 6515              	.LVL467:
 6516 00e4 2D4B     		ldr	r3, .L577+28
 6517 00e6 1860     		str	r0, [r3]
 6518              	.L572:
 6519              		.loc 1 1092 0
 6520 00e8 1868     		ldr	r0, [r3]
 6521 00ea FFF7FEFF 		bl	set_next_comm_step
 6522              	.LVL468:
 6523              	.L573:
 6524              		.loc 1 1093 0
 6525 00ee 0120     		movs	r0, #1
 6526              		.loc 1 1097 0
 6527 00f0 BDE83840 		pop	{r3, r4, r5, lr}
 6528              		.cfi_remember_state
 6529              		.cfi_restore 14
 6530              		.cfi_restore 5
 6531              		.cfi_restore 4
 6532              		.cfi_restore 3
 6533              		.cfi_def_cfa_offset 0
 6534              		.loc 1 1093 0
 6535 00f4 FFF7FEBF 		b	commutate
 6536              	.LVL469:
 6537              	.L532:
 6538              		.cfi_restore_state
 6539              	.LBB188:
 6540              		.loc 1 1043 0
 6541 00f8 244C     		ldr	r4, .L577+12
 6542              		.loc 1 1038 0
 6543 00fa D3ED0A7A 		vldr.32	s15, [r3, #40]
 6544              	.LVL470:
 6545              		.loc 1 1043 0
 6546 00fe 2278     		ldrb	r2, [r4]	@ zero_extendqisi2
 6547 0100 D2B2     		uxtb	r2, r2
 6548 0102 012A     		cmp	r2, #1
 6549 0104 A1D0     		beq	.L536
 6550              	.L574:
 6551 0106 022A     		cmp	r2, #2
 6552 0108 E4D1     		bne	.L525
 6553              		.loc 1 1046 0
 6554 010a 234A     		ldr	r2, .L577+24
 6555 010c 92ED007A 		vldr.32	s14, [r2]
ARM GAS  /tmp/cc6nscCq.s 			page 116


 6556 0110 B0EEC77A 		vabs.f32	s14, s14
 6557 0114 B4EEE77A 		vcmpe.f32	s14, s15
 6558 0118 F1EE10FA 		vmrs	APSR_nzcv, FPSCR
 6559 011c 26DD     		ble	.L569
 6560              		.loc 1 1047 0
 6561 011e 93ED150A 		vldr.32	s0, [r3, #84]
 6562              	.LVL471:
 6563              		.loc 1 1052 0
 6564 0122 B9E7     		b	.L540
 6565              	.LVL472:
 6566              	.L576:
 6567              	.LBE188:
 6568              		.loc 1 1069 0
 6569 0124 0222     		movs	r2, #2
 6570              		.loc 1 1070 0
 6571 0126 1D4B     		ldr	r3, .L577+28
 6572              		.loc 1 1069 0
 6573 0128 2270     		strb	r2, [r4]
 6574 012a DDE7     		b	.L572
 6575              	.L545:
 6576              		.loc 1 1081 0
 6577 012c 2278     		ldrb	r2, [r4]	@ zero_extendqisi2
 6578 012e 032A     		cmp	r2, #3
 6579 0130 D0D1     		bne	.L525
 6580              		.loc 1 1082 0
 6581 0132 194A     		ldr	r2, .L577+24
 6582 0134 D2ED007A 		vldr.32	s15, [r2]
 6583 0138 93ED217A 		vldr.32	s14, [r3, #132]
 6584 013c F0EEE77A 		vabs.f32	s15, s15
 6585 0140 F4EEC77A 		vcmpe.f32	s15, s14
 6586 0144 F1EE10FA 		vmrs	APSR_nzcv, FPSCR
 6587 0148 C4D5     		bpl	.L525
 6588              	.LBB189:
 6589              	.LBB190:
 6590              		.loc 1 788 0
 6591 014a 154A     		ldr	r2, .L577+32
 6592 014c D2ED007A 		vldr.32	s15, [r2]
 6593              	.LBE190:
 6594              	.LBE189:
 6595              		.loc 1 1082 0
 6596 0150 93ED237A 		vldr.32	s14, [r3, #140]
 6597 0154 B4EEE77A 		vcmpe.f32	s14, s15
 6598 0158 F1EE10FA 		vmrs	APSR_nzcv, FPSCR
 6599 015c BADD     		ble	.L525
 6600              		.loc 1 1083 0
 6601 015e 0223     		movs	r3, #2
 6602 0160 2370     		strb	r3, [r4]
 6603              		.loc 1 1084 0
 6604 0162 0120     		movs	r0, #1
 6605              		.loc 1 1097 0
 6606 0164 BDE83840 		pop	{r3, r4, r5, lr}
 6607              		.cfi_remember_state
 6608              		.cfi_restore 14
 6609              		.cfi_restore 5
 6610              		.cfi_restore 4
 6611              		.cfi_restore 3
 6612              		.cfi_def_cfa_offset 0
ARM GAS  /tmp/cc6nscCq.s 			page 117


 6613              		.loc 1 1084 0
 6614 0168 FFF7FEBF 		b	commutate
 6615              	.LVL473:
 6616              	.L569:
 6617              		.cfi_restore_state
 6618              	.LBB191:
 6619              	.LBB183:
 6620              	.LBB184:
 6621              		.loc 1 934 0
 6622 016c 084B     		ldr	r3, .L577+16
 6623              		.loc 1 933 0
 6624 016e 0321     		movs	r1, #3
 6625              		.loc 1 934 0
 6626 0170 0022     		movs	r2, #0
 6627              		.loc 1 933 0
 6628 0172 2170     		strb	r1, [r4]
 6629              		.loc 1 934 0
 6630 0174 1A60     		str	r2, [r3]
 6631              	.LBE184:
 6632              	.LBE183:
 6633              	.LBE191:
 6634              		.loc 1 1097 0
 6635 0176 BDE83840 		pop	{r3, r4, r5, lr}
 6636              		.cfi_restore 14
 6637              		.cfi_restore 5
 6638              		.cfi_restore 4
 6639              		.cfi_restore 3
 6640              		.cfi_def_cfa_offset 0
 6641              	.LBB192:
 6642              	.LBB186:
 6643              	.LBB185:
 6644              		.loc 1 935 0
 6645 017a FFF7FEBF 		b	full_brake_hw
 6646              	.LVL474:
 6647              	.L578:
 6648 017e 00BF     		.align	2
 6649              	.L577:
 6650 0180 00000000 		.word	.LANCHOR0
 6651 0184 00000000 		.word	.LANCHOR4
 6652 0188 00000000 		.word	.LANCHOR39
 6653 018c 00000000 		.word	.LANCHOR2
 6654 0190 00000000 		.word	.LANCHOR42
