ARM GAS  /tmp/ccUe6heV.s 			page 1


   1              		.cpu cortex-m4
   2              		.eabi_attribute 27, 1
   3              		.eabi_attribute 28, 1
   4              		.eabi_attribute 20, 1
   5              		.eabi_attribute 21, 1
   6              		.eabi_attribute 23, 3
   7              		.eabi_attribute 24, 1
   8              		.eabi_attribute 25, 1
   9              		.eabi_attribute 26, 1
  10              		.eabi_attribute 30, 2
  11              		.eabi_attribute 34, 1
  12              		.eabi_attribute 18, 4
  13              		.file	"app_spicontrol.c"
  14              		.text
  15              	.Ltext0:
  16              		.cfi_sections	.debug_frame
  17              		.section	.text.app_spicontrol_init,"ax",%progbits
  18              		.align	1
  19              		.p2align 4,,15
  20              		.global	app_spicontrol_init
  21              		.syntax unified
  22              		.thumb
  23              		.thumb_func
  24              		.fpu fpv4-sp-d16
  25              		.type	app_spicontrol_init, %function
  26              	app_spicontrol_init:
  27              	.LFB256:
  28              		.file 1 "applications/app_spicontrol.c"
  29              		.loc 1 29 0
  30              		.cfi_startproc
  31              		@ args = 0, pretend = 0, frame = 32
  32              		@ frame_needed = 0, uses_anonymous_args = 0
  33 0000 70B5     		push	{r4, r5, r6, lr}
  34              		.cfi_def_cfa_offset 16
  35              		.cfi_offset 4, -16
  36              		.cfi_offset 5, -12
  37              		.cfi_offset 6, -8
  38              		.cfi_offset 14, -4
  39              		.loc 1 35 0
  40 0002 2B4C     		ldr	r4, .L4
  41              		.loc 1 54 0
  42 0004 2B4D     		ldr	r5, .L4+4
  43              		.loc 1 29 0
  44 0006 8AB0     		sub	sp, sp, #40
  45              		.cfi_def_cfa_offset 56
  46              		.loc 1 35 0
  47 0008 2046     		mov	r0, r4
  48 000a 0022     		movs	r2, #0
  49 000c 4021     		movs	r1, #64
  50 000e FFF7FEFF 		bl	_pal_lld_setgroupmode
  51              	.LVL0:
  52              		.loc 1 36 0
  53 0012 2046     		mov	r0, r4
  54 0014 0122     		movs	r2, #1
  55 0016 8021     		movs	r1, #128
  56 0018 FFF7FEFF 		bl	_pal_lld_setgroupmode
  57              	.LVL1:
ARM GAS  /tmp/ccUe6heV.s 			page 2


  58              		.loc 1 37 0
  59 001c 2046     		mov	r0, r4
  60 001e 1922     		movs	r2, #25
  61 0020 2021     		movs	r1, #32
  62 0022 FFF7FEFF 		bl	_pal_lld_setgroupmode
  63              	.LVL2:
  64              		.loc 1 38 0
  65 0026 2046     		mov	r0, r4
  66 0028 1922     		movs	r2, #25
  67 002a 1021     		movs	r1, #16
  68 002c FFF7FEFF 		bl	_pal_lld_setgroupmode
  69              	.LVL3:
  70              		.loc 1 42 0
  71 0030 2022     		movs	r2, #32
  72              		.loc 1 43 0
  73 0032 8023     		movs	r3, #128
  74              		.loc 1 41 0
  75 0034 1021     		movs	r1, #16
  76 0036 6183     		strh	r1, [r4, #26]	@ movhi
  77              		.loc 1 46 0
  78 0038 0220     		movs	r0, #2
  79              		.loc 1 42 0
  80 003a 6283     		strh	r2, [r4, #26]	@ movhi
  81              		.loc 1 46 0
  82 003c 0121     		movs	r1, #1
  83              		.loc 1 43 0
  84 003e 6383     		strh	r3, [r4, #26]	@ movhi
  85              		.loc 1 46 0
  86 0040 FFF7FEFF 		bl	RCC_APB1PeriphClockCmd
  87              	.LVL4:
  88              		.loc 1 51 0
  89 0044 0024     		movs	r4, #0
  90              		.loc 1 49 0
  91 0046 0126     		movs	r6, #1
  92              		.loc 1 50 0
  93 0048 4AF20F43 		movw	r3, #41999
  94              		.loc 1 54 0
  95 004c 2846     		mov	r0, r5
  96 004e 02A9     		add	r1, sp, #8
  97              		.loc 1 50 0
  98 0050 CDE90263 		strd	r6, r3, [sp, #8]
  99              		.loc 1 51 0
 100 0054 ADF81040 		strh	r4, [sp, #16]	@ movhi
 101              		.loc 1 52 0
 102 0058 8DF81240 		strb	r4, [sp, #18]
 103              		.loc 1 54 0
 104 005c FFF7FEFF 		bl	TIM_TimeBaseInit
 105              	.LVL5:
 106              		.loc 1 55 0
 107 0060 3246     		mov	r2, r6
 108 0062 3146     		mov	r1, r6
 109 0064 2846     		mov	r0, r5
 110 0066 FFF7FEFF 		bl	TIM_ITConfig
 111              	.LVL6:
 112              		.loc 1 56 0
 113 006a 3146     		mov	r1, r6
 114 006c 2846     		mov	r0, r5
ARM GAS  /tmp/ccUe6heV.s 			page 3


 115 006e FFF7FEFF 		bl	TIM_Cmd
 116              	.LVL7:
 117              		.loc 1 64 0
 118 0072 039B     		ldr	r3, [sp, #12]
 119              		.loc 1 62 0
 120 0074 104A     		ldr	r2, .L4+8
 121 0076 0592     		str	r2, [sp, #20]
 122              		.loc 1 64 0
 123 0078 F340     		lsrs	r3, r3, r6
 124              		.loc 1 68 0
 125 007a 2846     		mov	r0, r5
 126 007c 05A9     		add	r1, sp, #20
 127              		.loc 1 59 0
 128 007e CDE90734 		strd	r3, r4, [sp, #28]
 129 0082 0694     		str	r4, [sp, #24]
 130 0084 0994     		str	r4, [sp, #36]
 131              		.loc 1 68 0
 132 0086 FFF7FEFF 		bl	TIM_OC1Init
 133              	.LVL8:
 134              		.loc 1 69 0
 135 008a 2846     		mov	r0, r5
 136 008c 0821     		movs	r1, #8
 137 008e FFF7FEFF 		bl	TIM_OC1PreloadConfig
 138              	.LVL9:
 139              		.loc 1 74 0
 140 0092 0621     		movs	r1, #6
 141 0094 1D20     		movs	r0, #29
 142 0096 FFF7FEFF 		bl	nvicEnableVector
 143              	.LVL10:
 144              		.loc 1 77 0
 145 009a 0094     		str	r4, [sp]
 146 009c 074B     		ldr	r3, .L4+12
 147 009e 0848     		ldr	r0, .L4+16
 148 00a0 4022     		movs	r2, #64
 149 00a2 40F69811 		movw	r1, #2456
 150 00a6 FFF7FEFF 		bl	chThdCreateStatic
 151              	.LVL11:
 152              		.loc 1 79 0
 153 00aa 0AB0     		add	sp, sp, #40
 154              		.cfi_def_cfa_offset 16
 155              		@ sp needed
 156 00ac 70BD     		pop	{r4, r5, r6, pc}
 157              	.L5:
 158 00ae 00BF     		.align	2
 159              	.L4:
 160 00b0 00000240 		.word	1073872896
 161 00b4 00040040 		.word	1073742848
 162 00b8 60000100 		.word	65632
 163 00bc 00000000 		.word	example_thread
 164 00c0 00000000 		.word	.LANCHOR0
 165              		.cfi_endproc
 166              	.LFE256:
 167              		.size	app_spicontrol_init, .-app_spicontrol_init
 168              		.section	.text.daten_to_spi,"ax",%progbits
 169              		.align	1
 170              		.p2align 4,,15
 171              		.global	daten_to_spi
ARM GAS  /tmp/ccUe6heV.s 			page 4


 172              		.syntax unified
 173              		.thumb
 174              		.thumb_func
 175              		.fpu fpv4-sp-d16
 176              		.type	daten_to_spi, %function
 177              	daten_to_spi:
 178              	.LFB257:
 179              		.loc 1 84 0
 180              		.cfi_startproc
 181              		@ args = 0, pretend = 0, frame = 0
 182              		@ frame_needed = 0, uses_anonymous_args = 0
 183              		@ link register save eliminated.
 184              	.LVL12:
 185 0000 054B     		ldr	r3, .L7
 186              		.loc 1 89 0
 187 0002 064A     		ldr	r2, .L7+4
 188 0004 9842     		cmp	r0, r3
 189 0006 B8BF     		it	lt
 190 0008 1846     		movlt	r0, r3
 191              	.LVL13:
 192              		.loc 1 87 0
 193 000a 00F6FF70 		addw	r0, r0, #4095
 194              	.LVL14:
 195              		.loc 1 89 0
 196 000e 42EA8000 		orr	r0, r2, r0, lsl #2
 197              	.LVL15:
 198              		.loc 1 96 0
 199 0012 40EAC130 		orr	r0, r0, r1, lsl #15
 200 0016 7047     		bx	lr
 201              	.L8:
 202              		.align	2
 203              	.L7:
 204 0018 01F0FFFF 		.word	-4095
 205 001c 02000400 		.word	262146
 206              		.cfi_endproc
 207              	.LFE257:
 208              		.size	daten_to_spi, .-daten_to_spi
 209              		.section	.text.spicontrol_get_val,"ax",%progbits
 210              		.align	1
 211              		.p2align 4,,15
 212              		.global	spicontrol_get_val
 213              		.syntax unified
 214              		.thumb
 215              		.thumb_func
 216              		.fpu fpv4-sp-d16
 217              		.type	spicontrol_get_val, %function
 218              	spicontrol_get_val:
 219              	.LFB259:
 220              		.loc 1 117 0
 221              		.cfi_startproc
 222              		@ args = 0, pretend = 0, frame = 0
 223              		@ frame_needed = 0, uses_anonymous_args = 0
 224              		@ link register save eliminated.
 225              		.loc 1 118 0
 226 0000 014B     		ldr	r3, .L10
 227              		.loc 1 119 0
 228 0002 1868     		ldr	r0, [r3]
ARM GAS  /tmp/ccUe6heV.s 			page 5


 229 0004 7047     		bx	lr
 230              	.L11:
 231 0006 00BF     		.align	2
 232              	.L10:
 233 0008 00000000 		.word	.LANCHOR1
 234              		.cfi_endproc
 235              	.LFE259:
 236              		.size	spicontrol_get_val, .-spicontrol_get_val
 237              		.section	.text.spicontrol_transfer,"ax",%progbits
 238              		.align	1
 239              		.p2align 4,,15
 240              		.global	spicontrol_transfer
 241              		.syntax unified
 242              		.thumb
 243              		.thumb_func
 244              		.fpu fpv4-sp-d16
 245              		.type	spicontrol_transfer, %function
 246              	spicontrol_transfer:
 247              	.LFB260:
 248              		.loc 1 122 0
 249              		.cfi_startproc
 250              		@ args = 0, pretend = 0, frame = 0
 251              		@ frame_needed = 0, uses_anonymous_args = 0
 252              	.LVL16:
 253              	.LBB53:
 254              		.loc 1 123 0
 255 0000 002A     		cmp	r2, #0
 256 0002 37DD     		ble	.L27
 257              	.LBE53:
 258              		.loc 1 122 0
 259 0004 2DE9F041 		push	{r4, r5, r6, r7, r8, lr}
 260              		.cfi_def_cfa_offset 24
 261              		.cfi_offset 4, -24
 262              		.cfi_offset 5, -20
 263              		.cfi_offset 6, -16
 264              		.cfi_offset 7, -12
 265              		.cfi_offset 8, -8
 266              		.cfi_offset 14, -4
 267              	.LBB87:
 268              	.LBB54:
 269              	.LBB55:
 270              		.loc 1 128 0
 271 0008 1B4E     		ldr	r6, .L30
 272              	.LBE55:
 273              	.LBE54:
 274              		.loc 1 123 0
 275 000a 4FF0000E 		mov	lr, #0
 276              	.LBB85:
 277              	.LBB83:
 278              		.loc 1 132 0
 279 000e 4FF02008 		mov	r8, #32
 280              	.LVL17:
 281              	.L18:
 282              	.LBE83:
 283              		.loc 1 124 0
 284 0012 69B3     		cbz	r1, .L19
 285              		.loc 1 124 0 is_stmt 0 discriminator 1
ARM GAS  /tmp/ccUe6heV.s 			page 6


 286 0014 51F82E40 		ldr	r4, [r1, lr, lsl #2]
 287              	.L14:
 288              	.LVL18:
 289              		.loc 1 124 0 discriminator 4
 290 0018 1425     		movs	r5, #20
 291              	.LBB84:
 292              		.loc 1 132 0 is_stmt 1 discriminator 4
 293 001a 4746     		mov	r7, r8	@ movhi
 294              	.LVL19:
 295              	.L16:
 296              		.loc 1 128 0
 297 001c 14F4002F 		tst	r4, #524288
 298 0020 4FEA1433 		lsr	r3, r4, #12
 299 0024 0CBF     		ite	eq
 300 0026 4FF4000C 		moveq	ip, #8388608
 301 002a 4FF0000C 		movne	ip, #0
 302 002e 03F08003 		and	r3, r3, #128
 303 0032 43EA0C03 		orr	r3, r3, ip
 304 0036 B361     		str	r3, [r6, #24]
 305              		.loc 1 129 0
 306 0038 6400     		lsls	r4, r4, #1
 307              	.LVL20:
 308              	.LBB56:
 309              	.LBB57:
 310              	.LBB58:
 311              		.file 2 "ChibiOS_3.0.2/os/ext/CMSIS/include/core_cmInstr.h"
 312              		.loc 2 327 0
 313              		.syntax unified
 314              	@ 327 "ChibiOS_3.0.2/os/ext/CMSIS/include/core_cmInstr.h" 1
 315 003a 00BF     		nop
 316              	@ 0 "" 2
 317              		.thumb
 318              		.syntax unified
 319              	.LBE58:
 320              	.LBE57:
 321              	.LBB59:
 322              	.LBB60:
 323              		.syntax unified
 324              	@ 327 "ChibiOS_3.0.2/os/ext/CMSIS/include/core_cmInstr.h" 1
 325 003c 00BF     		nop
 326              	@ 0 "" 2
 327              		.thumb
 328              		.syntax unified
 329              	.LBE60:
 330              	.LBE59:
 331              	.LBB61:
 332              	.LBB62:
 333              		.syntax unified
 334              	@ 327 "ChibiOS_3.0.2/os/ext/CMSIS/include/core_cmInstr.h" 1
 335 003e 00BF     		nop
 336              	@ 0 "" 2
 337              		.thumb
 338              		.syntax unified
 339              	.LBE62:
 340              	.LBE61:
 341              	.LBB63:
 342              	.LBB64:
ARM GAS  /tmp/ccUe6heV.s 			page 7


 343              		.syntax unified
 344              	@ 327 "ChibiOS_3.0.2/os/ext/CMSIS/include/core_cmInstr.h" 1
 345 0040 00BF     		nop
 346              	@ 0 "" 2
 347              		.thumb
 348              		.syntax unified
 349              	.LBE64:
 350              	.LBE63:
 351              	.LBE56:
 352              		.loc 1 132 0
 353 0042 3783     		strh	r7, [r6, #24]	@ movhi
 354              	.LBB65:
 355              	.LBB66:
 356              	.LBB67:
 357              		.loc 2 327 0
 358              		.syntax unified
 359              	@ 327 "ChibiOS_3.0.2/os/ext/CMSIS/include/core_cmInstr.h" 1
 360 0044 00BF     		nop
 361              	@ 0 "" 2
 362              		.thumb
 363              		.syntax unified
 364              	.LBE67:
 365              	.LBE66:
 366              	.LBB68:
 367              	.LBB69:
 368              		.syntax unified
 369              	@ 327 "ChibiOS_3.0.2/os/ext/CMSIS/include/core_cmInstr.h" 1
 370 0046 00BF     		nop
 371              	@ 0 "" 2
 372              		.thumb
 373              		.syntax unified
 374              	.LBE69:
 375              	.LBE68:
 376              	.LBB70:
 377              	.LBB71:
 378              		.syntax unified
 379              	@ 327 "ChibiOS_3.0.2/os/ext/CMSIS/include/core_cmInstr.h" 1
 380 0048 00BF     		nop
 381              	@ 0 "" 2
 382              		.thumb
 383              		.syntax unified
 384              	.LBE71:
 385              	.LBE70:
 386              	.LBB72:
 387              	.LBB73:
 388              		.syntax unified
 389              	@ 327 "ChibiOS_3.0.2/os/ext/CMSIS/include/core_cmInstr.h" 1
 390 004a 00BF     		nop
 391              	@ 0 "" 2
 392              		.thumb
 393              		.syntax unified
 394              	.LBE73:
 395              	.LBE72:
 396              	.LBE65:
 397              		.loc 1 137 0
 398 004c 7783     		strh	r7, [r6, #26]	@ movhi
 399              	.LBB74:
ARM GAS  /tmp/ccUe6heV.s 			page 8


 400              	.LBB75:
 401              	.LBB76:
 402              		.loc 2 327 0
 403              		.syntax unified
 404              	@ 327 "ChibiOS_3.0.2/os/ext/CMSIS/include/core_cmInstr.h" 1
 405 004e 00BF     		nop
 406              	@ 0 "" 2
 407              		.thumb
 408              		.syntax unified
 409              	.LBE76:
 410              	.LBE75:
 411              	.LBB77:
 412              	.LBB78:
 413              		.syntax unified
 414              	@ 327 "ChibiOS_3.0.2/os/ext/CMSIS/include/core_cmInstr.h" 1
 415 0050 00BF     		nop
 416              	@ 0 "" 2
 417              		.thumb
 418              		.syntax unified
 419              	.LBE78:
 420              	.LBE77:
 421              	.LBB79:
 422              	.LBB80:
 423              		.syntax unified
 424              	@ 327 "ChibiOS_3.0.2/os/ext/CMSIS/include/core_cmInstr.h" 1
 425 0052 00BF     		nop
 426              	@ 0 "" 2
 427              		.thumb
 428              		.syntax unified
 429              	.LBE80:
 430              	.LBE79:
 431              	.LBB81:
 432              	.LBB82:
 433              		.syntax unified
 434              	@ 327 "ChibiOS_3.0.2/os/ext/CMSIS/include/core_cmInstr.h" 1
 435 0054 00BF     		nop
 436              	@ 0 "" 2
 437              	.LVL21:
 438              		.thumb
 439              		.syntax unified
 440              	.LBE82:
 441              	.LBE81:
 442              	.LBE74:
 443              		.loc 1 127 0
 444 0056 013D     		subs	r5, r5, #1
 445              	.LVL22:
 446 0058 E0D1     		bne	.L16
 447              	.LBE84:
 448              		.loc 1 141 0
 449 005a 18B1     		cbz	r0, .L17
 450              		.loc 1 142 0
 451 005c 0EF5C873 		add	r3, lr, #400
 452 0060 40F82E30 		str	r3, [r0, lr, lsl #2]
 453              	.L17:
 454              	.LBE85:
 455              		.loc 1 123 0 discriminator 2
 456 0064 0EF1010E 		add	lr, lr, #1
ARM GAS  /tmp/ccUe6heV.s 			page 9


 457              	.LVL23:
 458 0068 7245     		cmp	r2, lr
 459 006a D2D1     		bne	.L18
 460              	.LBE87:
 461              		.loc 1 145 0
 462 006c BDE8F081 		pop	{r4, r5, r6, r7, r8, pc}
 463              	.LVL24:
 464              	.L19:
 465              	.LBB88:
 466              	.LBB86:
 467              		.loc 1 124 0
 468 0070 024C     		ldr	r4, .L30+4
 469 0072 D1E7     		b	.L14
 470              	.LVL25:
 471              	.L27:
 472              		.cfi_def_cfa_offset 0
 473              		.cfi_restore 4
 474              		.cfi_restore 5
 475              		.cfi_restore 6
 476              		.cfi_restore 7
 477              		.cfi_restore 8
 478              		.cfi_restore 14
 479 0074 7047     		bx	lr
 480              	.L31:
 481 0076 00BF     		.align	2
 482              	.L30:
 483 0078 00000240 		.word	1073872896
 484 007c FFFF0F00 		.word	1048575
 485              	.LBE86:
 486              	.LBE88:
 487              		.cfi_endproc
 488              	.LFE260:
 489              		.size	spicontrol_transfer, .-spicontrol_transfer
 490              		.section	.text.spicontrol_tim_isr,"ax",%progbits
 491              		.align	1
 492              		.p2align 4,,15
 493              		.global	spicontrol_tim_isr
 494              		.syntax unified
 495              		.thumb
 496              		.thumb_func
 497              		.fpu fpv4-sp-d16
 498              		.type	spicontrol_tim_isr, %function
 499              	spicontrol_tim_isr:
 500              	.LFB258:
 501              		.loc 1 100 0
 502              		.cfi_startproc
 503              		@ args = 0, pretend = 0, frame = 8
 504              		@ frame_needed = 0, uses_anonymous_args = 0
 505 0000 30B5     		push	{r4, r5, lr}
 506              		.cfi_def_cfa_offset 12
 507              		.cfi_offset 4, -12
 508              		.cfi_offset 5, -8
 509              		.cfi_offset 14, -4
 510 0002 83B0     		sub	sp, sp, #12
 511              		.cfi_def_cfa_offset 24
 512              		.loc 1 101 0
 513 0004 02A8     		add	r0, sp, #8
ARM GAS  /tmp/ccUe6heV.s 			page 10


 514              	.LBB89:
 515              	.LBB90:
 516              		.loc 1 149 0
 517 0006 084C     		ldr	r4, .L34
 518              	.LBE90:
 519              	.LBE89:
 520              		.loc 1 101 0
 521 0008 0023     		movs	r3, #0
 522              	.LBB93:
 523              	.LBB91:
 524              		.loc 1 149 0
 525 000a 1025     		movs	r5, #16
 526              	.LBE91:
 527              	.LBE93:
 528              		.loc 1 101 0
 529 000c 40F8043D 		str	r3, [r0, #-4]!
 530              		.loc 1 107 0
 531 0010 0122     		movs	r2, #1
 532              	.LBB94:
 533              	.LBB92:
 534              		.loc 1 149 0
 535 0012 6583     		strh	r5, [r4, #26]	@ movhi
 536              	.LBE92:
 537              	.LBE94:
 538              		.loc 1 107 0
 539 0014 2821     		movs	r1, #40
 540 0016 FFF7FEFF 		bl	spicontrol_transfer
 541              	.LVL26:
 542              	.LBB95:
 543              	.LBB96:
 544              		.loc 1 154 0
 545 001a 2583     		strh	r5, [r4, #24]	@ movhi
 546              	.LBE96:
 547              	.LBE95:
 548              		.loc 1 113 0
 549 001c 034B     		ldr	r3, .L34+4
 550 001e 019A     		ldr	r2, [sp, #4]
 551 0020 1A60     		str	r2, [r3]
 552              		.loc 1 114 0
 553 0022 03B0     		add	sp, sp, #12
 554              		.cfi_def_cfa_offset 12
 555              		@ sp needed
 556 0024 30BD     		pop	{r4, r5, pc}
 557              	.L35:
 558 0026 00BF     		.align	2
 559              	.L34:
 560 0028 00000240 		.word	1073872896
 561 002c 00000000 		.word	.LANCHOR1
 562              		.cfi_endproc
 563              	.LFE258:
 564              		.size	spicontrol_tim_isr, .-spicontrol_tim_isr
 565              		.section	.text.spicontrol_begin,"ax",%progbits
 566              		.align	1
 567              		.p2align 4,,15
 568              		.global	spicontrol_begin
 569              		.syntax unified
 570              		.thumb
ARM GAS  /tmp/ccUe6heV.s 			page 11


 571              		.thumb_func
 572              		.fpu fpv4-sp-d16
 573              		.type	spicontrol_begin, %function
 574              	spicontrol_begin:
 575              	.LFB261:
 576              		.loc 1 148 0
 577              		.cfi_startproc
 578              		@ args = 0, pretend = 0, frame = 0
 579              		@ frame_needed = 0, uses_anonymous_args = 0
 580              		@ link register save eliminated.
 581              		.loc 1 149 0
 582 0000 014B     		ldr	r3, .L37
 583 0002 1022     		movs	r2, #16
 584 0004 5A83     		strh	r2, [r3, #26]	@ movhi
 585              		.loc 1 150 0
 586 0006 7047     		bx	lr
 587              	.L38:
 588              		.align	2
 589              	.L37:
 590 0008 00000240 		.word	1073872896
 591              		.cfi_endproc
 592              	.LFE261:
 593              		.size	spicontrol_begin, .-spicontrol_begin
 594              		.section	.text.spicontrol_end,"ax",%progbits
 595              		.align	1
 596              		.p2align 4,,15
 597              		.global	spicontrol_end
 598              		.syntax unified
 599              		.thumb
 600              		.thumb_func
 601              		.fpu fpv4-sp-d16
 602              		.type	spicontrol_end, %function
 603              	spicontrol_end:
 604              	.LFB262:
 605              		.loc 1 153 0
 606              		.cfi_startproc
 607              		@ args = 0, pretend = 0, frame = 0
 608              		@ frame_needed = 0, uses_anonymous_args = 0
 609              		@ link register save eliminated.
 610              		.loc 1 154 0
 611 0000 014B     		ldr	r3, .L40
 612 0002 1022     		movs	r2, #16
 613 0004 1A83     		strh	r2, [r3, #24]	@ movhi
 614              		.loc 1 155 0
 615 0006 7047     		bx	lr
 616              	.L41:
 617              		.align	2
 618              	.L40:
 619 0008 00000240 		.word	1073872896
 620              		.cfi_endproc
 621              	.LFE262:
 622              		.size	spicontrol_end, .-spicontrol_end
 623              		.section	.text.spicontrol_delay,"ax",%progbits
 624              		.align	1
 625              		.p2align 4,,15
 626              		.global	spicontrol_delay
 627              		.syntax unified
ARM GAS  /tmp/ccUe6heV.s 			page 12


 628              		.thumb
 629              		.thumb_func
 630              		.fpu fpv4-sp-d16
 631              		.type	spicontrol_delay, %function
 632              	spicontrol_delay:
 633              	.LFB263:
 634              		.loc 1 158 0
 635              		.cfi_startproc
 636              		@ args = 0, pretend = 0, frame = 0
 637              		@ frame_needed = 0, uses_anonymous_args = 0
 638              		@ link register save eliminated.
 639              	.LBB97:
 640              	.LBB98:
 641              		.loc 2 327 0
 642              		.syntax unified
 643              	@ 327 "ChibiOS_3.0.2/os/ext/CMSIS/include/core_cmInstr.h" 1
 644 0000 00BF     		nop
 645              	@ 0 "" 2
 646              		.thumb
 647              		.syntax unified
 648              	.LBE98:
 649              	.LBE97:
 650              	.LBB99:
 651              	.LBB100:
 652              		.syntax unified
 653              	@ 327 "ChibiOS_3.0.2/os/ext/CMSIS/include/core_cmInstr.h" 1
 654 0002 00BF     		nop
 655              	@ 0 "" 2
 656              		.thumb
 657              		.syntax unified
 658              	.LBE100:
 659              	.LBE99:
 660              	.LBB101:
 661              	.LBB102:
 662              		.syntax unified
 663              	@ 327 "ChibiOS_3.0.2/os/ext/CMSIS/include/core_cmInstr.h" 1
 664 0004 00BF     		nop
 665              	@ 0 "" 2
 666              		.thumb
 667              		.syntax unified
 668              	.LBE102:
 669              	.LBE101:
 670              	.LBB103:
 671              	.LBB104:
 672              		.syntax unified
 673              	@ 327 "ChibiOS_3.0.2/os/ext/CMSIS/include/core_cmInstr.h" 1
 674 0006 00BF     		nop
 675              	@ 0 "" 2
 676              		.thumb
 677              		.syntax unified
 678              	.LBE104:
 679              	.LBE103:
 680              		.loc 1 163 0
 681 0008 7047     		bx	lr
 682              		.cfi_endproc
 683              	.LFE263:
 684              		.size	spicontrol_delay, .-spicontrol_delay
ARM GAS  /tmp/ccUe6heV.s 			page 13


 685 000a 00BF     		.section	.text.spi_to_data,"ax",%progbits
 686              		.align	1
 687              		.p2align 4,,15
 688              		.global	spi_to_data
 689              		.syntax unified
 690              		.thumb
 691              		.thumb_func
 692              		.fpu fpv4-sp-d16
 693              		.type	spi_to_data, %function
 694              	spi_to_data:
 695              	.LFB264:
 696              		.loc 1 167 0
 697              		.cfi_startproc
 698              		@ args = 0, pretend = 0, frame = 0
 699              		@ frame_needed = 0, uses_anonymous_args = 0
 700              		@ link register save eliminated.
 701              	.LBB105:
 702              	.LBB106:
 703              		.loc 1 118 0
 704 0000 0F4B     		ldr	r3, .L52
 705 0002 1868     		ldr	r0, [r3]
 706              	.LBE106:
 707              	.LBE105:
 708              		.loc 1 170 0
 709 0004 0103     		lsls	r1, r0, #12
 710 0006 06D5     		bpl	.L44
 711              		.loc 1 171 0
 712 0008 00F00703 		and	r3, r0, #7
 713 000c 042B     		cmp	r3, #4
 714 000e 08D1     		bne	.L50
 715              	.LVL27:
 716              		.loc 1 173 0
 717 0010 C0F3CF00 		ubfx	r0, r0, #3, #16
 718              	.LVL28:
 719              		.loc 1 174 0
 720 0014 7047     		bx	lr
 721              	.LVL29:
 722              	.L44:
 723              		.loc 1 178 0
 724 0016 4203     		lsls	r2, r0, #13
 725 0018 06D5     		bpl	.L46
 726              		.loc 1 179 0
 727 001a 00F00303 		and	r3, r0, #3
 728 001e 022B     		cmp	r3, #2
 729 0020 0BD0     		beq	.L51
 730              	.L50:
 731              		.loc 1 196 0
 732 0022 4FF48050 		mov	r0, #4096
 733              		.loc 1 197 0
 734 0026 7047     		bx	lr
 735              	.L46:
 736              		.loc 1 186 0
 737 0028 8303     		lsls	r3, r0, #14
 738 002a FAD5     		bpl	.L50
 739              		.loc 1 187 0
 740 002c 054B     		ldr	r3, .L52+4
 741 002e 0340     		ands	r3, r3, r0
ARM GAS  /tmp/ccUe6heV.s 			page 14


 742 0030 012B     		cmp	r3, #1
 743 0032 F6D1     		bne	.L50
 744              	.LVL30:
 745              		.loc 1 189 0
 746 0034 C0F34F00 		ubfx	r0, r0, #1, #16
 747              	.LVL31:
 748              		.loc 1 190 0
 749 0038 7047     		bx	lr
 750              	.LVL32:
 751              	.L51:
 752              		.loc 1 181 0
 753 003a C0F38F00 		ubfx	r0, r0, #2, #16
 754              	.LVL33:
 755              		.loc 1 182 0
 756 003e 7047     		bx	lr
 757              	.L53:
 758              		.align	2
 759              	.L52:
 760 0040 00000000 		.word	.LANCHOR1
 761 0044 01000C00 		.word	786433
 762              		.cfi_endproc
 763              	.LFE264:
 764              		.size	spi_to_data, .-spi_to_data
 765              		.global	__aeabi_f2d
 766              		.global	__aeabi_dmul
 767              		.global	__aeabi_d2iz
 768              		.section	.text.example_thread,"ax",%progbits
 769              		.align	1
 770              		.p2align 4,,15
 771              		.syntax unified
 772              		.thumb
 773              		.thumb_func
 774              		.fpu fpv4-sp-d16
 775              		.type	example_thread, %function
 776              	example_thread:
 777              	.LFB265:
 778              		.loc 1 200 0
 779              		.cfi_startproc
 780              		@ args = 0, pretend = 0, frame = 0
 781              		@ frame_needed = 0, uses_anonymous_args = 0
 782              	.LVL34:
 783 0000 2DE9F84F 		push	{r3, r4, r5, r6, r7, r8, r9, r10, fp, lr}
 784              		.cfi_def_cfa_offset 40
 785              		.cfi_offset 3, -40
 786              		.cfi_offset 4, -36
 787              		.cfi_offset 5, -32
 788              		.cfi_offset 6, -28
 789              		.cfi_offset 7, -24
 790              		.cfi_offset 8, -20
 791              		.cfi_offset 9, -16
 792              		.cfi_offset 10, -12
 793              		.cfi_offset 11, -8
 794              		.cfi_offset 14, -4
 795              	.LBB107:
 796              	.LBB108:
 797              		.file 3 "ChibiOS_3.0.2/os/rt/include/chregistry.h"
 798              		.loc 3 135 0
ARM GAS  /tmp/ccUe6heV.s 			page 15


 799 0004 354B     		ldr	r3, .L62
 800 0006 364A     		ldr	r2, .L62+4
 801 0008 9B69     		ldr	r3, [r3, #24]
 802 000a 364C     		ldr	r4, .L62+8
 803 000c 364D     		ldr	r5, .L62+12
 804 000e DFF8F880 		ldr	r8, .L62+44
 805              	.LBE108:
 806              	.LBE107:
 807              		.loc 1 219 0
 808 0012 DFF8F890 		ldr	r9, .L62+48
 809              		.loc 1 245 0
 810 0016 354F     		ldr	r7, .L62+16
 811              		.loc 1 200 0
 812 0018 2DED028B 		vpush.64	{d8}
 813              		.cfi_def_cfa_offset 48
 814              		.cfi_offset 80, -48
 815              		.cfi_offset 81, -44
 816              		.loc 1 245 0
 817 001c 0026     		movs	r6, #0
 818              		.loc 1 220 0
 819 001e DFED348A 		vldr.32	s17, .L62+20
 820              	.LBB110:
 821              	.LBB109:
 822              		.loc 3 135 0
 823 0022 9A61     		str	r2, [r3, #24]
 824              	.LVL35:
 825 0024 2FE0     		b	.L58
 826              	.LVL36:
 827              	.L61:
 828              	.LBE109:
 829              	.LBE110:
 830              		.loc 1 225 0
 831 0026 C5E900A3 		strd	r10, r3, [r5]
 832              		.loc 1 234 0
 833 002a FFF7FEFF 		bl	commands_printf
 834              	.LVL37:
 835              		.loc 1 235 0
 836 002e B0EE480A 		vmov.f32	s0, s16
 837 0032 FFF7FEFF 		bl	mc_interface_set_current
 838              	.LVL38:
 839              	.L57:
 840              		.loc 1 245 0
 841 0036 3246     		mov	r2, r6
 842 0038 3B46     		mov	r3, r7
 843 003a D4E90001 		ldrd	r0, [r4]
 844 003e FFF7FEFF 		bl	__aeabi_dmul
 845              	.LVL39:
 846 0042 8B46     		mov	fp, r1
 847 0044 8246     		mov	r10, r0
 848              	.LVL40:
 849 0046 C4E900AB 		strd	r10, [r4]
 850              	.LVL41:
 851              		.loc 1 248 0
 852 004a FFF7FEFF 		bl	__aeabi_d2iz
 853              	.LVL42:
 854 004e 2949     		ldr	r1, .L62+24
 855 0050 8142     		cmp	r1, r0
ARM GAS  /tmp/ccUe6heV.s 			page 16


 856 0052 B8BF     		it	lt
 857 0054 0146     		movlt	r1, r0
 858              	.LVL43:
 859              	.LBB111:
 860              	.LBB112:
 861              		.loc 1 87 0
 862 0056 01F6FF71 		addw	r1, r1, #4095
 863              	.LVL44:
 864              		.loc 1 89 0
 865 005a 8900     		lsls	r1, r1, #2
 866              		.loc 1 93 0
 867 005c 41F49021 		orr	r1, r1, #294912
 868              	.LBE112:
 869              	.LBE111:
 870              		.loc 1 249 0
 871 0060 5246     		mov	r2, r10
 872 0062 5B46     		mov	r3, fp
 873              	.LBB114:
 874              	.LBB113:
 875              		.loc 1 93 0
 876 0064 41F00201 		orr	r1, r1, #2
 877              	.LBE113:
 878              	.LBE114:
 879              		.loc 1 249 0
 880 0068 2348     		ldr	r0, .L62+28
 881              		.loc 1 248 0
 882 006a C8F80010 		str	r1, [r8]
 883              		.loc 1 249 0
 884 006e FFF7FEFF 		bl	commands_printf
 885              	.LVL45:
 886              		.loc 1 250 0
 887 0072 D8F80010 		ldr	r1, [r8]
 888 0076 2148     		ldr	r0, .L62+32
 889 0078 FFF7FEFF 		bl	commands_printf
 890              	.LVL46:
 891              		.loc 1 253 0
 892 007c 0A20     		movs	r0, #10
 893 007e FFF7FEFF 		bl	chThdSleep
 894              	.LVL47:
 895              		.loc 1 256 0
 896 0082 FFF7FEFF 		bl	timeout_reset
 897              	.LVL48:
 898              	.L58:
 899              		.loc 1 214 0
 900 0086 FFF7FEFF 		bl	mcpwm_foc_get_tot_current
 901              	.LVL49:
 902 008a 10EE100A 		vmov	r0, s0
 903 008e FFF7FEFF 		bl	__aeabi_f2d
 904              	.LVL50:
 905 0092 C4E90001 		strd	r0, [r4]
 906              		.loc 1 217 0
 907 0096 FFF7FEFF 		bl	spi_to_data
 908              	.LVL51:
 909              		.loc 1 218 0
 910 009a B0F5805F 		cmp	r0, #4096
 911              		.loc 1 217 0
 912 009e 8246     		mov	r10, r0
ARM GAS  /tmp/ccUe6heV.s 			page 17


 913              	.LVL52:
 914              		.loc 1 218 0
 915 00a0 17D3     		bcc	.L60
 916              	.LVL53:
 917              	.L55:
 918              		.loc 1 220 0
 919 00a2 07EE90AA 		vmov	s15, r10	@ int
 920 00a6 F8EE677A 		vcvt.f32.u32	s15, s15
 921 00aa 87EEA88A 		vdiv.f32	s16, s15, s17
 922 00ae 18EE100A 		vmov	r0, s16
 923 00b2 FFF7FEFF 		bl	__aeabi_f2d
 924              	.LVL54:
 925 00b6 0246     		mov	r2, r0
 926 00b8 0B46     		mov	r3, r1
 927 00ba 1148     		ldr	r0, .L62+36
 928 00bc FFF7FEFF 		bl	commands_printf
 929              	.LVL55:
 930              		.loc 1 223 0
 931 00c0 2A68     		ldr	r2, [r5]
 932              		.loc 1 234 0
 933 00c2 1048     		ldr	r0, .L62+40
 934              		.loc 1 225 0
 935 00c4 0123     		movs	r3, #1
 936              		.loc 1 223 0
 937 00c6 5245     		cmp	r2, r10
 938              		.loc 1 234 0
 939 00c8 1946     		mov	r1, r3
 940              		.loc 1 223 0
 941 00ca ACD1     		bne	.L61
 942              		.loc 1 227 0
 943 00cc 0023     		movs	r3, #0
 944 00ce 6B60     		str	r3, [r5, #4]
 945 00d0 B1E7     		b	.L57
 946              	.LVL56:
 947              	.L60:
 948              		.loc 1 219 0
 949 00d2 0146     		mov	r1, r0
 950 00d4 4846     		mov	r0, r9
 951              	.LVL57:
 952 00d6 FFF7FEFF 		bl	commands_printf
 953              	.LVL58:
 954 00da E2E7     		b	.L55
 955              	.L63:
 956              		.align	2
 957              	.L62:
 958 00dc 00000000 		.word	ch
 959 00e0 00000000 		.word	.LC0
 960 00e4 00000000 		.word	.LANCHOR2
 961 00e8 00000000 		.word	.LANCHOR3
 962 00ec 00408F40 		.word	1083129856
 963 00f0 00007A44 		.word	1148846080
 964 00f4 01F0FFFF 		.word	-4095
 965 00f8 40000000 		.word	.LC4
 966 00fc 54000000 		.word	.LC5
 967 0100 1C000000 		.word	.LC2
 968 0104 30000000 		.word	.LC3
 969 0108 00000000 		.word	.LANCHOR4
ARM GAS  /tmp/ccUe6heV.s 			page 18


 970 010c 0C000000 		.word	.LC1
 971              		.cfi_endproc
 972              	.LFE265:
 973              		.size	example_thread, .-example_thread
 974              		.global	out_buf
 975              		.global	pwm_current
 976              		.global	pwm_rpm
 977              		.global	merker
 978              		.global	testvalue
 979              		.global	spi_val
 980              		.section	.bss.example_thread_wa,"aw",%nobits
 981              		.align	3
 982              		.set	.LANCHOR0,. + 0
 983              		.type	example_thread_wa, %object
 984              		.size	example_thread_wa, 2456
 985              	example_thread_wa:
 986 0000 00000000 		.space	2456
 986      00000000 
 986      00000000 
 986      00000000 
 986      00000000 
 987              		.section	.bss.merker,"aw",%nobits
 988              		.align	2
 989              		.set	.LANCHOR3,. + 0
 990              		.type	merker, %object
 991              		.size	merker, 8
 992              	merker:
 993 0000 00000000 		.space	8
 993      00000000 
 994              		.section	.bss.pwm_current,"aw",%nobits
 995              		.align	3
 996              		.set	.LANCHOR2,. + 0
 997              		.type	pwm_current, %object
 998              		.size	pwm_current, 8
 999              	pwm_current:
 1000 0000 00000000 		.space	8
 1000      00000000 
 1001              		.section	.bss.pwm_rpm,"aw",%nobits
 1002              		.align	3
 1003              		.type	pwm_rpm, %object
 1004              		.size	pwm_rpm, 8
 1005              	pwm_rpm:
 1006 0000 00000000 		.space	8
 1006      00000000 
 1007              		.section	.bss.spi_val,"aw",%nobits
 1008              		.align	2
 1009              		.set	.LANCHOR1,. + 0
 1010              		.type	spi_val, %object
 1011              		.size	spi_val, 4
 1012              	spi_val:
 1013 0000 00000000 		.space	4
 1014              		.section	.data.out_buf,"aw",%progbits
 1015              		.align	2
 1016              		.type	out_buf, %object
 1017              		.size	out_buf, 40
 1018              	out_buf:
 1019 0000 28000000 		.word	40
ARM GAS  /tmp/ccUe6heV.s 			page 19


 1020 0004 29000000 		.word	41
 1021 0008 2A000000 		.word	42
 1022 000c 2B000000 		.word	43
 1023 0010 2C000000 		.word	44
 1024 0014 2D000000 		.word	45
 1025 0018 2E000000 		.word	46
 1026 001c 2F000000 		.word	47
 1027 0020 30000000 		.word	48
 1028 0024 31000000 		.word	49
 1029              		.section	.data.testvalue,"aw",%progbits
 1030              		.align	2
 1031              		.set	.LANCHOR4,. + 0
 1032              		.type	testvalue, %object
 1033              		.size	testvalue, 4
 1034              	testvalue:
 1035 0000 64000000 		.word	100
 1036              		.section	.rodata.example_thread.str1.4,"aMS",%progbits,1
 1037              		.align	2
 1038              	.LC0:
 1039 0000 4150505F 		.ascii	"APP_EXAMPLE\000"
 1039      4558414D 
 1039      504C4500 
 1040              	.LC1:
 1041 000c 53504920 		.ascii	"SPI Receive: %d\000"
 1041      52656365 
 1041      6976653A 
 1041      20256400 
 1042              	.LC2:
 1043 001c 53504920 		.ascii	"SPI Receive: %lf\000"
 1043      52656365 
 1043      6976653A 
 1043      20256C66 
 1043      00
 1044 002d 000000   		.space	3
 1045              	.LC3:
 1046 0030 53657420 		.ascii	"Set Current: %d\000"
 1046      43757272 
 1046      656E743A 
 1046      20256400 
 1047              	.LC4:
 1048 0040 70776D5F 		.ascii	"pwm_current: %lf\000"
 1048      63757272 
 1048      656E743A 
 1048      20256C66 
 1048      00
 1049 0051 000000   		.space	3
 1050              	.LC5:
 1051 0054 53504920 		.ascii	"SPI Send: %d\000"
 1051      53656E64 
 1051      3A202564 
 1051      00
 1052              		.text
 1053              	.Letext0:
 1054              		.file 4 "/usr/lib/gcc/arm-none-eabi/7.3.1/include/stddef.h"
 1055              		.file 5 "/usr/arm-none-eabi/include/machine/_default_types.h"
 1056              		.file 6 "/usr/arm-none-eabi/include/sys/_stdint.h"
 1057              		.file 7 "ChibiOS_3.0.2/os/rt/ports/ARMCMx/compilers/GCC/chtypes.h"
ARM GAS  /tmp/ccUe6heV.s 			page 20


 1058              		.file 8 "ChibiOS_3.0.2/os/rt/include/chsystypes.h"
 1059              		.file 9 "ChibiOS_3.0.2/os/rt/include/chschd.h"
 1060              		.file 10 "ChibiOS_3.0.2/os/ext/CMSIS/include/core_cm4.h"
 1061              		.file 11 "ChibiOS_3.0.2/os/ext/CMSIS/ST/system_stm32f4xx.h"
 1062              		.file 12 "ChibiOS_3.0.2/os/ext/CMSIS/ST/stm32f407xx.h"
 1063              		.file 13 "ChibiOS_3.0.2/os/ext/CMSIS/ST/stm32f4xx.h"
 1064              		.file 14 "ChibiOS_3.0.2/os/rt/ports/ARMCMx/chcore.h"
 1065              		.file 15 "ChibiOS_3.0.2/os/rt/ports/ARMCMx/chcore_v7m.h"
 1066              		.file 16 "ChibiOS_3.0.2/os/rt/include/chtm.h"
 1067              		.file 17 "ChibiOS_3.0.2/os/rt/include/chsem.h"
 1068              		.file 18 "ChibiOS_3.0.2/os/rt/include/chmtx.h"
 1069              		.file 19 "ChibiOS_3.0.2/os/rt/include/chevents.h"
 1070              		.file 20 "ChibiOS_3.0.2/os/rt/include/chqueues.h"
 1071              		.file 21 "./conf_general.h"
 1072              		.file 22 "ChibiOS_3.0.2/ext/stdperiph_stm32f4/inc/stm32f4xx_tim.h"
 1073              		.file 23 "ChibiOS_3.0.2/os/hal/ports/STM32/STM32F4xx/stm32_dma.h"
 1074              		.file 24 "ChibiOS_3.0.2/os/hal/ports/STM32/LLD/GPIOv2/pal_lld.h"
 1075              		.file 25 "ChibiOS_3.0.2/os/hal/include/can.h"
 1076              		.file 26 "ChibiOS_3.0.2/os/hal/ports/STM32/LLD/can_lld.h"
 1077              		.file 27 "ChibiOS_3.0.2/os/hal/include/i2c.h"
 1078              		.file 28 "ChibiOS_3.0.2/os/hal/ports/STM32/LLD/I2Cv1/i2c_lld.h"
 1079              		.file 29 "ChibiOS_3.0.2/os/hal/include/icu.h"
 1080              		.file 30 "ChibiOS_3.0.2/os/hal/ports/STM32/LLD/TIMv1/icu_lld.h"
 1081              		.file 31 "ChibiOS_3.0.2/os/hal/ports/STM32/LLD/TIMv1/stm32_tim.h"
 1082              		.file 32 "ChibiOS_3.0.2/os/hal/include/serial.h"
 1083              		.file 33 "ChibiOS_3.0.2/os/hal/ports/STM32/LLD/USARTv1/serial_lld.h"
 1084              		.file 34 "ChibiOS_3.0.2/os/hal/include/spi.h"
 1085              		.file 35 "ChibiOS_3.0.2/os/hal/ports/STM32/LLD/SPIv1/spi_lld.h"
 1086              		.file 36 "ChibiOS_3.0.2/os/hal/include/usb.h"
 1087              		.file 37 "ChibiOS_3.0.2/os/hal/ports/STM32/LLD/OTGv1/usb_lld.h"
 1088              		.file 38 "ChibiOS_3.0.2/os/hal/ports/STM32/LLD/OTGv1/stm32_otg.h"
 1089              		.file 39 "./mc_interface.h"
 1090              		.file 40 "./mcpwm.h"
 1091              		.file 41 "./commands.h"
 1092              		.file 42 "ChibiOS_3.0.2/os/rt/include/chthreads.h"
 1093              		.file 43 "./timeout.h"
 1094              		.file 44 "./mcpwm_foc.h"
 1095              		.file 45 "ChibiOS_3.0.2/ext/stdperiph_stm32f4/inc/stm32f4xx_rcc.h"
 1096              		.file 46 "ChibiOS_3.0.2/os/hal/ports/common/ARMCMx/nvic.h"