ARM GAS  /tmp/cc0YDrCi.s 			page 1


   1              		.cpu cortex-m4
   2              		.eabi_attribute 27, 1
   3              		.eabi_attribute 28, 1
   4              		.eabi_attribute 20, 1
   5              		.eabi_attribute 21, 1
   6              		.eabi_attribute 23, 3
   7              		.eabi_attribute 24, 1
   8              		.eabi_attribute 25, 1
   9              		.eabi_attribute 26, 1
  10              		.eabi_attribute 30, 2
  11              		.eabi_attribute 34, 1
  12              		.eabi_attribute 18, 4
  13              		.file	"chqueues.c"
  14              		.text
  15              	.Ltext0:
  16              		.cfi_sections	.debug_frame
  17              		.section	.text.chIQObjectInit,"ax",%progbits
  18              		.align	1
  19              		.p2align 4,,15
  20              		.global	chIQObjectInit
  21              		.syntax unified
  22              		.thumb
  23              		.thumb_func
  24              		.fpu fpv4-sp-d16
  25              		.type	chIQObjectInit, %function
  26              	chIQObjectInit:
  27              	.LFB219:
  28              		.file 1 "ChibiOS_3.0.2/os/rt/src/chqueues.c"
  29              		.loc 1 88 0
  30              		.cfi_startproc
  31              		@ args = 4, pretend = 0, frame = 0
  32              		@ frame_needed = 0, uses_anonymous_args = 0
  33              		@ link register save eliminated.
  34              	.LVL0:
  35 0000 30B4     		push	{r4, r5}
  36              		.cfi_def_cfa_offset 8
  37              		.cfi_offset 4, -8
  38              		.cfi_offset 5, -4
  39              		.loc 1 88 0
  40 0002 029C     		ldr	r4, [sp, #8]
  41              		.loc 1 97 0
  42 0004 0462     		str	r4, [r0, #32]
  43              		.loc 1 91 0
  44 0006 0025     		movs	r5, #0
  45              		.loc 1 95 0
  46 0008 0A44     		add	r2, r2, r1
  47              	.LVL1:
  48              		.loc 1 91 0
  49 000a 8560     		str	r5, [r0, #8]
  50              		.loc 1 95 0
  51 000c 0261     		str	r2, [r0, #16]
  52              	.LBB108:
  53              	.LBB109:
  54              	.LBB110:
  55              		.file 2 "ChibiOS_3.0.2/os/rt/include/chschd.h"
  56              		.loc 2 605 0
  57 000e C0E90000 		strd	r0, r0, [r0]
ARM GAS  /tmp/cc0YDrCi.s 			page 2


  58              	.LVL2:
  59              	.LBE110:
  60              	.LBE109:
  61              	.LBE108:
  62              		.loc 1 92 0
  63 0012 C160     		str	r1, [r0, #12]
  64              		.loc 1 94 0
  65 0014 C0E90511 		strd	r1, r1, [r0, #20]
  66              		.loc 1 96 0
  67 0018 C361     		str	r3, [r0, #28]
  68              		.loc 1 98 0
  69 001a 30BC     		pop	{r4, r5}
  70              		.cfi_restore 5
  71              		.cfi_restore 4
  72              		.cfi_def_cfa_offset 0
  73              	.LVL3:
  74 001c 7047     		bx	lr
  75              		.cfi_endproc
  76              	.LFE219:
  77              		.size	chIQObjectInit, .-chIQObjectInit
  78 001e 00BF     		.section	.text.chIQResetI,"ax",%progbits
  79              		.align	1
  80              		.p2align 4,,15
  81              		.global	chIQResetI
  82              		.syntax unified
  83              		.thumb
  84              		.thumb_func
  85              		.fpu fpv4-sp-d16
  86              		.type	chIQResetI, %function
  87              	chIQResetI:
  88              	.LFB220:
  89              		.loc 1 111 0
  90              		.cfi_startproc
  91              		@ args = 0, pretend = 0, frame = 0
  92              		@ frame_needed = 0, uses_anonymous_args = 0
  93              		@ link register save eliminated.
  94              	.LVL4:
  95              		.loc 1 115 0
  96 0000 C268     		ldr	r2, [r0, #12]
  97              		.loc 1 117 0
  98 0002 0021     		movs	r1, #0
  99 0004 8160     		str	r1, [r0, #8]
 100              		.loc 1 116 0
 101 0006 C0E90522 		strd	r2, r2, [r0, #20]
 102              		.loc 1 118 0
 103 000a 6FF00101 		mvn	r1, #1
 104 000e FFF7FEBF 		b	chThdDequeueAllI
 105              	.LVL5:
 106              		.cfi_endproc
 107              	.LFE220:
 108              		.size	chIQResetI, .-chIQResetI
 109 0012 00BF     		.section	.text.chIQPutI,"ax",%progbits
 110              		.align	1
 111              		.p2align 4,,15
 112              		.global	chIQPutI
 113              		.syntax unified
 114              		.thumb
ARM GAS  /tmp/cc0YDrCi.s 			page 3


 115              		.thumb_func
 116              		.fpu fpv4-sp-d16
 117              		.type	chIQPutI, %function
 118              	chIQPutI:
 119              	.LFB221:
 120              		.loc 1 134 0
 121              		.cfi_startproc
 122              		@ args = 0, pretend = 0, frame = 0
 123              		@ frame_needed = 0, uses_anonymous_args = 0
 124              	.LVL6:
 125              	.LBB111:
 126              	.LBB112:
 127              		.file 3 "ChibiOS_3.0.2/os/rt/include/chqueues.h"
 128              		.loc 3 324 0
 129 0000 D0E90532 		ldrd	r3, r2, [r0, #20]
 130 0004 9342     		cmp	r3, r2
 131 0006 11D0     		beq	.L14
 132              	.L6:
 133              	.LVL7:
 134              	.LBE112:
 135              	.LBE111:
 136              		.loc 1 142 0
 137 0008 8268     		ldr	r2, [r0, #8]
 138              		.loc 1 134 0
 139 000a 10B5     		push	{r4, lr}
 140              		.cfi_def_cfa_offset 8
 141              		.cfi_offset 4, -8
 142              		.cfi_offset 14, -4
 143              		.loc 1 142 0
 144 000c 0132     		adds	r2, r2, #1
 145              		.loc 1 143 0
 146 000e 5C1C     		adds	r4, r3, #1
 147              		.loc 1 142 0
 148 0010 8260     		str	r2, [r0, #8]
 149              		.loc 1 143 0
 150 0012 4461     		str	r4, [r0, #20]
 151 0014 1970     		strb	r1, [r3]
 152              		.loc 1 144 0
 153 0016 D0E90432 		ldrd	r3, r2, [r0, #16]
 154 001a 9A42     		cmp	r2, r3
 155 001c 01D3     		bcc	.L9
 156              		.loc 1 145 0
 157 001e C368     		ldr	r3, [r0, #12]
 158 0020 4361     		str	r3, [r0, #20]
 159              	.L9:
 160              		.loc 1 148 0
 161 0022 0021     		movs	r1, #0
 162              	.LVL8:
 163 0024 FFF7FEFF 		bl	chThdDequeueNextI
 164              	.LVL9:
 165              		.loc 1 150 0
 166 0028 0020     		movs	r0, #0
 167              		.loc 1 151 0
 168 002a 10BD     		pop	{r4, pc}
 169              	.LVL10:
 170              	.L14:
 171              		.cfi_def_cfa_offset 0
ARM GAS  /tmp/cc0YDrCi.s 			page 4


 172              		.cfi_restore 4
 173              		.cfi_restore 14
 174              	.LBB114:
 175              	.LBB113:
 176              		.loc 3 324 0
 177 002c 8268     		ldr	r2, [r0, #8]
 178 002e 002A     		cmp	r2, #0
 179 0030 EAD0     		beq	.L6
 180              	.LBE113:
 181              	.LBE114:
 182              		.loc 1 139 0
 183 0032 6FF00300 		mvn	r0, #3
 184              	.LVL11:
 185              		.loc 1 151 0
 186 0036 7047     		bx	lr
 187              		.cfi_endproc
 188              	.LFE221:
 189              		.size	chIQPutI, .-chIQPutI
 190              		.section	.text.chIQGetTimeout,"ax",%progbits
 191              		.align	1
 192              		.p2align 4,,15
 193              		.global	chIQGetTimeout
 194              		.syntax unified
 195              		.thumb
 196              		.thumb_func
 197              		.fpu fpv4-sp-d16
 198              		.type	chIQGetTimeout, %function
 199              	chIQGetTimeout:
 200              	.LFB222:
 201              		.loc 1 173 0
 202              		.cfi_startproc
 203              		@ args = 0, pretend = 0, frame = 0
 204              		@ frame_needed = 0, uses_anonymous_args = 0
 205              	.LVL12:
 206 0000 38B5     		push	{r3, r4, r5, lr}
 207              		.cfi_def_cfa_offset 16
 208              		.cfi_offset 3, -16
 209              		.cfi_offset 4, -12
 210              		.cfi_offset 5, -8
 211              		.cfi_offset 14, -4
 212              		.loc 1 173 0
 213 0002 0D46     		mov	r5, r1
 214 0004 0446     		mov	r4, r0
 215              	.LBB115:
 216              	.LBB116:
 217              	.LBB117:
 218              	.LBB118:
 219              		.file 4 "ChibiOS_3.0.2/os/ext/CMSIS/include/core_cmFunc.h"
 220              		.loc 4 342 0
 221              		.syntax unified
 222              	@ 342 "ChibiOS_3.0.2/os/ext/CMSIS/include/core_cmFunc.h" 1
 223 0006 72B6     		cpsid i
 224              	@ 0 "" 2
 225              		.thumb
 226              		.syntax unified
 227              	.LBE118:
 228              	.LBE117:
ARM GAS  /tmp/cc0YDrCi.s 			page 5


 229              	.LBE116:
 230              	.LBE115:
 231              		.loc 1 177 0
 232 0008 C369     		ldr	r3, [r0, #28]
 233 000a 2BB1     		cbz	r3, .L17
 234              		.loc 1 178 0
 235 000c 9847     		blx	r3
 236              	.LVL13:
 237 000e 03E0     		b	.L17
 238              	.LVL14:
 239              	.L19:
 240              	.LBB119:
 241              		.loc 1 182 0
 242 0010 FFF7FEFF 		bl	chThdEnqueueTimeoutS
 243              	.LVL15:
 244              		.loc 1 183 0
 245 0014 0028     		cmp	r0, #0
 246 0016 11DB     		blt	.L20
 247              	.LVL16:
 248              	.L17:
 249              	.LBE119:
 250              	.LBB120:
 251              	.LBB121:
 252              		.loc 3 307 0
 253 0018 A368     		ldr	r3, [r4, #8]
 254              	.LVL17:
 255              	.LBE121:
 256              	.LBE120:
 257              	.LBB122:
 258              		.loc 1 182 0
 259 001a 2946     		mov	r1, r5
 260 001c 2046     		mov	r0, r4
 261              	.LBE122:
 262              		.loc 1 181 0
 263 001e 002B     		cmp	r3, #0
 264 0020 F6D0     		beq	.L19
 265              	.LVL18:
 266              		.loc 1 190 0
 267 0022 A169     		ldr	r1, [r4, #24]
 268              	.LVL19:
 269              		.loc 1 189 0
 270 0024 A368     		ldr	r3, [r4, #8]
 271              		.loc 1 191 0
 272 0026 2569     		ldr	r5, [r4, #16]
 273              	.LVL20:
 274              		.loc 1 190 0
 275 0028 4A1C     		adds	r2, r1, #1
 276              		.loc 1 189 0
 277 002a 013B     		subs	r3, r3, #1
 278              		.loc 1 191 0
 279 002c AA42     		cmp	r2, r5
 280              		.loc 1 189 0
 281 002e A360     		str	r3, [r4, #8]
 282              		.loc 1 190 0
 283 0030 A261     		str	r2, [r4, #24]
 284              		.loc 1 192 0
 285 0032 28BF     		it	cs
ARM GAS  /tmp/cc0YDrCi.s 			page 6


 286 0034 E368     		ldrcs	r3, [r4, #12]
 287              		.loc 1 190 0
 288 0036 0878     		ldrb	r0, [r1]	@ zero_extendqisi2
 289              	.LVL21:
 290              		.loc 1 192 0
 291 0038 28BF     		it	cs
 292 003a A361     		strcs	r3, [r4, #24]
 293              	.LVL22:
 294              	.L20:
 295              	.LBB123:
 296              	.LBB124:
 297              	.LBB125:
 298              	.LBB126:
 299              	.LBB127:
 300              		.loc 4 331 0
 301              		.syntax unified
 302              	@ 331 "ChibiOS_3.0.2/os/ext/CMSIS/include/core_cmFunc.h" 1
 303 003c 62B6     		cpsie i
 304              	@ 0 "" 2
 305              		.thumb
 306              		.syntax unified
 307              	.LBE127:
 308              	.LBE126:
 309              	.LBE125:
 310              	.LBE124:
 311              	.LBE123:
 312              		.loc 1 197 0
 313 003e 38BD     		pop	{r3, r4, r5, pc}
 314              		.cfi_endproc
 315              	.LFE222:
 316              		.size	chIQGetTimeout, .-chIQGetTimeout
 317              		.section	.text.chIQReadTimeout,"ax",%progbits
 318              		.align	1
 319              		.p2align 4,,15
 320              		.global	chIQReadTimeout
 321              		.syntax unified
 322              		.thumb
 323              		.thumb_func
 324              		.fpu fpv4-sp-d16
 325              		.type	chIQReadTimeout, %function
 326              	chIQReadTimeout:
 327              	.LFB223:
 328              		.loc 1 224 0
 329              		.cfi_startproc
 330              		@ args = 0, pretend = 0, frame = 0
 331              		@ frame_needed = 0, uses_anonymous_args = 0
 332              	.LVL23:
 333 0000 2DE9F843 		push	{r3, r4, r5, r6, r7, r8, r9, lr}
 334              		.cfi_def_cfa_offset 32
 335              		.cfi_offset 3, -32
 336              		.cfi_offset 4, -28
 337              		.cfi_offset 5, -24
 338              		.cfi_offset 6, -20
 339              		.cfi_offset 7, -16
 340              		.cfi_offset 8, -12
 341              		.cfi_offset 9, -8
 342              		.cfi_offset 14, -4
ARM GAS  /tmp/cc0YDrCi.s 			page 7


 343              		.loc 1 224 0
 344 0004 0446     		mov	r4, r0
 345 0006 8846     		mov	r8, r1
 346 0008 9146     		mov	r9, r2
 347 000a 1D46     		mov	r5, r3
 348              		.loc 1 225 0
 349 000c C769     		ldr	r7, [r0, #28]
 350              	.LVL24:
 351              	.LBB128:
 352              	.LBB129:
 353              	.LBB130:
 354              	.LBB131:
 355              		.loc 4 342 0
 356              		.syntax unified
 357              	@ 342 "ChibiOS_3.0.2/os/ext/CMSIS/include/core_cmFunc.h" 1
 358 000e 72B6     		cpsid i
 359              	@ 0 "" 2
 360              		.thumb
 361              		.syntax unified
 362              	.LBE131:
 363              	.LBE130:
 364              	.LBE129:
 365              	.LBE128:
 366              		.loc 1 226 0
 367 0010 0026     		movs	r6, #0
 368              	.LVL25:
 369              	.L32:
 370              		.loc 1 232 0
 371 0012 2FB1     		cbz	r7, .L28
 372              		.loc 1 233 0
 373 0014 2046     		mov	r0, r4
 374              	.LVL26:
 375 0016 B847     		blx	r7
 376              	.LVL27:
 377 0018 02E0     		b	.L28
 378              	.LVL28:
 379              	.L30:
 380              		.loc 1 237 0
 381 001a FFF7FEFF 		bl	chThdEnqueueTimeoutS
 382              	.LVL29:
 383 001e C8B9     		cbnz	r0, .L39
 384              	.L28:
 385              	.LVL30:
 386              	.LBB132:
 387              	.LBB133:
 388              		.loc 3 307 0
 389 0020 A368     		ldr	r3, [r4, #8]
 390              	.LVL31:
 391              	.LBE133:
 392              	.LBE132:
 393              		.loc 1 237 0
 394 0022 2946     		mov	r1, r5
 395 0024 2046     		mov	r0, r4
 396              		.loc 1 236 0
 397 0026 002B     		cmp	r3, #0
 398 0028 F7D0     		beq	.L30
 399              	.LVL32:
ARM GAS  /tmp/cc0YDrCi.s 			page 8


 400              		.loc 1 244 0
 401 002a A269     		ldr	r2, [r4, #24]
 402              		.loc 1 243 0
 403 002c A368     		ldr	r3, [r4, #8]
 404              		.loc 1 244 0
 405 002e 511C     		adds	r1, r2, #1
 406              	.LVL33:
 407              		.loc 1 243 0
 408 0030 013B     		subs	r3, r3, #1
 409              		.loc 1 244 0
 410 0032 A161     		str	r1, [r4, #24]
 411              		.loc 1 243 0
 412 0034 A360     		str	r3, [r4, #8]
 413              		.loc 1 244 0
 414 0036 1378     		ldrb	r3, [r2]	@ zero_extendqisi2
 415 0038 08F8013B 		strb	r3, [r8], #1
 416              	.LVL34:
 417              		.loc 1 245 0
 418 003c 2369     		ldr	r3, [r4, #16]
 419 003e A269     		ldr	r2, [r4, #24]
 420 0040 9A42     		cmp	r2, r3
 421              		.loc 1 246 0
 422 0042 24BF     		itt	cs
 423 0044 E368     		ldrcs	r3, [r4, #12]
 424 0046 A361     		strcs	r3, [r4, #24]
 425              	.LBB134:
 426              	.LBB135:
 427              	.LBB136:
 428              	.LBB137:
 429              	.LBB138:
 430              		.loc 4 331 0
 431              		.syntax unified
 432              	@ 331 "ChibiOS_3.0.2/os/ext/CMSIS/include/core_cmFunc.h" 1
 433 0048 62B6     		cpsie i
 434              	@ 0 "" 2
 435              		.thumb
 436              		.syntax unified
 437              	.LBE138:
 438              	.LBE137:
 439              	.LBE136:
 440              	.LBE135:
 441              	.LBE134:
 442              		.loc 1 250 0
 443 004a 0136     		adds	r6, r6, #1
 444              	.LVL35:
 445              		.loc 1 251 0
 446 004c B145     		cmp	r9, r6
 447 004e 02D0     		beq	.L26
 448              	.LBB139:
 449              	.LBB140:
 450              	.LBB141:
 451              	.LBB142:
 452              		.loc 4 342 0
 453              		.syntax unified
 454              	@ 342 "ChibiOS_3.0.2/os/ext/CMSIS/include/core_cmFunc.h" 1
 455 0050 72B6     		cpsid i
 456              	@ 0 "" 2
ARM GAS  /tmp/cc0YDrCi.s 			page 9


 457              		.thumb
 458              		.syntax unified
 459 0052 DEE7     		b	.L32
 460              	.LVL36:
 461              	.L39:
 462              	.LBE142:
 463              	.LBE141:
 464              	.LBE140:
 465              	.LBE139:
 466              	.LBB143:
 467              	.LBB144:
 468              	.LBB145:
 469              	.LBB146:
 470              	.LBB147:
 471              		.loc 4 331 0
 472              		.syntax unified
 473              	@ 331 "ChibiOS_3.0.2/os/ext/CMSIS/include/core_cmFunc.h" 1
 474 0054 62B6     		cpsie i
 475              	@ 0 "" 2
 476              	.LVL37:
 477              		.thumb
 478              		.syntax unified
 479              	.L26:
 480              	.LBE147:
 481              	.LBE146:
 482              	.LBE145:
 483              	.LBE144:
 484              	.LBE143:
 485              		.loc 1 257 0
 486 0056 3046     		mov	r0, r6
 487 0058 BDE8F883 		pop	{r3, r4, r5, r6, r7, r8, r9, pc}
 488              		.cfi_endproc
 489              	.LFE223:
 490              		.size	chIQReadTimeout, .-chIQReadTimeout
 491              		.section	.text.chOQObjectInit,"ax",%progbits
 492              		.align	1
 493              		.p2align 4,,15
 494              		.global	chOQObjectInit
 495              		.syntax unified
 496              		.thumb
 497              		.thumb_func
 498              		.fpu fpv4-sp-d16
 499              		.type	chOQObjectInit, %function
 500              	chOQObjectInit:
 501              	.LFB224:
 502              		.loc 1 276 0
 503              		.cfi_startproc
 504              		@ args = 4, pretend = 0, frame = 0
 505              		@ frame_needed = 0, uses_anonymous_args = 0
 506              		@ link register save eliminated.
 507              	.LVL38:
 508 0000 30B4     		push	{r4, r5}
 509              		.cfi_def_cfa_offset 8
 510              		.cfi_offset 4, -8
 511              		.cfi_offset 5, -4
 512              		.loc 1 276 0
 513 0002 029C     		ldr	r4, [sp, #8]
ARM GAS  /tmp/cc0YDrCi.s 			page 10


 514              		.loc 1 279 0
 515 0004 8260     		str	r2, [r0, #8]
 516              		.loc 1 283 0
 517 0006 8D18     		adds	r5, r1, r2
 518              		.loc 1 280 0
 519 0008 C0E90315 		strd	r1, r5, [r0, #12]
 520              		.loc 1 285 0
 521 000c C0E90734 		strd	r3, r4, [r0, #28]
 522              	.LBB148:
 523              	.LBB149:
 524              	.LBB150:
 525              		.loc 2 605 0
 526 0010 C0E90000 		strd	r0, r0, [r0]
 527              	.LVL39:
 528              	.LBE150:
 529              	.LBE149:
 530              	.LBE148:
 531              		.loc 1 282 0
 532 0014 C0E90511 		strd	r1, r1, [r0, #20]
 533              		.loc 1 286 0
 534 0018 30BC     		pop	{r4, r5}
 535              		.cfi_restore 5
 536              		.cfi_restore 4
 537              		.cfi_def_cfa_offset 0
 538              	.LVL40:
 539 001a 7047     		bx	lr
 540              		.cfi_endproc
 541              	.LFE224:
 542              		.size	chOQObjectInit, .-chOQObjectInit
 543              		.section	.text.chOQResetI,"ax",%progbits
 544              		.align	1
 545              		.p2align 4,,15
 546              		.global	chOQResetI
 547              		.syntax unified
 548              		.thumb
 549              		.thumb_func
 550              		.fpu fpv4-sp-d16
 551              		.type	chOQResetI, %function
 552              	chOQResetI:
 553              	.LFB225:
 554              		.loc 1 299 0
 555              		.cfi_startproc
 556              		@ args = 0, pretend = 0, frame = 0
 557              		@ frame_needed = 0, uses_anonymous_args = 0
 558              		@ link register save eliminated.
 559              	.LVL41:
 560 0000 10B4     		push	{r4}
 561              		.cfi_def_cfa_offset 4
 562              		.cfi_offset 4, -4
 563              		.loc 1 305 0
 564 0002 D0E90342 		ldrd	r4, r2, [r0, #12]
 565 0006 121B     		subs	r2, r2, r4
 566              		.loc 1 303 0
 567 0008 8461     		str	r4, [r0, #24]
 568              		.loc 1 304 0
 569 000a 4461     		str	r4, [r0, #20]
 570              		.loc 1 306 0
ARM GAS  /tmp/cc0YDrCi.s 			page 11


 571 000c 6FF00101 		mvn	r1, #1
 572              		.loc 1 305 0
 573 0010 8260     		str	r2, [r0, #8]
 574              		.loc 1 307 0
 575 0012 5DF8044B 		ldr	r4, [sp], #4
 576              		.cfi_restore 4
 577              		.cfi_def_cfa_offset 0
 578              		.loc 1 306 0
 579 0016 FFF7FEBF 		b	chThdDequeueAllI
 580              	.LVL42:
 581              		.cfi_endproc
 582              	.LFE225:
 583              		.size	chOQResetI, .-chOQResetI
 584 001a 00BF     		.section	.text.chOQPutTimeout,"ax",%progbits
 585              		.align	1
 586              		.p2align 4,,15
 587              		.global	chOQPutTimeout
 588              		.syntax unified
 589              		.thumb
 590              		.thumb_func
 591              		.fpu fpv4-sp-d16
 592              		.type	chOQPutTimeout, %function
 593              	chOQPutTimeout:
 594              	.LFB226:
 595              		.loc 1 331 0
 596              		.cfi_startproc
 597              		@ args = 0, pretend = 0, frame = 0
 598              		@ frame_needed = 0, uses_anonymous_args = 0
 599              	.LVL43:
 600 0000 70B5     		push	{r4, r5, r6, lr}
 601              		.cfi_def_cfa_offset 16
 602              		.cfi_offset 4, -16
 603              		.cfi_offset 5, -12
 604              		.cfi_offset 6, -8
 605              		.cfi_offset 14, -4
 606              		.loc 1 331 0
 607 0002 0446     		mov	r4, r0
 608 0004 0E46     		mov	r6, r1
 609 0006 1546     		mov	r5, r2
 610              	.LBB151:
 611              	.LBB152:
 612              	.LBB153:
 613              	.LBB154:
 614              		.loc 4 342 0
 615              		.syntax unified
 616              	@ 342 "ChibiOS_3.0.2/os/ext/CMSIS/include/core_cmFunc.h" 1
 617 0008 72B6     		cpsid i
 618              	@ 0 "" 2
 619              		.thumb
 620              		.syntax unified
 621 000a 03E0     		b	.L45
 622              	.LVL44:
 623              	.L47:
 624              	.LBE154:
 625              	.LBE153:
 626              	.LBE152:
 627              	.LBE151:
ARM GAS  /tmp/cc0YDrCi.s 			page 12


 628              	.LBB155:
 629              		.loc 1 335 0
 630 000c FFF7FEFF 		bl	chThdEnqueueTimeoutS
 631              	.LVL45:
 632              		.loc 1 336 0
 633 0010 0028     		cmp	r0, #0
 634 0012 17DB     		blt	.L55
 635              	.LVL46:
 636              	.L45:
 637              	.LBE155:
 638              	.LBB161:
 639              	.LBB162:
 640              		.loc 3 407 0
 641 0014 A368     		ldr	r3, [r4, #8]
 642              	.LVL47:
 643              	.LBE162:
 644              	.LBE161:
 645              	.LBB163:
 646              		.loc 1 335 0
 647 0016 2946     		mov	r1, r5
 648 0018 2046     		mov	r0, r4
 649              	.LBE163:
 650              		.loc 1 334 0
 651 001a 002B     		cmp	r3, #0
 652 001c F6D0     		beq	.L47
 653              	.LVL48:
 654              		.loc 1 343 0
 655 001e 6269     		ldr	r2, [r4, #20]
 656              		.loc 1 342 0
 657 0020 A368     		ldr	r3, [r4, #8]
 658              		.loc 1 343 0
 659 0022 511C     		adds	r1, r2, #1
 660              	.LVL49:
 661              		.loc 1 342 0
 662 0024 013B     		subs	r3, r3, #1
 663              		.loc 1 343 0
 664 0026 6161     		str	r1, [r4, #20]
 665              		.loc 1 342 0
 666 0028 A360     		str	r3, [r4, #8]
 667              		.loc 1 343 0
 668 002a 1670     		strb	r6, [r2]
 669              		.loc 1 344 0
 670 002c D4E90432 		ldrd	r3, r2, [r4, #16]
 671 0030 9A42     		cmp	r2, r3
 672              		.loc 1 345 0
 673 0032 24BF     		itt	cs
 674 0034 E368     		ldrcs	r3, [r4, #12]
 675 0036 6361     		strcs	r3, [r4, #20]
 676              		.loc 1 348 0
 677 0038 E369     		ldr	r3, [r4, #28]
 678 003a 03B1     		cbz	r3, .L49
 679              		.loc 1 349 0
 680 003c 9847     		blx	r3
 681              	.LVL50:
 682              	.L49:
 683              	.LBB164:
 684              	.LBB165:
ARM GAS  /tmp/cc0YDrCi.s 			page 13


 685              	.LBB166:
 686              	.LBB167:
 687              	.LBB168:
 688              		.loc 4 331 0
 689              		.syntax unified
 690              	@ 331 "ChibiOS_3.0.2/os/ext/CMSIS/include/core_cmFunc.h" 1
 691 003e 62B6     		cpsie i
 692              	@ 0 "" 2
 693              		.thumb
 694              		.syntax unified
 695              	.LBE168:
 696              	.LBE167:
 697              	.LBE166:
 698              	.LBE165:
 699              	.LBE164:
 700              		.loc 1 353 0
 701 0040 0020     		movs	r0, #0
 702              		.loc 1 354 0
 703 0042 70BD     		pop	{r4, r5, r6, pc}
 704              	.LVL51:
 705              	.L55:
 706              	.LBB169:
 707              	.LBB156:
 708              	.LBB157:
 709              	.LBB158:
 710              	.LBB159:
 711              	.LBB160:
 712              		.loc 4 331 0
 713              		.syntax unified
 714              	@ 331 "ChibiOS_3.0.2/os/ext/CMSIS/include/core_cmFunc.h" 1
 715 0044 62B6     		cpsie i
 716              	@ 0 "" 2
 717              		.thumb
 718              		.syntax unified
 719              	.LBE160:
 720              	.LBE159:
 721              	.LBE158:
 722              	.LBE157:
 723              	.LBE156:
 724              	.LBE169:
 725              		.loc 1 354 0
 726 0046 70BD     		pop	{r4, r5, r6, pc}
 727              		.cfi_endproc
 728              	.LFE226:
 729              		.size	chOQPutTimeout, .-chOQPutTimeout
 730              		.section	.text.chOQGetI,"ax",%progbits
 731              		.align	1
 732              		.p2align 4,,15
 733              		.global	chOQGetI
 734              		.syntax unified
 735              		.thumb
 736              		.thumb_func
 737              		.fpu fpv4-sp-d16
 738              		.type	chOQGetI, %function
 739              	chOQGetI:
 740              	.LFB227:
 741              		.loc 1 366 0
ARM GAS  /tmp/cc0YDrCi.s 			page 14


 742              		.cfi_startproc
 743              		@ args = 0, pretend = 0, frame = 0
 744              		@ frame_needed = 0, uses_anonymous_args = 0
 745              	.LVL52:
 746 0000 38B5     		push	{r3, r4, r5, lr}
 747              		.cfi_def_cfa_offset 16
 748              		.cfi_offset 3, -16
 749              		.cfi_offset 4, -12
 750              		.cfi_offset 5, -8
 751              		.cfi_offset 14, -4
 752              	.LBB170:
 753              	.LBB171:
 754              		.loc 3 390 0
 755 0002 D0E90523 		ldrd	r2, r3, [r0, #20]
 756 0006 9A42     		cmp	r2, r3
 757 0008 0FD0     		beq	.L63
 758              	.L57:
 759              	.LVL53:
 760              	.LBE171:
 761              	.LBE170:
 762              		.loc 1 375 0
 763 000a 8268     		ldr	r2, [r0, #8]
 764              		.loc 1 377 0
 765 000c 0569     		ldr	r5, [r0, #16]
 766              		.loc 1 376 0
 767 000e 591C     		adds	r1, r3, #1
 768              		.loc 1 375 0
 769 0010 0132     		adds	r2, r2, #1
 770 0012 8260     		str	r2, [r0, #8]
 771              		.loc 1 376 0
 772 0014 8161     		str	r1, [r0, #24]
 773              		.loc 1 377 0
 774 0016 A942     		cmp	r1, r5
 775              		.loc 1 376 0
 776 0018 1C78     		ldrb	r4, [r3]	@ zero_extendqisi2
 777              	.LVL54:
 778              		.loc 1 377 0
 779 001a 01D3     		bcc	.L60
 780              		.loc 1 378 0
 781 001c C368     		ldr	r3, [r0, #12]
 782 001e 8361     		str	r3, [r0, #24]
 783              	.L60:
 784              		.loc 1 381 0
 785 0020 0021     		movs	r1, #0
 786 0022 FFF7FEFF 		bl	chThdDequeueNextI
 787              	.LVL55:
 788              		.loc 1 383 0
 789 0026 2046     		mov	r0, r4
 790              		.loc 1 384 0
 791 0028 38BD     		pop	{r3, r4, r5, pc}
 792              	.LVL56:
 793              	.L63:
 794              	.LBB173:
 795              	.LBB172:
 796              		.loc 3 390 0
 797 002a 8268     		ldr	r2, [r0, #8]
 798 002c 002A     		cmp	r2, #0
ARM GAS  /tmp/cc0YDrCi.s 			page 15


 799 002e ECD0     		beq	.L57
 800              	.LBE172:
 801              	.LBE173:
 802              		.loc 1 372 0
 803 0030 6FF00200 		mvn	r0, #2
 804              	.LVL57:
 805              		.loc 1 384 0
 806 0034 38BD     		pop	{r3, r4, r5, pc}
 807              		.cfi_endproc
 808              	.LFE227:
 809              		.size	chOQGetI, .-chOQGetI
 810 0036 00BF     		.section	.text.chOQWriteTimeout,"ax",%progbits
 811              		.align	1
 812              		.p2align 4,,15
 813              		.global	chOQWriteTimeout
 814              		.syntax unified
 815              		.thumb
 816              		.thumb_func
 817              		.fpu fpv4-sp-d16
 818              		.type	chOQWriteTimeout, %function
 819              	chOQWriteTimeout:
 820              	.LFB228:
 821              		.loc 1 411 0
 822              		.cfi_startproc
 823              		@ args = 0, pretend = 0, frame = 0
 824              		@ frame_needed = 0, uses_anonymous_args = 0
 825              	.LVL58:
 826 0000 2DE9F047 		push	{r4, r5, r6, r7, r8, r9, r10, lr}
 827              		.cfi_def_cfa_offset 32
 828              		.cfi_offset 4, -32
 829              		.cfi_offset 5, -28
 830              		.cfi_offset 6, -24
 831              		.cfi_offset 7, -20
 832              		.cfi_offset 8, -16
 833              		.cfi_offset 9, -12
 834              		.cfi_offset 10, -8
 835              		.cfi_offset 14, -4
 836              		.loc 1 411 0
 837 0004 0446     		mov	r4, r0
 838 0006 0D46     		mov	r5, r1
 839 0008 1646     		mov	r6, r2
 840 000a 9946     		mov	r9, r3
 841              		.loc 1 412 0
 842 000c D0F81C80 		ldr	r8, [r0, #28]
 843              	.LVL59:
 844              	.LBB174:
 845              	.LBB175:
 846              	.LBB176:
 847              	.LBB177:
 848              		.loc 4 342 0
 849              		.syntax unified
 850              	@ 342 "ChibiOS_3.0.2/os/ext/CMSIS/include/core_cmFunc.h" 1
 851 0010 72B6     		cpsid i
 852              	@ 0 "" 2
 853              		.thumb
 854              		.syntax unified
 855              	.LBE177:
ARM GAS  /tmp/cc0YDrCi.s 			page 16


 856              	.LBE176:
 857              	.LBE175:
 858              	.LBE174:
 859              		.loc 1 413 0
 860 0012 0027     		movs	r7, #0
 861              	.LVL60:
 862              	.L65:
 863              	.LBB178:
 864              	.LBB179:
 865              		.loc 3 407 0
 866 0014 A368     		ldr	r3, [r4, #8]
 867              	.LVL61:
 868              	.LBE179:
 869              	.LBE178:
 870              		.loc 1 427 0
 871 0016 05F1010A 		add	r10, r5, #1
 872              	.LVL62:
 873              		.loc 1 433 0
 874 001a 2046     		mov	r0, r4
 875              		.loc 1 419 0
 876 001c F3B1     		cbz	r3, .L68
 877              	.LVL63:
 878              	.L81:
 879              		.loc 1 427 0
 880 001e 6269     		ldr	r2, [r4, #20]
 881              		.loc 1 426 0
 882 0020 A368     		ldr	r3, [r4, #8]
 883              		.loc 1 427 0
 884 0022 511C     		adds	r1, r2, #1
 885              		.loc 1 426 0
 886 0024 013B     		subs	r3, r3, #1
 887              		.loc 1 427 0
 888 0026 6161     		str	r1, [r4, #20]
 889              		.loc 1 426 0
 890 0028 A360     		str	r3, [r4, #8]
 891              		.loc 1 427 0
 892 002a 2B78     		ldrb	r3, [r5]	@ zero_extendqisi2
 893 002c 1370     		strb	r3, [r2]
 894              		.loc 1 428 0
 895 002e D4E90432 		ldrd	r3, r2, [r4, #16]
 896 0032 9A42     		cmp	r2, r3
 897              		.loc 1 429 0
 898 0034 24BF     		itt	cs
 899 0036 E368     		ldrcs	r3, [r4, #12]
 900 0038 6361     		strcs	r3, [r4, #20]
 901              		.loc 1 432 0
 902 003a B8F1000F 		cmp	r8, #0
 903 003e 00D0     		beq	.L70
 904              		.loc 1 433 0
 905 0040 C047     		blx	r8
 906              	.LVL64:
 907              	.L70:
 908              	.LBB181:
 909              	.LBB182:
 910              	.LBB183:
 911              	.LBB184:
 912              	.LBB185:
ARM GAS  /tmp/cc0YDrCi.s 			page 17


 913              		.loc 4 331 0
 914              		.syntax unified
 915              	@ 331 "ChibiOS_3.0.2/os/ext/CMSIS/include/core_cmFunc.h" 1
 916 0042 62B6     		cpsie i
 917              	@ 0 "" 2
 918              		.thumb
 919              		.syntax unified
 920              	.LBE185:
 921              	.LBE184:
 922              	.LBE183:
 923              	.LBE182:
 924              	.LBE181:
 925              		.loc 1 438 0
 926 0044 013E     		subs	r6, r6, #1
 927              	.LVL65:
 928              		.loc 1 437 0
 929 0046 07F10107 		add	r7, r7, #1
 930              	.LVL66:
 931              		.loc 1 438 0
 932 004a 0ED0     		beq	.L64
 933              	.LBB186:
 934              	.LBB187:
 935              	.LBB188:
 936              	.LBB189:
 937              		.loc 4 342 0
 938              		.syntax unified
 939              	@ 342 "ChibiOS_3.0.2/os/ext/CMSIS/include/core_cmFunc.h" 1
 940 004c 72B6     		cpsid i
 941              	@ 0 "" 2
 942              		.thumb
 943              		.syntax unified
 944              	.LBE189:
 945              	.LBE188:
 946              	.LBE187:
 947              	.LBE186:
 948              	.LBB190:
 949              	.LBB180:
 950              		.loc 3 407 0
 951 004e A368     		ldr	r3, [r4, #8]
 952              	.LBE180:
 953              	.LBE190:
 954              		.loc 1 427 0
 955 0050 5546     		mov	r5, r10
 956              	.LVL67:
 957 0052 05F1010A 		add	r10, r5, #1
 958              	.LVL68:
 959              		.loc 1 433 0
 960 0056 2046     		mov	r0, r4
 961              		.loc 1 419 0
 962 0058 002B     		cmp	r3, #0
 963 005a E0D1     		bne	.L81
 964              	.LVL69:
 965              	.L68:
 966              		.loc 1 420 0
 967 005c 4946     		mov	r1, r9
 968 005e 2046     		mov	r0, r4
 969              	.LVL70:
ARM GAS  /tmp/cc0YDrCi.s 			page 18


 970 0060 FFF7FEFF 		bl	chThdEnqueueTimeoutS
 971              	.LVL71:
 972 0064 0028     		cmp	r0, #0
 973 0066 D5D0     		beq	.L65
 974              	.LBB191:
 975              	.LBB192:
 976              	.LBB193:
 977              	.LBB194:
 978              	.LBB195:
 979              		.loc 4 331 0
 980              		.syntax unified
 981              	@ 331 "ChibiOS_3.0.2/os/ext/CMSIS/include/core_cmFunc.h" 1
 982 0068 62B6     		cpsie i
 983              	@ 0 "" 2
 984              	.LVL72:
 985              		.thumb
 986              		.syntax unified
 987              	.L64:
 988              	.LBE195:
 989              	.LBE194:
 990              	.LBE193:
 991              	.LBE192:
 992              	.LBE191:
 993              		.loc 1 443 0
 994 006a 3846     		mov	r0, r7
 995 006c BDE8F087 		pop	{r4, r5, r6, r7, r8, r9, r10, pc}
 996              		.cfi_endproc
 997              	.LFE228:
 998              		.size	chOQWriteTimeout, .-chOQWriteTimeout
 999              		.text
 1000              	.Letext0:
 1001              		.file 5 "/usr/lib/gcc/arm-none-eabi/7.3.1/include/stddef.h"
 1002              		.file 6 "/usr/arm-none-eabi/include/machine/_default_types.h"
 1003              		.file 7 "/usr/arm-none-eabi/include/sys/_stdint.h"
 1004              		.file 8 "ChibiOS_3.0.2/os/rt/ports/ARMCMx/compilers/GCC/chtypes.h"
 1005              		.file 9 "ChibiOS_3.0.2/os/rt/include/chsystypes.h"
 1006              		.file 10 "ChibiOS_3.0.2/os/ext/CMSIS/include/core_cm4.h"
 1007              		.file 11 "ChibiOS_3.0.2/os/ext/CMSIS/ST/system_stm32f4xx.h"
 1008              		.file 12 "ChibiOS_3.0.2/os/rt/ports/ARMCMx/chcore.h"
 1009              		.file 13 "ChibiOS_3.0.2/os/rt/ports/ARMCMx/chcore_v7m.h"
 1010              		.file 14 "ChibiOS_3.0.2/os/rt/include/chtm.h"
 1011              		.file 15 "ChibiOS_3.0.2/os/rt/include/chsem.h"
 1012              		.file 16 "ChibiOS_3.0.2/os/rt/include/chmtx.h"
 1013              		.file 17 "ChibiOS_3.0.2/os/rt/include/chregistry.h"
 1014              		.file 18 "ChibiOS_3.0.2/os/rt/include/chsys.h"
 1015              		.file 19 "ChibiOS_3.0.2/os/rt/include/chthreads.h"
 1016              		.section	.debug_info,"",%progbits
 1017              	.Ldebug_info0:
 1018 0000 63120000 		.4byte	0x1263
 1019 0004 0400     		.2byte	0x4
 1020 0006 00000000 		.4byte	.Ldebug_abbrev0
 1021 000a 04       		.byte	0x4
 1022 000b 01       		.uleb128 0x1
 1023 000c 96000000 		.4byte	.LASF173
 1024 0010 0C       		.byte	0xc
 1025 0011 A7030000 		.4byte	.LASF174
 1026 0015 E6050000 		.4byte	.LASF175
ARM GAS  /tmp/cc0YDrCi.s 			page 19


 1027 0019 80000000 		.4byte	.Ldebug_ranges0+0x80
 1028 001d 00000000 		.4byte	0
 1029 0021 00000000 		.4byte	.Ldebug_line0
 1030 0025 02       		.uleb128 0x2
 1031 0026 04       		.byte	0x4
 1032 0027 05       		.byte	0x5
 1033 0028 696E7400 		.ascii	"int\000"
 1034 002c 03       		.uleb128 0x3
 1035 002d 2E000000 		.4byte	.LASF2
 1036 0031 05       		.byte	0x5
 1037 0032 D8       		.byte	0xd8
 1038 0033 3C000000 		.4byte	0x3c
 1039 0037 04       		.uleb128 0x4
 1040 0038 2C000000 		.4byte	0x2c
 1041 003c 05       		.uleb128 0x5
 1042 003d 04       		.byte	0x4
 1043 003e 07       		.byte	0x7
 1044 003f 9A030000 		.4byte	.LASF0
 1045 0043 05       		.uleb128 0x5
 1046 0044 01       		.byte	0x1
 1047 0045 06       		.byte	0x6
 1048 0046 88020000 		.4byte	.LASF1
 1049 004a 03       		.uleb128 0x3
 1050 004b 56000000 		.4byte	.LASF3
 1051 004f 06       		.byte	0x6
 1052 0050 2B       		.byte	0x2b
 1053 0051 55000000 		.4byte	0x55
 1054 0055 05       		.uleb128 0x5
 1055 0056 01       		.byte	0x1
 1056 0057 08       		.byte	0x8
 1057 0058 D8050000 		.4byte	.LASF4
 1058 005c 05       		.uleb128 0x5
 1059 005d 02       		.byte	0x2
 1060 005e 05       		.byte	0x5
 1061 005f 53060000 		.4byte	.LASF5
 1062 0063 03       		.uleb128 0x3
 1063 0064 65070000 		.4byte	.LASF6
 1064 0068 06       		.byte	0x6
 1065 0069 39       		.byte	0x39
 1066 006a 6E000000 		.4byte	0x6e
 1067 006e 05       		.uleb128 0x5
 1068 006f 02       		.byte	0x2
 1069 0070 07       		.byte	0x7
 1070 0071 32030000 		.4byte	.LASF7
 1071 0075 03       		.uleb128 0x3
 1072 0076 6C040000 		.4byte	.LASF8
 1073 007a 06       		.byte	0x6
 1074 007b 4D       		.byte	0x4d
 1075 007c 80000000 		.4byte	0x80
 1076 0080 05       		.uleb128 0x5
 1077 0081 04       		.byte	0x4
 1078 0082 05       		.byte	0x5
 1079 0083 FD020000 		.4byte	.LASF9
 1080 0087 03       		.uleb128 0x3
 1081 0088 9E070000 		.4byte	.LASF10
 1082 008c 06       		.byte	0x6
 1083 008d 4F       		.byte	0x4f
ARM GAS  /tmp/cc0YDrCi.s 			page 20


 1084 008e 92000000 		.4byte	0x92
 1085 0092 05       		.uleb128 0x5
 1086 0093 04       		.byte	0x4
 1087 0094 07       		.byte	0x7
 1088 0095 47070000 		.4byte	.LASF11
 1089 0099 05       		.uleb128 0x5
 1090 009a 08       		.byte	0x8
 1091 009b 05       		.byte	0x5
 1092 009c 7A020000 		.4byte	.LASF12
 1093 00a0 03       		.uleb128 0x3
 1094 00a1 59050000 		.4byte	.LASF13
 1095 00a5 06       		.byte	0x6
 1096 00a6 69       		.byte	0x69
 1097 00a7 AB000000 		.4byte	0xab
 1098 00ab 05       		.uleb128 0x5
 1099 00ac 08       		.byte	0x8
 1100 00ad 07       		.byte	0x7
 1101 00ae D9010000 		.4byte	.LASF14
 1102 00b2 03       		.uleb128 0x3
 1103 00b3 20080000 		.4byte	.LASF15
 1104 00b7 07       		.byte	0x7
 1105 00b8 18       		.byte	0x18
 1106 00b9 4A000000 		.4byte	0x4a
 1107 00bd 06       		.uleb128 0x6
 1108 00be B2000000 		.4byte	0xb2
 1109 00c2 03       		.uleb128 0x3
 1110 00c3 CA030000 		.4byte	.LASF16
 1111 00c7 07       		.byte	0x7
 1112 00c8 24       		.byte	0x24
 1113 00c9 63000000 		.4byte	0x63
 1114 00cd 03       		.uleb128 0x3
 1115 00ce D0050000 		.4byte	.LASF17
 1116 00d2 07       		.byte	0x7
 1117 00d3 2C       		.byte	0x2c
 1118 00d4 75000000 		.4byte	0x75
 1119 00d8 04       		.uleb128 0x4
 1120 00d9 CD000000 		.4byte	0xcd
 1121 00dd 03       		.uleb128 0x3
 1122 00de 12070000 		.4byte	.LASF18
 1123 00e2 07       		.byte	0x7
 1124 00e3 30       		.byte	0x30
 1125 00e4 87000000 		.4byte	0x87
 1126 00e8 03       		.uleb128 0x3
 1127 00e9 3C000000 		.4byte	.LASF19
 1128 00ed 07       		.byte	0x7
 1129 00ee 3C       		.byte	0x3c
 1130 00ef A0000000 		.4byte	0xa0
 1131 00f3 03       		.uleb128 0x3
 1132 00f4 D4040000 		.4byte	.LASF20
 1133 00f8 08       		.byte	0x8
 1134 00f9 45       		.byte	0x45
 1135 00fa DD000000 		.4byte	0xdd
 1136 00fe 03       		.uleb128 0x3
 1137 00ff 66080000 		.4byte	.LASF21
 1138 0103 08       		.byte	0x8
 1139 0104 48       		.byte	0x48
 1140 0105 B2000000 		.4byte	0xb2
ARM GAS  /tmp/cc0YDrCi.s 			page 21


 1141 0109 03       		.uleb128 0x3
 1142 010a 06030000 		.4byte	.LASF22
 1143 010e 08       		.byte	0x8
 1144 010f 49       		.byte	0x49
 1145 0110 B2000000 		.4byte	0xb2
 1146 0114 03       		.uleb128 0x3
 1147 0115 45030000 		.4byte	.LASF23
 1148 0119 08       		.byte	0x8
 1149 011a 4A       		.byte	0x4a
 1150 011b B2000000 		.4byte	0xb2
 1151 011f 03       		.uleb128 0x3
 1152 0120 D4020000 		.4byte	.LASF24
 1153 0124 08       		.byte	0x8
 1154 0125 4B       		.byte	0x4b
 1155 0126 B2000000 		.4byte	0xb2
 1156 012a 03       		.uleb128 0x3
 1157 012b AA050000 		.4byte	.LASF25
 1158 012f 08       		.byte	0x8
 1159 0130 4C       		.byte	0x4c
 1160 0131 DD000000 		.4byte	0xdd
 1161 0135 03       		.uleb128 0x3
 1162 0136 2E040000 		.4byte	.LASF26
 1163 013a 08       		.byte	0x8
 1164 013b 4D       		.byte	0x4d
 1165 013c CD000000 		.4byte	0xcd
 1166 0140 03       		.uleb128 0x3
 1167 0141 60040000 		.4byte	.LASF27
 1168 0145 08       		.byte	0x8
 1169 0146 4F       		.byte	0x4f
 1170 0147 DD000000 		.4byte	0xdd
 1171 014b 03       		.uleb128 0x3
 1172 014c 94030000 		.4byte	.LASF28
 1173 0150 08       		.byte	0x8
 1174 0151 51       		.byte	0x51
 1175 0152 CD000000 		.4byte	0xcd
 1176 0156 03       		.uleb128 0x3
 1177 0157 80070000 		.4byte	.LASF29
 1178 015b 09       		.byte	0x9
 1179 015c 33       		.byte	0x33
 1180 015d DD000000 		.4byte	0xdd
 1181 0161 04       		.uleb128 0x4
 1182 0162 56010000 		.4byte	0x156
 1183 0166 03       		.uleb128 0x3
 1184 0167 70070000 		.4byte	.LASF30
 1185 016b 09       		.byte	0x9
 1186 016c 3F       		.byte	0x3f
 1187 016d 71010000 		.4byte	0x171
 1188 0171 07       		.uleb128 0x7
 1189 0172 24040000 		.4byte	.LASF52
 1190 0176 48       		.byte	0x48
 1191 0177 02       		.byte	0x2
 1192 0178 C2       		.byte	0xc2
 1193 0179 76020000 		.4byte	0x276
 1194 017d 08       		.uleb128 0x8
 1195 017e 81060000 		.4byte	.LASF31
 1196 0182 02       		.byte	0x2
 1197 0183 C3       		.byte	0xc3
ARM GAS  /tmp/cc0YDrCi.s 			page 22


 1198 0184 81020000 		.4byte	0x281
 1199 0188 00       		.byte	0
 1200 0189 08       		.uleb128 0x8
 1201 018a 97050000 		.4byte	.LASF32
 1202 018e 02       		.byte	0x2
 1203 018f C5       		.byte	0xc5
 1204 0190 81020000 		.4byte	0x281
 1205 0194 04       		.byte	0x4
 1206 0195 08       		.uleb128 0x8
 1207 0196 5C020000 		.4byte	.LASF33
 1208 019a 02       		.byte	0x2
 1209 019b C7       		.byte	0xc7
 1210 019c 2A010000 		.4byte	0x12a
 1211 01a0 08       		.byte	0x8
 1212 01a1 08       		.uleb128 0x8
 1213 01a2 23050000 		.4byte	.LASF34
 1214 01a6 02       		.byte	0x2
 1215 01a7 C8       		.byte	0xc8
 1216 01a8 C1040000 		.4byte	0x4c1
 1217 01ac 0C       		.byte	0xc
 1218 01ad 08       		.uleb128 0x8
 1219 01ae 22030000 		.4byte	.LASF35
 1220 01b2 02       		.byte	0x2
 1221 01b3 CA       		.byte	0xca
 1222 01b4 81020000 		.4byte	0x281
 1223 01b8 10       		.byte	0x10
 1224 01b9 08       		.uleb128 0x8
 1225 01ba 15050000 		.4byte	.LASF36
 1226 01be 02       		.byte	0x2
 1227 01bf CB       		.byte	0xcb
 1228 01c0 81020000 		.4byte	0x281
 1229 01c4 14       		.byte	0x14
 1230 01c5 08       		.uleb128 0x8
 1231 01c6 42080000 		.4byte	.LASF37
 1232 01ca 02       		.byte	0x2
 1233 01cb D2       		.byte	0xd2
 1234 01cc 06070000 		.4byte	0x706
 1235 01d0 18       		.byte	0x18
 1236 01d1 08       		.uleb128 0x8
 1237 01d2 41060000 		.4byte	.LASF38
 1238 01d6 02       		.byte	0x2
 1239 01d7 DD       		.byte	0xdd
 1240 01d8 09010000 		.4byte	0x109
 1241 01dc 1C       		.byte	0x1c
 1242 01dd 08       		.uleb128 0x8
 1243 01de 9C060000 		.4byte	.LASF39
 1244 01e2 02       		.byte	0x2
 1245 01e3 E1       		.byte	0xe1
 1246 01e4 FE000000 		.4byte	0xfe
 1247 01e8 1D       		.byte	0x1d
 1248 01e9 08       		.uleb128 0x8
 1249 01ea FD070000 		.4byte	.LASF40
 1250 01ee 02       		.byte	0x2
 1251 01ef E6       		.byte	0xe6
 1252 01f0 14010000 		.4byte	0x114
 1253 01f4 1E       		.byte	0x1e
 1254 01f5 08       		.uleb128 0x8
ARM GAS  /tmp/cc0YDrCi.s 			page 23


 1255 01f6 5D060000 		.4byte	.LASF41
 1256 01fa 02       		.byte	0x2
 1257 01fb EC       		.byte	0xec
 1258 01fc 1F010000 		.4byte	0x11f
 1259 0200 1F       		.byte	0x1f
 1260 0201 08       		.uleb128 0x8
 1261 0202 E3030000 		.4byte	.LASF42
 1262 0206 02       		.byte	0x2
 1263 0207 F3       		.byte	0xf3
 1264 0208 61010000 		.4byte	0x161
 1265 020c 20       		.byte	0x20
 1266 020d 09       		.uleb128 0x9
 1267 020e 705F7500 		.ascii	"p_u\000"
 1268 0212 02       		.byte	0x2
 1269 0213 3101     		.2byte	0x131
 1270 0215 41060000 		.4byte	0x641
 1271 0219 24       		.byte	0x24
 1272 021a 0A       		.uleb128 0xa
 1273 021b CA040000 		.4byte	.LASF43
 1274 021f 02       		.byte	0x2
 1275 0220 3601     		.2byte	0x136
 1276 0222 87020000 		.4byte	0x287
 1277 0226 28       		.byte	0x28
 1278 0227 0A       		.uleb128 0xa
 1279 0228 FA030000 		.4byte	.LASF44
 1280 022c 02       		.byte	0x2
 1281 022d 3C01     		.2byte	0x13c
 1282 022f AB020000 		.4byte	0x2ab
 1283 0233 2C       		.byte	0x2c
 1284 0234 0A       		.uleb128 0xa
 1285 0235 CD070000 		.4byte	.LASF45
 1286 0239 02       		.byte	0x2
 1287 023a 4001     		.2byte	0x140
 1288 023c 35010000 		.4byte	0x135
 1289 0240 34       		.byte	0x34
 1290 0241 0A       		.uleb128 0xa
 1291 0242 FB060000 		.4byte	.LASF46
 1292 0246 02       		.byte	0x2
 1293 0247 4601     		.2byte	0x146
 1294 0249 40010000 		.4byte	0x140
 1295 024d 38       		.byte	0x38
 1296 024e 0A       		.uleb128 0xa
 1297 024f 49060000 		.4byte	.LASF47
 1298 0253 02       		.byte	0x2
 1299 0254 4D01     		.2byte	0x14d
 1300 0256 00070000 		.4byte	0x700
 1301 025a 3C       		.byte	0x3c
 1302 025b 0A       		.uleb128 0xa
 1303 025c 8A070000 		.4byte	.LASF48
 1304 0260 02       		.byte	0x2
 1305 0261 5101     		.2byte	0x151
 1306 0263 2A010000 		.4byte	0x12a
 1307 0267 40       		.byte	0x40
 1308 0268 0A       		.uleb128 0xa
 1309 0269 B1020000 		.4byte	.LASF49
 1310 026d 02       		.byte	0x2
 1311 026e 5801     		.2byte	0x158
ARM GAS  /tmp/cc0YDrCi.s 			page 24


 1312 0270 5E030000 		.4byte	0x35e
 1313 0274 44       		.byte	0x44
 1314 0275 00       		.byte	0
 1315 0276 03       		.uleb128 0x3
 1316 0277 28080000 		.4byte	.LASF50
 1317 027b 09       		.byte	0x9
 1318 027c 44       		.byte	0x44
 1319 027d 81020000 		.4byte	0x281
 1320 0281 0B       		.uleb128 0xb
 1321 0282 04       		.byte	0x4
 1322 0283 66010000 		.4byte	0x166
 1323 0287 03       		.uleb128 0x3
 1324 0288 92040000 		.4byte	.LASF51
 1325 028c 09       		.byte	0x9
 1326 028d 49       		.byte	0x49
 1327 028e 92020000 		.4byte	0x292
 1328 0292 07       		.uleb128 0x7
 1329 0293 2F070000 		.4byte	.LASF53
 1330 0297 04       		.byte	0x4
 1331 0298 02       		.byte	0x2
 1332 0299 B0       		.byte	0xb0
 1333 029a AB020000 		.4byte	0x2ab
 1334 029e 08       		.uleb128 0x8
 1335 029f 81060000 		.4byte	.LASF31
 1336 02a3 02       		.byte	0x2
 1337 02a4 B1       		.byte	0xb1
 1338 02a5 81020000 		.4byte	0x281
 1339 02a9 00       		.byte	0
 1340 02aa 00       		.byte	0
 1341 02ab 03       		.uleb128 0x3
 1342 02ac C0060000 		.4byte	.LASF54
 1343 02b0 09       		.byte	0x9
 1344 02b1 50       		.byte	0x50
 1345 02b2 B6020000 		.4byte	0x2b6
 1346 02b6 07       		.uleb128 0x7
 1347 02b7 4B020000 		.4byte	.LASF55
 1348 02bb 08       		.byte	0x8
 1349 02bc 02       		.byte	0x2
 1350 02bd B7       		.byte	0xb7
 1351 02be DB020000 		.4byte	0x2db
 1352 02c2 08       		.uleb128 0x8
 1353 02c3 81060000 		.4byte	.LASF31
 1354 02c7 02       		.byte	0x2
 1355 02c8 B8       		.byte	0xb8
 1356 02c9 81020000 		.4byte	0x281
 1357 02cd 00       		.byte	0
 1358 02ce 08       		.uleb128 0x8
 1359 02cf 97050000 		.4byte	.LASF32
 1360 02d3 02       		.byte	0x2
 1361 02d4 B9       		.byte	0xb9
 1362 02d5 81020000 		.4byte	0x281
 1363 02d9 04       		.byte	0x4
 1364 02da 00       		.byte	0
 1365 02db 03       		.uleb128 0x3
 1366 02dc 1C000000 		.4byte	.LASF56
 1367 02e0 09       		.byte	0x9
 1368 02e1 57       		.byte	0x57
ARM GAS  /tmp/cc0YDrCi.s 			page 25


 1369 02e2 E6020000 		.4byte	0x2e6
 1370 02e6 0C       		.uleb128 0xc
 1371 02e7 52040000 		.4byte	.LASF57
 1372 02eb 1C       		.byte	0x1c
 1373 02ec 02       		.byte	0x2
 1374 02ed 9001     		.2byte	0x190
 1375 02ef 42030000 		.4byte	0x342
 1376 02f3 0A       		.uleb128 0xa
 1377 02f4 27070000 		.4byte	.LASF58
 1378 02f8 02       		.byte	0x2
 1379 02f9 9101     		.2byte	0x191
 1380 02fb AB020000 		.4byte	0x2ab
 1381 02ff 00       		.byte	0
 1382 0300 0A       		.uleb128 0xa
 1383 0301 73060000 		.4byte	.LASF59
 1384 0305 02       		.byte	0x2
 1385 0306 9201     		.2byte	0x192
 1386 0308 2A010000 		.4byte	0x12a
 1387 030c 08       		.byte	0x8
 1388 030d 0A       		.uleb128 0xa
 1389 030e 1D050000 		.4byte	.LASF60
 1390 0312 02       		.byte	0x2
 1391 0313 9401     		.2byte	0x194
 1392 0315 C1040000 		.4byte	0x4c1
 1393 0319 0C       		.byte	0xc
 1394 031a 0A       		.uleb128 0xa
 1395 031b 4D030000 		.4byte	.LASF61
 1396 031f 02       		.byte	0x2
 1397 0320 9701     		.2byte	0x197
 1398 0322 81020000 		.4byte	0x281
 1399 0326 10       		.byte	0x10
 1400 0327 0A       		.uleb128 0xa
 1401 0328 44050000 		.4byte	.LASF62
 1402 032c 02       		.byte	0x2
 1403 032d 9801     		.2byte	0x198
 1404 032f 81020000 		.4byte	0x281
 1405 0333 14       		.byte	0x14
 1406 0334 0A       		.uleb128 0xa
 1407 0335 3A050000 		.4byte	.LASF63
 1408 0339 02       		.byte	0x2
 1409 033a 9B01     		.2byte	0x19b
 1410 033c 81020000 		.4byte	0x281
 1411 0340 18       		.byte	0x18
 1412 0341 00       		.byte	0
 1413 0342 03       		.uleb128 0x3
 1414 0343 95070000 		.4byte	.LASF64
 1415 0347 09       		.byte	0x9
 1416 0348 5C       		.byte	0x5c
 1417 0349 4D030000 		.4byte	0x34d
 1418 034d 0B       		.uleb128 0xb
 1419 034e 04       		.byte	0x4
 1420 034f 53030000 		.4byte	0x353
 1421 0353 0D       		.uleb128 0xd
 1422 0354 5E030000 		.4byte	0x35e
 1423 0358 0E       		.uleb128 0xe
 1424 0359 5E030000 		.4byte	0x35e
 1425 035d 00       		.byte	0
ARM GAS  /tmp/cc0YDrCi.s 			page 26


 1426 035e 0F       		.uleb128 0xf
 1427 035f 04       		.byte	0x4
 1428 0360 03       		.uleb128 0x3
 1429 0361 87050000 		.4byte	.LASF65
 1430 0365 09       		.byte	0x9
 1431 0366 61       		.byte	0x61
 1432 0367 6B030000 		.4byte	0x36b
 1433 036b 0C       		.uleb128 0xc
 1434 036c D0060000 		.4byte	.LASF66
 1435 0370 14       		.byte	0x14
 1436 0371 02       		.byte	0x2
 1437 0372 6B01     		.2byte	0x16b
 1438 0374 BA030000 		.4byte	0x3ba
 1439 0378 0A       		.uleb128 0xa
 1440 0379 74030000 		.4byte	.LASF67
 1441 037d 02       		.byte	0x2
 1442 037e 6C01     		.2byte	0x16c
 1443 0380 1D070000 		.4byte	0x71d
 1444 0384 00       		.byte	0
 1445 0385 0A       		.uleb128 0xa
 1446 0386 5E030000 		.4byte	.LASF68
 1447 038a 02       		.byte	0x2
 1448 038b 6D01     		.2byte	0x16d
 1449 038d 1D070000 		.4byte	0x71d
 1450 0391 04       		.byte	0x4
 1451 0392 0A       		.uleb128 0xa
 1452 0393 F1030000 		.4byte	.LASF69
 1453 0397 02       		.byte	0x2
 1454 0398 6E01     		.2byte	0x16e
 1455 039a 56010000 		.4byte	0x156
 1456 039e 08       		.byte	0x8
 1457 039f 0A       		.uleb128 0xa
 1458 03a0 AA080000 		.4byte	.LASF70
 1459 03a4 02       		.byte	0x2
 1460 03a5 6F01     		.2byte	0x16f
 1461 03a7 42030000 		.4byte	0x342
 1462 03ab 0C       		.byte	0xc
 1463 03ac 0A       		.uleb128 0xa
 1464 03ad D3070000 		.4byte	.LASF71
 1465 03b1 02       		.byte	0x2
 1466 03b2 7101     		.2byte	0x171
 1467 03b4 5E030000 		.4byte	0x35e
 1468 03b8 10       		.byte	0x10
 1469 03b9 00       		.byte	0
 1470 03ba 03       		.uleb128 0x3
 1471 03bb 1D020000 		.4byte	.LASF72
 1472 03bf 09       		.byte	0x9
 1473 03c0 66       		.byte	0x66
 1474 03c1 C5030000 		.4byte	0x3c5
 1475 03c5 0C       		.uleb128 0xc
 1476 03c6 DC040000 		.4byte	.LASF73
 1477 03ca 10       		.byte	0x10
 1478 03cb 02       		.byte	0x2
 1479 03cc 7B01     		.2byte	0x17b
 1480 03ce 07040000 		.4byte	0x407
 1481 03d2 0A       		.uleb128 0xa
 1482 03d3 74030000 		.4byte	.LASF67
ARM GAS  /tmp/cc0YDrCi.s 			page 27


 1483 03d7 02       		.byte	0x2
 1484 03d8 7C01     		.2byte	0x17c
 1485 03da 1D070000 		.4byte	0x71d
 1486 03de 00       		.byte	0
 1487 03df 0A       		.uleb128 0xa
 1488 03e0 5E030000 		.4byte	.LASF68
 1489 03e4 02       		.byte	0x2
 1490 03e5 7E01     		.2byte	0x17e
 1491 03e7 1D070000 		.4byte	0x71d
 1492 03eb 04       		.byte	0x4
 1493 03ec 0A       		.uleb128 0xa
 1494 03ed F1030000 		.4byte	.LASF69
 1495 03f1 02       		.byte	0x2
 1496 03f2 8001     		.2byte	0x180
 1497 03f4 56010000 		.4byte	0x156
 1498 03f8 08       		.byte	0x8
 1499 03f9 0A       		.uleb128 0xa
 1500 03fa 5B080000 		.4byte	.LASF74
 1501 03fe 02       		.byte	0x2
 1502 03ff 8201     		.2byte	0x182
 1503 0401 61010000 		.4byte	0x161
 1504 0405 0C       		.byte	0xc
 1505 0406 00       		.byte	0
 1506 0407 03       		.uleb128 0x3
 1507 0408 6C000000 		.4byte	.LASF75
 1508 040c 09       		.byte	0x9
 1509 040d 6B       		.byte	0x6b
 1510 040e 12040000 		.4byte	0x412
 1511 0412 0C       		.uleb128 0xc
 1512 0413 BA050000 		.4byte	.LASF76
 1513 0417 04       		.byte	0x4
 1514 0418 02       		.byte	0x2
 1515 0419 A201     		.2byte	0x1a2
 1516 041b 2D040000 		.4byte	0x42d
 1517 041f 0A       		.uleb128 0xa
 1518 0420 A9070000 		.4byte	.LASF77
 1519 0424 02       		.byte	0x2
 1520 0425 AA01     		.2byte	0x1aa
 1521 0427 0C070000 		.4byte	0x70c
 1522 042b 00       		.byte	0
 1523 042c 00       		.byte	0
 1524 042d 03       		.uleb128 0x3
 1525 042e 34040000 		.4byte	.LASF78
 1526 0432 09       		.byte	0x9
 1527 0433 70       		.byte	0x70
 1528 0434 38040000 		.4byte	0x438
 1529 0438 10       		.uleb128 0x10
 1530 0439 F3020000 		.4byte	.LASF79
 1531 043d 5802     		.2byte	0x258
 1532 043f 02       		.byte	0x2
 1533 0440 C201     		.2byte	0x1c2
 1534 0442 94040000 		.4byte	0x494
 1535 0446 0A       		.uleb128 0xa
 1536 0447 1A080000 		.4byte	.LASF80
 1537 044b 02       		.byte	0x2
 1538 044c C601     		.2byte	0x1c6
 1539 044e DB020000 		.4byte	0x2db
ARM GAS  /tmp/cc0YDrCi.s 			page 28


 1540 0452 00       		.byte	0
 1541 0453 0A       		.uleb128 0xa
 1542 0454 C1020000 		.4byte	.LASF81
 1543 0458 02       		.byte	0x2
 1544 0459 CA01     		.2byte	0x1ca
 1545 045b BA030000 		.4byte	0x3ba
 1546 045f 1C       		.byte	0x1c
 1547 0460 09       		.uleb128 0x9
 1548 0461 64626700 		.ascii	"dbg\000"
 1549 0465 02       		.byte	0x2
 1550 0466 CE01     		.2byte	0x1ce
 1551 0468 07040000 		.4byte	0x407
 1552 046c 2C       		.byte	0x2c
 1553 046d 0A       		.uleb128 0xa
 1554 046e 12020000 		.4byte	.LASF82
 1555 0472 02       		.byte	0x2
 1556 0473 D201     		.2byte	0x1d2
 1557 0475 66010000 		.4byte	0x166
 1558 0479 30       		.byte	0x30
 1559 047a 09       		.uleb128 0x9
 1560 047b 746D00   		.ascii	"tm\000"
 1561 047e 02       		.byte	0x2
 1562 047f D701     		.2byte	0x1d7
 1563 0481 36060000 		.4byte	0x636
 1564 0485 78       		.byte	0x78
 1565 0486 0A       		.uleb128 0xa
 1566 0487 85030000 		.4byte	.LASF83
 1567 048b 02       		.byte	0x2
 1568 048c E301     		.2byte	0x1e3
 1569 048e 23070000 		.4byte	0x723
 1570 0492 80       		.byte	0x80
 1571 0493 00       		.byte	0
 1572 0494 11       		.uleb128 0x11
 1573 0495 33020000 		.4byte	.LASF84
 1574 0499 0A       		.byte	0xa
 1575 049a A706     		.2byte	0x6a7
 1576 049c D8000000 		.4byte	0xd8
 1577 04a0 12       		.uleb128 0x12
 1578 04a1 D3030000 		.4byte	.LASF85
 1579 04a5 0B       		.byte	0xb
 1580 04a6 4C       		.byte	0x4c
 1581 04a7 DD000000 		.4byte	0xdd
 1582 04ab 03       		.uleb128 0x3
 1583 04ac 55030000 		.4byte	.LASF86
 1584 04b0 0C       		.byte	0xc
 1585 04b1 65       		.byte	0x65
 1586 04b2 5E030000 		.4byte	0x35e
 1587 04b6 03       		.uleb128 0x3
 1588 04b7 76040000 		.4byte	.LASF87
 1589 04bb 0C       		.byte	0xc
 1590 04bc 6D       		.byte	0x6d
 1591 04bd E8000000 		.4byte	0xe8
 1592 04c1 07       		.uleb128 0x7
 1593 04c2 C5070000 		.4byte	.LASF88
 1594 04c6 04       		.byte	0x4
 1595 04c7 0C       		.byte	0xc
 1596 04c8 89       		.byte	0x89
ARM GAS  /tmp/cc0YDrCi.s 			page 29


 1597 04c9 DA040000 		.4byte	0x4da
 1598 04cd 13       		.uleb128 0x13
 1599 04ce 72313300 		.ascii	"r13\000"
 1600 04d2 0C       		.byte	0xc
 1601 04d3 8A       		.byte	0x8a
 1602 04d4 1B060000 		.4byte	0x61b
 1603 04d8 00       		.byte	0
 1604 04d9 00       		.byte	0
 1605 04da 07       		.uleb128 0x7
 1606 04db 60000000 		.4byte	.LASF89
 1607 04df 64       		.byte	0x64
 1608 04e0 0D       		.byte	0xd
 1609 04e1 F4       		.byte	0xf4
 1610 04e2 1B060000 		.4byte	0x61b
 1611 04e6 13       		.uleb128 0x13
 1612 04e7 73313600 		.ascii	"s16\000"
 1613 04eb 0D       		.byte	0xd
 1614 04ec F6       		.byte	0xf6
 1615 04ed AB040000 		.4byte	0x4ab
 1616 04f1 00       		.byte	0
 1617 04f2 13       		.uleb128 0x13
 1618 04f3 73313700 		.ascii	"s17\000"
 1619 04f7 0D       		.byte	0xd
 1620 04f8 F7       		.byte	0xf7
 1621 04f9 AB040000 		.4byte	0x4ab
 1622 04fd 04       		.byte	0x4
 1623 04fe 13       		.uleb128 0x13
 1624 04ff 73313800 		.ascii	"s18\000"
 1625 0503 0D       		.byte	0xd
 1626 0504 F8       		.byte	0xf8
 1627 0505 AB040000 		.4byte	0x4ab
 1628 0509 08       		.byte	0x8
 1629 050a 13       		.uleb128 0x13
 1630 050b 73313900 		.ascii	"s19\000"
 1631 050f 0D       		.byte	0xd
 1632 0510 F9       		.byte	0xf9
 1633 0511 AB040000 		.4byte	0x4ab
 1634 0515 0C       		.byte	0xc
 1635 0516 13       		.uleb128 0x13
 1636 0517 73323000 		.ascii	"s20\000"
 1637 051b 0D       		.byte	0xd
 1638 051c FA       		.byte	0xfa
 1639 051d AB040000 		.4byte	0x4ab
 1640 0521 10       		.byte	0x10
 1641 0522 13       		.uleb128 0x13
 1642 0523 73323100 		.ascii	"s21\000"
 1643 0527 0D       		.byte	0xd
 1644 0528 FB       		.byte	0xfb
 1645 0529 AB040000 		.4byte	0x4ab
 1646 052d 14       		.byte	0x14
 1647 052e 13       		.uleb128 0x13
 1648 052f 73323200 		.ascii	"s22\000"
 1649 0533 0D       		.byte	0xd
 1650 0534 FC       		.byte	0xfc
 1651 0535 AB040000 		.4byte	0x4ab
 1652 0539 18       		.byte	0x18
 1653 053a 13       		.uleb128 0x13
ARM GAS  /tmp/cc0YDrCi.s 			page 30


 1654 053b 73323300 		.ascii	"s23\000"
 1655 053f 0D       		.byte	0xd
 1656 0540 FD       		.byte	0xfd
 1657 0541 AB040000 		.4byte	0x4ab
 1658 0545 1C       		.byte	0x1c
 1659 0546 13       		.uleb128 0x13
 1660 0547 73323400 		.ascii	"s24\000"
 1661 054b 0D       		.byte	0xd
 1662 054c FE       		.byte	0xfe
 1663 054d AB040000 		.4byte	0x4ab
 1664 0551 20       		.byte	0x20
 1665 0552 13       		.uleb128 0x13
 1666 0553 73323500 		.ascii	"s25\000"
 1667 0557 0D       		.byte	0xd
 1668 0558 FF       		.byte	0xff
 1669 0559 AB040000 		.4byte	0x4ab
 1670 055d 24       		.byte	0x24
 1671 055e 09       		.uleb128 0x9
 1672 055f 73323600 		.ascii	"s26\000"
 1673 0563 0D       		.byte	0xd
 1674 0564 0001     		.2byte	0x100
 1675 0566 AB040000 		.4byte	0x4ab
 1676 056a 28       		.byte	0x28
 1677 056b 09       		.uleb128 0x9
 1678 056c 73323700 		.ascii	"s27\000"
 1679 0570 0D       		.byte	0xd
 1680 0571 0101     		.2byte	0x101
 1681 0573 AB040000 		.4byte	0x4ab
 1682 0577 2C       		.byte	0x2c
 1683 0578 09       		.uleb128 0x9
 1684 0579 73323800 		.ascii	"s28\000"
 1685 057d 0D       		.byte	0xd
 1686 057e 0201     		.2byte	0x102
 1687 0580 AB040000 		.4byte	0x4ab
 1688 0584 30       		.byte	0x30
 1689 0585 09       		.uleb128 0x9
 1690 0586 73323900 		.ascii	"s29\000"
 1691 058a 0D       		.byte	0xd
 1692 058b 0301     		.2byte	0x103
 1693 058d AB040000 		.4byte	0x4ab
 1694 0591 34       		.byte	0x34
 1695 0592 09       		.uleb128 0x9
 1696 0593 73333000 		.ascii	"s30\000"
 1697 0597 0D       		.byte	0xd
 1698 0598 0401     		.2byte	0x104
 1699 059a AB040000 		.4byte	0x4ab
 1700 059e 38       		.byte	0x38
 1701 059f 09       		.uleb128 0x9
 1702 05a0 73333100 		.ascii	"s31\000"
 1703 05a4 0D       		.byte	0xd
 1704 05a5 0501     		.2byte	0x105
 1705 05a7 AB040000 		.4byte	0x4ab
 1706 05ab 3C       		.byte	0x3c
 1707 05ac 09       		.uleb128 0x9
 1708 05ad 723400   		.ascii	"r4\000"
 1709 05b0 0D       		.byte	0xd
 1710 05b1 0701     		.2byte	0x107
ARM GAS  /tmp/cc0YDrCi.s 			page 31


 1711 05b3 AB040000 		.4byte	0x4ab
 1712 05b7 40       		.byte	0x40
 1713 05b8 09       		.uleb128 0x9
 1714 05b9 723500   		.ascii	"r5\000"
 1715 05bc 0D       		.byte	0xd
 1716 05bd 0801     		.2byte	0x108
 1717 05bf AB040000 		.4byte	0x4ab
 1718 05c3 44       		.byte	0x44
 1719 05c4 09       		.uleb128 0x9
 1720 05c5 723600   		.ascii	"r6\000"
 1721 05c8 0D       		.byte	0xd
 1722 05c9 0901     		.2byte	0x109
 1723 05cb AB040000 		.4byte	0x4ab
 1724 05cf 48       		.byte	0x48
 1725 05d0 09       		.uleb128 0x9
 1726 05d1 723700   		.ascii	"r7\000"
 1727 05d4 0D       		.byte	0xd
 1728 05d5 0A01     		.2byte	0x10a
 1729 05d7 AB040000 		.4byte	0x4ab
 1730 05db 4C       		.byte	0x4c
 1731 05dc 09       		.uleb128 0x9
 1732 05dd 723800   		.ascii	"r8\000"
 1733 05e0 0D       		.byte	0xd
 1734 05e1 0B01     		.2byte	0x10b
 1735 05e3 AB040000 		.4byte	0x4ab
 1736 05e7 50       		.byte	0x50
 1737 05e8 09       		.uleb128 0x9
 1738 05e9 723900   		.ascii	"r9\000"
 1739 05ec 0D       		.byte	0xd
 1740 05ed 0C01     		.2byte	0x10c
 1741 05ef AB040000 		.4byte	0x4ab
 1742 05f3 54       		.byte	0x54
 1743 05f4 09       		.uleb128 0x9
 1744 05f5 72313000 		.ascii	"r10\000"
 1745 05f9 0D       		.byte	0xd
 1746 05fa 0D01     		.2byte	0x10d
 1747 05fc AB040000 		.4byte	0x4ab
 1748 0600 58       		.byte	0x58
 1749 0601 09       		.uleb128 0x9
 1750 0602 72313100 		.ascii	"r11\000"
 1751 0606 0D       		.byte	0xd
 1752 0607 0E01     		.2byte	0x10e
 1753 0609 AB040000 		.4byte	0x4ab
 1754 060d 5C       		.byte	0x5c
 1755 060e 09       		.uleb128 0x9
 1756 060f 6C7200   		.ascii	"lr\000"
 1757 0612 0D       		.byte	0xd
 1758 0613 0F01     		.2byte	0x10f
 1759 0615 AB040000 		.4byte	0x4ab
 1760 0619 60       		.byte	0x60
 1761 061a 00       		.byte	0
 1762 061b 0B       		.uleb128 0xb
 1763 061c 04       		.byte	0x4
 1764 061d DA040000 		.4byte	0x4da
 1765 0621 14       		.uleb128 0x14
 1766 0622 04       		.byte	0x4
 1767 0623 0E       		.byte	0xe
ARM GAS  /tmp/cc0YDrCi.s 			page 32


 1768 0624 38       		.byte	0x38
 1769 0625 36060000 		.4byte	0x636
 1770 0629 08       		.uleb128 0x8
 1771 062a B3070000 		.4byte	.LASF90
 1772 062e 0E       		.byte	0xe
 1773 062f 3C       		.byte	0x3c
 1774 0630 F3000000 		.4byte	0xf3
 1775 0634 00       		.byte	0
 1776 0635 00       		.byte	0
 1777 0636 03       		.uleb128 0x3
 1778 0637 29050000 		.4byte	.LASF91
 1779 063b 0E       		.byte	0xe
 1780 063c 3D       		.byte	0x3d
 1781 063d 21060000 		.4byte	0x621
 1782 0641 15       		.uleb128 0x15
 1783 0642 04       		.byte	0x4
 1784 0643 02       		.byte	0x2
 1785 0644 FA       		.byte	0xfa
 1786 0645 9E060000 		.4byte	0x69e
 1787 0649 16       		.uleb128 0x16
 1788 064a 35000000 		.4byte	.LASF92
 1789 064e 02       		.byte	0x2
 1790 064f 0101     		.2byte	0x101
 1791 0651 35010000 		.4byte	0x135
 1792 0655 16       		.uleb128 0x16
 1793 0656 09020000 		.4byte	.LASF93
 1794 065a 02       		.byte	0x2
 1795 065b 0801     		.2byte	0x108
 1796 065d 35010000 		.4byte	0x135
 1797 0661 16       		.uleb128 0x16
 1798 0662 3B080000 		.4byte	.LASF94
 1799 0666 02       		.byte	0x2
 1800 0667 0F01     		.2byte	0x10f
 1801 0669 5E030000 		.4byte	0x35e
 1802 066d 16       		.uleb128 0x16
 1803 066e ED020000 		.4byte	.LASF95
 1804 0672 02       		.byte	0x2
 1805 0673 1601     		.2byte	0x116
 1806 0675 9E060000 		.4byte	0x69e
 1807 0679 16       		.uleb128 0x16
 1808 067a EA030000 		.4byte	.LASF96
 1809 067e 02       		.byte	0x2
 1810 067f 1E01     		.2byte	0x11e
 1811 0681 C9060000 		.4byte	0x6c9
 1812 0685 16       		.uleb128 0x16
 1813 0686 5E070000 		.4byte	.LASF97
 1814 068a 02       		.byte	0x2
 1815 068b 2701     		.2byte	0x127
 1816 068d 00070000 		.4byte	0x700
 1817 0691 16       		.uleb128 0x16
 1818 0692 7A060000 		.4byte	.LASF98
 1819 0696 02       		.byte	0x2
 1820 0697 2F01     		.2byte	0x12f
 1821 0699 40010000 		.4byte	0x140
 1822 069d 00       		.byte	0
 1823 069e 0B       		.uleb128 0xb
 1824 069f 04       		.byte	0x4
ARM GAS  /tmp/cc0YDrCi.s 			page 33


 1825 06a0 76020000 		.4byte	0x276
 1826 06a4 07       		.uleb128 0x7
 1827 06a5 EE060000 		.4byte	.LASF99
 1828 06a9 0C       		.byte	0xc
 1829 06aa 0F       		.byte	0xf
 1830 06ab 34       		.byte	0x34
 1831 06ac C9060000 		.4byte	0x6c9
 1832 06b0 08       		.uleb128 0x8
 1833 06b1 2A030000 		.4byte	.LASF100
 1834 06b5 0F       		.byte	0xf
 1835 06b6 35       		.byte	0x35
 1836 06b7 AB020000 		.4byte	0x2ab
 1837 06bb 00       		.byte	0
 1838 06bc 08       		.uleb128 0x8
 1839 06bd 16040000 		.4byte	.LASF101
 1840 06c1 0F       		.byte	0xf
 1841 06c2 37       		.byte	0x37
 1842 06c3 4B010000 		.4byte	0x14b
 1843 06c7 08       		.byte	0x8
 1844 06c8 00       		.byte	0
 1845 06c9 0B       		.uleb128 0xb
 1846 06ca 04       		.byte	0x4
 1847 06cb A4060000 		.4byte	0x6a4
 1848 06cf 07       		.uleb128 0x7
 1849 06d0 F4070000 		.4byte	.LASF102
 1850 06d4 10       		.byte	0x10
 1851 06d5 10       		.byte	0x10
 1852 06d6 39       		.byte	0x39
 1853 06d7 00070000 		.4byte	0x700
 1854 06db 08       		.uleb128 0x8
 1855 06dc B9020000 		.4byte	.LASF103
 1856 06e0 10       		.byte	0x10
 1857 06e1 3A       		.byte	0x3a
 1858 06e2 AB020000 		.4byte	0x2ab
 1859 06e6 00       		.byte	0
 1860 06e7 08       		.uleb128 0x8
 1861 06e8 94080000 		.4byte	.LASF104
 1862 06ec 10       		.byte	0x10
 1863 06ed 3C       		.byte	0x3c
 1864 06ee 81020000 		.4byte	0x281
 1865 06f2 08       		.byte	0x8
 1866 06f3 08       		.uleb128 0x8
 1867 06f4 79070000 		.4byte	.LASF105
 1868 06f8 10       		.byte	0x10
 1869 06f9 3E       		.byte	0x3e
 1870 06fa 55080000 		.4byte	0x855
 1871 06fe 0C       		.byte	0xc
 1872 06ff 00       		.byte	0
 1873 0700 0B       		.uleb128 0xb
 1874 0701 04       		.byte	0x4
 1875 0702 CF060000 		.4byte	0x6cf
 1876 0706 0B       		.uleb128 0xb
 1877 0707 04       		.byte	0x4
 1878 0708 18070000 		.4byte	0x718
 1879 070c 04       		.uleb128 0x4
 1880 070d 06070000 		.4byte	0x706
 1881 0711 05       		.uleb128 0x5
ARM GAS  /tmp/cc0YDrCi.s 			page 34


 1882 0712 01       		.byte	0x1
 1883 0713 08       		.byte	0x8
 1884 0714 59070000 		.4byte	.LASF106
 1885 0718 06       		.uleb128 0x6
 1886 0719 11070000 		.4byte	0x711
 1887 071d 0B       		.uleb128 0xb
 1888 071e 04       		.byte	0x4
 1889 071f 60030000 		.4byte	0x360
 1890 0723 17       		.uleb128 0x17
 1891 0724 B6040000 		.4byte	0x4b6
 1892 0728 33070000 		.4byte	0x733
 1893 072c 18       		.uleb128 0x18
 1894 072d 3C000000 		.4byte	0x3c
 1895 0731 3A       		.byte	0x3a
 1896 0732 00       		.byte	0
 1897 0733 19       		.uleb128 0x19
 1898 0734 636800   		.ascii	"ch\000"
 1899 0737 02       		.byte	0x2
 1900 0738 0902     		.2byte	0x209
 1901 073a 2D040000 		.4byte	0x42d
 1902 073e 14       		.uleb128 0x14
 1903 073f 16       		.byte	0x16
 1904 0740 11       		.byte	0x11
 1905 0741 34       		.byte	0x34
 1906 0742 1F080000 		.4byte	0x81f
 1907 0746 08       		.uleb128 0x8
 1908 0747 9C080000 		.4byte	.LASF107
 1909 074b 11       		.byte	0x11
 1910 074c 35       		.byte	0x35
 1911 074d 1F080000 		.4byte	0x81f
 1912 0751 00       		.byte	0
 1913 0752 08       		.uleb128 0x8
 1914 0753 A1040000 		.4byte	.LASF108
 1915 0757 11       		.byte	0x11
 1916 0758 36       		.byte	0x36
 1917 0759 B2000000 		.4byte	0xb2
 1918 075d 04       		.byte	0x4
 1919 075e 08       		.uleb128 0x8
 1920 075f 3F070000 		.4byte	.LASF109
 1921 0763 11       		.byte	0x11
 1922 0764 37       		.byte	0x37
 1923 0765 B2000000 		.4byte	0xb2
 1924 0769 05       		.byte	0x5
 1925 076a 08       		.uleb128 0x8
 1926 076b 7A080000 		.4byte	.LASF110
 1927 076f 11       		.byte	0x11
 1928 0770 38       		.byte	0x38
 1929 0771 C2000000 		.4byte	0xc2
 1930 0775 06       		.byte	0x6
 1931 0776 08       		.uleb128 0x8
 1932 0777 72050000 		.4byte	.LASF111
 1933 077b 11       		.byte	0x11
 1934 077c 39       		.byte	0x39
 1935 077d B2000000 		.4byte	0xb2
 1936 0781 08       		.byte	0x8
 1937 0782 08       		.uleb128 0x8
 1938 0783 FD040000 		.4byte	.LASF112
ARM GAS  /tmp/cc0YDrCi.s 			page 35


 1939 0787 11       		.byte	0x11
 1940 0788 3A       		.byte	0x3a
 1941 0789 B2000000 		.4byte	0xb2
 1942 078d 09       		.byte	0x9
 1943 078e 08       		.uleb128 0x8
 1944 078f FB010000 		.4byte	.LASF113
 1945 0793 11       		.byte	0x11
 1946 0794 3B       		.byte	0x3b
 1947 0795 B2000000 		.4byte	0xb2
 1948 0799 0A       		.byte	0xa
 1949 079a 08       		.uleb128 0x8
 1950 079b 1B070000 		.4byte	.LASF114
 1951 079f 11       		.byte	0x11
 1952 07a0 3C       		.byte	0x3c
 1953 07a1 B2000000 		.4byte	0xb2
 1954 07a5 0B       		.byte	0xb
 1955 07a6 08       		.uleb128 0x8
 1956 07a7 E9070000 		.4byte	.LASF115
 1957 07ab 11       		.byte	0x11
 1958 07ac 3D       		.byte	0x3d
 1959 07ad B2000000 		.4byte	0xb2
 1960 07b1 0C       		.byte	0xc
 1961 07b2 08       		.uleb128 0x8
 1962 07b3 E1060000 		.4byte	.LASF116
 1963 07b7 11       		.byte	0x11
 1964 07b8 3E       		.byte	0x3e
 1965 07b9 B2000000 		.4byte	0xb2
 1966 07bd 0D       		.byte	0xd
 1967 07be 08       		.uleb128 0x8
 1968 07bf 0F000000 		.4byte	.LASF117
 1969 07c3 11       		.byte	0x11
 1970 07c4 3F       		.byte	0x3f
 1971 07c5 B2000000 		.4byte	0xb2
 1972 07c9 0E       		.byte	0xe
 1973 07ca 08       		.uleb128 0x8
 1974 07cb 09050000 		.4byte	.LASF118
 1975 07cf 11       		.byte	0x11
 1976 07d0 40       		.byte	0x40
 1977 07d1 B2000000 		.4byte	0xb2
 1978 07d5 0F       		.byte	0xf
 1979 07d6 08       		.uleb128 0x8
 1980 07d7 94020000 		.4byte	.LASF119
 1981 07db 11       		.byte	0x11
 1982 07dc 41       		.byte	0x41
 1983 07dd B2000000 		.4byte	0xb2
 1984 07e1 10       		.byte	0x10
 1985 07e2 08       		.uleb128 0x8
 1986 07e3 63020000 		.4byte	.LASF120
 1987 07e7 11       		.byte	0x11
 1988 07e8 43       		.byte	0x43
 1989 07e9 B2000000 		.4byte	0xb2
 1990 07ed 11       		.byte	0x11
 1991 07ee 08       		.uleb128 0x8
 1992 07ef A4020000 		.4byte	.LASF121
 1993 07f3 11       		.byte	0x11
 1994 07f4 44       		.byte	0x44
 1995 07f5 B2000000 		.4byte	0xb2
ARM GAS  /tmp/cc0YDrCi.s 			page 36


 1996 07f9 12       		.byte	0x12
 1997 07fa 08       		.uleb128 0x8
 1998 07fb A9040000 		.4byte	.LASF122
 1999 07ff 11       		.byte	0x11
 2000 0800 45       		.byte	0x45
 2001 0801 B2000000 		.4byte	0xb2
 2002 0805 13       		.byte	0x13
 2003 0806 08       		.uleb128 0x8
 2004 0807 8D060000 		.4byte	.LASF123
 2005 080b 11       		.byte	0x11
 2006 080c 46       		.byte	0x46
 2007 080d B2000000 		.4byte	0xb2
 2008 0811 14       		.byte	0x14
 2009 0812 08       		.uleb128 0x8
 2010 0813 67060000 		.4byte	.LASF124
 2011 0817 11       		.byte	0x11
 2012 0818 48       		.byte	0x48
 2013 0819 B2000000 		.4byte	0xb2
 2014 081d 15       		.byte	0x15
 2015 081e 00       		.byte	0
 2016 081f 17       		.uleb128 0x17
 2017 0820 11070000 		.4byte	0x711
 2018 0824 2F080000 		.4byte	0x82f
 2019 0828 18       		.uleb128 0x18
 2020 0829 3C000000 		.4byte	0x3c
 2021 082d 03       		.byte	0x3
 2022 082e 00       		.byte	0
 2023 082f 03       		.uleb128 0x3
 2024 0830 18030000 		.4byte	.LASF125
 2025 0834 11       		.byte	0x11
 2026 0835 49       		.byte	0x49
 2027 0836 3E070000 		.4byte	0x73e
 2028 083a 06       		.uleb128 0x6
 2029 083b 2F080000 		.4byte	0x82f
 2030 083f 12       		.uleb128 0x12
 2031 0840 05040000 		.4byte	.LASF126
 2032 0844 11       		.byte	0x11
 2033 0845 6E       		.byte	0x6e
 2034 0846 3A080000 		.4byte	0x83a
 2035 084a 03       		.uleb128 0x3
 2036 084b 8C080000 		.4byte	.LASF127
 2037 084f 10       		.byte	0x10
 2038 0850 34       		.byte	0x34
 2039 0851 CF060000 		.4byte	0x6cf
 2040 0855 0B       		.uleb128 0xb
 2041 0856 04       		.byte	0x4
 2042 0857 4A080000 		.4byte	0x84a
 2043 085b 03       		.uleb128 0x3
 2044 085c 40020000 		.4byte	.LASF128
 2045 0860 03       		.byte	0x3
 2046 0861 3F       		.byte	0x3f
 2047 0862 66080000 		.4byte	0x866
 2048 0866 07       		.uleb128 0x7
 2049 0867 7C030000 		.4byte	.LASF129
 2050 086b 24       		.byte	0x24
 2051 086c 03       		.byte	0x3
 2052 086d 4D       		.byte	0x4d
ARM GAS  /tmp/cc0YDrCi.s 			page 37


 2053 086e D3080000 		.4byte	0x8d3
 2054 0872 08       		.uleb128 0x8
 2055 0873 70020000 		.4byte	.LASF130
 2056 0877 03       		.byte	0x3
 2057 0878 4E       		.byte	0x4e
 2058 0879 AB020000 		.4byte	0x2ab
 2059 087d 00       		.byte	0
 2060 087e 08       		.uleb128 0x8
 2061 087f F3040000 		.4byte	.LASF131
 2062 0883 03       		.byte	0x3
 2063 0884 4F       		.byte	0x4f
 2064 0885 37000000 		.4byte	0x37
 2065 0889 08       		.byte	0x8
 2066 088a 08       		.uleb128 0x8
 2067 088b B7060000 		.4byte	.LASF132
 2068 088f 03       		.byte	0x3
 2069 0890 50       		.byte	0x50
 2070 0891 F5080000 		.4byte	0x8f5
 2071 0895 0C       		.byte	0xc
 2072 0896 08       		.uleb128 0x8
 2073 0897 C4010000 		.4byte	.LASF133
 2074 089b 03       		.byte	0x3
 2075 089c 51       		.byte	0x51
 2076 089d F5080000 		.4byte	0x8f5
 2077 08a1 10       		.byte	0x10
 2078 08a2 08       		.uleb128 0x8
 2079 08a3 1C040000 		.4byte	.LASF134
 2080 08a7 03       		.byte	0x3
 2081 08a8 53       		.byte	0x53
 2082 08a9 F5080000 		.4byte	0x8f5
 2083 08ad 14       		.byte	0x14
 2084 08ae 08       		.uleb128 0x8
 2085 08af B2050000 		.4byte	.LASF135
 2086 08b3 03       		.byte	0x3
 2087 08b4 54       		.byte	0x54
 2088 08b5 F5080000 		.4byte	0x8f5
 2089 08b9 18       		.byte	0x18
 2090 08ba 08       		.uleb128 0x8
 2091 08bb 11080000 		.4byte	.LASF136
 2092 08bf 03       		.byte	0x3
 2093 08c0 55       		.byte	0x55
 2094 08c1 D3080000 		.4byte	0x8d3
 2095 08c5 1C       		.byte	0x1c
 2096 08c6 08       		.uleb128 0x8
 2097 08c7 85080000 		.4byte	.LASF137
 2098 08cb 03       		.byte	0x3
 2099 08cc 56       		.byte	0x56
 2100 08cd 5E030000 		.4byte	0x35e
 2101 08d1 20       		.byte	0x20
 2102 08d2 00       		.byte	0
 2103 08d3 03       		.uleb128 0x3
 2104 08d4 7D050000 		.4byte	.LASF138
 2105 08d8 03       		.byte	0x3
 2106 08d9 42       		.byte	0x42
 2107 08da DE080000 		.4byte	0x8de
 2108 08de 0B       		.uleb128 0xb
 2109 08df 04       		.byte	0x4
ARM GAS  /tmp/cc0YDrCi.s 			page 38


 2110 08e0 E4080000 		.4byte	0x8e4
 2111 08e4 0D       		.uleb128 0xd
 2112 08e5 EF080000 		.4byte	0x8ef
 2113 08e9 0E       		.uleb128 0xe
 2114 08ea EF080000 		.4byte	0x8ef
 2115 08ee 00       		.byte	0
 2116 08ef 0B       		.uleb128 0xb
 2117 08f0 04       		.byte	0x4
 2118 08f1 5B080000 		.4byte	0x85b
 2119 08f5 0B       		.uleb128 0xb
 2120 08f6 04       		.byte	0x4
 2121 08f7 B2000000 		.4byte	0xb2
 2122 08fb 03       		.uleb128 0x3
 2123 08fc 33060000 		.4byte	.LASF139
 2124 0900 03       		.byte	0x3
 2125 0901 64       		.byte	0x64
 2126 0902 5B080000 		.4byte	0x85b
 2127 0906 03       		.uleb128 0x3
 2128 0907 DE020000 		.4byte	.LASF140
 2129 090b 03       		.byte	0x3
 2130 090c 71       		.byte	0x71
 2131 090d 5B080000 		.4byte	0x85b
 2132 0911 0B       		.uleb128 0xb
 2133 0912 04       		.byte	0x4
 2134 0913 BD000000 		.4byte	0xbd
 2135 0917 1A       		.uleb128 0x1a
 2136 0918 81040000 		.4byte	.LASF142
 2137 091c 01       		.byte	0x1
 2138 091d 9A01     		.2byte	0x19a
 2139 091f 2C000000 		.4byte	0x2c
 2140 0923 00000000 		.4byte	.LFB228
 2141 0927 70000000 		.4byte	.LFE228-.LFB228
 2142 092b 01       		.uleb128 0x1
 2143 092c 9C       		.byte	0x9c
 2144 092d B40A0000 		.4byte	0xab4
 2145 0931 1B       		.uleb128 0x1b
 2146 0932 6F717000 		.ascii	"oqp\000"
 2147 0936 01       		.byte	0x1
 2148 0937 9A01     		.2byte	0x19a
 2149 0939 B40A0000 		.4byte	0xab4
 2150 093d 00000000 		.4byte	.LLST31
 2151 0941 1B       		.uleb128 0x1b
 2152 0942 627000   		.ascii	"bp\000"
 2153 0945 01       		.byte	0x1
 2154 0946 9A01     		.2byte	0x19a
 2155 0948 11090000 		.4byte	0x911
 2156 094c 4A000000 		.4byte	.LLST32
 2157 0950 1B       		.uleb128 0x1b
 2158 0951 6E00     		.ascii	"n\000"
 2159 0953 01       		.byte	0x1
 2160 0954 9B01     		.2byte	0x19b
 2161 0956 2C000000 		.4byte	0x2c
 2162 095a 89000000 		.4byte	.LLST33
 2163 095e 1C       		.uleb128 0x1c
 2164 095f 0E040000 		.4byte	.LASF141
 2165 0963 01       		.byte	0x1
 2166 0964 9B01     		.2byte	0x19b
ARM GAS  /tmp/cc0YDrCi.s 			page 39


 2167 0966 56010000 		.4byte	0x156
 2168 096a BF000000 		.4byte	.LLST34
 2169 096e 1D       		.uleb128 0x1d
 2170 096f 6E667900 		.ascii	"nfy\000"
 2171 0973 01       		.byte	0x1
 2172 0974 9C01     		.2byte	0x19c
 2173 0976 D3080000 		.4byte	0x8d3
 2174 097a 01       		.uleb128 0x1
 2175 097b 58       		.byte	0x58
 2176 097c 1E       		.uleb128 0x1e
 2177 097d 7700     		.ascii	"w\000"
 2178 097f 01       		.byte	0x1
 2179 0980 9D01     		.2byte	0x19d
 2180 0982 2C000000 		.4byte	0x2c
 2181 0986 DD000000 		.4byte	.LLST35
 2182 098a 1F       		.uleb128 0x1f
 2183 098b A4060000 		.4byte	.LASF151
 2184 098f CA0A0000 		.4byte	0xaca
 2185 0993 20       		.uleb128 0x20
 2186 0994 FE110000 		.4byte	0x11fe
 2187 0998 10000000 		.4byte	.LBB174
 2188 099c 02000000 		.4byte	.LBE174-.LBB174
 2189 09a0 01       		.byte	0x1
 2190 09a1 A101     		.2byte	0x1a1
 2191 09a3 C9090000 		.4byte	0x9c9
 2192 09a7 21       		.uleb128 0x21
 2193 09a8 2A120000 		.4byte	0x122a
 2194 09ac 10000000 		.4byte	.LBB175
 2195 09b0 02000000 		.4byte	.LBE175-.LBB175
 2196 09b4 12       		.byte	0x12
 2197 09b5 5C01     		.2byte	0x15c
 2198 09b7 22       		.uleb128 0x22
 2199 09b8 33120000 		.4byte	0x1233
 2200 09bc 10000000 		.4byte	.LBB176
 2201 09c0 02000000 		.4byte	.LBE176-.LBB176
 2202 09c4 0D       		.byte	0xd
 2203 09c5 C101     		.2byte	0x1c1
 2204 09c7 00       		.byte	0
 2205 09c8 00       		.byte	0
 2206 09c9 23       		.uleb128 0x23
 2207 09ca 2F110000 		.4byte	0x112f
 2208 09ce 14000000 		.4byte	.LBB178
 2209 09d2 68000000 		.4byte	.Ldebug_ranges0+0x68
 2210 09d6 01       		.byte	0x1
 2211 09d7 A301     		.2byte	0x1a3
 2212 09d9 E7090000 		.4byte	0x9e7
 2213 09dd 24       		.uleb128 0x24
 2214 09de 40110000 		.4byte	0x1140
 2215 09e2 FC000000 		.4byte	.LLST36
 2216 09e6 00       		.byte	0
 2217 09e7 20       		.uleb128 0x20
 2218 09e8 CE110000 		.4byte	0x11ce
 2219 09ec 42000000 		.4byte	.LBB181
 2220 09f0 02000000 		.4byte	.LBE181-.LBB181
 2221 09f4 01       		.byte	0x1
 2222 09f5 B301     		.2byte	0x1b3
 2223 09f7 270A0000 		.4byte	0xa27
ARM GAS  /tmp/cc0YDrCi.s 			page 40


 2224 09fb 25       		.uleb128 0x25
 2225 09fc 42000000 		.4byte	.LBB182
 2226 0a00 02000000 		.4byte	.LBE182-.LBB182
 2227 0a04 21       		.uleb128 0x21
 2228 0a05 21120000 		.4byte	0x1221
 2229 0a09 42000000 		.4byte	.LBB183
 2230 0a0d 02000000 		.4byte	.LBE183-.LBB183
 2231 0a11 12       		.byte	0x12
 2232 0a12 7301     		.2byte	0x173
 2233 0a14 22       		.uleb128 0x22
 2234 0a15 3C120000 		.4byte	0x123c
 2235 0a19 42000000 		.4byte	.LBB184
 2236 0a1d 02000000 		.4byte	.LBE184-.LBB184
 2237 0a21 0D       		.byte	0xd
 2238 0a22 CF01     		.2byte	0x1cf
 2239 0a24 00       		.byte	0
 2240 0a25 00       		.byte	0
 2241 0a26 00       		.byte	0
 2242 0a27 20       		.uleb128 0x20
 2243 0a28 FE110000 		.4byte	0x11fe
 2244 0a2c 4C000000 		.4byte	.LBB186
 2245 0a30 02000000 		.4byte	.LBE186-.LBB186
 2246 0a34 01       		.byte	0x1
 2247 0a35 B901     		.2byte	0x1b9
 2248 0a37 5D0A0000 		.4byte	0xa5d
 2249 0a3b 21       		.uleb128 0x21
 2250 0a3c 2A120000 		.4byte	0x122a
 2251 0a40 4C000000 		.4byte	.LBB187
 2252 0a44 02000000 		.4byte	.LBE187-.LBB187
 2253 0a48 12       		.byte	0x12
 2254 0a49 5C01     		.2byte	0x15c
 2255 0a4b 22       		.uleb128 0x22
 2256 0a4c 33120000 		.4byte	0x1233
 2257 0a50 4C000000 		.4byte	.LBB188
 2258 0a54 02000000 		.4byte	.LBE188-.LBB188
 2259 0a58 0D       		.byte	0xd
 2260 0a59 C101     		.2byte	0x1c1
 2261 0a5b 00       		.byte	0
 2262 0a5c 00       		.byte	0
 2263 0a5d 20       		.uleb128 0x20
 2264 0a5e CE110000 		.4byte	0x11ce
 2265 0a62 68000000 		.4byte	.LBB191
 2266 0a66 02000000 		.4byte	.LBE191-.LBB191
 2267 0a6a 01       		.byte	0x1
 2268 0a6b A501     		.2byte	0x1a5
 2269 0a6d 9D0A0000 		.4byte	0xa9d
 2270 0a71 25       		.uleb128 0x25
 2271 0a72 68000000 		.4byte	.LBB192
 2272 0a76 02000000 		.4byte	.LBE192-.LBB192
 2273 0a7a 21       		.uleb128 0x21
 2274 0a7b 21120000 		.4byte	0x1221
 2275 0a7f 68000000 		.4byte	.LBB193
 2276 0a83 02000000 		.4byte	.LBE193-.LBB193
 2277 0a87 12       		.byte	0x12
 2278 0a88 7301     		.2byte	0x173
 2279 0a8a 22       		.uleb128 0x22
 2280 0a8b 3C120000 		.4byte	0x123c
ARM GAS  /tmp/cc0YDrCi.s 			page 41


 2281 0a8f 68000000 		.4byte	.LBB194
 2282 0a93 02000000 		.4byte	.LBE194-.LBB194
 2283 0a97 0D       		.byte	0xd
 2284 0a98 CF01     		.2byte	0x1cf
 2285 0a9a 00       		.byte	0
 2286 0a9b 00       		.byte	0
 2287 0a9c 00       		.byte	0
 2288 0a9d 26       		.uleb128 0x26
 2289 0a9e 64000000 		.4byte	.LVL71
 2290 0aa2 45120000 		.4byte	0x1245
 2291 0aa6 27       		.uleb128 0x27
 2292 0aa7 01       		.uleb128 0x1
 2293 0aa8 50       		.byte	0x50
 2294 0aa9 02       		.uleb128 0x2
 2295 0aaa 74       		.byte	0x74
 2296 0aab 00       		.sleb128 0
 2297 0aac 27       		.uleb128 0x27
 2298 0aad 01       		.uleb128 0x1
 2299 0aae 51       		.byte	0x51
 2300 0aaf 02       		.uleb128 0x2
 2301 0ab0 79       		.byte	0x79
 2302 0ab1 00       		.sleb128 0
 2303 0ab2 00       		.byte	0
 2304 0ab3 00       		.byte	0
 2305 0ab4 0B       		.uleb128 0xb
 2306 0ab5 04       		.byte	0x4
 2307 0ab6 06090000 		.4byte	0x906
 2308 0aba 17       		.uleb128 0x17
 2309 0abb 18070000 		.4byte	0x718
 2310 0abf CA0A0000 		.4byte	0xaca
 2311 0ac3 18       		.uleb128 0x18
 2312 0ac4 3C000000 		.4byte	0x3c
 2313 0ac8 10       		.byte	0x10
 2314 0ac9 00       		.byte	0
 2315 0aca 06       		.uleb128 0x6
 2316 0acb BA0A0000 		.4byte	0xaba
 2317 0acf 28       		.uleb128 0x28
 2318 0ad0 0F030000 		.4byte	.LASF143
 2319 0ad4 01       		.byte	0x1
 2320 0ad5 6E01     		.2byte	0x16e
 2321 0ad7 35010000 		.4byte	0x135
 2322 0adb 00000000 		.4byte	.LFB227
 2323 0adf 36000000 		.4byte	.LFE227-.LFB227
 2324 0ae3 01       		.uleb128 0x1
 2325 0ae4 9C       		.byte	0x9c
 2326 0ae5 350B0000 		.4byte	0xb35
 2327 0ae9 1B       		.uleb128 0x1b
 2328 0aea 6F717000 		.ascii	"oqp\000"
 2329 0aee 01       		.byte	0x1
 2330 0aef 6E01     		.2byte	0x16e
 2331 0af1 B40A0000 		.4byte	0xab4
 2332 0af5 0F010000 		.4byte	.LLST28
 2333 0af9 1E       		.uleb128 0x1e
 2334 0afa 6200     		.ascii	"b\000"
 2335 0afc 01       		.byte	0x1
 2336 0afd 6F01     		.2byte	0x16f
 2337 0aff B2000000 		.4byte	0xb2
ARM GAS  /tmp/cc0YDrCi.s 			page 42


 2338 0b03 49010000 		.4byte	.LLST29
 2339 0b07 23       		.uleb128 0x23
 2340 0b08 54110000 		.4byte	0x1154
 2341 0b0c 02000000 		.4byte	.LBB170
 2342 0b10 50000000 		.4byte	.Ldebug_ranges0+0x50
 2343 0b14 01       		.byte	0x1
 2344 0b15 7301     		.2byte	0x173
 2345 0b17 250B0000 		.4byte	0xb25
 2346 0b1b 24       		.uleb128 0x24
 2347 0b1c 65110000 		.4byte	0x1165
 2348 0b20 5C010000 		.4byte	.LLST30
 2349 0b24 00       		.byte	0
 2350 0b25 26       		.uleb128 0x26
 2351 0b26 26000000 		.4byte	.LVL55
 2352 0b2a 50120000 		.4byte	0x1250
 2353 0b2e 27       		.uleb128 0x27
 2354 0b2f 01       		.uleb128 0x1
 2355 0b30 51       		.byte	0x51
 2356 0b31 01       		.uleb128 0x1
 2357 0b32 30       		.byte	0x30
 2358 0b33 00       		.byte	0
 2359 0b34 00       		.byte	0
 2360 0b35 28       		.uleb128 0x28
 2361 0b36 00000000 		.4byte	.LASF144
 2362 0b3a 01       		.byte	0x1
 2363 0b3b 4B01     		.2byte	0x14b
 2364 0b3d 35010000 		.4byte	0x135
 2365 0b41 00000000 		.4byte	.LFB226
 2366 0b45 48000000 		.4byte	.LFE226-.LFB226
 2367 0b49 01       		.uleb128 0x1
 2368 0b4a 9C       		.byte	0x9c
 2369 0b4b 810C0000 		.4byte	0xc81
 2370 0b4f 1B       		.uleb128 0x1b
 2371 0b50 6F717000 		.ascii	"oqp\000"
 2372 0b54 01       		.byte	0x1
 2373 0b55 4B01     		.2byte	0x14b
 2374 0b57 B40A0000 		.4byte	0xab4
 2375 0b5b 88010000 		.4byte	.LLST23
 2376 0b5f 1B       		.uleb128 0x1b
 2377 0b60 6200     		.ascii	"b\000"
 2378 0b62 01       		.byte	0x1
 2379 0b63 4B01     		.2byte	0x14b
 2380 0b65 B2000000 		.4byte	0xb2
 2381 0b69 BC010000 		.4byte	.LLST24
 2382 0b6d 1C       		.uleb128 0x1c
 2383 0b6e 0E040000 		.4byte	.LASF141
 2384 0b72 01       		.byte	0x1
 2385 0b73 4B01     		.2byte	0x14b
 2386 0b75 56010000 		.4byte	0x156
 2387 0b79 DD010000 		.4byte	.LLST25
 2388 0b7d 29       		.uleb128 0x29
 2389 0b7e 30000000 		.4byte	.Ldebug_ranges0+0x30
 2390 0b82 E00B0000 		.4byte	0xbe0
 2391 0b86 1E       		.uleb128 0x1e
 2392 0b87 6D736700 		.ascii	"msg\000"
 2393 0b8b 01       		.byte	0x1
 2394 0b8c 4F01     		.2byte	0x14f
ARM GAS  /tmp/cc0YDrCi.s 			page 43


 2395 0b8e 35010000 		.4byte	0x135
 2396 0b92 1C020000 		.4byte	.LLST26
 2397 0b96 20       		.uleb128 0x20
 2398 0b97 CE110000 		.4byte	0x11ce
 2399 0b9b 44000000 		.4byte	.LBB156
 2400 0b9f 02000000 		.4byte	.LBE156-.LBB156
 2401 0ba3 01       		.byte	0x1
 2402 0ba4 5101     		.2byte	0x151
 2403 0ba6 D60B0000 		.4byte	0xbd6
 2404 0baa 25       		.uleb128 0x25
 2405 0bab 44000000 		.4byte	.LBB157
 2406 0baf 02000000 		.4byte	.LBE157-.LBB157
 2407 0bb3 21       		.uleb128 0x21
 2408 0bb4 21120000 		.4byte	0x1221
 2409 0bb8 44000000 		.4byte	.LBB158
 2410 0bbc 02000000 		.4byte	.LBE158-.LBB158
 2411 0bc0 12       		.byte	0x12
 2412 0bc1 7301     		.2byte	0x173
 2413 0bc3 22       		.uleb128 0x22
 2414 0bc4 3C120000 		.4byte	0x123c
 2415 0bc8 44000000 		.4byte	.LBB159
 2416 0bcc 02000000 		.4byte	.LBE159-.LBB159
 2417 0bd0 0D       		.byte	0xd
 2418 0bd1 CF01     		.2byte	0x1cf
 2419 0bd3 00       		.byte	0
 2420 0bd4 00       		.byte	0
 2421 0bd5 00       		.byte	0
 2422 0bd6 2A       		.uleb128 0x2a
 2423 0bd7 10000000 		.4byte	.LVL45
 2424 0bdb 45120000 		.4byte	0x1245
 2425 0bdf 00       		.byte	0
 2426 0be0 20       		.uleb128 0x20
 2427 0be1 FE110000 		.4byte	0x11fe
 2428 0be5 08000000 		.4byte	.LBB151
 2429 0be9 04000000 		.4byte	.LBE151-.LBB151
 2430 0bed 01       		.byte	0x1
 2431 0bee 4D01     		.2byte	0x14d
 2432 0bf0 160C0000 		.4byte	0xc16
 2433 0bf4 21       		.uleb128 0x21
 2434 0bf5 2A120000 		.4byte	0x122a
 2435 0bf9 08000000 		.4byte	.LBB152
 2436 0bfd 04000000 		.4byte	.LBE152-.LBB152
 2437 0c01 12       		.byte	0x12
 2438 0c02 5C01     		.2byte	0x15c
 2439 0c04 22       		.uleb128 0x22
 2440 0c05 33120000 		.4byte	0x1233
 2441 0c09 08000000 		.4byte	.LBB153
 2442 0c0d 04000000 		.4byte	.LBE153-.LBB153
 2443 0c11 0D       		.byte	0xd
 2444 0c12 C101     		.2byte	0x1c1
 2445 0c14 00       		.byte	0
 2446 0c15 00       		.byte	0
 2447 0c16 20       		.uleb128 0x20
 2448 0c17 2F110000 		.4byte	0x112f
 2449 0c1b 14000000 		.4byte	.LBB161
 2450 0c1f 02000000 		.4byte	.LBE161-.LBB161
 2451 0c23 01       		.byte	0x1
ARM GAS  /tmp/cc0YDrCi.s 			page 44


 2452 0c24 4E01     		.2byte	0x14e
 2453 0c26 340C0000 		.4byte	0xc34
 2454 0c2a 24       		.uleb128 0x24
 2455 0c2b 40110000 		.4byte	0x1140
 2456 0c2f 3A020000 		.4byte	.LLST27
 2457 0c33 00       		.byte	0
 2458 0c34 20       		.uleb128 0x20
 2459 0c35 CE110000 		.4byte	0x11ce
 2460 0c39 3E000000 		.4byte	.LBB164
 2461 0c3d 02000000 		.4byte	.LBE164-.LBB164
 2462 0c41 01       		.byte	0x1
 2463 0c42 5F01     		.2byte	0x15f
 2464 0c44 740C0000 		.4byte	0xc74
 2465 0c48 25       		.uleb128 0x25
 2466 0c49 3E000000 		.4byte	.LBB165
 2467 0c4d 02000000 		.4byte	.LBE165-.LBB165
 2468 0c51 21       		.uleb128 0x21
 2469 0c52 21120000 		.4byte	0x1221
 2470 0c56 3E000000 		.4byte	.LBB166
 2471 0c5a 02000000 		.4byte	.LBE166-.LBB166
 2472 0c5e 12       		.byte	0x12
 2473 0c5f 7301     		.2byte	0x173
 2474 0c61 22       		.uleb128 0x22
 2475 0c62 3C120000 		.4byte	0x123c
 2476 0c66 3E000000 		.4byte	.LBB167
 2477 0c6a 02000000 		.4byte	.LBE167-.LBB167
 2478 0c6e 0D       		.byte	0xd
 2479 0c6f CF01     		.2byte	0x1cf
 2480 0c71 00       		.byte	0
 2481 0c72 00       		.byte	0
 2482 0c73 00       		.byte	0
 2483 0c74 2B       		.uleb128 0x2b
 2484 0c75 3E000000 		.4byte	.LVL50
 2485 0c79 27       		.uleb128 0x27
 2486 0c7a 01       		.uleb128 0x1
 2487 0c7b 50       		.byte	0x50
 2488 0c7c 02       		.uleb128 0x2
 2489 0c7d 74       		.byte	0x74
 2490 0c7e 00       		.sleb128 0
 2491 0c7f 00       		.byte	0
 2492 0c80 00       		.byte	0
 2493 0c81 2C       		.uleb128 0x2c
 2494 0c82 BA070000 		.4byte	.LASF145
 2495 0c86 01       		.byte	0x1
 2496 0c87 2B01     		.2byte	0x12b
 2497 0c89 00000000 		.4byte	.LFB225
 2498 0c8d 1A000000 		.4byte	.LFE225-.LFB225
 2499 0c91 01       		.uleb128 0x1
 2500 0c92 9C       		.byte	0x9c
 2501 0c93 BF0C0000 		.4byte	0xcbf
 2502 0c97 1B       		.uleb128 0x1b
 2503 0c98 6F717000 		.ascii	"oqp\000"
 2504 0c9c 01       		.byte	0x1
 2505 0c9d 2B01     		.2byte	0x12b
 2506 0c9f B40A0000 		.4byte	0xab4
 2507 0ca3 4D020000 		.4byte	.LLST22
 2508 0ca7 2D       		.uleb128 0x2d
ARM GAS  /tmp/cc0YDrCi.s 			page 45


 2509 0ca8 1A000000 		.4byte	.LVL42
 2510 0cac 5B120000 		.4byte	0x125b
 2511 0cb0 27       		.uleb128 0x27
 2512 0cb1 01       		.uleb128 0x1
 2513 0cb2 50       		.byte	0x50
 2514 0cb3 03       		.uleb128 0x3
 2515 0cb4 F3       		.byte	0xf3
 2516 0cb5 01       		.uleb128 0x1
 2517 0cb6 50       		.byte	0x50
 2518 0cb7 27       		.uleb128 0x27
 2519 0cb8 01       		.uleb128 0x1
 2520 0cb9 51       		.byte	0x51
 2521 0cba 02       		.uleb128 0x2
 2522 0cbb 09       		.byte	0x9
 2523 0cbc FE       		.byte	0xfe
 2524 0cbd 00       		.byte	0
 2525 0cbe 00       		.byte	0
 2526 0cbf 2C       		.uleb128 0x2c
 2527 0cc0 DA070000 		.4byte	.LASF146
 2528 0cc4 01       		.byte	0x1
 2529 0cc5 1301     		.2byte	0x113
 2530 0cc7 00000000 		.4byte	.LFB224
 2531 0ccb 1C000000 		.4byte	.LFE224-.LFB224
 2532 0ccf 01       		.uleb128 0x1
 2533 0cd0 9C       		.byte	0x9c
 2534 0cd1 510D0000 		.4byte	0xd51
 2535 0cd5 2E       		.uleb128 0x2e
 2536 0cd6 6F717000 		.ascii	"oqp\000"
 2537 0cda 01       		.byte	0x1
 2538 0cdb 1301     		.2byte	0x113
 2539 0cdd B40A0000 		.4byte	0xab4
 2540 0ce1 01       		.uleb128 0x1
 2541 0ce2 50       		.byte	0x50
 2542 0ce3 2E       		.uleb128 0x2e
 2543 0ce4 627000   		.ascii	"bp\000"
 2544 0ce7 01       		.byte	0x1
 2545 0ce8 1301     		.2byte	0x113
 2546 0cea F5080000 		.4byte	0x8f5
 2547 0cee 01       		.uleb128 0x1
 2548 0cef 51       		.byte	0x51
 2549 0cf0 2F       		.uleb128 0x2f
 2550 0cf1 49080000 		.4byte	.LASF147
 2551 0cf5 01       		.byte	0x1
 2552 0cf6 1301     		.2byte	0x113
 2553 0cf8 2C000000 		.4byte	0x2c
 2554 0cfc 01       		.uleb128 0x1
 2555 0cfd 52       		.byte	0x52
 2556 0cfe 2F       		.uleb128 0x2f
 2557 0cff 29000000 		.4byte	.LASF148
 2558 0d03 01       		.byte	0x1
 2559 0d04 1401     		.2byte	0x114
 2560 0d06 D3080000 		.4byte	0x8d3
 2561 0d0a 01       		.uleb128 0x1
 2562 0d0b 53       		.byte	0x53
 2563 0d0c 1C       		.uleb128 0x1c
 2564 0d0d 66030000 		.4byte	.LASF149
 2565 0d11 01       		.byte	0x1
ARM GAS  /tmp/cc0YDrCi.s 			page 46


 2566 0d12 1401     		.2byte	0x114
 2567 0d14 5E030000 		.4byte	0x35e
 2568 0d18 6E020000 		.4byte	.LLST19
 2569 0d1c 21       		.uleb128 0x21
 2570 0d1d AE110000 		.4byte	0x11ae
 2571 0d21 10000000 		.4byte	.LBB148
 2572 0d25 04000000 		.4byte	.LBE148-.LBB148
 2573 0d29 01       		.byte	0x1
 2574 0d2a 1601     		.2byte	0x116
 2575 0d2c 24       		.uleb128 0x24
 2576 0d2d BB110000 		.4byte	0x11bb
 2577 0d31 8E020000 		.4byte	.LLST20
 2578 0d35 21       		.uleb128 0x21
 2579 0d36 07120000 		.4byte	0x1207
 2580 0d3a 10000000 		.4byte	.LBB149
 2581 0d3e 04000000 		.4byte	.LBE149-.LBB149
 2582 0d42 13       		.byte	0x13
 2583 0d43 1801     		.2byte	0x118
 2584 0d45 24       		.uleb128 0x24
 2585 0d46 14120000 		.4byte	0x1214
 2586 0d4a 8E020000 		.4byte	.LLST20
 2587 0d4e 00       		.byte	0
 2588 0d4f 00       		.byte	0
 2589 0d50 00       		.byte	0
 2590 0d51 30       		.uleb128 0x30
 2591 0d52 7B000000 		.4byte	.LASF150
 2592 0d56 01       		.byte	0x1
 2593 0d57 DF       		.byte	0xdf
 2594 0d58 2C000000 		.4byte	0x2c
 2595 0d5c 00000000 		.4byte	.LFB223
 2596 0d60 5C000000 		.4byte	.LFE223-.LFB223
 2597 0d64 01       		.uleb128 0x1
 2598 0d65 9C       		.byte	0x9c
 2599 0d66 E50E0000 		.4byte	0xee5
 2600 0d6a 31       		.uleb128 0x31
 2601 0d6b 69717000 		.ascii	"iqp\000"
 2602 0d6f 01       		.byte	0x1
 2603 0d70 DF       		.byte	0xdf
 2604 0d71 E50E0000 		.4byte	0xee5
 2605 0d75 A1020000 		.4byte	.LLST13
 2606 0d79 31       		.uleb128 0x31
 2607 0d7a 627000   		.ascii	"bp\000"
 2608 0d7d 01       		.byte	0x1
 2609 0d7e DF       		.byte	0xdf
 2610 0d7f F5080000 		.4byte	0x8f5
 2611 0d83 EB020000 		.4byte	.LLST14
 2612 0d87 31       		.uleb128 0x31
 2613 0d88 6E00     		.ascii	"n\000"
 2614 0d8a 01       		.byte	0x1
 2615 0d8b E0       		.byte	0xe0
 2616 0d8c 2C000000 		.4byte	0x2c
 2617 0d90 21030000 		.4byte	.LLST15
 2618 0d94 32       		.uleb128 0x32
 2619 0d95 0E040000 		.4byte	.LASF141
 2620 0d99 01       		.byte	0x1
 2621 0d9a E0       		.byte	0xe0
 2622 0d9b 56010000 		.4byte	0x156
ARM GAS  /tmp/cc0YDrCi.s 			page 47


 2623 0d9f 44030000 		.4byte	.LLST16
 2624 0da3 33       		.uleb128 0x33
 2625 0da4 6E667900 		.ascii	"nfy\000"
 2626 0da8 01       		.byte	0x1
 2627 0da9 E1       		.byte	0xe1
 2628 0daa D3080000 		.4byte	0x8d3
 2629 0dae 01       		.uleb128 0x1
 2630 0daf 57       		.byte	0x57
 2631 0db0 34       		.uleb128 0x34
 2632 0db1 7200     		.ascii	"r\000"
 2633 0db3 01       		.byte	0x1
 2634 0db4 E2       		.byte	0xe2
 2635 0db5 2C000000 		.4byte	0x2c
 2636 0db9 8E030000 		.4byte	.LLST17
 2637 0dbd 1F       		.uleb128 0x1f
 2638 0dbe A4060000 		.4byte	.LASF151
 2639 0dc2 FB0E0000 		.4byte	0xefb
 2640 0dc6 35       		.uleb128 0x35
 2641 0dc7 FE110000 		.4byte	0x11fe
 2642 0dcb 0E000000 		.4byte	.LBB128
 2643 0dcf 02000000 		.4byte	.LBE128-.LBB128
 2644 0dd3 01       		.byte	0x1
 2645 0dd4 E6       		.byte	0xe6
 2646 0dd5 FB0D0000 		.4byte	0xdfb
 2647 0dd9 21       		.uleb128 0x21
 2648 0dda 2A120000 		.4byte	0x122a
 2649 0dde 0E000000 		.4byte	.LBB129
 2650 0de2 02000000 		.4byte	.LBE129-.LBB129
 2651 0de6 12       		.byte	0x12
 2652 0de7 5C01     		.2byte	0x15c
 2653 0de9 22       		.uleb128 0x22
 2654 0dea 33120000 		.4byte	0x1233
 2655 0dee 0E000000 		.4byte	.LBB130
 2656 0df2 02000000 		.4byte	.LBE130-.LBB130
 2657 0df6 0D       		.byte	0xd
 2658 0df7 C101     		.2byte	0x1c1
 2659 0df9 00       		.byte	0
 2660 0dfa 00       		.byte	0
 2661 0dfb 35       		.uleb128 0x35
 2662 0dfc 90110000 		.4byte	0x1190
 2663 0e00 20000000 		.4byte	.LBB132
 2664 0e04 02000000 		.4byte	.LBE132-.LBB132
 2665 0e08 01       		.byte	0x1
 2666 0e09 EC       		.byte	0xec
 2667 0e0a 180E0000 		.4byte	0xe18
 2668 0e0e 24       		.uleb128 0x24
 2669 0e0f A1110000 		.4byte	0x11a1
 2670 0e13 AD030000 		.4byte	.LLST18
 2671 0e17 00       		.byte	0
 2672 0e18 35       		.uleb128 0x35
 2673 0e19 CE110000 		.4byte	0x11ce
 2674 0e1d 48000000 		.4byte	.LBB134
 2675 0e21 02000000 		.4byte	.LBE134-.LBB134
 2676 0e25 01       		.byte	0x1
 2677 0e26 F8       		.byte	0xf8
 2678 0e27 570E0000 		.4byte	0xe57
 2679 0e2b 25       		.uleb128 0x25
ARM GAS  /tmp/cc0YDrCi.s 			page 48


 2680 0e2c 48000000 		.4byte	.LBB135
 2681 0e30 02000000 		.4byte	.LBE135-.LBB135
 2682 0e34 21       		.uleb128 0x21
 2683 0e35 21120000 		.4byte	0x1221
 2684 0e39 48000000 		.4byte	.LBB136
 2685 0e3d 02000000 		.4byte	.LBE136-.LBB136
 2686 0e41 12       		.byte	0x12
 2687 0e42 7301     		.2byte	0x173
 2688 0e44 22       		.uleb128 0x22
 2689 0e45 3C120000 		.4byte	0x123c
 2690 0e49 48000000 		.4byte	.LBB137
 2691 0e4d 02000000 		.4byte	.LBE137-.LBB137
 2692 0e51 0D       		.byte	0xd
 2693 0e52 CF01     		.2byte	0x1cf
 2694 0e54 00       		.byte	0
 2695 0e55 00       		.byte	0
 2696 0e56 00       		.byte	0
 2697 0e57 35       		.uleb128 0x35
 2698 0e58 FE110000 		.4byte	0x11fe
 2699 0e5c 50000000 		.4byte	.LBB139
 2700 0e60 04000000 		.4byte	.LBE139-.LBB139
 2701 0e64 01       		.byte	0x1
 2702 0e65 FF       		.byte	0xff
 2703 0e66 8C0E0000 		.4byte	0xe8c
 2704 0e6a 21       		.uleb128 0x21
 2705 0e6b 2A120000 		.4byte	0x122a
 2706 0e6f 50000000 		.4byte	.LBB140
 2707 0e73 04000000 		.4byte	.LBE140-.LBB140
 2708 0e77 12       		.byte	0x12
 2709 0e78 5C01     		.2byte	0x15c
 2710 0e7a 22       		.uleb128 0x22
 2711 0e7b 33120000 		.4byte	0x1233
 2712 0e7f 50000000 		.4byte	.LBB141
 2713 0e83 04000000 		.4byte	.LBE141-.LBB141
 2714 0e87 0D       		.byte	0xd
 2715 0e88 C101     		.2byte	0x1c1
 2716 0e8a 00       		.byte	0
 2717 0e8b 00       		.byte	0
 2718 0e8c 35       		.uleb128 0x35
 2719 0e8d CE110000 		.4byte	0x11ce
 2720 0e91 54000000 		.4byte	.LBB143
 2721 0e95 02000000 		.4byte	.LBE143-.LBB143
 2722 0e99 01       		.byte	0x1
 2723 0e9a EE       		.byte	0xee
 2724 0e9b CB0E0000 		.4byte	0xecb
 2725 0e9f 25       		.uleb128 0x25
 2726 0ea0 54000000 		.4byte	.LBB144
 2727 0ea4 02000000 		.4byte	.LBE144-.LBB144
 2728 0ea8 21       		.uleb128 0x21
 2729 0ea9 21120000 		.4byte	0x1221
 2730 0ead 54000000 		.4byte	.LBB145
 2731 0eb1 02000000 		.4byte	.LBE145-.LBB145
 2732 0eb5 12       		.byte	0x12
 2733 0eb6 7301     		.2byte	0x173
 2734 0eb8 22       		.uleb128 0x22
 2735 0eb9 3C120000 		.4byte	0x123c
 2736 0ebd 54000000 		.4byte	.LBB146
ARM GAS  /tmp/cc0YDrCi.s 			page 49


 2737 0ec1 02000000 		.4byte	.LBE146-.LBB146
 2738 0ec5 0D       		.byte	0xd
 2739 0ec6 CF01     		.2byte	0x1cf
 2740 0ec8 00       		.byte	0
 2741 0ec9 00       		.byte	0
 2742 0eca 00       		.byte	0
 2743 0ecb 36       		.uleb128 0x36
 2744 0ecc 18000000 		.4byte	.LVL27
 2745 0ed0 DB0E0000 		.4byte	0xedb
 2746 0ed4 27       		.uleb128 0x27
 2747 0ed5 01       		.uleb128 0x1
 2748 0ed6 50       		.byte	0x50
 2749 0ed7 02       		.uleb128 0x2
 2750 0ed8 74       		.byte	0x74
 2751 0ed9 00       		.sleb128 0
 2752 0eda 00       		.byte	0
 2753 0edb 2A       		.uleb128 0x2a
 2754 0edc 1E000000 		.4byte	.LVL29
 2755 0ee0 45120000 		.4byte	0x1245
 2756 0ee4 00       		.byte	0
 2757 0ee5 0B       		.uleb128 0xb
 2758 0ee6 04       		.byte	0x4
 2759 0ee7 FB080000 		.4byte	0x8fb
 2760 0eeb 17       		.uleb128 0x17
 2761 0eec 18070000 		.4byte	0x718
 2762 0ef0 FB0E0000 		.4byte	0xefb
 2763 0ef4 18       		.uleb128 0x18
 2764 0ef5 3C000000 		.4byte	0x3c
 2765 0ef9 0F       		.byte	0xf
 2766 0efa 00       		.byte	0
 2767 0efb 06       		.uleb128 0x6
 2768 0efc EB0E0000 		.4byte	0xeeb
 2769 0f00 30       		.uleb128 0x30
 2770 0f01 B2080000 		.4byte	.LASF152
 2771 0f05 01       		.byte	0x1
 2772 0f06 AD       		.byte	0xad
 2773 0f07 35010000 		.4byte	0x135
 2774 0f0b 00000000 		.4byte	.LFB222
 2775 0f0f 40000000 		.4byte	.LFE222-.LFB222
 2776 0f13 01       		.uleb128 0x1
 2777 0f14 9C       		.byte	0x9c
 2778 0f15 04100000 		.4byte	0x1004
 2779 0f19 31       		.uleb128 0x31
 2780 0f1a 69717000 		.ascii	"iqp\000"
 2781 0f1e 01       		.byte	0x1
 2782 0f1f AD       		.byte	0xad
 2783 0f20 E50E0000 		.4byte	0xee5
 2784 0f24 C0030000 		.4byte	.LLST8
 2785 0f28 32       		.uleb128 0x32
 2786 0f29 0E040000 		.4byte	.LASF141
 2787 0f2d 01       		.byte	0x1
 2788 0f2e AD       		.byte	0xad
 2789 0f2f 56010000 		.4byte	0x156
 2790 0f33 0A040000 		.4byte	.LLST9
 2791 0f37 34       		.uleb128 0x34
 2792 0f38 6200     		.ascii	"b\000"
 2793 0f3a 01       		.byte	0x1
ARM GAS  /tmp/cc0YDrCi.s 			page 50


 2794 0f3b AE       		.byte	0xae
 2795 0f3c B2000000 		.4byte	0xb2
 2796 0f40 62040000 		.4byte	.LLST10
 2797 0f44 29       		.uleb128 0x29
 2798 0f45 18000000 		.4byte	.Ldebug_ranges0+0x18
 2799 0f49 660F0000 		.4byte	0xf66
 2800 0f4d 34       		.uleb128 0x34
 2801 0f4e 6D736700 		.ascii	"msg\000"
 2802 0f52 01       		.byte	0x1
 2803 0f53 B6       		.byte	0xb6
 2804 0f54 35010000 		.4byte	0x135
 2805 0f58 75040000 		.4byte	.LLST11
 2806 0f5c 2A       		.uleb128 0x2a
 2807 0f5d 14000000 		.4byte	.LVL15
 2808 0f61 45120000 		.4byte	0x1245
 2809 0f65 00       		.byte	0
 2810 0f66 35       		.uleb128 0x35
 2811 0f67 FE110000 		.4byte	0x11fe
 2812 0f6b 06000000 		.4byte	.LBB115
 2813 0f6f 02000000 		.4byte	.LBE115-.LBB115
 2814 0f73 01       		.byte	0x1
 2815 0f74 B0       		.byte	0xb0
 2816 0f75 9B0F0000 		.4byte	0xf9b
 2817 0f79 21       		.uleb128 0x21
 2818 0f7a 2A120000 		.4byte	0x122a
 2819 0f7e 06000000 		.4byte	.LBB116
 2820 0f82 02000000 		.4byte	.LBE116-.LBB116
 2821 0f86 12       		.byte	0x12
 2822 0f87 5C01     		.2byte	0x15c
 2823 0f89 22       		.uleb128 0x22
 2824 0f8a 33120000 		.4byte	0x1233
 2825 0f8e 06000000 		.4byte	.LBB117
 2826 0f92 02000000 		.4byte	.LBE117-.LBB117
 2827 0f96 0D       		.byte	0xd
 2828 0f97 C101     		.2byte	0x1c1
 2829 0f99 00       		.byte	0
 2830 0f9a 00       		.byte	0
 2831 0f9b 35       		.uleb128 0x35
 2832 0f9c 90110000 		.4byte	0x1190
 2833 0fa0 18000000 		.4byte	.LBB120
 2834 0fa4 02000000 		.4byte	.LBE120-.LBB120
 2835 0fa8 01       		.byte	0x1
 2836 0fa9 B5       		.byte	0xb5
 2837 0faa B80F0000 		.4byte	0xfb8
 2838 0fae 24       		.uleb128 0x24
 2839 0faf A1110000 		.4byte	0x11a1
 2840 0fb3 88040000 		.4byte	.LLST12
 2841 0fb7 00       		.byte	0
 2842 0fb8 35       		.uleb128 0x35
 2843 0fb9 CE110000 		.4byte	0x11ce
 2844 0fbd 3C000000 		.4byte	.LBB123
 2845 0fc1 02000000 		.4byte	.LBE123-.LBB123
 2846 0fc5 01       		.byte	0x1
 2847 0fc6 C2       		.byte	0xc2
 2848 0fc7 F70F0000 		.4byte	0xff7
 2849 0fcb 25       		.uleb128 0x25
 2850 0fcc 3C000000 		.4byte	.LBB124
ARM GAS  /tmp/cc0YDrCi.s 			page 51


 2851 0fd0 02000000 		.4byte	.LBE124-.LBB124
 2852 0fd4 21       		.uleb128 0x21
 2853 0fd5 21120000 		.4byte	0x1221
 2854 0fd9 3C000000 		.4byte	.LBB125
 2855 0fdd 02000000 		.4byte	.LBE125-.LBB125
 2856 0fe1 12       		.byte	0x12
 2857 0fe2 7301     		.2byte	0x173
 2858 0fe4 22       		.uleb128 0x22
 2859 0fe5 3C120000 		.4byte	0x123c
 2860 0fe9 3C000000 		.4byte	.LBB126
 2861 0fed 02000000 		.4byte	.LBE126-.LBB126
 2862 0ff1 0D       		.byte	0xd
 2863 0ff2 CF01     		.2byte	0x1cf
 2864 0ff4 00       		.byte	0
 2865 0ff5 00       		.byte	0
 2866 0ff6 00       		.byte	0
 2867 0ff7 2B       		.uleb128 0x2b
 2868 0ff8 0E000000 		.4byte	.LVL13
 2869 0ffc 27       		.uleb128 0x27
 2870 0ffd 01       		.uleb128 0x1
 2871 0ffe 50       		.byte	0x50
 2872 0fff 02       		.uleb128 0x2
 2873 1000 74       		.byte	0x74
 2874 1001 00       		.sleb128 0
 2875 1002 00       		.byte	0
 2876 1003 00       		.byte	0
 2877 1004 30       		.uleb128 0x30
 2878 1005 6B030000 		.4byte	.LASF153
 2879 1009 01       		.byte	0x1
 2880 100a 86       		.byte	0x86
 2881 100b 35010000 		.4byte	0x135
 2882 100f 00000000 		.4byte	.LFB221
 2883 1013 38000000 		.4byte	.LFE221-.LFB221
 2884 1017 01       		.uleb128 0x1
 2885 1018 9C       		.byte	0x9c
 2886 1019 66100000 		.4byte	0x1066
 2887 101d 31       		.uleb128 0x31
 2888 101e 69717000 		.ascii	"iqp\000"
 2889 1022 01       		.byte	0x1
 2890 1023 86       		.byte	0x86
 2891 1024 E50E0000 		.4byte	0xee5
 2892 1028 9B040000 		.4byte	.LLST5
 2893 102c 31       		.uleb128 0x31
 2894 102d 6200     		.ascii	"b\000"
 2895 102f 01       		.byte	0x1
 2896 1030 86       		.byte	0x86
 2897 1031 B2000000 		.4byte	0xb2
 2898 1035 D5040000 		.4byte	.LLST6
 2899 1039 37       		.uleb128 0x37
 2900 103a 72110000 		.4byte	0x1172
 2901 103e 00000000 		.4byte	.LBB111
 2902 1042 00000000 		.4byte	.Ldebug_ranges0+0
 2903 1046 01       		.byte	0x1
 2904 1047 8A       		.byte	0x8a
 2905 1048 56100000 		.4byte	0x1056
 2906 104c 24       		.uleb128 0x24
 2907 104d 83110000 		.4byte	0x1183
ARM GAS  /tmp/cc0YDrCi.s 			page 52


 2908 1051 01050000 		.4byte	.LLST7
 2909 1055 00       		.byte	0
 2910 1056 26       		.uleb128 0x26
 2911 1057 28000000 		.4byte	.LVL9
 2912 105b 50120000 		.4byte	0x1250
 2913 105f 27       		.uleb128 0x27
 2914 1060 01       		.uleb128 0x1
 2915 1061 51       		.byte	0x51
 2916 1062 01       		.uleb128 0x1
 2917 1063 30       		.byte	0x30
 2918 1064 00       		.byte	0
 2919 1065 00       		.byte	0
 2920 1066 38       		.uleb128 0x38
 2921 1067 F0010000 		.4byte	.LASF154
 2922 106b 01       		.byte	0x1
 2923 106c 6F       		.byte	0x6f
 2924 106d 00000000 		.4byte	.LFB220
 2925 1071 12000000 		.4byte	.LFE220-.LFB220
 2926 1075 01       		.uleb128 0x1
 2927 1076 9C       		.byte	0x9c
 2928 1077 A2100000 		.4byte	0x10a2
 2929 107b 31       		.uleb128 0x31
 2930 107c 69717000 		.ascii	"iqp\000"
 2931 1080 01       		.byte	0x1
 2932 1081 6F       		.byte	0x6f
 2933 1082 E50E0000 		.4byte	0xee5
 2934 1086 2D050000 		.4byte	.LLST4
 2935 108a 2D       		.uleb128 0x2d
 2936 108b 12000000 		.4byte	.LVL5
 2937 108f 5B120000 		.4byte	0x125b
 2938 1093 27       		.uleb128 0x27
 2939 1094 01       		.uleb128 0x1
 2940 1095 50       		.byte	0x50
 2941 1096 03       		.uleb128 0x3
 2942 1097 F3       		.byte	0xf3
 2943 1098 01       		.uleb128 0x1
 2944 1099 50       		.byte	0x50
 2945 109a 27       		.uleb128 0x27
 2946 109b 01       		.uleb128 0x1
 2947 109c 51       		.byte	0x51
 2948 109d 02       		.uleb128 0x2
 2949 109e 09       		.byte	0x9
 2950 109f FE       		.byte	0xfe
 2951 10a0 00       		.byte	0
 2952 10a1 00       		.byte	0
 2953 10a2 38       		.uleb128 0x38
 2954 10a3 CA010000 		.4byte	.LASF155
 2955 10a7 01       		.byte	0x1
 2956 10a8 57       		.byte	0x57
 2957 10a9 00000000 		.4byte	.LFB219
 2958 10ad 1E000000 		.4byte	.LFE219-.LFB219
 2959 10b1 01       		.uleb128 0x1
 2960 10b2 9C       		.byte	0x9c
 2961 10b3 2F110000 		.4byte	0x112f
 2962 10b7 39       		.uleb128 0x39
 2963 10b8 69717000 		.ascii	"iqp\000"
 2964 10bc 01       		.byte	0x1
ARM GAS  /tmp/cc0YDrCi.s 			page 53


 2965 10bd 57       		.byte	0x57
 2966 10be E50E0000 		.4byte	0xee5
 2967 10c2 01       		.uleb128 0x1
 2968 10c3 50       		.byte	0x50
 2969 10c4 39       		.uleb128 0x39
 2970 10c5 627000   		.ascii	"bp\000"
 2971 10c8 01       		.byte	0x1
 2972 10c9 57       		.byte	0x57
 2973 10ca F5080000 		.4byte	0x8f5
 2974 10ce 01       		.uleb128 0x1
 2975 10cf 51       		.byte	0x51
 2976 10d0 32       		.uleb128 0x32
 2977 10d1 49080000 		.4byte	.LASF147
 2978 10d5 01       		.byte	0x1
 2979 10d6 57       		.byte	0x57
 2980 10d7 2C000000 		.4byte	0x2c
 2981 10db 4E050000 		.4byte	.LLST0
 2982 10df 3A       		.uleb128 0x3a
 2983 10e0 88060000 		.4byte	.LASF156
 2984 10e4 01       		.byte	0x1
 2985 10e5 58       		.byte	0x58
 2986 10e6 D3080000 		.4byte	0x8d3
 2987 10ea 01       		.uleb128 0x1
 2988 10eb 53       		.byte	0x53
 2989 10ec 32       		.uleb128 0x32
 2990 10ed 66030000 		.4byte	.LASF149
 2991 10f1 01       		.byte	0x1
 2992 10f2 58       		.byte	0x58
 2993 10f3 5E030000 		.4byte	0x35e
 2994 10f7 6F050000 		.4byte	.LLST1
 2995 10fb 3B       		.uleb128 0x3b
 2996 10fc AE110000 		.4byte	0x11ae
 2997 1100 0E000000 		.4byte	.LBB108
 2998 1104 04000000 		.4byte	.LBE108-.LBB108
 2999 1108 01       		.byte	0x1
 3000 1109 5A       		.byte	0x5a
 3001 110a 24       		.uleb128 0x24
 3002 110b BB110000 		.4byte	0x11bb
 3003 110f 8F050000 		.4byte	.LLST2
 3004 1113 21       		.uleb128 0x21
 3005 1114 07120000 		.4byte	0x1207
 3006 1118 0E000000 		.4byte	.LBB109
 3007 111c 04000000 		.4byte	.LBE109-.LBB109
 3008 1120 13       		.byte	0x13
 3009 1121 1801     		.2byte	0x118
 3010 1123 24       		.uleb128 0x24
 3011 1124 14120000 		.4byte	0x1214
 3012 1128 8F050000 		.4byte	.LLST2
 3013 112c 00       		.byte	0
 3014 112d 00       		.byte	0
 3015 112e 00       		.byte	0
 3016 112f 3C       		.uleb128 0x3c
 3017 1130 9E050000 		.4byte	.LASF158
 3018 1134 03       		.byte	0x3
 3019 1135 9301     		.2byte	0x193
 3020 1137 4D110000 		.4byte	0x114d
 3021 113b 03       		.byte	0x3
ARM GAS  /tmp/cc0YDrCi.s 			page 54


 3022 113c 4D110000 		.4byte	0x114d
 3023 1140 3D       		.uleb128 0x3d
 3024 1141 6F717000 		.ascii	"oqp\000"
 3025 1145 03       		.byte	0x3
 3026 1146 9301     		.2byte	0x193
 3027 1148 B40A0000 		.4byte	0xab4
 3028 114c 00       		.byte	0
 3029 114d 05       		.uleb128 0x5
 3030 114e 01       		.byte	0x1
 3031 114f 02       		.byte	0x2
 3032 1150 CA050000 		.4byte	.LASF157
 3033 1154 3C       		.uleb128 0x3c
 3034 1155 4E080000 		.4byte	.LASF159
 3035 1159 03       		.byte	0x3
 3036 115a 8201     		.2byte	0x182
 3037 115c 4D110000 		.4byte	0x114d
 3038 1160 03       		.byte	0x3
 3039 1161 72110000 		.4byte	0x1172
 3040 1165 3D       		.uleb128 0x3d
 3041 1166 6F717000 		.ascii	"oqp\000"
 3042 116a 03       		.byte	0x3
 3043 116b 8201     		.2byte	0x182
 3044 116d B40A0000 		.4byte	0xab4
 3045 1171 00       		.byte	0
 3046 1172 3C       		.uleb128 0x3c
 3047 1173 06070000 		.4byte	.LASF160
 3048 1177 03       		.byte	0x3
 3049 1178 4001     		.2byte	0x140
 3050 117a 4D110000 		.4byte	0x114d
 3051 117e 03       		.byte	0x3
 3052 117f 90110000 		.4byte	0x1190
 3053 1183 3D       		.uleb128 0x3d
 3054 1184 69717000 		.ascii	"iqp\000"
 3055 1188 03       		.byte	0x3
 3056 1189 4001     		.2byte	0x140
 3057 118b E50E0000 		.4byte	0xee5
 3058 118f 00       		.byte	0
 3059 1190 3C       		.uleb128 0x3c
 3060 1191 04080000 		.4byte	.LASF161
 3061 1195 03       		.byte	0x3
 3062 1196 2F01     		.2byte	0x12f
 3063 1198 4D110000 		.4byte	0x114d
 3064 119c 03       		.byte	0x3
 3065 119d AE110000 		.4byte	0x11ae
 3066 11a1 3D       		.uleb128 0x3d
 3067 11a2 69717000 		.ascii	"iqp\000"
 3068 11a6 03       		.byte	0x3
 3069 11a7 2F01     		.2byte	0x12f
 3070 11a9 E50E0000 		.4byte	0xee5
 3071 11ad 00       		.byte	0
 3072 11ae 3E       		.uleb128 0x3e
 3073 11af B5040000 		.4byte	.LASF162
 3074 11b3 13       		.byte	0x13
 3075 11b4 1601     		.2byte	0x116
 3076 11b6 03       		.byte	0x3
 3077 11b7 C8110000 		.4byte	0x11c8
 3078 11bb 3D       		.uleb128 0x3d
ARM GAS  /tmp/cc0YDrCi.s 			page 55


 3079 11bc 74717000 		.ascii	"tqp\000"
 3080 11c0 13       		.byte	0x13
 3081 11c1 1601     		.2byte	0x116
 3082 11c3 C8110000 		.4byte	0x11c8
 3083 11c7 00       		.byte	0
 3084 11c8 0B       		.uleb128 0xb
 3085 11c9 04       		.byte	0x4
 3086 11ca AB020000 		.4byte	0x2ab
 3087 11ce 3E       		.uleb128 0x3e
 3088 11cf 6E080000 		.4byte	.LASF163
 3089 11d3 12       		.byte	0x12
 3090 11d4 6601     		.2byte	0x166
 3091 11d6 03       		.byte	0x3
 3092 11d7 E9110000 		.4byte	0x11e9
 3093 11db 3F       		.uleb128 0x3f
 3094 11dc A4060000 		.4byte	.LASF151
 3095 11e0 F9110000 		.4byte	0x11f9
 3096 11e4 6E080000 		.4byte	.LASF163
 3097 11e8 00       		.byte	0
 3098 11e9 17       		.uleb128 0x17
 3099 11ea 18070000 		.4byte	0x718
 3100 11ee F9110000 		.4byte	0x11f9
 3101 11f2 18       		.uleb128 0x18
 3102 11f3 3C000000 		.4byte	0x3c
 3103 11f7 0B       		.byte	0xb
 3104 11f8 00       		.byte	0
 3105 11f9 06       		.uleb128 0x6
 3106 11fa E9110000 		.4byte	0x11e9
 3107 11fe 40       		.uleb128 0x40
 3108 11ff AD060000 		.4byte	.LASF165
 3109 1203 12       		.byte	0x12
 3110 1204 5A01     		.2byte	0x15a
 3111 1206 03       		.byte	0x3
 3112 1207 3E       		.uleb128 0x3e
 3113 1208 8B000000 		.4byte	.LASF164
 3114 120c 02       		.byte	0x2
 3115 120d 5A02     		.2byte	0x25a
 3116 120f 03       		.byte	0x3
 3117 1210 21120000 		.4byte	0x1221
 3118 1214 3D       		.uleb128 0x3d
 3119 1215 74717000 		.ascii	"tqp\000"
 3120 1219 02       		.byte	0x2
 3121 121a 5A02     		.2byte	0x25a
 3122 121c C8110000 		.4byte	0x11c8
 3123 1220 00       		.byte	0
 3124 1221 40       		.uleb128 0x40
 3125 1222 C8020000 		.4byte	.LASF166
 3126 1226 0D       		.byte	0xd
 3127 1227 CA01     		.2byte	0x1ca
 3128 1229 03       		.byte	0x3
 3129 122a 40       		.uleb128 0x40
 3130 122b BA010000 		.4byte	.LASF167
 3131 122f 0D       		.byte	0xd
 3132 1230 BC01     		.2byte	0x1bc
 3133 1232 03       		.byte	0x3
 3134 1233 40       		.uleb128 0x40
 3135 1234 64050000 		.4byte	.LASF168
ARM GAS  /tmp/cc0YDrCi.s 			page 56


 3136 1238 04       		.byte	0x4
 3137 1239 5401     		.2byte	0x154
 3138 123b 03       		.byte	0x3
 3139 123c 40       		.uleb128 0x40
 3140 123d 4C050000 		.4byte	.LASF169
 3141 1241 04       		.byte	0x4
 3142 1242 4901     		.2byte	0x149
 3143 1244 03       		.byte	0x3
 3144 1245 41       		.uleb128 0x41
 3145 1246 C1080000 		.4byte	.LASF170
 3146 124a C1080000 		.4byte	.LASF170
 3147 124e 13       		.byte	0x13
 3148 124f 92       		.byte	0x92
 3149 1250 41       		.uleb128 0x41
 3150 1251 40040000 		.4byte	.LASF171
 3151 1255 40040000 		.4byte	.LASF171
 3152 1259 13       		.byte	0x13
 3153 125a 93       		.byte	0x93
 3154 125b 41       		.uleb128 0x41
 3155 125c 45000000 		.4byte	.LASF172
 3156 1260 45000000 		.4byte	.LASF172
 3157 1264 13       		.byte	0x13
 3158 1265 94       		.byte	0x94
 3159 1266 00       		.byte	0
 3160              		.section	.debug_abbrev,"",%progbits
 3161              	.Ldebug_abbrev0:
 3162 0000 01       		.uleb128 0x1
 3163 0001 11       		.uleb128 0x11
 3164 0002 01       		.byte	0x1
 3165 0003 25       		.uleb128 0x25
 3166 0004 0E       		.uleb128 0xe
 3167 0005 13       		.uleb128 0x13
 3168 0006 0B       		.uleb128 0xb
 3169 0007 03       		.uleb128 0x3
 3170 0008 0E       		.uleb128 0xe
 3171 0009 1B       		.uleb128 0x1b
 3172 000a 0E       		.uleb128 0xe
 3173 000b 55       		.uleb128 0x55
 3174 000c 17       		.uleb128 0x17
 3175 000d 11       		.uleb128 0x11
 3176 000e 01       		.uleb128 0x1
 3177 000f 10       		.uleb128 0x10
 3178 0010 17       		.uleb128 0x17
 3179 0011 00       		.byte	0
 3180 0012 00       		.byte	0
 3181 0013 02       		.uleb128 0x2
 3182 0014 24       		.uleb128 0x24
 3183 0015 00       		.byte	0
 3184 0016 0B       		.uleb128 0xb
 3185 0017 0B       		.uleb128 0xb
 3186 0018 3E       		.uleb128 0x3e
 3187 0019 0B       		.uleb128 0xb
 3188 001a 03       		.uleb128 0x3
 3189 001b 08       		.uleb128 0x8
 3190 001c 00       		.byte	0
 3191 001d 00       		.byte	0
 3192 001e 03       		.uleb128 0x3
ARM GAS  /tmp/cc0YDrCi.s 			page 57


 3193 001f 16       		.uleb128 0x16
 3194 0020 00       		.byte	0
 3195 0021 03       		.uleb128 0x3
 3196 0022 0E       		.uleb128 0xe
 3197 0023 3A       		.uleb128 0x3a
 3198 0024 0B       		.uleb128 0xb
 3199 0025 3B       		.uleb128 0x3b
 3200 0026 0B       		.uleb128 0xb
 3201 0027 49       		.uleb128 0x49
 3202 0028 13       		.uleb128 0x13
 3203 0029 00       		.byte	0
 3204 002a 00       		.byte	0
 3205 002b 04       		.uleb128 0x4
 3206 002c 35       		.uleb128 0x35
 3207 002d 00       		.byte	0
 3208 002e 49       		.uleb128 0x49
 3209 002f 13       		.uleb128 0x13
 3210 0030 00       		.byte	0
 3211 0031 00       		.byte	0
 3212 0032 05       		.uleb128 0x5
 3213 0033 24       		.uleb128 0x24
 3214 0034 00       		.byte	0
 3215 0035 0B       		.uleb128 0xb
 3216 0036 0B       		.uleb128 0xb
 3217 0037 3E       		.uleb128 0x3e
 3218 0038 0B       		.uleb128 0xb
 3219 0039 03       		.uleb128 0x3
 3220 003a 0E       		.uleb128 0xe
 3221 003b 00       		.byte	0
 3222 003c 00       		.byte	0
 3223 003d 06       		.uleb128 0x6
 3224 003e 26       		.uleb128 0x26
 3225 003f 00       		.byte	0
 3226 0040 49       		.uleb128 0x49
 3227 0041 13       		.uleb128 0x13
 3228 0042 00       		.byte	0
 3229 0043 00       		.byte	0
 3230 0044 07       		.uleb128 0x7
 3231 0045 13       		.uleb128 0x13
 3232 0046 01       		.byte	0x1
 3233 0047 03       		.uleb128 0x3
 3234 0048 0E       		.uleb128 0xe
 3235 0049 0B       		.uleb128 0xb
 3236 004a 0B       		.uleb128 0xb
 3237 004b 3A       		.uleb128 0x3a
 3238 004c 0B       		.uleb128 0xb
 3239 004d 3B       		.uleb128 0x3b
 3240 004e 0B       		.uleb128 0xb
 3241 004f 01       		.uleb128 0x1
 3242 0050 13       		.uleb128 0x13
 3243 0051 00       		.byte	0
 3244 0052 00       		.byte	0
 3245 0053 08       		.uleb128 0x8
 3246 0054 0D       		.uleb128 0xd
 3247 0055 00       		.byte	0
 3248 0056 03       		.uleb128 0x3
 3249 0057 0E       		.uleb128 0xe
ARM GAS  /tmp/cc0YDrCi.s 			page 58


 3250 0058 3A       		.uleb128 0x3a
 3251 0059 0B       		.uleb128 0xb
 3252 005a 3B       		.uleb128 0x3b
 3253 005b 0B       		.uleb128 0xb
 3254 005c 49       		.uleb128 0x49
 3255 005d 13       		.uleb128 0x13
 3256 005e 38       		.uleb128 0x38
 3257 005f 0B       		.uleb128 0xb
 3258 0060 00       		.byte	0
 3259 0061 00       		.byte	0
 3260 0062 09       		.uleb128 0x9
 3261 0063 0D       		.uleb128 0xd
 3262 0064 00       		.byte	0
 3263 0065 03       		.uleb128 0x3
 3264 0066 08       		.uleb128 0x8
 3265 0067 3A       		.uleb128 0x3a
 3266 0068 0B       		.uleb128 0xb
 3267 0069 3B       		.uleb128 0x3b
 3268 006a 05       		.uleb128 0x5
 3269 006b 49       		.uleb128 0x49
 3270 006c 13       		.uleb128 0x13
 3271 006d 38       		.uleb128 0x38
 3272 006e 0B       		.uleb128 0xb
 3273 006f 00       		.byte	0
 3274 0070 00       		.byte	0
 3275 0071 0A       		.uleb128 0xa
 3276 0072 0D       		.uleb128 0xd
 3277 0073 00       		.byte	0
 3278 0074 03       		.uleb128 0x3
 3279 0075 0E       		.uleb128 0xe
 3280 0076 3A       		.uleb128 0x3a
 3281 0077 0B       		.uleb128 0xb
 3282 0078 3B       		.uleb128 0x3b
 3283 0079 05       		.uleb128 0x5
 3284 007a 49       		.uleb128 0x49
 3285 007b 13       		.uleb128 0x13
 3286 007c 38       		.uleb128 0x38
 3287 007d 0B       		.uleb128 0xb
 3288 007e 00       		.byte	0
 3289 007f 00       		.byte	0
 3290 0080 0B       		.uleb128 0xb
 3291 0081 0F       		.uleb128 0xf
 3292 0082 00       		.byte	0
 3293 0083 0B       		.uleb128 0xb
 3294 0084 0B       		.uleb128 0xb
 3295 0085 49       		.uleb128 0x49
 3296 0086 13       		.uleb128 0x13
 3297 0087 00       		.byte	0
 3298 0088 00       		.byte	0
 3299 0089 0C       		.uleb128 0xc
 3300 008a 13       		.uleb128 0x13
 3301 008b 01       		.byte	0x1
 3302 008c 03       		.uleb128 0x3
 3303 008d 0E       		.uleb128 0xe
 3304 008e 0B       		.uleb128 0xb
 3305 008f 0B       		.uleb128 0xb
 3306 0090 3A       		.uleb128 0x3a
ARM GAS  /tmp/cc0YDrCi.s 			page 59


 3307 0091 0B       		.uleb128 0xb
 3308 0092 3B       		.uleb128 0x3b
 3309 0093 05       		.uleb128 0x5
 3310 0094 01       		.uleb128 0x1
 3311 0095 13       		.uleb128 0x13
 3312 0096 00       		.byte	0
 3313 0097 00       		.byte	0
 3314 0098 0D       		.uleb128 0xd
 3315 0099 15       		.uleb128 0x15
 3316 009a 01       		.byte	0x1
 3317 009b 27       		.uleb128 0x27
 3318 009c 19       		.uleb128 0x19
 3319 009d 01       		.uleb128 0x1
 3320 009e 13       		.uleb128 0x13
 3321 009f 00       		.byte	0
 3322 00a0 00       		.byte	0
 3323 00a1 0E       		.uleb128 0xe
 3324 00a2 05       		.uleb128 0x5
 3325 00a3 00       		.byte	0
 3326 00a4 49       		.uleb128 0x49
 3327 00a5 13       		.uleb128 0x13
 3328 00a6 00       		.byte	0
 3329 00a7 00       		.byte	0
 3330 00a8 0F       		.uleb128 0xf
 3331 00a9 0F       		.uleb128 0xf
 3332 00aa 00       		.byte	0
 3333 00ab 0B       		.uleb128 0xb
 3334 00ac 0B       		.uleb128 0xb
 3335 00ad 00       		.byte	0
 3336 00ae 00       		.byte	0
 3337 00af 10       		.uleb128 0x10
 3338 00b0 13       		.uleb128 0x13
 3339 00b1 01       		.byte	0x1
 3340 00b2 03       		.uleb128 0x3
 3341 00b3 0E       		.uleb128 0xe
 3342 00b4 0B       		.uleb128 0xb
 3343 00b5 05       		.uleb128 0x5
 3344 00b6 3A       		.uleb128 0x3a
 3345 00b7 0B       		.uleb128 0xb
 3346 00b8 3B       		.uleb128 0x3b
 3347 00b9 05       		.uleb128 0x5
 3348 00ba 01       		.uleb128 0x1
 3349 00bb 13       		.uleb128 0x13
 3350 00bc 00       		.byte	0
 3351 00bd 00       		.byte	0
 3352 00be 11       		.uleb128 0x11
 3353 00bf 34       		.uleb128 0x34
 3354 00c0 00       		.byte	0
 3355 00c1 03       		.uleb128 0x3
 3356 00c2 0E       		.uleb128 0xe
 3357 00c3 3A       		.uleb128 0x3a
 3358 00c4 0B       		.uleb128 0xb
 3359 00c5 3B       		.uleb128 0x3b
 3360 00c6 05       		.uleb128 0x5
 3361 00c7 49       		.uleb128 0x49
 3362 00c8 13       		.uleb128 0x13
 3363 00c9 3F       		.uleb128 0x3f
ARM GAS  /tmp/cc0YDrCi.s 			page 60


 3364 00ca 19       		.uleb128 0x19
 3365 00cb 3C       		.uleb128 0x3c
 3366 00cc 19       		.uleb128 0x19
 3367 00cd 00       		.byte	0
 3368 00ce 00       		.byte	0
 3369 00cf 12       		.uleb128 0x12
 3370 00d0 34       		.uleb128 0x34
 3371 00d1 00       		.byte	0
 3372 00d2 03       		.uleb128 0x3
 3373 00d3 0E       		.uleb128 0xe
 3374 00d4 3A       		.uleb128 0x3a
 3375 00d5 0B       		.uleb128 0xb
 3376 00d6 3B       		.uleb128 0x3b
 3377 00d7 0B       		.uleb128 0xb
 3378 00d8 49       		.uleb128 0x49
 3379 00d9 13       		.uleb128 0x13
 3380 00da 3F       		.uleb128 0x3f
 3381 00db 19       		.uleb128 0x19
 3382 00dc 3C       		.uleb128 0x3c
 3383 00dd 19       		.uleb128 0x19
 3384 00de 00       		.byte	0
 3385 00df 00       		.byte	0
 3386 00e0 13       		.uleb128 0x13
 3387 00e1 0D       		.uleb128 0xd
 3388 00e2 00       		.byte	0
 3389 00e3 03       		.uleb128 0x3
 3390 00e4 08       		.uleb128 0x8
 3391 00e5 3A       		.uleb128 0x3a
 3392 00e6 0B       		.uleb128 0xb
 3393 00e7 3B       		.uleb128 0x3b
 3394 00e8 0B       		.uleb128 0xb
 3395 00e9 49       		.uleb128 0x49
 3396 00ea 13       		.uleb128 0x13
 3397 00eb 38       		.uleb128 0x38
 3398 00ec 0B       		.uleb128 0xb
 3399 00ed 00       		.byte	0
 3400 00ee 00       		.byte	0
 3401 00ef 14       		.uleb128 0x14
 3402 00f0 13       		.uleb128 0x13
 3403 00f1 01       		.byte	0x1
 3404 00f2 0B       		.uleb128 0xb
 3405 00f3 0B       		.uleb128 0xb
 3406 00f4 3A       		.uleb128 0x3a
 3407 00f5 0B       		.uleb128 0xb
 3408 00f6 3B       		.uleb128 0x3b
 3409 00f7 0B       		.uleb128 0xb
 3410 00f8 01       		.uleb128 0x1
 3411 00f9 13       		.uleb128 0x13
 3412 00fa 00       		.byte	0
 3413 00fb 00       		.byte	0
 3414 00fc 15       		.uleb128 0x15
 3415 00fd 17       		.uleb128 0x17
 3416 00fe 01       		.byte	0x1
 3417 00ff 0B       		.uleb128 0xb
 3418 0100 0B       		.uleb128 0xb
 3419 0101 3A       		.uleb128 0x3a
 3420 0102 0B       		.uleb128 0xb
ARM GAS  /tmp/cc0YDrCi.s 			page 61


 3421 0103 3B       		.uleb128 0x3b
 3422 0104 0B       		.uleb128 0xb
 3423 0105 01       		.uleb128 0x1
 3424 0106 13       		.uleb128 0x13
 3425 0107 00       		.byte	0
 3426 0108 00       		.byte	0
 3427 0109 16       		.uleb128 0x16
 3428 010a 0D       		.uleb128 0xd
 3429 010b 00       		.byte	0
 3430 010c 03       		.uleb128 0x3
 3431 010d 0E       		.uleb128 0xe
 3432 010e 3A       		.uleb128 0x3a
 3433 010f 0B       		.uleb128 0xb
 3434 0110 3B       		.uleb128 0x3b
 3435 0111 05       		.uleb128 0x5
 3436 0112 49       		.uleb128 0x49
 3437 0113 13       		.uleb128 0x13
 3438 0114 00       		.byte	0
 3439 0115 00       		.byte	0
 3440 0116 17       		.uleb128 0x17
 3441 0117 01       		.uleb128 0x1
 3442 0118 01       		.byte	0x1
 3443 0119 49       		.uleb128 0x49
 3444 011a 13       		.uleb128 0x13
 3445 011b 01       		.uleb128 0x1
 3446 011c 13       		.uleb128 0x13
 3447 011d 00       		.byte	0
 3448 011e 00       		.byte	0
 3449 011f 18       		.uleb128 0x18
 3450 0120 21       		.uleb128 0x21
 3451 0121 00       		.byte	0
 3452 0122 49       		.uleb128 0x49
 3453 0123 13       		.uleb128 0x13
 3454 0124 2F       		.uleb128 0x2f
 3455 0125 0B       		.uleb128 0xb
 3456 0126 00       		.byte	0
 3457 0127 00       		.byte	0
 3458 0128 19       		.uleb128 0x19
 3459 0129 34       		.uleb128 0x34
 3460 012a 00       		.byte	0
 3461 012b 03       		.uleb128 0x3
 3462 012c 08       		.uleb128 0x8
 3463 012d 3A       		.uleb128 0x3a
 3464 012e 0B       		.uleb128 0xb
 3465 012f 3B       		.uleb128 0x3b
 3466 0130 05       		.uleb128 0x5
 3467 0131 49       		.uleb128 0x49
 3468 0132 13       		.uleb128 0x13
 3469 0133 3F       		.uleb128 0x3f
 3470 0134 19       		.uleb128 0x19
 3471 0135 3C       		.uleb128 0x3c
 3472 0136 19       		.uleb128 0x19
 3473 0137 00       		.byte	0
 3474 0138 00       		.byte	0
 3475 0139 1A       		.uleb128 0x1a
 3476 013a 2E       		.uleb128 0x2e
 3477 013b 01       		.byte	0x1
ARM GAS  /tmp/cc0YDrCi.s 			page 62


 3478 013c 3F       		.uleb128 0x3f
 3479 013d 19       		.uleb128 0x19
 3480 013e 03       		.uleb128 0x3
 3481 013f 0E       		.uleb128 0xe
 3482 0140 3A       		.uleb128 0x3a
 3483 0141 0B       		.uleb128 0xb
 3484 0142 3B       		.uleb128 0x3b
 3485 0143 05       		.uleb128 0x5
 3486 0144 27       		.uleb128 0x27
 3487 0145 19       		.uleb128 0x19
 3488 0146 49       		.uleb128 0x49
 3489 0147 13       		.uleb128 0x13
 3490 0148 11       		.uleb128 0x11
 3491 0149 01       		.uleb128 0x1
 3492 014a 12       		.uleb128 0x12
 3493 014b 06       		.uleb128 0x6
 3494 014c 40       		.uleb128 0x40
 3495 014d 18       		.uleb128 0x18
 3496 014e 9642     		.uleb128 0x2116
 3497 0150 19       		.uleb128 0x19
 3498 0151 01       		.uleb128 0x1
 3499 0152 13       		.uleb128 0x13
 3500 0153 00       		.byte	0
 3501 0154 00       		.byte	0
 3502 0155 1B       		.uleb128 0x1b
 3503 0156 05       		.uleb128 0x5
 3504 0157 00       		.byte	0
 3505 0158 03       		.uleb128 0x3
 3506 0159 08       		.uleb128 0x8
 3507 015a 3A       		.uleb128 0x3a
 3508 015b 0B       		.uleb128 0xb
 3509 015c 3B       		.uleb128 0x3b
 3510 015d 05       		.uleb128 0x5
 3511 015e 49       		.uleb128 0x49
 3512 015f 13       		.uleb128 0x13
 3513 0160 02       		.uleb128 0x2
 3514 0161 17       		.uleb128 0x17
 3515 0162 00       		.byte	0
 3516 0163 00       		.byte	0
 3517 0164 1C       		.uleb128 0x1c
 3518 0165 05       		.uleb128 0x5
 3519 0166 00       		.byte	0
 3520 0167 03       		.uleb128 0x3
 3521 0168 0E       		.uleb128 0xe
 3522 0169 3A       		.uleb128 0x3a
 3523 016a 0B       		.uleb128 0xb
 3524 016b 3B       		.uleb128 0x3b
 3525 016c 05       		.uleb128 0x5
 3526 016d 49       		.uleb128 0x49
 3527 016e 13       		.uleb128 0x13
 3528 016f 02       		.uleb128 0x2
 3529 0170 17       		.uleb128 0x17
 3530 0171 00       		.byte	0
 3531 0172 00       		.byte	0
 3532 0173 1D       		.uleb128 0x1d
 3533 0174 34       		.uleb128 0x34
 3534 0175 00       		.byte	0
ARM GAS  /tmp/cc0YDrCi.s 			page 63


 3535 0176 03       		.uleb128 0x3
 3536 0177 08       		.uleb128 0x8
 3537 0178 3A       		.uleb128 0x3a
 3538 0179 0B       		.uleb128 0xb
 3539 017a 3B       		.uleb128 0x3b
 3540 017b 05       		.uleb128 0x5
 3541 017c 49       		.uleb128 0x49
 3542 017d 13       		.uleb128 0x13
 3543 017e 02       		.uleb128 0x2
 3544 017f 18       		.uleb128 0x18
 3545 0180 00       		.byte	0
 3546 0181 00       		.byte	0
 3547 0182 1E       		.uleb128 0x1e
 3548 0183 34       		.uleb128 0x34
 3549 0184 00       		.byte	0
 3550 0185 03       		.uleb128 0x3
 3551 0186 08       		.uleb128 0x8
 3552 0187 3A       		.uleb128 0x3a
 3553 0188 0B       		.uleb128 0xb
 3554 0189 3B       		.uleb128 0x3b
 3555 018a 05       		.uleb128 0x5
 3556 018b 49       		.uleb128 0x49
 3557 018c 13       		.uleb128 0x13
 3558 018d 02       		.uleb128 0x2
 3559 018e 17       		.uleb128 0x17
 3560 018f 00       		.byte	0
 3561 0190 00       		.byte	0
 3562 0191 1F       		.uleb128 0x1f
 3563 0192 34       		.uleb128 0x34
 3564 0193 00       		.byte	0
 3565 0194 03       		.uleb128 0x3
 3566 0195 0E       		.uleb128 0xe
 3567 0196 49       		.uleb128 0x49
 3568 0197 13       		.uleb128 0x13
 3569 0198 34       		.uleb128 0x34
 3570 0199 19       		.uleb128 0x19
 3571 019a 00       		.byte	0
 3572 019b 00       		.byte	0
 3573 019c 20       		.uleb128 0x20
 3574 019d 1D       		.uleb128 0x1d
 3575 019e 01       		.byte	0x1
 3576 019f 31       		.uleb128 0x31
 3577 01a0 13       		.uleb128 0x13
 3578 01a1 11       		.uleb128 0x11
 3579 01a2 01       		.uleb128 0x1
 3580 01a3 12       		.uleb128 0x12
 3581 01a4 06       		.uleb128 0x6
 3582 01a5 58       		.uleb128 0x58
 3583 01a6 0B       		.uleb128 0xb
 3584 01a7 59       		.uleb128 0x59
 3585 01a8 05       		.uleb128 0x5
 3586 01a9 01       		.uleb128 0x1
 3587 01aa 13       		.uleb128 0x13
 3588 01ab 00       		.byte	0
 3589 01ac 00       		.byte	0
 3590 01ad 21       		.uleb128 0x21
 3591 01ae 1D       		.uleb128 0x1d
ARM GAS  /tmp/cc0YDrCi.s 			page 64


 3592 01af 01       		.byte	0x1
 3593 01b0 31       		.uleb128 0x31
 3594 01b1 13       		.uleb128 0x13
 3595 01b2 11       		.uleb128 0x11
 3596 01b3 01       		.uleb128 0x1
 3597 01b4 12       		.uleb128 0x12
 3598 01b5 06       		.uleb128 0x6
 3599 01b6 58       		.uleb128 0x58
 3600 01b7 0B       		.uleb128 0xb
 3601 01b8 59       		.uleb128 0x59
 3602 01b9 05       		.uleb128 0x5
 3603 01ba 00       		.byte	0
 3604 01bb 00       		.byte	0
 3605 01bc 22       		.uleb128 0x22
 3606 01bd 1D       		.uleb128 0x1d
 3607 01be 00       		.byte	0
 3608 01bf 31       		.uleb128 0x31
 3609 01c0 13       		.uleb128 0x13
 3610 01c1 11       		.uleb128 0x11
 3611 01c2 01       		.uleb128 0x1
 3612 01c3 12       		.uleb128 0x12
 3613 01c4 06       		.uleb128 0x6
 3614 01c5 58       		.uleb128 0x58
 3615 01c6 0B       		.uleb128 0xb
 3616 01c7 59       		.uleb128 0x59
 3617 01c8 05       		.uleb128 0x5
 3618 01c9 00       		.byte	0
 3619 01ca 00       		.byte	0
 3620 01cb 23       		.uleb128 0x23
 3621 01cc 1D       		.uleb128 0x1d
 3622 01cd 01       		.byte	0x1
 3623 01ce 31       		.uleb128 0x31
 3624 01cf 13       		.uleb128 0x13
 3625 01d0 52       		.uleb128 0x52
 3626 01d1 01       		.uleb128 0x1
 3627 01d2 55       		.uleb128 0x55
 3628 01d3 17       		.uleb128 0x17
 3629 01d4 58       		.uleb128 0x58
 3630 01d5 0B       		.uleb128 0xb
 3631 01d6 59       		.uleb128 0x59
 3632 01d7 05       		.uleb128 0x5
 3633 01d8 01       		.uleb128 0x1
 3634 01d9 13       		.uleb128 0x13
 3635 01da 00       		.byte	0
 3636 01db 00       		.byte	0
 3637 01dc 24       		.uleb128 0x24
 3638 01dd 05       		.uleb128 0x5
 3639 01de 00       		.byte	0
 3640 01df 31       		.uleb128 0x31
 3641 01e0 13       		.uleb128 0x13
 3642 01e1 02       		.uleb128 0x2
 3643 01e2 17       		.uleb128 0x17
 3644 01e3 00       		.byte	0
 3645 01e4 00       		.byte	0
 3646 01e5 25       		.uleb128 0x25
 3647 01e6 0B       		.uleb128 0xb
 3648 01e7 01       		.byte	0x1
ARM GAS  /tmp/cc0YDrCi.s 			page 65


 3649 01e8 11       		.uleb128 0x11
 3650 01e9 01       		.uleb128 0x1
 3651 01ea 12       		.uleb128 0x12
 3652 01eb 06       		.uleb128 0x6
 3653 01ec 00       		.byte	0
 3654 01ed 00       		.byte	0
 3655 01ee 26       		.uleb128 0x26
 3656 01ef 898201   		.uleb128 0x4109
 3657 01f2 01       		.byte	0x1
 3658 01f3 11       		.uleb128 0x11
 3659 01f4 01       		.uleb128 0x1
 3660 01f5 31       		.uleb128 0x31
 3661 01f6 13       		.uleb128 0x13
 3662 01f7 00       		.byte	0
 3663 01f8 00       		.byte	0
 3664 01f9 27       		.uleb128 0x27
 3665 01fa 8A8201   		.uleb128 0x410a
 3666 01fd 00       		.byte	0
 3667 01fe 02       		.uleb128 0x2
 3668 01ff 18       		.uleb128 0x18
 3669 0200 9142     		.uleb128 0x2111
 3670 0202 18       		.uleb128 0x18
 3671 0203 00       		.byte	0
 3672 0204 00       		.byte	0
 3673 0205 28       		.uleb128 0x28
 3674 0206 2E       		.uleb128 0x2e
 3675 0207 01       		.byte	0x1
 3676 0208 3F       		.uleb128 0x3f
 3677 0209 19       		.uleb128 0x19
 3678 020a 03       		.uleb128 0x3
 3679 020b 0E       		.uleb128 0xe
 3680 020c 3A       		.uleb128 0x3a
 3681 020d 0B       		.uleb128 0xb
 3682 020e 3B       		.uleb128 0x3b
 3683 020f 05       		.uleb128 0x5
 3684 0210 27       		.uleb128 0x27
 3685 0211 19       		.uleb128 0x19
 3686 0212 49       		.uleb128 0x49
 3687 0213 13       		.uleb128 0x13
 3688 0214 11       		.uleb128 0x11
 3689 0215 01       		.uleb128 0x1
 3690 0216 12       		.uleb128 0x12
 3691 0217 06       		.uleb128 0x6
 3692 0218 40       		.uleb128 0x40
 3693 0219 18       		.uleb128 0x18
 3694 021a 9742     		.uleb128 0x2117
 3695 021c 19       		.uleb128 0x19
 3696 021d 01       		.uleb128 0x1
 3697 021e 13       		.uleb128 0x13
 3698 021f 00       		.byte	0
 3699 0220 00       		.byte	0
 3700 0221 29       		.uleb128 0x29
 3701 0222 0B       		.uleb128 0xb
 3702 0223 01       		.byte	0x1
 3703 0224 55       		.uleb128 0x55
 3704 0225 17       		.uleb128 0x17
 3705 0226 01       		.uleb128 0x1
ARM GAS  /tmp/cc0YDrCi.s 			page 66


 3706 0227 13       		.uleb128 0x13
 3707 0228 00       		.byte	0
 3708 0229 00       		.byte	0
 3709 022a 2A       		.uleb128 0x2a
 3710 022b 898201   		.uleb128 0x4109
 3711 022e 00       		.byte	0
 3712 022f 11       		.uleb128 0x11
 3713 0230 01       		.uleb128 0x1
 3714 0231 31       		.uleb128 0x31
 3715 0232 13       		.uleb128 0x13
 3716 0233 00       		.byte	0
 3717 0234 00       		.byte	0
 3718 0235 2B       		.uleb128 0x2b
 3719 0236 898201   		.uleb128 0x4109
 3720 0239 01       		.byte	0x1
 3721 023a 11       		.uleb128 0x11
 3722 023b 01       		.uleb128 0x1
 3723 023c 00       		.byte	0
 3724 023d 00       		.byte	0
 3725 023e 2C       		.uleb128 0x2c
 3726 023f 2E       		.uleb128 0x2e
 3727 0240 01       		.byte	0x1
 3728 0241 3F       		.uleb128 0x3f
 3729 0242 19       		.uleb128 0x19
 3730 0243 03       		.uleb128 0x3
 3731 0244 0E       		.uleb128 0xe
 3732 0245 3A       		.uleb128 0x3a
 3733 0246 0B       		.uleb128 0xb
 3734 0247 3B       		.uleb128 0x3b
 3735 0248 05       		.uleb128 0x5
 3736 0249 27       		.uleb128 0x27
 3737 024a 19       		.uleb128 0x19
 3738 024b 11       		.uleb128 0x11
 3739 024c 01       		.uleb128 0x1
 3740 024d 12       		.uleb128 0x12
 3741 024e 06       		.uleb128 0x6
 3742 024f 40       		.uleb128 0x40
 3743 0250 18       		.uleb128 0x18
 3744 0251 9742     		.uleb128 0x2117
 3745 0253 19       		.uleb128 0x19
 3746 0254 01       		.uleb128 0x1
 3747 0255 13       		.uleb128 0x13
 3748 0256 00       		.byte	0
 3749 0257 00       		.byte	0
 3750 0258 2D       		.uleb128 0x2d
 3751 0259 898201   		.uleb128 0x4109
 3752 025c 01       		.byte	0x1
 3753 025d 11       		.uleb128 0x11
 3754 025e 01       		.uleb128 0x1
 3755 025f 9542     		.uleb128 0x2115
 3756 0261 19       		.uleb128 0x19
 3757 0262 31       		.uleb128 0x31
 3758 0263 13       		.uleb128 0x13
 3759 0264 00       		.byte	0
 3760 0265 00       		.byte	0
 3761 0266 2E       		.uleb128 0x2e
 3762 0267 05       		.uleb128 0x5
ARM GAS  /tmp/cc0YDrCi.s 			page 67


 3763 0268 00       		.byte	0
 3764 0269 03       		.uleb128 0x3
 3765 026a 08       		.uleb128 0x8
 3766 026b 3A       		.uleb128 0x3a
 3767 026c 0B       		.uleb128 0xb
 3768 026d 3B       		.uleb128 0x3b
 3769 026e 05       		.uleb128 0x5
 3770 026f 49       		.uleb128 0x49
 3771 0270 13       		.uleb128 0x13
 3772 0271 02       		.uleb128 0x2
 3773 0272 18       		.uleb128 0x18
 3774 0273 00       		.byte	0
 3775 0274 00       		.byte	0
 3776 0275 2F       		.uleb128 0x2f
 3777 0276 05       		.uleb128 0x5
 3778 0277 00       		.byte	0
 3779 0278 03       		.uleb128 0x3
 3780 0279 0E       		.uleb128 0xe
 3781 027a 3A       		.uleb128 0x3a
 3782 027b 0B       		.uleb128 0xb
 3783 027c 3B       		.uleb128 0x3b
 3784 027d 05       		.uleb128 0x5
 3785 027e 49       		.uleb128 0x49
 3786 027f 13       		.uleb128 0x13
 3787 0280 02       		.uleb128 0x2
 3788 0281 18       		.uleb128 0x18
 3789 0282 00       		.byte	0
 3790 0283 00       		.byte	0
 3791 0284 30       		.uleb128 0x30
 3792 0285 2E       		.uleb128 0x2e
 3793 0286 01       		.byte	0x1
 3794 0287 3F       		.uleb128 0x3f
 3795 0288 19       		.uleb128 0x19
 3796 0289 03       		.uleb128 0x3
 3797 028a 0E       		.uleb128 0xe
 3798 028b 3A       		.uleb128 0x3a
 3799 028c 0B       		.uleb128 0xb
 3800 028d 3B       		.uleb128 0x3b
 3801 028e 0B       		.uleb128 0xb
 3802 028f 27       		.uleb128 0x27
 3803 0290 19       		.uleb128 0x19
 3804 0291 49       		.uleb128 0x49
 3805 0292 13       		.uleb128 0x13
 3806 0293 11       		.uleb128 0x11
 3807 0294 01       		.uleb128 0x1
 3808 0295 12       		.uleb128 0x12
 3809 0296 06       		.uleb128 0x6
 3810 0297 40       		.uleb128 0x40
 3811 0298 18       		.uleb128 0x18
 3812 0299 9742     		.uleb128 0x2117
 3813 029b 19       		.uleb128 0x19
 3814 029c 01       		.uleb128 0x1
 3815 029d 13       		.uleb128 0x13
 3816 029e 00       		.byte	0
 3817 029f 00       		.byte	0
 3818 02a0 31       		.uleb128 0x31
 3819 02a1 05       		.uleb128 0x5
ARM GAS  /tmp/cc0YDrCi.s 			page 68


 3820 02a2 00       		.byte	0
 3821 02a3 03       		.uleb128 0x3
 3822 02a4 08       		.uleb128 0x8
 3823 02a5 3A       		.uleb128 0x3a
 3824 02a6 0B       		.uleb128 0xb
 3825 02a7 3B       		.uleb128 0x3b
 3826 02a8 0B       		.uleb128 0xb
 3827 02a9 49       		.uleb128 0x49
 3828 02aa 13       		.uleb128 0x13
 3829 02ab 02       		.uleb128 0x2
 3830 02ac 17       		.uleb128 0x17
 3831 02ad 00       		.byte	0
 3832 02ae 00       		.byte	0
 3833 02af 32       		.uleb128 0x32
 3834 02b0 05       		.uleb128 0x5
 3835 02b1 00       		.byte	0
 3836 02b2 03       		.uleb128 0x3
 3837 02b3 0E       		.uleb128 0xe
 3838 02b4 3A       		.uleb128 0x3a
 3839 02b5 0B       		.uleb128 0xb
 3840 02b6 3B       		.uleb128 0x3b
 3841 02b7 0B       		.uleb128 0xb
 3842 02b8 49       		.uleb128 0x49
 3843 02b9 13       		.uleb128 0x13
 3844 02ba 02       		.uleb128 0x2
 3845 02bb 17       		.uleb128 0x17
 3846 02bc 00       		.byte	0
 3847 02bd 00       		.byte	0
 3848 02be 33       		.uleb128 0x33
 3849 02bf 34       		.uleb128 0x34
 3850 02c0 00       		.byte	0
 3851 02c1 03       		.uleb128 0x3
 3852 02c2 08       		.uleb128 0x8
 3853 02c3 3A       		.uleb128 0x3a
 3854 02c4 0B       		.uleb128 0xb
 3855 02c5 3B       		.uleb128 0x3b
 3856 02c6 0B       		.uleb128 0xb
 3857 02c7 49       		.uleb128 0x49
 3858 02c8 13       		.uleb128 0x13
 3859 02c9 02       		.uleb128 0x2
 3860 02ca 18       		.uleb128 0x18
 3861 02cb 00       		.byte	0
 3862 02cc 00       		.byte	0
 3863 02cd 34       		.uleb128 0x34
 3864 02ce 34       		.uleb128 0x34
 3865 02cf 00       		.byte	0
 3866 02d0 03       		.uleb128 0x3
 3867 02d1 08       		.uleb128 0x8
 3868 02d2 3A       		.uleb128 0x3a
 3869 02d3 0B       		.uleb128 0xb
 3870 02d4 3B       		.uleb128 0x3b
 3871 02d5 0B       		.uleb128 0xb
 3872 02d6 49       		.uleb128 0x49
 3873 02d7 13       		.uleb128 0x13
 3874 02d8 02       		.uleb128 0x2
 3875 02d9 17       		.uleb128 0x17
 3876 02da 00       		.byte	0
ARM GAS  /tmp/cc0YDrCi.s 			page 69


 3877 02db 00       		.byte	0
 3878 02dc 35       		.uleb128 0x35
 3879 02dd 1D       		.uleb128 0x1d
 3880 02de 01       		.byte	0x1
 3881 02df 31       		.uleb128 0x31
 3882 02e0 13       		.uleb128 0x13
 3883 02e1 11       		.uleb128 0x11
 3884 02e2 01       		.uleb128 0x1
 3885 02e3 12       		.uleb128 0x12
 3886 02e4 06       		.uleb128 0x6
 3887 02e5 58       		.uleb128 0x58
 3888 02e6 0B       		.uleb128 0xb
 3889 02e7 59       		.uleb128 0x59
 3890 02e8 0B       		.uleb128 0xb
 3891 02e9 01       		.uleb128 0x1
 3892 02ea 13       		.uleb128 0x13
 3893 02eb 00       		.byte	0
 3894 02ec 00       		.byte	0
 3895 02ed 36       		.uleb128 0x36
 3896 02ee 898201   		.uleb128 0x4109
 3897 02f1 01       		.byte	0x1
 3898 02f2 11       		.uleb128 0x11
 3899 02f3 01       		.uleb128 0x1
 3900 02f4 01       		.uleb128 0x1
 3901 02f5 13       		.uleb128 0x13
 3902 02f6 00       		.byte	0
 3903 02f7 00       		.byte	0
 3904 02f8 37       		.uleb128 0x37
 3905 02f9 1D       		.uleb128 0x1d
 3906 02fa 01       		.byte	0x1
 3907 02fb 31       		.uleb128 0x31
 3908 02fc 13       		.uleb128 0x13
 3909 02fd 52       		.uleb128 0x52
 3910 02fe 01       		.uleb128 0x1
 3911 02ff 55       		.uleb128 0x55
 3912 0300 17       		.uleb128 0x17
 3913 0301 58       		.uleb128 0x58
 3914 0302 0B       		.uleb128 0xb
 3915 0303 59       		.uleb128 0x59
 3916 0304 0B       		.uleb128 0xb
 3917 0305 01       		.uleb128 0x1
 3918 0306 13       		.uleb128 0x13
 3919 0307 00       		.byte	0
 3920 0308 00       		.byte	0
 3921 0309 38       		.uleb128 0x38
 3922 030a 2E       		.uleb128 0x2e
 3923 030b 01       		.byte	0x1
 3924 030c 3F       		.uleb128 0x3f
 3925 030d 19       		.uleb128 0x19
 3926 030e 03       		.uleb128 0x3
 3927 030f 0E       		.uleb128 0xe
 3928 0310 3A       		.uleb128 0x3a
 3929 0311 0B       		.uleb128 0xb
 3930 0312 3B       		.uleb128 0x3b
 3931 0313 0B       		.uleb128 0xb
 3932 0314 27       		.uleb128 0x27
 3933 0315 19       		.uleb128 0x19
ARM GAS  /tmp/cc0YDrCi.s 			page 70


 3934 0316 11       		.uleb128 0x11
 3935 0317 01       		.uleb128 0x1
 3936 0318 12       		.uleb128 0x12
 3937 0319 06       		.uleb128 0x6
 3938 031a 40       		.uleb128 0x40
 3939 031b 18       		.uleb128 0x18
 3940 031c 9742     		.uleb128 0x2117
 3941 031e 19       		.uleb128 0x19
 3942 031f 01       		.uleb128 0x1
 3943 0320 13       		.uleb128 0x13
 3944 0321 00       		.byte	0
 3945 0322 00       		.byte	0
 3946 0323 39       		.uleb128 0x39
 3947 0324 05       		.uleb128 0x5
 3948 0325 00       		.byte	0
 3949 0326 03       		.uleb128 0x3
 3950 0327 08       		.uleb128 0x8
 3951 0328 3A       		.uleb128 0x3a
 3952 0329 0B       		.uleb128 0xb
 3953 032a 3B       		.uleb128 0x3b
 3954 032b 0B       		.uleb128 0xb
 3955 032c 49       		.uleb128 0x49
 3956 032d 13       		.uleb128 0x13
 3957 032e 02       		.uleb128 0x2
 3958 032f 18       		.uleb128 0x18
 3959 0330 00       		.byte	0
 3960 0331 00       		.byte	0
 3961 0332 3A       		.uleb128 0x3a
 3962 0333 05       		.uleb128 0x5
 3963 0334 00       		.byte	0
 3964 0335 03       		.uleb128 0x3
 3965 0336 0E       		.uleb128 0xe
 3966 0337 3A       		.uleb128 0x3a
 3967 0338 0B       		.uleb128 0xb
 3968 0339 3B       		.uleb128 0x3b
 3969 033a 0B       		.uleb128 0xb
 3970 033b 49       		.uleb128 0x49
 3971 033c 13       		.uleb128 0x13
 3972 033d 02       		.uleb128 0x2
 3973 033e 18       		.uleb128 0x18
 3974 033f 00       		.byte	0
 3975 0340 00       		.byte	0
 3976 0341 3B       		.uleb128 0x3b
 3977 0342 1D       		.uleb128 0x1d
 3978 0343 01       		.byte	0x1
 3979 0344 31       		.uleb128 0x31
 3980 0345 13       		.uleb128 0x13
 3981 0346 11       		.uleb128 0x11
 3982 0347 01       		.uleb128 0x1
 3983 0348 12       		.uleb128 0x12
 3984 0349 06       		.uleb128 0x6
 3985 034a 58       		.uleb128 0x58
 3986 034b 0B       		.uleb128 0xb
 3987 034c 59       		.uleb128 0x59
 3988 034d 0B       		.uleb128 0xb
 3989 034e 00       		.byte	0
 3990 034f 00       		.byte	0
ARM GAS  /tmp/cc0YDrCi.s 			page 71


 3991 0350 3C       		.uleb128 0x3c
 3992 0351 2E       		.uleb128 0x2e
 3993 0352 01       		.byte	0x1
 3994 0353 03       		.uleb128 0x3
 3995 0354 0E       		.uleb128 0xe
 3996 0355 3A       		.uleb128 0x3a
 3997 0356 0B       		.uleb128 0xb
 3998 0357 3B       		.uleb128 0x3b
 3999 0358 05       		.uleb128 0x5
 4000 0359 27       		.uleb128 0x27
 4001 035a 19       		.uleb128 0x19
 4002 035b 49       		.uleb128 0x49
 4003 035c 13       		.uleb128 0x13
 4004 035d 20       		.uleb128 0x20
 4005 035e 0B       		.uleb128 0xb
 4006 035f 01       		.uleb128 0x1
 4007 0360 13       		.uleb128 0x13
 4008 0361 00       		.byte	0
 4009 0362 00       		.byte	0
 4010 0363 3D       		.uleb128 0x3d
 4011 0364 05       		.uleb128 0x5
 4012 0365 00       		.byte	0
 4013 0366 03       		.uleb128 0x3
 4014 0367 08       		.uleb128 0x8
 4015 0368 3A       		.uleb128 0x3a
 4016 0369 0B       		.uleb128 0xb
 4017 036a 3B       		.uleb128 0x3b
 4018 036b 05       		.uleb128 0x5
 4019 036c 49       		.uleb128 0x49
 4020 036d 13       		.uleb128 0x13
 4021 036e 00       		.byte	0
 4022 036f 00       		.byte	0
 4023 0370 3E       		.uleb128 0x3e
 4024 0371 2E       		.uleb128 0x2e
 4025 0372 01       		.byte	0x1
 4026 0373 03       		.uleb128 0x3
 4027 0374 0E       		.uleb128 0xe
 4028 0375 3A       		.uleb128 0x3a
 4029 0376 0B       		.uleb128 0xb
 4030 0377 3B       		.uleb128 0x3b
 4031 0378 05       		.uleb128 0x5
 4032 0379 27       		.uleb128 0x27
 4033 037a 19       		.uleb128 0x19
 4034 037b 20       		.uleb128 0x20
 4035 037c 0B       		.uleb128 0xb
 4036 037d 01       		.uleb128 0x1
 4037 037e 13       		.uleb128 0x13
 4038 037f 00       		.byte	0
 4039 0380 00       		.byte	0
 4040 0381 3F       		.uleb128 0x3f
 4041 0382 34       		.uleb128 0x34
 4042 0383 00       		.byte	0
 4043 0384 03       		.uleb128 0x3
 4044 0385 0E       		.uleb128 0xe
 4045 0386 49       		.uleb128 0x49
 4046 0387 13       		.uleb128 0x13
 4047 0388 34       		.uleb128 0x34
ARM GAS  /tmp/cc0YDrCi.s 			page 72


 4048 0389 19       		.uleb128 0x19
 4049 038a 1C       		.uleb128 0x1c
 4050 038b 0E       		.uleb128 0xe
 4051 038c 00       		.byte	0
 4052 038d 00       		.byte	0
 4053 038e 40       		.uleb128 0x40
 4054 038f 2E       		.uleb128 0x2e
 4055 0390 00       		.byte	0
 4056 0391 03       		.uleb128 0x3
 4057 0392 0E       		.uleb128 0xe
 4058 0393 3A       		.uleb128 0x3a
 4059 0394 0B       		.uleb128 0xb
 4060 0395 3B       		.uleb128 0x3b
 4061 0396 05       		.uleb128 0x5
 4062 0397 27       		.uleb128 0x27
 4063 0398 19       		.uleb128 0x19
 4064 0399 20       		.uleb128 0x20
 4065 039a 0B       		.uleb128 0xb
 4066 039b 00       		.byte	0
 4067 039c 00       		.byte	0
 4068 039d 41       		.uleb128 0x41
 4069 039e 2E       		.uleb128 0x2e
 4070 039f 00       		.byte	0
 4071 03a0 3F       		.uleb128 0x3f
 4072 03a1 19       		.uleb128 0x19
 4073 03a2 3C       		.uleb128 0x3c
 4074 03a3 19       		.uleb128 0x19
 4075 03a4 6E       		.uleb128 0x6e
 4076 03a5 0E       		.uleb128 0xe
 4077 03a6 03       		.uleb128 0x3
 4078 03a7 0E       		.uleb128 0xe
 4079 03a8 3A       		.uleb128 0x3a
 4080 03a9 0B       		.uleb128 0xb
 4081 03aa 3B       		.uleb128 0x3b
 4082 03ab 0B       		.uleb128 0xb
 4083 03ac 00       		.byte	0
 4084 03ad 00       		.byte	0
 4085 03ae 00       		.byte	0
 4086              		.section	.debug_loc,"",%progbits
 4087              	.Ldebug_loc0:
 4088              	.LLST31:
 4089 0000 00000000 		.4byte	.LVL58
 4090 0004 14000000 		.4byte	.LVL60
 4091 0008 0100     		.2byte	0x1
 4092 000a 50       		.byte	0x50
 4093 000b 14000000 		.4byte	.LVL60
 4094 000f 1E000000 		.4byte	.LVL63
 4095 0013 0100     		.2byte	0x1
 4096 0015 54       		.byte	0x54
 4097 0016 1E000000 		.4byte	.LVL63
 4098 001a 41000000 		.4byte	.LVL64-1
 4099 001e 0100     		.2byte	0x1
 4100 0020 50       		.byte	0x50
 4101 0021 41000000 		.4byte	.LVL64-1
 4102 0025 5C000000 		.4byte	.LVL69
 4103 0029 0100     		.2byte	0x1
 4104 002b 54       		.byte	0x54
ARM GAS  /tmp/cc0YDrCi.s 			page 73


 4105 002c 5C000000 		.4byte	.LVL69
 4106 0030 60000000 		.4byte	.LVL70
 4107 0034 0100     		.2byte	0x1
 4108 0036 50       		.byte	0x50
 4109 0037 60000000 		.4byte	.LVL70
 4110 003b 70000000 		.4byte	.LFE228
 4111 003f 0100     		.2byte	0x1
 4112 0041 54       		.byte	0x54
 4113 0042 00000000 		.4byte	0
 4114 0046 00000000 		.4byte	0
 4115              	.LLST32:
 4116 004a 00000000 		.4byte	.LVL58
 4117 004e 14000000 		.4byte	.LVL60
 4118 0052 0100     		.2byte	0x1
 4119 0054 51       		.byte	0x51
 4120 0055 14000000 		.4byte	.LVL60
 4121 0059 1A000000 		.4byte	.LVL62
 4122 005d 0100     		.2byte	0x1
 4123 005f 55       		.byte	0x55
 4124 0060 1A000000 		.4byte	.LVL62
 4125 0064 52000000 		.4byte	.LVL67
 4126 0068 0100     		.2byte	0x1
 4127 006a 5A       		.byte	0x5a
 4128 006b 52000000 		.4byte	.LVL67
 4129 006f 56000000 		.4byte	.LVL68
 4130 0073 0100     		.2byte	0x1
 4131 0075 55       		.byte	0x55
 4132 0076 56000000 		.4byte	.LVL68
 4133 007a 70000000 		.4byte	.LFE228
 4134 007e 0100     		.2byte	0x1
 4135 0080 5A       		.byte	0x5a
 4136 0081 00000000 		.4byte	0
 4137 0085 00000000 		.4byte	0
 4138              	.LLST33:
 4139 0089 00000000 		.4byte	.LVL58
 4140 008d 14000000 		.4byte	.LVL60
 4141 0091 0100     		.2byte	0x1
 4142 0093 52       		.byte	0x52
 4143 0094 14000000 		.4byte	.LVL60
 4144 0098 46000000 		.4byte	.LVL65
 4145 009c 0100     		.2byte	0x1
 4146 009e 56       		.byte	0x56
 4147 009f 46000000 		.4byte	.LVL65
 4148 00a3 4A000000 		.4byte	.LVL66
 4149 00a7 0300     		.2byte	0x3
 4150 00a9 76       		.byte	0x76
 4151 00aa 01       		.sleb128 1
 4152 00ab 9F       		.byte	0x9f
 4153 00ac 52000000 		.4byte	.LVL67
 4154 00b0 6A000000 		.4byte	.LVL72
 4155 00b4 0100     		.2byte	0x1
 4156 00b6 56       		.byte	0x56
 4157 00b7 00000000 		.4byte	0
 4158 00bb 00000000 		.4byte	0
 4159              	.LLST34:
 4160 00bf 00000000 		.4byte	.LVL58
 4161 00c3 14000000 		.4byte	.LVL60
ARM GAS  /tmp/cc0YDrCi.s 			page 74


 4162 00c7 0100     		.2byte	0x1
 4163 00c9 53       		.byte	0x53
 4164 00ca 14000000 		.4byte	.LVL60
 4165 00ce 70000000 		.4byte	.LFE228
 4166 00d2 0100     		.2byte	0x1
 4167 00d4 59       		.byte	0x59
 4168 00d5 00000000 		.4byte	0
 4169 00d9 00000000 		.4byte	0
 4170              	.LLST35:
 4171 00dd 10000000 		.4byte	.LVL59
 4172 00e1 14000000 		.4byte	.LVL60
 4173 00e5 0200     		.2byte	0x2
 4174 00e7 30       		.byte	0x30
 4175 00e8 9F       		.byte	0x9f
 4176 00e9 14000000 		.4byte	.LVL60
 4177 00ed 70000000 		.4byte	.LFE228
 4178 00f1 0100     		.2byte	0x1
 4179 00f3 57       		.byte	0x57
 4180 00f4 00000000 		.4byte	0
 4181 00f8 00000000 		.4byte	0
 4182              	.LLST36:
 4183 00fc 14000000 		.4byte	.LVL60
 4184 0100 16000000 		.4byte	.LVL61
 4185 0104 0100     		.2byte	0x1
 4186 0106 54       		.byte	0x54
 4187 0107 00000000 		.4byte	0
 4188 010b 00000000 		.4byte	0
 4189              	.LLST28:
 4190 010f 00000000 		.4byte	.LVL52
 4191 0113 25000000 		.4byte	.LVL55-1
 4192 0117 0100     		.2byte	0x1
 4193 0119 50       		.byte	0x50
 4194 011a 25000000 		.4byte	.LVL55-1
 4195 011e 2A000000 		.4byte	.LVL56
 4196 0122 0400     		.2byte	0x4
 4197 0124 F3       		.byte	0xf3
 4198 0125 01       		.uleb128 0x1
 4199 0126 50       		.byte	0x50
 4200 0127 9F       		.byte	0x9f
 4201 0128 2A000000 		.4byte	.LVL56
 4202 012c 34000000 		.4byte	.LVL57
 4203 0130 0100     		.2byte	0x1
 4204 0132 50       		.byte	0x50
 4205 0133 34000000 		.4byte	.LVL57
 4206 0137 36000000 		.4byte	.LFE227
 4207 013b 0400     		.2byte	0x4
 4208 013d F3       		.byte	0xf3
 4209 013e 01       		.uleb128 0x1
 4210 013f 50       		.byte	0x50
 4211 0140 9F       		.byte	0x9f
 4212 0141 00000000 		.4byte	0
 4213 0145 00000000 		.4byte	0
 4214              	.LLST29:
 4215 0149 1A000000 		.4byte	.LVL54
 4216 014d 2A000000 		.4byte	.LVL56
 4217 0151 0100     		.2byte	0x1
 4218 0153 54       		.byte	0x54
ARM GAS  /tmp/cc0YDrCi.s 			page 75


 4219 0154 00000000 		.4byte	0
 4220 0158 00000000 		.4byte	0
 4221              	.LLST30:
 4222 015c 00000000 		.4byte	.LVL52
 4223 0160 0A000000 		.4byte	.LVL53
 4224 0164 0100     		.2byte	0x1
 4225 0166 50       		.byte	0x50
 4226 0167 2A000000 		.4byte	.LVL56
 4227 016b 34000000 		.4byte	.LVL57
 4228 016f 0100     		.2byte	0x1
 4229 0171 50       		.byte	0x50
 4230 0172 34000000 		.4byte	.LVL57
 4231 0176 36000000 		.4byte	.LFE227
 4232 017a 0400     		.2byte	0x4
 4233 017c F3       		.byte	0xf3
 4234 017d 01       		.uleb128 0x1
 4235 017e 50       		.byte	0x50
 4236 017f 9F       		.byte	0x9f
 4237 0180 00000000 		.4byte	0
 4238 0184 00000000 		.4byte	0
 4239              	.LLST23:
 4240 0188 00000000 		.4byte	.LVL43
 4241 018c 0F000000 		.4byte	.LVL45-1
 4242 0190 0100     		.2byte	0x1
 4243 0192 50       		.byte	0x50
 4244 0193 0F000000 		.4byte	.LVL45-1
 4245 0197 1E000000 		.4byte	.LVL48
 4246 019b 0100     		.2byte	0x1
 4247 019d 54       		.byte	0x54
 4248 019e 1E000000 		.4byte	.LVL48
 4249 01a2 3D000000 		.4byte	.LVL50-1
 4250 01a6 0100     		.2byte	0x1
 4251 01a8 50       		.byte	0x50
 4252 01a9 3D000000 		.4byte	.LVL50-1
 4253 01ad 48000000 		.4byte	.LFE226
 4254 01b1 0100     		.2byte	0x1
 4255 01b3 54       		.byte	0x54
 4256 01b4 00000000 		.4byte	0
 4257 01b8 00000000 		.4byte	0
 4258              	.LLST24:
 4259 01bc 00000000 		.4byte	.LVL43
 4260 01c0 0C000000 		.4byte	.LVL44
 4261 01c4 0100     		.2byte	0x1
 4262 01c6 51       		.byte	0x51
 4263 01c7 0C000000 		.4byte	.LVL44
 4264 01cb 48000000 		.4byte	.LFE226
 4265 01cf 0400     		.2byte	0x4
 4266 01d1 F3       		.byte	0xf3
 4267 01d2 01       		.uleb128 0x1
 4268 01d3 51       		.byte	0x51
 4269 01d4 9F       		.byte	0x9f
 4270 01d5 00000000 		.4byte	0
 4271 01d9 00000000 		.4byte	0
 4272              	.LLST25:
 4273 01dd 00000000 		.4byte	.LVL43
 4274 01e1 0C000000 		.4byte	.LVL44
 4275 01e5 0100     		.2byte	0x1
ARM GAS  /tmp/cc0YDrCi.s 			page 76


 4276 01e7 52       		.byte	0x52
 4277 01e8 0C000000 		.4byte	.LVL44
 4278 01ec 0F000000 		.4byte	.LVL45-1
 4279 01f0 0100     		.2byte	0x1
 4280 01f2 51       		.byte	0x51
 4281 01f3 0F000000 		.4byte	.LVL45-1
 4282 01f7 1E000000 		.4byte	.LVL48
 4283 01fb 0100     		.2byte	0x1
 4284 01fd 55       		.byte	0x55
 4285 01fe 1E000000 		.4byte	.LVL48
 4286 0202 24000000 		.4byte	.LVL49
 4287 0206 0100     		.2byte	0x1
 4288 0208 51       		.byte	0x51
 4289 0209 24000000 		.4byte	.LVL49
 4290 020d 48000000 		.4byte	.LFE226
 4291 0211 0100     		.2byte	0x1
 4292 0213 55       		.byte	0x55
 4293 0214 00000000 		.4byte	0
 4294 0218 00000000 		.4byte	0
 4295              	.LLST26:
 4296 021c 10000000 		.4byte	.LVL45
 4297 0220 14000000 		.4byte	.LVL46
 4298 0224 0100     		.2byte	0x1
 4299 0226 50       		.byte	0x50
 4300 0227 44000000 		.4byte	.LVL51
 4301 022b 48000000 		.4byte	.LFE226
 4302 022f 0100     		.2byte	0x1
 4303 0231 50       		.byte	0x50
 4304 0232 00000000 		.4byte	0
 4305 0236 00000000 		.4byte	0
 4306              	.LLST27:
 4307 023a 14000000 		.4byte	.LVL46
 4308 023e 16000000 		.4byte	.LVL47
 4309 0242 0100     		.2byte	0x1
 4310 0244 54       		.byte	0x54
 4311 0245 00000000 		.4byte	0
 4312 0249 00000000 		.4byte	0
 4313              	.LLST22:
 4314 024d 00000000 		.4byte	.LVL41
 4315 0251 19000000 		.4byte	.LVL42-1
 4316 0255 0100     		.2byte	0x1
 4317 0257 50       		.byte	0x50
 4318 0258 19000000 		.4byte	.LVL42-1
 4319 025c 1A000000 		.4byte	.LFE225
 4320 0260 0400     		.2byte	0x4
 4321 0262 F3       		.byte	0xf3
 4322 0263 01       		.uleb128 0x1
 4323 0264 50       		.byte	0x50
 4324 0265 9F       		.byte	0x9f
 4325 0266 00000000 		.4byte	0
 4326 026a 00000000 		.4byte	0
 4327              	.LLST19:
 4328 026e 00000000 		.4byte	.LVL38
 4329 0272 1A000000 		.4byte	.LVL40
 4330 0276 0200     		.2byte	0x2
 4331 0278 91       		.byte	0x91
 4332 0279 00       		.sleb128 0
ARM GAS  /tmp/cc0YDrCi.s 			page 77


 4333 027a 1A000000 		.4byte	.LVL40
 4334 027e 1C000000 		.4byte	.LFE224
 4335 0282 0200     		.2byte	0x2
 4336 0284 7D       		.byte	0x7d
 4337 0285 00       		.sleb128 0
 4338 0286 00000000 		.4byte	0
 4339 028a 00000000 		.4byte	0
 4340              	.LLST20:
 4341 028e 00000000 		.4byte	.LVL38
 4342 0292 14000000 		.4byte	.LVL39
 4343 0296 0100     		.2byte	0x1
 4344 0298 50       		.byte	0x50
 4345 0299 00000000 		.4byte	0
 4346 029d 00000000 		.4byte	0
 4347              	.LLST13:
 4348 02a1 00000000 		.4byte	.LVL23
 4349 02a5 16000000 		.4byte	.LVL26
 4350 02a9 0100     		.2byte	0x1
 4351 02ab 50       		.byte	0x50
 4352 02ac 16000000 		.4byte	.LVL26
 4353 02b0 1A000000 		.4byte	.LVL28
 4354 02b4 0100     		.2byte	0x1
 4355 02b6 54       		.byte	0x54
 4356 02b7 1A000000 		.4byte	.LVL28
 4357 02bb 1D000000 		.4byte	.LVL29-1
 4358 02bf 0100     		.2byte	0x1
 4359 02c1 50       		.byte	0x50
 4360 02c2 1D000000 		.4byte	.LVL29-1
 4361 02c6 2A000000 		.4byte	.LVL32
 4362 02ca 0100     		.2byte	0x1
 4363 02cc 54       		.byte	0x54
 4364 02cd 2A000000 		.4byte	.LVL32
 4365 02d1 54000000 		.4byte	.LVL36
 4366 02d5 0100     		.2byte	0x1
 4367 02d7 50       		.byte	0x50
 4368 02d8 54000000 		.4byte	.LVL36
 4369 02dc 5C000000 		.4byte	.LFE223
 4370 02e0 0100     		.2byte	0x1
 4371 02e2 54       		.byte	0x54
 4372 02e3 00000000 		.4byte	0
 4373 02e7 00000000 		.4byte	0
 4374              	.LLST14:
 4375 02eb 00000000 		.4byte	.LVL23
 4376 02ef 12000000 		.4byte	.LVL25
 4377 02f3 0100     		.2byte	0x1
 4378 02f5 51       		.byte	0x51
 4379 02f6 12000000 		.4byte	.LVL25
 4380 02fa 3C000000 		.4byte	.LVL34
 4381 02fe 0100     		.2byte	0x1
 4382 0300 58       		.byte	0x58
 4383 0301 3C000000 		.4byte	.LVL34
 4384 0305 54000000 		.4byte	.LVL36
 4385 0309 0300     		.2byte	0x3
 4386 030b 78       		.byte	0x78
 4387 030c 7F       		.sleb128 -1
 4388 030d 9F       		.byte	0x9f
 4389 030e 54000000 		.4byte	.LVL36
ARM GAS  /tmp/cc0YDrCi.s 			page 78


 4390 0312 56000000 		.4byte	.LVL37
 4391 0316 0100     		.2byte	0x1
 4392 0318 58       		.byte	0x58
 4393 0319 00000000 		.4byte	0
 4394 031d 00000000 		.4byte	0
 4395              	.LLST15:
 4396 0321 00000000 		.4byte	.LVL23
 4397 0325 12000000 		.4byte	.LVL25
 4398 0329 0100     		.2byte	0x1
 4399 032b 52       		.byte	0x52
 4400 032c 4C000000 		.4byte	.LVL35
 4401 0330 54000000 		.4byte	.LVL36
 4402 0334 0600     		.2byte	0x6
 4403 0336 79       		.byte	0x79
 4404 0337 00       		.sleb128 0
 4405 0338 76       		.byte	0x76
 4406 0339 00       		.sleb128 0
 4407 033a 1C       		.byte	0x1c
 4408 033b 9F       		.byte	0x9f
 4409 033c 00000000 		.4byte	0
 4410 0340 00000000 		.4byte	0
 4411              	.LLST16:
 4412 0344 00000000 		.4byte	.LVL23
 4413 0348 12000000 		.4byte	.LVL25
 4414 034c 0100     		.2byte	0x1
 4415 034e 53       		.byte	0x53
 4416 034f 12000000 		.4byte	.LVL25
 4417 0353 1A000000 		.4byte	.LVL28
 4418 0357 0100     		.2byte	0x1
 4419 0359 55       		.byte	0x55
 4420 035a 1A000000 		.4byte	.LVL28
 4421 035e 1D000000 		.4byte	.LVL29-1
 4422 0362 0100     		.2byte	0x1
 4423 0364 51       		.byte	0x51
 4424 0365 1D000000 		.4byte	.LVL29-1
 4425 0369 2A000000 		.4byte	.LVL32
 4426 036d 0100     		.2byte	0x1
 4427 036f 55       		.byte	0x55
 4428 0370 2A000000 		.4byte	.LVL32
 4429 0374 30000000 		.4byte	.LVL33
 4430 0378 0100     		.2byte	0x1
 4431 037a 51       		.byte	0x51
 4432 037b 30000000 		.4byte	.LVL33
 4433 037f 5C000000 		.4byte	.LFE223
 4434 0383 0100     		.2byte	0x1
 4435 0385 55       		.byte	0x55
 4436 0386 00000000 		.4byte	0
 4437 038a 00000000 		.4byte	0
 4438              	.LLST17:
 4439 038e 0E000000 		.4byte	.LVL24
 4440 0392 12000000 		.4byte	.LVL25
 4441 0396 0200     		.2byte	0x2
 4442 0398 30       		.byte	0x30
 4443 0399 9F       		.byte	0x9f
 4444 039a 12000000 		.4byte	.LVL25
 4445 039e 5C000000 		.4byte	.LFE223
 4446 03a2 0100     		.2byte	0x1
ARM GAS  /tmp/cc0YDrCi.s 			page 79


 4447 03a4 56       		.byte	0x56
 4448 03a5 00000000 		.4byte	0
 4449 03a9 00000000 		.4byte	0
 4450              	.LLST18:
 4451 03ad 20000000 		.4byte	.LVL30
 4452 03b1 22000000 		.4byte	.LVL31
 4453 03b5 0100     		.2byte	0x1
 4454 03b7 54       		.byte	0x54
 4455 03b8 00000000 		.4byte	0
 4456 03bc 00000000 		.4byte	0
 4457              	.LLST8:
 4458 03c0 00000000 		.4byte	.LVL12
 4459 03c4 0D000000 		.4byte	.LVL13-1
 4460 03c8 0100     		.2byte	0x1
 4461 03ca 50       		.byte	0x50
 4462 03cb 0D000000 		.4byte	.LVL13-1
 4463 03cf 10000000 		.4byte	.LVL14
 4464 03d3 0100     		.2byte	0x1
 4465 03d5 54       		.byte	0x54
 4466 03d6 10000000 		.4byte	.LVL14
 4467 03da 13000000 		.4byte	.LVL15-1
 4468 03de 0100     		.2byte	0x1
 4469 03e0 50       		.byte	0x50
 4470 03e1 13000000 		.4byte	.LVL15-1
 4471 03e5 22000000 		.4byte	.LVL18
 4472 03e9 0100     		.2byte	0x1
 4473 03eb 54       		.byte	0x54
 4474 03ec 22000000 		.4byte	.LVL18
 4475 03f0 38000000 		.4byte	.LVL21
 4476 03f4 0100     		.2byte	0x1
 4477 03f6 50       		.byte	0x50
 4478 03f7 38000000 		.4byte	.LVL21
 4479 03fb 40000000 		.4byte	.LFE222
 4480 03ff 0100     		.2byte	0x1
 4481 0401 54       		.byte	0x54
 4482 0402 00000000 		.4byte	0
 4483 0406 00000000 		.4byte	0
 4484              	.LLST9:
 4485 040a 00000000 		.4byte	.LVL12
 4486 040e 0D000000 		.4byte	.LVL13-1
 4487 0412 0100     		.2byte	0x1
 4488 0414 51       		.byte	0x51
 4489 0415 0D000000 		.4byte	.LVL13-1
 4490 0419 10000000 		.4byte	.LVL14
 4491 041d 0100     		.2byte	0x1
 4492 041f 55       		.byte	0x55
 4493 0420 10000000 		.4byte	.LVL14
 4494 0424 13000000 		.4byte	.LVL15-1
 4495 0428 0100     		.2byte	0x1
 4496 042a 51       		.byte	0x51
 4497 042b 13000000 		.4byte	.LVL15-1
 4498 042f 22000000 		.4byte	.LVL18
 4499 0433 0100     		.2byte	0x1
 4500 0435 55       		.byte	0x55
 4501 0436 22000000 		.4byte	.LVL18
 4502 043a 24000000 		.4byte	.LVL19
 4503 043e 0100     		.2byte	0x1
ARM GAS  /tmp/cc0YDrCi.s 			page 80


 4504 0440 51       		.byte	0x51
 4505 0441 24000000 		.4byte	.LVL19
 4506 0445 28000000 		.4byte	.LVL20
 4507 0449 0100     		.2byte	0x1
 4508 044b 55       		.byte	0x55
 4509 044c 28000000 		.4byte	.LVL20
 4510 0450 40000000 		.4byte	.LFE222
 4511 0454 0400     		.2byte	0x4
 4512 0456 F3       		.byte	0xf3
 4513 0457 01       		.uleb128 0x1
 4514 0458 51       		.byte	0x51
 4515 0459 9F       		.byte	0x9f
 4516 045a 00000000 		.4byte	0
 4517 045e 00000000 		.4byte	0
 4518              	.LLST10:
 4519 0462 38000000 		.4byte	.LVL21
 4520 0466 3C000000 		.4byte	.LVL22
 4521 046a 0100     		.2byte	0x1
 4522 046c 50       		.byte	0x50
 4523 046d 00000000 		.4byte	0
 4524 0471 00000000 		.4byte	0
 4525              	.LLST11:
 4526 0475 14000000 		.4byte	.LVL15
 4527 0479 18000000 		.4byte	.LVL16
 4528 047d 0100     		.2byte	0x1
 4529 047f 50       		.byte	0x50
 4530 0480 00000000 		.4byte	0
 4531 0484 00000000 		.4byte	0
 4532              	.LLST12:
 4533 0488 18000000 		.4byte	.LVL16
 4534 048c 1A000000 		.4byte	.LVL17
 4535 0490 0100     		.2byte	0x1
 4536 0492 54       		.byte	0x54
 4537 0493 00000000 		.4byte	0
 4538 0497 00000000 		.4byte	0
 4539              	.LLST5:
 4540 049b 00000000 		.4byte	.LVL6
 4541 049f 27000000 		.4byte	.LVL9-1
 4542 04a3 0100     		.2byte	0x1
 4543 04a5 50       		.byte	0x50
 4544 04a6 27000000 		.4byte	.LVL9-1
 4545 04aa 2C000000 		.4byte	.LVL10
 4546 04ae 0400     		.2byte	0x4
 4547 04b0 F3       		.byte	0xf3
 4548 04b1 01       		.uleb128 0x1
 4549 04b2 50       		.byte	0x50
 4550 04b3 9F       		.byte	0x9f
 4551 04b4 2C000000 		.4byte	.LVL10
 4552 04b8 36000000 		.4byte	.LVL11
 4553 04bc 0100     		.2byte	0x1
 4554 04be 50       		.byte	0x50
 4555 04bf 36000000 		.4byte	.LVL11
 4556 04c3 38000000 		.4byte	.LFE221
 4557 04c7 0400     		.2byte	0x4
 4558 04c9 F3       		.byte	0xf3
 4559 04ca 01       		.uleb128 0x1
 4560 04cb 50       		.byte	0x50
ARM GAS  /tmp/cc0YDrCi.s 			page 81


 4561 04cc 9F       		.byte	0x9f
 4562 04cd 00000000 		.4byte	0
 4563 04d1 00000000 		.4byte	0
 4564              	.LLST6:
 4565 04d5 00000000 		.4byte	.LVL6
 4566 04d9 24000000 		.4byte	.LVL8
 4567 04dd 0100     		.2byte	0x1
 4568 04df 51       		.byte	0x51
 4569 04e0 24000000 		.4byte	.LVL8
 4570 04e4 2C000000 		.4byte	.LVL10
 4571 04e8 0400     		.2byte	0x4
 4572 04ea F3       		.byte	0xf3
 4573 04eb 01       		.uleb128 0x1
 4574 04ec 51       		.byte	0x51
 4575 04ed 9F       		.byte	0x9f
 4576 04ee 2C000000 		.4byte	.LVL10
 4577 04f2 38000000 		.4byte	.LFE221
 4578 04f6 0100     		.2byte	0x1
 4579 04f8 51       		.byte	0x51
 4580 04f9 00000000 		.4byte	0
 4581 04fd 00000000 		.4byte	0
 4582              	.LLST7:
 4583 0501 00000000 		.4byte	.LVL6
 4584 0505 08000000 		.4byte	.LVL7
 4585 0509 0100     		.2byte	0x1
 4586 050b 50       		.byte	0x50
 4587 050c 2C000000 		.4byte	.LVL10
 4588 0510 36000000 		.4byte	.LVL11
 4589 0514 0100     		.2byte	0x1
 4590 0516 50       		.byte	0x50
 4591 0517 36000000 		.4byte	.LVL11
 4592 051b 38000000 		.4byte	.LFE221
 4593 051f 0400     		.2byte	0x4
 4594 0521 F3       		.byte	0xf3
 4595 0522 01       		.uleb128 0x1
 4596 0523 50       		.byte	0x50
 4597 0524 9F       		.byte	0x9f
 4598 0525 00000000 		.4byte	0
 4599 0529 00000000 		.4byte	0
 4600              	.LLST4:
 4601 052d 00000000 		.4byte	.LVL4
 4602 0531 11000000 		.4byte	.LVL5-1
 4603 0535 0100     		.2byte	0x1
 4604 0537 50       		.byte	0x50
 4605 0538 11000000 		.4byte	.LVL5-1
 4606 053c 12000000 		.4byte	.LFE220
 4607 0540 0400     		.2byte	0x4
 4608 0542 F3       		.byte	0xf3
 4609 0543 01       		.uleb128 0x1
 4610 0544 50       		.byte	0x50
 4611 0545 9F       		.byte	0x9f
 4612 0546 00000000 		.4byte	0
 4613 054a 00000000 		.4byte	0
 4614              	.LLST0:
 4615 054e 00000000 		.4byte	.LVL0
 4616 0552 0A000000 		.4byte	.LVL1
 4617 0556 0100     		.2byte	0x1
ARM GAS  /tmp/cc0YDrCi.s 			page 82


 4618 0558 52       		.byte	0x52
 4619 0559 0A000000 		.4byte	.LVL1
 4620 055d 1E000000 		.4byte	.LFE219
 4621 0561 0400     		.2byte	0x4
 4622 0563 F3       		.byte	0xf3
 4623 0564 01       		.uleb128 0x1
 4624 0565 52       		.byte	0x52
 4625 0566 9F       		.byte	0x9f
 4626 0567 00000000 		.4byte	0
 4627 056b 00000000 		.4byte	0
 4628              	.LLST1:
 4629 056f 00000000 		.4byte	.LVL0
 4630 0573 1C000000 		.4byte	.LVL3
 4631 0577 0200     		.2byte	0x2
 4632 0579 91       		.byte	0x91
 4633 057a 00       		.sleb128 0
 4634 057b 1C000000 		.4byte	.LVL3
 4635 057f 1E000000 		.4byte	.LFE219
 4636 0583 0200     		.2byte	0x2
 4637 0585 7D       		.byte	0x7d
 4638 0586 00       		.sleb128 0
 4639 0587 00000000 		.4byte	0
 4640 058b 00000000 		.4byte	0
 4641              	.LLST2:
 4642 058f 00000000 		.4byte	.LVL0
 4643 0593 12000000 		.4byte	.LVL2
 4644 0597 0100     		.2byte	0x1
 4645 0599 50       		.byte	0x50
 4646 059a 00000000 		.4byte	0
 4647 059e 00000000 		.4byte	0
 4648              		.section	.debug_aranges,"",%progbits
 4649 0000 64000000 		.4byte	0x64
 4650 0004 0200     		.2byte	0x2
 4651 0006 00000000 		.4byte	.Ldebug_info0
 4652 000a 04       		.byte	0x4
 4653 000b 00       		.byte	0
 4654 000c 0000     		.2byte	0
 4655 000e 0000     		.2byte	0
 4656 0010 00000000 		.4byte	.LFB219
 4657 0014 1E000000 		.4byte	.LFE219-.LFB219
 4658 0018 00000000 		.4byte	.LFB220
 4659 001c 12000000 		.4byte	.LFE220-.LFB220
 4660 0020 00000000 		.4byte	.LFB221
 4661 0024 38000000 		.4byte	.LFE221-.LFB221
 4662 0028 00000000 		.4byte	.LFB222
 4663 002c 40000000 		.4byte	.LFE222-.LFB222
 4664 0030 00000000 		.4byte	.LFB223
 4665 0034 5C000000 		.4byte	.LFE223-.LFB223
 4666 0038 00000000 		.4byte	.LFB224
 4667 003c 1C000000 		.4byte	.LFE224-.LFB224
 4668 0040 00000000 		.4byte	.LFB225
 4669 0044 1A000000 		.4byte	.LFE225-.LFB225
 4670 0048 00000000 		.4byte	.LFB226
 4671 004c 48000000 		.4byte	.LFE226-.LFB226
 4672 0050 00000000 		.4byte	.LFB227
 4673 0054 36000000 		.4byte	.LFE227-.LFB227
 4674 0058 00000000 		.4byte	.LFB228
ARM GAS  /tmp/cc0YDrCi.s 			page 83


 4675 005c 70000000 		.4byte	.LFE228-.LFB228
 4676 0060 00000000 		.4byte	0
 4677 0064 00000000 		.4byte	0
 4678              		.section	.debug_ranges,"",%progbits
 4679              	.Ldebug_ranges0:
 4680 0000 00000000 		.4byte	.LBB111
 4681 0004 08000000 		.4byte	.LBE111
 4682 0008 2C000000 		.4byte	.LBB114
 4683 000c 32000000 		.4byte	.LBE114
 4684 0010 00000000 		.4byte	0
 4685 0014 00000000 		.4byte	0
 4686 0018 10000000 		.4byte	.LBB119
 4687 001c 18000000 		.4byte	.LBE119
 4688 0020 1A000000 		.4byte	.LBB122
 4689 0024 1E000000 		.4byte	.LBE122
 4690 0028 00000000 		.4byte	0
 4691 002c 00000000 		.4byte	0
 4692 0030 0C000000 		.4byte	.LBB155
 4693 0034 14000000 		.4byte	.LBE155
 4694 0038 16000000 		.4byte	.LBB163
 4695 003c 1A000000 		.4byte	.LBE163
 4696 0040 44000000 		.4byte	.LBB169
 4697 0044 46000000 		.4byte	.LBE169
 4698 0048 00000000 		.4byte	0
 4699 004c 00000000 		.4byte	0
 4700 0050 02000000 		.4byte	.LBB170
 4701 0054 0A000000 		.4byte	.LBE170
 4702 0058 2A000000 		.4byte	.LBB173
 4703 005c 30000000 		.4byte	.LBE173
 4704 0060 00000000 		.4byte	0
 4705 0064 00000000 		.4byte	0
 4706 0068 14000000 		.4byte	.LBB178
 4707 006c 16000000 		.4byte	.LBE178
 4708 0070 4E000000 		.4byte	.LBB190
 4709 0074 50000000 		.4byte	.LBE190
 4710 0078 00000000 		.4byte	0
 4711 007c 00000000 		.4byte	0
 4712 0080 00000000 		.4byte	.LFB219
 4713 0084 1E000000 		.4byte	.LFE219
 4714 0088 00000000 		.4byte	.LFB220
 4715 008c 12000000 		.4byte	.LFE220
 4716 0090 00000000 		.4byte	.LFB221
 4717 0094 38000000 		.4byte	.LFE221
 4718 0098 00000000 		.4byte	.LFB222
 4719 009c 40000000 		.4byte	.LFE222
 4720 00a0 00000000 		.4byte	.LFB223
 4721 00a4 5C000000 		.4byte	.LFE223
 4722 00a8 00000000 		.4byte	.LFB224
 4723 00ac 1C000000 		.4byte	.LFE224
 4724 00b0 00000000 		.4byte	.LFB225
 4725 00b4 1A000000 		.4byte	.LFE225
 4726 00b8 00000000 		.4byte	.LFB226
 4727 00bc 48000000 		.4byte	.LFE226
 4728 00c0 00000000 		.4byte	.LFB227
 4729 00c4 36000000 		.4byte	.LFE227
 4730 00c8 00000000 		.4byte	.LFB228
 4731 00cc 70000000 		.4byte	.LFE228
ARM GAS  /tmp/cc0YDrCi.s 			page 84


 4732 00d0 00000000 		.4byte	0
 4733 00d4 00000000 		.4byte	0
 4734              		.section	.debug_line,"",%progbits
 4735              	.Ldebug_line0:
 4736 0000 7E040000 		.section	.debug_str,"MS",%progbits,1
 4736      02005002 
 4736      00000201 
 4736      FB0E0D00 
 4736      01010101 
 4737              	.LASF144:
 4738 0000 63684F51 		.ascii	"chOQPutTimeout\000"
 4738      50757454 
 4738      696D656F 
 4738      757400
 4739              	.LASF117:
 4740 000f 63665F6F 		.ascii	"cf_off_older\000"
 4740      66665F6F 
 4740      6C646572 
 4740      00
 4741              	.LASF56:
 4742 001c 72656164 		.ascii	"ready_list_t\000"
 4742      795F6C69 
 4742      73745F74 
 4742      00
 4743              	.LASF148:
 4744 0029 6F6E6679 		.ascii	"onfy\000"
 4744      00
 4745              	.LASF2:
 4746 002e 73697A65 		.ascii	"size_t\000"
 4746      5F7400
 4747              	.LASF92:
 4748 0035 7264796D 		.ascii	"rdymsg\000"
 4748      736700
 4749              	.LASF19:
 4750 003c 75696E74 		.ascii	"uint64_t\000"
 4750      36345F74 
 4750      00
 4751              	.LASF172:
 4752 0045 63685468 		.ascii	"chThdDequeueAllI\000"
 4752      64446571 
 4752      75657565 
 4752      416C6C49 
 4752      00
 4753              	.LASF3:
 4754 0056 5F5F7569 		.ascii	"__uint8_t\000"
 4754      6E74385F 
 4754      7400
 4755              	.LASF89:
 4756 0060 706F7274 		.ascii	"port_intctx\000"
 4756      5F696E74 
 4756      63747800 
 4757              	.LASF75:
 4758 006c 73797374 		.ascii	"system_debug_t\000"
 4758      656D5F64 
 4758      65627567 
 4758      5F7400
 4759              	.LASF150:
ARM GAS  /tmp/cc0YDrCi.s 			page 85


 4760 007b 63684951 		.ascii	"chIQReadTimeout\000"
 4760      52656164 
 4760      54696D65 
 4760      6F757400 
 4761              	.LASF164:
 4762 008b 71756575 		.ascii	"queue_init\000"
 4762      655F696E 
 4762      697400
 4763              	.LASF173:
 4764 0096 474E5520 		.ascii	"GNU C99 7.3.1 20180622 (release) [ARM/embedded-7-br"
 4764      43393920 
 4764      372E332E 
 4764      31203230 
 4764      31383036 
 4765 00c9 616E6368 		.ascii	"anch revision 261907] -mcpu=cortex-m4 -mfloat-abi=h"
 4765      20726576 
 4765      6973696F 
 4765      6E203236 
 4765      31393037 
 4766 00fc 61726420 		.ascii	"ard -mfpu=fpv4-sp-d16 -mno-thumb-interwork -mthumb "
 4766      2D6D6670 
 4766      753D6670 
 4766      76342D73 
 4766      702D6431 
 4767 012f 2D676764 		.ascii	"-ggdb -O2 -std=gnu99 -fomit-frame-pointer -falign-f"
 4767      62202D4F 
 4767      32202D73 
 4767      74643D67 
 4767      6E753939 
 4768 0162 756E6374 		.ascii	"unctions=16 -ffunction-sections -fdata-sections -fn"
 4768      696F6E73 
 4768      3D313620 
 4768      2D666675 
 4768      6E637469 
 4769 0195 6F2D636F 		.ascii	"o-common -fsingle-precision-constant\000"
 4769      6D6D6F6E 
 4769      202D6673 
 4769      696E676C 
 4769      652D7072 
 4770              	.LASF167:
 4771 01ba 706F7274 		.ascii	"port_lock\000"
 4771      5F6C6F63 
 4771      6B00
 4772              	.LASF133:
 4773 01c4 715F746F 		.ascii	"q_top\000"
 4773      7000
 4774              	.LASF155:
 4775 01ca 63684951 		.ascii	"chIQObjectInit\000"
 4775      4F626A65 
 4775      6374496E 
 4775      697400
 4776              	.LASF14:
 4777 01d9 6C6F6E67 		.ascii	"long long unsigned int\000"
 4777      206C6F6E 
 4777      6720756E 
 4777      7369676E 
 4777      65642069 
ARM GAS  /tmp/cc0YDrCi.s 			page 86


 4778              	.LASF154:
 4779 01f0 63684951 		.ascii	"chIQResetI\000"
 4779      52657365 
 4779      744900
 4780              	.LASF113:
 4781 01fb 63685F74 		.ascii	"ch_threadsize\000"
 4781      68726561 
 4781      6473697A 
 4781      6500
 4782              	.LASF93:
 4783 0209 65786974 		.ascii	"exitcode\000"
 4783      636F6465 
 4783      00
 4784              	.LASF82:
 4785 0212 6D61696E 		.ascii	"mainthread\000"
 4785      74687265 
 4785      616400
 4786              	.LASF72:
 4787 021d 76697274 		.ascii	"virtual_timers_list_t\000"
 4787      75616C5F 
 4787      74696D65 
 4787      72735F6C 
 4787      6973745F 
 4788              	.LASF84:
 4789 0233 49544D5F 		.ascii	"ITM_RxBuffer\000"
 4789      52784275 
 4789      66666572 
 4789      00
 4790              	.LASF128:
 4791 0240 696F5F71 		.ascii	"io_queue_t\000"
 4791      75657565 
 4791      5F7400
 4792              	.LASF55:
 4793 024b 63685F74 		.ascii	"ch_threads_queue\000"
 4793      68726561 
 4793      64735F71 
 4793      75657565 
 4793      00
 4794              	.LASF33:
 4795 025c 705F7072 		.ascii	"p_prio\000"
 4795      696F00
 4796              	.LASF120:
 4797 0263 63665F6F 		.ascii	"cf_off_state\000"
 4797      66665F73 
 4797      74617465 
 4797      00
 4798              	.LASF130:
 4799 0270 715F7761 		.ascii	"q_waiting\000"
 4799      6974696E 
 4799      6700
 4800              	.LASF12:
 4801 027a 6C6F6E67 		.ascii	"long long int\000"
 4801      206C6F6E 
 4801      6720696E 
 4801      7400
 4802              	.LASF1:
 4803 0288 7369676E 		.ascii	"signed char\000"
ARM GAS  /tmp/cc0YDrCi.s 			page 87


 4803      65642063 
 4803      68617200 
 4804              	.LASF119:
 4805 0294 63665F6F 		.ascii	"cf_off_stklimit\000"
 4805      66665F73 
 4805      746B6C69 
 4805      6D697400 
 4806              	.LASF121:
 4807 02a4 63665F6F 		.ascii	"cf_off_flags\000"
 4807      66665F66 
 4807      6C616773 
 4807      00
 4808              	.LASF49:
 4809 02b1 705F6D70 		.ascii	"p_mpool\000"
 4809      6F6F6C00 
 4810              	.LASF103:
 4811 02b9 6D5F7175 		.ascii	"m_queue\000"
 4811      65756500 
 4812              	.LASF81:
 4813 02c1 76746C69 		.ascii	"vtlist\000"
 4813      737400
 4814              	.LASF166:
 4815 02c8 706F7274 		.ascii	"port_unlock\000"
 4815      5F756E6C 
 4815      6F636B00 
 4816              	.LASF24:
 4817 02d4 74736C69 		.ascii	"tslices_t\000"
 4817      6365735F 
 4817      7400
 4818              	.LASF140:
 4819 02de 6F757470 		.ascii	"output_queue_t\000"
 4819      75745F71 
 4819      75657565 
 4819      5F7400
 4820              	.LASF95:
 4821 02ed 77747472 		.ascii	"wttrp\000"
 4821      7000
 4822              	.LASF79:
 4823 02f3 63685F73 		.ascii	"ch_system\000"
 4823      79737465 
 4823      6D00
 4824              	.LASF9:
 4825 02fd 6C6F6E67 		.ascii	"long int\000"
 4825      20696E74 
 4825      00
 4826              	.LASF22:
 4827 0306 74737461 		.ascii	"tstate_t\000"
 4827      74655F74 
 4827      00
 4828              	.LASF143:
 4829 030f 63684F51 		.ascii	"chOQGetI\000"
 4829      47657449 
 4829      00
 4830              	.LASF125:
 4831 0318 63686465 		.ascii	"chdebug_t\000"
 4831      6275675F 
 4831      7400
ARM GAS  /tmp/cc0YDrCi.s 			page 88


 4832              	.LASF35:
 4833 0322 705F6E65 		.ascii	"p_newer\000"
 4833      77657200 
 4834              	.LASF100:
 4835 032a 735F7175 		.ascii	"s_queue\000"
 4835      65756500 
 4836              	.LASF7:
 4837 0332 73686F72 		.ascii	"short unsigned int\000"
 4837      7420756E 
 4837      7369676E 
 4837      65642069 
 4837      6E7400
 4838              	.LASF23:
 4839 0345 74726566 		.ascii	"trefs_t\000"
 4839      735F7400 
 4840              	.LASF61:
 4841 034d 725F6E65 		.ascii	"r_newer\000"
 4841      77657200 
 4842              	.LASF86:
 4843 0355 72656761 		.ascii	"regarm_t\000"
 4843      726D5F74 
 4843      00
 4844              	.LASF68:
 4845 035e 76745F70 		.ascii	"vt_prev\000"
 4845      72657600 
 4846              	.LASF149:
 4847 0366 6C696E6B 		.ascii	"link\000"
 4847      00
 4848              	.LASF153:
 4849 036b 63684951 		.ascii	"chIQPutI\000"
 4849      50757449 
 4849      00
 4850              	.LASF67:
 4851 0374 76745F6E 		.ascii	"vt_next\000"
 4851      65787400 
 4852              	.LASF129:
 4853 037c 696F5F71 		.ascii	"io_queue\000"
 4853      75657565 
 4853      00
 4854              	.LASF83:
 4855 0385 69646C65 		.ascii	"idle_thread_wa\000"
 4855      5F746872 
 4855      6561645F 
 4855      776100
 4856              	.LASF28:
 4857 0394 636E745F 		.ascii	"cnt_t\000"
 4857      7400
 4858              	.LASF0:
 4859 039a 756E7369 		.ascii	"unsigned int\000"
 4859      676E6564 
 4859      20696E74 
 4859      00
 4860              	.LASF174:
 4861 03a7 43686962 		.ascii	"ChibiOS_3.0.2/os/rt/src/chqueues.c\000"
 4861      694F535F 
 4861      332E302E 
 4861      322F6F73 
ARM GAS  /tmp/cc0YDrCi.s 			page 89


 4861      2F72742F 
 4862              	.LASF16:
 4863 03ca 75696E74 		.ascii	"uint16_t\000"
 4863      31365F74 
 4863      00
 4864              	.LASF85:
 4865 03d3 53797374 		.ascii	"SystemCoreClock\000"
 4865      656D436F 
 4865      7265436C 
 4865      6F636B00 
 4866              	.LASF42:
 4867 03e3 705F7469 		.ascii	"p_time\000"
 4867      6D6500
 4868              	.LASF96:
 4869 03ea 77747365 		.ascii	"wtsemp\000"
 4869      6D7000
 4870              	.LASF69:
 4871 03f1 76745F64 		.ascii	"vt_delta\000"
 4871      656C7461 
 4871      00
 4872              	.LASF44:
 4873 03fa 705F6D73 		.ascii	"p_msgqueue\000"
 4873      67717565 
 4873      756500
 4874              	.LASF126:
 4875 0405 63685F64 		.ascii	"ch_debug\000"
 4875      65627567 
 4875      00
 4876              	.LASF141:
 4877 040e 74696D65 		.ascii	"timeout\000"
 4877      6F757400 
 4878              	.LASF101:
 4879 0416 735F636E 		.ascii	"s_cnt\000"
 4879      7400
 4880              	.LASF134:
 4881 041c 715F7772 		.ascii	"q_wrptr\000"
 4881      70747200 
 4882              	.LASF52:
 4883 0424 63685F74 		.ascii	"ch_thread\000"
 4883      68726561 
 4883      6400
 4884              	.LASF26:
 4885 042e 6D73675F 		.ascii	"msg_t\000"
 4885      7400
 4886              	.LASF78:
 4887 0434 63685F73 		.ascii	"ch_system_t\000"
 4887      79737465 
 4887      6D5F7400 
 4888              	.LASF171:
 4889 0440 63685468 		.ascii	"chThdDequeueNextI\000"
 4889      64446571 
 4889      75657565 
 4889      4E657874 
 4889      4900
 4890              	.LASF57:
 4891 0452 63685F72 		.ascii	"ch_ready_list\000"
 4891      65616479 
ARM GAS  /tmp/cc0YDrCi.s 			page 90


 4891      5F6C6973 
 4891      7400
 4892              	.LASF27:
 4893 0460 6576656E 		.ascii	"eventmask_t\000"
 4893      746D6173 
 4893      6B5F7400 
 4894              	.LASF8:
 4895 046c 5F5F696E 		.ascii	"__int32_t\000"
 4895      7433325F 
 4895      7400
 4896              	.LASF87:
 4897 0476 73746B61 		.ascii	"stkalign_t\000"
 4897      6C69676E 
 4897      5F7400
 4898              	.LASF142:
 4899 0481 63684F51 		.ascii	"chOQWriteTimeout\000"
 4899      57726974 
 4899      6554696D 
 4899      656F7574 
 4899      00
 4900              	.LASF51:
 4901 0492 74687265 		.ascii	"threads_list_t\000"
 4901      6164735F 
 4901      6C697374 
 4901      5F7400
 4902              	.LASF108:
 4903 04a1 63685F7A 		.ascii	"ch_zero\000"
 4903      65726F00 
 4904              	.LASF122:
 4905 04a9 63665F6F 		.ascii	"cf_off_refs\000"
 4905      66665F72 
 4905      65667300 
 4906              	.LASF162:
 4907 04b5 63685468 		.ascii	"chThdQueueObjectInit\000"
 4907      64517565 
 4907      75654F62 
 4907      6A656374 
 4907      496E6974 
 4908              	.LASF43:
 4909 04ca 705F7761 		.ascii	"p_waiting\000"
 4909      6974696E 
 4909      6700
 4910              	.LASF20:
 4911 04d4 7274636E 		.ascii	"rtcnt_t\000"
 4911      745F7400 
 4912              	.LASF73:
 4913 04dc 63685F76 		.ascii	"ch_virtual_timers_list\000"
 4913      69727475 
 4913      616C5F74 
 4913      696D6572 
 4913      735F6C69 
 4914              	.LASF131:
 4915 04f3 715F636F 		.ascii	"q_counter\000"
 4915      756E7465 
 4915      7200
 4916              	.LASF112:
 4917 04fd 63685F74 		.ascii	"ch_timesize\000"
ARM GAS  /tmp/cc0YDrCi.s 			page 91


 4917      696D6573 
 4917      697A6500 
 4918              	.LASF118:
 4919 0509 63665F6F 		.ascii	"cf_off_name\000"
 4919      66665F6E 
 4919      616D6500 
 4920              	.LASF36:
 4921 0515 705F6F6C 		.ascii	"p_older\000"
 4921      64657200 
 4922              	.LASF60:
 4923 051d 725F6374 		.ascii	"r_ctx\000"
 4923      7800
 4924              	.LASF34:
 4925 0523 705F6374 		.ascii	"p_ctx\000"
 4925      7800
 4926              	.LASF91:
 4927 0529 746D5F63 		.ascii	"tm_calibration_t\000"
 4927      616C6962 
 4927      72617469 
 4927      6F6E5F74 
 4927      00
 4928              	.LASF63:
 4929 053a 725F6375 		.ascii	"r_current\000"
 4929      7272656E 
 4929      7400
 4930              	.LASF62:
 4931 0544 725F6F6C 		.ascii	"r_older\000"
 4931      64657200 
 4932              	.LASF169:
 4933 054c 5F5F656E 		.ascii	"__enable_irq\000"
 4933      61626C65 
 4933      5F697271 
 4933      00
 4934              	.LASF13:
 4935 0559 5F5F7569 		.ascii	"__uint64_t\000"
 4935      6E743634 
 4935      5F7400
 4936              	.LASF168:
 4937 0564 5F5F6469 		.ascii	"__disable_irq\000"
 4937      7361626C 
 4937      655F6972 
 4937      7100
 4938              	.LASF111:
 4939 0572 63685F70 		.ascii	"ch_ptrsize\000"
 4939      74727369 
 4939      7A6500
 4940              	.LASF138:
 4941 057d 716E6F74 		.ascii	"qnotify_t\000"
 4941      6966795F 
 4941      7400
 4942              	.LASF65:
 4943 0587 76697274 		.ascii	"virtual_timer_t\000"
 4943      75616C5F 
 4943      74696D65 
 4943      725F7400 
 4944              	.LASF32:
 4945 0597 705F7072 		.ascii	"p_prev\000"
ARM GAS  /tmp/cc0YDrCi.s 			page 92


 4945      657600
 4946              	.LASF158:
 4947 059e 63684F51 		.ascii	"chOQIsFullI\000"
 4947      49734675 
 4947      6C6C4900 
 4948              	.LASF25:
 4949 05aa 74707269 		.ascii	"tprio_t\000"
 4949      6F5F7400 
 4950              	.LASF135:
 4951 05b2 715F7264 		.ascii	"q_rdptr\000"
 4951      70747200 
 4952              	.LASF76:
 4953 05ba 63685F73 		.ascii	"ch_system_debug\000"
 4953      79737465 
 4953      6D5F6465 
 4953      62756700 
 4954              	.LASF157:
 4955 05ca 5F426F6F 		.ascii	"_Bool\000"
 4955      6C00
 4956              	.LASF17:
 4957 05d0 696E7433 		.ascii	"int32_t\000"
 4957      325F7400 
 4958              	.LASF4:
 4959 05d8 756E7369 		.ascii	"unsigned char\000"
 4959      676E6564 
 4959      20636861 
 4959      7200
 4960              	.LASF175:
 4961 05e6 2F6D6564 		.ascii	"/media/sf_Dropbox/ScuddyE_Tech/Software/Motorcontro"
 4961      69612F73 
 4961      665F4472 
 4961      6F70626F 
 4961      782F5363 
 4962 0619 6C6C6572 		.ascii	"ller/SPV2/scuddy_spv2 104\000"
 4962      2F535056 
 4962      322F7363 
 4962      75646479 
 4962      5F737076 
 4963              	.LASF139:
 4964 0633 696E7075 		.ascii	"input_queue_t\000"
 4964      745F7175 
 4964      6575655F 
 4964      7400
 4965              	.LASF38:
 4966 0641 705F7374 		.ascii	"p_state\000"
 4966      61746500 
 4967              	.LASF47:
 4968 0649 705F6D74 		.ascii	"p_mtxlist\000"
 4968      786C6973 
 4968      7400
 4969              	.LASF5:
 4970 0653 73686F72 		.ascii	"short int\000"
 4970      7420696E 
 4970      7400
 4971              	.LASF41:
 4972 065d 705F7072 		.ascii	"p_preempt\000"
 4972      65656D70 
ARM GAS  /tmp/cc0YDrCi.s 			page 93


 4972      7400
 4973              	.LASF124:
 4974 0667 63665F6F 		.ascii	"cf_off_time\000"
 4974      66665F74 
 4974      696D6500 
 4975              	.LASF59:
 4976 0673 725F7072 		.ascii	"r_prio\000"
 4976      696F00
 4977              	.LASF98:
 4978 067a 65776D61 		.ascii	"ewmask\000"
 4978      736B00
 4979              	.LASF31:
 4980 0681 705F6E65 		.ascii	"p_next\000"
 4980      787400
 4981              	.LASF156:
 4982 0688 696E6679 		.ascii	"infy\000"
 4982      00
 4983              	.LASF123:
 4984 068d 63665F6F 		.ascii	"cf_off_preempt\000"
 4984      66665F70 
 4984      7265656D 
 4984      707400
 4985              	.LASF39:
 4986 069c 705F666C 		.ascii	"p_flags\000"
 4986      61677300 
 4987              	.LASF151:
 4988 06a4 5F5F6675 		.ascii	"__func__\000"
 4988      6E635F5F 
 4988      00
 4989              	.LASF165:
 4990 06ad 63685379 		.ascii	"chSysLock\000"
 4990      734C6F63 
 4990      6B00
 4991              	.LASF132:
 4992 06b7 715F6275 		.ascii	"q_buffer\000"
 4992      66666572 
 4992      00
 4993              	.LASF54:
 4994 06c0 74687265 		.ascii	"threads_queue_t\000"
 4994      6164735F 
 4994      71756575 
 4994      655F7400 
 4995              	.LASF66:
 4996 06d0 63685F76 		.ascii	"ch_virtual_timer\000"
 4996      69727475 
 4996      616C5F74 
 4996      696D6572 
 4996      00
 4997              	.LASF116:
 4998 06e1 63665F6F 		.ascii	"cf_off_newer\000"
 4998      66665F6E 
 4998      65776572 
 4998      00
 4999              	.LASF99:
 5000 06ee 63685F73 		.ascii	"ch_semaphore\000"
 5000      656D6170 
 5000      686F7265 
ARM GAS  /tmp/cc0YDrCi.s 			page 94


 5000      00
 5001              	.LASF46:
 5002 06fb 705F6570 		.ascii	"p_epending\000"
 5002      656E6469 
 5002      6E6700
 5003              	.LASF160:
 5004 0706 63684951 		.ascii	"chIQIsFullI\000"
 5004      49734675 
 5004      6C6C4900 
 5005              	.LASF18:
 5006 0712 75696E74 		.ascii	"uint32_t\000"
 5006      33325F74 
 5006      00
 5007              	.LASF114:
 5008 071b 63665F6F 		.ascii	"cf_off_prio\000"
 5008      66665F70 
 5008      72696F00 
 5009              	.LASF58:
 5010 0727 725F7175 		.ascii	"r_queue\000"
 5010      65756500 
 5011              	.LASF53:
 5012 072f 63685F74 		.ascii	"ch_threads_list\000"
 5012      68726561 
 5012      64735F6C 
 5012      69737400 
 5013              	.LASF109:
 5014 073f 63685F73 		.ascii	"ch_size\000"
 5014      697A6500 
 5015              	.LASF11:
 5016 0747 6C6F6E67 		.ascii	"long unsigned int\000"
 5016      20756E73 
 5016      69676E65 
 5016      6420696E 
 5016      7400
 5017              	.LASF106:
 5018 0759 63686172 		.ascii	"char\000"
 5018      00
 5019              	.LASF97:
 5020 075e 77746D74 		.ascii	"wtmtxp\000"
 5020      787000
 5021              	.LASF6:
 5022 0765 5F5F7569 		.ascii	"__uint16_t\000"
 5022      6E743136 
 5022      5F7400
 5023              	.LASF30:
 5024 0770 74687265 		.ascii	"thread_t\000"
 5024      61645F74 
 5024      00
 5025              	.LASF105:
 5026 0779 6D5F6E65 		.ascii	"m_next\000"
 5026      787400
 5027              	.LASF29:
 5028 0780 73797374 		.ascii	"systime_t\000"
 5028      696D655F 
 5028      7400
 5029              	.LASF48:
 5030 078a 705F7265 		.ascii	"p_realprio\000"
ARM GAS  /tmp/cc0YDrCi.s 			page 95


 5030      616C7072 
 5030      696F00
 5031              	.LASF64:
 5032 0795 76746675 		.ascii	"vtfunc_t\000"
 5032      6E635F74 
 5032      00
 5033              	.LASF10:
 5034 079e 5F5F7569 		.ascii	"__uint32_t\000"
 5034      6E743332 
 5034      5F7400
 5035              	.LASF77:
 5036 07a9 70616E69 		.ascii	"panic_msg\000"
 5036      635F6D73 
 5036      6700
 5037              	.LASF90:
 5038 07b3 6F666673 		.ascii	"offset\000"
 5038      657400
 5039              	.LASF145:
 5040 07ba 63684F51 		.ascii	"chOQResetI\000"
 5040      52657365 
 5040      744900
 5041              	.LASF88:
 5042 07c5 636F6E74 		.ascii	"context\000"
 5042      65787400 
 5043              	.LASF45:
 5044 07cd 705F6D73 		.ascii	"p_msg\000"
 5044      6700
 5045              	.LASF71:
 5046 07d3 76745F70 		.ascii	"vt_par\000"
 5046      617200
 5047              	.LASF146:
 5048 07da 63684F51 		.ascii	"chOQObjectInit\000"
 5048      4F626A65 
 5048      6374496E 
 5048      697400
 5049              	.LASF115:
 5050 07e9 63665F6F 		.ascii	"cf_off_ctx\000"
 5050      66665F63 
 5050      747800
 5051              	.LASF102:
 5052 07f4 63685F6D 		.ascii	"ch_mutex\000"
 5052      75746578 
 5052      00
 5053              	.LASF40:
 5054 07fd 705F7265 		.ascii	"p_refs\000"
 5054      667300
 5055              	.LASF161:
 5056 0804 63684951 		.ascii	"chIQIsEmptyI\000"
 5056      4973456D 
 5056      70747949 
 5056      00
 5057              	.LASF136:
 5058 0811 715F6E6F 		.ascii	"q_notify\000"
 5058      74696679 
 5058      00
 5059              	.LASF80:
 5060 081a 726C6973 		.ascii	"rlist\000"
ARM GAS  /tmp/cc0YDrCi.s 			page 96


 5060      7400
 5061              	.LASF15:
 5062 0820 75696E74 		.ascii	"uint8_t\000"
 5062      385F7400 
 5063              	.LASF50:
 5064 0828 74687265 		.ascii	"thread_reference_t\000"
 5064      61645F72 
 5064      65666572 
 5064      656E6365 
 5064      5F7400
 5065              	.LASF94:
 5066 083b 77746F62 		.ascii	"wtobjp\000"
 5066      6A7000
 5067              	.LASF37:
 5068 0842 705F6E61 		.ascii	"p_name\000"
 5068      6D6500
 5069              	.LASF147:
 5070 0849 73697A65 		.ascii	"size\000"
 5070      00
 5071              	.LASF159:
 5072 084e 63684F51 		.ascii	"chOQIsEmptyI\000"
 5072      4973456D 
 5072      70747949 
 5072      00
 5073              	.LASF74:
 5074 085b 76745F73 		.ascii	"vt_systime\000"
 5074      79737469 
 5074      6D6500
 5075              	.LASF21:
 5076 0866 746D6F64 		.ascii	"tmode_t\000"
 5076      655F7400 
 5077              	.LASF163:
 5078 086e 63685379 		.ascii	"chSysUnlock\000"
 5078      73556E6C 
 5078      6F636B00 
 5079              	.LASF110:
 5080 087a 63685F76 		.ascii	"ch_version\000"
 5080      65727369 
 5080      6F6E00
 5081              	.LASF137:
 5082 0885 715F6C69 		.ascii	"q_link\000"
 5082      6E6B00
 5083              	.LASF127:
 5084 088c 6D757465 		.ascii	"mutex_t\000"
 5084      785F7400 
 5085              	.LASF104:
 5086 0894 6D5F6F77 		.ascii	"m_owner\000"
 5086      6E657200 
 5087              	.LASF107:
 5088 089c 63685F69 		.ascii	"ch_identifier\000"
 5088      64656E74 
 5088      69666965 
 5088      7200
 5089              	.LASF70:
 5090 08aa 76745F66 		.ascii	"vt_func\000"
 5090      756E6300 
 5091              	.LASF152:
ARM GAS  /tmp/cc0YDrCi.s 			page 97


 5092 08b2 63684951 		.ascii	"chIQGetTimeout\000"
 5092      47657454 
 5092      696D656F 
 5092      757400
 5093              	.LASF170:
 5094 08c1 63685468 		.ascii	"chThdEnqueueTimeoutS\000"
 5094      64456E71 
 5094      75657565 
 5094      54696D65 
 5094      6F757453 
 5095              		.ident	"GCC: (GNU Tools for Arm Embedded Processors 7-2018-q3-update) 7.3.1 20180622 (release) [AR
ARM GAS  /tmp/cc0YDrCi.s 			page 98


DEFINED SYMBOLS
                            *ABS*:0000000000000000 chqueues.c
     /tmp/cc0YDrCi.s:18     .text.chIQObjectInit:0000000000000000 $t
     /tmp/cc0YDrCi.s:26     .text.chIQObjectInit:0000000000000000 chIQObjectInit
     /tmp/cc0YDrCi.s:79     .text.chIQResetI:0000000000000000 $t
     /tmp/cc0YDrCi.s:87     .text.chIQResetI:0000000000000000 chIQResetI
     /tmp/cc0YDrCi.s:110    .text.chIQPutI:0000000000000000 $t
     /tmp/cc0YDrCi.s:118    .text.chIQPutI:0000000000000000 chIQPutI
     /tmp/cc0YDrCi.s:191    .text.chIQGetTimeout:0000000000000000 $t
     /tmp/cc0YDrCi.s:199    .text.chIQGetTimeout:0000000000000000 chIQGetTimeout
     /tmp/cc0YDrCi.s:318    .text.chIQReadTimeout:0000000000000000 $t
     /tmp/cc0YDrCi.s:326    .text.chIQReadTimeout:0000000000000000 chIQReadTimeout
     /tmp/cc0YDrCi.s:492    .text.chOQObjectInit:0000000000000000 $t
     /tmp/cc0YDrCi.s:500    .text.chOQObjectInit:0000000000000000 chOQObjectInit
     /tmp/cc0YDrCi.s:544    .text.chOQResetI:0000000000000000 $t
     /tmp/cc0YDrCi.s:552    .text.chOQResetI:0000000000000000 chOQResetI
     /tmp/cc0YDrCi.s:585    .text.chOQPutTimeout:0000000000000000 $t
     /tmp/cc0YDrCi.s:593    .text.chOQPutTimeout:0000000000000000 chOQPutTimeout
     /tmp/cc0YDrCi.s:731    .text.chOQGetI:0000000000000000 $t
     /tmp/cc0YDrCi.s:739    .text.chOQGetI:0000000000000000 chOQGetI
     /tmp/cc0YDrCi.s:811    .text.chOQWriteTimeout:0000000000000000 $t
     /tmp/cc0YDrCi.s:819    .text.chOQWriteTimeout:0000000000000000 chOQWriteTimeout

UNDEFINED SYMBOLS
chThdDequeueAllI
chThdDequeueNextI
chThdEnqueueTimeoutS
