ARM GAS  /tmp/cc0YDrCi.s 			page 1


   1              		.cpu cortex-m4
   2              		.eabi_attribute 27, 1
   3              		.eabi_attribute 28, 1
   4              		.eabi_attribute 20, 1
   5              		.eabi_attribute 21, 1
   6              		.eabi_attribute 23, 3
   7              		.eabi_attribute 24, 1
   8              		.eabi_attribute 25, 1
   9              		.eabi_attribute 26, 1
  10              		.eabi_attribute 30, 2
  11              		.eabi_attribute 34, 1
  12              		.eabi_attribute 18, 4
  13              		.file	"chqueues.c"
  14              		.text
  15              	.Ltext0:
  16              		.cfi_sections	.debug_frame
  17              		.section	.text.chIQObjectInit,"ax",%progbits
  18              		.align	1
  19              		.p2align 4,,15
  20              		.global	chIQObjectInit
  21              		.syntax unified
  22              		.thumb
  23              		.thumb_func
  24              		.fpu fpv4-sp-d16
  25              		.type	chIQObjectInit, %function
  26              	chIQObjectInit:
  27              	.LFB219:
  28              		.file 1 "ChibiOS_3.0.2/os/rt/src/chqueues.c"
  29              		.loc 1 88 0
  30              		.cfi_startproc
  31              		@ args = 4, pretend = 0, frame = 0
  32              		@ frame_needed = 0, uses_anonymous_args = 0
  33              		@ link register save eliminated.
  34              	.LVL0:
  35 0000 30B4     		push	{r4, r5}
  36              		.cfi_def_cfa_offset 8
  37              		.cfi_offset 4, -8
  38              		.cfi_offset 5, -4
  39              		.loc 1 88 0
  40 0002 029C     		ldr	r4, [sp, #8]
  41              		.loc 1 97 0
  42 0004 0462     		str	r4, [r0, #32]
  43              		.loc 1 91 0
  44 0006 0025     		movs	r5, #0
  45              		.loc 1 95 0
  46 0008 0A44     		add	r2, r2, r1
  47              	.LVL1:
  48              		.loc 1 91 0
  49 000a 8560     		str	r5, [r0, #8]
  50              		.loc 1 95 0
  51 000c 0261     		str	r2, [r0, #16]
  52              	.LBB108:
  53              	.LBB109:
  54              	.LBB110:
  55              		.file 2 "ChibiOS_3.0.2/os/rt/include/chschd.h"
  56              		.loc 2 605 0
  57 000e C0E90000 		strd	r0, r0, [r0]
ARM GAS  /tmp/cc0YDrCi.s 			page 2


  58              	.LVL2:
  59              	.LBE110:
  60              	.LBE109:
  61              	.LBE108:
  62              		.loc 1 92 0
  63 0012 C160     		str	r1, [r0, #12]
  64              		.loc 1 94 0
  65 0014 C0E90511 		strd	r1, r1, [r0, #20]
  66              		.loc 1 96 0
  67 0018 C361     		str	r3, [r0, #28]
  68              		.loc 1 98 0
  69 001a 30BC     		pop	{r4, r5}
  70              		.cfi_restore 5
  71              		.cfi_restore 4
  72              		.cfi_def_cfa_offset 0
  73              	.LVL3:
  74 001c 7047     		bx	lr
  75              		.cfi_endproc
  76              	.LFE219:
  77              		.size	chIQObjectInit, .-chIQObjectInit
  78 001e 00BF     		.section	.text.chIQResetI,"ax",%progbits
  79              		.align	1
  80              		.p2align 4,,15
  81              		.global	chIQResetI
  82              		.syntax unified
  83              		.thumb
  84              		.thumb_func
  85              		.fpu fpv4-sp-d16
  86              		.type	chIQResetI, %function
  87              	chIQResetI:
  88              	.LFB220:
  89              		.loc 1 111 0
  90              		.cfi_startproc
  91              		@ args = 0, pretend = 0, frame = 0
  92              		@ frame_needed = 0, uses_anonymous_args = 0
  93              		@ link register save eliminated.
  94              	.LVL4:
  95              		.loc 1 115 0
  96 0000 C268     		ldr	r2, [r0, #12]
  97              		.loc 1 117 0
  98 0002 0021     		movs	r1, #0
  99 0004 8160     		str	r1, [r0, #8]
 100              		.loc 1 116 0
 101 0006 C0E90522 		strd	r2, r2, [r0, #20]
 102              		.loc 1 118 0
 103 000a 6FF00101 		mvn	r1, #1
 104 000e FFF7FEBF 		b	chThdDequeueAllI
 105              	.LVL5:
 106              		.cfi_endproc
 107              	.LFE220:
 108              		.size	chIQResetI, .-chIQResetI
 109 0012 00BF     		.section	.text.chIQPutI,"ax",%progbits
 110              		.align	1
 111              		.p2align 4,,15
 112              		.global	chIQPutI
 113              		.syntax unified
 114              		.thumb
ARM GAS  /tmp/cc0YDrCi.s 			page 3


 115              		.thumb_func
 116              		.fpu fpv4-sp-d16
 117              		.type	chIQPutI, %function
 118              	chIQPutI:
 119              	.LFB221:
 120              		.loc 1 134 0
 121              		.cfi_startproc
 122              		@ args = 0, pretend = 0, frame = 0
 123              		@ frame_needed = 0, uses_anonymous_args = 0
 124              	.LVL6:
 125              	.LBB111:
 126              	.LBB112:
 127              		.file 3 "ChibiOS_3.0.2/os/rt/include/chqueues.h"
 128              		.loc 3 324 0
 129 0000 D0E90532 		ldrd	r3, r2, [r0, #20]
 130 0004 9342     		cmp	r3, r2
 131 0006 11D0     		beq	.L14
 132              	.L6:
 133              	.LVL7:
 134              	.LBE112:
 135              	.LBE111:
 136              		.loc 1 142 0
 137 0008 8268     		ldr	r2, [r0, #8]
 138              		.loc 1 134 0
 139 000a 10B5     		push	{r4, lr}
 140              		.cfi_def_cfa_offset 8
 141              		.cfi_offset 4, -8
 142              		.cfi_offset 14, -4
 143              		.loc 1 142 0
 144 000c 0132     		adds	r2, r2, #1
 145              		.loc 1 143 0
 146 000e 5C1C     		adds	r4, r3, #1
 147              		.loc 1 142 0
 148 0010 8260     		str	r2, [r0, #8]
 149              		.loc 1 143 0
 150 0012 4461     		str	r4, [r0, #20]
 151 0014 1970     		strb	r1, [r3]
 152              		.loc 1 144 0
 153 0016 D0E90432 		ldrd	r3, r2, [r0, #16]
 154 001a 9A42     		cmp	r2, r3
 155 001c 01D3     		bcc	.L9
 156              		.loc 1 145 0
 157 001e C368     		ldr	r3, [r0, #12]
 158 0020 4361     		str	r3, [r0, #20]
 159              	.L9:
 160              		.loc 1 148 0
 161 0022 0021     		movs	r1, #0
 162              	.LVL8:
 163 0024 FFF7FEFF 		bl	chThdDequeueNextI
 164              	.LVL9:
 165              		.loc 1 150 0
 166 0028 0020     		movs	r0, #0
 167              		.loc 1 151 0
 168 002a 10BD     		pop	{r4, pc}
 169              	.LVL10:
 170              	.L14:
 171              		.cfi_def_cfa_offset 0
ARM GAS  /tmp/cc0YDrCi.s 			page 4


 172              		.cfi_restore 4
 173              		.cfi_restore 14
 174              	.LBB114:
 175              	.LBB113:
 176              		.loc 3 324 0
 177 002c 8268     		ldr	r2, [r0, #8]
 178 002e 002A     		cmp	r2, #0
 179 0030 EAD0     		beq	.L6
 180              	.LBE113:
 181              	.LBE114:
 182              		.loc 1 139 0
 183 0032 6FF00300 		mvn	r0, #3
 184              	.LVL11:
 185              		.loc 1 151 0
 186 0036 7047     		bx	lr
 187              		.cfi_endproc
 188              	.LFE221:
 189              		.size	chIQPutI, .-chIQPutI
 190              		.section	.text.chIQGetTimeout,"ax",%progbits
 191              		.align	1
 192              		.p2align 4,,15
 193              		.global	chIQGetTimeout
 194              		.syntax unified
 195              		.thumb
 196              		.thumb_func
 197              		.fpu fpv4-sp-d16
 198              		.type	chIQGetTimeout, %function
 199              	chIQGetTimeout:
 200              	.LFB222:
 201              		.loc 1 173 0
 202              		.cfi_startproc
 203              		@ args = 0, pretend = 0, frame = 0
 204              		@ frame_needed = 0, uses_anonymous_args = 0
 205              	.LVL12:
 206 0000 38B5     		push	{r3, r4, r5, lr}
 207              		.cfi_def_cfa_offset 16
 208              		.cfi_offset 3, -16
 209              		.cfi_offset 4, -12
 210              		.cfi_offset 5, -8
 211              		.cfi_offset 14, -4
 212              		.loc 1 173 0
 213 0002 0D46     		mov	r5, r1
 214 0004 0446     		mov	r4, r0
 215              	.LBB115:
 216              	.LBB116:
 217              	.LBB117:
 218              	.LBB118:
 219              		.file 4 "ChibiOS_3.0.2/os/ext/CMSIS/include/core_cmFunc.h"
 220              		.loc 4 342 0
 221              		.syntax unified
 222              	@ 342 "ChibiOS_3.0.2/os/ext/CMSIS/include/core_cmFunc.h" 1
 223 0006 72B6     		cpsid i
 224              	@ 0 "" 2
 225              		.thumb
 226              		.syntax unified
 227              	.LBE118:
 228              	.LBE117:
ARM GAS  /tmp/cc0YDrCi.s 			page 5


 229              	.LBE116:
 230              	.LBE115:
 231              		.loc 1 177 0
 232 0008 C369     		ldr	r3, [r0, #28]
 233 000a 2BB1     		cbz	r3, .L17
 234              		.loc 1 178 0
 235 000c 9847     		blx	r3
 236              	.LVL13:
 237 000e 03E0     		b	.L17
 238              	.LVL14:
 239              	.L19:
 240              	.LBB119:
 241              		.loc 1 182 0
 242 0010 FFF7FEFF 		bl	chThdEnqueueTimeoutS
 243              	.LVL15:
 244              		.loc 1 183 0
 245 0014 0028     		cmp	r0, #0
 246 0016 11DB     		blt	.L20
 247              	.LVL16:
 248              	.L17:
 249              	.LBE119:
 250              	.LBB120:
 251              	.LBB121:
 252              		.loc 3 307 0
 253 0018 A368     		ldr	r3, [r4, #8]
 254              	.LVL17:
 255              	.LBE121:
 256              	.LBE120:
 257              	.LBB122:
 258              		.loc 1 182 0
 259 001a 2946     		mov	r1, r5
 260 001c 2046     		mov	r0, r4
 261              	.LBE122:
 262              		.loc 1 181 0
 263 001e 002B     		cmp	r3, #0
 264 0020 F6D0     		beq	.L19
 265              	.LVL18:
 266              		.loc 1 190 0
 267 0022 A169     		ldr	r1, [r4, #24]
 268              	.LVL19:
 269              		.loc 1 189 0
 270 0024 A368     		ldr	r3, [r4, #8]
 271              		.loc 1 191 0
 272 0026 2569     		ldr	r5, [r4, #16]
 273              	.LVL20:
 274              		.loc 1 190 0
 275 0028 4A1C     		adds	r2, r1, #1
 276              		.loc 1 189 0
 277 002a 013B     		subs	r3, r3, #1
 278              		.loc 1 191 0
 279 002c AA42     		cmp	r2, r5
 280              		.loc 1 189 0
 281 002e A360     		str	r3, [r4, #8]
 282              		.loc 1 190 0
 283 0030 A261     		str	r2, [r4, #24]
 284              		.loc 1 192 0
 285 0032 28BF     		it	cs
ARM GAS  /tmp/cc0YDrCi.s 			page 6


 286 0034 E368     		ldrcs	r3, [r4, #12]
 287              		.loc 1 190 0
 288 0036 0878     		ldrb	r0, [r1]	@ zero_extendqisi2
 289              	.LVL21:
 290              		.loc 1 192 0
 291 0038 28BF     		it	cs
 292 003a A361     		strcs	r3, [r4, #24]
 293              	.LVL22:
 294              	.L20:
 295              	.LBB123:
 296              	.LBB124:
 297              	.LBB125:
 298              	.LBB126:
 299              	.LBB127:
 300              		.loc 4 331 0
 301              		.syntax unified
 302              	@ 331 "ChibiOS_3.0.2/os/ext/CMSIS/include/core_cmFunc.h" 1
 303 003c 62B6     		cpsie i
 304              	@ 0 "" 2
 305              		.thumb
 306              		.syntax unified
 307              	.LBE127:
 308              	.LBE126:
 309              	.LBE125:
 310              	.LBE124:
 311              	.LBE123:
 312              		.loc 1 197 0
 313 003e 38BD     		pop	{r3, r4, r5, pc}
 314              		.cfi_endproc
 315              	.LFE222:
 316              		.size	chIQGetTimeout, .-chIQGetTimeout
 317              		.section	.text.chIQReadTimeout,"ax",%progbits
 318              		.align	1
 319              		.p2align 4,,15
 320              		.global	chIQReadTimeout
 321              		.syntax unified
 322              		.thumb
 323              		.thumb_func
 324              		.fpu fpv4-sp-d16
 325              		.type	chIQReadTimeout, %function
 326              	chIQReadTimeout:
 327              	.LFB223:
 328              		.loc 1 224 0
 329              		.cfi_startproc
 330              		@ args = 0, pretend = 0, frame = 0
 331              		@ frame_needed = 0, uses_anonymous_args = 0
 332              	.LVL23:
 333 0000 2DE9F843 		push	{r3, r4, r5, r6, r7, r8, r9, lr}
 334              		.cfi_def_cfa_offset 32
 335              		.cfi_offset 3, -32
 336              		.cfi_offset 4, -28
 337              		.cfi_offset 5, -24
 338              		.cfi_offset 6, -20
 339              		.cfi_offset 7, -16
 340              		.cfi_offset 8, -12
 341              		.cfi_offset 9, -8
 342              		.cfi_offset 14, -4
ARM GAS  /tmp/cc0YDrCi.s 			page 7


 343              		.loc 1 224 0
 344 0004 0446     		mov	r4, r0
 345 0006 8846     		mov	r8, r1
 346 0008 9146     		mov	r9, r2
 347 000a 1D46     		mov	r5, r3
 348              		.loc 1 225 0
 349 000c C769     		ldr	r7, [r0, #28]
 350              	.LVL24:
 351              	.LBB128:
 352              	.LBB129:
 353              	.LBB130:
 354              	.LBB131:
 355              		.loc 4 342 0
 356              		.syntax unified
 357              	@ 342 "ChibiOS_3.0.2/os/ext/CMSIS/include/core_cmFunc.h" 1
 358 000e 72B6     		cpsid i
 359              	@ 0 "" 2
 360              		.thumb
 361              		.syntax unified
 362              	.LBE131:
 363              	.LBE130:
 364              	.LBE129:
 365              	.LBE128:
 366              		.loc 1 226 0
 367 0010 0026     		movs	r6, #0
 368              	.LVL25:
 369              	.L32:
 370              		.loc 1 232 0
 371 0012 2FB1     		cbz	r7, .L28
 372              		.loc 1 233 0
 373 0014 2046     		mov	r0, r4
 374              	.LVL26:
 375 0016 B847     		blx	r7
 376              	.LVL27:
 377 0018 02E0     		b	.L28
 378              	.LVL28:
 379              	.L30:
 380              		.loc 1 237 0
 381 001a FFF7FEFF 		bl	chThdEnqueueTimeoutS
 382              	.LVL29:
 383 001e C8B9     		cbnz	r0, .L39
 384              	.L28:
 385              	.LVL30:
 386              	.LBB132:
 387              	.LBB133:
 388              		.loc 3 307 0
 389 0020 A368     		ldr	r3, [r4, #8]
 390              	.LVL31:
 391              	.LBE133:
 392              	.LBE132:
 393              		.loc 1 237 0
 394 0022 2946     		mov	r1, r5
 395 0024 2046     		mov	r0, r4
 396              		.loc 1 236 0
 397 0026 002B     		cmp	r3, #0
 398 0028 F7D0     		beq	.L30
 399              	.LVL32:
ARM GAS  /tmp/cc0YDrCi.s 			page 8


 400              		.loc 1 244 0
 401 002a A269     		ldr	r2, [r4, #24]
 402              		.loc 1 243 0
 403 002c A368     		ldr	r3, [r4, #8]
 404              		.loc 1 244 0
 405 002e 511C     		adds	r1, r2, #1
 406              	.LVL33:
 407              		.loc 1 243 0
 408 0030 013B     		subs	r3, r3, #1
 409              		.loc 1 244 0
 410 0032 A161     		str	r1, [r4, #24]
 411              		.loc 1 243 0
 412 0034 A360     		str	r3, [r4, #8]
 413              		.loc 1 244 0
 414 0036 1378     		ldrb	r3, [r2]	@ zero_extendqisi2
 415 0038 08F8013B 		strb	r3, [r8], #1
 416              	.LVL34:
 417              		.loc 1 245 0
 418 003c 2369     		ldr	r3, [r4, #16]
 419 003e A269     		ldr	r2, [r4, #24]
 420 0040 9A42     		cmp	r2, r3
 421              		.loc 1 246 0
 422 0042 24BF     		itt	cs
 423 0044 E368     		ldrcs	r3, [r4, #12]
 424 0046 A361     		strcs	r3, [r4, #24]
 425              	.LBB134:
 426              	.LBB135:
 427              	.LBB136:
 428              	.LBB137:
 429              	.LBB138:
 430              		.loc 4 331 0
 431              		.syntax unified
 432              	@ 331 "ChibiOS_3.0.2/os/ext/CMSIS/include/core_cmFunc.h" 1
 433 0048 62B6     		cpsie i
 434              	@ 0 "" 2
 435              		.thumb
 436              		.syntax unified
 437              	.LBE138:
 438              	.LBE137:
 439              	.LBE136:
 440              	.LBE135:
 441              	.LBE134:
 442              		.loc 1 250 0
 443 004a 0136     		adds	r6, r6, #1
 444              	.LVL35:
 445              		.loc 1 251 0
 446 004c B145     		cmp	r9, r6
 447 004e 02D0     		beq	.L26
 448              	.LBB139:
 449              	.LBB140:
 450              	.LBB141:
 451              	.LBB142:
 452              		.loc 4 342 0
 453              		.syntax unified
 454              	@ 342 "ChibiOS_3.0.2/os/ext/CMSIS/include/core_cmFunc.h" 1
 455 0050 72B6     		cpsid i
 456              	@ 0 "" 2
ARM GAS  /tmp/cc0YDrCi.s 			page 9


 457              		.thumb
 458              		.syntax unified
 459 0052 DEE7     		b	.L32
 460              	.LVL36:
 461              	.L39:
 462              	.LBE142:
 463              	.LBE141:
 464              	.LBE140:
 465              	.LBE139:
 466              	.LBB143:
 467              	.LBB144:
 468              	.LBB145:
 469              	.LBB146:
 470              	.LBB147:
 471              		.loc 4 331 0
 472              		.syntax unified
 473              	@ 331 "ChibiOS_3.0.2/os/ext/CMSIS/include/core_cmFunc.h" 1
 474 0054 62B6     		cpsie i
 475              	@ 0 "" 2
 476              	.LVL37:
 477              		.thumb
 478              		.syntax unified
 479              	.L26:
 480              	.LBE147:
 481              	.LBE146:
 482              	.LBE145:
 483              	.LBE144:
 484              	.LBE143:
 485              		.loc 1 257 0
 486 0056 3046     		mov	r0, r6
 487 0058 BDE8F883 		pop	{r3, r4, r5, r6, r7, r8, r9, pc}
 488              		.cfi_endproc
 489              	.LFE223:
 490              		.size	chIQReadTimeout, .-chIQReadTimeout
 491              		.section	.text.chOQObjectInit,"ax",%progbits
 492              		.align	1
 493              		.p2align 4,,15
 494              		.global	chOQObjectInit
 495              		.syntax unified
 496              		.thumb
 497              		.thumb_func
 498              		.fpu fpv4-sp-d16
 499              		.type	chOQObjectInit, %function
 500              	chOQObjectInit:
 501              	.LFB224:
 502              		.loc 1 276 0
 503              		.cfi_startproc
 504              		@ args = 4, pretend = 0, frame = 0
 505              		@ frame_needed = 0, uses_anonymous_args = 0
 506              		@ link register save eliminated.
 507              	.LVL38:
 508 0000 30B4     		push	{r4, r5}
 509              		.cfi_def_cfa_offset 8
 510              		.cfi_offset 4, -8
 511              		.cfi_offset 5, -4
 512              		.loc 1 276 0
 513 0002 029C     		ldr	r4, [sp, #8]
ARM GAS  /tmp/cc0YDrCi.s 			page 10


 514              		.loc 1 279 0
 515 0004 8260     		str	r2, [r0, #8]
 516              		.loc 1 283 0
 517 0006 8D18     		adds	r5, r1, r2
 518              		.loc 1 280 0
 519 0008 C0E90315 		strd	r1, r5, [r0, #12]
 520              		.loc 1 285 0
 521 000c C0E90734 		strd	r3, r4, [r0, #28]
 522              	.LBB148:
 523              	.LBB149:
 524              	.LBB150:
 525              		.loc 2 605 0
 526 0010 C0E90000 		strd	r0, r0, [r0]
 527              	.LVL39:
 528              	.LBE150:
 529              	.LBE149:
 530              	.LBE148:
 531              		.loc 1 282 0
 532 0014 C0E90511 		strd	r1, r1, [r0, #20]
 533              		.loc 1 286 0
 534 0018 30BC     		pop	{r4, r5}
 535              		.cfi_restore 5
 536              		.cfi_restore 4
 537              		.cfi_def_cfa_offset 0
 538              	.LVL40:
 539 001a 7047     		bx	lr
 540              		.cfi_endproc
 541              	.LFE224:
 542              		.size	chOQObjectInit, .-chOQObjectInit
 543              		.section	.text.chOQResetI,"ax",%progbits
 544              		.align	1
 545              		.p2align 4,,15
 546              		.global	chOQResetI
 547              		.syntax unified
 548              		.thumb
 549              		.thumb_func
 550              		.fpu fpv4-sp-d16
 551              		.type	chOQResetI, %function
 552              	chOQResetI:
 553              	.LFB225:
 554              		.loc 1 299 0
 555              		.cfi_startproc
 556              		@ args = 0, pretend = 0, frame = 0
 557              		@ frame_needed = 0, uses_anonymous_args = 0
 558              		@ link register save eliminated.
 559              	.LVL41:
 560 0000 10B4     		push	{r4}
 561              		.cfi_def_cfa_offset 4
 562              		.cfi_offset 4, -4
 563              		.loc 1 305 0
 564 0002 D0E90342 		ldrd	r4, r2, [r0, #12]
 565 0006 121B     		subs	r2, r2, r4
 566              		.loc 1 303 0
 567 0008 8461     		str	r4, [r0, #24]
 568              		.loc 1 304 0
 569 000a 4461     		str	r4, [r0, #20]
 570              		.loc 1 306 0
ARM GAS  /tmp/cc0YDrCi.s 			page 11


 571 000c 6FF00101 		mvn	r1, #1
 572              		.loc 1 305 0
 573 0010 8260     		str	r2, [r0, #8]
 574              		.loc 1 307 0
 575 0012 5DF8044B 		ldr	r4, [sp], #4
 576              		.cfi_restore 4
 577              		.cfi_def_cfa_offset 0
 578              		.loc 1 306 0
 579 0016 FFF7FEBF 		b	chThdDequeueAllI
 580              	.LVL42:
 581              		.cfi_endproc
 582              	.LFE225:
 583              		.size	chOQResetI, .-chOQResetI
 584 001a 00BF     		.section	.text.chOQPutTimeout,"ax",%progbits
 585              		.align	1
 586              		.p2align 4,,15
 587              		.global	chOQPutTimeout
 588              		.syntax unified
 589              		.thumb
 590              		.thumb_func
 591              		.fpu fpv4-sp-d16
 592              		.type	chOQPutTimeout, %function
 593              	chOQPutTimeout:
 594              	.LFB226:
 595              		.loc 1 331 0
 596              		.cfi_startproc
 597              		@ args = 0, pretend = 0, frame = 0
 598              		@ frame_needed = 0, uses_anonymous_args = 0
 599              	.LVL43:
 600 0000 70B5     		push	{r4, r5, r6, lr}
 601              		.cfi_def_cfa_offset 16
 602              		.cfi_offset 4, -16
 603              		.cfi_offset 5, -12
 604              		.cfi_offset 6, -8
 605              		.cfi_offset 14, -4
 606              		.loc 1 331 0
 607 0002 0446     		mov	r4, r0
 608 0004 0E46     		mov	r6, r1
 609 0006 1546     		mov	r5, r2
 610              	.LBB151:
 611              	.LBB152:
 612              	.LBB153:
 613              	.LBB154:
 614              		.loc 4 342 0
 615              		.syntax unified
 616              	@ 342 "ChibiOS_3.0.2/os/ext/CMSIS/include/core_cmFunc.h" 1
 617 0008 72B6     		cpsid i
 618              	@ 0 "" 2
 619              		.thumb
 620              		.syntax unified
 621 000a 03E0     		b	.L45
 622              	.LVL44:
 623              	.L47:
 624              	.LBE154:
 625              	.LBE153:
 626              	.LBE152:
 627              	.LBE151:
ARM GAS  /tmp/cc0YDrCi.s 			page 12


 628              	.LBB155:
 629              		.loc 1 335 0
 630 000c FFF7FEFF 		bl	chThdEnqueueTimeoutS
 631              	.LVL45:
 632              		.loc 1 336 0
 633 0010 0028     		cmp	r0, #0
 634 0012 17DB     		blt	.L55
 635              	.LVL46:
 636              	.L45:
 637              	.LBE155:
 638              	.LBB161:
 639              	.LBB162:
 640              		.loc 3 407 0
 641 0014 A368     		ldr	r3, [r4, #8]
 642              	.LVL47:
 643              	.LBE162:
 644              	.LBE161:
 645              	.LBB163:
 646              		.loc 1 335 0
 647 0016 2946     		mov	r1, r5
 648 0018 2046     		mov	r0, r4
 649              	.LBE163:
 650              		.loc 1 334 0
 651 001a 002B     		cmp	r3, #0
 652 001c F6D0     		beq	.L47
 653              	.LVL48:
 654              		.loc 1 343 0
 655 001e 6269     		ldr	r2, [r4, #20]
 656              		.loc 1 342 0
 657 0020 A368     		ldr	r3, [r4, #8]
 658              		.loc 1 343 0
 659 0022 511C     		adds	r1, r2, #1
 660              	.LVL49:
 661              		.loc 1 342 0
 662 0024 013B     		subs	r3, r3, #1
 663              		.loc 1 343 0
 664 0026 6161     		str	r1, [r4, #20]
 665              		.loc 1 342 0
 666 0028 A360     		str	r3, [r4, #8]
 667              		.loc 1 343 0
 668 002a 1670     		strb	r6, [r2]
 669              		.loc 1 344 0
 670 002c D4E90432 		ldrd	r3, r2, [r4, #16]
 671 0030 9A42     		cmp	r2, r3
 672              		.loc 1 345 0
 673 0032 24BF     		itt	cs
 674 0034 E368     		ldrcs	r3, [r4, #12]
 675 0036 6361     		strcs	r3, [r4, #20]
 676              		.loc 1 348 0
 677 0038 E369     		ldr	r3, [r4, #28]
 678 003a 03B1     		cbz	r3, .L49
 679              		.loc 1 349 0
 680 003c 9847     		blx	r3
 681              	.LVL50:
 682              	.L49:
 683              	.LBB164:
 684              	.LBB165:
ARM GAS  /tmp/cc0YDrCi.s 			page 13


 685              	.LBB166:
 686              	.LBB167:
 687              	.LBB168:
 688              		.loc 4 331 0
 689              		.syntax unified
 690              	@ 331 "ChibiOS_3.0.2/os/ext/CMSIS/include/core_cmFunc.h" 1
 691 003e 62B6     		cpsie i
 692              	@ 0 "" 2
 693              		.thumb
 694              		.syntax unified
 695              	.LBE168:
 696              	.LBE167:
 697              	.LBE166:
 698              	.LBE165:
 699              	.LBE164:
 700              		.loc 1 353 0
 701 0040 0020     		movs	r0, #0
 702              		.loc 1 354 0
 703 0042 70BD     		pop	{r4, r5, r6, pc}
 704              	.LVL51:
 705              	.L55:
 706              	.LBB169:
 707              	.LBB156:
 708              	.LBB157:
 709              	.LBB158:
 710              	.LBB159:
 711              	.LBB160:
 712              		.loc 4 331 0
 713              		.syntax unified
 714              	@ 331 "ChibiOS_3.0.2/os/ext/CMSIS/include/core_cmFunc.h" 1
 715 0044 62B6     		cpsie i
 716              	@ 0 "" 2
 717              		.thumb
 718              		.syntax unified
 719              	.LBE160:
 720              	.LBE159:
 721              	.LBE158:
 722              	.LBE157:
 723              	.LBE156:
 724              	.LBE169:
 725              		.loc 1 354 0
 726 0046 70BD     		pop	{r4, r5, r6, pc}
 727              		.cfi_endproc
 728              	.LFE226:
 729              		.size	chOQPutTimeout, .-chOQPutTimeout
 730              		.section	.text.chOQGetI,"ax",%progbits
 731              		.align	1
 732              		.p2align 4,,15
 733              		.global	chOQGetI
 734              		.syntax unified
 735              		.thumb
 736              		.thumb_func
 737              		.fpu fpv4-sp-d16
 738              		.type	chOQGetI, %function
 739              	chOQGetI:
 740              	.LFB227:
 741              		.loc 1 366 0
ARM GAS  /tmp/cc0YDrCi.s 			page 14


 742              		.cfi_startproc
 743              		@ args = 0, pretend = 0, frame = 0
 744              		@ frame_needed = 0, uses_anonymous_args = 0
 745              	.LVL52:
 746 0000 38B5     		push	{r3, r4, r5, lr}
 747              		.cfi_def_cfa_offset 16
 748              		.cfi_offset 3, -16
 749              		.cfi_offset 4, -12
 750              		.cfi_offset 5, -8
 751              		.cfi_offset 14, -4
 752              	.LBB170:
 753              	.LBB171:
 754              		.loc 3 390 0
 755 0002 D0E90523 		ldrd	r2, r3, [r0, #20]
 756 0006 9A42     		cmp	r2, r3
 757 0008 0FD0     		beq	.L63
 758              	.L57:
 759              	.LVL53:
 760              	.LBE171:
 761              	.LBE170:
 762              		.loc 1 375 0
 763 000a 8268     		ldr	r2, [r0, #8]
 764              		.loc 1 377 0
 765 000c 0569     		ldr	r5, [r0, #16]
 766              		.loc 1 376 0
 767 000e 591C     		adds	r1, r3, #1
 768              		.loc 1 375 0
 769 0010 0132     		adds	r2, r2, #1
 770 0012 8260     		str	r2, [r0, #8]
 771              		.loc 1 376 0
 772 0014 8161     		str	r1, [r0, #24]
 773              		.loc 1 377 0
 774 0016 A942     		cmp	r1, r5
 775              		.loc 1 376 0
 776 0018 1C78     		ldrb	r4, [r3]	@ zero_extendqisi2
 777              	.LVL54:
 778              		.loc 1 377 0
 779 001a 01D3     		bcc	.L60
 780              		.loc 1 378 0
 781 001c C368     		ldr	r3, [r0, #12]
 782 001e 8361     		str	r3, [r0, #24]
 783              	.L60:
 784              		.loc 1 381 0
 785 0020 0021     		movs	r1, #0
 786 0022 FFF7FEFF 		bl	chThdDequeueNextI
 787              	.LVL55:
 788              		.loc 1 383 0
 789 0026 2046     		mov	r0, r4
 790              		.loc 1 384 0
 791 0028 38BD     		pop	{r3, r4, r5, pc}
 792              	.LVL56:
 793              	.L63:
 794              	.LBB173:
 795              	.LBB172:
 796              		.loc 3 390 0
 797 002a 8268     		ldr	r2, [r0, #8]
 798 002c 002A     		cmp	r2, #0
ARM GAS  /tmp/cc0YDrCi.s 			page 15


 799 002e ECD0     		beq	.L57
 800              	.LBE172:
 801              	.LBE173:
 802              		.loc 1 372 0
 803 0030 6FF00200 		mvn	r0, #2
 804              	.LVL57:
 805              		.loc 1 384 0
 806 0034 38BD     		pop	{r3, r4, r5, pc}
 807              		.cfi_endproc
 808              	.LFE227:
 809              		.size	chOQGetI, .-chOQGetI
 810 0036 00BF     		.section	.text.chOQWriteTimeout,"ax",%progbits
 811              		.align	1
 812              		.p2align 4,,15
 813              		.global	chOQWriteTimeout
 814              		.syntax unified
 815              		.thumb
 816              		.thumb_func
 817              		.fpu fpv4-sp-d16
 818              		.type	chOQWriteTimeout, %function
 819              	chOQWriteTimeout:
 820              	.LFB228:
 821              		.loc 1 411 0
 822              		.cfi_startproc
 823              		@ args = 0, pretend = 0, frame = 0
 824              		@ frame_needed = 0, uses_anonymous_args = 0
 825              	.LVL58:
 826 0000 2DE9F047 		push	{r4, r5, r6, r7, r8, r9, r10, lr}
 827              		.cfi_def_cfa_offset 32
 828              		.cfi_offset 4, -32
 829              		.cfi_offset 5, -28
 830              		.cfi_offset 6, -24
 831              		.cfi_offset 7, -20
 832              		.cfi_offset 8, -16
 833              		.cfi_offset 9, -12
 834              		.cfi_offset 10, -8
 835              		.cfi_offset 14, -4
 836              		.loc 1 411 0
 837 0004 0446     		mov	r4, r0
 838 0006 0D46     		mov	r5, r1
 839 0008 1646     		mov	r6, r2
 840 000a 9946     		mov	r9, r3
 841              		.loc 1 412 0
 842 000c D0F81C80 		ldr	r8, [r0, #28]
 843              	.LVL59:
 844              	.LBB174:
 845              	.LBB175:
 846              	.LBB176:
 847              	.LBB177:
 848              		.loc 4 342 0
 849              		.syntax unified
 850              	@ 342 "ChibiOS_3.0.2/os/ext/CMSIS/include/core_cmFunc.h" 1
 851 0010 72B6     		cpsid i
 852              	@ 0 "" 2
 853              		.thumb
 854              		.syntax unified
 855              	.LBE177:
ARM GAS  /tmp/cc0YDrCi.s 			page 16


 856              	.LBE176:
 857              	.LBE175:
 858              	.LBE174:
 859              		.loc 1 413 0
 860 0012 0027     		movs	r7, #0
 861              	.LVL60:
 862              	.L65:
 863              	.LBB178:
 864              	.LBB179:
 865              		.loc 3 407 0
 866 0014 A368     		ldr	r3, [r4, #8]
 867              	.LVL61:
 868              	.LBE179:
 869              	.LBE178:
 870              		.loc 1 427 0
 871 0016 05F1010A 		add	r10, r5, #1
 872              	.LVL62:
 873              		.loc 1 433 0
 874 001a 2046     		mov	r0, r4
 875              		.loc 1 419 0
 876 001c F3B1     		cbz	r3, .L68
 877              	.LVL63:
 878              	.L81:
 879              		.loc 1 427 0
 880 001e 6269     		ldr	r2, [r4, #20]
 881              		.loc 1 426 0
 882 0020 A368     		ldr	r3, [r4, #8]
 883              		.loc 1 427 0
 884 0022 511C     		adds	r1, r2, #1
 885              		.loc 1 426 0
 886 0024 013B     		subs	r3, r3, #1
 887              		.loc 1 427 0
 888 0026 6161     		str	r1, [r4, #20]
 889              		.loc 1 426 0
 890 0028 A360     		str	r3, [r4, #8]
 891              		.loc 1 427 0
 892 002a 2B78     		ldrb	r3, [r5]	@ zero_extendqisi2
 893 002c 1370     		strb	r3, [r2]
 894              		.loc 1 428 0
 895 002e D4E90432 		ldrd	r3, r2, [r4, #16]
 896 0032 9A42     		cmp	r2, r3
 897              		.loc 1 429 0
 898 0034 24BF     		itt	cs
 899 0036 E368     		ldrcs	r3, [r4, #12]
 900 0038 6361     		strcs	r3, [r4, #20]
 901              		.loc 1 432 0
 902 003a B8F1000F 		cmp	r8, #0
 903 003e 00D0     		beq	.L70
 904              		.loc 1 433 0
 905 0040 C047     		blx	r8
 906              	.LVL64:
 907              	.L70:
 908              	.LBB181:
 909              	.LBB182:
 910              	.LBB183:
 911              	.LBB184:
 912              	.LBB185:
ARM GAS  /tmp/cc0YDrCi.s 			page 17


 913              		.loc 4 331 0
 914              		.syntax unified
 915              	@ 331 "ChibiOS_3.0.2/os/ext/CMSIS/include/core_cmFunc.h" 1
 916 0042 62B6     		cpsie i
 917              	@ 0 "" 2
 918              		.thumb
 919              		.syntax unified
 920              	.LBE185:
 921              	.LBE184:
 922              	.LBE183:
 923              	.LBE182:
 924              	.LBE181:
 925              		.loc 1 438 0
 926 0044 013E     		subs	r6, r6, #1
 927              	.LVL65:
 928              		.loc 1 437 0
 929 0046 07F10107 		add	r7, r7, #1
 930              	.LVL66:
 931              		.loc 1 438 0
 932 004a 0ED0     		beq	.L64
 933              	.LBB186:
 934              	.LBB187:
 935              	.LBB188:
 936              	.LBB189:
 937              		.loc 4 342 0
 938              		.syntax unified
 939              	@ 342 "ChibiOS_3.0.2/os/ext/CMSIS/include/core_cmFunc.h" 1
 940 004c 72B6     		cpsid i
 941              	@ 0 "" 2
 942              		.thumb
 943              		.syntax unified
 944              	.LBE189:
 945              	.LBE188:
 946              	.LBE187:
 947              	.LBE186:
 948              	.LBB190:
 949              	.LBB180:
 950              		.loc 3 407 0
 951 004e A368     		ldr	r3, [r4, #8]
 952              	.LBE180:
 953              	.LBE190:
 954              		.loc 1 427 0
 955 0050 5546     		mov	r5, r10
 956              	.LVL67:
 957 0052 05F1010A 		add	r10, r5, #1
 958              	.LVL68:
 959              		.loc 1 433 0
 960 0056 2046     		mov	r0, r4
 961              		.loc 1 419 0
 962 0058 002B     		cmp	r3, #0
 963 005a E0D1     		bne	.L81
 964              	.LVL69:
 965              	.L68:
 966              		.loc 1 420 0
 967 005c 4946     		mov	r1, r9
 968 005e 2046     		mov	r0, r4
 969              	.LVL70:
ARM GAS  /tmp/cc0YDrCi.s 			page 18


 970 0060 FFF7FEFF 		bl	chThdEnqueueTimeoutS
 971              	.LVL71:
 972 0064 0028     		cmp	r0, #0
 973 0066 D5D0     		beq	.L65
 974              	.LBB191:
 975              	.LBB192:
 976              	.LBB193:
 977              	.LBB194:
 978              	.LBB195:
 979              		.loc 4 331 0
 980              		.syntax unified
 981              	@ 331 "ChibiOS_3.0.2/os/ext/CMSIS/include/core_cmFunc.h" 1
 982 0068 62B6     		cpsie i
 983              	@ 0 "" 2
 984              	.LVL72:
 985              		.thumb
 986              		.syntax unified
 987              	.L64:
 988              	.LBE195:
 989              	.LBE194:
 990              	.LBE193:
 991              	.LBE192:
 992              	.LBE191:
 993              		.loc 1 443 0
 994 006a 3846     		mov	r0, r7
 995 006c BDE8F087 		pop	{r4, r5, r6, r7, r8, r9, r10, pc}
 996              		.cfi_endproc
 997              	.LFE228:
 998              		.size	chOQWriteTimeout, .-chOQWriteTimeout
 999              		.text
 1000              	.Letext0:
 1001              		.file 5 "/usr/lib/gcc/arm-none-eabi/7.3.1/include/stddef.h"
 1002              		.file 6 "/usr/arm-none-eabi/include/machine/_default_types.h"
 1003              		.file 7 "/usr/arm-none-eabi/include/sys/_stdint.h"
 1004              		.file 8 "ChibiOS_3.0.2/os/rt/ports/ARMCMx/compilers/GCC/chtypes.h"
 1005              		.file 9 "ChibiOS_3.0.2/os/rt/include/chsystypes.h"
 1006              		.file 10 "ChibiOS_3.0.2/os/ext/CMSIS/include/core_cm4.h"
 1007              		.file 11 "ChibiOS_3.0.2/os/ext/CMSIS/ST/system_stm32f4xx.h"
 1008              		.file 12 "ChibiOS_3.0.2/os/rt/ports/ARMCMx/chcore.h"
 1009              		.file 13 "ChibiOS_3.0.2/os/rt/ports/ARMCMx/chcore_v7m.h"
 1010              		.file 14 "ChibiOS_3.0.2/os/rt/include/chtm.h"
 1011              		.file 15 "ChibiOS_3.0.2/os/rt/include/chsem.h"
 1012              		.file 16 "ChibiOS_3.0.2/os/rt/include/chmtx.h"
 1013              		.file 17 "ChibiOS_3.0.2/os/rt/include/chregistry.h"
 1014              		.file 18 "ChibiOS_3.0.2/os/rt/include/chsys.h"
 1015              		.file 19 "ChibiOS_3.0.2/os/rt/include/chthreads.h"