ARM GAS  /tmp/cc3dYOAw.s 			page 1


   1              		.cpu cortex-m4
   2              		.eabi_attribute 27, 1
   3              		.eabi_attribute 28, 1
   4              		.eabi_attribute 20, 1
   5              		.eabi_attribute 21, 1
   6              		.eabi_attribute 23, 3
   7              		.eabi_attribute 24, 1
   8              		.eabi_attribute 25, 1
   9              		.eabi_attribute 26, 1
  10              		.eabi_attribute 30, 2
  11              		.eabi_attribute 34, 1
  12              		.eabi_attribute 18, 4
  13              		.file	"i2c_bb.c"
  14              		.text
  15              	.Ltext0:
  16              		.cfi_sections	.debug_frame
  17              		.section	.text.clock_stretch_timeout,"ax",%progbits
  18              		.align	1
  19              		.p2align 4,,15
  20              		.syntax unified
  21              		.thumb
  22              		.thumb_func
  23              		.fpu fpv4-sp-d16
  24              		.type	clock_stretch_timeout, %function
  25              	clock_stretch_timeout:
  26              	.LFB265:
  27              		.file 1 "i2c_bb.c"
  28              		.loc 1 266 0
  29              		.cfi_startproc
  30              		@ args = 0, pretend = 0, frame = 0
  31              		@ frame_needed = 0, uses_anonymous_args = 0
  32              	.LVL0:
  33 0000 70B5     		push	{r4, r5, r6, lr}
  34              		.cfi_def_cfa_offset 16
  35              		.cfi_offset 4, -16
  36              		.cfi_offset 5, -12
  37              		.cfi_offset 6, -8
  38              		.cfi_offset 14, -4
  39 0002 2DED028B 		vpush.64	{d8}
  40              		.cfi_def_cfa_offset 24
  41              		.cfi_offset 80, -24
  42              		.cfi_offset 81, -20
  43              		.loc 1 266 0
  44 0006 0546     		mov	r5, r0
  45              		.loc 1 267 0
  46 0008 FFF7FEFF 		bl	timer_time_now
  47              	.LVL1:
  48              		.loc 1 270 0
  49 000c 9FED0E8A 		vldr.32	s16, .L10
  50              		.loc 1 267 0
  51 0010 0646     		mov	r6, r0
  52              	.LVL2:
  53              		.loc 1 269 0
  54 0012 06E0     		b	.L2
  55              	.L5:
  56              		.loc 1 270 0
  57 0014 FFF7FEFF 		bl	timer_seconds_elapsed_since
ARM GAS  /tmp/cc3dYOAw.s 			page 2


  58              	.LVL3:
  59 0018 B4EEC80A 		vcmpe.f32	s0, s16
  60 001c F1EE10FA 		vmrs	APSR_nzcv, FPSCR
  61 0020 0BDC     		bgt	.L9
  62              	.L2:
  63              		.loc 1 269 0
  64 0022 D5E90232 		ldrd	r3, r2, [r5, #8]
  65 0026 1B69     		ldr	r3, [r3, #16]
  66 0028 D340     		lsrs	r3, r3, r2
  67 002a 13F00104 		ands	r4, r3, #1
  68              		.loc 1 270 0
  69 002e 3046     		mov	r0, r6
  70              		.loc 1 269 0
  71 0030 F0D0     		beq	.L5
  72              	.LVL4:
  73              		.loc 1 277 0
  74 0032 BDEC028B 		vldm	sp!, {d8}
  75              		.cfi_remember_state
  76              		.cfi_restore 80
  77              		.cfi_restore 81
  78              		.cfi_def_cfa_offset 16
  79              		.loc 1 276 0
  80 0036 0120     		movs	r0, #1
  81              	.LVL5:
  82              		.loc 1 277 0
  83 0038 70BD     		pop	{r4, r5, r6, pc}
  84              	.LVL6:
  85              	.L9:
  86              		.cfi_restore_state
  87 003a BDEC028B 		vldm	sp!, {d8}
  88              		.cfi_restore 80
  89              		.cfi_restore 81
  90              		.cfi_def_cfa_offset 16
  91              		.loc 1 271 0
  92 003e 0123     		movs	r3, #1
  93              		.loc 1 272 0
  94 0040 2046     		mov	r0, r4
  95              		.loc 1 271 0
  96 0042 6B74     		strb	r3, [r5, #17]
  97              		.loc 1 277 0
  98 0044 70BD     		pop	{r4, r5, r6, pc}
  99              	.LVL7:
 100              	.L11:
 101 0046 00BF     		.align	2
 102              	.L10:
 103 0048 0AD7233C 		.word	1008981770
 104              		.cfi_endproc
 105              	.LFE265:
 106              		.size	clock_stretch_timeout, .-clock_stretch_timeout
 107              		.section	.text.i2c_start_cond,"ax",%progbits
 108              		.align	1
 109              		.p2align 4,,15
 110              		.syntax unified
 111              		.thumb
 112              		.thumb_func
 113              		.fpu fpv4-sp-d16
 114              		.type	i2c_start_cond, %function
ARM GAS  /tmp/cc3dYOAw.s 			page 3


 115              	i2c_start_cond:
 116              	.LFB259:
 117              		.loc 1 114 0
 118              		.cfi_startproc
 119              		@ args = 0, pretend = 0, frame = 0
 120              		@ frame_needed = 0, uses_anonymous_args = 0
 121              	.LVL8:
 122 0000 38B5     		push	{r3, r4, r5, lr}
 123              		.cfi_def_cfa_offset 16
 124              		.cfi_offset 3, -16
 125              		.cfi_offset 4, -12
 126              		.cfi_offset 5, -8
 127              		.cfi_offset 14, -4
 128              		.loc 1 114 0
 129 0002 0446     		mov	r4, r0
 130 0004 4068     		ldr	r0, [r0, #4]
 131              	.LVL9:
 132              		.loc 1 115 0
 133 0006 227C     		ldrb	r2, [r4, #16]	@ zero_extendqisi2
 134 0008 2168     		ldr	r1, [r4]
 135 000a 0125     		movs	r5, #1
 136 000c 05FA00F3 		lsl	r3, r5, r0
 137 0010 9BB2     		uxth	r3, r3
 138 0012 9AB9     		cbnz	r2, .L23
 139              	.L13:
 140              		.loc 1 129 0
 141 0014 0A69     		ldr	r2, [r1, #16]
 142              	.LBB41:
 143              	.LBB42:
 144              		.loc 1 281 0
 145 0016 9FED160A 		vldr.32	s0, .L24
 146              	.LBE42:
 147              	.LBE41:
 148              		.loc 1 129 0
 149 001a C240     		lsrs	r2, r2, r0
 150 001c D207     		lsls	r2, r2, #31
 151              		.loc 1 131 0
 152 001e 5CBF     		itt	pl
 153 0020 0122     		movpl	r2, #1
 154 0022 6274     		strbpl	r2, [r4, #17]
 155              		.loc 1 135 0
 156 0024 4B83     		strh	r3, [r1, #26]	@ movhi
 157              	.LBB44:
 158              	.LBB43:
 159              		.loc 1 281 0
 160 0026 FFF7FEFF 		bl	timer_sleep
 161              	.LVL10:
 162              	.LBE43:
 163              	.LBE44:
 164              		.loc 1 137 0
 165 002a D4E90213 		ldrd	r1, r3, [r4, #8]
 166 002e 0122     		movs	r2, #1
 167 0030 02FA03F3 		lsl	r3, r2, r3
 168 0034 9BB2     		uxth	r3, r3
 169 0036 4B83     		strh	r3, [r1, #26]	@ movhi
 170              		.loc 1 138 0
 171 0038 2274     		strb	r2, [r4, #16]
ARM GAS  /tmp/cc3dYOAw.s 			page 4


 172              	.L12:
 173              		.loc 1 139 0
 174 003a 38BD     		pop	{r3, r4, r5, pc}
 175              	.LVL11:
 176              	.L23:
 177              		.loc 1 117 0
 178 003c 0B83     		strh	r3, [r1, #24]	@ movhi
 179              	.LBB45:
 180              	.LBB46:
 181              		.loc 1 281 0
 182 003e 9FED0C0A 		vldr.32	s0, .L24
 183 0042 FFF7FEFF 		bl	timer_sleep
 184              	.LVL12:
 185              	.LBE46:
 186              	.LBE45:
 187              		.loc 1 119 0
 188 0046 D4E90223 		ldrd	r2, r3, [r4, #8]
 189 004a 05FA03F3 		lsl	r3, r5, r3
 190 004e 9BB2     		uxth	r3, r3
 191 0050 1383     		strh	r3, [r2, #24]	@ movhi
 192              		.loc 1 121 0
 193 0052 2046     		mov	r0, r4
 194 0054 FFF7FEFF 		bl	clock_stretch_timeout
 195              	.LVL13:
 196 0058 0028     		cmp	r0, #0
 197 005a EED0     		beq	.L12
 198              	.LBB47:
 199              	.LBB48:
 200              		.loc 1 281 0
 201 005c 9FED040A 		vldr.32	s0, .L24
 202 0060 FFF7FEFF 		bl	timer_sleep
 203              	.LVL14:
 204 0064 D4E90010 		ldrd	r1, r0, [r4]
 205 0068 05FA00F3 		lsl	r3, r5, r0
 206 006c 9BB2     		uxth	r3, r3
 207 006e D1E7     		b	.L13
 208              	.L25:
 209              		.align	2
 210              	.L24:
 211 0070 BD370635 		.word	889599933
 212              	.LBE48:
 213              	.LBE47:
 214              		.cfi_endproc
 215              	.LFE259:
 216              		.size	i2c_start_cond, .-i2c_start_cond
 217              		.section	.text.i2c_stop_cond,"ax",%progbits
 218              		.align	1
 219              		.p2align 4,,15
 220              		.syntax unified
 221              		.thumb
 222              		.thumb_func
 223              		.fpu fpv4-sp-d16
 224              		.type	i2c_stop_cond, %function
 225              	i2c_stop_cond:
 226              	.LFB260:
 227              		.loc 1 141 0
 228              		.cfi_startproc
ARM GAS  /tmp/cc3dYOAw.s 			page 5


 229              		@ args = 0, pretend = 0, frame = 0
 230              		@ frame_needed = 0, uses_anonymous_args = 0
 231              	.LVL15:
 232 0000 38B5     		push	{r3, r4, r5, lr}
 233              		.cfi_def_cfa_offset 16
 234              		.cfi_offset 3, -16
 235              		.cfi_offset 4, -12
 236              		.cfi_offset 5, -8
 237              		.cfi_offset 14, -4
 238              		.loc 1 142 0
 239 0002 D0E90023 		ldrd	r2, r3, [r0]
 240 0006 0125     		movs	r5, #1
 241 0008 05FA03F3 		lsl	r3, r5, r3
 242 000c 9BB2     		uxth	r3, r3
 243              		.loc 1 141 0
 244 000e 0446     		mov	r4, r0
 245              		.loc 1 142 0
 246 0010 5383     		strh	r3, [r2, #26]	@ movhi
 247              	.LBB59:
 248              	.LBB60:
 249              		.loc 1 281 0
 250 0012 9FED140A 		vldr.32	s0, .L34
 251 0016 FFF7FEFF 		bl	timer_sleep
 252              	.LVL16:
 253              	.LBE60:
 254              	.LBE59:
 255              		.loc 1 145 0
 256 001a D4E90223 		ldrd	r2, r3, [r4, #8]
 257 001e 05FA03F3 		lsl	r3, r5, r3
 258 0022 9BB2     		uxth	r3, r3
 259 0024 1383     		strh	r3, [r2, #24]	@ movhi
 260              		.loc 1 147 0
 261 0026 2046     		mov	r0, r4
 262 0028 FFF7FEFF 		bl	clock_stretch_timeout
 263              	.LVL17:
 264 002c 00B9     		cbnz	r0, .L33
 265              		.loc 1 165 0
 266 002e 38BD     		pop	{r3, r4, r5, pc}
 267              	.LVL18:
 268              	.L33:
 269              	.LBB61:
 270              	.LBB62:
 271              	.LBB63:
 272              	.LBB64:
 273              		.loc 1 281 0
 274 0030 9FED0C0A 		vldr.32	s0, .L34
 275 0034 FFF7FEFF 		bl	timer_sleep
 276              	.LVL19:
 277              	.LBE64:
 278              	.LBE63:
 279              		.loc 1 155 0
 280 0038 D4E90023 		ldrd	r2, r3, [r4]
 281 003c 05FA03F3 		lsl	r3, r5, r3
 282 0040 9BB2     		uxth	r3, r3
 283 0042 1383     		strh	r3, [r2, #24]	@ movhi
 284              	.LBB65:
 285              	.LBB66:
ARM GAS  /tmp/cc3dYOAw.s 			page 6


 286              		.loc 1 281 0
 287 0044 9FED070A 		vldr.32	s0, .L34
 288 0048 FFF7FEFF 		bl	timer_sleep
 289              	.LVL20:
 290              	.LBE66:
 291              	.LBE65:
 292              		.loc 1 159 0
 293 004c D4E90032 		ldrd	r3, r2, [r4]
 294 0050 1B69     		ldr	r3, [r3, #16]
 295 0052 D340     		lsrs	r3, r3, r2
 296 0054 DB07     		lsls	r3, r3, #31
 297              		.loc 1 164 0
 298 0056 4FF00003 		mov	r3, #0
 299              		.loc 1 161 0
 300 005a 58BF     		it	pl
 301 005c 6574     		strbpl	r5, [r4, #17]
 302              		.loc 1 164 0
 303 005e 2374     		strb	r3, [r4, #16]
 304              	.LBE62:
 305              	.LBE61:
 306              		.loc 1 165 0
 307 0060 38BD     		pop	{r3, r4, r5, pc}
 308              	.LVL21:
 309              	.L35:
 310 0062 00BF     		.align	2
 311              	.L34:
 312 0064 BD370635 		.word	889599933
 313              		.cfi_endproc
 314              	.LFE260:
 315              		.size	i2c_stop_cond, .-i2c_stop_cond
 316              		.section	.text.i2c_write_bit,"ax",%progbits
 317              		.align	1
 318              		.p2align 4,,15
 319              		.syntax unified
 320              		.thumb
 321              		.thumb_func
 322              		.fpu fpv4-sp-d16
 323              		.type	i2c_write_bit, %function
 324              	i2c_write_bit:
 325              	.LFB261:
 326              		.loc 1 167 0
 327              		.cfi_startproc
 328              		@ args = 0, pretend = 0, frame = 0
 329              		@ frame_needed = 0, uses_anonymous_args = 0
 330              	.LVL22:
 331 0000 38B5     		push	{r3, r4, r5, lr}
 332              		.cfi_def_cfa_offset 16
 333              		.cfi_offset 3, -16
 334              		.cfi_offset 4, -12
 335              		.cfi_offset 5, -8
 336              		.cfi_offset 14, -4
 337 0002 D0E90023 		ldrd	r2, r3, [r0]
 338 0006 0125     		movs	r5, #1
 339 0008 05FA03F3 		lsl	r3, r5, r3
 340              		.loc 1 167 0
 341 000c 0446     		mov	r4, r0
 342 000e 9BB2     		uxth	r3, r3
ARM GAS  /tmp/cc3dYOAw.s 			page 7


 343              		.loc 1 168 0
 344 0010 01B3     		cbz	r1, .L37
 345              		.loc 1 169 0
 346 0012 1383     		strh	r3, [r2, #24]	@ movhi
 347              	.LBB77:
 348              	.LBB78:
 349              		.loc 1 281 0
 350 0014 9FED190A 		vldr.32	s0, .L47
 351 0018 FFF7FEFF 		bl	timer_sleep
 352              	.LVL23:
 353              	.LBE78:
 354              	.LBE77:
 355              		.loc 1 178 0
 356 001c D4E90223 		ldrd	r2, r3, [r4, #8]
 357 0020 05FA03F3 		lsl	r3, r5, r3
 358 0024 9BB2     		uxth	r3, r3
 359              	.LBB80:
 360              	.LBB81:
 361              		.loc 1 281 0
 362 0026 9FED150A 		vldr.32	s0, .L47
 363              	.LBE81:
 364              	.LBE80:
 365              		.loc 1 178 0
 366 002a 1383     		strh	r3, [r2, #24]	@ movhi
 367              	.LBB85:
 368              	.LBB82:
 369              		.loc 1 281 0
 370 002c FFF7FEFF 		bl	timer_sleep
 371              	.LVL24:
 372              	.LBE82:
 373              	.LBE85:
 374              		.loc 1 183 0
 375 0030 2046     		mov	r0, r4
 376 0032 FFF7FEFF 		bl	clock_stretch_timeout
 377              	.LVL25:
 378 0036 60B1     		cbz	r0, .L36
 379              	.LVL26:
 380              	.LBB86:
 381              	.LBB87:
 382              		.loc 1 190 0
 383 0038 D4E90032 		ldrd	r3, r2, [r4]
 384 003c 1B69     		ldr	r3, [r3, #16]
 385 003e D340     		lsrs	r3, r3, r2
 386 0040 DB07     		lsls	r3, r3, #31
 387              		.loc 1 192 0
 388 0042 58BF     		it	pl
 389 0044 6574     		strbpl	r5, [r4, #17]
 390              	.LVL27:
 391              	.L41:
 392              		.loc 1 196 0
 393 0046 D4E90221 		ldrd	r2, r1, [r4, #8]
 394 004a 0123     		movs	r3, #1
 395 004c 8B40     		lsls	r3, r3, r1
 396 004e 9BB2     		uxth	r3, r3
 397 0050 5383     		strh	r3, [r2, #26]	@ movhi
 398              	.L36:
 399              	.LBE87:
ARM GAS  /tmp/cc3dYOAw.s 			page 8


 400              	.LBE86:
 401              		.loc 1 197 0
 402 0052 38BD     		pop	{r3, r4, r5, pc}
 403              	.LVL28:
 404              	.L37:
 405              		.loc 1 171 0
 406 0054 5383     		strh	r3, [r2, #26]	@ movhi
 407              	.LBB88:
 408              	.LBB79:
 409              		.loc 1 281 0
 410 0056 9FED090A 		vldr.32	s0, .L47
 411 005a FFF7FEFF 		bl	timer_sleep
 412              	.LVL29:
 413              	.LBE79:
 414              	.LBE88:
 415              		.loc 1 178 0
 416 005e D4E90223 		ldrd	r2, r3, [r4, #8]
 417 0062 9D40     		lsls	r5, r5, r3
 418 0064 ADB2     		uxth	r5, r5
 419              	.LBB89:
 420              	.LBB83:
 421              		.loc 1 281 0
 422 0066 9FED050A 		vldr.32	s0, .L47
 423              	.LBE83:
 424              	.LBE89:
 425              		.loc 1 178 0
 426 006a 1583     		strh	r5, [r2, #24]	@ movhi
 427              	.LBB90:
 428              	.LBB84:
 429              		.loc 1 281 0
 430 006c FFF7FEFF 		bl	timer_sleep
 431              	.LVL30:
 432              	.LBE84:
 433              	.LBE90:
 434              		.loc 1 183 0
 435 0070 2046     		mov	r0, r4
 436 0072 FFF7FEFF 		bl	clock_stretch_timeout
 437              	.LVL31:
 438 0076 0028     		cmp	r0, #0
 439 0078 E5D1     		bne	.L41
 440 007a EAE7     		b	.L36
 441              	.L48:
 442              		.align	2
 443              	.L47:
 444 007c BD370635 		.word	889599933
 445              		.cfi_endproc
 446              	.LFE261:
 447              		.size	i2c_write_bit, .-i2c_write_bit
 448              		.section	.text.i2c_read_bit,"ax",%progbits
 449              		.align	1
 450              		.p2align 4,,15
 451              		.syntax unified
 452              		.thumb
 453              		.thumb_func
 454              		.fpu fpv4-sp-d16
 455              		.type	i2c_read_bit, %function
 456              	i2c_read_bit:
ARM GAS  /tmp/cc3dYOAw.s 			page 9


 457              	.LFB262:
 458              		.loc 1 199 0
 459              		.cfi_startproc
 460              		@ args = 0, pretend = 0, frame = 0
 461              		@ frame_needed = 0, uses_anonymous_args = 0
 462              	.LVL32:
 463 0000 38B5     		push	{r3, r4, r5, lr}
 464              		.cfi_def_cfa_offset 16
 465              		.cfi_offset 3, -16
 466              		.cfi_offset 4, -12
 467              		.cfi_offset 5, -8
 468              		.cfi_offset 14, -4
 469              		.loc 1 203 0
 470 0002 D0E90023 		ldrd	r2, r3, [r0]
 471 0006 0125     		movs	r5, #1
 472 0008 05FA03F3 		lsl	r3, r5, r3
 473 000c 9BB2     		uxth	r3, r3
 474              		.loc 1 199 0
 475 000e 0446     		mov	r4, r0
 476              		.loc 1 203 0
 477 0010 1383     		strh	r3, [r2, #24]	@ movhi
 478              	.LBB99:
 479              	.LBB100:
 480              		.loc 1 281 0
 481 0012 9FED0F0A 		vldr.32	s0, .L56
 482 0016 FFF7FEFF 		bl	timer_sleep
 483              	.LVL33:
 484              	.LBE100:
 485              	.LBE99:
 486              		.loc 1 209 0
 487 001a D4E90223 		ldrd	r2, r3, [r4, #8]
 488 001e 05FA03F3 		lsl	r3, r5, r3
 489 0022 9BB2     		uxth	r3, r3
 490 0024 1383     		strh	r3, [r2, #24]	@ movhi
 491              		.loc 1 211 0
 492 0026 2046     		mov	r0, r4
 493 0028 FFF7FEFF 		bl	clock_stretch_timeout
 494              	.LVL34:
 495 002c 00B9     		cbnz	r0, .L55
 496              		.loc 1 225 0
 497 002e 38BD     		pop	{r3, r4, r5, pc}
 498              	.LVL35:
 499              	.L55:
 500              	.LBB101:
 501              	.LBB102:
 502              	.LBB103:
 503              	.LBB104:
 504              		.loc 1 281 0
 505 0030 9FED070A 		vldr.32	s0, .L56
 506 0034 FFF7FEFF 		bl	timer_sleep
 507              	.LVL36:
 508              	.LBE104:
 509              	.LBE103:
 510              		.loc 1 219 0
 511 0038 2368     		ldr	r3, [r4]
 512              		.loc 1 222 0
 513 003a E168     		ldr	r1, [r4, #12]
ARM GAS  /tmp/cc3dYOAw.s 			page 10


 514              		.loc 1 219 0
 515 003c 1869     		ldr	r0, [r3, #16]
 516              		.loc 1 222 0
 517 003e D4E90123 		ldrd	r2, r3, [r4, #4]
 518 0042 8D40     		lsls	r5, r5, r1
 519              		.loc 1 219 0
 520 0044 D040     		lsrs	r0, r0, r2
 521              		.loc 1 222 0
 522 0046 ADB2     		uxth	r5, r5
 523              		.loc 1 219 0
 524 0048 00F00100 		and	r0, r0, #1
 525              	.LVL37:
 526              		.loc 1 222 0
 527 004c 5D83     		strh	r5, [r3, #26]	@ movhi
 528              	.LVL38:
 529              	.LBE102:
 530              	.LBE101:
 531              		.loc 1 225 0
 532 004e 38BD     		pop	{r3, r4, r5, pc}
 533              	.LVL39:
 534              	.L57:
 535              		.align	2
 536              	.L56:
 537 0050 BD370635 		.word	889599933
 538              		.cfi_endproc
 539              	.LFE262:
 540              		.size	i2c_read_bit, .-i2c_read_bit
 541              		.section	.text.i2c_write_byte.constprop.3,"ax",%progbits
 542              		.align	1
 543              		.p2align 4,,15
 544              		.syntax unified
 545              		.thumb
 546              		.thumb_func
 547              		.fpu fpv4-sp-d16
 548              		.type	i2c_write_byte.constprop.3, %function
 549              	i2c_write_byte.constprop.3:
 550              	.LFB271:
 551              		.loc 1 227 0
 552              		.cfi_startproc
 553              		@ args = 0, pretend = 0, frame = 0
 554              		@ frame_needed = 0, uses_anonymous_args = 0
 555              	.LVL40:
 556 0000 70B5     		push	{r4, r5, r6, lr}
 557              		.cfi_def_cfa_offset 16
 558              		.cfi_offset 4, -16
 559              		.cfi_offset 5, -12
 560              		.cfi_offset 6, -8
 561              		.cfi_offset 14, -4
 562              		.loc 1 227 0
 563 0002 1446     		mov	r4, r2
 564 0004 0646     		mov	r6, r0
 565              		.loc 1 231 0
 566 0006 69B9     		cbnz	r1, .L66
 567              	.LVL41:
 568              	.L59:
 569              		.loc 1 227 0
 570 0008 0825     		movs	r5, #8
ARM GAS  /tmp/cc3dYOAw.s 			page 11


 571              	.LVL42:
 572              	.L60:
 573              		.loc 1 236 0
 574 000a E109     		lsrs	r1, r4, #7
 575 000c 3046     		mov	r0, r6
 576 000e FFF7FEFF 		bl	i2c_write_bit
 577              	.LVL43:
 578              		.loc 1 237 0
 579 0012 6400     		lsls	r4, r4, #1
 580              	.LVL44:
 581              		.loc 1 235 0
 582 0014 013D     		subs	r5, r5, #1
 583              	.LVL45:
 584              		.loc 1 237 0
 585 0016 E4B2     		uxtb	r4, r4
 586              	.LVL46:
 587              		.loc 1 235 0
 588 0018 F7D1     		bne	.L60
 589              		.loc 1 240 0
 590 001a 3046     		mov	r0, r6
 591              		.loc 1 247 0
 592 001c BDE87040 		pop	{r4, r5, r6, lr}
 593              		.cfi_remember_state
 594              		.cfi_restore 14
 595              		.cfi_restore 6
 596              		.cfi_restore 5
 597              		.cfi_restore 4
 598              		.cfi_def_cfa_offset 0
 599              	.LVL47:
 600              		.loc 1 240 0
 601 0020 FFF7FEBF 		b	i2c_read_bit
 602              	.LVL48:
 603              	.L66:
 604              		.cfi_restore_state
 605              		.loc 1 232 0
 606 0024 FFF7FEFF 		bl	i2c_start_cond
 607              	.LVL49:
 608 0028 EEE7     		b	.L59
 609              		.cfi_endproc
 610              	.LFE271:
 611              		.size	i2c_write_byte.constprop.3, .-i2c_write_byte.constprop.3
 612 002a 00BF     		.section	.text.i2c_bb_init,"ax",%progbits
 613              		.align	1
 614              		.p2align 4,,15
 615              		.global	i2c_bb_init
 616              		.syntax unified
 617              		.thumb
 618              		.thumb_func
 619              		.fpu fpv4-sp-d16
 620              		.type	i2c_bb_init, %function
 621              	i2c_bb_init:
 622              	.LFB256:
 623              		.loc 1 43 0
 624              		.cfi_startproc
 625              		@ args = 0, pretend = 0, frame = 0
 626              		@ frame_needed = 0, uses_anonymous_args = 0
 627              	.LVL50:
ARM GAS  /tmp/cc3dYOAw.s 			page 12


 628 0000 38B5     		push	{r3, r4, r5, lr}
 629              		.cfi_def_cfa_offset 16
 630              		.cfi_offset 3, -16
 631              		.cfi_offset 4, -12
 632              		.cfi_offset 5, -8
 633              		.cfi_offset 14, -4
 634              		.loc 1 43 0
 635 0002 0446     		mov	r4, r0
 636              		.loc 1 44 0
 637 0004 1430     		adds	r0, r0, #20
 638              	.LVL51:
 639 0006 FFF7FEFF 		bl	chMtxObjectInit
 640              	.LVL52:
 641              		.loc 1 45 0
 642 000a D4E90001 		ldrd	r0, r1, [r4]
 643 000e 0125     		movs	r5, #1
 644 0010 05FA01F1 		lsl	r1, r5, r1
 645 0014 0522     		movs	r2, #5
 646 0016 FFF7FEFF 		bl	_pal_lld_setgroupmode
 647              	.LVL53:
 648              		.loc 1 46 0
 649 001a D4E90201 		ldrd	r0, r1, [r4, #8]
 650 001e 0522     		movs	r2, #5
 651 0020 05FA01F1 		lsl	r1, r5, r1
 652 0024 FFF7FEFF 		bl	_pal_lld_setgroupmode
 653              	.LVL54:
 654              		.loc 1 48 0
 655 0028 0023     		movs	r3, #0
 656 002a 2374     		strb	r3, [r4, #16]
 657              		.loc 1 49 0
 658 002c 6374     		strb	r3, [r4, #17]
 659              		.loc 1 50 0
 660 002e 38BD     		pop	{r3, r4, r5, pc}
 661              		.cfi_endproc
 662              	.LFE256:
 663              		.size	i2c_bb_init, .-i2c_bb_init
 664              		.section	.text.i2c_bb_restore_bus,"ax",%progbits
 665              		.align	1
 666              		.p2align 4,,15
 667              		.global	i2c_bb_restore_bus
 668              		.syntax unified
 669              		.thumb
 670              		.thumb_func
 671              		.fpu fpv4-sp-d16
 672              		.type	i2c_bb_restore_bus, %function
 673              	i2c_bb_restore_bus:
 674              	.LFB257:
 675              		.loc 1 52 0
 676              		.cfi_startproc
 677              		@ args = 0, pretend = 0, frame = 0
 678              		@ frame_needed = 0, uses_anonymous_args = 0
 679              	.LVL55:
 680 0000 F8B5     		push	{r3, r4, r5, r6, r7, lr}
 681              		.cfi_def_cfa_offset 24
 682              		.cfi_offset 3, -24
 683              		.cfi_offset 4, -20
 684              		.cfi_offset 5, -16
ARM GAS  /tmp/cc3dYOAw.s 			page 13


 685              		.cfi_offset 6, -12
 686              		.cfi_offset 7, -8
 687              		.cfi_offset 14, -4
 688              		.loc 1 52 0
 689 0002 0746     		mov	r7, r0
 690              		.loc 1 53 0
 691 0004 00F11406 		add	r6, r0, #20
 692 0008 3046     		mov	r0, r6
 693              	.LVL56:
 694 000a FFF7FEFF 		bl	chMtxLock
 695              	.LVL57:
 696              		.loc 1 55 0
 697 000e FA68     		ldr	r2, [r7, #12]
 698              	.LBB105:
 699              	.LBB106:
 700              		.loc 1 281 0
 701 0010 9FED1C0A 		vldr.32	s0, .L73
 702              	.LBE106:
 703              	.LBE105:
 704              		.loc 1 55 0
 705 0014 D7E90131 		ldrd	r3, r1, [r7, #4]
 706 0018 0125     		movs	r5, #1
 707 001a 05FA02F2 		lsl	r2, r5, r2
 708 001e 92B2     		uxth	r2, r2
 709 0020 0A83     		strh	r2, [r1, #24]	@ movhi
 710              		.loc 1 56 0
 711 0022 05FA03F3 		lsl	r3, r5, r3
 712 0026 3A68     		ldr	r2, [r7]
 713 0028 9BB2     		uxth	r3, r3
 714 002a 1383     		strh	r3, [r2, #24]	@ movhi
 715              	.LBB108:
 716              	.LBB107:
 717              		.loc 1 281 0
 718 002c FFF7FEFF 		bl	timer_sleep
 719              	.LVL58:
 720              	.LBE107:
 721              	.LBE108:
 722              		.loc 1 60 0
 723 0030 2846     		mov	r0, r5
 724 0032 FFF7FEFF 		bl	chThdSleep
 725              	.LVL59:
 726 0036 1024     		movs	r4, #16
 727              	.LVL60:
 728              	.L70:
 729              	.LBB109:
 730              		.loc 1 63 0 discriminator 3
 731 0038 D7E90223 		ldrd	r2, r3, [r7, #8]
 732 003c 05FA03F3 		lsl	r3, r5, r3
 733 0040 9BB2     		uxth	r3, r3
 734 0042 5383     		strh	r3, [r2, #26]	@ movhi
 735              		.loc 1 64 0 discriminator 3
 736 0044 0120     		movs	r0, #1
 737 0046 FFF7FEFF 		bl	chThdSleep
 738              	.LVL61:
 739              		.loc 1 65 0 discriminator 3
 740 004a D7E90223 		ldrd	r2, r3, [r7, #8]
 741 004e 05FA03F3 		lsl	r3, r5, r3
ARM GAS  /tmp/cc3dYOAw.s 			page 14


 742 0052 9BB2     		uxth	r3, r3
 743 0054 1383     		strh	r3, [r2, #24]	@ movhi
 744              		.loc 1 66 0 discriminator 3
 745 0056 0120     		movs	r0, #1
 746 0058 FFF7FEFF 		bl	chThdSleep
 747              	.LVL62:
 748              		.loc 1 62 0 discriminator 3
 749 005c 013C     		subs	r4, r4, #1
 750              	.LVL63:
 751 005e EBD1     		bne	.L70
 752              	.LBE109:
 753              	.LBB110:
 754              	.LBB111:
 755              		.loc 1 281 0
 756 0060 9FED080A 		vldr.32	s0, .L73
 757 0064 FFF7FEFF 		bl	timer_sleep
 758              	.LVL64:
 759              	.LBE111:
 760              	.LBE110:
 761              		.loc 1 74 0
 762 0068 3846     		mov	r0, r7
 763              		.loc 1 72 0
 764 006a 3C74     		strb	r4, [r7, #16]
 765              		.loc 1 74 0
 766 006c FFF7FEFF 		bl	i2c_start_cond
 767              	.LVL65:
 768              		.loc 1 75 0
 769 0070 3846     		mov	r0, r7
 770 0072 FFF7FEFF 		bl	i2c_stop_cond
 771              	.LVL66:
 772              		.loc 1 77 0
 773 0076 7C74     		strb	r4, [r7, #17]
 774              		.loc 1 79 0
 775 0078 3046     		mov	r0, r6
 776              		.loc 1 80 0
 777 007a BDE8F840 		pop	{r3, r4, r5, r6, r7, lr}
 778              		.cfi_restore 14
 779              		.cfi_restore 7
 780              		.cfi_restore 6
 781              		.cfi_restore 5
 782              		.cfi_restore 4
 783              		.cfi_restore 3
 784              		.cfi_def_cfa_offset 0
 785              	.LVL67:
 786              		.loc 1 79 0
 787 007e FFF7FEBF 		b	chMtxUnlock
 788              	.LVL68:
 789              	.L74:
 790 0082 00BF     		.align	2
 791              	.L73:
 792 0084 BD370635 		.word	889599933
 793              		.cfi_endproc
 794              	.LFE257:
 795              		.size	i2c_bb_restore_bus, .-i2c_bb_restore_bus
 796              		.section	.text.i2c_bb_tx_rx,"ax",%progbits
 797              		.align	1
 798              		.p2align 4,,15
ARM GAS  /tmp/cc3dYOAw.s 			page 15


 799              		.global	i2c_bb_tx_rx
 800              		.syntax unified
 801              		.thumb
 802              		.thumb_func
 803              		.fpu fpv4-sp-d16
 804              		.type	i2c_bb_tx_rx, %function
 805              	i2c_bb_tx_rx:
 806              	.LFB258:
 807              		.loc 1 82 0
 808              		.cfi_startproc
 809              		@ args = 8, pretend = 0, frame = 0
 810              		@ frame_needed = 0, uses_anonymous_args = 0
 811              	.LVL69:
 812 0000 2DE9F84F 		push	{r3, r4, r5, r6, r7, r8, r9, r10, fp, lr}
 813              		.cfi_def_cfa_offset 40
 814              		.cfi_offset 3, -40
 815              		.cfi_offset 4, -36
 816              		.cfi_offset 5, -32
 817              		.cfi_offset 6, -28
 818              		.cfi_offset 7, -24
 819              		.cfi_offset 8, -20
 820              		.cfi_offset 9, -16
 821              		.cfi_offset 10, -12
 822              		.cfi_offset 11, -8
 823              		.cfi_offset 14, -4
 824              		.loc 1 84 0
 825 0004 00F11409 		add	r9, r0, #20
 826              		.loc 1 86 0
 827 0008 4FEA4108 		lsl	r8, r1, #1
 828              		.loc 1 82 0
 829 000c 0446     		mov	r4, r0
 830              	.LVL70:
 831              		.loc 1 84 0
 832 000e 4846     		mov	r0, r9
 833              	.LVL71:
 834              		.loc 1 82 0
 835 0010 1546     		mov	r5, r2
 836 0012 1E46     		mov	r6, r3
 837              		.loc 1 84 0
 838 0014 FFF7FEFF 		bl	chMtxLock
 839              	.LVL72:
 840              		.loc 1 86 0
 841 0018 08F0FE02 		and	r2, r8, #254
 842 001c 2046     		mov	r0, r4
 843 001e 0121     		movs	r1, #1
 844 0020 FFF7FEFF 		bl	i2c_write_byte.constprop.3
 845              	.LVL73:
 846              	.LBB116:
 847              		.loc 1 90 0
 848 0024 4EB1     		cbz	r6, .L76
 849 0026 013D     		subs	r5, r5, #1
 850              	.LVL74:
 851 0028 2E44     		add	r6, r6, r5
 852              	.LVL75:
 853              	.L77:
 854              		.loc 1 91 0 discriminator 3
 855 002a 15F8012F 		ldrb	r2, [r5, #1]!	@ zero_extendqisi2
ARM GAS  /tmp/cc3dYOAw.s 			page 16


 856              	.LVL76:
 857 002e 0021     		movs	r1, #0
 858 0030 2046     		mov	r0, r4
 859 0032 FFF7FEFF 		bl	i2c_write_byte.constprop.3
 860              	.LVL77:
 861              		.loc 1 90 0 discriminator 3
 862 0036 B542     		cmp	r5, r6
 863 0038 F7D1     		bne	.L77
 864              	.LVL78:
 865              	.L76:
 866              	.LBE116:
 867              		.loc 1 95 0
 868 003a 0B9B     		ldr	r3, [sp, #44]
 869 003c 53B9     		cbnz	r3, .L91
 870              	.L78:
 871              		.loc 1 104 0
 872 003e 2046     		mov	r0, r4
 873 0040 FFF7FEFF 		bl	i2c_stop_cond
 874              	.LVL79:
 875              		.loc 1 106 0
 876 0044 4846     		mov	r0, r9
 877 0046 FFF7FEFF 		bl	chMtxUnlock
 878              	.LVL80:
 879              		.loc 1 111 0
 880 004a 607C     		ldrb	r0, [r4, #17]	@ zero_extendqisi2
 881              		.loc 1 112 0
 882 004c 80F00100 		eor	r0, r0, #1
 883 0050 BDE8F88F 		pop	{r3, r4, r5, r6, r7, r8, r9, r10, fp, pc}
 884              	.LVL81:
 885              	.L91:
 886              		.loc 1 96 0
 887 0054 48F00102 		orr	r2, r8, #1
 888 0058 D2B2     		uxtb	r2, r2
 889 005a 0121     		movs	r1, #1
 890 005c 2046     		mov	r0, r4
 891 005e FFF7FEFF 		bl	i2c_write_byte.constprop.3
 892              	.LVL82:
 893 0062 0B9B     		ldr	r3, [sp, #44]
 894 0064 03F1FF3A 		add	r10, r3, #-1
 895 0068 0A9B     		ldr	r3, [sp, #40]
 896              	.LBB117:
 897              		.loc 1 99 0
 898 006a 0025     		movs	r5, #0
 899 006c 5E1E     		subs	r6, r3, #1
 900              	.LVL83:
 901              	.L80:
 902              		.loc 1 100 0 discriminator 3
 903 006e AAEB0508 		sub	r8, r10, r5
 904 0072 B8FA88F8 		clz	r8, r8
 905 0076 4FEA5818 		lsr	r8, r8, #5
 906              	.LVL84:
 907 007a 4FF0080B 		mov	fp, #8
 908              	.LBB118:
 909              	.LBB119:
 910              		.loc 1 250 0 discriminator 3
 911 007e 0027     		movs	r7, #0
 912              	.LVL85:
ARM GAS  /tmp/cc3dYOAw.s 			page 17


 913              	.L79:
 914              		.loc 1 254 0
 915 0080 2046     		mov	r0, r4
 916 0082 FFF7FEFF 		bl	i2c_read_bit
 917              	.LVL86:
 918 0086 0BF1FF33 		add	r3, fp, #-1
 919 008a 40EA4707 		orr	r7, r0, r7, lsl #1
 920              	.LVL87:
 921              		.loc 1 253 0
 922 008e 13F0FF0B 		ands	fp, r3, #255
 923              	.LVL88:
 924              		.loc 1 254 0
 925 0092 FFB2     		uxtb	r7, r7
 926              	.LVL89:
 927              		.loc 1 253 0
 928 0094 F4D1     		bne	.L79
 929              		.loc 1 257 0
 930 0096 4146     		mov	r1, r8
 931 0098 2046     		mov	r0, r4
 932 009a FFF7FEFF 		bl	i2c_write_bit
 933              	.LVL90:
 934              	.LBE119:
 935              	.LBE118:
 936              		.loc 1 99 0
 937 009e 0B9B     		ldr	r3, [sp, #44]
 938              		.loc 1 100 0
 939 00a0 06F8017F 		strb	r7, [r6, #1]!
 940              		.loc 1 99 0
 941 00a4 0135     		adds	r5, r5, #1
 942              	.LVL91:
 943 00a6 AB42     		cmp	r3, r5
 944 00a8 E1D1     		bne	.L80
 945 00aa C8E7     		b	.L78
 946              	.LBE117:
 947              		.cfi_endproc
 948              	.LFE258:
 949              		.size	i2c_bb_tx_rx, .-i2c_bb_tx_rx
 950              		.text
 951              	.Letext0:
 952              		.file 2 "/usr/lib/gcc/arm-none-eabi/7.3.1/include/stddef.h"
 953              		.file 3 "/usr/arm-none-eabi/include/machine/_default_types.h"
 954              		.file 4 "/usr/arm-none-eabi/include/sys/_stdint.h"
 955              		.file 5 "ChibiOS_3.0.2/os/rt/ports/ARMCMx/compilers/GCC/chtypes.h"
 956              		.file 6 "ChibiOS_3.0.2/os/rt/include/chsystypes.h"
 957              		.file 7 "ChibiOS_3.0.2/os/rt/include/chschd.h"
 958              		.file 8 "ChibiOS_3.0.2/os/ext/CMSIS/include/core_cm4.h"
 959              		.file 9 "ChibiOS_3.0.2/os/ext/CMSIS/ST/system_stm32f4xx.h"
 960              		.file 10 "ChibiOS_3.0.2/os/ext/CMSIS/ST/stm32f407xx.h"
 961              		.file 11 "ChibiOS_3.0.2/os/rt/ports/ARMCMx/chcore.h"
 962              		.file 12 "ChibiOS_3.0.2/os/rt/ports/ARMCMx/chcore_v7m.h"
 963              		.file 13 "ChibiOS_3.0.2/os/rt/include/chtm.h"
 964              		.file 14 "ChibiOS_3.0.2/os/rt/include/chsem.h"
 965              		.file 15 "ChibiOS_3.0.2/os/rt/include/chmtx.h"
 966              		.file 16 "ChibiOS_3.0.2/os/rt/include/chregistry.h"
 967              		.file 17 "ChibiOS_3.0.2/os/rt/include/chevents.h"
 968              		.file 18 "ChibiOS_3.0.2/os/rt/include/chqueues.h"
 969              		.file 19 "./conf_general.h"
ARM GAS  /tmp/cc3dYOAw.s 			page 18


 970              		.file 20 "ChibiOS_3.0.2/os/hal/ports/STM32/STM32F4xx/stm32_dma.h"
 971              		.file 21 "ChibiOS_3.0.2/os/hal/ports/STM32/LLD/GPIOv2/pal_lld.h"
 972              		.file 22 "ChibiOS_3.0.2/os/hal/include/can.h"
 973              		.file 23 "ChibiOS_3.0.2/os/hal/ports/STM32/LLD/can_lld.h"
 974              		.file 24 "ChibiOS_3.0.2/os/hal/include/i2c.h"
 975              		.file 25 "ChibiOS_3.0.2/os/hal/ports/STM32/LLD/I2Cv1/i2c_lld.h"
 976              		.file 26 "ChibiOS_3.0.2/os/hal/include/icu.h"
 977              		.file 27 "ChibiOS_3.0.2/os/hal/ports/STM32/LLD/TIMv1/icu_lld.h"
 978              		.file 28 "ChibiOS_3.0.2/os/hal/ports/STM32/LLD/TIMv1/stm32_tim.h"
 979              		.file 29 "ChibiOS_3.0.2/os/hal/include/serial.h"
 980              		.file 30 "ChibiOS_3.0.2/os/hal/ports/STM32/LLD/USARTv1/serial_lld.h"
 981              		.file 31 "ChibiOS_3.0.2/os/hal/include/spi.h"
 982              		.file 32 "ChibiOS_3.0.2/os/hal/ports/STM32/LLD/SPIv1/spi_lld.h"
 983              		.file 33 "ChibiOS_3.0.2/os/hal/include/usb.h"
 984              		.file 34 "ChibiOS_3.0.2/os/hal/ports/STM32/LLD/OTGv1/usb_lld.h"
 985              		.file 35 "ChibiOS_3.0.2/os/hal/ports/STM32/LLD/OTGv1/stm32_otg.h"
 986              		.file 36 "i2c_bb.h"
 987              		.file 37 "timer.h"
 988              		.file 38 "ChibiOS_3.0.2/os/rt/include/chthreads.h"