ARM GAS  /tmp/ccqiIiHp.s 			page 1


   1              		.cpu cortex-m4
   2              		.eabi_attribute 27, 1
   3              		.eabi_attribute 28, 1
   4              		.eabi_attribute 20, 1
   5              		.eabi_attribute 21, 1
   6              		.eabi_attribute 23, 3
   7              		.eabi_attribute 24, 1
   8              		.eabi_attribute 25, 1
   9              		.eabi_attribute 26, 1
  10              		.eabi_attribute 30, 2
  11              		.eabi_attribute 34, 1
  12              		.eabi_attribute 18, 4
  13              		.file	"app_uartcomm.c"
  14              		.text
  15              	.Ltext0:
  16              		.cfi_sections	.debug_frame
  17              		.section	.text.packet_process_thread,"ax",%progbits
  18              		.align	1
  19              		.p2align 4,,15
  20              		.syntax unified
  21              		.thumb
  22              		.thumb_func
  23              		.fpu fpv4-sp-d16
  24              		.type	packet_process_thread, %function
  25              	packet_process_thread:
  26              	.LFB263:
  27              		.file 1 "applications/app_uartcomm.c"
  28              		.loc 1 177 0
  29              		.cfi_startproc
  30              		@ args = 0, pretend = 0, frame = 24
  31              		@ frame_needed = 0, uses_anonymous_args = 0
  32              	.LVL0:
  33 0000 30B5     		push	{r4, r5, lr}
  34              		.cfi_def_cfa_offset 12
  35              		.cfi_offset 4, -12
  36              		.cfi_offset 5, -8
  37              		.cfi_offset 14, -4
  38              	.LBB6:
  39              	.LBB7:
  40              		.file 2 "ChibiOS_3.0.2/os/rt/include/chregistry.h"
  41              		.loc 2 135 0
  42 0002 124B     		ldr	r3, .L12
  43 0004 124A     		ldr	r2, .L12+4
  44 0006 9B69     		ldr	r3, [r3, #24]
  45              	.LBE7:
  46              	.LBE6:
  47              		.loc 1 183 0
  48 0008 1248     		ldr	r0, .L12+8
  49              	.LVL1:
  50              	.LBB9:
  51              	.LBB8:
  52              		.loc 2 135 0
  53 000a 9A61     		str	r2, [r3, #24]
  54              	.LVL2:
  55              	.LBE8:
  56              	.LBE9:
  57              		.loc 1 177 0
ARM GAS  /tmp/ccqiIiHp.s 			page 2


  58 000c 87B0     		sub	sp, sp, #28
  59              		.cfi_def_cfa_offset 40
  60              		.loc 1 183 0
  61 000e 0423     		movs	r3, #4
  62 0010 0122     		movs	r2, #1
  63 0012 0DEB0301 		add	r1, sp, r3
  64 0016 FFF7FEFF 		bl	chEvtRegisterMaskWithFlags
  65              	.LVL3:
  66 001a 0F4C     		ldr	r4, .L12+12
  67              	.LBB10:
  68              	.LBB11:
  69              		.loc 1 198 0
  70 001c 0F4D     		ldr	r5, .L12+16
  71              	.L3:
  72              	.LBE11:
  73              		.loc 1 191 0
  74 001e 4FF0FF30 		mov	r0, #-1
  75 0022 FFF7FEFF 		bl	chEvtWaitAny
  76              	.LVL4:
  77              		.loc 1 197 0
  78 0026 2378     		ldrb	r3, [r4]	@ zero_extendqisi2
  79 0028 002B     		cmp	r3, #0
  80 002a F8D0     		beq	.L3
  81              	.L2:
  82              	.LBB12:
  83              		.loc 1 198 0
  84 002c 0021     		movs	r1, #0
  85 002e 2846     		mov	r0, r5
  86 0030 FFF7FEFF 		bl	chIQGetTimeout
  87              	.LVL5:
  88 0034 0346     		mov	r3, r0
  89              	.LVL6:
  90              		.loc 1 199 0
  91 0036 0133     		adds	r3, r3, #1
  92              		.loc 1 203 0
  93 0038 4FF00101 		mov	r1, #1
  94 003c C0B2     		uxtb	r0, r0
  95              	.LVL7:
  96              		.loc 1 199 0
  97 003e EED0     		beq	.L3
  98              		.loc 1 203 0
  99 0040 FFF7FEFF 		bl	packet_process_byte
 100              	.LVL8:
 101              	.LBE12:
 102              		.loc 1 197 0
 103 0044 2378     		ldrb	r3, [r4]	@ zero_extendqisi2
 104 0046 002B     		cmp	r3, #0
 105 0048 E9D0     		beq	.L3
 106 004a EFE7     		b	.L2
 107              	.L13:
 108              		.align	2
 109              	.L12:
 110 004c 00000000 		.word	ch
 111 0050 00000000 		.word	.LC0
 112 0054 04000000 		.word	SD3+4
 113 0058 00000000 		.word	.LANCHOR0
 114 005c 0C000000 		.word	SD3+12
ARM GAS  /tmp/ccqiIiHp.s 			page 3


 115              	.LBE10:
 116              		.cfi_endproc
 117              	.LFE263:
 118              		.size	packet_process_thread, .-packet_process_thread
 119              		.section	.text.process_packet,"ax",%progbits
 120              		.align	1
 121              		.p2align 4,,15
 122              		.syntax unified
 123              		.thumb
 124              		.thumb_func
 125              		.fpu fpv4-sp-d16
 126              		.type	process_packet, %function
 127              	process_packet:
 128              	.LFB256:
 129              		.loc 1 66 0
 130              		.cfi_startproc
 131              		@ args = 0, pretend = 0, frame = 0
 132              		@ frame_needed = 0, uses_anonymous_args = 0
 133              		@ link register save eliminated.
 134              	.LVL9:
 135              		.loc 1 67 0
 136 0000 014A     		ldr	r2, .L15
 137 0002 FFF7FEBF 		b	commands_process_packet
 138              	.LVL10:
 139              	.L16:
 140 0006 00BF     		.align	2
 141              	.L15:
 142 0008 00000000 		.word	app_uartcomm_send_packet
 143              		.cfi_endproc
 144              	.LFE256:
 145              		.size	process_packet, .-process_packet
 146              		.section	.text.app_uartcomm_send_packet,"ax",%progbits
 147              		.align	1
 148              		.p2align 4,,15
 149              		.global	app_uartcomm_send_packet
 150              		.syntax unified
 151              		.thumb
 152              		.thumb_func
 153              		.fpu fpv4-sp-d16
 154              		.type	app_uartcomm_send_packet, %function
 155              	app_uartcomm_send_packet:
 156              	.LFB261:
 157              		.loc 1 142 0
 158              		.cfi_startproc
 159              		@ args = 0, pretend = 0, frame = 0
 160              		@ frame_needed = 0, uses_anonymous_args = 0
 161              	.LVL11:
 162 0000 70B5     		push	{r4, r5, r6, lr}
 163              		.cfi_def_cfa_offset 16
 164              		.cfi_offset 4, -16
 165              		.cfi_offset 5, -12
 166              		.cfi_offset 6, -8
 167              		.cfi_offset 14, -4
 168              		.loc 1 143 0
 169 0002 0B4C     		ldr	r4, .L20
 170 0004 2378     		ldrb	r3, [r4]	@ zero_extendqisi2
 171              		.loc 1 142 0
ARM GAS  /tmp/ccqiIiHp.s 			page 4


 172 0006 0546     		mov	r5, r0
 173 0008 0E46     		mov	r6, r1
 174              		.loc 1 143 0
 175 000a 23B9     		cbnz	r3, .L18
 176              		.loc 1 144 0
 177 000c 0948     		ldr	r0, .L20+4
 178              	.LVL12:
 179 000e FFF7FEFF 		bl	chMtxObjectInit
 180              	.LVL13:
 181              		.loc 1 145 0
 182 0012 0123     		movs	r3, #1
 183 0014 2370     		strb	r3, [r4]
 184              	.L18:
 185              		.loc 1 148 0
 186 0016 0748     		ldr	r0, .L20+4
 187 0018 FFF7FEFF 		bl	chMtxLock
 188              	.LVL14:
 189              		.loc 1 149 0
 190 001c 2846     		mov	r0, r5
 191 001e 3146     		mov	r1, r6
 192 0020 0122     		movs	r2, #1
 193 0022 FFF7FEFF 		bl	packet_send_packet
 194              	.LVL15:
 195              		.loc 1 150 0
 196 0026 0348     		ldr	r0, .L20+4
 197              		.loc 1 151 0
 198 0028 BDE87040 		pop	{r4, r5, r6, lr}
 199              		.cfi_restore 14
 200              		.cfi_restore 6
 201              		.cfi_restore 5
 202              		.cfi_restore 4
 203              		.cfi_def_cfa_offset 0
 204              	.LVL16:
 205              		.loc 1 150 0
 206 002c FFF7FEBF 		b	chMtxUnlock
 207              	.LVL17:
 208              	.L21:
 209              		.align	2
 210              	.L20:
 211 0030 00000000 		.word	.LANCHOR1
 212 0034 00000000 		.word	.LANCHOR2
 213              		.cfi_endproc
 214              	.LFE261:
 215              		.size	app_uartcomm_send_packet, .-app_uartcomm_send_packet
 216              		.section	.text.send_packet,"ax",%progbits
 217              		.align	1
 218              		.p2align 4,,15
 219              		.syntax unified
 220              		.thumb
 221              		.thumb_func
 222              		.fpu fpv4-sp-d16
 223              		.type	send_packet, %function
 224              	send_packet:
 225              	.LFB257:
 226              		.loc 1 70 0
 227              		.cfi_startproc
 228              		@ args = 0, pretend = 0, frame = 0
ARM GAS  /tmp/ccqiIiHp.s 			page 5


 229              		@ frame_needed = 0, uses_anonymous_args = 0
 230              		@ link register save eliminated.
 231              	.LVL18:
 232              		.loc 1 82 0
 233 0000 054B     		ldr	r3, .L25
 234 0002 1B78     		ldrb	r3, [r3]	@ zero_extendqisi2
 235 0004 03B9     		cbnz	r3, .L24
 236              		.loc 1 86 0
 237 0006 7047     		bx	lr
 238              	.L24:
 239              	.LVL19:
 240              	.LBB15:
 241              	.LBB16:
 242              		.loc 1 83 0
 243 0008 0A46     		mov	r2, r1
 244 000a 4FF0FF33 		mov	r3, #-1
 245 000e 0146     		mov	r1, r0
 246              	.LVL20:
 247 0010 0248     		ldr	r0, .L25+4
 248              	.LVL21:
 249 0012 FFF7FEBF 		b	chOQWriteTimeout
 250              	.LVL22:
 251              	.L26:
 252 0016 00BF     		.align	2
 253              	.L25:
 254 0018 00000000 		.word	.LANCHOR0
 255 001c 30000000 		.word	SD3+48
 256              	.LBE16:
 257              	.LBE15:
 258              		.cfi_endproc
 259              	.LFE257:
 260              		.size	send_packet, .-send_packet
 261              		.section	.text.app_uartcomm_start,"ax",%progbits
 262              		.align	1
 263              		.p2align 4,,15
 264              		.global	app_uartcomm_start
 265              		.syntax unified
 266              		.thumb
 267              		.thumb_func
 268              		.fpu fpv4-sp-d16
 269              		.type	app_uartcomm_start, %function
 270              	app_uartcomm_start:
 271              	.LFB258:
 272              		.loc 1 88 0
 273              		.cfi_startproc
 274              		@ args = 0, pretend = 0, frame = 0
 275              		@ frame_needed = 0, uses_anonymous_args = 0
 276 0000 10B5     		push	{r4, lr}
 277              		.cfi_def_cfa_offset 8
 278              		.cfi_offset 4, -8
 279              		.cfi_offset 14, -4
 280              		.loc 1 91 0
 281 0002 164C     		ldr	r4, .L30
 282              		.loc 1 89 0
 283 0004 1649     		ldr	r1, .L30+4
 284 0006 1748     		ldr	r0, .L30+8
 285              		.loc 1 88 0
ARM GAS  /tmp/ccqiIiHp.s 			page 6


 286 0008 82B0     		sub	sp, sp, #8
 287              		.cfi_def_cfa_offset 16
 288              		.loc 1 89 0
 289 000a 0122     		movs	r2, #1
 290 000c FFF7FEFF 		bl	packet_init
 291              	.LVL23:
 292              		.loc 1 91 0
 293 0010 2378     		ldrb	r3, [r4]	@ zero_extendqisi2
 294 0012 5BB9     		cbnz	r3, .L28
 295 0014 03F0FF02 		and	r2, r3, #255
 296              		.loc 1 92 0
 297 0018 0092     		str	r2, [sp]
 298 001a 134B     		ldr	r3, .L30+12
 299 001c 1348     		ldr	r0, .L30+16
 300 001e 4022     		movs	r2, #64
 301 0020 41F29811 		movw	r1, #4504
 302 0024 FFF7FEFF 		bl	chThdCreateStatic
 303              	.LVL24:
 304              		.loc 1 94 0
 305 0028 0123     		movs	r3, #1
 306 002a 2370     		strb	r3, [r4]
 307              	.L28:
 308              		.loc 1 97 0
 309 002c 1049     		ldr	r1, .L30+20
 310 002e 1148     		ldr	r0, .L30+24
 311 0030 FFF7FEFF 		bl	sdStart
 312              	.LVL25:
 313              		.loc 1 98 0
 314 0034 40F2BA32 		movw	r2, #954
 315 0038 4FF48061 		mov	r1, #1024
 316 003c 0E48     		ldr	r0, .L30+28
 317 003e FFF7FEFF 		bl	_pal_lld_setgroupmode
 318              	.LVL26:
 319              		.loc 1 101 0
 320 0042 40F2BA32 		movw	r2, #954
 321 0046 4FF40061 		mov	r1, #2048
 322 004a 0B48     		ldr	r0, .L30+28
 323 004c FFF7FEFF 		bl	_pal_lld_setgroupmode
 324              	.LVL27:
 325              		.loc 1 105 0
 326 0050 0A4B     		ldr	r3, .L30+32
 327 0052 0122     		movs	r2, #1
 328 0054 1A70     		strb	r2, [r3]
 329              		.loc 1 106 0
 330 0056 02B0     		add	sp, sp, #8
 331              		.cfi_def_cfa_offset 8
 332              		@ sp needed
 333 0058 10BD     		pop	{r4, pc}
 334              	.L31:
 335 005a 00BF     		.align	2
 336              	.L30:
 337 005c 00000000 		.word	.LANCHOR3
 338 0060 00000000 		.word	process_packet
 339 0064 00000000 		.word	send_packet
 340 0068 00000000 		.word	packet_process_thread
 341 006c 00000000 		.word	packet_process_thread_wa
 342 0070 00000000 		.word	.LANCHOR4
ARM GAS  /tmp/ccqiIiHp.s 			page 7


 343 0074 00000000 		.word	SD3
 344 0078 00040240 		.word	1073873920
 345 007c 00000000 		.word	.LANCHOR0
 346              		.cfi_endproc
 347              	.LFE258:
 348              		.size	app_uartcomm_start, .-app_uartcomm_start
 349              		.section	.text.app_uartcomm_start_permanent,"ax",%progbits
 350              		.align	1
 351              		.p2align 4,,15
 352              		.global	app_uartcomm_start_permanent
 353              		.syntax unified
 354              		.thumb
 355              		.thumb_func
 356              		.fpu fpv4-sp-d16
 357              		.type	app_uartcomm_start_permanent, %function
 358              	app_uartcomm_start_permanent:
 359              	.LFB259:
 360              		.loc 1 108 0
 361              		.cfi_startproc
 362              		@ args = 0, pretend = 0, frame = 0
 363              		@ frame_needed = 0, uses_anonymous_args = 0
 364              		@ link register save eliminated.
 365              		.loc 1 129 0
 366 0000 7047     		bx	lr
 367              		.cfi_endproc
 368              	.LFE259:
 369              		.size	app_uartcomm_start_permanent, .-app_uartcomm_start_permanent
 370 0002 00BF     		.section	.text.app_uartcomm_stop,"ax",%progbits
 371              		.align	1
 372              		.p2align 4,,15
 373              		.global	app_uartcomm_stop
 374              		.syntax unified
 375              		.thumb
 376              		.thumb_func
 377              		.fpu fpv4-sp-d16
 378              		.type	app_uartcomm_stop, %function
 379              	app_uartcomm_stop:
 380              	.LFB260:
 381              		.loc 1 131 0
 382              		.cfi_startproc
 383              		@ args = 0, pretend = 0, frame = 0
 384              		@ frame_needed = 0, uses_anonymous_args = 0
 385 0000 10B5     		push	{r4, lr}
 386              		.cfi_def_cfa_offset 8
 387              		.cfi_offset 4, -8
 388              		.cfi_offset 14, -4
 389              		.loc 1 132 0
 390 0002 0B4C     		ldr	r4, .L40
 391 0004 2378     		ldrb	r3, [r4]	@ zero_extendqisi2
 392 0006 03B9     		cbnz	r3, .L39
 393              		.loc 1 140 0
 394 0008 10BD     		pop	{r4, pc}
 395              	.L39:
 396              		.loc 1 133 0
 397 000a 0A48     		ldr	r0, .L40+4
 398 000c FFF7FEFF 		bl	sdStop
 399              	.LVL28:
ARM GAS  /tmp/ccqiIiHp.s 			page 8


 400              		.loc 1 134 0
 401 0010 2022     		movs	r2, #32
 402 0012 4FF48061 		mov	r1, #1024
 403 0016 0848     		ldr	r0, .L40+8
 404 0018 FFF7FEFF 		bl	_pal_lld_setgroupmode
 405              	.LVL29:
 406              		.loc 1 135 0
 407 001c 2022     		movs	r2, #32
 408 001e 4FF40061 		mov	r1, #2048
 409 0022 0548     		ldr	r0, .L40+8
 410 0024 FFF7FEFF 		bl	_pal_lld_setgroupmode
 411              	.LVL30:
 412              		.loc 1 136 0
 413 0028 0023     		movs	r3, #0
 414 002a 2370     		strb	r3, [r4]
 415              		.loc 1 140 0
 416 002c 10BD     		pop	{r4, pc}
 417              	.L41:
 418 002e 00BF     		.align	2
 419              	.L40:
 420 0030 00000000 		.word	.LANCHOR0
 421 0034 00000000 		.word	SD3
 422 0038 00040240 		.word	1073873920
 423              		.cfi_endproc
 424              	.LFE260:
 425              		.size	app_uartcomm_stop, .-app_uartcomm_stop
 426              		.section	.text.app_uartcomm_configure,"ax",%progbits
 427              		.align	1
 428              		.p2align 4,,15
 429              		.global	app_uartcomm_configure
 430              		.syntax unified
 431              		.thumb
 432              		.thumb_func
 433              		.fpu fpv4-sp-d16
 434              		.type	app_uartcomm_configure, %function
 435              	app_uartcomm_configure:
 436              	.LFB262:
 437              		.loc 1 153 0
 438              		.cfi_startproc
 439              		@ args = 0, pretend = 0, frame = 0
 440              		@ frame_needed = 0, uses_anonymous_args = 0
 441              		@ link register save eliminated.
 442              	.LVL31:
 443              		.loc 1 156 0
 444 0000 054B     		ldr	r3, .L51
 445              		.loc 1 154 0
 446 0002 0649     		ldr	r1, .L51+4
 447              	.LVL32:
 448              		.loc 1 156 0
 449 0004 1B78     		ldrb	r3, [r3]	@ zero_extendqisi2
 450              		.loc 1 154 0
 451 0006 0860     		str	r0, [r1]
 452              		.loc 1 156 0
 453 0008 13B1     		cbz	r3, .L42
 454              		.loc 1 156 0 is_stmt 0 discriminator 1
 455 000a 054B     		ldr	r3, .L51+8
 456 000c 1B78     		ldrb	r3, [r3]	@ zero_extendqisi2
ARM GAS  /tmp/ccqiIiHp.s 			page 9


 457 000e 03B9     		cbnz	r3, .L50
 458              	.L42:
 459              		.loc 1 175 0 is_stmt 1
 460 0010 7047     		bx	lr
 461              	.L50:
 462              		.loc 1 157 0
 463 0012 0448     		ldr	r0, .L51+12
 464              	.LVL33:
 465 0014 FFF7FEBF 		b	sdStart
 466              	.LVL34:
 467              	.L52:
 468              		.align	2
 469              	.L51:
 470 0018 00000000 		.word	.LANCHOR3
 471 001c 00000000 		.word	.LANCHOR4
 472 0020 00000000 		.word	.LANCHOR0
 473 0024 00000000 		.word	SD3
 474              		.cfi_endproc
 475              	.LFE262:
 476              		.size	app_uartcomm_configure, .-app_uartcomm_configure
 477              		.section	.bss.packet_process_thread_wa,"aw",%nobits
 478              		.align	3
 479              		.type	packet_process_thread_wa, %object
 480              		.size	packet_process_thread_wa, 4504
 481              	packet_process_thread_wa:
 482 0000 00000000 		.space	4504
 482      00000000 
 482      00000000 
 482      00000000 
 482      00000000 
 483              		.section	.bss.send_mutex,"aw",%nobits
 484              		.align	2
 485              		.set	.LANCHOR2,. + 0
 486              		.type	send_mutex, %object
 487              		.size	send_mutex, 16
 488              	send_mutex:
 489 0000 00000000 		.space	16
 489      00000000 
 489      00000000 
 489      00000000 
 490              		.section	.bss.send_mutex_init_done,"aw",%nobits
 491              		.set	.LANCHOR1,. + 0
 492              		.type	send_mutex_init_done, %object
 493              		.size	send_mutex_init_done, 1
 494              	send_mutex_init_done:
 495 0000 00       		.space	1
 496              		.section	.bss.thread_is_running,"aw",%nobits
 497              		.set	.LANCHOR3,. + 0
 498              		.type	thread_is_running, %object
 499              		.size	thread_is_running, 1
 500              	thread_is_running:
 501 0000 00       		.space	1
 502              		.section	.bss.uart_is_running,"aw",%nobits
 503              		.set	.LANCHOR0,. + 0
 504              		.type	uart_is_running, %object
 505              		.size	uart_is_running, 1
 506              	uart_is_running:
ARM GAS  /tmp/ccqiIiHp.s 			page 10


 507 0000 00       		.space	1
 508              		.section	.data.uart_cfg,"aw",%progbits
 509              		.align	2
 510              		.set	.LANCHOR4,. + 0
 511              		.type	uart_cfg, %object
 512              		.size	uart_cfg, 12
 513              	uart_cfg:
 514 0000 00C20100 		.word	115200
 515 0004 0000     		.short	0
 516 0006 0040     		.short	16384
 517 0008 0000     		.short	0
 518 000a 0000     		.space	2
 519              		.section	.rodata.packet_process_thread.str1.4,"aMS",%progbits,1
 520              		.align	2
 521              	.LC0:
 522 0000 75617274 		.ascii	"uartcomm process\000"
 522      636F6D6D 
 522      2070726F 
 522      63657373 
 522      00
 523              		.text
 524              	.Letext0:
 525              		.file 3 "/usr/arm-none-eabi/include/machine/_default_types.h"
 526              		.file 4 "/usr/arm-none-eabi/include/sys/_stdint.h"
 527              		.file 5 "/usr/lib/gcc/arm-none-eabi/7.3.1/include/stddef.h"
 528              		.file 6 "ChibiOS_3.0.2/os/rt/ports/ARMCMx/compilers/GCC/chtypes.h"
 529              		.file 7 "ChibiOS_3.0.2/os/rt/include/chsystypes.h"
 530              		.file 8 "ChibiOS_3.0.2/os/rt/include/chschd.h"
 531              		.file 9 "ChibiOS_3.0.2/os/ext/CMSIS/include/core_cm4.h"
 532              		.file 10 "ChibiOS_3.0.2/os/ext/CMSIS/ST/system_stm32f4xx.h"
 533              		.file 11 "ChibiOS_3.0.2/os/ext/CMSIS/ST/stm32f407xx.h"
 534              		.file 12 "ChibiOS_3.0.2/os/rt/ports/ARMCMx/chcore.h"
 535              		.file 13 "ChibiOS_3.0.2/os/rt/ports/ARMCMx/chcore_v7m.h"
 536              		.file 14 "ChibiOS_3.0.2/os/rt/include/chtm.h"
 537              		.file 15 "ChibiOS_3.0.2/os/rt/include/chsem.h"
 538              		.file 16 "ChibiOS_3.0.2/os/rt/include/chmtx.h"
 539              		.file 17 "ChibiOS_3.0.2/os/rt/include/chevents.h"
 540              		.file 18 "ChibiOS_3.0.2/os/rt/include/chqueues.h"
 541              		.file 19 "./conf_general.h"
 542              		.file 20 "ChibiOS_3.0.2/os/hal/ports/STM32/STM32F4xx/stm32_dma.h"
 543              		.file 21 "ChibiOS_3.0.2/os/hal/ports/STM32/LLD/GPIOv2/pal_lld.h"
 544              		.file 22 "ChibiOS_3.0.2/os/hal/include/can.h"
 545              		.file 23 "ChibiOS_3.0.2/os/hal/ports/STM32/LLD/can_lld.h"
 546              		.file 24 "ChibiOS_3.0.2/os/hal/include/i2c.h"
 547              		.file 25 "ChibiOS_3.0.2/os/hal/ports/STM32/LLD/I2Cv1/i2c_lld.h"
 548              		.file 26 "ChibiOS_3.0.2/os/hal/include/icu.h"
 549              		.file 27 "ChibiOS_3.0.2/os/hal/ports/STM32/LLD/TIMv1/icu_lld.h"
 550              		.file 28 "ChibiOS_3.0.2/os/hal/ports/STM32/LLD/TIMv1/stm32_tim.h"
 551              		.file 29 "ChibiOS_3.0.2/os/hal/include/serial.h"
 552              		.file 30 "ChibiOS_3.0.2/os/hal/ports/STM32/LLD/USARTv1/serial_lld.h"
 553              		.file 31 "ChibiOS_3.0.2/os/hal/include/spi.h"
 554              		.file 32 "ChibiOS_3.0.2/os/hal/ports/STM32/LLD/SPIv1/spi_lld.h"
 555              		.file 33 "ChibiOS_3.0.2/os/hal/include/usb.h"
 556              		.file 34 "ChibiOS_3.0.2/os/hal/ports/STM32/LLD/OTGv1/usb_lld.h"
 557              		.file 35 "ChibiOS_3.0.2/os/hal/ports/STM32/LLD/OTGv1/stm32_otg.h"
 558              		.file 36 "/usr/arm-none-eabi/include/sys/lock.h"
 559              		.file 37 "/usr/arm-none-eabi/include/sys/_types.h"
ARM GAS  /tmp/ccqiIiHp.s 			page 11


 560              		.file 38 "/usr/arm-none-eabi/include/sys/reent.h"
 561              		.file 39 "./packet.h"
 562              		.file 40 "ChibiOS_3.0.2/os/rt/include/chthreads.h"
 563              		.file 41 "./commands.h"