ARM GAS  /tmp/cceEElat.s 			page 1


   1              		.cpu cortex-m4
   2              		.eabi_attribute 27, 1
   3              		.eabi_attribute 28, 1
   4              		.eabi_attribute 20, 1
   5              		.eabi_attribute 21, 1
   6              		.eabi_attribute 23, 3
   7              		.eabi_attribute 24, 1
   8              		.eabi_attribute 25, 1
   9              		.eabi_attribute 26, 1
  10              		.eabi_attribute 30, 2
  11              		.eabi_attribute 34, 1
  12              		.eabi_attribute 18, 4
  13              		.file	"gpdrive.c"
  14              		.text
  15              	.Ltext0:
  16              		.cfi_sections	.debug_frame
  17              		.section	.text.set_modulation,"ax",%progbits
  18              		.align	1
  19              		.p2align 4,,15
  20              		.syntax unified
  21              		.thumb
  22              		.thumb_func
  23              		.fpu fpv4-sp-d16
  24              		.type	set_modulation, %function
  25              	set_modulation:
  26              	.LFB274:
  27              		.file 1 "gpdrive.c"
  28              		.loc 1 391 0
  29              		.cfi_startproc
  30              		@ args = 0, pretend = 0, frame = 8
  31              		@ frame_needed = 0, uses_anonymous_args = 0
  32              	.LVL0:
  33 0000 30B5     		push	{r4, r5, lr}
  34              		.cfi_def_cfa_offset 12
  35              		.cfi_offset 4, -12
  36              		.cfi_offset 5, -8
  37              		.cfi_offset 14, -4
  38              		.loc 1 392 0
  39 0002 534C     		ldr	r4, .L16
  40 0004 2368     		ldr	r3, [r4]
  41              		.loc 1 391 0
  42 0006 83B0     		sub	sp, sp, #12
  43              		.cfi_def_cfa_offset 24
  44              		.loc 1 392 0
  45 0008 D3ED167A 		vldr.32	s15, [r3, #88]
  46              		.loc 1 391 0
  47 000c 02A8     		add	r0, sp, #8
  48 000e 20ED010A 		vstmdb.32	r0!, {s0}
  49              		.loc 1 392 0
  50 0012 B0EE670A 		vmov.f32	s0, s15
  51              	.LVL1:
  52 0016 FFF7FEFF 		bl	utils_truncate_number_abs
  53              	.LVL2:
  54              		.loc 1 393 0
  55 001a 4E4A     		ldr	r2, .L16+4
  56 001c 0199     		ldr	r1, [sp, #4]	@ float
  57              		.loc 1 395 0
ARM GAS  /tmp/cceEElat.s 			page 2


  58 001e 4E4B     		ldr	r3, .L16+8
  59              		.loc 1 393 0
  60 0020 1160     		str	r1, [r2]	@ float
  61              		.loc 1 395 0
  62 0022 1B78     		ldrb	r3, [r3]	@ zero_extendqisi2
  63 0024 0BB9     		cbnz	r3, .L14
  64              	.L1:
  65              		.loc 1 444 0
  66 0026 03B0     		add	sp, sp, #12
  67              		.cfi_remember_state
  68              		.cfi_def_cfa_offset 12
  69              		@ sp needed
  70 0028 30BD     		pop	{r4, r5, pc}
  71              	.L14:
  72              		.cfi_restore_state
  73              		.loc 1 395 0 discriminator 1
  74 002a FFF7FEFF 		bl	mc_interface_get_fault
  75              	.LVL3:
  76 002e 0546     		mov	r5, r0
  77 0030 0028     		cmp	r0, #0
  78 0032 F8D1     		bne	.L1
  79              		.loc 1 399 0
  80 0034 2368     		ldr	r3, [r4]
  81 0036 9DED017A 		vldr.32	s14, [sp, #4]
  82 003a 1B78     		ldrb	r3, [r3]	@ zero_extendqisi2
  83              	.LBB5:
  84              		.loc 1 400 0
  85 003c 474C     		ldr	r4, .L16+12
  86              	.LBE5:
  87              		.loc 1 399 0
  88 003e 022B     		cmp	r3, #2
  89 0040 58D0     		beq	.L15
  90              	.LBB6:
  91              		.loc 1 414 0
  92 0042 D4ED0B7A 		vldr.32	s15, [r4, #44]	@ int
  93 0046 F8EE677A 		vcvt.f32.u32	s15, s15
  94 004a F0EEC76A 		vabs.f32	s13, s14
  95 004e 67EEA67A 		vmul.f32	s15, s15, s13
  96              		.loc 1 418 0
  97 0052 B5EEC07A 		vcmpe.f32	s14, #0
  98              		.loc 1 414 0
  99 0056 FCEEE77A 		vcvt.u32.f32	s15, s15
 100              	.LVL4:
 101              		.loc 1 418 0
 102 005a F1EE10FA 		vmrs	APSR_nzcv, FPSCR
 103              		.loc 1 415 0
 104 005e C4ED0D7A 		vstr.32	s15, [r4, #52]	@ int
 105              		.loc 1 420 0
 106 0062 4FF06002 		mov	r2, #96
 107              		.loc 1 416 0
 108 0066 C4ED0F7A 		vstr.32	s15, [r4, #60]	@ int
 109              		.loc 1 418 0
 110 006a 25DB     		blt	.L10
 111              		.loc 1 420 0
 112 006c 0146     		mov	r1, r0
 113 006e 2046     		mov	r0, r4
 114 0070 FFF7FEFF 		bl	TIM_SelectOCxM
ARM GAS  /tmp/cceEElat.s 			page 3


 115              	.LVL5:
 116              		.loc 1 421 0
 117 0074 0122     		movs	r2, #1
 118 0076 2946     		mov	r1, r5
 119 0078 2046     		mov	r0, r4
 120 007a FFF7FEFF 		bl	TIM_CCxCmd
 121              	.LVL6:
 122              		.loc 1 422 0
 123 007e 2946     		mov	r1, r5
 124 0080 0422     		movs	r2, #4
 125 0082 2046     		mov	r0, r4
 126 0084 FFF7FEFF 		bl	TIM_CCxNCmd
 127              	.LVL7:
 128              		.loc 1 425 0
 129 0088 2022     		movs	r2, #32
 130 008a 0821     		movs	r1, #8
 131 008c 2046     		mov	r0, r4
 132 008e FFF7FEFF 		bl	TIM_SelectOCxM
 133              	.LVL8:
 134              		.loc 1 426 0
 135 0092 0122     		movs	r2, #1
 136 0094 0821     		movs	r1, #8
 137 0096 2046     		mov	r0, r4
 138              	.L12:
 139 0098 FFF7FEFF 		bl	TIM_CCxCmd
 140              	.LVL9:
 141              		.loc 1 427 0
 142 009c 2046     		mov	r0, r4
 143 009e 0422     		movs	r2, #4
 144 00a0 0821     		movs	r1, #8
 145 00a2 FFF7FEFF 		bl	TIM_CCxNCmd
 146              	.LVL10:
 147              	.L6:
 148              	.LBE6:
 149              		.loc 1 441 0
 150 00a6 2021     		movs	r1, #32
 151 00a8 2C48     		ldr	r0, .L16+12
 152 00aa FFF7FEFF 		bl	TIM_GenerateEvent
 153              	.LVL11:
 154              		.loc 1 443 0
 155 00ae 2C4B     		ldr	r3, .L16+16
 156 00b0 0122     		movs	r2, #1
 157 00b2 1A70     		strb	r2, [r3]
 158              		.loc 1 444 0
 159 00b4 03B0     		add	sp, sp, #12
 160              		.cfi_remember_state
 161              		.cfi_def_cfa_offset 12
 162              		@ sp needed
 163 00b6 30BD     		pop	{r4, r5, pc}
 164              	.LVL12:
 165              	.L10:
 166              		.cfi_restore_state
 167              	.LBB7:
 168              		.loc 1 430 0
 169 00b8 2046     		mov	r0, r4
 170 00ba 0821     		movs	r1, #8
 171 00bc FFF7FEFF 		bl	TIM_SelectOCxM
ARM GAS  /tmp/cceEElat.s 			page 4


 172              	.LVL13:
 173              		.loc 1 431 0
 174 00c0 2046     		mov	r0, r4
 175 00c2 0122     		movs	r2, #1
 176 00c4 0821     		movs	r1, #8
 177 00c6 FFF7FEFF 		bl	TIM_CCxCmd
 178              	.LVL14:
 179              		.loc 1 432 0
 180 00ca 2046     		mov	r0, r4
 181 00cc 0422     		movs	r2, #4
 182 00ce 0821     		movs	r1, #8
 183 00d0 FFF7FEFF 		bl	TIM_CCxNCmd
 184              	.LVL15:
 185              		.loc 1 435 0
 186 00d4 2946     		mov	r1, r5
 187 00d6 2046     		mov	r0, r4
 188 00d8 2022     		movs	r2, #32
 189 00da FFF7FEFF 		bl	TIM_SelectOCxM
 190              	.LVL16:
 191              		.loc 1 436 0
 192 00de 2946     		mov	r1, r5
 193 00e0 2046     		mov	r0, r4
 194 00e2 0122     		movs	r2, #1
 195 00e4 FFF7FEFF 		bl	TIM_CCxCmd
 196              	.LVL17:
 197              		.loc 1 437 0
 198 00e8 2946     		mov	r1, r5
 199 00ea 2046     		mov	r0, r4
 200 00ec 0422     		movs	r2, #4
 201 00ee FFF7FEFF 		bl	TIM_CCxNCmd
 202              	.LVL18:
 203 00f2 D8E7     		b	.L6
 204              	.L15:
 205              	.LBE7:
 206              	.LBB8:
 207              		.loc 1 400 0
 208 00f4 D4ED0B6A 		vldr.32	s13, [r4, #44]	@ int
 209 00f8 D4ED0B7A 		vldr.32	s15, [r4, #44]	@ int
 210 00fc F8EE666A 		vcvt.f32.u32	s13, s13
 211 0100 F8EE677A 		vcvt.f32.u32	s15, s15
 212 0104 B6EE006A 		vmov.f32	s12, #5.0e-1
 213 0108 66EE866A 		vmul.f32	s13, s13, s12
 214 010c 67EE867A 		vmul.f32	s15, s15, s12
 215              		.loc 1 405 0
 216 0110 2046     		mov	r0, r4
 217              		.loc 1 400 0
 218 0112 E6EE877A 		vfma.f32	s15, s13, s14
 219              		.loc 1 405 0
 220 0116 6022     		movs	r2, #96
 221 0118 2946     		mov	r1, r5
 222              		.loc 1 400 0
 223 011a FCEEE77A 		vcvt.u32.f32	s15, s15
 224              	.LVL19:
 225              		.loc 1 401 0
 226 011e C4ED0D7A 		vstr.32	s15, [r4, #52]	@ int
 227              		.loc 1 402 0
 228 0122 C4ED0F7A 		vstr.32	s15, [r4, #60]	@ int
ARM GAS  /tmp/cceEElat.s 			page 5


 229              		.loc 1 405 0
 230 0126 FFF7FEFF 		bl	TIM_SelectOCxM
 231              	.LVL20:
 232              		.loc 1 406 0
 233 012a 2046     		mov	r0, r4
 234 012c 0122     		movs	r2, #1
 235 012e 2946     		mov	r1, r5
 236 0130 FFF7FEFF 		bl	TIM_CCxCmd
 237              	.LVL21:
 238              		.loc 1 407 0
 239 0134 2946     		mov	r1, r5
 240 0136 2046     		mov	r0, r4
 241 0138 0422     		movs	r2, #4
 242 013a FFF7FEFF 		bl	TIM_CCxNCmd
 243              	.LVL22:
 244              		.loc 1 410 0
 245 013e 2046     		mov	r0, r4
 246 0140 7022     		movs	r2, #112
 247 0142 0821     		movs	r1, #8
 248 0144 FFF7FEFF 		bl	TIM_SelectOCxM
 249              	.LVL23:
 250              		.loc 1 411 0
 251 0148 2046     		mov	r0, r4
 252 014a 0122     		movs	r2, #1
 253 014c 0821     		movs	r1, #8
 254 014e A3E7     		b	.L12
 255              	.L17:
 256              		.align	2
 257              	.L16:
 258 0150 00000000 		.word	.LANCHOR0
 259 0154 00000000 		.word	.LANCHOR1
 260 0158 00000000 		.word	.LANCHOR2
 261 015c 00000140 		.word	1073807360
 262 0160 00000000 		.word	.LANCHOR3
 263              	.LBE8:
 264              		.cfi_endproc
 265              	.LFE274:
 266              		.size	set_modulation, .-set_modulation
 267              		.section	.text.stop_pwm_hw,"ax",%progbits
 268              		.align	1
 269              		.p2align 4,,15
 270              		.syntax unified
 271              		.thumb
 272              		.thumb_func
 273              		.fpu fpv4-sp-d16
 274              		.type	stop_pwm_hw, %function
 275              	stop_pwm_hw:
 276              	.LFB275:
 277              		.loc 1 446 0
 278              		.cfi_startproc
 279              		@ args = 0, pretend = 0, frame = 0
 280              		@ frame_needed = 0, uses_anonymous_args = 0
 281              		.loc 1 448 0
 282 0000 174B     		ldr	r3, .L20
 283              		.loc 1 447 0
 284 0002 1849     		ldr	r1, .L20+4
 285              		.loc 1 446 0
ARM GAS  /tmp/cceEElat.s 			page 6


 286 0004 70B5     		push	{r4, r5, r6, lr}
 287              		.cfi_def_cfa_offset 16
 288              		.cfi_offset 4, -16
 289              		.cfi_offset 5, -12
 290              		.cfi_offset 6, -8
 291              		.cfi_offset 14, -4
 292              		.loc 1 448 0
 293 0006 42F20402 		movw	r2, #8196
 294              		.loc 1 455 0
 295 000a 174D     		ldr	r5, .L20+8
 296              		.loc 1 447 0
 297 000c 0024     		movs	r4, #0
 298              		.loc 1 449 0
 299 000e 03F50056 		add	r6, r3, #8192
 300              		.loc 1 447 0
 301 0012 0C70     		strb	r4, [r1]
 302              		.loc 1 455 0
 303 0014 2846     		mov	r0, r5
 304              		.loc 1 448 0
 305 0016 9C50     		str	r4, [r3, r2]
 306              		.loc 1 455 0
 307 0018 2146     		mov	r1, r4
 308 001a 4022     		movs	r2, #64
 309              		.loc 1 449 0
 310 001c 3460     		str	r4, [r6]
 311              		.loc 1 455 0
 312 001e FFF7FEFF 		bl	TIM_SelectOCxM
 313              	.LVL24:
 314              		.loc 1 456 0
 315 0022 2146     		mov	r1, r4
 316 0024 2846     		mov	r0, r5
 317 0026 0122     		movs	r2, #1
 318 0028 FFF7FEFF 		bl	TIM_CCxCmd
 319              	.LVL25:
 320              		.loc 1 457 0
 321 002c 2246     		mov	r2, r4
 322 002e 2146     		mov	r1, r4
 323 0030 2846     		mov	r0, r5
 324 0032 FFF7FEFF 		bl	TIM_CCxNCmd
 325              	.LVL26:
 326              		.loc 1 459 0
 327 0036 2846     		mov	r0, r5
 328 0038 4022     		movs	r2, #64
 329 003a 0821     		movs	r1, #8
 330 003c FFF7FEFF 		bl	TIM_SelectOCxM
 331              	.LVL27:
 332              		.loc 1 460 0
 333 0040 2846     		mov	r0, r5
 334 0042 0122     		movs	r2, #1
 335 0044 0821     		movs	r1, #8
 336 0046 FFF7FEFF 		bl	TIM_CCxCmd
 337              	.LVL28:
 338              		.loc 1 461 0
 339 004a 2846     		mov	r0, r5
 340 004c 2246     		mov	r2, r4
 341 004e 0821     		movs	r1, #8
 342 0050 FFF7FEFF 		bl	TIM_CCxNCmd
ARM GAS  /tmp/cceEElat.s 			page 7


 343              	.LVL29:
 344              		.loc 1 463 0
 345 0054 2846     		mov	r0, r5
 346 0056 2021     		movs	r1, #32
 347              		.loc 1 464 0
 348 0058 BDE87040 		pop	{r4, r5, r6, lr}
 349              		.cfi_restore 14
 350              		.cfi_restore 6
 351              		.cfi_restore 5
 352              		.cfi_restore 4
 353              		.cfi_def_cfa_offset 0
 354              		.loc 1 463 0
 355 005c FFF7FEBF 		b	TIM_GenerateEvent
 356              	.LVL30:
 357              	.L21:
 358              		.align	2
 359              	.L20:
 360 0060 00000000 		.word	m_sample_buffer
 361 0064 00000000 		.word	.LANCHOR3
 362 0068 00000140 		.word	1073807360
 363              		.cfi_endproc
 364              	.LFE275:
 365              		.size	stop_pwm_hw, .-stop_pwm_hw
 366              		.section	.text.gpdrive_init,"ax",%progbits
 367              		.align	1
 368              		.p2align 4,,15
 369              		.global	gpdrive_init
 370              		.syntax unified
 371              		.thumb
 372              		.thumb_func
 373              		.fpu fpv4-sp-d16
 374              		.type	gpdrive_init, %function
 375              	gpdrive_init:
 376              	.LFB256:
 377              		.loc 1 88 0
 378              		.cfi_startproc
 379              		@ args = 0, pretend = 0, frame = 160
 380              		@ frame_needed = 0, uses_anonymous_args = 0
 381              	.LVL31:
 382 0000 2DE9F04F 		push	{r4, r5, r6, r7, r8, r9, r10, fp, lr}
 383              		.cfi_def_cfa_offset 36
 384              		.cfi_offset 4, -36
 385              		.cfi_offset 5, -32
 386              		.cfi_offset 6, -28
 387              		.cfi_offset 7, -24
 388              		.cfi_offset 8, -20
 389              		.cfi_offset 9, -16
 390              		.cfi_offset 10, -12
 391              		.cfi_offset 11, -8
 392              		.cfi_offset 14, -4
 393 0004 2DED028B 		vpush.64	{d8}
 394              		.cfi_def_cfa_offset 44
 395              		.cfi_offset 80, -44
 396              		.cfi_offset 81, -40
 397 0008 ABB0     		sub	sp, sp, #172
 398              		.cfi_def_cfa_offset 216
 399              		.loc 1 94 0
ARM GAS  /tmp/cceEElat.s 			page 8


 400 000a A74D     		ldr	r5, .L34
 401              		.loc 1 98 0
 402 000c DFF81CB3 		ldr	fp, .L34+132
 403              		.loc 1 88 0
 404 0010 0390     		str	r0, [sp, #12]
 405              		.loc 1 89 0
 406 0012 FFF7FEFF 		bl	utils_sys_lock_cnt
 407              	.LVL32:
 408              		.loc 1 91 0
 409 0016 A54B     		ldr	r3, .L34+4
 410              		.loc 1 100 0
 411 0018 A54E     		ldr	r6, .L34+8
 412              		.loc 1 105 0
 413 001a 9FEDA68A 		vldr.32	s16, .L34+12
 414              		.loc 1 104 0
 415 001e DFF81083 		ldr	r8, .L34+136
 416              		.loc 1 113 0
 417 0022 DFF810A3 		ldr	r10, .L34+140
 418              		.loc 1 114 0
 419 0026 DFF81093 		ldr	r9, .L34+144
 420              		.loc 1 115 0
 421 002a A34F     		ldr	r7, .L34+16
 422              		.loc 1 91 0
 423 002c 0024     		movs	r4, #0
 424              		.loc 1 94 0
 425 002e 2846     		mov	r0, r5
 426              		.loc 1 91 0
 427 0030 1C70     		strb	r4, [r3]
 428              		.loc 1 94 0
 429 0032 FFF7FEFF 		bl	TIM_DeInit
 430              	.LVL33:
 431              		.loc 1 98 0
 432 0036 5846     		mov	r0, fp
 433              		.loc 1 95 0
 434 0038 6C62     		str	r4, [r5, #36]
 435              		.loc 1 98 0
 436 003a 0122     		movs	r2, #1
 437 003c 4FF40071 		mov	r1, #512
 438 0040 FFF7FEFF 		bl	_pal_lld_setgroupmode
 439              	.LVL34:
 440              		.loc 1 99 0
 441 0044 4FF40072 		mov	r2, #512
 442 0048 ABF81A20 		strh	r2, [fp, #26]	@ movhi
 443              		.loc 1 100 0
 444 004c 3046     		mov	r0, r6
 445 004e 0122     		movs	r2, #1
 446 0050 4FF48041 		mov	r1, #16384
 447 0054 FFF7FEFF 		bl	_pal_lld_setgroupmode
 448              	.LVL35:
 449              		.loc 1 103 0
 450 0058 984A     		ldr	r2, .L34+20
 451 005a 039B     		ldr	r3, [sp, #12]
 452              		.loc 1 105 0
 453 005c 9849     		ldr	r1, .L34+24
 454              		.loc 1 107 0
 455 005e 9948     		ldr	r0, .L34+28
 456              		.loc 1 104 0
ARM GAS  /tmp/cceEElat.s 			page 9


 457 0060 DFF8D8C2 		ldr	ip, .L34+148
 458              		.loc 1 101 0
 459 0064 4FF4804B 		mov	fp, #16384
 460 0068 A6F81AB0 		strh	fp, [r6, #26]	@ movhi
 461              		.loc 1 103 0
 462 006c 1360     		str	r3, [r2]
 463              		.loc 1 106 0
 464 006e 964A     		ldr	r2, .L34+32
 465              		.loc 1 108 0
 466 0070 964B     		ldr	r3, .L34+36
 467              		.loc 1 104 0
 468 0072 C8F800C0 		str	ip, [r8]	@ float
 469              		.loc 1 105 0
 470 0076 81ED008A 		vstr.32	s16, [r1]
 471              		.loc 1 106 0
 472 007a 82ED008A 		vstr.32	s16, [r2]
 473              		.loc 1 109 0
 474 007e 2146     		mov	r1, r4
 475              		.loc 1 107 0
 476 0080 80ED008A 		vstr.32	s16, [r0]
 477              		.loc 1 109 0
 478 0084 42F20802 		movw	r2, #8200
 479 0088 9148     		ldr	r0, .L34+40
 480              		.loc 1 108 0
 481 008a 1C70     		strb	r4, [r3]
 482              		.loc 1 109 0
 483 008c FFF7FEFF 		bl	memset
 484              	.LVL36:
 485              		.loc 1 110 0
 486 0090 904B     		ldr	r3, .L34+44
 487              		.loc 1 111 0
 488 0092 9149     		ldr	r1, .L34+48
 489              		.loc 1 112 0
 490 0094 9148     		ldr	r0, .L34+52
 491              		.loc 1 123 0
 492 0096 DFF8A8C2 		ldr	ip, .L34+152
 493              		.loc 1 110 0
 494 009a 4FF07052 		mov	r2, #1006632960
 495 009e 1A60     		str	r2, [r3]	@ float
 496              		.loc 1 116 0
 497 00a0 8F4A     		ldr	r2, .L34+56
 498              		.loc 1 111 0
 499 00a2 0C70     		strb	r4, [r1]
 500              		.loc 1 112 0
 501 00a4 80ED008A 		vstr.32	s16, [r0]
 502              		.loc 1 113 0
 503 00a8 CAF80040 		str	r4, [r10]
 504              		.loc 1 114 0
 505 00ac C9F80040 		str	r4, [r9]
 506              		.loc 1 115 0
 507 00b0 3C60     		str	r4, [r7]
 508              		.loc 1 116 0
 509 00b2 1460     		str	r4, [r2]
 510              		.loc 1 117 0
 511 00b4 8B4A     		ldr	r2, .L34+60
 512              		.loc 1 124 0
 513 00b6 8C4B     		ldr	r3, .L34+64
ARM GAS  /tmp/cceEElat.s 			page 10


 514              		.loc 1 117 0
 515 00b8 1460     		str	r4, [r2]
 516              		.loc 1 118 0
 517 00ba 8C4A     		ldr	r2, .L34+68
 518 00bc 1470     		strb	r4, [r2]
 519              		.loc 1 120 0
 520 00be 8C4A     		ldr	r2, .L34+72
 521 00c0 1460     		str	r4, [r2]
 522              		.loc 1 121 0
 523 00c2 8C4A     		ldr	r2, .L34+76
 524              		.loc 1 130 0
 525 00c4 0121     		movs	r1, #1
 526              		.loc 1 121 0
 527 00c6 1460     		str	r4, [r2]
 528              		.loc 1 130 0
 529 00c8 0846     		mov	r0, r1
 530              		.loc 1 123 0
 531 00ca 8CED008A 		vstr.32	s16, [ip]
 532              		.loc 1 124 0
 533 00ce 1C60     		str	r4, [r3]
 534 00d0 5C60     		str	r4, [r3, #4]
 535 00d2 9C60     		str	r4, [r3, #8]
 536              		.loc 1 130 0
 537 00d4 FFF7FEFF 		bl	RCC_APB2PeriphClockCmd
 538              	.LVL37:
 539              		.loc 1 134 0
 540 00d8 D8ED007A 		vldr.32	s15, [r8]
 541 00dc 864A     		ldr	r2, .L34+80
 542              		.loc 1 132 0
 543 00de 0594     		str	r4, [sp, #20]
 544              		.loc 1 134 0
 545 00e0 FDEEE77A 		vcvt.s32.f32	s15, s15
 546              		.loc 1 137 0
 547 00e4 2846     		mov	r0, r5
 548              		.loc 1 134 0
 549 00e6 17EE903A 		vmov	r3, s15	@ int
 550              		.loc 1 137 0
 551 00ea 05A9     		add	r1, sp, #20
 552              		.loc 1 134 0
 553 00ec 92FBF3F3 		sdiv	r3, r2, r3
 554              		.loc 1 135 0
 555 00f0 ADF81C40 		strh	r4, [sp, #28]	@ movhi
 556              		.loc 1 136 0
 557 00f4 8DF81E40 		strb	r4, [sp, #30]
 558              		.loc 1 134 0
 559 00f8 0693     		str	r3, [sp, #24]
 560              		.loc 1 137 0
 561 00fa FFF7FEFF 		bl	TIM_TimeBaseInit
 562              	.LVL38:
 563              		.loc 1 142 0
 564 00fe EB6A     		ldr	r3, [r5, #44]
 565              		.loc 1 139 0
 566 0100 DFF840C2 		ldr	ip, .L34+156
 567              		.loc 1 144 0
 568 0104 7D4A     		ldr	r2, .L34+84
 569              		.loc 1 139 0
 570 0106 CDF840C0 		str	ip, [sp, #64]
ARM GAS  /tmp/cceEElat.s 			page 11


 571              		.loc 1 142 0
 572 010a 5B08     		lsrs	r3, r3, #1
 573              		.loc 1 148 0
 574 010c 2846     		mov	r0, r5
 575 010e 10A9     		add	r1, sp, #64
 576              		.loc 1 142 0
 577 0110 1293     		str	r3, [sp, #72]
 578              		.loc 1 140 0
 579 0112 0423     		movs	r3, #4
 580              		.loc 1 144 0
 581 0114 1492     		str	r2, [sp, #80]
 582              		.loc 1 140 0
 583 0116 ADF84430 		strh	r3, [sp, #68]	@ movhi
 584              		.loc 1 143 0
 585 011a 1394     		str	r4, [sp, #76]
 586              		.loc 1 148 0
 587 011c FFF7FEFF 		bl	TIM_OC1Init
 588              	.LVL39:
 589              		.loc 1 149 0
 590 0120 10A9     		add	r1, sp, #64
 591 0122 2846     		mov	r0, r5
 592 0124 FFF7FEFF 		bl	TIM_OC2Init
 593              	.LVL40:
 594              		.loc 1 150 0
 595 0128 10A9     		add	r1, sp, #64
 596 012a 2846     		mov	r0, r5
 597 012c FFF7FEFF 		bl	TIM_OC3Init
 598              	.LVL41:
 599              		.loc 1 151 0
 600 0130 10A9     		add	r1, sp, #64
 601 0132 2846     		mov	r0, r5
 602 0134 FFF7FEFF 		bl	TIM_OC4Init
 603              	.LVL42:
 604              		.loc 1 153 0
 605 0138 2846     		mov	r0, r5
 606 013a 0821     		movs	r1, #8
 607 013c FFF7FEFF 		bl	TIM_OC1PreloadConfig
 608              	.LVL43:
 609              		.loc 1 154 0
 610 0140 2846     		mov	r0, r5
 611 0142 0821     		movs	r1, #8
 612 0144 FFF7FEFF 		bl	TIM_OC2PreloadConfig
 613              	.LVL44:
 614              		.loc 1 155 0
 615 0148 2846     		mov	r0, r5
 616 014a 0821     		movs	r1, #8
 617 014c FFF7FEFF 		bl	TIM_OC3PreloadConfig
 618              	.LVL45:
 619              		.loc 1 156 0
 620 0150 0821     		movs	r1, #8
 621 0152 2846     		mov	r0, r5
 622 0154 FFF7FEFF 		bl	TIM_OC4PreloadConfig
 623              	.LVL46:
 624              		.loc 1 161 0
 625 0158 DFED690A 		vldr.32	s1, .L34+88
 626 015c 9FED690A 		vldr.32	s0, .L34+92
 627              		.loc 1 158 0
ARM GAS  /tmp/cceEElat.s 			page 12


 628 0160 694B     		ldr	r3, .L34+96
 629              		.loc 1 159 0
 630 0162 ADF82440 		strh	r4, [sp, #36]	@ movhi
 631              		.loc 1 158 0
 632 0166 0893     		str	r3, [sp, #32]
 633              		.loc 1 161 0
 634 0168 FFF7FEFF 		bl	conf_general_calculate_deadtime
 635              	.LVL47:
 636              		.loc 1 162 0
 637 016c 4FF00053 		mov	r3, #536870912
 638              		.loc 1 161 0
 639 0170 ADF82600 		strh	r0, [sp, #38]	@ movhi
 640              		.loc 1 166 0
 641 0174 08A9     		add	r1, sp, #32
 642 0176 2846     		mov	r0, r5
 643              		.loc 1 162 0
 644 0178 0A93     		str	r3, [sp, #40]
 645              		.loc 1 163 0
 646 017a ADF82C40 		strh	r4, [sp, #44]	@ movhi
 647              		.loc 1 166 0
 648 017e FFF7FEFF 		bl	TIM_BDTRConfig
 649              	.LVL48:
 650              		.loc 1 167 0
 651 0182 2846     		mov	r0, r5
 652 0184 0121     		movs	r1, #1
 653 0186 FFF7FEFF 		bl	TIM_CCPreloadControl
 654              	.LVL49:
 655              		.loc 1 168 0
 656 018a 2846     		mov	r0, r5
 657 018c 0121     		movs	r1, #1
 658 018e FFF7FEFF 		bl	TIM_ARRPreloadConfig
 659              	.LVL50:
 660              		.loc 1 174 0
 661 0192 0121     		movs	r1, #1
 662 0194 5D48     		ldr	r0, .L34+100
 663 0196 FFF7FEFF 		bl	RCC_AHB1PeriphClockCmd
 664              	.LVL51:
 665              		.loc 1 175 0
 666 019a 0121     		movs	r1, #1
 667 019c 4FF4E060 		mov	r0, #1792
 668 01a0 FFF7FEFF 		bl	RCC_APB2PeriphClockCmd
 669              	.LVL52:
 670              		.loc 1 177 0
 671 01a4 2346     		mov	r3, r4
 672 01a6 5A4A     		ldr	r2, .L34+104
 673 01a8 5A48     		ldr	r0, .L34+108
 674 01aa 0321     		movs	r1, #3
 675 01ac FFF7FEFF 		bl	dmaStreamAllocate
 676              	.LVL53:
 677              		.loc 1 183 0
 678 01b0 5949     		ldr	r1, .L34+112
 679              		.loc 1 184 0
 680 01b2 DFF894C1 		ldr	ip, .L34+160
 681              		.loc 1 183 0
 682 01b6 1D91     		str	r1, [sp, #116]
 683              		.loc 1 186 0
 684 01b8 0F22     		movs	r2, #15
ARM GAS  /tmp/cceEElat.s 			page 13


 685              		.loc 1 188 0
 686 01ba 4FF48063 		mov	r3, #1024
 687              		.loc 1 189 0
 688 01be 4FF40061 		mov	r1, #2048
 689              		.loc 1 197 0
 690 01c2 5648     		ldr	r0, .L34+116
 691              		.loc 1 184 0
 692 01c4 CDF870C0 		str	ip, [sp, #112]
 693              		.loc 1 186 0
 694 01c8 1F92     		str	r2, [sp, #124]
 695              		.loc 1 190 0
 696 01ca 4FF4005C 		mov	ip, #8192
 697              		.loc 1 191 0
 698 01ce 4FF48072 		mov	r2, #256
 699              		.loc 1 188 0
 700 01d2 2193     		str	r3, [sp, #132]
 701              		.loc 1 189 0
 702 01d4 2291     		str	r1, [sp, #136]
 703              		.loc 1 192 0
 704 01d6 4FF40033 		mov	r3, #131072
 705              		.loc 1 197 0
 706 01da 1BA9     		add	r1, sp, #108
 707              		.loc 1 191 0
 708 01dc CDE923C2 		strd	ip, r2, [sp, #140]
 709              		.loc 1 192 0
 710 01e0 2593     		str	r3, [sp, #148]
 711              		.loc 1 182 0
 712 01e2 1B94     		str	r4, [sp, #108]
 713              		.loc 1 185 0
 714 01e4 1E94     		str	r4, [sp, #120]
 715              		.loc 1 187 0
 716 01e6 2094     		str	r4, [sp, #128]
 717              		.loc 1 194 0
 718 01e8 CDE92644 		strd	r4, r4, [sp, #152]
 719              		.loc 1 196 0
 720 01ec CDE92844 		strd	r4, r4, [sp, #160]
 721              		.loc 1 197 0
 722 01f0 FFF7FEFF 		bl	DMA_Init
 723              	.LVL54:
 724              		.loc 1 199 0
 725 01f4 0121     		movs	r1, #1
 726 01f6 4948     		ldr	r0, .L34+116
 727 01f8 FFF7FEFF 		bl	DMA_Cmd
 728              	.LVL55:
 729              		.loc 1 200 0
 730 01fc 0122     		movs	r2, #1
 731 01fe 1021     		movs	r1, #16
 732 0200 4648     		ldr	r0, .L34+116
 733 0202 FFF7FEFF 		bl	DMA_ITConfig
 734              	.LVL56:
 735              		.loc 1 204 0
 736 0206 1623     		movs	r3, #22
 737              		.loc 1 208 0
 738 0208 0CA8     		add	r0, sp, #48
 739              		.loc 1 211 0
 740 020a 4FF00108 		mov	r8, #1
 741              		.loc 1 205 0
ARM GAS  /tmp/cceEElat.s 			page 14


 742 020e CDE90D4B 		strd	r4, fp, [sp, #52]
 743              		.loc 1 207 0
 744 0212 0F94     		str	r4, [sp, #60]
 745              		.loc 1 204 0
 746 0214 0C93     		str	r3, [sp, #48]
 747              		.loc 1 208 0
 748 0216 FFF7FEFF 		bl	ADC_CommonInit
 749              	.LVL57:
 750              		.loc 1 214 0
 751 021a 4FF08072 		mov	r2, #16777216
 752              		.loc 1 216 0
 753 021e 4FF0050C 		mov	ip, #5
 754              		.loc 1 213 0
 755 0222 4FF00053 		mov	r3, #536870912
 756              		.loc 1 218 0
 757 0226 15A9     		add	r1, sp, #84
 758 0228 3D48     		ldr	r0, .L34+120
 759              		.loc 1 214 0
 760 022a 1892     		str	r2, [sp, #96]
 761              		.loc 1 216 0
 762 022c 8DF868C0 		strb	ip, [sp, #104]
 763              		.loc 1 213 0
 764 0230 1793     		str	r3, [sp, #92]
 765              		.loc 1 210 0
 766 0232 1594     		str	r4, [sp, #84]
 767              		.loc 1 212 0
 768 0234 8DF85940 		strb	r4, [sp, #89]
 769              		.loc 1 215 0
 770 0238 1994     		str	r4, [sp, #100]
 771              		.loc 1 211 0
 772 023a 8DF85880 		strb	r8, [sp, #88]
 773              		.loc 1 218 0
 774 023e FFF7FEFF 		bl	ADC_Init
 775              	.LVL58:
 776              		.loc 1 221 0
 777 0242 15A9     		add	r1, sp, #84
 778 0244 3748     		ldr	r0, .L34+124
 779              		.loc 1 220 0
 780 0246 CDE91744 		strd	r4, r4, [sp, #92]
 781              		.loc 1 221 0
 782 024a FFF7FEFF 		bl	ADC_Init
 783              	.LVL59:
 784              		.loc 1 222 0
 785 024e 15A9     		add	r1, sp, #84
 786 0250 3548     		ldr	r0, .L34+128
 787 0252 FFF7FEFF 		bl	ADC_Init
 788              	.LVL60:
 789              		.loc 1 224 0
 790 0256 4046     		mov	r0, r8
 791 0258 FFF7FEFF 		bl	ADC_TempSensorVrefintCmd
 792              	.LVL61:
 793              		.loc 1 226 0
 794 025c 4046     		mov	r0, r8
 795 025e FFF7FEFF 		bl	ADC_MultiModeDMARequestAfterLastTransferCmd
 796              	.LVL62:
 797              		.loc 1 228 0
 798 0262 FFF7FEFF 		bl	hw_setup_adc_channels
ARM GAS  /tmp/cceEElat.s 			page 15


 799              	.LVL63:
 800              		.loc 1 230 0
 801 0266 4146     		mov	r1, r8
 802 0268 2D48     		ldr	r0, .L34+120
 803 026a FFF7FEFF 		bl	ADC_Cmd
 804              	.LVL64:
 805              		.loc 1 231 0
 806 026e 4146     		mov	r1, r8
 807 0270 2C48     		ldr	r0, .L34+124
 808 0272 FFF7FEFF 		bl	ADC_Cmd
 809              	.LVL65:
 810              		.loc 1 232 0
 811 0276 4146     		mov	r1, r8
 812 0278 2B48     		ldr	r0, .L34+128
 813 027a FFF7FEFF 		bl	ADC_Cmd
 814              	.LVL66:
 815              		.loc 1 234 0
 816 027e 4146     		mov	r1, r8
 817 0280 2846     		mov	r0, r5
 818 0282 FFF7FEFF 		bl	TIM_Cmd
 819              	.LVL67:
 820              		.loc 1 235 0
 821 0286 4146     		mov	r1, r8
 822 0288 2846     		mov	r0, r5
 823 028a FFF7FEFF 		bl	TIM_CtrlPWMOutputs
 824              	.LVL68:
 825              		.loc 1 238 0
 826 028e C823     		movs	r3, #200
 827 0290 AB63     		str	r3, [r5, #56]
 828              		.loc 1 240 0
 829 0292 FFF7FEFF 		bl	utils_sys_unlock_cnt
 830              	.LVL69:
 831              		.loc 1 242 0
 832 0296 2023     		movs	r3, #32
 833 0298 3383     		strh	r3, [r6, #24]	@ movhi
 834              		.loc 1 243 0
 835 029a FFF7FEFF 		bl	drv8350_dccal_off
 836              	.LVL70:
 837              	.LBB11:
 838              	.LBB12:
 839              		.loc 1 467 0
 840 029e 41F28934 		movw	r4, #5001
 841 02a2 FFF7FEFF 		bl	drv8350_dccal_on
 842              	.LVL71:
 843 02a6 55E0     		b	.L23
 844              	.L35:
 845              		.align	2
 846              	.L34:
 847 02a8 00000140 		.word	1073807360
 848 02ac 00000000 		.word	.LANCHOR4
 849 02b0 00040240 		.word	1073873920
 850 02b4 00000000 		.word	0
 851 02b8 00000000 		.word	.LANCHOR12
 852 02bc 00000000 		.word	.LANCHOR0
 853 02c0 00000000 		.word	.LANCHOR1
 854 02c4 00000000 		.word	.LANCHOR7
 855 02c8 00000000 		.word	.LANCHOR6
ARM GAS  /tmp/cceEElat.s 			page 16


 856 02cc 00000000 		.word	.LANCHOR2
 857 02d0 00000000 		.word	m_sample_buffer
 858 02d4 00000000 		.word	.LANCHOR8
 859 02d8 00000000 		.word	.LANCHOR3
 860 02dc 00000000 		.word	.LANCHOR9
 861 02e0 00000000 		.word	.LANCHOR13
 862 02e4 00000000 		.word	.LANCHOR14
 863 02e8 00000000 		.word	.LANCHOR19
 864 02ec 00000000 		.word	.LANCHOR15
 865 02f0 00000000 		.word	.LANCHOR16
 866 02f4 00000000 		.word	.LANCHOR17
 867 02f8 007A030A 		.word	168000000
 868 02fc 00010002 		.word	33554688
 869 0300 A037204D 		.word	1293957024
 870 0304 0000C843 		.word	1137180672
 871 0308 00080004 		.word	67110912
 872 030c 05004000 		.word	4194309
 873 0310 00000000 		.word	adc_int_handler
 874 0314 90000000 		.word	_stm32_dma_streams+144
 875 0318 00000000 		.word	ADC_Value
 876 031c 70640240 		.word	1073898608
 877 0320 00200140 		.word	1073815552
 878 0324 00210140 		.word	1073815808
 879 0328 00220140 		.word	1073816064
 880 032c 00000240 		.word	1073872896
 881 0330 00000000 		.word	.LANCHOR5
 882 0334 00000000 		.word	.LANCHOR10
 883 0338 00000000 		.word	.LANCHOR11
 884 033c 00401C47 		.word	1193033728
 885 0340 00000000 		.word	.LANCHOR18
 886 0344 60000100 		.word	65632
 887 0348 08230140 		.word	1073816328
 888              	.LVL72:
 889              	.L25:
 890              		.loc 1 472 0
 891 034c FFF7FEFF 		bl	chThdSleep
 892              	.LVL73:
 893              		.loc 1 474 0
 894 0350 013C     		subs	r4, r4, #1
 895              	.LVL74:
 896 0352 04D0     		beq	.L26
 897              	.LVL75:
 898              	.L23:
 899              		.loc 1 471 0
 900 0354 3369     		ldr	r3, [r6, #16]
 901 0356 1B06     		lsls	r3, r3, #24
 902              		.loc 1 472 0
 903 0358 4FF00A00 		mov	r0, #10
 904              		.loc 1 471 0
 905 035c F6D5     		bpl	.L25
 906              	.LVL76:
 907              	.L26:
 908              		.loc 1 479 0
 909 035e 42F21070 		movw	r0, #10000
 910 0362 FFF7FEFF 		bl	chThdSleep
 911              	.LVL77:
 912              		.loc 1 483 0
ARM GAS  /tmp/cceEElat.s 			page 17


 913 0366 204A     		ldr	r2, .L36
 914              		.loc 1 480 0
 915 0368 0023     		movs	r3, #0
 916 036a CAF80030 		str	r3, [r10]
 917              		.loc 1 481 0
 918 036e C9F80030 		str	r3, [r9]
 919              		.loc 1 483 0
 920 0372 1360     		str	r3, [r2]
 921              		.loc 1 485 0
 922 0374 3B60     		str	r3, [r7]
 923              	.L24:
 924              		.loc 1 486 0
 925 0376 3B68     		ldr	r3, [r7]
 926 0378 B3F57A6F 		cmp	r3, #4000
 927 037c FBDB     		blt	.L24
 928              		.loc 1 487 0
 929 037e DAF80030 		ldr	r3, [r10]
 930 0382 3A68     		ldr	r2, [r7]
 931 0384 93FBF2F3 		sdiv	r3, r3, r2
 932 0388 184A     		ldr	r2, .L36+4
 933              	.LBE12:
 934              	.LBE11:
 935              		.loc 1 247 0
 936 038a 194D     		ldr	r5, .L36+8
 937              	.LBB16:
 938              	.LBB13:
 939              		.loc 1 487 0
 940 038c 1360     		str	r3, [r2]
 941              		.loc 1 488 0
 942 038e D9F80030 		ldr	r3, [r9]
 943 0392 3A68     		ldr	r2, [r7]
 944 0394 93FBF2F3 		sdiv	r3, r3, r2
 945 0398 164A     		ldr	r2, .L36+12
 946 039a 1360     		str	r3, [r2]
 947              		.loc 1 490 0
 948 039c 124B     		ldr	r3, .L36
 949 039e 1B68     		ldr	r3, [r3]
 950 03a0 3A68     		ldr	r2, [r7]
 951              		.loc 1 493 0
 952 03a2 154F     		ldr	r7, .L36+16
 953              		.loc 1 490 0
 954 03a4 93FBF2F3 		sdiv	r3, r3, r2
 955 03a8 144A     		ldr	r2, .L36+20
 956              	.LBE13:
 957              	.LBE16:
 958              		.loc 1 247 0
 959 03aa 0024     		movs	r4, #0
 960              	.LBB17:
 961              	.LBB14:
 962              		.loc 1 493 0
 963 03ac 0126     		movs	r6, #1
 964              		.loc 1 490 0
 965 03ae 1360     		str	r3, [r2]
 966              		.loc 1 492 0
 967 03b0 FFF7FEFF 		bl	drv8350_dccal_off
 968              	.LVL78:
 969              	.LBE14:
ARM GAS  /tmp/cceEElat.s 			page 18


 970              	.LBE17:
 971              		.loc 1 248 0
 972 03b4 124B     		ldr	r3, .L36+24
 973 03b6 0094     		str	r4, [sp]
 974 03b8 4022     		movs	r2, #64
 975 03ba 40F69811 		movw	r1, #2456
 976              	.LBB18:
 977              	.LBB15:
 978              		.loc 1 493 0
 979 03be 3E70     		strb	r6, [r7]
 980              	.LBE15:
 981              	.LBE18:
 982              		.loc 1 248 0
 983 03c0 1048     		ldr	r0, .L36+28
 984              		.loc 1 247 0
 985 03c2 2C70     		strb	r4, [r5]
 986              		.loc 1 248 0
 987 03c4 FFF7FEFF 		bl	chThdCreateStatic
 988              	.LVL79:
 989              		.loc 1 250 0
 990 03c8 FFF7FEFF 		bl	stop_pwm_hw
 991              	.LVL80:
 992              		.loc 1 253 0
 993 03cc FFF7FEFF 		bl	timeout_had_IWDG_reset
 994              	.LVL81:
 995 03d0 10B1     		cbz	r0, .L27
 996              		.loc 1 254 0
 997 03d2 0A20     		movs	r0, #10
 998 03d4 FFF7FEFF 		bl	mc_interface_fault_stop
 999              	.LVL82:
 1000              	.L27:
 1001              		.loc 1 257 0
 1002 03d8 0B4A     		ldr	r2, .L36+32
 1003 03da 0123     		movs	r3, #1
 1004 03dc 1370     		strb	r3, [r2]
 1005              		.loc 1 258 0
 1006 03de 2BB0     		add	sp, sp, #172
 1007              		.cfi_def_cfa_offset 44
 1008              		@ sp needed
 1009 03e0 BDEC028B 		vldm	sp!, {d8}
 1010              		.cfi_restore 80
 1011              		.cfi_restore 81
 1012              		.cfi_def_cfa_offset 36
 1013 03e4 BDE8F08F 		pop	{r4, r5, r6, r7, r8, r9, r10, fp, pc}
 1014              	.LVL83:
 1015              	.L37:
 1016              		.align	2
 1017              	.L36:
 1018 03e8 00000000 		.word	.LANCHOR16
 1019 03ec 00000000 		.word	.LANCHOR13
 1020 03f0 00000000 		.word	.LANCHOR20
 1021 03f4 00000000 		.word	.LANCHOR14
 1022 03f8 00000000 		.word	.LANCHOR15
 1023 03fc 00000000 		.word	.LANCHOR17
 1024 0400 00000000 		.word	timer_thread
 1025 0404 00000000 		.word	.LANCHOR21
 1026 0408 00000000 		.word	.LANCHOR4
ARM GAS  /tmp/cceEElat.s 			page 19


 1027              		.cfi_endproc
 1028              	.LFE256:
 1029              		.size	gpdrive_init, .-gpdrive_init
 1030              		.section	.text.gpdrive_deinit,"ax",%progbits
 1031              		.align	1
 1032              		.p2align 4,,15
 1033              		.global	gpdrive_deinit
 1034              		.syntax unified
 1035              		.thumb
 1036              		.thumb_func
 1037              		.fpu fpv4-sp-d16
 1038              		.type	gpdrive_deinit, %function
 1039              	gpdrive_deinit:
 1040              	.LFB257:
 1041              		.loc 1 260 0
 1042              		.cfi_startproc
 1043              		@ args = 0, pretend = 0, frame = 0
 1044              		@ frame_needed = 0, uses_anonymous_args = 0
 1045              		.loc 1 261 0
 1046 0000 184B     		ldr	r3, .L49
 1047 0002 1A78     		ldrb	r2, [r3]	@ zero_extendqisi2
 1048 0004 62B3     		cbz	r2, .L38
 1049              		.loc 1 260 0
 1050 0006 10B5     		push	{r4, lr}
 1051              		.cfi_def_cfa_offset 8
 1052              		.cfi_offset 4, -8
 1053              		.cfi_offset 14, -4
 1054              		.loc 1 267 0
 1055 0008 174C     		ldr	r4, .L49+4
 1056              		.loc 1 265 0
 1057 000a 0021     		movs	r1, #0
 1058              		.loc 1 267 0
 1059 000c 0122     		movs	r2, #1
 1060              		.loc 1 265 0
 1061 000e 1970     		strb	r1, [r3]
 1062              		.loc 1 267 0
 1063 0010 2270     		strb	r2, [r4]
 1064              		.loc 1 269 0
 1065 0012 2378     		ldrb	r3, [r4]	@ zero_extendqisi2
 1066 0014 2BB1     		cbz	r3, .L40
 1067              	.L41:
 1068              		.loc 1 270 0
 1069 0016 0A20     		movs	r0, #10
 1070 0018 FFF7FEFF 		bl	chThdSleep
 1071              	.LVL84:
 1072              		.loc 1 269 0
 1073 001c 2378     		ldrb	r3, [r4]	@ zero_extendqisi2
 1074 001e 002B     		cmp	r3, #0
 1075 0020 F9D1     		bne	.L41
 1076              	.L40:
 1077              		.loc 1 273 0
 1078 0022 1248     		ldr	r0, .L49+8
 1079 0024 FFF7FEFF 		bl	TIM_DeInit
 1080              	.LVL85:
 1081              		.loc 1 274 0
 1082 0028 1148     		ldr	r0, .L49+12
 1083 002a FFF7FEFF 		bl	TIM_DeInit
ARM GAS  /tmp/cceEElat.s 			page 20


 1084              	.LVL86:
 1085              		.loc 1 275 0
 1086 002e FFF7FEFF 		bl	ADC_DeInit
 1087              	.LVL87:
 1088              		.loc 1 276 0
 1089 0032 1048     		ldr	r0, .L49+16
 1090 0034 FFF7FEFF 		bl	DMA_DeInit
 1091              	.LVL88:
 1092              		.loc 1 277 0
 1093 0038 1220     		movs	r0, #18
 1094 003a FFF7FEFF 		bl	nvicDisableVector
 1095              	.LVL89:
 1096              		.loc 1 278 0
 1097 003e 0E48     		ldr	r0, .L49+20
 1098 0040 FFF7FEFF 		bl	dmaStreamRelease
 1099              	.LVL90:
 1100              		.loc 1 281 0
 1101 0044 9A22     		movs	r2, #154
 1102 0046 4FF40071 		mov	r1, #512
 1103 004a 0C48     		ldr	r0, .L49+24
 1104 004c FFF7FEFF 		bl	_pal_lld_setgroupmode
 1105              	.LVL91:
 1106              		.loc 1 284 0
 1107 0050 9A22     		movs	r2, #154
 1108 0052 4FF48041 		mov	r1, #16384
 1109 0056 0A48     		ldr	r0, .L49+28
 1110              		.loc 1 287 0
 1111 0058 BDE81040 		pop	{r4, lr}
 1112              		.cfi_restore 14
 1113              		.cfi_restore 4
 1114              		.cfi_def_cfa_offset 0
 1115              		.loc 1 284 0
 1116 005c FFF7FEBF 		b	_pal_lld_setgroupmode
 1117              	.LVL92:
 1118              	.L38:
 1119 0060 7047     		bx	lr
 1120              	.L50:
 1121 0062 00BF     		.align	2
 1122              	.L49:
 1123 0064 00000000 		.word	.LANCHOR4
 1124 0068 00000000 		.word	.LANCHOR20
 1125 006c 00000140 		.word	1073807360
 1126 0070 00180040 		.word	1073747968
 1127 0074 70640240 		.word	1073898608
 1128 0078 90000000 		.word	_stm32_dma_streams+144
 1129 007c 00000240 		.word	1073872896
 1130 0080 00040240 		.word	1073873920
 1131              		.cfi_endproc
 1132              	.LFE257:
 1133              		.size	gpdrive_deinit, .-gpdrive_deinit
 1134              		.section	.text.gpdrive_init_done,"ax",%progbits
 1135              		.align	1
 1136              		.p2align 4,,15
 1137              		.global	gpdrive_init_done
 1138              		.syntax unified
 1139              		.thumb
 1140              		.thumb_func
ARM GAS  /tmp/cceEElat.s 			page 21


 1141              		.fpu fpv4-sp-d16
 1142              		.type	gpdrive_init_done, %function
 1143              	gpdrive_init_done:
 1144              	.LFB258:
 1145              		.loc 1 289 0
 1146              		.cfi_startproc
 1147              		@ args = 0, pretend = 0, frame = 0
 1148              		@ frame_needed = 0, uses_anonymous_args = 0
 1149              		@ link register save eliminated.
 1150              		.loc 1 290 0
 1151 0000 014B     		ldr	r3, .L52
 1152 0002 1878     		ldrb	r0, [r3]	@ zero_extendqisi2
 1153              		.loc 1 291 0
 1154 0004 7047     		bx	lr
 1155              	.L53:
 1156 0006 00BF     		.align	2
 1157              	.L52:
 1158 0008 00000000 		.word	.LANCHOR4
 1159              		.cfi_endproc
 1160              	.LFE258:
 1161              		.size	gpdrive_init_done, .-gpdrive_init_done
 1162              		.section	.text.gpdrive_is_dccal_done,"ax",%progbits
 1163              		.align	1
 1164              		.p2align 4,,15
 1165              		.global	gpdrive_is_dccal_done
 1166              		.syntax unified
 1167              		.thumb
 1168              		.thumb_func
 1169              		.fpu fpv4-sp-d16
 1170              		.type	gpdrive_is_dccal_done, %function
 1171              	gpdrive_is_dccal_done:
 1172              	.LFB259:
 1173              		.loc 1 293 0
 1174              		.cfi_startproc
 1175              		@ args = 0, pretend = 0, frame = 0
 1176              		@ frame_needed = 0, uses_anonymous_args = 0
 1177              		@ link register save eliminated.
 1178              		.loc 1 294 0
 1179 0000 014B     		ldr	r3, .L55
 1180 0002 1878     		ldrb	r0, [r3]	@ zero_extendqisi2
 1181              		.loc 1 295 0
 1182 0004 7047     		bx	lr
 1183              	.L56:
 1184 0006 00BF     		.align	2
 1185              	.L55:
 1186 0008 00000000 		.word	.LANCHOR15
 1187              		.cfi_endproc
 1188              	.LFE259:
 1189              		.size	gpdrive_is_dccal_done, .-gpdrive_is_dccal_done
 1190              		.section	.text.gpdrive_get_switching_frequency_now,"ax",%progbits
 1191              		.align	1
 1192              		.p2align 4,,15
 1193              		.global	gpdrive_get_switching_frequency_now
 1194              		.syntax unified
 1195              		.thumb
 1196              		.thumb_func
 1197              		.fpu fpv4-sp-d16
ARM GAS  /tmp/cceEElat.s 			page 22


 1198              		.type	gpdrive_get_switching_frequency_now, %function
 1199              	gpdrive_get_switching_frequency_now:
 1200              	.LFB260:
 1201              		.loc 1 297 0
 1202              		.cfi_startproc
 1203              		@ args = 0, pretend = 0, frame = 0
 1204              		@ frame_needed = 0, uses_anonymous_args = 0
 1205              		@ link register save eliminated.
 1206              		.loc 1 298 0
 1207 0000 014B     		ldr	r3, .L58
 1208 0002 93ED000A 		vldr.32	s0, [r3]
 1209              		.loc 1 299 0
 1210 0006 7047     		bx	lr
 1211              	.L59:
 1212              		.align	2
 1213              	.L58:
 1214 0008 00000000 		.word	.LANCHOR5
 1215              		.cfi_endproc
 1216              	.LFE260:
 1217              		.size	gpdrive_get_switching_frequency_now, .-gpdrive_get_switching_frequency_now
 1218              		.section	.text.gpdrive_set_configuration,"ax",%progbits
 1219              		.align	1
 1220              		.p2align 4,,15
 1221              		.global	gpdrive_set_configuration
 1222              		.syntax unified
 1223              		.thumb
 1224              		.thumb_func
 1225              		.fpu fpv4-sp-d16
 1226              		.type	gpdrive_set_configuration, %function
 1227              	gpdrive_set_configuration:
 1228              	.LFB261:
 1229              		.loc 1 301 0
 1230              		.cfi_startproc
 1231              		@ args = 0, pretend = 0, frame = 0
 1232              		@ frame_needed = 0, uses_anonymous_args = 0
 1233              	.LVL93:
 1234 0000 10B5     		push	{r4, lr}
 1235              		.cfi_def_cfa_offset 8
 1236              		.cfi_offset 4, -8
 1237              		.cfi_offset 14, -4
 1238              		.loc 1 303 0
 1239 0002 074B     		ldr	r3, .L62
 1240 0004 0022     		movs	r2, #0
 1241              		.loc 1 301 0
 1242 0006 0446     		mov	r4, r0
 1243              		.loc 1 303 0
 1244 0008 1A70     		strb	r2, [r3]
 1245              		.loc 1 304 0
 1246 000a FFF7FEFF 		bl	stop_pwm_hw
 1247              	.LVL94:
 1248              		.loc 1 306 0
 1249 000e FFF7FEFF 		bl	utils_sys_lock_cnt
 1250              	.LVL95:
 1251              		.loc 1 307 0
 1252 0012 044B     		ldr	r3, .L62+4
 1253 0014 1C60     		str	r4, [r3]
 1254              		.loc 1 309 0
ARM GAS  /tmp/cceEElat.s 			page 23


 1255 0016 BDE81040 		pop	{r4, lr}
 1256              		.cfi_restore 14
 1257              		.cfi_restore 4
 1258              		.cfi_def_cfa_offset 0
 1259              	.LVL96:
 1260              		.loc 1 308 0
 1261 001a FFF7FEBF 		b	utils_sys_unlock_cnt
 1262              	.LVL97:
 1263              	.L63:
 1264 001e 00BF     		.align	2
 1265              	.L62:
 1266 0020 00000000 		.word	.LANCHOR2
 1267 0024 00000000 		.word	.LANCHOR0
 1268              		.cfi_endproc
 1269              	.LFE261:
 1270              		.size	gpdrive_set_configuration, .-gpdrive_set_configuration
 1271              		.section	.text.gpdrive_output_sample,"ax",%progbits
 1272              		.align	1
 1273              		.p2align 4,,15
 1274              		.global	gpdrive_output_sample
 1275              		.syntax unified
 1276              		.thumb
 1277              		.thumb_func
 1278              		.fpu fpv4-sp-d16
 1279              		.type	gpdrive_output_sample, %function
 1280              	gpdrive_output_sample:
 1281              	.LFB262:
 1282              		.loc 1 311 0
 1283              		.cfi_startproc
 1284              		@ args = 0, pretend = 0, frame = 0
 1285              		@ frame_needed = 0, uses_anonymous_args = 0
 1286              		@ link register save eliminated.
 1287              	.LVL98:
 1288              		.loc 1 312 0
 1289 0000 124A     		ldr	r2, .L70
 1290              		.loc 1 314 0
 1291 0002 134B     		ldr	r3, .L70+4
 1292              		.loc 1 312 0
 1293 0004 82ED000A 		vstr.32	s0, [r2]
 1294              		.loc 1 314 0
 1295 0008 1B78     		ldrb	r3, [r3]	@ zero_extendqisi2
 1296 000a DBB2     		uxtb	r3, r3
 1297 000c 022B     		cmp	r3, #2
 1298              		.loc 1 311 0
 1299 000e F0EE407A 		vmov.f32	s15, s0
 1300              		.loc 1 314 0
 1301 0012 04D0     		beq	.L66
 1302 0014 032B     		cmp	r3, #3
 1303 0016 14D0     		beq	.L67
 1304 0018 012B     		cmp	r3, #1
 1305 001a 10D0     		beq	.L69
 1306              		.loc 1 330 0
 1307 001c 7047     		bx	lr
 1308              	.L66:
 1309              	.LVL99:
 1310              	.LBB21:
 1311              	.LBB22:
ARM GAS  /tmp/cceEElat.s 			page 24


 1312              		.loc 1 320 0
 1313 001e 0D4B     		ldr	r3, .L70+8
 1314 0020 DFED0D6A 		vldr.32	s13, .L70+12
 1315 0024 DB8A     		ldrh	r3, [r3, #22]
 1316 0026 9FED0D7A 		vldr.32	s14, .L70+16
 1317 002a 00EE103A 		vmov	s0, r3	@ int
 1318              	.LVL100:
 1319 002e B8EE400A 		vcvt.f32.u32	s0, s0
 1320 0032 20EE260A 		vmul.f32	s0, s0, s13
 1321 0036 20EE070A 		vmul.f32	s0, s0, s14
 1322 003a 87EE800A 		vdiv.f32	s0, s15, s0
 1323              	.LVL101:
 1324              	.L69:
 1325 003e FFF7FEBF 		b	set_modulation
 1326              	.LVL102:
 1327              	.L67:
 1328              	.LBE22:
 1329              	.LBE21:
 1330              		.loc 1 324 0
 1331 0042 074B     		ldr	r3, .L70+20
 1332 0044 83ED000A 		vstr.32	s0, [r3]
 1333              		.loc 1 330 0
 1334 0048 7047     		bx	lr
 1335              	.L71:
 1336 004a 00BF     		.align	2
 1337              	.L70:
 1338 004c 00000000 		.word	.LANCHOR9
 1339 0050 00000000 		.word	.LANCHOR2
 1340 0054 00000000 		.word	ADC_Value
 1341 0058 C07B523A 		.word	978484160
 1342 005c BAE8B241 		.word	1102244026
 1343 0060 00000000 		.word	.LANCHOR19
 1344              		.cfi_endproc
 1345              	.LFE262:
 1346              		.size	gpdrive_output_sample, .-gpdrive_output_sample
 1347              		.section	.text.adc_int_handler,"ax",%progbits
 1348              		.align	1
 1349              		.p2align 4,,15
 1350              		.syntax unified
 1351              		.thumb
 1352              		.thumb_func
 1353              		.fpu fpv4-sp-d16
 1354              		.type	adc_int_handler, %function
 1355              	adc_int_handler:
 1356              	.LFB277:
 1357              		.loc 1 496 0
 1358              		.cfi_startproc
 1359              		@ args = 0, pretend = 0, frame = 0
 1360              		@ frame_needed = 0, uses_anonymous_args = 0
 1361              	.LVL103:
 1362 0000 2DE9F041 		push	{r4, r5, r6, r7, r8, lr}
 1363              		.cfi_def_cfa_offset 24
 1364              		.cfi_offset 4, -24
 1365              		.cfi_offset 5, -20
 1366              		.cfi_offset 6, -16
 1367              		.cfi_offset 7, -12
 1368              		.cfi_offset 8, -8
ARM GAS  /tmp/cceEElat.s 			page 25


 1369              		.cfi_offset 14, -4
 1370 0004 2DED028B 		vpush.64	{d8}
 1371              		.cfi_def_cfa_offset 32
 1372              		.cfi_offset 80, -32
 1373              		.cfi_offset 81, -28
 1374              		.loc 1 500 0
 1375 0008 FFF7FEFF 		bl	timer_time_now
 1376              	.LVL104:
 1377              		.loc 1 505 0
 1378 000c AA4C     		ldr	r4, .L101
 1379              		.loc 1 512 0
 1380 000e AB4F     		ldr	r7, .L101+4
 1381              		.loc 1 535 0
 1382 0010 AB4D     		ldr	r5, .L101+8
 1383              		.loc 1 534 0
 1384 0012 DFF80483 		ldr	r8, .L101+96
 1385              		.loc 1 500 0
 1386 0016 0646     		mov	r6, r0
 1387              	.LVL105:
 1388              		.loc 1 503 0
 1389 0018 0020     		movs	r0, #0
 1390              	.LVL106:
 1391 001a FFF7FEFF 		bl	timeout_feed_WDT
 1392              	.LVL107:
 1393              		.loc 1 505 0
 1394 001e E288     		ldrh	r2, [r4, #6]
 1395              		.loc 1 506 0
 1396 0020 B4F808C0 		ldrh	ip, [r4, #8]
 1397              		.loc 1 509 0
 1398 0024 6389     		ldrh	r3, [r4, #10]
 1399              		.loc 1 512 0
 1400 0026 3868     		ldr	r0, [r7]
 1401              		.loc 1 505 0
 1402 0028 92B2     		uxth	r2, r2
 1403              	.LVL108:
 1404              		.loc 1 512 0
 1405 002a 1044     		add	r0, r0, r2
 1406 002c 3860     		str	r0, [r7]
 1407              		.loc 1 513 0
 1408 002e A54F     		ldr	r7, .L101+12
 1409              		.loc 1 515 0
 1410 0030 A548     		ldr	r0, .L101+16
 1411              		.loc 1 513 0
 1412 0032 3968     		ldr	r1, [r7]
 1413 0034 6144     		add	r1, r1, ip
 1414 0036 3960     		str	r1, [r7]
 1415              		.loc 1 515 0
 1416 0038 0168     		ldr	r1, [r0]
 1417              		.loc 1 518 0
 1418 003a DFF8E0C2 		ldr	ip, .L101+100
 1419              	.LVL109:
 1420              		.loc 1 519 0
 1421 003e A34F     		ldr	r7, .L101+20
 1422              		.loc 1 509 0
 1423 0040 9BB2     		uxth	r3, r3
 1424              	.LVL110:
 1425              		.loc 1 515 0
ARM GAS  /tmp/cceEElat.s 			page 26


 1426 0042 1944     		add	r1, r1, r3
 1427 0044 0160     		str	r1, [r0]
 1428              		.loc 1 521 0
 1429 0046 A249     		ldr	r1, .L101+24
 1430              		.loc 1 518 0
 1431 0048 DCF80000 		ldr	r0, [ip]
 1432              	.LVL111:
 1433              		.loc 1 519 0
 1434 004c 3F68     		ldr	r7, [r7]
 1435              		.loc 1 521 0
 1436 004e 0F68     		ldr	r7, [r1]
 1437              	.LVL112:
 1438              		.loc 1 524 0
 1439 0050 A049     		ldr	r1, .L101+28
 1440              		.loc 1 521 0
 1441 0052 DB1B     		subs	r3, r3, r7
 1442              	.LVL113:
 1443 0054 00EE103A 		vmov	s0, r3	@ int
 1444              		.loc 1 518 0
 1445 0058 121A     		subs	r2, r2, r0
 1446              	.LVL114:
 1447              		.loc 1 524 0
 1448 005a 0B68     		ldr	r3, [r1]
 1449              	.LVL115:
 1450              		.loc 1 535 0
 1451 005c 9E4F     		ldr	r7, .L101+32
 1452              		.loc 1 518 0
 1453 005e 00EE902A 		vmov	s1, r2	@ int
 1454              		.loc 1 528 0
 1455 0062 B8EEC00A 		vcvt.f32.s32	s0, s0
 1456              	.LVL116:
 1457              		.loc 1 524 0
 1458 0066 0133     		adds	r3, r3, #1
 1459              		.loc 1 534 0
 1460 0068 B1EE400A 		vneg.f32	s0, s0
 1461 006c F8EEE00A 		vcvt.f32.s32	s1, s1
 1462              		.loc 1 524 0
 1463 0070 0B60     		str	r3, [r1]
 1464              	.LVL117:
 1465              		.loc 1 534 0
 1466 0072 FFF7FEFF 		bl	utils_max_abs
 1467              	.LVL118:
 1468 0076 9FED997A 		vldr.32	s14, .L101+36
 1469              		.loc 1 535 0
 1470 007a 2B68     		ldr	r3, [r5]
 1471              		.loc 1 540 0
 1472 007c DFED985A 		vldr.32	s11, .L101+40
 1473 0080 9FED986A 		vldr.32	s12, .L101+44
 1474              		.loc 1 534 0
 1475 0084 20EE070A 		vmul.f32	s0, s0, s14
 1476 0088 88ED000A 		vstr.32	s0, [r8]
 1477              		.loc 1 535 0
 1478 008c D3ED507A 		vldr.32	s15, [r3, #320]
 1479 0090 D7ED006A 		vldr.32	s13, [r7]
 1480 0094 98ED005A 		vldr.32	s10, [r8]
 1481 0098 97ED007A 		vldr.32	s14, [r7]
 1482 009c 76EEC56A 		vsub.f32	s13, s13, s10
ARM GAS  /tmp/cceEElat.s 			page 27


 1483 00a0 A7EEE67A 		vfms.f32	s14, s15, s13
 1484 00a4 87ED007A 		vstr.32	s14, [r7]
 1485              		.loc 1 540 0
 1486 00a8 E28A     		ldrh	r2, [r4, #22]
 1487              		.loc 1 543 0
 1488 00aa 93ED0B7A 		vldr.32	s14, [r3, #44]
 1489              		.loc 1 540 0
 1490 00ae 07EE902A 		vmov	s15, r2	@ int
 1491 00b2 F8EE677A 		vcvt.f32.u32	s15, s15
 1492 00b6 67EEA57A 		vmul.f32	s15, s15, s11
 1493 00ba 67EE867A 		vmul.f32	s15, s15, s12
 1494              	.LVL119:
 1495              		.loc 1 543 0
 1496 00be B4EEE77A 		vcmpe.f32	s14, s15
 1497 00c2 F1EE10FA 		vmrs	APSR_nzcv, FPSCR
 1498 00c6 07DC     		bgt	.L73
 1499              		.loc 1 544 0 discriminator 1
 1500 00c8 93ED0C7A 		vldr.32	s14, [r3, #48]
 1501              		.loc 1 543 0 discriminator 1
 1502 00cc B4EEE77A 		vcmpe.f32	s14, s15
 1503 00d0 F1EE10FA 		vmrs	APSR_nzcv, FPSCR
 1504 00d4 40F1BC80 		bpl	.L93
 1505              	.L73:
 1506              		.loc 1 545 0
 1507 00d8 8349     		ldr	r1, .L101+48
 1508 00da 0A68     		ldr	r2, [r1]
 1509 00dc 0132     		adds	r2, r2, #1
 1510              		.loc 1 547 0
 1511 00de 072A     		cmp	r2, #7
 1512              		.loc 1 545 0
 1513 00e0 0A60     		str	r2, [r1]
 1514              		.loc 1 547 0
 1515 00e2 00F3A880 		bgt	.L97
 1516              	.LVL120:
 1517              	.L76:
 1518              		.loc 1 555 0
 1519 00e6 93F83C20 		ldrb	r2, [r3, #60]	@ zero_extendqisi2
 1520 00ea 002A     		cmp	r2, #0
 1521 00ec 00F08D80 		beq	.L79
 1522              		.loc 1 556 0
 1523 00f0 D8ED007A 		vldr.32	s15, [r8]
 1524              	.L96:
 1525 00f4 93ED057A 		vldr.32	s14, [r3, #20]
 1526 00f8 F0EEE77A 		vabs.f32	s15, s15
 1527 00fc F4EEC77A 		vcmpe.f32	s15, s14
 1528 0100 F1EE10FA 		vmrs	APSR_nzcv, FPSCR
 1529 0104 00F3A880 		bgt	.L98
 1530              	.L80:
 1531              		.loc 1 571 0
 1532 0108 7849     		ldr	r1, .L101+52
 1533              		.loc 1 573 0
 1534 010a D3F83C01 		ldr	r0, [r3, #316]
 1535              		.loc 1 571 0
 1536 010e 0A68     		ldr	r2, [r1]
 1537 0110 0132     		adds	r2, r2, #1
 1538              		.loc 1 573 0
 1539 0112 8242     		cmp	r2, r0
ARM GAS  /tmp/cceEElat.s 			page 28


 1540              		.loc 1 571 0
 1541 0114 0A60     		str	r2, [r1]
 1542              		.loc 1 573 0
 1543 0116 7BDD     		ble	.L83
 1544              		.loc 1 575 0
 1545 0118 754B     		ldr	r3, .L101+56
 1546 011a 42F2040C 		movw	ip, #8196
 1547 011e 03F50052 		add	r2, r3, #8192
 1548              		.loc 1 574 0
 1549 0122 0020     		movs	r0, #0
 1550              		.loc 1 575 0
 1551 0124 D2F800E0 		ldr	lr, [r2]
 1552 0128 53F80CC0 		ldr	ip, [r3, ip]
 1553              		.loc 1 574 0
 1554 012c 0860     		str	r0, [r1]
 1555              		.loc 1 575 0
 1556 012e E645     		cmp	lr, ip
 1557 0130 00F09780 		beq	.L84
 1558              		.loc 1 577 0
 1559 0134 1168     		ldr	r1, [r2]
 1560              		.loc 1 576 0
 1561 0136 DFF8D481 		ldr	r8, .L101+84
 1562              		.loc 1 580 0
 1563 013a DFF8C0C1 		ldr	ip, .L101+68
 1564              		.loc 1 576 0
 1565 013e D8F800E0 		ldr	lr, [r8]	@ float
 1566              		.loc 1 577 0
 1567 0142 03EB8103 		add	r3, r3, r1, lsl #2
 1568 0146 0131     		adds	r1, r1, #1
 1569 0148 1160     		str	r1, [r2]
 1570 014a 1968     		ldr	r1, [r3]	@ float
 1571              		.loc 1 578 0
 1572 014c 1368     		ldr	r3, [r2]
 1573              		.loc 1 577 0
 1574 014e C8F80010 		str	r1, [r8]	@ float
 1575              		.loc 1 578 0
 1576 0152 C11A     		subs	r1, r0, r3
 1577 0154 C1F30A01 		ubfx	r1, r1, #0, #11
 1578 0158 C3F30A03 		ubfx	r3, r3, #0, #11
 1579 015c 58BF     		it	pl
 1580 015e 4B42     		rsbpl	r3, r1, #0
 1581 0160 1360     		str	r3, [r2]
 1582              		.loc 1 581 0
 1583 0162 644B     		ldr	r3, .L101+60
 1584              		.loc 1 580 0
 1585 0164 CCF800E0 		str	lr, [ip]	@ float
 1586              		.loc 1 581 0
 1587 0168 0121     		movs	r1, #1
 1588 016a 1970     		strb	r1, [r3]
 1589              		.loc 1 576 0
 1590 016c DFF8A481 		ldr	r8, .L101+92
 1591              		.loc 1 583 0
 1592 0170 614A     		ldr	r2, .L101+64
 1593              		.loc 1 598 0
 1594 0172 1B78     		ldrb	r3, [r3]	@ zero_extendqisi2
 1595              		.loc 1 576 0
 1596 0174 C8F800E0 		str	lr, [r8]	@ float
ARM GAS  /tmp/cceEElat.s 			page 29


 1597              		.loc 1 583 0
 1598 0178 1070     		strb	r0, [r2]
 1599              		.loc 1 598 0
 1600 017a 002B     		cmp	r3, #0
 1601 017c 4FD0     		beq	.L88
 1602              	.L99:
 1603              		.loc 1 599 0
 1604 017e 5F4B     		ldr	r3, .L101+68
 1605 0180 93ED000A 		vldr.32	s0, [r3]
 1606 0184 FFF7FEFF 		bl	gpdrive_output_sample
 1607              	.LVL121:
 1608              		.loc 1 601 0
 1609 0188 5D4B     		ldr	r3, .L101+72
 1610 018a 1B78     		ldrb	r3, [r3]	@ zero_extendqisi2
 1611 018c 032B     		cmp	r3, #3
 1612 018e 46D1     		bne	.L88
 1613              	.LBB23:
 1614              		.loc 1 602 0
 1615 0190 E38A     		ldrh	r3, [r4, #22]
 1616              		.loc 1 603 0
 1617 0192 DFF88C81 		ldr	r8, .L101+104
 1618              		.loc 1 605 0
 1619 0196 5B4A     		ldr	r2, .L101+76
 1620              		.loc 1 603 0
 1621 0198 D8ED007A 		vldr.32	s15, [r8]
 1622 019c D7ED005A 		vldr.32	s11, [r7]
 1623              		.loc 1 604 0
 1624 01a0 98ED027A 		vldr.32	s14, [r8, #8]
 1625              		.loc 1 602 0
 1626 01a4 9FED4E5A 		vldr.32	s10, .L101+40
 1627 01a8 9FED4E6A 		vldr.32	s12, .L101+44
 1628 01ac 08EE103A 		vmov	s16, r3	@ int
 1629              		.loc 1 604 0
 1630 01b0 2B68     		ldr	r3, [r5]
 1631              		.loc 1 603 0
 1632 01b2 77EEE57A 		vsub.f32	s15, s15, s11
 1633              		.loc 1 604 0
 1634 01b6 D3ED516A 		vldr.32	s13, [r3, #324]
 1635 01ba A6EEA77A 		vfma.f32	s14, s13, s15
 1636              		.loc 1 605 0
 1637 01be 4046     		mov	r0, r8
 1638 01c0 B7EE004A 		vmov.f32	s8, #1.0e+0
 1639              		.loc 1 604 0
 1640 01c4 88ED017A 		vstr.32	s14, [r8, #4]
 1641              		.loc 1 605 0
 1642 01c8 D3ED526A 		vldr.32	s13, [r3, #328]
 1643 01cc D2ED004A 		vldr.32	s9, [r2]
 1644 01d0 98ED027A 		vldr.32	s14, [r8, #8]
 1645 01d4 C4EE245A 		vdiv.f32	s11, s8, s9
 1646 01d8 66EEA77A 		vmul.f32	s15, s13, s15
 1647              		.loc 1 602 0
 1648 01dc B8EE488A 		vcvt.f32.u32	s16, s16
 1649              		.loc 1 605 0
 1650 01e0 A7EEA57A 		vfma.f32	s14, s15, s11
 1651              		.loc 1 602 0
 1652 01e4 28EE058A 		vmul.f32	s16, s16, s10
 1653              		.loc 1 605 0
ARM GAS  /tmp/cceEElat.s 			page 30


 1654 01e8 17EE103A 		vmov	r3, s14
 1655              		.loc 1 602 0
 1656 01ec 28EE068A 		vmul.f32	s16, s16, s12
 1657              	.LVL122:
 1658              		.loc 1 605 0
 1659 01f0 40F8083F 		str	r3, [r0, #8]!	@ float
 1660              		.loc 1 606 0
 1661 01f4 B0EE480A 		vmov.f32	s0, s16
 1662 01f8 FFF7FEFF 		bl	utils_truncate_number_abs
 1663              	.LVL123:
 1664              		.loc 1 607 0
 1665 01fc 98ED010A 		vldr.32	s0, [r8, #4]
 1666 0200 80EE080A 		vdiv.f32	s0, s0, s16
 1667 0204 FFF7FEFF 		bl	set_modulation
 1668              	.LVL124:
 1669 0208 09E0     		b	.L88
 1670              	.LVL125:
 1671              	.L79:
 1672              	.LBE23:
 1673              		.loc 1 560 0
 1674 020a D7ED007A 		vldr.32	s15, [r7]
 1675 020e 71E7     		b	.L96
 1676              	.L83:
 1677              		.loc 1 591 0
 1678 0210 3949     		ldr	r1, .L101+64
 1679 0212 0978     		ldrb	r1, [r1]	@ zero_extendqisi2
 1680 0214 79B3     		cbz	r1, .L94
 1681 0216 374B     		ldr	r3, .L101+60
 1682              	.L85:
 1683              		.loc 1 598 0
 1684 0218 1B78     		ldrb	r3, [r3]	@ zero_extendqisi2
 1685 021a 002B     		cmp	r3, #0
 1686 021c AFD1     		bne	.L99
 1687              	.L88:
 1688              		.loc 1 611 0
 1689 021e FFF7FEFF 		bl	ledpwm_update_pwm
 1690              	.LVL126:
 1691              		.loc 1 613 0
 1692 0222 3046     		mov	r0, r6
 1693 0224 FFF7FEFF 		bl	timer_seconds_elapsed_since
 1694              	.LVL127:
 1695              		.loc 1 614 0
 1696 0228 BDEC028B 		vldm	sp!, {d8}
 1697              		.cfi_remember_state
 1698              		.cfi_restore 80
 1699              		.cfi_restore 81
 1700              		.cfi_def_cfa_offset 24
 1701              		.loc 1 613 0
 1702 022c 364B     		ldr	r3, .L101+80
 1703 022e 83ED000A 		vstr.32	s0, [r3]
 1704              		.loc 1 614 0
 1705 0232 BDE8F081 		pop	{r4, r5, r6, r7, r8, pc}
 1706              	.LVL128:
 1707              	.L97:
 1708              		.cfi_restore_state
 1709              		.loc 1 548 0
 1710 0236 93ED0B7A 		vldr.32	s14, [r3, #44]
ARM GAS  /tmp/cceEElat.s 			page 31


 1711 023a B4EEE77A 		vcmpe.f32	s14, s15
 1712 023e F1EE10FA 		vmrs	APSR_nzcv, FPSCR
 1713 0242 CCBF     		ite	gt
 1714 0244 0220     		movgt	r0, #2
 1715 0246 0120     		movle	r0, #1
 1716 0248 FFF7FEFF 		bl	mc_interface_fault_stop
 1717              	.LVL129:
 1718 024c 2B68     		ldr	r3, [r5]
 1719 024e 4AE7     		b	.L76
 1720              	.LVL130:
 1721              	.L93:
 1722              		.loc 1 552 0
 1723 0250 254A     		ldr	r2, .L101+48
 1724 0252 0021     		movs	r1, #0
 1725 0254 1160     		str	r1, [r2]
 1726 0256 46E7     		b	.L76
 1727              	.LVL131:
 1728              	.L98:
 1729              		.loc 1 557 0
 1730 0258 0420     		movs	r0, #4
 1731 025a FFF7FEFF 		bl	mc_interface_fault_stop
 1732              	.LVL132:
 1733 025e 2B68     		ldr	r3, [r5]
 1734 0260 52E7     		b	.L80
 1735              	.L84:
 1736              		.loc 1 585 0
 1737 0262 DFF89480 		ldr	r8, .L101+64
 1738 0266 98F80030 		ldrb	r3, [r8]	@ zero_extendqisi2
 1739 026a 0BB3     		cbz	r3, .L100
 1740              	.L86:
 1741              		.loc 1 589 0
 1742 026c 0123     		movs	r3, #1
 1743 026e 88F80030 		strb	r3, [r8]
 1744 0272 204B     		ldr	r3, .L101+60
 1745 0274 D0E7     		b	.L85
 1746              	.L94:
 1747              		.loc 1 593 0
 1748 0276 D3ED4F7A 		vldr.32	s15, [r3, #316]	@ int
 1749              		.loc 1 592 0
 1750 027a 244B     		ldr	r3, .L101+84
 1751 027c DFED240A 		vldr.32	s1, .L101+88
 1752 0280 93ED002A 		vldr.32	s4, [r3]
 1753 0284 234B     		ldr	r3, .L101+92
 1754              		.loc 1 593 0
 1755 0286 F8EEE77A 		vcvt.f32.s32	s15, s15
 1756              		.loc 1 592 0
 1757 028a B7EE001A 		vmov.f32	s2, #1.0e+0
 1758 028e 37EE811A 		vadd.f32	s2, s15, s2
 1759 0292 07EE902A 		vmov	s15, r2	@ int
 1760 0296 D3ED001A 		vldr.32	s3, [r3]
 1761 029a B8EEE70A 		vcvt.f32.s32	s0, s15
 1762 029e FFF7FEFF 		bl	utils_map
 1763              	.LVL133:
 1764 02a2 164A     		ldr	r2, .L101+68
 1765              		.loc 1 595 0
 1766 02a4 134B     		ldr	r3, .L101+60
 1767              		.loc 1 592 0
ARM GAS  /tmp/cceEElat.s 			page 32


 1768 02a6 82ED000A 		vstr.32	s0, [r2]
 1769              		.loc 1 595 0
 1770 02aa 0122     		movs	r2, #1
 1771 02ac 1A70     		strb	r2, [r3]
 1772 02ae B3E7     		b	.L85
 1773              	.L100:
 1774              		.loc 1 586 0
 1775 02b0 FFF7FEFF 		bl	stop_pwm_hw
 1776              	.LVL134:
 1777 02b4 DAE7     		b	.L86
 1778              	.L102:
 1779 02b6 00BF     		.align	2
 1780              	.L101:
 1781 02b8 00000000 		.word	ADC_Value
 1782 02bc 00000000 		.word	.LANCHOR10
 1783 02c0 00000000 		.word	.LANCHOR0
 1784 02c4 00000000 		.word	.LANCHOR11
 1785 02c8 00000000 		.word	.LANCHOR16
 1786 02cc 00000000 		.word	.LANCHOR14
 1787 02d0 00000000 		.word	.LANCHOR17
 1788 02d4 00000000 		.word	.LANCHOR12
 1789 02d8 00000000 		.word	.LANCHOR7
 1790 02dc AD70243E 		.word	1042575533
 1791 02e0 C07B523A 		.word	978484160
 1792 02e4 BAE8B241 		.word	1102244026
 1793 02e8 00000000 		.word	.LANCHOR22
 1794 02ec 00000000 		.word	.LANCHOR23
 1795 02f0 00000000 		.word	m_sample_buffer
 1796 02f4 00000000 		.word	.LANCHOR3
 1797 02f8 00000000 		.word	.LANCHOR26
 1798 02fc 00000000 		.word	.LANCHOR9
 1799 0300 00000000 		.word	.LANCHOR2
 1800 0304 00000000 		.word	.LANCHOR5
 1801 0308 00000000 		.word	.LANCHOR18
 1802 030c 00000000 		.word	.LANCHOR24
 1803 0310 00000000 		.word	0
 1804 0314 00000000 		.word	.LANCHOR25
 1805 0318 00000000 		.word	.LANCHOR6
 1806 031c 00000000 		.word	.LANCHOR13
 1807 0320 00000000 		.word	.LANCHOR19
 1808              		.cfi_endproc
 1809              	.LFE277:
 1810              		.size	adc_int_handler, .-adc_int_handler
 1811              		.section	.text.gpdrive_fill_buffer,"ax",%progbits
 1812              		.align	1
 1813              		.p2align 4,,15
 1814              		.global	gpdrive_fill_buffer
 1815              		.syntax unified
 1816              		.thumb
 1817              		.thumb_func
 1818              		.fpu fpv4-sp-d16
 1819              		.type	gpdrive_fill_buffer, %function
 1820              	gpdrive_fill_buffer:
 1821              	.LFB263:
 1822              		.loc 1 332 0
 1823              		.cfi_startproc
 1824              		@ args = 0, pretend = 0, frame = 0
ARM GAS  /tmp/cceEElat.s 			page 33


 1825              		@ frame_needed = 0, uses_anonymous_args = 0
 1826              		@ link register save eliminated.
 1827              	.LVL135:
 1828              	.LBB24:
 1829              		.loc 1 333 0
 1830 0000 0029     		cmp	r1, #0
 1831 0002 19DD     		ble	.L108
 1832              	.LBE24:
 1833              		.loc 1 332 0
 1834 0004 70B4     		push	{r4, r5, r6}
 1835              		.cfi_def_cfa_offset 12
 1836              		.cfi_offset 4, -12
 1837              		.cfi_offset 5, -8
 1838              		.cfi_offset 6, -4
 1839 0006 0D4A     		ldr	r2, .L111
 1840 0008 0D4E     		ldr	r6, .L111+4
 1841 000a 00EB8101 		add	r1, r0, r1, lsl #2
 1842              	.LVL136:
 1843              	.L105:
 1844              	.LBB25:
 1845              		.loc 1 334 0 discriminator 3
 1846 000e 1368     		ldr	r3, [r2]
 1847 0010 50F8044B 		ldr	r4, [r0], #4	@ float
 1848 0014 5D1C     		adds	r5, r3, #1
 1849 0016 06EB8303 		add	r3, r6, r3, lsl #2
 1850 001a 1560     		str	r5, [r2]
 1851 001c 1C60     		str	r4, [r3]	@ float
 1852              		.loc 1 335 0 discriminator 3
 1853 001e 1368     		ldr	r3, [r2]
 1854 0020 5C42     		rsbs	r4, r3, #0
 1855 0022 C4F30A04 		ubfx	r4, r4, #0, #11
 1856 0026 C3F30A03 		ubfx	r3, r3, #0, #11
 1857 002a 58BF     		it	pl
 1858 002c 6342     		rsbpl	r3, r4, #0
 1859              		.loc 1 333 0 discriminator 3
 1860 002e 8142     		cmp	r1, r0
 1861              		.loc 1 335 0 discriminator 3
 1862 0030 1360     		str	r3, [r2]
 1863              		.loc 1 333 0 discriminator 3
 1864 0032 ECD1     		bne	.L105
 1865              	.LBE25:
 1866              		.loc 1 337 0
 1867 0034 70BC     		pop	{r4, r5, r6}
 1868              		.cfi_restore 6
 1869              		.cfi_restore 5
 1870              		.cfi_restore 4
 1871              		.cfi_def_cfa_offset 0
 1872 0036 7047     		bx	lr
 1873              	.LVL137:
 1874              	.L108:
 1875 0038 7047     		bx	lr
 1876              	.L112:
 1877 003a 00BF     		.align	2
 1878              	.L111:
 1879 003c 04200000 		.word	m_sample_buffer+8196
 1880 0040 00000000 		.word	m_sample_buffer
 1881              		.cfi_endproc
ARM GAS  /tmp/cceEElat.s 			page 34


 1882              	.LFE263:
 1883              		.size	gpdrive_fill_buffer, .-gpdrive_fill_buffer
 1884              		.section	.text.gpdrive_add_buffer_sample,"ax",%progbits
 1885              		.align	1
 1886              		.p2align 4,,15
 1887              		.global	gpdrive_add_buffer_sample
 1888              		.syntax unified
 1889              		.thumb
 1890              		.thumb_func
 1891              		.fpu fpv4-sp-d16
 1892              		.type	gpdrive_add_buffer_sample, %function
 1893              	gpdrive_add_buffer_sample:
 1894              	.LFB264:
 1895              		.loc 1 339 0
 1896              		.cfi_startproc
 1897              		@ args = 0, pretend = 0, frame = 0
 1898              		@ frame_needed = 0, uses_anonymous_args = 0
 1899              		@ link register save eliminated.
 1900              	.LVL138:
 1901              		.loc 1 340 0
 1902 0000 094A     		ldr	r2, .L114
 1903 0002 42F20401 		movw	r1, #8196
 1904 0006 5358     		ldr	r3, [r2, r1]
 1905 0008 581C     		adds	r0, r3, #1
 1906 000a 5050     		str	r0, [r2, r1]
 1907 000c 02EB8303 		add	r3, r2, r3, lsl #2
 1908 0010 83ED000A 		vstr.32	s0, [r3]
 1909              		.loc 1 341 0
 1910 0014 5358     		ldr	r3, [r2, r1]
 1911 0016 5842     		rsbs	r0, r3, #0
 1912 0018 C0F30A00 		ubfx	r0, r0, #0, #11
 1913 001c C3F30A03 		ubfx	r3, r3, #0, #11
 1914 0020 58BF     		it	pl
 1915 0022 4342     		rsbpl	r3, r0, #0
 1916 0024 5350     		str	r3, [r2, r1]
 1917              		.loc 1 342 0
 1918 0026 7047     		bx	lr
 1919              	.L115:
 1920              		.align	2
 1921              	.L114:
 1922 0028 00000000 		.word	m_sample_buffer
 1923              		.cfi_endproc
 1924              	.LFE264:
 1925              		.size	gpdrive_add_buffer_sample, .-gpdrive_add_buffer_sample
 1926              		.section	.text.gpdrive_add_buffer_sample_int,"ax",%progbits
 1927              		.align	1
 1928              		.p2align 4,,15
 1929              		.global	gpdrive_add_buffer_sample_int
 1930              		.syntax unified
 1931              		.thumb
 1932              		.thumb_func
 1933              		.fpu fpv4-sp-d16
 1934              		.type	gpdrive_add_buffer_sample_int, %function
 1935              	gpdrive_add_buffer_sample_int:
 1936              	.LFB265:
 1937              		.loc 1 344 0
 1938              		.cfi_startproc
ARM GAS  /tmp/cceEElat.s 			page 35


 1939              		@ args = 0, pretend = 0, frame = 0
 1940              		@ frame_needed = 0, uses_anonymous_args = 0
 1941              		@ link register save eliminated.
 1942              	.LVL139:
 1943              		.loc 1 345 0
 1944 0000 0E4A     		ldr	r2, .L117
 1945 0002 0F4B     		ldr	r3, .L117+4
 1946 0004 42F20401 		movw	r1, #8196
 1947 0008 07EE900A 		vmov	s15, r0	@ int
 1948 000c 93ED007A 		vldr.32	s14, [r3]
 1949 0010 5358     		ldr	r3, [r2, r1]
 1950 0012 F8EEE77A 		vcvt.f32.s32	s15, s15
 1951 0016 581C     		adds	r0, r3, #1
 1952              	.LVL140:
 1953 0018 67EE877A 		vmul.f32	s15, s15, s14
 1954 001c 5050     		str	r0, [r2, r1]
 1955 001e 02EB8303 		add	r3, r2, r3, lsl #2
 1956 0022 C3ED007A 		vstr.32	s15, [r3]
 1957              		.loc 1 346 0
 1958 0026 5358     		ldr	r3, [r2, r1]
 1959 0028 5842     		rsbs	r0, r3, #0
 1960 002a C0F30A00 		ubfx	r0, r0, #0, #11
 1961 002e C3F30A03 		ubfx	r3, r3, #0, #11
 1962 0032 58BF     		it	pl
 1963 0034 4342     		rsbpl	r3, r0, #0
 1964 0036 5350     		str	r3, [r2, r1]
 1965              		.loc 1 347 0
 1966 0038 7047     		bx	lr
 1967              	.L118:
 1968 003a 00BF     		.align	2
 1969              	.L117:
 1970 003c 00000000 		.word	m_sample_buffer
 1971 0040 00000000 		.word	.LANCHOR8
 1972              		.cfi_endproc
 1973              	.LFE265:
 1974              		.size	gpdrive_add_buffer_sample_int, .-gpdrive_add_buffer_sample_int
 1975              		.section	.text.gpdrive_set_buffer_int_scale,"ax",%progbits
 1976              		.align	1
 1977              		.p2align 4,,15
 1978              		.global	gpdrive_set_buffer_int_scale
 1979              		.syntax unified
 1980              		.thumb
 1981              		.thumb_func
 1982              		.fpu fpv4-sp-d16
 1983              		.type	gpdrive_set_buffer_int_scale, %function
 1984              	gpdrive_set_buffer_int_scale:
 1985              	.LFB266:
 1986              		.loc 1 349 0
 1987              		.cfi_startproc
 1988              		@ args = 0, pretend = 0, frame = 0
 1989              		@ frame_needed = 0, uses_anonymous_args = 0
 1990              		@ link register save eliminated.
 1991              	.LVL141:
 1992              		.loc 1 350 0
 1993 0000 014B     		ldr	r3, .L120
 1994 0002 83ED000A 		vstr.32	s0, [r3]
 1995              		.loc 1 351 0
ARM GAS  /tmp/cceEElat.s 			page 36


 1996 0006 7047     		bx	lr
 1997              	.L121:
 1998              		.align	2
 1999              	.L120:
 2000 0008 00000000 		.word	.LANCHOR8
 2001              		.cfi_endproc
 2002              	.LFE266:
 2003              		.size	gpdrive_set_buffer_int_scale, .-gpdrive_set_buffer_int_scale
 2004              		.section	.text.gpdrive_set_switching_frequency,"ax",%progbits
 2005              		.align	1
 2006              		.p2align 4,,15
 2007              		.global	gpdrive_set_switching_frequency
 2008              		.syntax unified
 2009              		.thumb
 2010              		.thumb_func
 2011              		.fpu fpv4-sp-d16
 2012              		.type	gpdrive_set_switching_frequency, %function
 2013              	gpdrive_set_switching_frequency:
 2014              	.LFB267:
 2015              		.loc 1 353 0
 2016              		.cfi_startproc
 2017              		@ args = 0, pretend = 0, frame = 0
 2018              		@ frame_needed = 0, uses_anonymous_args = 0
 2019              		@ link register save eliminated.
 2020              	.LVL142:
 2021              		.loc 1 354 0
 2022 0000 094B     		ldr	r3, .L123
 2023              		.loc 1 355 0
 2024 0002 0A48     		ldr	r0, .L123+4
 2025              		.loc 1 354 0
 2026 0004 83ED000A 		vstr.32	s0, [r3]
 2027              		.loc 1 355 0
 2028 0008 D3ED007A 		vldr.32	s15, [r3]
 2029              		.loc 1 356 0
 2030 000c 0849     		ldr	r1, .L123+8
 2031              		.loc 1 355 0
 2032 000e 094A     		ldr	r2, .L123+12
 2033 0010 FDEEE77A 		vcvt.s32.f32	s15, s15
 2034 0014 17EE903A 		vmov	r3, s15	@ int
 2035 0018 92FBF3F3 		sdiv	r3, r2, r3
 2036 001c C362     		str	r3, [r0, #44]
 2037              		.loc 1 356 0
 2038 001e 91ED000A 		vldr.32	s0, [r1]
 2039              	.LVL143:
 2040 0022 FFF7FEBF 		b	set_modulation
 2041              	.LVL144:
 2042              	.L124:
 2043 0026 00BF     		.align	2
 2044              	.L123:
 2045 0028 00000000 		.word	.LANCHOR5
 2046 002c 00000140 		.word	1073807360
 2047 0030 00000000 		.word	.LANCHOR1
 2048 0034 007A030A 		.word	168000000
 2049              		.cfi_endproc
 2050              	.LFE267:
 2051              		.size	gpdrive_set_switching_frequency, .-gpdrive_set_switching_frequency
 2052              		.section	.text.gpdrive_buffer_size_left,"ax",%progbits
ARM GAS  /tmp/cceEElat.s 			page 37


 2053              		.align	1
 2054              		.p2align 4,,15
 2055              		.global	gpdrive_buffer_size_left
 2056              		.syntax unified
 2057              		.thumb
 2058              		.thumb_func
 2059              		.fpu fpv4-sp-d16
 2060              		.type	gpdrive_buffer_size_left, %function
 2061              	gpdrive_buffer_size_left:
 2062              	.LFB268:
 2063              		.loc 1 359 0
 2064              		.cfi_startproc
 2065              		@ args = 0, pretend = 0, frame = 0
 2066              		@ frame_needed = 0, uses_anonymous_args = 0
 2067              		@ link register save eliminated.
 2068              		.loc 1 360 0
 2069 0000 0B4B     		ldr	r3, .L130
 2070 0002 42F20402 		movw	r2, #8196
 2071 0006 03F50051 		add	r1, r3, #8192
 2072              		.loc 1 359 0
 2073 000a 10B4     		push	{r4}
 2074              		.cfi_def_cfa_offset 4
 2075              		.cfi_offset 4, -4
 2076              		.loc 1 360 0
 2077 000c 9C58     		ldr	r4, [r3, r2]
 2078 000e 0868     		ldr	r0, [r1]
 2079              		.loc 1 362 0
 2080 0010 8442     		cmp	r4, r0
 2081 0012 07DC     		bgt	.L129
 2082              		.loc 1 362 0 is_stmt 0 discriminator 2
 2083 0014 0868     		ldr	r0, [r1]
 2084 0016 9B58     		ldr	r3, [r3, r2]
 2085              		.loc 1 363 0 is_stmt 1 discriminator 2
 2086 0018 5DF8044B 		ldr	r4, [sp], #4
 2087              		.cfi_remember_state
 2088              		.cfi_restore 4
 2089              		.cfi_def_cfa_offset 0
 2090              		.loc 1 362 0 discriminator 2
 2091 001c C0F50060 		rsb	r0, r0, #2048
 2092 0020 1844     		add	r0, r0, r3
 2093              		.loc 1 363 0 discriminator 2
 2094 0022 7047     		bx	lr
 2095              	.L129:
 2096              		.cfi_restore_state
 2097              	.LBB28:
 2098              	.LBB29:
 2099              		.loc 1 361 0
 2100 0024 9858     		ldr	r0, [r3, r2]
 2101 0026 0B68     		ldr	r3, [r1]
 2102              	.LBE29:
 2103              	.LBE28:
 2104              		.loc 1 363 0
 2105 0028 5DF8044B 		ldr	r4, [sp], #4
 2106              		.cfi_restore 4
 2107              		.cfi_def_cfa_offset 0
 2108              	.LBB31:
 2109              	.LBB30:
ARM GAS  /tmp/cceEElat.s 			page 38


 2110              		.loc 1 362 0
 2111 002c C01A     		subs	r0, r0, r3
 2112              	.LBE30:
 2113              	.LBE31:
 2114              		.loc 1 363 0
 2115 002e 7047     		bx	lr
 2116              	.L131:
 2117              		.align	2
 2118              	.L130:
 2119 0030 00000000 		.word	m_sample_buffer
 2120              		.cfi_endproc
 2121              	.LFE268:
 2122              		.size	gpdrive_buffer_size_left, .-gpdrive_buffer_size_left
 2123              		.section	.text.timer_thread,"ax",%progbits
 2124              		.align	1
 2125              		.p2align 4,,15
 2126              		.syntax unified
 2127              		.thumb
 2128              		.thumb_func
 2129              		.fpu fpv4-sp-d16
 2130              		.type	timer_thread, %function
 2131              	timer_thread:
 2132              	.LFB278:
 2133              		.loc 1 616 0
 2134              		.cfi_startproc
 2135              		@ args = 0, pretend = 0, frame = 0
 2136              		@ frame_needed = 0, uses_anonymous_args = 0
 2137              	.LVL145:
 2138 0000 2DE9F041 		push	{r4, r5, r6, r7, r8, lr}
 2139              		.cfi_def_cfa_offset 24
 2140              		.cfi_offset 4, -24
 2141              		.cfi_offset 5, -20
 2142              		.cfi_offset 6, -16
 2143              		.cfi_offset 7, -12
 2144              		.cfi_offset 8, -8
 2145              		.cfi_offset 14, -4
 2146              	.LBB32:
 2147              	.LBB33:
 2148              		.file 2 "ChibiOS_3.0.2/os/rt/include/chregistry.h"
 2149              		.loc 2 135 0
 2150 0004 154B     		ldr	r3, .L143
 2151              	.LBE33:
 2152              	.LBE32:
 2153              	.LBB36:
 2154              		.loc 1 622 0
 2155 0006 164C     		ldr	r4, .L143+4
 2156              	.LBE36:
 2157              	.LBB37:
 2158              	.LBB34:
 2159              		.loc 2 135 0
 2160 0008 9A69     		ldr	r2, [r3, #24]
 2161              	.LBE34:
 2162              	.LBE37:
 2163              	.LBB38:
 2164              		.loc 1 622 0
 2165 000a 2378     		ldrb	r3, [r4]	@ zero_extendqisi2
 2166              	.LBE38:
ARM GAS  /tmp/cceEElat.s 			page 39


 2167              	.LBB39:
 2168              	.LBB35:
 2169              		.loc 2 135 0
 2170 000c 1549     		ldr	r1, .L143+8
 2171 000e 9161     		str	r1, [r2, #24]
 2172              	.LBE35:
 2173              	.LBE39:
 2174              	.LBB40:
 2175              		.loc 1 622 0
 2176 0010 83B9     		cbnz	r3, .L137
 2177 0012 154D     		ldr	r5, .L143+12
 2178              		.loc 1 629 0
 2179 0014 154F     		ldr	r7, .L143+16
 2180 0016 03F0FF06 		and	r6, r3, #255
 2181              		.loc 1 633 0
 2182 001a 4FF00108 		mov	r8, #1
 2183              	.LVL146:
 2184              	.L133:
 2185              		.loc 1 628 0
 2186 001e FFF7FEFF 		bl	gpdrive_buffer_size_left
 2187              	.LVL147:
 2188 0022 0028     		cmp	r0, #0
 2189 0024 0ADC     		bgt	.L141
 2190              	.L134:
 2191              		.loc 1 635 0
 2192 0026 2E70     		strb	r6, [r5]
 2193              	.L136:
 2194              		.loc 1 638 0
 2195 0028 0A20     		movs	r0, #10
 2196 002a FFF7FEFF 		bl	chThdSleep
 2197              	.LVL148:
 2198              		.loc 1 622 0
 2199 002e 2378     		ldrb	r3, [r4]	@ zero_extendqisi2
 2200 0030 002B     		cmp	r3, #0
 2201 0032 F4D0     		beq	.L133
 2202              	.L137:
 2203              		.loc 1 623 0
 2204 0034 0023     		movs	r3, #0
 2205 0036 2370     		strb	r3, [r4]
 2206              	.LBE40:
 2207              		.loc 1 640 0
 2208 0038 BDE8F081 		pop	{r4, r5, r6, r7, r8, pc}
 2209              	.L141:
 2210              	.LBB41:
 2211              		.loc 1 629 0 discriminator 1
 2212 003c FFF7FEFF 		bl	gpdrive_buffer_size_left
 2213              	.LVL149:
 2214 0040 3B68     		ldr	r3, [r7]
 2215 0042 D3F83831 		ldr	r3, [r3, #312]
 2216              		.loc 1 628 0 discriminator 1
 2217 0046 9842     		cmp	r0, r3
 2218 0048 EDDA     		bge	.L134
 2219              		.loc 1 630 0
 2220 004a 2B78     		ldrb	r3, [r5]	@ zero_extendqisi2
 2221 004c 13B1     		cbz	r3, .L142
 2222              	.L135:
 2223              		.loc 1 633 0
ARM GAS  /tmp/cceEElat.s 			page 40


 2224 004e 85F80080 		strb	r8, [r5]
 2225 0052 E9E7     		b	.L136
 2226              	.L142:
 2227              		.loc 1 631 0
 2228 0054 FFF7FEFF 		bl	commands_send_gpd_buffer_notify
 2229              	.LVL150:
 2230 0058 F9E7     		b	.L135
 2231              	.L144:
 2232 005a 00BF     		.align	2
 2233              	.L143:
 2234 005c 00000000 		.word	ch
 2235 0060 00000000 		.word	.LANCHOR20
 2236 0064 00000000 		.word	.LC0
 2237 0068 00000000 		.word	.LANCHOR27
 2238 006c 00000000 		.word	.LANCHOR0
 2239              	.LBE41:
 2240              		.cfi_endproc
 2241              	.LFE278:
 2242              		.size	timer_thread, .-timer_thread
 2243              		.section	.text.gpdrive_set_mode,"ax",%progbits
 2244              		.align	1
 2245              		.p2align 4,,15
 2246              		.global	gpdrive_set_mode
 2247              		.syntax unified
 2248              		.thumb
 2249              		.thumb_func
 2250              		.fpu fpv4-sp-d16
 2251              		.type	gpdrive_set_mode, %function
 2252              	gpdrive_set_mode:
 2253              	.LFB269:
 2254              		.loc 1 365 0
 2255              		.cfi_startproc
 2256              		@ args = 0, pretend = 0, frame = 0
 2257              		@ frame_needed = 0, uses_anonymous_args = 0
 2258              		@ link register save eliminated.
 2259              	.LVL151:
 2260              		.loc 1 366 0
 2261 0000 034B     		ldr	r3, .L148
 2262 0002 1870     		strb	r0, [r3]
 2263              		.loc 1 368 0
 2264 0004 1B78     		ldrb	r3, [r3]	@ zero_extendqisi2
 2265 0006 03B1     		cbz	r3, .L147
 2266              		.loc 1 371 0
 2267 0008 7047     		bx	lr
 2268              	.L147:
 2269              		.loc 1 369 0
 2270 000a FFF7FEBF 		b	stop_pwm_hw
 2271              	.LVL152:
 2272              	.L149:
 2273 000e 00BF     		.align	2
 2274              	.L148:
 2275 0010 00000000 		.word	.LANCHOR2
 2276              		.cfi_endproc
 2277              	.LFE269:
 2278              		.size	gpdrive_set_mode, .-gpdrive_set_mode
 2279              		.section	.text.gpdrive_get_current,"ax",%progbits
 2280              		.align	1
ARM GAS  /tmp/cceEElat.s 			page 41


 2281              		.p2align 4,,15
 2282              		.global	gpdrive_get_current
 2283              		.syntax unified
 2284              		.thumb
 2285              		.thumb_func
 2286              		.fpu fpv4-sp-d16
 2287              		.type	gpdrive_get_current, %function
 2288              	gpdrive_get_current:
 2289              	.LFB270:
 2290              		.loc 1 373 0
 2291              		.cfi_startproc
 2292              		@ args = 0, pretend = 0, frame = 0
 2293              		@ frame_needed = 0, uses_anonymous_args = 0
 2294              		@ link register save eliminated.
 2295              		.loc 1 374 0
 2296 0000 014B     		ldr	r3, .L151
 2297 0002 93ED000A 		vldr.32	s0, [r3]
 2298              		.loc 1 375 0
 2299 0006 7047     		bx	lr
 2300              	.L152:
 2301              		.align	2
 2302              	.L151:
 2303 0008 00000000 		.word	.LANCHOR6
 2304              		.cfi_endproc
 2305              	.LFE270:
 2306              		.size	gpdrive_get_current, .-gpdrive_get_current
 2307              		.section	.text.gpdrive_get_current_filtered,"ax",%progbits
 2308              		.align	1
 2309              		.p2align 4,,15
 2310              		.global	gpdrive_get_current_filtered
 2311              		.syntax unified
 2312              		.thumb
 2313              		.thumb_func
 2314              		.fpu fpv4-sp-d16
 2315              		.type	gpdrive_get_current_filtered, %function
 2316              	gpdrive_get_current_filtered:
 2317              	.LFB271:
 2318              		.loc 1 377 0
 2319              		.cfi_startproc
 2320              		@ args = 0, pretend = 0, frame = 0
 2321              		@ frame_needed = 0, uses_anonymous_args = 0
 2322              		@ link register save eliminated.
 2323              		.loc 1 378 0
 2324 0000 014B     		ldr	r3, .L154
 2325 0002 93ED000A 		vldr.32	s0, [r3]
 2326              		.loc 1 379 0
 2327 0006 7047     		bx	lr
 2328              	.L155:
 2329              		.align	2
 2330              	.L154:
 2331 0008 00000000 		.word	.LANCHOR7
 2332              		.cfi_endproc
 2333              	.LFE271:
 2334              		.size	gpdrive_get_current_filtered, .-gpdrive_get_current_filtered
 2335              		.section	.text.gpdrive_get_modulation,"ax",%progbits
 2336              		.align	1
 2337              		.p2align 4,,15
ARM GAS  /tmp/cceEElat.s 			page 42


 2338              		.global	gpdrive_get_modulation
 2339              		.syntax unified
 2340              		.thumb
 2341              		.thumb_func
 2342              		.fpu fpv4-sp-d16
 2343              		.type	gpdrive_get_modulation, %function
 2344              	gpdrive_get_modulation:
 2345              	.LFB272:
 2346              		.loc 1 381 0
 2347              		.cfi_startproc
 2348              		@ args = 0, pretend = 0, frame = 0
 2349              		@ frame_needed = 0, uses_anonymous_args = 0
 2350              		@ link register save eliminated.
 2351              		.loc 1 382 0
 2352 0000 014B     		ldr	r3, .L157
 2353 0002 93ED000A 		vldr.32	s0, [r3]
 2354              		.loc 1 383 0
 2355 0006 7047     		bx	lr
 2356              	.L158:
 2357              		.align	2
 2358              	.L157:
 2359 0008 00000000 		.word	.LANCHOR1
 2360              		.cfi_endproc
 2361              	.LFE272:
 2362              		.size	gpdrive_get_modulation, .-gpdrive_get_modulation
 2363              		.section	.text.gpdrive_get_last_adc_isr_duration,"ax",%progbits
 2364              		.align	1
 2365              		.p2align 4,,15
 2366              		.global	gpdrive_get_last_adc_isr_duration
 2367              		.syntax unified
 2368              		.thumb
 2369              		.thumb_func
 2370              		.fpu fpv4-sp-d16
 2371              		.type	gpdrive_get_last_adc_isr_duration, %function
 2372              	gpdrive_get_last_adc_isr_duration:
 2373              	.LFB273:
 2374              		.loc 1 385 0
 2375              		.cfi_startproc
 2376              		@ args = 0, pretend = 0, frame = 0
 2377              		@ frame_needed = 0, uses_anonymous_args = 0
 2378              		@ link register save eliminated.
 2379              		.loc 1 386 0
 2380 0000 014B     		ldr	r3, .L160
 2381 0002 93ED000A 		vldr.32	s0, [r3]
 2382              		.loc 1 387 0
 2383 0006 7047     		bx	lr
 2384              	.L161:
 2385              		.align	2
 2386              	.L160:
 2387 0008 00000000 		.word	.LANCHOR18
 2388              		.cfi_endproc
 2389              	.LFE273:
 2390              		.size	gpdrive_get_last_adc_isr_duration, .-gpdrive_get_last_adc_isr_duration
 2391              		.section	.bss.buffer_last.12806,"aw",%nobits
 2392              		.align	2
 2393              		.set	.LANCHOR25,. + 0
 2394              		.type	buffer_last.12806, %object
ARM GAS  /tmp/cceEElat.s 			page 43


 2395              		.size	buffer_last.12806, 4
 2396              	buffer_last.12806:
 2397 0000 00000000 		.space	4
 2398              		.section	.bss.buffer_next.12807,"aw",%nobits
 2399              		.align	2
 2400              		.set	.LANCHOR24,. + 0
 2401              		.type	buffer_next.12807, %object
 2402              		.size	buffer_next.12807, 4
 2403              	buffer_next.12807:
 2404 0000 00000000 		.space	4
 2405              		.section	.bss.interpol.12805,"aw",%nobits
 2406              		.align	2
 2407              		.set	.LANCHOR23,. + 0
 2408              		.type	interpol.12805, %object
 2409              		.size	interpol.12805, 4
 2410              	interpol.12805:
 2411 0000 00000000 		.space	4
 2412              		.section	.bss.m_buffer_int_scale,"aw",%nobits
 2413              		.align	2
 2414              		.set	.LANCHOR8,. + 0
 2415              		.type	m_buffer_int_scale, %object
 2416              		.size	m_buffer_int_scale, 4
 2417              	m_buffer_int_scale:
 2418 0000 00000000 		.space	4
 2419              		.section	.bss.m_conf,"aw",%nobits
 2420              		.align	2
 2421              		.set	.LANCHOR0,. + 0
 2422              		.type	m_conf, %object
 2423              		.size	m_conf, 4
 2424              	m_conf:
 2425 0000 00000000 		.space	4
 2426              		.section	.bss.m_curr0_offset,"aw",%nobits
 2427              		.align	2
 2428              		.set	.LANCHOR13,. + 0
 2429              		.type	m_curr0_offset, %object
 2430              		.size	m_curr0_offset, 4
 2431              	m_curr0_offset:
 2432 0000 00000000 		.space	4
 2433              		.section	.bss.m_curr0_sum,"aw",%nobits
 2434              		.align	2
 2435              		.set	.LANCHOR10,. + 0
 2436              		.type	m_curr0_sum, %object
 2437              		.size	m_curr0_sum, 4
 2438              	m_curr0_sum:
 2439 0000 00000000 		.space	4
 2440              		.section	.bss.m_curr1_offset,"aw",%nobits
 2441              		.align	2
 2442              		.set	.LANCHOR14,. + 0
 2443              		.type	m_curr1_offset, %object
 2444              		.size	m_curr1_offset, 4
 2445              	m_curr1_offset:
 2446 0000 00000000 		.space	4
 2447              		.section	.bss.m_curr1_sum,"aw",%nobits
 2448              		.align	2
 2449              		.set	.LANCHOR11,. + 0
 2450              		.type	m_curr1_sum, %object
 2451              		.size	m_curr1_sum, 4
ARM GAS  /tmp/cceEElat.s 			page 44


 2452              	m_curr1_sum:
 2453 0000 00000000 		.space	4
 2454              		.section	.bss.m_curr2_offset,"aw",%nobits
 2455              		.align	2
 2456              		.set	.LANCHOR17,. + 0
 2457              		.type	m_curr2_offset, %object
 2458              		.size	m_curr2_offset, 4
 2459              	m_curr2_offset:
 2460 0000 00000000 		.space	4
 2461              		.section	.bss.m_curr2_sum,"aw",%nobits
 2462              		.align	2
 2463              		.set	.LANCHOR16,. + 0
 2464              		.type	m_curr2_sum, %object
 2465              		.size	m_curr2_sum, 4
 2466              	m_curr2_sum:
 2467 0000 00000000 		.space	4
 2468              		.section	.bss.m_curr_samples,"aw",%nobits
 2469              		.align	2
 2470              		.set	.LANCHOR12,. + 0
 2471              		.type	m_curr_samples, %object
 2472              		.size	m_curr_samples, 4
 2473              	m_curr_samples:
 2474 0000 00000000 		.space	4
 2475              		.section	.bss.m_current_now,"aw",%nobits
 2476              		.align	2
 2477              		.set	.LANCHOR6,. + 0
 2478              		.type	m_current_now, %object
 2479              		.size	m_current_now, 4
 2480              	m_current_now:
 2481 0000 00000000 		.space	4
 2482              		.section	.bss.m_current_now_filtered,"aw",%nobits
 2483              		.align	2
 2484              		.set	.LANCHOR7,. + 0
 2485              		.type	m_current_now_filtered, %object
 2486              		.size	m_current_now_filtered, 4
 2487              	m_current_now_filtered:
 2488 0000 00000000 		.space	4
 2489              		.section	.bss.m_current_state,"aw",%nobits
 2490              		.align	2
 2491              		.set	.LANCHOR19,. + 0
 2492              		.type	m_current_state, %object
 2493              		.size	m_current_state, 12
 2494              	m_current_state:
 2495 0000 00000000 		.space	12
 2495      00000000 
 2495      00000000 
 2496              		.section	.bss.m_dccal_done,"aw",%nobits
 2497              		.set	.LANCHOR15,. + 0
 2498              		.type	m_dccal_done, %object
 2499              		.size	m_dccal_done, 1
 2500              	m_dccal_done:
 2501 0000 00       		.space	1
 2502              		.section	.bss.m_fsw_now,"aw",%nobits
 2503              		.align	2
 2504              		.set	.LANCHOR5,. + 0
 2505              		.type	m_fsw_now, %object
 2506              		.size	m_fsw_now, 4
ARM GAS  /tmp/cceEElat.s 			page 45


 2507              	m_fsw_now:
 2508 0000 00000000 		.space	4
 2509              		.section	.bss.m_init_done,"aw",%nobits
 2510              		.set	.LANCHOR4,. + 0
 2511              		.type	m_init_done, %object
 2512              		.size	m_init_done, 1
 2513              	m_init_done:
 2514 0000 00       		.space	1
 2515              		.section	.bss.m_is_running,"aw",%nobits
 2516              		.set	.LANCHOR3,. + 0
 2517              		.type	m_is_running, %object
 2518              		.size	m_is_running, 1
 2519              	m_is_running:
 2520 0000 00       		.space	1
 2521              		.section	.bss.m_last_adc_isr_duration,"aw",%nobits
 2522              		.align	2
 2523              		.set	.LANCHOR18,. + 0
 2524              		.type	m_last_adc_isr_duration, %object
 2525              		.size	m_last_adc_isr_duration, 4
 2526              	m_last_adc_isr_duration:
 2527 0000 00000000 		.space	4
 2528              		.section	.bss.m_mod_now,"aw",%nobits
 2529              		.align	2
 2530              		.set	.LANCHOR1,. + 0
 2531              		.type	m_mod_now, %object
 2532              		.size	m_mod_now, 4
 2533              	m_mod_now:
 2534 0000 00000000 		.space	4
 2535              		.section	.bss.m_output_mode,"aw",%nobits
 2536              		.set	.LANCHOR2,. + 0
 2537              		.type	m_output_mode, %object
 2538              		.size	m_output_mode, 1
 2539              	m_output_mode:
 2540 0000 00       		.space	1
 2541              		.section	.bss.m_output_now,"aw",%nobits
 2542              		.align	2
 2543              		.set	.LANCHOR9,. + 0
 2544              		.type	m_output_now, %object
 2545              		.size	m_output_now, 4
 2546              	m_output_now:
 2547 0000 00000000 		.space	4
 2548              		.section	.bss.m_sample_buffer,"aw",%nobits
 2549              		.align	2
 2550              		.type	m_sample_buffer, %object
 2551              		.size	m_sample_buffer, 8200
 2552              	m_sample_buffer:
 2553 0000 00000000 		.space	8200
 2553      00000000 
 2553      00000000 
 2553      00000000 
 2553      00000000 
 2554              		.section	.bss.timer_thd_stop,"aw",%nobits
 2555              		.set	.LANCHOR20,. + 0
 2556              		.type	timer_thd_stop, %object
 2557              		.size	timer_thd_stop, 1
 2558              	timer_thd_stop:
 2559 0000 00       		.space	1
ARM GAS  /tmp/cceEElat.s 			page 46


 2560              		.section	.bss.timer_thread_wa,"aw",%nobits
 2561              		.align	3
 2562              		.set	.LANCHOR21,. + 0
 2563              		.type	timer_thread_wa, %object
 2564              		.size	timer_thread_wa, 2456
 2565              	timer_thread_wa:
 2566 0000 00000000 		.space	2456
 2566      00000000 
 2566      00000000 
 2566      00000000 
 2566      00000000 
 2567              		.section	.bss.wrong_voltage_iterations.12803,"aw",%nobits
 2568              		.align	2
 2569              		.set	.LANCHOR22,. + 0
 2570              		.type	wrong_voltage_iterations.12803, %object
 2571              		.size	wrong_voltage_iterations.12803, 4
 2572              	wrong_voltage_iterations.12803:
 2573 0000 00000000 		.space	4
 2574              		.section	.data.buffer_empty_before.12813,"aw",%progbits
 2575              		.set	.LANCHOR27,. + 0
 2576              		.type	buffer_empty_before.12813, %object
 2577              		.size	buffer_empty_before.12813, 1
 2578              	buffer_empty_before.12813:
 2579 0000 01       		.byte	1
 2580              		.section	.data.buffer_was_empty.12804,"aw",%progbits
 2581              		.set	.LANCHOR26,. + 0
 2582              		.type	buffer_was_empty.12804, %object
 2583              		.size	buffer_was_empty.12804, 1
 2584              	buffer_was_empty.12804:
 2585 0000 01       		.byte	1
 2586              		.section	.rodata.timer_thread.str1.4,"aMS",%progbits,1
 2587              		.align	2
 2588              	.LC0:
 2589 0000 67706472 		.ascii	"gpdrive timer\000"
 2589      69766520 
 2589      74696D65 
 2589      7200
 2590              		.text
 2591              	.Letext0:
 2592              		.file 3 "/usr/arm-none-eabi/include/machine/_default_types.h"
 2593              		.file 4 "/usr/arm-none-eabi/include/sys/_stdint.h"
 2594              		.file 5 "/usr/lib/gcc/arm-none-eabi/7.3.1/include/stddef.h"
 2595              		.file 6 "ChibiOS_3.0.2/os/rt/ports/ARMCMx/compilers/GCC/chtypes.h"
 2596              		.file 7 "ChibiOS_3.0.2/os/rt/include/chsystypes.h"
 2597              		.file 8 "ChibiOS_3.0.2/os/rt/include/chschd.h"
 2598              		.file 9 "ChibiOS_3.0.2/os/ext/CMSIS/include/core_cm4.h"
 2599              		.file 10 "ChibiOS_3.0.2/os/ext/CMSIS/ST/system_stm32f4xx.h"
 2600              		.file 11 "ChibiOS_3.0.2/os/ext/CMSIS/ST/stm32f407xx.h"
 2601              		.file 12 "ChibiOS_3.0.2/os/ext/CMSIS/ST/stm32f4xx.h"
 2602              		.file 13 "ChibiOS_3.0.2/os/rt/ports/ARMCMx/chcore.h"
 2603              		.file 14 "ChibiOS_3.0.2/os/rt/ports/ARMCMx/chcore_v7m.h"
 2604              		.file 15 "ChibiOS_3.0.2/os/rt/include/chtm.h"
 2605              		.file 16 "ChibiOS_3.0.2/os/rt/include/chsem.h"
 2606              		.file 17 "ChibiOS_3.0.2/os/rt/include/chmtx.h"
 2607              		.file 18 "ChibiOS_3.0.2/os/rt/include/chevents.h"
 2608              		.file 19 "ChibiOS_3.0.2/os/rt/include/chqueues.h"
 2609              		.file 20 "datatypes.h"
ARM GAS  /tmp/cceEElat.s 			page 47


 2610              		.file 21 "ChibiOS_3.0.2/ext/stdperiph_stm32f4/inc/stm32f4xx_dma.h"
 2611              		.file 22 "ChibiOS_3.0.2/ext/stdperiph_stm32f4/inc/stm32f4xx_adc.h"
 2612              		.file 23 "ChibiOS_3.0.2/ext/stdperiph_stm32f4/inc/stm32f4xx_tim.h"
 2613              		.file 24 "conf_general.h"
 2614              		.file 25 "ChibiOS_3.0.2/os/hal/ports/STM32/STM32F4xx/stm32_dma.h"
 2615              		.file 26 "ChibiOS_3.0.2/os/hal/ports/STM32/LLD/GPIOv2/pal_lld.h"
 2616              		.file 27 "ChibiOS_3.0.2/os/hal/include/can.h"
 2617              		.file 28 "ChibiOS_3.0.2/os/hal/ports/STM32/LLD/can_lld.h"
 2618              		.file 29 "ChibiOS_3.0.2/os/hal/include/i2c.h"
 2619              		.file 30 "ChibiOS_3.0.2/os/hal/ports/STM32/LLD/I2Cv1/i2c_lld.h"
 2620              		.file 31 "ChibiOS_3.0.2/os/hal/include/icu.h"
 2621              		.file 32 "ChibiOS_3.0.2/os/hal/ports/STM32/LLD/TIMv1/icu_lld.h"
 2622              		.file 33 "ChibiOS_3.0.2/os/hal/ports/STM32/LLD/TIMv1/stm32_tim.h"
 2623              		.file 34 "ChibiOS_3.0.2/os/hal/include/serial.h"
 2624              		.file 35 "ChibiOS_3.0.2/os/hal/ports/STM32/LLD/USARTv1/serial_lld.h"
 2625              		.file 36 "ChibiOS_3.0.2/os/hal/include/spi.h"
 2626              		.file 37 "ChibiOS_3.0.2/os/hal/ports/STM32/LLD/SPIv1/spi_lld.h"
 2627              		.file 38 "ChibiOS_3.0.2/os/hal/include/usb.h"
 2628              		.file 39 "ChibiOS_3.0.2/os/hal/ports/STM32/LLD/OTGv1/usb_lld.h"
 2629              		.file 40 "ChibiOS_3.0.2/os/hal/ports/STM32/LLD/OTGv1/stm32_otg.h"
 2630              		.file 41 "timeout.h"
 2631              		.file 42 "mc_interface.h"
 2632              		.file 43 "/usr/arm-none-eabi/include/sys/lock.h"
 2633              		.file 44 "/usr/arm-none-eabi/include/sys/_types.h"
 2634              		.file 45 "/usr/arm-none-eabi/include/sys/reent.h"
 2635              		.file 46 "/usr/arm-none-eabi/include/math.h"
 2636              		.file 47 "/usr/arm-none-eabi/include/stdlib.h"
 2637              		.file 48 "ChibiOS_3.0.2/os/rt/include/chthreads.h"
 2638              		.file 49 "commands.h"
 2639              		.file 50 "utils.h"
 2640              		.file 51 "timer.h"
 2641              		.file 52 "ledpwm.h"
 2642              		.file 53 "ChibiOS_3.0.2/os/hal/ports/common/ARMCMx/nvic.h"
 2643              		.file 54 "hwconf/drv8350.h"
 2644              		.file 55 "ChibiOS_3.0.2/ext/stdperiph_stm32f4/inc/stm32f4xx_rcc.h"
 2645              		.file 56 "hwconf/hw.h"
 2646              		.file 57 "<built-in>"