ARM GAS  /tmp/cczdPyPs.s 			page 1


   1              		.cpu cortex-m4
   2              		.eabi_attribute 27, 1
   3              		.eabi_attribute 28, 1
   4              		.eabi_attribute 20, 1
   5              		.eabi_attribute 21, 1
   6              		.eabi_attribute 23, 3
   7              		.eabi_attribute 24, 1
   8              		.eabi_attribute 25, 1
   9              		.eabi_attribute 26, 1
  10              		.eabi_attribute 30, 2
  11              		.eabi_attribute 34, 1
  12              		.eabi_attribute 18, 4
  13              		.file	"icm20948.c"
  14              		.text
  15              	.Ltext0:
  16              		.cfi_sections	.debug_frame
  17              		.section	.text.read_single_reg,"ax",%progbits
  18              		.align	1
  19              		.p2align 4,,15
  20              		.syntax unified
  21              		.thumb
  22              		.thumb_func
  23              		.fpu fpv4-sp-d16
  24              		.type	read_single_reg, %function
  25              	read_single_reg:
  26              	.LFB264:
  27              		.file 1 "imu/icm20948.c"
  28              		.loc 1 137 0
  29              		.cfi_startproc
  30              		@ args = 0, pretend = 0, frame = 8
  31              		@ frame_needed = 0, uses_anonymous_args = 0
  32              	.LVL0:
  33 0000 30B5     		push	{r4, r5, lr}
  34              		.cfi_def_cfa_offset 12
  35              		.cfi_offset 4, -12
  36              		.cfi_offset 5, -8
  37              		.cfi_offset 14, -4
  38 0002 85B0     		sub	sp, sp, #20
  39              		.cfi_def_cfa_offset 32
  40              		.loc 1 142 0
  41 0004 0579     		ldrb	r5, [r0, #4]	@ zero_extendqisi2
  42 0006 0068     		ldr	r0, [r0]
  43              	.LVL1:
  44              		.loc 1 141 0
  45 0008 04AA     		add	r2, sp, #16
  46              		.loc 1 142 0
  47 000a 0123     		movs	r3, #1
  48 000c 02AC     		add	r4, sp, #8
  49              		.loc 1 141 0
  50 000e 02F8041D 		strb	r1, [r2, #-4]!
  51              		.loc 1 142 0
  52 0012 2946     		mov	r1, r5
  53              	.LVL2:
  54 0014 CDE90043 		strd	r4, r3, [sp]
  55 0018 FFF7FEFF 		bl	i2c_bb_tx_rx
  56              	.LVL3:
  57              		.loc 1 144 0
ARM GAS  /tmp/cczdPyPs.s 			page 2


  58 001c 08B1     		cbz	r0, .L2
  59              		.loc 1 145 0
  60 001e 9DF80800 		ldrb	r0, [sp, #8]	@ zero_extendqisi2
  61              	.LVL4:
  62              	.L2:
  63              		.loc 1 149 0
  64 0022 05B0     		add	sp, sp, #20
  65              		.cfi_def_cfa_offset 12
  66              		@ sp needed
  67 0024 30BD     		pop	{r4, r5, pc}
  68              		.cfi_endproc
  69              	.LFE264:
  70              		.size	read_single_reg, .-read_single_reg
  71 0026 00BF     		.section	.text.reset_init_icm,"ax",%progbits
  72              		.align	1
  73              		.p2align 4,,15
  74              		.syntax unified
  75              		.thumb
  76              		.thumb_func
  77              		.fpu fpv4-sp-d16
  78              		.type	reset_init_icm, %function
  79              	reset_init_icm:
  80              	.LFB265:
  81              		.loc 1 167 0
  82              		.cfi_startproc
  83              		@ args = 0, pretend = 0, frame = 8
  84              		@ frame_needed = 0, uses_anonymous_args = 0
  85              	.LVL5:
  86 0000 2DE9F041 		push	{r4, r5, r6, r7, r8, lr}
  87              		.cfi_def_cfa_offset 24
  88              		.cfi_offset 4, -24
  89              		.cfi_offset 5, -20
  90              		.cfi_offset 6, -16
  91              		.cfi_offset 7, -12
  92              		.cfi_offset 8, -8
  93              		.cfi_offset 14, -4
  94 0004 0446     		mov	r4, r0
  95 0006 84B0     		sub	sp, sp, #16
  96              		.cfi_def_cfa_offset 40
  97              		.loc 1 168 0
  98 0008 0068     		ldr	r0, [r0]
  99              	.LVL6:
 100 000a FFF7FEFF 		bl	i2c_bb_restore_bus
 101              	.LVL7:
 102              	.LBB112:
 103              	.LBB113:
 104              		.loc 1 118 0
 105 000e 04AE     		add	r6, sp, #16
 106              	.LBE113:
 107              	.LBE112:
 108              		.loc 1 170 0
 109 0010 0120     		movs	r0, #1
 110 0012 FFF7FEFF 		bl	chThdSleep
 111              	.LVL8:
 112              	.LBB115:
 113              	.LBB114:
 114              		.loc 1 118 0
ARM GAS  /tmp/cczdPyPs.s 			page 3


 115 0016 7F23     		movs	r3, #127
 116 0018 26F8043D 		strh	r3, [r6, #-4]!	@ movhi
 117              		.loc 1 121 0
 118 001c 0025     		movs	r5, #0
 119 001e 2179     		ldrb	r1, [r4, #4]	@ zero_extendqisi2
 120 0020 2068     		ldr	r0, [r4]
 121 0022 3246     		mov	r2, r6
 122 0024 0223     		movs	r3, #2
 123 0026 CDE90055 		strd	r5, r5, [sp]
 124 002a FFF7FEFF 		bl	i2c_bb_tx_rx
 125              	.LVL9:
 126              	.LBE114:
 127              	.LBE115:
 128              		.loc 1 179 0
 129 002e 2946     		mov	r1, r5
 130 0030 2046     		mov	r0, r4
 131 0032 FFF7FEFF 		bl	read_single_reg
 132              	.LVL10:
 133              		.loc 1 180 0
 134 0036 EA28     		cmp	r0, #234
 135              		.loc 1 179 0
 136 0038 0746     		mov	r7, r0
 137              	.LVL11:
 138 003a 2179     		ldrb	r1, [r4, #4]	@ zero_extendqisi2
 139              		.loc 1 180 0
 140 003c 17D0     		beq	.L8
 141              		.loc 1 180 0 is_stmt 0 discriminator 1
 142 003e E128     		cmp	r0, #225
 143 0040 15D0     		beq	.L8
 144              		.loc 1 181 0 is_stmt 1
 145 0042 6929     		cmp	r1, #105
 146              		.loc 1 182 0
 147 0044 0CBF     		ite	eq
 148 0046 6821     		moveq	r1, #104
 149              		.loc 1 184 0
 150 0048 6921     		movne	r1, #105
 151              	.LBB116:
 152              	.LBB117:
 153              		.loc 1 121 0
 154 004a 0025     		movs	r5, #0
 155              	.LBE117:
 156              	.LBE116:
 157              		.loc 1 184 0
 158 004c 2171     		strb	r1, [r4, #4]
 159              	.LVL12:
 160              	.LBB119:
 161              	.LBB118:
 162              		.loc 1 121 0
 163 004e 2068     		ldr	r0, [r4]
 164              	.LVL13:
 165              		.loc 1 118 0
 166 0050 7F27     		movs	r7, #127
 167              		.loc 1 121 0
 168 0052 0223     		movs	r3, #2
 169 0054 3246     		mov	r2, r6
 170 0056 CDE90055 		strd	r5, r5, [sp]
 171              		.loc 1 118 0
ARM GAS  /tmp/cczdPyPs.s 			page 4


 172 005a ADF80C70 		strh	r7, [sp, #12]	@ movhi
 173              		.loc 1 121 0
 174 005e FFF7FEFF 		bl	i2c_bb_tx_rx
 175              	.LVL14:
 176              	.LBE118:
 177              	.LBE119:
 178              		.loc 1 191 0
 179 0062 2946     		mov	r1, r5
 180 0064 2046     		mov	r0, r4
 181 0066 FFF7FEFF 		bl	read_single_reg
 182              	.LVL15:
 183 006a 2179     		ldrb	r1, [r4, #4]	@ zero_extendqisi2
 184 006c 0746     		mov	r7, r0
 185              	.LVL16:
 186              	.L8:
 187              	.LBB120:
 188              	.LBB121:
 189              		.loc 1 121 0
 190 006e 0025     		movs	r5, #0
 191              		.loc 1 118 0
 192 0070 4FF4837C 		mov	ip, #262
 193              		.loc 1 121 0
 194 0074 2068     		ldr	r0, [r4]
 195              		.loc 1 118 0
 196 0076 ADF80CC0 		strh	ip, [sp, #12]	@ movhi
 197              		.loc 1 121 0
 198 007a 0223     		movs	r3, #2
 199 007c 3246     		mov	r2, r6
 200 007e CDE90055 		strd	r5, r5, [sp]
 201 0082 FFF7FEFF 		bl	i2c_bb_tx_rx
 202              	.LVL17:
 203              	.LBE121:
 204              	.LBE120:
 205              	.LBB122:
 206              	.LBB123:
 207              		.loc 1 118 0
 208 0086 42F27F08 		movw	r8, #8319
 209              		.loc 1 121 0
 210 008a 2179     		ldrb	r1, [r4, #4]	@ zero_extendqisi2
 211 008c 2068     		ldr	r0, [r4]
 212              		.loc 1 118 0
 213 008e ADF80C80 		strh	r8, [sp, #12]	@ movhi
 214              		.loc 1 121 0
 215 0092 0223     		movs	r3, #2
 216 0094 3246     		mov	r2, r6
 217 0096 CDE90055 		strd	r5, r5, [sp]
 218 009a FFF7FEFF 		bl	i2c_bb_tx_rx
 219              	.LVL18:
 220              	.LBE123:
 221              	.LBE122:
 222              	.LBB124:
 223              	.LBB125:
 224 009e 2179     		ldrb	r1, [r4, #4]	@ zero_extendqisi2
 225 00a0 2068     		ldr	r0, [r4]
 226              		.loc 1 118 0
 227 00a2 ADF80C50 		strh	r5, [sp, #12]	@ movhi
 228              		.loc 1 121 0
ARM GAS  /tmp/cczdPyPs.s 			page 5


 229 00a6 0223     		movs	r3, #2
 230 00a8 3246     		mov	r2, r6
 231 00aa CDE90055 		strd	r5, r5, [sp]
 232 00ae FFF7FEFF 		bl	i2c_bb_tx_rx
 233              	.LVL19:
 234              	.LBE125:
 235              	.LBE124:
 236              	.LBB126:
 237              	.LBB127:
 238 00b2 2179     		ldrb	r1, [r4, #4]	@ zero_extendqisi2
 239 00b4 2068     		ldr	r0, [r4]
 240              		.loc 1 118 0
 241 00b6 ADF80C80 		strh	r8, [sp, #12]	@ movhi
 242              		.loc 1 121 0
 243 00ba CDE90055 		strd	r5, r5, [sp]
 244 00be 0223     		movs	r3, #2
 245 00c0 3246     		mov	r2, r6
 246 00c2 FFF7FEFF 		bl	i2c_bb_tx_rx
 247              	.LVL20:
 248              	.LBE127:
 249              	.LBE126:
 250              		.loc 1 208 0
 251 00c6 EA2F     		cmp	r7, #234
 252 00c8 39D0     		beq	.L20
 253              		.loc 1 210 0
 254 00ca E12F     		cmp	r7, #225
 255 00cc 03D0     		beq	.L21
 256              		.loc 1 213 0
 257 00ce 2846     		mov	r0, r5
 258              		.loc 1 257 0
 259 00d0 04B0     		add	sp, sp, #16
 260              		.cfi_remember_state
 261              		.cfi_def_cfa_offset 24
 262              		@ sp needed
 263 00d2 BDE8F081 		pop	{r4, r5, r6, r7, r8, pc}
 264              	.LVL21:
 265              	.L21:
 266              		.cfi_restore_state
 267              	.LBB128:
 268              	.LBB129:
 269              		.loc 1 121 0
 270 00d6 2179     		ldrb	r1, [r4, #4]	@ zero_extendqisi2
 271 00d8 2068     		ldr	r0, [r4]
 272              		.loc 1 118 0
 273 00da 43F20117 		movw	r7, #12545
 274              	.LVL22:
 275              		.loc 1 121 0
 276 00de CDE90055 		strd	r5, r5, [sp]
 277 00e2 0223     		movs	r3, #2
 278 00e4 3246     		mov	r2, r6
 279              		.loc 1 118 0
 280 00e6 ADF80C70 		strh	r7, [sp, #12]	@ movhi
 281              		.loc 1 121 0
 282 00ea FFF7FEFF 		bl	i2c_bb_tx_rx
 283              	.LVL23:
 284              	.LBE129:
 285              	.LBE128:
ARM GAS  /tmp/cczdPyPs.s 			page 6


 286              	.LBB130:
 287              	.LBB131:
 288 00ee 2179     		ldrb	r1, [r4, #4]	@ zero_extendqisi2
 289 00f0 2068     		ldr	r0, [r4]
 290 00f2 CDE90055 		strd	r5, r5, [sp]
 291              		.loc 1 118 0
 292 00f6 43F21417 		movw	r7, #12564
 293              	.LVL24:
 294              	.L19:
 295              		.loc 1 121 0
 296 00fa 3246     		mov	r2, r6
 297 00fc 0223     		movs	r3, #2
 298              		.loc 1 118 0
 299 00fe ADF80C70 		strh	r7, [sp, #12]	@ movhi
 300              		.loc 1 121 0
 301 0102 FFF7FEFF 		bl	i2c_bb_tx_rx
 302              	.LVL25:
 303              	.LBE131:
 304              	.LBE130:
 305              	.LBB132:
 306              	.LBB133:
 307 0106 2179     		ldrb	r1, [r4, #4]	@ zero_extendqisi2
 308 0108 2068     		ldr	r0, [r4]
 309 010a 3246     		mov	r2, r6
 310 010c CDE90055 		strd	r5, r5, [sp]
 311 0110 0223     		movs	r3, #2
 312              		.loc 1 118 0
 313 0112 40F21535 		movw	r5, #789
 314 0116 ADF80C50 		strh	r5, [sp, #12]	@ movhi
 315              		.loc 1 121 0
 316 011a FFF7FEFF 		bl	i2c_bb_tx_rx
 317              	.LVL26:
 318              	.LBE133:
 319              	.LBE132:
 320              	.LBB134:
 321              	.LBB135:
 322 011e 0023     		movs	r3, #0
 323 0120 2179     		ldrb	r1, [r4, #4]	@ zero_extendqisi2
 324 0122 2068     		ldr	r0, [r4]
 325 0124 3246     		mov	r2, r6
 326 0126 CDE90033 		strd	r3, r3, [sp]
 327              		.loc 1 118 0
 328 012a 7F24     		movs	r4, #127
 329              	.LVL27:
 330              		.loc 1 121 0
 331 012c 0223     		movs	r3, #2
 332              		.loc 1 118 0
 333 012e ADF80C40 		strh	r4, [sp, #12]	@ movhi
 334              		.loc 1 121 0
 335 0132 FFF7FEFF 		bl	i2c_bb_tx_rx
 336              	.LVL28:
 337              	.LBE135:
 338              	.LBE134:
 339              		.loc 1 256 0
 340 0136 0120     		movs	r0, #1
 341              		.loc 1 257 0
 342 0138 04B0     		add	sp, sp, #16
ARM GAS  /tmp/cczdPyPs.s 			page 7


 343              		.cfi_remember_state
 344              		.cfi_def_cfa_offset 24
 345              		@ sp needed
 346 013a BDE8F081 		pop	{r4, r5, r6, r7, r8, pc}
 347              	.LVL29:
 348              	.L20:
 349              		.cfi_restore_state
 350              	.LBB136:
 351              	.LBB137:
 352              		.loc 1 121 0
 353 013e 2179     		ldrb	r1, [r4, #4]	@ zero_extendqisi2
 354 0140 2068     		ldr	r0, [r4]
 355              		.loc 1 118 0
 356 0142 43F20137 		movw	r7, #13057
 357              	.LVL30:
 358              		.loc 1 121 0
 359 0146 CDE90055 		strd	r5, r5, [sp]
 360 014a 0223     		movs	r3, #2
 361 014c 3246     		mov	r2, r6
 362              		.loc 1 118 0
 363 014e ADF80C70 		strh	r7, [sp, #12]	@ movhi
 364              		.loc 1 121 0
 365 0152 FFF7FEFF 		bl	i2c_bb_tx_rx
 366              	.LVL31:
 367              	.LBE137:
 368              	.LBE136:
 369              	.LBB138:
 370              	.LBB139:
 371              		.loc 1 118 0
 372 0156 43F21437 		movw	r7, #13076
 373              		.loc 1 121 0
 374 015a 2179     		ldrb	r1, [r4, #4]	@ zero_extendqisi2
 375 015c 2068     		ldr	r0, [r4]
 376 015e CDE90055 		strd	r5, r5, [sp]
 377 0162 CAE7     		b	.L19
 378              	.LBE139:
 379              	.LBE138:
 380              		.cfi_endproc
 381              	.LFE265:
 382              		.size	reset_init_icm, .-reset_init_icm
 383              		.section	.text.icm_thread,"ax",%progbits
 384              		.align	1
 385              		.p2align 4,,15
 386              		.syntax unified
 387              		.thumb
 388              		.thumb_func
 389              		.fpu fpv4-sp-d16
 390              		.type	icm_thread, %function
 391              	icm_thread:
 392              	.LFB266:
 393              		.loc 1 259 0
 394              		.cfi_startproc
 395              		@ args = 0, pretend = 0, frame = 16
 396              		@ frame_needed = 0, uses_anonymous_args = 0
 397              	.LVL32:
 398 0000 2DE9F04F 		push	{r4, r5, r6, r7, r8, r9, r10, fp, lr}
 399              		.cfi_def_cfa_offset 36
ARM GAS  /tmp/cczdPyPs.s 			page 8


 400              		.cfi_offset 4, -36
 401              		.cfi_offset 5, -32
 402              		.cfi_offset 6, -28
 403              		.cfi_offset 7, -24
 404              		.cfi_offset 8, -20
 405              		.cfi_offset 9, -16
 406              		.cfi_offset 10, -12
 407              		.cfi_offset 11, -8
 408              		.cfi_offset 14, -4
 409              	.LBB140:
 410              	.LBB141:
 411              		.file 2 "ChibiOS_3.0.2/os/rt/include/chregistry.h"
 412              		.loc 2 135 0
 413 0004 DFF880A2 		ldr	r10, .L45+48
 414 0008 9349     		ldr	r1, .L45
 415 000a DAF81820 		ldr	r2, [r10, #24]
 416              	.LBE141:
 417              	.LBE140:
 418              		.loc 1 259 0
 419 000e 2DED068B 		vpush.64	{d8, d9, d10}
 420              		.cfi_def_cfa_offset 60
 421              		.cfi_offset 80, -60
 422              		.cfi_offset 81, -56
 423              		.cfi_offset 82, -52
 424              		.cfi_offset 83, -48
 425              		.cfi_offset 84, -44
 426              		.cfi_offset 85, -40
 427              		.loc 1 264 0
 428 0012 0123     		movs	r3, #1
 429              	.LBB143:
 430              	.LBB142:
 431              		.loc 2 135 0
 432 0014 9161     		str	r1, [r2, #24]
 433              	.LBE142:
 434              	.LBE143:
 435              		.loc 1 259 0
 436 0016 87B0     		sub	sp, sp, #28
 437              		.cfi_def_cfa_offset 88
 438              		.loc 1 259 0
 439 0018 0446     		mov	r4, r0
 440              	.LVL33:
 441              		.loc 1 264 0
 442 001a 0373     		strb	r3, [r0, #12]
 443              	.LBB144:
 444              	.LBB145:
 445              	.LBB146:
 446              	.LBB147:
 447              	.LBB148:
 448              	.LBB149:
 449              		.file 3 "ChibiOS_3.0.2/os/ext/CMSIS/include/core_cmFunc.h"
 450              		.loc 3 342 0
 451              		.syntax unified
 452              	@ 342 "ChibiOS_3.0.2/os/ext/CMSIS/include/core_cmFunc.h" 1
 453 001c 72B6     		cpsid i
 454              	@ 0 "" 2
 455              		.thumb
 456              		.syntax unified
ARM GAS  /tmp/cczdPyPs.s 			page 9


 457              	.LBE149:
 458              	.LBE148:
 459              	.LBE147:
 460              	.LBE146:
 461              	.LBB150:
 462              	.LBB151:
 463              		.file 4 "ChibiOS_3.0.2/os/rt/include/chvt.h"
 464              		.loc 4 231 0
 465 001e DAF82830 		ldr	r3, [r10, #40]
 466              	.LBE151:
 467              	.LBE150:
 468              	.LBB152:
 469              	.LBB153:
 470              	.LBB154:
 471              	.LBB155:
 472              	.LBB156:
 473              		.loc 3 331 0
 474              		.syntax unified
 475              	@ 331 "ChibiOS_3.0.2/os/ext/CMSIS/include/core_cmFunc.h" 1
 476 0022 62B6     		cpsie i
 477              	@ 0 "" 2
 478              		.thumb
 479              		.syntax unified
 480              	.LBE156:
 481              	.LBE155:
 482              	.LBE154:
 483              	.LBE153:
 484              	.LBE152:
 485              	.LBE145:
 486              	.LBE144:
 487              		.loc 1 267 0
 488 0024 8D4F     		ldr	r7, .L45+4
 489 0026 DFF86492 		ldr	r9, .L45+52
 490 002a DFF86482 		ldr	r8, .L45+56
 491              	.LBB157:
 492              	.LBB158:
 493              		.loc 1 302 0
 494 002e 9FED8C8A 		vldr.32	s16, .L45+8
 495 0032 9FED8CAA 		vldr.32	s20, .L45+12
 496 0036 DFED8C9A 		vldr.32	s19, .L45+16
 497              		.loc 1 306 0
 498 003a 9FED8C9A 		vldr.32	s18, .L45+20
 499              	.LBE158:
 500              		.loc 1 352 0
 501 003e DFED8C8A 		vldr.32	s17, .L45+24
 502              	.LBE157:
 503              		.loc 1 267 0
 504 0042 3B60     		str	r3, [r7]
 505 0044 03AE     		add	r6, sp, #12
 506 0046 0DF11705 		add	r5, sp, #23
 507              	.LVL34:
 508              	.L33:
 509              	.LBB188:
 510              		.loc 1 275 0
 511 004a 0C23     		movs	r3, #12
 512 004c 2179     		ldrb	r1, [r4, #4]	@ zero_extendqisi2
 513 004e 2068     		ldr	r0, [r4]
ARM GAS  /tmp/cczdPyPs.s 			page 10


 514 0050 0193     		str	r3, [sp, #4]
 515              		.loc 1 274 0
 516 0052 4FF02D0C 		mov	ip, #45
 517              		.loc 1 275 0
 518 0056 02AA     		add	r2, sp, #8
 519 0058 0096     		str	r6, [sp]
 520 005a 0123     		movs	r3, #1
 521              		.loc 1 274 0
 522 005c 8DF808C0 		strb	ip, [sp, #8]
 523              		.loc 1 275 0
 524 0060 FFF7FEFF 		bl	i2c_bb_tx_rx
 525              	.LVL35:
 526              		.loc 1 279 0
 527 0064 99F800C0 		ldrb	ip, [r9]	@ zero_extendqisi2
 528 0068 0CF1010C 		add	ip, ip, #1
 529              		.loc 1 275 0
 530 006c 8646     		mov	lr, r0
 531              	.LVL36:
 532              		.loc 1 279 0
 533 006e 5FFA8CFC 		uxtb	ip, ip
 534 0072 8048     		ldr	r0, .L45+28
 535 0074 89F800C0 		strb	ip, [r9]
 536              	.LVL37:
 537 0078 0DF11102 		add	r2, sp, #17
 538              	.LVL38:
 539              	.L25:
 540              	.LBB159:
 541              		.loc 1 281 0
 542 007c 12F8011F 		ldrb	r1, [r2, #1]!	@ zero_extendqisi2
 543              	.LVL39:
 544 0080 10F801BF 		ldrb	fp, [r0, #1]!	@ zero_extendqisi2
 545 0084 4B1E     		subs	r3, r1, #1
 546 0086 8B45     		cmp	fp, r1
 547 0088 DBB2     		uxtb	r3, r3
 548 008a 01D0     		beq	.L23
 549              		.loc 1 281 0 is_stmt 0 discriminator 2
 550 008c FD2B     		cmp	r3, #253
 551 008e 43D9     		bls	.L43
 552              	.L23:
 553              		.loc 1 280 0 is_stmt 1 discriminator 2
 554 0090 AA42     		cmp	r2, r5
 555 0092 F3D1     		bne	.L25
 556              	.LBE159:
 557              		.loc 1 286 0
 558 0094 96E80700 		ldm	r6, {r0, r1, r2}
 559              	.LVL40:
 560              		.loc 1 287 0
 561 0098 BCF1040F 		cmp	ip, #4
 562              		.loc 1 286 0
 563 009c 88E80700 		stm	r8, {r0, r1, r2}
 564              		.loc 1 287 0
 565 00a0 41D9     		bls	.L24
 566              		.loc 1 288 0
 567 00a2 2379     		ldrb	r3, [r4, #4]	@ zero_extendqisi2
 568 00a4 692B     		cmp	r3, #105
 569              		.loc 1 289 0
 570 00a6 0CBF     		ite	eq
ARM GAS  /tmp/cczdPyPs.s 			page 11


 571 00a8 6823     		moveq	r3, #104
 572              		.loc 1 291 0
 573 00aa 6923     		movne	r3, #105
 574              		.loc 1 294 0
 575 00ac BCF1090F 		cmp	ip, #9
 576              		.loc 1 291 0
 577 00b0 2371     		strb	r3, [r4, #4]
 578              		.loc 1 294 0
 579 00b2 38D9     		bls	.L24
 580              	.LVL41:
 581              		.loc 1 296 0
 582 00b4 0A23     		movs	r3, #10
 583 00b6 89F80030 		strb	r3, [r9]
 584              	.LVL42:
 585              	.L28:
 586              		.loc 1 343 0
 587 00ba 0A20     		movs	r0, #10
 588 00bc FFF7FEFF 		bl	chThdSleep
 589              	.LVL43:
 590              		.loc 1 344 0
 591 00c0 2046     		mov	r0, r4
 592 00c2 FFF7FEFF 		bl	reset_init_icm
 593              	.LVL44:
 594              	.L29:
 595              		.loc 1 347 0
 596 00c6 637B     		ldrb	r3, [r4, #13]	@ zero_extendqisi2
 597 00c8 002B     		cmp	r3, #0
 598 00ca 40F0B580 		bne	.L44
 599              	.L30:
 600              		.loc 1 352 0
 601 00ce D4ED047A 		vldr.32	s15, [r4, #16]	@ int
 602 00d2 3A68     		ldr	r2, [r7]
 603 00d4 B8EEE77A 		vcvt.f32.s32	s14, s15
 604 00d8 42F21071 		movw	r1, #10000
 605 00dc C8EE877A 		vdiv.f32	s15, s17, s14
 606 00e0 FCEEE77A 		vcvt.u32.f32	s15, s15
 607 00e4 17EE903A 		vmov	r3, s15	@ int
 608 00e8 01FB03F3 		mul	r3, r1, r3
 609 00ec 03F57423 		add	r3, r3, #999424
 610 00f0 6149     		ldr	r1, .L45+32
 611 00f2 03F23F23 		addw	r3, r3, #575
 612 00f6 A1FB0313 		umull	r1, r3, r1, r3
 613 00fa 02EB9343 		add	r3, r2, r3, lsr #18
 614 00fe 3B60     		str	r3, [r7]
 615              	.LBB160:
 616              	.LBB161:
 617              	.LBB162:
 618              	.LBB163:
 619              	.LBB164:
 620              	.LBB165:
 621              		.loc 3 342 0
 622              		.syntax unified
 623              	@ 342 "ChibiOS_3.0.2/os/ext/CMSIS/include/core_cmFunc.h" 1
 624 0100 72B6     		cpsid i
 625              	@ 0 "" 2
 626              		.thumb
 627              		.syntax unified
ARM GAS  /tmp/cczdPyPs.s 			page 12


 628              	.LBE165:
 629              	.LBE164:
 630              	.LBE163:
 631              	.LBE162:
 632              	.LBB166:
 633              	.LBB167:
 634              		.loc 4 231 0
 635 0102 DAF82830 		ldr	r3, [r10, #40]
 636              	.LBE167:
 637              	.LBE166:
 638              	.LBB168:
 639              	.LBB169:
 640              	.LBB170:
 641              	.LBB171:
 642              	.LBB172:
 643              		.loc 3 331 0
 644              		.syntax unified
 645              	@ 331 "ChibiOS_3.0.2/os/ext/CMSIS/include/core_cmFunc.h" 1
 646 0106 62B6     		cpsie i
 647              	@ 0 "" 2
 648              		.thumb
 649              		.syntax unified
 650              	.LBE172:
 651              	.LBE171:
 652              	.LBE170:
 653              	.LBE169:
 654              	.LBE168:
 655              	.LBE161:
 656              	.LBE160:
 657              		.loc 1 354 0
 658 0108 3868     		ldr	r0, [r7]
 659 010a 9842     		cmp	r0, r3
 660 010c 40F29B80 		bls	.L31
 661              		.loc 1 355 0
 662 0110 C01A     		subs	r0, r0, r3
 663 0112 FFF7FEFF 		bl	chThdSleep
 664              	.LVL45:
 665 0116 98E7     		b	.L33
 666              	.LVL46:
 667              	.L43:
 668              		.loc 1 286 0
 669 0118 96E80700 		ldm	r6, {r0, r1, r2}
 670              	.LVL47:
 671 011c 88E80700 		stm	r8, {r0, r1, r2}
 672              	.LBB173:
 673              		.loc 1 282 0
 674 0120 0023     		movs	r3, #0
 675 0122 89F80030 		strb	r3, [r9]
 676              	.L24:
 677              	.LBE173:
 678              		.loc 1 299 0
 679 0126 BEF1000F 		cmp	lr, #0
 680 012a C6D0     		beq	.L28
 681              	.LBB174:
 682              		.loc 1 302 0
 683 012c 9DF80CE0 		ldrb	lr, [sp, #12]	@ zero_extendqisi2
 684              	.LVL48:
ARM GAS  /tmp/cczdPyPs.s 			page 13


 685              		.loc 1 303 0
 686 0130 9DF80EC0 		ldrb	ip, [sp, #14]	@ zero_extendqisi2
 687              		.loc 1 304 0
 688 0134 9DF81000 		ldrb	r0, [sp, #16]	@ zero_extendqisi2
 689              		.loc 1 302 0
 690 0138 9DF80D10 		ldrb	r1, [sp, #13]	@ zero_extendqisi2
 691              		.loc 1 303 0
 692 013c 9DF80F20 		ldrb	r2, [sp, #15]	@ zero_extendqisi2
 693              		.loc 1 304 0
 694 0140 9DF81130 		ldrb	r3, [sp, #17]	@ zero_extendqisi2
 695              		.loc 1 306 0
 696 0144 9DF812B0 		ldrb	fp, [sp, #18]	@ zero_extendqisi2
 697              		.loc 1 302 0
 698 0148 41EA0E21 		orr	r1, r1, lr, lsl #8
 699              		.loc 1 303 0
 700 014c 42EA0C22 		orr	r2, r2, ip, lsl #8
 701              		.loc 1 304 0
 702 0150 43EA0023 		orr	r3, r3, r0, lsl #8
 703              		.loc 1 302 0
 704 0154 09B2     		sxth	r1, r1
 705              		.loc 1 303 0
 706 0156 12B2     		sxth	r2, r2
 707              		.loc 1 304 0
 708 0158 1BB2     		sxth	r3, r3
 709 015a 07EE903A 		vmov	s15, r3	@ int
 710              		.loc 1 302 0
 711 015e 06EE101A 		vmov	s12, r1	@ int
 712              		.loc 1 303 0
 713 0162 06EE902A 		vmov	s13, r2	@ int
 714              		.loc 1 304 0
 715 0166 B8EEE77A 		vcvt.f32.s32	s14, s15
 716              		.loc 1 302 0
 717 016a B8EEC66A 		vcvt.f32.s32	s12, s12
 718              		.loc 1 303 0
 719 016e F8EEE66A 		vcvt.f32.s32	s13, s13
 720              		.loc 1 306 0
 721 0172 9DF81310 		ldrb	r1, [sp, #19]	@ zero_extendqisi2
 722              		.loc 1 307 0
 723 0176 9DF814E0 		ldrb	lr, [sp, #20]	@ zero_extendqisi2
 724 017a 9DF81520 		ldrb	r2, [sp, #21]	@ zero_extendqisi2
 725              		.loc 1 308 0
 726 017e 9DF816C0 		ldrb	ip, [sp, #22]	@ zero_extendqisi2
 727 0182 9DF81730 		ldrb	r3, [sp, #23]	@ zero_extendqisi2
 728              		.loc 1 302 0
 729 0186 3D48     		ldr	r0, .L45+36
 730 0188 F1EE007A 		vmov.f32	s15, #4.0e+0
 731              		.loc 1 303 0
 732 018c 66EEA76A 		vmul.f32	s13, s13, s15
 733              		.loc 1 302 0
 734 0190 26EE276A 		vmul.f32	s12, s12, s15
 735              		.loc 1 306 0
 736 0194 41EA0B21 		orr	r1, r1, fp, lsl #8
 737              		.loc 1 304 0
 738 0198 67EE277A 		vmul.f32	s15, s14, s15
 739              		.loc 1 307 0
 740 019c 42EA0E22 		orr	r2, r2, lr, lsl #8
 741              		.loc 1 308 0
ARM GAS  /tmp/cczdPyPs.s 			page 14


 742 01a0 43EA0C23 		orr	r3, r3, ip, lsl #8
 743              		.loc 1 306 0
 744 01a4 09B2     		sxth	r1, r1
 745              		.loc 1 308 0
 746 01a6 1BB2     		sxth	r3, r3
 747              		.loc 1 307 0
 748 01a8 12B2     		sxth	r2, r2
 749              		.loc 1 303 0
 750 01aa 26EE887A 		vmul.f32	s14, s13, s16
 751              		.loc 1 306 0
 752 01ae 05EE101A 		vmov	s10, r1	@ int
 753              		.loc 1 308 0
 754 01b2 06EE903A 		vmov	s13, r3	@ int
 755              		.loc 1 302 0
 756 01b6 26EE086A 		vmul.f32	s12, s12, s16
 757              		.loc 1 304 0
 758 01ba 67EE887A 		vmul.f32	s15, s15, s16
 759              		.loc 1 307 0
 760 01be 05EE902A 		vmov	s11, r2	@ int
 761              		.loc 1 302 0
 762 01c2 D0ED003A 		vldr.32	s7, [r0]
 763              		.loc 1 303 0
 764 01c6 90ED014A 		vldr.32	s8, [r0, #4]
 765              		.loc 1 304 0
 766 01ca D0ED024A 		vldr.32	s9, [r0, #8]
 767              		.loc 1 339 0
 768 01ce A368     		ldr	r3, [r4, #8]
 769              		.loc 1 306 0
 770 01d0 2B49     		ldr	r1, .L45+40
 771              		.loc 1 302 0
 772 01d2 26EE0A6A 		vmul.f32	s12, s12, s20
 773              		.loc 1 303 0
 774 01d6 27EE0A7A 		vmul.f32	s14, s14, s20
 775              		.loc 1 304 0
 776 01da 67EE8A7A 		vmul.f32	s15, s15, s20
 777              		.loc 1 306 0
 778 01de B8EEC55A 		vcvt.f32.s32	s10, s10
 779              		.loc 1 307 0
 780 01e2 F8EEE55A 		vcvt.f32.s32	s11, s11
 781              		.loc 1 308 0
 782 01e6 F8EEE66A 		vcvt.f32.s32	s13, s13
 783              		.loc 1 302 0
 784 01ea A3EEA96A 		vfma.f32	s12, s7, s19
 785              		.loc 1 303 0
 786 01ee A4EE297A 		vfma.f32	s14, s8, s19
 787              		.loc 1 304 0
 788 01f2 E4EEA97A 		vfma.f32	s15, s9, s19
 789              		.loc 1 306 0
 790 01f6 25EE095A 		vmul.f32	s10, s10, s18
 791              		.loc 1 307 0
 792 01fa 65EE895A 		vmul.f32	s11, s11, s18
 793              		.loc 1 308 0
 794 01fe 66EE896A 		vmul.f32	s13, s13, s18
 795              		.loc 1 306 0
 796 0202 25EE085A 		vmul.f32	s10, s10, s16
 797              		.loc 1 307 0
 798 0206 65EE885A 		vmul.f32	s11, s11, s16
ARM GAS  /tmp/cczdPyPs.s 			page 15


 799              		.loc 1 308 0
 800 020a 66EE886A 		vmul.f32	s13, s13, s16
 801              		.loc 1 302 0
 802 020e 80ED006A 		vstr.32	s12, [r0]
 803              		.loc 1 303 0
 804 0212 80ED017A 		vstr.32	s14, [r0, #4]
 805              		.loc 1 304 0
 806 0216 C0ED027A 		vstr.32	s15, [r0, #8]
 807              		.loc 1 306 0
 808 021a 81ED005A 		vstr.32	s10, [r1]
 809              		.loc 1 307 0
 810 021e C1ED015A 		vstr.32	s11, [r1, #4]
 811              		.loc 1 308 0
 812 0222 C1ED026A 		vstr.32	s13, [r1, #8]
 813              		.loc 1 339 0
 814 0226 002B     		cmp	r3, #0
 815 0228 3FF44DAF 		beq	.L29
 816              		.loc 1 340 0
 817 022c 154A     		ldr	r2, .L45+44
 818 022e 9847     		blx	r3
 819              	.LVL49:
 820              	.LBE174:
 821              		.loc 1 347 0
 822 0230 637B     		ldrb	r3, [r4, #13]	@ zero_extendqisi2
 823 0232 002B     		cmp	r3, #0
 824 0234 3FF44BAF 		beq	.L30
 825              	.L44:
 826              		.loc 1 348 0
 827 0238 0023     		movs	r3, #0
 828 023a 2373     		strb	r3, [r4, #12]
 829              	.LBE188:
 830              		.loc 1 361 0
 831 023c 07B0     		add	sp, sp, #28
 832              		.cfi_remember_state
 833              		.cfi_def_cfa_offset 60
 834              		@ sp needed
 835 023e BDEC068B 		vldm	sp!, {d8-d10}
 836              		.cfi_restore 84
 837              		.cfi_restore 85
 838              		.cfi_restore 82
 839              		.cfi_restore 83
 840              		.cfi_restore 80
 841              		.cfi_restore 81
 842              		.cfi_def_cfa_offset 36
 843 0242 BDE8F08F 		pop	{r4, r5, r6, r7, r8, r9, r10, fp, pc}
 844              	.LVL50:
 845              	.L31:
 846              		.cfi_restore_state
 847              	.LBB189:
 848              		.loc 1 357 0
 849 0246 0520     		movs	r0, #5
 850 0248 FFF7FEFF 		bl	chThdSleep
 851              	.LVL51:
 852              	.LBB175:
 853              	.LBB176:
 854              	.LBB177:
 855              	.LBB178:
ARM GAS  /tmp/cczdPyPs.s 			page 16


 856              	.LBB179:
 857              	.LBB180:
 858              		.loc 3 342 0
 859              		.syntax unified
 860              	@ 342 "ChibiOS_3.0.2/os/ext/CMSIS/include/core_cmFunc.h" 1
 861 024c 72B6     		cpsid i
 862              	@ 0 "" 2
 863              		.thumb
 864              		.syntax unified
 865              	.LBE180:
 866              	.LBE179:
 867              	.LBE178:
 868              	.LBE177:
 869              	.LBB181:
 870              	.LBB182:
 871              		.loc 4 231 0
 872 024e DAF82830 		ldr	r3, [r10, #40]
 873              	.LBE182:
 874              	.LBE181:
 875              	.LBB183:
 876              	.LBB184:
 877              	.LBB185:
 878              	.LBB186:
 879              	.LBB187:
 880              		.loc 3 331 0
 881              		.syntax unified
 882              	@ 331 "ChibiOS_3.0.2/os/ext/CMSIS/include/core_cmFunc.h" 1
 883 0252 62B6     		cpsie i
 884              	@ 0 "" 2
 885              		.thumb
 886              		.syntax unified
 887              	.LBE187:
 888              	.LBE186:
 889              	.LBE185:
 890              	.LBE184:
 891              	.LBE183:
 892              	.LBE176:
 893              	.LBE175:
 894              		.loc 1 358 0
 895 0254 3B60     		str	r3, [r7]
 896              	.LBE189:
 897              		.loc 1 269 0
 898 0256 F8E6     		b	.L33
 899              	.L46:
 900              		.align	2
 901              	.L45:
 902 0258 00000000 		.word	.LC0
 903 025c 00000000 		.word	.LANCHOR0
 904 0260 00000038 		.word	939524096
 905 0264 CDCC4C3D 		.word	1028443341
 906 0268 3333733F 		.word	1064514355
 907 026c 0000FA43 		.word	1140457472
 908 0270 00247449 		.word	1232348160
 909 0274 05000000 		.word	.LANCHOR2+5
 910 0278 83DE1B43 		.word	1125899907
 911 027c 00000000 		.word	.LANCHOR3
 912 0280 00000000 		.word	.LANCHOR4
ARM GAS  /tmp/cczdPyPs.s 			page 17


 913 0284 00000000 		.word	.LANCHOR5
 914 0288 00000000 		.word	ch
 915 028c 00000000 		.word	.LANCHOR1
 916 0290 00000000 		.word	.LANCHOR2
 917              		.cfi_endproc
 918              	.LFE266:
 919              		.size	icm_thread, .-icm_thread
 920              		.section	.text.terminal_read_reg,"ax",%progbits
 921              		.align	1
 922              		.p2align 4,,15
 923              		.syntax unified
 924              		.thumb
 925              		.thumb_func
 926              		.fpu fpv4-sp-d16
 927              		.type	terminal_read_reg, %function
 928              	terminal_read_reg:
 929              	.LFB262:
 930              		.loc 1 86 0
 931              		.cfi_startproc
 932              		@ args = 0, pretend = 0, frame = 24
 933              		@ frame_needed = 0, uses_anonymous_args = 0
 934              	.LVL52:
 935 0000 F0B5     		push	{r4, r5, r6, r7, lr}
 936              		.cfi_def_cfa_offset 20
 937              		.cfi_offset 4, -20
 938              		.cfi_offset 5, -16
 939              		.cfi_offset 6, -12
 940              		.cfi_offset 7, -8
 941              		.cfi_offset 14, -4
 942              		.loc 1 87 0
 943 0002 0328     		cmp	r0, #3
 944              		.loc 1 86 0
 945 0004 89B0     		sub	sp, sp, #36
 946              		.cfi_def_cfa_offset 56
 947              		.loc 1 87 0
 948 0006 04D0     		beq	.L54
 949              		.loc 1 111 0
 950 0008 2E48     		ldr	r0, .L57
 951              	.LVL53:
 952 000a FFF7FEFF 		bl	commands_printf
 953              	.LVL54:
 954              	.L47:
 955              		.loc 1 113 0
 956 000e 09B0     		add	sp, sp, #36
 957              		.cfi_remember_state
 958              		.cfi_def_cfa_offset 20
 959              		@ sp needed
 960 0010 F0BD     		pop	{r4, r5, r6, r7, pc}
 961              	.LVL55:
 962              	.L54:
 963              		.cfi_restore_state
 964 0012 0C46     		mov	r4, r1
 965              	.LVL56:
 966              	.LBB200:
 967              	.LBB201:
 968              		.loc 1 88 0
 969 0014 4FF0FF33 		mov	r3, #-1
ARM GAS  /tmp/cczdPyPs.s 			page 18


 970              		.loc 1 90 0
 971 0018 03AA     		add	r2, sp, #12
 972 001a 2B49     		ldr	r1, .L57+4
 973              	.LVL57:
 974 001c 6068     		ldr	r0, [r4, #4]
 975              	.LVL58:
 976              		.loc 1 89 0
 977 001e CDE90333 		strd	r3, r3, [sp, #12]
 978              		.loc 1 90 0
 979 0022 FFF7FEFF 		bl	sscanf
 980              	.LVL59:
 981              		.loc 1 91 0
 982 0026 A068     		ldr	r0, [r4, #8]
 983 0028 2749     		ldr	r1, .L57+4
 984 002a 04AA     		add	r2, sp, #16
 985 002c FFF7FEFF 		bl	sscanf
 986              	.LVL60:
 987              		.loc 1 93 0
 988 0030 049B     		ldr	r3, [sp, #16]
 989 0032 002B     		cmp	r3, #0
 990 0034 03DB     		blt	.L49
 991 0036 039A     		ldr	r2, [sp, #12]
 992 0038 022A     		cmp	r2, #2
 993 003a 05D9     		bls	.L55
 994              		.loc 1 104 0
 995 003c 31DC     		bgt	.L56
 996              	.L49:
 997              		.loc 1 108 0
 998 003e 2348     		ldr	r0, .L57+8
 999 0040 FFF7FEFF 		bl	commands_printf
 1000              	.LVL61:
 1001              	.LBE201:
 1002              	.LBE200:
 1003              		.loc 1 113 0
 1004 0044 09B0     		add	sp, sp, #36
 1005              		.cfi_remember_state
 1006              		.cfi_def_cfa_offset 20
 1007              		@ sp needed
 1008 0046 F0BD     		pop	{r4, r5, r6, r7, pc}
 1009              	.LVL62:
 1010              	.L55:
 1011              		.cfi_restore_state
 1012              	.LBB216:
 1013              	.LBB215:
 1014              	.LBB202:
 1015              		.loc 1 94 0
 1016 0048 214D     		ldr	r5, .L57+12
 1017              	.LBB203:
 1018              	.LBB204:
 1019              		.loc 1 118 0
 1020 004a 7F27     		movs	r7, #127
 1021              	.LBE204:
 1022              	.LBE203:
 1023              		.loc 1 94 0
 1024 004c 2B68     		ldr	r3, [r5]
 1025              	.LVL63:
 1026              	.LBB207:
ARM GAS  /tmp/cczdPyPs.s 			page 19


 1027              	.LBB205:
 1028              		.loc 1 118 0
 1029 004e 8DF81470 		strb	r7, [sp, #20]
 1030              	.LBE205:
 1031              	.LBE207:
 1032              		.loc 1 94 0
 1033 0052 1201     		lsls	r2, r2, #4
 1034              	.LVL64:
 1035              	.LBB208:
 1036              	.LBB206:
 1037              		.loc 1 119 0
 1038 0054 8DF81520 		strb	r2, [sp, #21]
 1039              		.loc 1 121 0
 1040 0058 0024     		movs	r4, #0
 1041              	.LVL65:
 1042 005a 1979     		ldrb	r1, [r3, #4]	@ zero_extendqisi2
 1043 005c 1868     		ldr	r0, [r3]
 1044 005e 05AA     		add	r2, sp, #20
 1045 0060 0223     		movs	r3, #2
 1046              	.LVL66:
 1047 0062 CDE90044 		strd	r4, r4, [sp]
 1048 0066 FFF7FEFF 		bl	i2c_bb_tx_rx
 1049              	.LVL67:
 1050              	.LBE206:
 1051              	.LBE208:
 1052              		.loc 1 95 0
 1053 006a 9DF81010 		ldrb	r1, [sp, #16]	@ zero_extendqisi2
 1054 006e 2868     		ldr	r0, [r5]
 1055 0070 FFF7FEFF 		bl	read_single_reg
 1056              	.LVL68:
 1057              		.loc 1 98 0
 1058 0074 2B68     		ldr	r3, [r5]
 1059              	.LBB209:
 1060              	.LBB210:
 1061              		.loc 1 118 0
 1062 0076 ADF81470 		strh	r7, [sp, #20]	@ movhi
 1063              	.LBE210:
 1064              	.LBE209:
 1065              		.loc 1 95 0
 1066 007a 0646     		mov	r6, r0
 1067              	.LVL69:
 1068              	.LBB212:
 1069              	.LBB211:
 1070              		.loc 1 121 0
 1071 007c 1979     		ldrb	r1, [r3, #4]	@ zero_extendqisi2
 1072 007e 1868     		ldr	r0, [r3]
 1073 0080 05AA     		add	r2, sp, #20
 1074 0082 0223     		movs	r3, #2
 1075              	.LVL70:
 1076 0084 CDE90044 		strd	r4, r4, [sp]
 1077 0088 FFF7FEFF 		bl	i2c_bb_tx_rx
 1078              	.LVL71:
 1079              	.LBE211:
 1080              	.LBE212:
 1081              		.loc 1 100 0
 1082 008c 05A9     		add	r1, sp, #20
 1083 008e 3046     		mov	r0, r6
ARM GAS  /tmp/cczdPyPs.s 			page 20


 1084 0090 FFF7FEFF 		bl	utils_byte_to_binary
 1085              	.LVL72:
 1086              		.loc 1 102 0
 1087 0094 3346     		mov	r3, r6
 1088 0096 05AA     		add	r2, sp, #20
 1089 0098 0499     		ldr	r1, [sp, #16]
 1090 009a 0E48     		ldr	r0, .L57+16
 1091 009c FFF7FEFF 		bl	commands_printf
 1092              	.LVL73:
 1093 00a0 B5E7     		b	.L47
 1094              	.LVL74:
 1095              	.L56:
 1096              	.LBE202:
 1097              		.loc 1 105 0
 1098 00a2 0B49     		ldr	r1, .L57+12
 1099 00a4 8DF81420 		strb	r2, [sp, #20]
 1100 00a8 0A68     		ldr	r2, [r1]
 1101              	.LVL75:
 1102 00aa 8DF81530 		strb	r3, [sp, #21]
 1103              	.LBB213:
 1104              	.LBB214:
 1105              		.loc 1 121 0
 1106 00ae 0023     		movs	r3, #0
 1107              	.LVL76:
 1108 00b0 1179     		ldrb	r1, [r2, #4]	@ zero_extendqisi2
 1109 00b2 1068     		ldr	r0, [r2]
 1110 00b4 CDE90033 		strd	r3, r3, [sp]
 1111 00b8 05AA     		add	r2, sp, #20
 1112              	.LVL77:
 1113 00ba 0223     		movs	r3, #2
 1114 00bc FFF7FEFF 		bl	i2c_bb_tx_rx
 1115              	.LVL78:
 1116 00c0 A5E7     		b	.L47
 1117              	.L58:
 1118 00c2 00BF     		.align	2
 1119              	.L57:
 1120 00c4 38000000 		.word	.LC4
 1121 00c8 00000000 		.word	.LC1
 1122 00cc 20000000 		.word	.LC3
 1123 00d0 00000000 		.word	.LANCHOR6
 1124 00d4 04000000 		.word	.LC2
 1125              	.LBE214:
 1126              	.LBE213:
 1127              	.LBE215:
 1128              	.LBE216:
 1129              		.cfi_endproc
 1130              	.LFE262:
 1131              		.size	terminal_read_reg, .-terminal_read_reg
 1132              		.section	.text.icm20948_init,"ax",%progbits
 1133              		.align	1
 1134              		.p2align 4,,15
 1135              		.global	icm20948_init
 1136              		.syntax unified
 1137              		.thumb
 1138              		.thumb_func
 1139              		.fpu fpv4-sp-d16
 1140              		.type	icm20948_init, %function
ARM GAS  /tmp/cczdPyPs.s 			page 21


 1141              	icm20948_init:
 1142              	.LFB259:
 1143              		.loc 1 47 0
 1144              		.cfi_startproc
 1145              		@ args = 4, pretend = 0, frame = 0
 1146              		@ frame_needed = 0, uses_anonymous_args = 0
 1147              	.LVL79:
 1148 0000 F0B5     		push	{r4, r5, r6, r7, lr}
 1149              		.cfi_def_cfa_offset 20
 1150              		.cfi_offset 4, -20
 1151              		.cfi_offset 5, -16
 1152              		.cfi_offset 6, -12
 1153              		.cfi_offset 7, -8
 1154              		.cfi_offset 14, -4
 1155              		.loc 1 50 0
 1156 0002 002A     		cmp	r2, #0
 1157              		.loc 1 47 0
 1158 0004 83B0     		sub	sp, sp, #12
 1159              		.cfi_def_cfa_offset 32
 1160              		.loc 1 50 0
 1161 0006 14BF     		ite	ne
 1162 0008 6922     		movne	r2, #105
 1163              	.LVL80:
 1164 000a 6822     		moveq	r2, #104
 1165              		.loc 1 51 0
 1166 000c 0025     		movs	r5, #0
 1167              		.loc 1 50 0
 1168 000e 0271     		strb	r2, [r0, #4]
 1169              		.loc 1 49 0
 1170 0010 0160     		str	r1, [r0]
 1171              		.loc 1 51 0
 1172 0012 8560     		str	r5, [r0, #8]
 1173              		.loc 1 52 0
 1174 0014 4573     		strb	r5, [r0, #13]
 1175              		.loc 1 47 0
 1176 0016 0446     		mov	r4, r0
 1177 0018 1E46     		mov	r6, r3
 1178 001a 089F     		ldr	r7, [sp, #32]
 1179              		.loc 1 54 0
 1180 001c FFF7FEFF 		bl	reset_init_icm
 1181              	.LVL81:
 1182 0020 20B9     		cbnz	r0, .L68
 1183              		.loc 1 60 0
 1184 0022 0D4D     		ldr	r5, .L70
 1185 0024 2B68     		ldr	r3, [r5]
 1186 0026 6BB1     		cbz	r3, .L69
 1187              	.L59:
 1188              		.loc 1 68 0
 1189 0028 03B0     		add	sp, sp, #12
 1190              		.cfi_remember_state
 1191              		.cfi_def_cfa_offset 20
 1192              		@ sp needed
 1193 002a F0BD     		pop	{r4, r5, r6, r7, pc}
 1194              	.LVL82:
 1195              	.L68:
 1196              		.cfi_restore_state
 1197              		.loc 1 55 0
ARM GAS  /tmp/cczdPyPs.s 			page 22


 1198 002c 6573     		strb	r5, [r4, #13]
 1199              		.loc 1 60 0
 1200 002e 0A4D     		ldr	r5, .L70
 1201              		.loc 1 56 0
 1202 0030 0A4B     		ldr	r3, .L70+4
 1203 0032 0094     		str	r4, [sp]
 1204 0034 3946     		mov	r1, r7
 1205 0036 3046     		mov	r0, r6
 1206 0038 4022     		movs	r2, #64
 1207 003a FFF7FEFF 		bl	chThdCreateStatic
 1208              	.LVL83:
 1209              		.loc 1 60 0
 1210 003e 2B68     		ldr	r3, [r5]
 1211 0040 002B     		cmp	r3, #0
 1212 0042 F1D1     		bne	.L59
 1213              	.L69:
 1214              		.loc 1 62 0
 1215 0044 064B     		ldr	r3, .L70+8
 1216 0046 074A     		ldr	r2, .L70+12
 1217 0048 0749     		ldr	r1, .L70+16
 1218 004a 0848     		ldr	r0, .L70+20
 1219              		.loc 1 61 0
 1220 004c 2C60     		str	r4, [r5]
 1221              		.loc 1 68 0
 1222 004e 03B0     		add	sp, sp, #12
 1223              		.cfi_def_cfa_offset 20
 1224              		@ sp needed
 1225 0050 BDE8F040 		pop	{r4, r5, r6, r7, lr}
 1226              		.cfi_restore 14
 1227              		.cfi_restore 7
 1228              		.cfi_restore 6
 1229              		.cfi_restore 5
 1230              		.cfi_restore 4
 1231              		.cfi_def_cfa_offset 0
 1232              	.LVL84:
 1233              		.loc 1 62 0
 1234 0054 FFF7FEBF 		b	terminal_register_command_callback
 1235              	.LVL85:
 1236              	.L71:
 1237              		.align	2
 1238              	.L70:
 1239 0058 00000000 		.word	.LANCHOR6
 1240 005c 00000000 		.word	icm_thread
 1241 0060 00000000 		.word	terminal_read_reg
 1242 0064 00000000 		.word	.LC5
 1243 0068 10000000 		.word	.LC6
 1244 006c 30000000 		.word	.LC7
 1245              		.cfi_endproc
 1246              	.LFE259:
 1247              		.size	icm20948_init, .-icm20948_init
 1248              		.section	.text.icm20948_set_read_callback,"ax",%progbits
 1249              		.align	1
 1250              		.p2align 4,,15
 1251              		.global	icm20948_set_read_callback
 1252              		.syntax unified
 1253              		.thumb
 1254              		.thumb_func
ARM GAS  /tmp/cczdPyPs.s 			page 23


 1255              		.fpu fpv4-sp-d16
 1256              		.type	icm20948_set_read_callback, %function
 1257              	icm20948_set_read_callback:
 1258              	.LFB260:
 1259              		.loc 1 70 0
 1260              		.cfi_startproc
 1261              		@ args = 0, pretend = 0, frame = 0
 1262              		@ frame_needed = 0, uses_anonymous_args = 0
 1263              		@ link register save eliminated.
 1264              	.LVL86:
 1265              		.loc 1 71 0
 1266 0000 8160     		str	r1, [r0, #8]
 1267              		.loc 1 72 0
 1268 0002 7047     		bx	lr
 1269              		.cfi_endproc
 1270              	.LFE260:
 1271              		.size	icm20948_set_read_callback, .-icm20948_set_read_callback
 1272              		.section	.text.icm20948_stop,"ax",%progbits
 1273              		.align	1
 1274              		.p2align 4,,15
 1275              		.global	icm20948_stop
 1276              		.syntax unified
 1277              		.thumb
 1278              		.thumb_func
 1279              		.fpu fpv4-sp-d16
 1280              		.type	icm20948_stop, %function
 1281              	icm20948_stop:
 1282              	.LFB261:
 1283              		.loc 1 74 0
 1284              		.cfi_startproc
 1285              		@ args = 0, pretend = 0, frame = 0
 1286              		@ frame_needed = 0, uses_anonymous_args = 0
 1287              	.LVL87:
 1288 0000 38B5     		push	{r3, r4, r5, lr}
 1289              		.cfi_def_cfa_offset 16
 1290              		.cfi_offset 3, -16
 1291              		.cfi_offset 4, -12
 1292              		.cfi_offset 5, -8
 1293              		.cfi_offset 14, -4
 1294              		.loc 1 75 0
 1295 0002 0123     		movs	r3, #1
 1296 0004 4373     		strb	r3, [r0, #13]
 1297              		.loc 1 76 0
 1298 0006 037B     		ldrb	r3, [r0, #12]	@ zero_extendqisi2
 1299              		.loc 1 74 0
 1300 0008 0446     		mov	r4, r0
 1301              		.loc 1 76 0
 1302 000a 2BB1     		cbz	r3, .L74
 1303              	.LVL88:
 1304              	.L75:
 1305              		.loc 1 77 0
 1306 000c 0120     		movs	r0, #1
 1307 000e FFF7FEFF 		bl	chThdSleep
 1308              	.LVL89:
 1309              		.loc 1 76 0
 1310 0012 237B     		ldrb	r3, [r4, #12]	@ zero_extendqisi2
 1311 0014 002B     		cmp	r3, #0
ARM GAS  /tmp/cczdPyPs.s 			page 24


 1312 0016 F9D1     		bne	.L75
 1313              	.L74:
 1314              		.loc 1 80 0
 1315 0018 054D     		ldr	r5, .L83
 1316 001a 2B68     		ldr	r3, [r5]
 1317 001c A342     		cmp	r3, r4
 1318 001e 00D0     		beq	.L82
 1319              		.loc 1 84 0
 1320 0020 38BD     		pop	{r3, r4, r5, pc}
 1321              	.LVL90:
 1322              	.L82:
 1323              		.loc 1 81 0
 1324 0022 0448     		ldr	r0, .L83+4
 1325 0024 FFF7FEFF 		bl	terminal_unregister_callback
 1326              	.LVL91:
 1327              		.loc 1 82 0
 1328 0028 0023     		movs	r3, #0
 1329 002a 2B60     		str	r3, [r5]
 1330              		.loc 1 84 0
 1331 002c 38BD     		pop	{r3, r4, r5, pc}
 1332              	.LVL92:
 1333              	.L84:
 1334 002e 00BF     		.align	2
 1335              	.L83:
 1336 0030 00000000 		.word	.LANCHOR6
 1337 0034 00000000 		.word	terminal_read_reg
 1338              		.cfi_endproc
 1339              	.LFE261:
 1340              		.size	icm20948_stop, .-icm20948_stop
 1341              		.section	.bss.gyro.12333,"aw",%nobits
 1342              		.align	2
 1343              		.set	.LANCHOR4,. + 0
 1344              		.type	gyro.12333, %object
 1345              		.size	gyro.12333, 12
 1346              	gyro.12333:
 1347 0000 00000000 		.space	12
 1347      00000000 
 1347      00000000 
 1348              		.section	.bss.is_identical.12327,"aw",%nobits
 1349              		.set	.LANCHOR1,. + 0
 1350              		.type	is_identical.12327, %object
 1351              		.size	is_identical.12327, 1
 1352              	is_identical.12327:
 1353 0000 00       		.space	1
 1354              		.section	.bss.iteration_timer.12322,"aw",%nobits
 1355              		.align	2
 1356              		.set	.LANCHOR0,. + 0
 1357              		.type	iteration_timer.12322, %object
 1358              		.size	iteration_timer.12322, 4
 1359              	iteration_timer.12322:
 1360 0000 00000000 		.space	4
 1361              		.section	.bss.m_terminal_state,"aw",%nobits
 1362              		.align	2
 1363              		.set	.LANCHOR6,. + 0
 1364              		.type	m_terminal_state, %object
 1365              		.size	m_terminal_state, 4
 1366              	m_terminal_state:
ARM GAS  /tmp/cczdPyPs.s 			page 25


 1367 0000 00000000 		.space	4
 1368              		.section	.bss.rxb_last.12325,"aw",%nobits
 1369              		.align	2
 1370              		.set	.LANCHOR2,. + 0
 1371              		.type	rxb_last.12325, %object
 1372              		.size	rxb_last.12325, 12
 1373              	rxb_last.12325:
 1374 0000 00000000 		.space	12
 1374      00000000 
 1374      00000000 
 1375              		.section	.data.accel.12332,"aw",%progbits
 1376              		.align	2
 1377              		.set	.LANCHOR3,. + 0
 1378              		.type	accel.12332, %object
 1379              		.size	accel.12332, 12
 1380              	accel.12332:
 1381 0000 00000000 		.word	0
 1382 0004 00000000 		.word	0
 1383 0008 0000803F 		.word	1065353216
 1384              		.section	.data.mag.12334,"aw",%progbits
 1385              		.align	2
 1386              		.set	.LANCHOR5,. + 0
 1387              		.type	mag.12334, %object
 1388              		.size	mag.12334, 12
 1389              	mag.12334:
 1390 0000 0000A041 		.word	1101004800
 1391 0004 00000000 		.word	0
 1392 0008 00000000 		.word	0
 1393              		.section	.rodata.icm20948_init.str1.4,"aMS",%progbits,1
 1394              		.align	2
 1395              	.LC5:
 1396 0000 5B62616E 		.ascii	"[bank] [reg]\000"
 1396      6B5D205B 
 1396      7265675D 
 1396      00
 1397 000d 000000   		.space	3
 1398              	.LC6:
 1399 0010 52656164 		.ascii	"Read register of the ICM-20948\000"
 1399      20726567 
 1399      69737465 
 1399      72206F66 
 1399      20746865 
 1400 002f 00       		.space	1
 1401              	.LC7:
 1402 0030 69636D5F 		.ascii	"icm_read_reg\000"
 1402      72656164 
 1402      5F726567 
 1402      00
 1403              		.section	.rodata.icm_thread.str1.4,"aMS",%progbits,1
 1404              		.align	2
 1405              	.LC0:
 1406 0000 49434D20 		.ascii	"ICM Sampling\000"
 1406      53616D70 
 1406      6C696E67 
 1406      00
 1407              		.section	.rodata.terminal_read_reg.str1.4,"aMS",%progbits,1
 1408              		.align	2
ARM GAS  /tmp/cczdPyPs.s 			page 26


 1409              	.LC1:
 1410 0000 256400   		.ascii	"%d\000"
 1411 0003 00       		.space	1
 1412              	.LC2:
 1413 0004 52656720 		.ascii	"Reg 0x%02x: %s (0x%02x)\012\000"
 1413      30782530 
 1413      32783A20 
 1413      25732028 
 1413      30782530 
 1414 001d 000000   		.space	3
 1415              	.LC3:
 1416 0020 496E7661 		.ascii	"Invalid argument(s).\012\000"
 1416      6C696420 
 1416      61726775 
 1416      6D656E74 
 1416      2873292E 
 1417 0036 0000     		.space	2
 1418              	.LC4:
 1419 0038 54686973 		.ascii	"This command requires one argument.\012\000"
 1419      20636F6D 
 1419      6D616E64 
 1419      20726571 
 1419      75697265 
 1420              		.text
 1421              	.Letext0:
 1422              		.file 5 "/usr/lib/gcc/arm-none-eabi/7.3.1/include/stddef.h"
 1423              		.file 6 "/usr/arm-none-eabi/include/machine/_default_types.h"
 1424              		.file 7 "/usr/arm-none-eabi/include/sys/_stdint.h"
 1425              		.file 8 "ChibiOS_3.0.2/os/rt/ports/ARMCMx/compilers/GCC/chtypes.h"
 1426              		.file 9 "ChibiOS_3.0.2/os/rt/include/chsystypes.h"
 1427              		.file 10 "ChibiOS_3.0.2/os/rt/include/chschd.h"
 1428              		.file 11 "ChibiOS_3.0.2/os/ext/CMSIS/include/core_cm4.h"
 1429              		.file 12 "ChibiOS_3.0.2/os/ext/CMSIS/ST/system_stm32f4xx.h"
 1430              		.file 13 "ChibiOS_3.0.2/os/ext/CMSIS/ST/stm32f407xx.h"
 1431              		.file 14 "ChibiOS_3.0.2/os/rt/ports/ARMCMx/chcore.h"
 1432              		.file 15 "ChibiOS_3.0.2/os/rt/ports/ARMCMx/chcore_v7m.h"
 1433              		.file 16 "ChibiOS_3.0.2/os/rt/include/chtm.h"
 1434              		.file 17 "ChibiOS_3.0.2/os/rt/include/chsem.h"
 1435              		.file 18 "ChibiOS_3.0.2/os/rt/include/chmtx.h"
 1436              		.file 19 "ChibiOS_3.0.2/os/rt/include/chevents.h"
 1437              		.file 20 "ChibiOS_3.0.2/os/rt/include/chqueues.h"
 1438              		.file 21 "./conf_general.h"
 1439              		.file 22 "ChibiOS_3.0.2/os/hal/ports/STM32/STM32F4xx/stm32_dma.h"
 1440              		.file 23 "ChibiOS_3.0.2/os/hal/ports/STM32/LLD/GPIOv2/pal_lld.h"
 1441              		.file 24 "ChibiOS_3.0.2/os/hal/include/can.h"
 1442              		.file 25 "ChibiOS_3.0.2/os/hal/ports/STM32/LLD/can_lld.h"
 1443              		.file 26 "ChibiOS_3.0.2/os/hal/include/i2c.h"
 1444              		.file 27 "ChibiOS_3.0.2/os/hal/ports/STM32/LLD/I2Cv1/i2c_lld.h"
 1445              		.file 28 "ChibiOS_3.0.2/os/hal/include/icu.h"
 1446              		.file 29 "ChibiOS_3.0.2/os/hal/ports/STM32/LLD/TIMv1/icu_lld.h"
 1447              		.file 30 "ChibiOS_3.0.2/os/hal/ports/STM32/LLD/TIMv1/stm32_tim.h"
 1448              		.file 31 "ChibiOS_3.0.2/os/hal/include/serial.h"
 1449              		.file 32 "ChibiOS_3.0.2/os/hal/ports/STM32/LLD/USARTv1/serial_lld.h"
 1450              		.file 33 "ChibiOS_3.0.2/os/hal/include/spi.h"
 1451              		.file 34 "ChibiOS_3.0.2/os/hal/ports/STM32/LLD/SPIv1/spi_lld.h"
 1452              		.file 35 "ChibiOS_3.0.2/os/hal/include/usb.h"
 1453              		.file 36 "ChibiOS_3.0.2/os/hal/ports/STM32/LLD/OTGv1/usb_lld.h"
ARM GAS  /tmp/cczdPyPs.s 			page 27


 1454              		.file 37 "ChibiOS_3.0.2/os/hal/ports/STM32/LLD/OTGv1/stm32_otg.h"
 1455              		.file 38 "./i2c_bb.h"
 1456              		.file 39 "imu/icm20948.h"
 1457              		.file 40 "/usr/arm-none-eabi/include/sys/lock.h"
 1458              		.file 41 "/usr/arm-none-eabi/include/sys/_types.h"
 1459              		.file 42 "/usr/arm-none-eabi/include/sys/reent.h"
 1460              		.file 43 "ChibiOS_3.0.2/os/rt/include/chsys.h"
 1461              		.file 44 "ChibiOS_3.0.2/os/rt/include/chthreads.h"
 1462              		.file 45 "./terminal.h"
 1463              		.file 46 "./utils.h"
 1464              		.file 47 "./commands.h"
 1465              		.file 48 "/usr/arm-none-eabi/include/stdio.h"