ARM GAS  /tmp/cchRYA0L.s 			page 1


   1              		.cpu cortex-m4
   2              		.eabi_attribute 27, 1
   3              		.eabi_attribute 28, 1
   4              		.eabi_attribute 20, 1
   5              		.eabi_attribute 21, 1
   6              		.eabi_attribute 23, 3
   7              		.eabi_attribute 24, 1
   8              		.eabi_attribute 25, 1
   9              		.eabi_attribute 26, 1
  10              		.eabi_attribute 30, 2
  11              		.eabi_attribute 34, 1
  12              		.eabi_attribute 18, 4
  13              		.file	"main.c"
  14              		.text
  15              	.Ltext0:
  16              		.cfi_sections	.debug_frame
  17              		.section	.text.flash_integrity_check_thread,"ax",%progbits
  18              		.align	1
  19              		.p2align 4,,15
  20              		.syntax unified
  21              		.thumb
  22              		.thumb_func
  23              		.fpu fpv4-sp-d16
  24              		.type	flash_integrity_check_thread, %function
  25              	flash_integrity_check_thread:
  26              	.LFB259:
  27              		.file 1 "main.c"
  28              		.loc 1 83 0
  29              		.cfi_startproc
  30              		@ Volatile: function does not return.
  31              		@ args = 0, pretend = 0, frame = 0
  32              		@ frame_needed = 0, uses_anonymous_args = 0
  33              	.LVL0:
  34 0000 08B5     		push	{r3, lr}
  35              		.cfi_def_cfa_offset 8
  36              		.cfi_offset 3, -8
  37              		.cfi_offset 14, -4
  38              	.LBB22:
  39              	.LBB23:
  40              		.file 2 "ChibiOS_3.0.2/os/rt/include/chregistry.h"
  41              		.loc 2 135 0
  42 0002 0F4B     		ldr	r3, .L7
  43 0004 0F4A     		ldr	r2, .L7+4
  44 0006 9B69     		ldr	r3, [r3, #24]
  45              	.LBE23:
  46              	.LBE22:
  47              		.loc 1 87 0
  48 0008 0121     		movs	r1, #1
  49              	.LBB25:
  50              	.LBB24:
  51              		.loc 2 135 0
  52 000a 9A61     		str	r2, [r3, #24]
  53              	.LVL1:
  54              	.LBE24:
  55              	.LBE25:
  56              		.loc 1 87 0
  57 000c 4FF48050 		mov	r0, #4096
ARM GAS  /tmp/cchRYA0L.s 			page 2


  58              	.LVL2:
  59 0010 FFF7FEFF 		bl	RCC_AHB1PeriphClockCmd
  60              	.LVL3:
  61 0014 01E0     		b	.L4
  62              	.L2:
  63              		.loc 1 94 0
  64 0016 FFF7FEFF 		bl	chThdSleep
  65              	.LVL4:
  66              	.L4:
  67              		.loc 1 90 0
  68 001a FFF7FEFF 		bl	flash_helper_verify_flash_memory_chunk
  69              	.LVL5:
  70 001e 0E28     		cmp	r0, #14
  71              		.loc 1 94 0
  72 0020 4FF03C00 		mov	r0, #60
  73              		.loc 1 90 0
  74 0024 F7D1     		bne	.L2
  75              	.LBB26:
  76              	.LBB27:
  77              	.LBB28:
  78              	.LBB29:
  79              		.file 3 "ChibiOS_3.0.2/os/ext/CMSIS/include/core_cmInstr.h"
  80              		.loc 3 382 0
  81              		.syntax unified
  82              	@ 382 "ChibiOS_3.0.2/os/ext/CMSIS/include/core_cmInstr.h" 1
  83 0026 BFF34F8F 		dsb
  84              	@ 0 "" 2
  85              		.thumb
  86              		.syntax unified
  87              	.LBE29:
  88              	.LBE28:
  89              		.file 4 "ChibiOS_3.0.2/os/ext/CMSIS/include/core_cm4.h"
  90              		.loc 4 1643 0
  91 002a 0749     		ldr	r1, .L7+8
  92 002c 074B     		ldr	r3, .L7+12
  93 002e CA68     		ldr	r2, [r1, #12]
  94 0030 02F4E062 		and	r2, r2, #1792
  95 0034 1343     		orrs	r3, r3, r2
  96              		.loc 4 1642 0
  97 0036 CB60     		str	r3, [r1, #12]
  98              	.LBB30:
  99              	.LBB31:
 100              		.loc 3 382 0
 101              		.syntax unified
 102              	@ 382 "ChibiOS_3.0.2/os/ext/CMSIS/include/core_cmInstr.h" 1
 103 0038 BFF34F8F 		dsb
 104              	@ 0 "" 2
 105              		.thumb
 106              		.syntax unified
 107              	.L3:
 108 003c FEE7     		b	.L3
 109              	.L8:
 110 003e 00BF     		.align	2
 111              	.L7:
 112 0040 00000000 		.word	ch
 113 0044 00000000 		.word	.LC1
 114 0048 00ED00E0 		.word	-536810240
ARM GAS  /tmp/cchRYA0L.s 			page 3


 115 004c 0400FA05 		.word	100270084
 116              	.LBE31:
 117              	.LBE30:
 118              	.LBE27:
 119              	.LBE26:
 120              		.cfi_endproc
 121              	.LFE259:
 122              		.size	flash_integrity_check_thread, .-flash_integrity_check_thread
 123              		.section	.text.timer_thread,"ax",%progbits
 124              		.align	1
 125              		.p2align 4,,15
 126              		.syntax unified
 127              		.thumb
 128              		.thumb_func
 129              		.fpu fpv4-sp-d16
 130              		.type	timer_thread, %function
 131              	timer_thread:
 132              	.LFB261:
 133              		.loc 1 166 0
 134              		.cfi_startproc
 135              		@ Volatile: function does not return.
 136              		@ args = 0, pretend = 0, frame = 0
 137              		@ frame_needed = 0, uses_anonymous_args = 0
 138              	.LVL6:
 139 0000 08B5     		push	{r3, lr}
 140              		.cfi_def_cfa_offset 8
 141              		.cfi_offset 3, -8
 142              		.cfi_offset 14, -4
 143              	.LBB32:
 144              	.LBB33:
 145              		.loc 2 135 0
 146 0002 064B     		ldr	r3, .L12
 147 0004 064A     		ldr	r2, .L12+4
 148 0006 9B69     		ldr	r3, [r3, #24]
 149 0008 9A61     		str	r2, [r3, #24]
 150              	.LVL7:
 151              	.L10:
 152              	.LBE33:
 153              	.LBE32:
 154              		.loc 1 172 0 discriminator 1
 155 000a FFF7FEFF 		bl	packet_timerfunc
 156              	.LVL8:
 157              		.loc 1 173 0 discriminator 1
 158 000e 0220     		movs	r0, #2
 159 0010 FFF7FEFF 		bl	timeout_feed_WDT
 160              	.LVL9:
 161              		.loc 1 174 0 discriminator 1
 162 0014 0A20     		movs	r0, #10
 163 0016 FFF7FEFF 		bl	chThdSleep
 164              	.LVL10:
 165 001a F6E7     		b	.L10
 166              	.L13:
 167              		.align	2
 168              	.L12:
 169 001c 00000000 		.word	ch
 170 0020 00000000 		.word	.LC2
 171              		.cfi_endproc
ARM GAS  /tmp/cchRYA0L.s 			page 4


 172              	.LFE261:
 173              		.size	timer_thread, .-timer_thread
 174              		.section	.text.periodic_thread,"ax",%progbits
 175              		.align	1
 176              		.p2align 4,,15
 177              		.syntax unified
 178              		.thumb
 179              		.thumb_func
 180              		.fpu fpv4-sp-d16
 181              		.type	periodic_thread, %function
 182              	periodic_thread:
 183              	.LFB260:
 184              		.loc 1 98 0
 185              		.cfi_startproc
 186              		@ args = 0, pretend = 0, frame = 0
 187              		@ frame_needed = 0, uses_anonymous_args = 0
 188              	.LVL11:
 189 0000 38B5     		push	{r3, r4, r5, lr}
 190              		.cfi_def_cfa_offset 16
 191              		.cfi_offset 3, -16
 192              		.cfi_offset 4, -12
 193              		.cfi_offset 5, -8
 194              		.cfi_offset 14, -4
 195              	.LBB34:
 196              	.LBB35:
 197              		.loc 2 135 0
 198 0002 474B     		ldr	r3, .L38
 199 0004 474A     		ldr	r2, .L38+4
 200 0006 9B69     		ldr	r3, [r3, #24]
 201              	.LBE35:
 202              	.LBE34:
 203              		.loc 1 98 0
 204 0008 2DED048B 		vpush.64	{d8, d9}
 205              		.cfi_def_cfa_offset 32
 206              		.cfi_offset 80, -32
 207              		.cfi_offset 81, -28
 208              		.cfi_offset 82, -24
 209              		.cfi_offset 83, -20
 210              	.LBB37:
 211              		.loc 1 107 0
 212 000c DFED468A 		vldr.32	s17, .L38+8
 213              	.LBB38:
 214              		.loc 1 115 0
 215 0010 9FED468A 		vldr.32	s16, .L38+12
 216              	.LBE38:
 217              	.LBE37:
 218              	.LBB40:
 219              	.LBB36:
 220              		.loc 2 135 0
 221 0014 9A61     		str	r2, [r3, #24]
 222 0016 2BE0     		b	.L28
 223              	.LVL12:
 224              	.L33:
 225              	.LBE36:
 226              	.LBE40:
 227              	.LBB41:
 228              		.loc 1 121 0
ARM GAS  /tmp/cchRYA0L.s 			page 5


 229 0018 B0EE480A 		vmov.f32	s0, s16
 230 001c 0120     		movs	r0, #1
 231              	.LVL13:
 232 001e FFF7FEFF 		bl	ledpwm_set_intensity
 233              	.LVL14:
 234              		.loc 1 124 0
 235 0022 FFF7FEFF 		bl	mc_interface_get_state
 236              	.LVL15:
 237 0026 0128     		cmp	r0, #1
 238 0028 50D0     		beq	.L35
 239              	.L19:
 240              		.loc 1 128 0
 241 002a FFF7FEFF 		bl	commands_get_disp_pos_mode
 242              	.LVL16:
 243              		.loc 1 130 0
 244 002e 0428     		cmp	r0, #4
 245              		.loc 1 128 0
 246 0030 0446     		mov	r4, r0
 247              	.LVL17:
 248              		.loc 1 130 0
 249 0032 54D0     		beq	.L21
 250              	.L37:
 251 0034 0528     		cmp	r0, #5
 252 0036 5FD0     		beq	.L22
 253 0038 0328     		cmp	r0, #3
 254 003a 55D0     		beq	.L36
 255              		.loc 1 147 0
 256 003c FFF7FEFF 		bl	mc_interface_get_configuration
 257              	.LVL18:
 258 0040 8378     		ldrb	r3, [r0, #2]	@ zero_extendqisi2
 259 0042 022B     		cmp	r3, #2
 260 0044 11D1     		bne	.L25
 261              		.loc 1 148 0
 262 0046 022C     		cmp	r4, #2
 263 0048 65D0     		beq	.L26
 264 004a 062C     		cmp	r4, #6
 265 004c 0DD1     		bne	.L25
 266              		.loc 1 154 0
 267 004e FFF7FEFF 		bl	mcpwm_foc_get_phase_observer
 268              	.LVL19:
 269 0052 B0EE409A 		vmov.f32	s18, s0
 270 0056 FFF7FEFF 		bl	mcpwm_foc_get_phase_encoder
 271              	.LVL20:
 272 005a F0EE400A 		vmov.f32	s1, s0
 273 005e B0EE490A 		vmov.f32	s0, s18
 274 0062 FFF7FEFF 		bl	utils_angle_difference
 275              	.LVL21:
 276 0066 FFF7FEFF 		bl	commands_send_rotor_pos
 277              	.LVL22:
 278              	.L25:
 279              		.loc 1 162 0
 280 006a 6420     		movs	r0, #100
 281 006c FFF7FEFF 		bl	chThdSleep
 282              	.LVL23:
 283              	.L28:
 284              		.loc 1 104 0
 285 0070 FFF7FEFF 		bl	mc_interface_get_state
ARM GAS  /tmp/cchRYA0L.s 			page 6


 286              	.LVL24:
 287 0074 0228     		cmp	r0, #2
 288              		.loc 1 105 0
 289 0076 0CBF     		ite	eq
 290 0078 B7EE000A 		vmoveq.f32	s0, #1.0e+0
 291              		.loc 1 107 0
 292 007c B0EE680A 		vmovne.f32	s0, s17
 293 0080 0020     		movs	r0, #0
 294 0082 FFF7FEFF 		bl	ledpwm_set_intensity
 295              	.LVL25:
 296              		.loc 1 110 0
 297 0086 FFF7FEFF 		bl	mc_interface_get_fault
 298              	.LVL26:
 299              		.loc 1 111 0
 300 008a 0546     		mov	r5, r0
 301 008c 0028     		cmp	r0, #0
 302 008e C3D0     		beq	.L33
 303              	.LVL27:
 304              	.LBB39:
 305              		.loc 1 112 0
 306 0090 0024     		movs	r4, #0
 307              	.LVL28:
 308              	.L17:
 309              		.loc 1 113 0 discriminator 3
 310 0092 B7EE000A 		vmov.f32	s0, #1.0e+0
 311 0096 0120     		movs	r0, #1
 312 0098 FFF7FEFF 		bl	ledpwm_set_intensity
 313              	.LVL29:
 314              		.loc 1 114 0 discriminator 3
 315 009c 40F6C410 		movw	r0, #2500
 316 00a0 FFF7FEFF 		bl	chThdSleep
 317              	.LVL30:
 318              		.loc 1 115 0 discriminator 3
 319 00a4 0120     		movs	r0, #1
 320 00a6 B0EE480A 		vmov.f32	s0, s16
 321              		.loc 1 112 0 discriminator 3
 322 00aa 0444     		add	r4, r4, r0
 323              	.LVL31:
 324              		.loc 1 115 0 discriminator 3
 325 00ac FFF7FEFF 		bl	ledpwm_set_intensity
 326              	.LVL32:
 327              		.loc 1 116 0 discriminator 3
 328 00b0 40F6C410 		movw	r0, #2500
 329 00b4 FFF7FEFF 		bl	chThdSleep
 330              	.LVL33:
 331              		.loc 1 112 0 discriminator 3
 332 00b8 AC42     		cmp	r4, r5
 333 00ba EAD1     		bne	.L17
 334              	.LBE39:
 335              		.loc 1 119 0
 336 00bc 41F28830 		movw	r0, #5000
 337 00c0 FFF7FEFF 		bl	chThdSleep
 338              	.LVL34:
 339              		.loc 1 124 0
 340 00c4 FFF7FEFF 		bl	mc_interface_get_state
 341              	.LVL35:
 342 00c8 0128     		cmp	r0, #1
ARM GAS  /tmp/cchRYA0L.s 			page 7


 343 00ca AED1     		bne	.L19
 344              	.LVL36:
 345              	.L35:
 346              		.loc 1 125 0
 347 00cc FFF7FEFF 		bl	mcpwm_get_detect_pos
 348              	.LVL37:
 349 00d0 FFF7FEFF 		bl	commands_send_rotor_pos
 350              	.LVL38:
 351              		.loc 1 128 0
 352 00d4 FFF7FEFF 		bl	commands_get_disp_pos_mode
 353              	.LVL39:
 354              		.loc 1 130 0
 355 00d8 0428     		cmp	r0, #4
 356              		.loc 1 128 0
 357 00da 0446     		mov	r4, r0
 358              	.LVL40:
 359              		.loc 1 130 0
 360 00dc AAD1     		bne	.L37
 361              	.L21:
 362              		.loc 1 136 0
 363 00de FFF7FEFF 		bl	mc_interface_get_pid_pos_now
 364              	.LVL41:
 365 00e2 FFF7FEFF 		bl	commands_send_rotor_pos
 366              	.LVL42:
 367              		.loc 1 137 0
 368 00e6 03E0     		b	.L24
 369              	.LVL43:
 370              	.L36:
 371              		.loc 1 132 0
 372 00e8 FFF7FEFF 		bl	encoder_read_deg
 373              	.LVL44:
 374 00ec FFF7FEFF 		bl	commands_send_rotor_pos
 375              	.LVL45:
 376              	.L24:
 377              		.loc 1 147 0
 378 00f0 FFF7FEFF 		bl	mc_interface_get_configuration
 379              	.LVL46:
 380 00f4 8378     		ldrb	r3, [r0, #2]	@ zero_extendqisi2
 381 00f6 B8E7     		b	.L25
 382              	.LVL47:
 383              	.L22:
 384              		.loc 1 140 0
 385 00f8 FFF7FEFF 		bl	mc_interface_get_pid_pos_set
 386              	.LVL48:
 387 00fc B0EE409A 		vmov.f32	s18, s0
 388 0100 FFF7FEFF 		bl	mc_interface_get_pid_pos_now
 389              	.LVL49:
 390 0104 F0EE400A 		vmov.f32	s1, s0
 391 0108 B0EE490A 		vmov.f32	s0, s18
 392 010c FFF7FEFF 		bl	utils_angle_difference
 393              	.LVL50:
 394 0110 FFF7FEFF 		bl	commands_send_rotor_pos
 395              	.LVL51:
 396              		.loc 1 141 0
 397 0114 ECE7     		b	.L24
 398              	.L26:
 399              		.loc 1 150 0
ARM GAS  /tmp/cchRYA0L.s 			page 8


 400 0116 FFF7FEFF 		bl	mcpwm_foc_get_phase_observer
 401              	.LVL52:
 402 011a FFF7FEFF 		bl	commands_send_rotor_pos
 403              	.LVL53:
 404              		.loc 1 151 0
 405 011e A4E7     		b	.L25
 406              	.L39:
 407              		.align	2
 408              	.L38:
 409 0120 00000000 		.word	ch
 410 0124 00000000 		.word	.LC3
 411 0128 CDCC4C3E 		.word	1045220557
 412 012c 00000000 		.word	0
 413              	.LBE41:
 414              		.cfi_endproc
 415              	.LFE260:
 416              		.size	periodic_thread, .-periodic_thread
 417              		.section	.text.assert_failed,"ax",%progbits
 418              		.align	1
 419              		.p2align 4,,15
 420              		.global	assert_failed
 421              		.syntax unified
 422              		.thumb
 423              		.thumb_func
 424              		.fpu fpv4-sp-d16
 425              		.type	assert_failed, %function
 426              	assert_failed:
 427              	.LFB262:
 428              		.loc 1 179 0
 429              		.cfi_startproc
 430              		@ Volatile: function does not return.
 431              		@ args = 0, pretend = 0, frame = 0
 432              		@ frame_needed = 0, uses_anonymous_args = 0
 433              	.LVL54:
 434              		.loc 1 180 0
 435 0000 0A46     		mov	r2, r1
 436              		.loc 1 179 0
 437 0002 08B5     		push	{r3, lr}
 438              		.cfi_def_cfa_offset 8
 439              		.cfi_offset 3, -8
 440              		.cfi_offset 14, -4
 441              		.loc 1 180 0
 442 0004 0146     		mov	r1, r0
 443              	.LVL55:
 444 0006 0448     		ldr	r0, .L43
 445              	.LVL56:
 446 0008 FFF7FEFF 		bl	commands_printf
 447              	.LVL57:
 448              		.loc 1 181 0
 449 000c FFF7FEFF 		bl	mc_interface_release_motor
 450              	.LVL58:
 451              	.L41:
 452              		.loc 1 183 0 discriminator 1
 453 0010 0A20     		movs	r0, #10
 454 0012 FFF7FEFF 		bl	chThdSleep
 455              	.LVL59:
 456 0016 FBE7     		b	.L41
ARM GAS  /tmp/cchRYA0L.s 			page 9


 457              	.L44:
 458              		.align	2
 459              	.L43:
 460 0018 00000000 		.word	.LC4
 461              		.cfi_endproc
 462              	.LFE262:
 463              		.size	assert_failed, .-assert_failed
 464              		.section	.text.startup.main,"ax",%progbits
 465              		.align	1
 466              		.p2align 4,,15
 467              		.global	main
 468              		.syntax unified
 469              		.thumb
 470              		.thumb_func
 471              		.fpu fpv4-sp-d16
 472              		.type	main, %function
 473              	main:
 474              	.LFB263:
 475              		.loc 1 187 0
 476              		.cfi_startproc
 477              		@ Volatile: function does not return.
 478              		@ args = 0, pretend = 0, frame = 848
 479              		@ frame_needed = 0, uses_anonymous_args = 0
 480 0000 00B5     		push	{lr}
 481              		.cfi_def_cfa_offset 4
 482              		.cfi_offset 14, -4
 483 0002 ADF5577D 		sub	sp, sp, #860
 484              		.cfi_def_cfa_offset 864
 485              		.loc 1 188 0
 486 0006 FFF7FEFF 		bl	halInit
 487              	.LVL60:
 488              		.loc 1 189 0
 489 000a FFF7FEFF 		bl	chSysInit
 490              	.LVL61:
 491              		.loc 1 191 0
 492 000e FFF7FEFF 		bl	spiInit
 493              	.LVL62:
 494              		.loc 1 192 0
 495 0012 374B     		ldr	r3, .L50
 496              		.loc 1 215 0
 497 0014 374D     		ldr	r5, .L50+4
 498              		.loc 1 192 0
 499 0016 1B68     		ldr	r3, [r3]
 500 0018 0393     		str	r3, [sp, #12]
 501              		.loc 1 196 0
 502 001a 03A8     		add	r0, sp, #12
 503 001c 0421     		movs	r1, #4
 504 001e FFF7FEFF 		bl	spiSendData
 505              	.LVL63:
 506              		.loc 1 199 0
 507 0022 0421     		movs	r1, #4
 508 0024 04A8     		add	r0, sp, #16
 509 0026 FFF7FEFF 		bl	spiReceiveData
 510              	.LVL64:
 511              		.loc 1 212 0
 512 002a 4FF47A70 		mov	r0, #1000
 513 002e FFF7FEFF 		bl	chThdSleep
ARM GAS  /tmp/cchRYA0L.s 			page 10


 514              	.LVL65:
 515              		.loc 1 215 0
 516 0032 0224     		movs	r4, #2
 517              		.loc 1 214 0
 518 0034 FFF7FEFF 		bl	hw_init_gpio
 519              	.LVL66:
 520              		.loc 1 216 0
 521 0038 0123     		movs	r3, #1
 522              		.loc 1 215 0
 523 003a 6C83     		strh	r4, [r5, #26]	@ movhi
 524              		.loc 1 216 0
 525 003c 6B83     		strh	r3, [r5, #26]	@ movhi
 526              		.loc 1 218 0
 527 003e FFF7FEFF 		bl	timer_init
 528              	.LVL67:
 529              		.loc 1 219 0
 530 0042 FFF7FEFF 		bl	conf_general_init
 531              	.LVL68:
 532              		.loc 1 221 0
 533 0046 FFF7FEFF 		bl	flash_helper_verify_flash_memory
 534              	.LVL69:
 535 004a 0E28     		cmp	r0, #14
 536 004c 44D0     		beq	.L47
 537              		.loc 1 231 0
 538 004e FFF7FEFF 		bl	ledpwm_init
 539              	.LVL70:
 540              		.loc 1 234 0
 541 0052 64A8     		add	r0, sp, #400
 542 0054 FFF7FEFF 		bl	conf_general_read_mc_configuration
 543              	.LVL71:
 544              		.loc 1 236 0
 545 0058 64A8     		add	r0, sp, #400
 546 005a FFF7FEFF 		bl	mc_interface_init
 547              	.LVL72:
 548              		.loc 1 239 0
 549 005e 05A8     		add	r0, sp, #20
 550 0060 FFF7FEFF 		bl	conf_general_read_custom_configuration
 551              	.LVL73:
 552              		.loc 1 241 0
 553 0064 FFF7FEFF 		bl	commands_init
 554              	.LVL74:
 555              		.loc 1 244 0
 556 0068 FFF7FEFF 		bl	comm_usb_init
 557              	.LVL75:
 558              		.loc 1 248 0
 559 006c FFF7FEFF 		bl	comm_can_init
 560              	.LVL76:
 561              		.loc 1 252 0
 562 0070 06A8     		add	r0, sp, #24
 563 0072 FFF7FEFF 		bl	conf_general_read_app_configuration
 564              	.LVL77:
 565              		.loc 1 253 0
 566 0076 06A8     		add	r0, sp, #24
 567 0078 FFF7FEFF 		bl	app_set_configuration
 568              	.LVL78:
 569              		.loc 1 292 0
 570 007c 0025     		movs	r5, #0
ARM GAS  /tmp/cchRYA0L.s 			page 11


 571              		.loc 1 259 0
 572 007e 0598     		ldr	r0, [sp, #20]
 573 0080 FFF7FEFF 		bl	mc_interface_set_odo_value
 574              	.LVL79:
 575              		.loc 1 261 0
 576 0084 FFF7FEFF 		bl	app_uartcomm_start_permanent
 577              	.LVL80:
 578              		.loc 1 292 0
 579 0088 1B4B     		ldr	r3, .L50+8
 580 008a 0095     		str	r5, [sp]
 581 008c 4022     		movs	r2, #64
 582 008e 4FF4B361 		mov	r1, #1432
 583 0092 1A48     		ldr	r0, .L50+12
 584 0094 FFF7FEFF 		bl	chThdCreateStatic
 585              	.LVL81:
 586              		.loc 1 293 0
 587 0098 194B     		ldr	r3, .L50+16
 588 009a 0095     		str	r5, [sp]
 589 009c 4022     		movs	r2, #64
 590 009e 4FF40671 		mov	r1, #536
 591 00a2 1848     		ldr	r0, .L50+20
 592 00a4 FFF7FEFF 		bl	chThdCreateStatic
 593              	.LVL82:
 594              		.loc 1 294 0
 595 00a8 2246     		mov	r2, r4
 596 00aa 174B     		ldr	r3, .L50+24
 597 00ac 0095     		str	r5, [sp]
 598 00ae 4FF42671 		mov	r1, #664
 599 00b2 1648     		ldr	r0, .L50+28
 600 00b4 FFF7FEFF 		bl	chThdCreateStatic
 601              	.LVL83:
 602              		.loc 1 356 0
 603 00b8 FFF7FEFF 		bl	timeout_init
 604              	.LVL84:
 605              		.loc 1 357 0
 606 00bc 9DED080A 		vldr.32	s0, [sp, #32]
 607 00c0 0798     		ldr	r0, [sp, #28]
 608 00c2 FFF7FEFF 		bl	timeout_configure
 609              	.LVL85:
 610              		.loc 1 358 0
 611 00c6 51A8     		add	r0, sp, #324
 612 00c8 FFF7FEFF 		bl	imu_init
 613              	.LVL86:
 614              		.loc 1 361 0
 615 00cc FFF7FEFF 		bl	bm_init
 616              	.LVL87:
 617              	.L48:
 618              		.loc 1 369 0 discriminator 1
 619 00d0 6420     		movs	r0, #100
 620 00d2 FFF7FEFF 		bl	chThdSleep
 621              	.LVL88:
 622 00d6 FBE7     		b	.L48
 623              	.L47:
 624              		.loc 1 224 0 discriminator 1
 625 00d8 4FF47A70 		mov	r0, #1000
 626 00dc FFF7FEFF 		bl	chThdSleep
 627              	.LVL89:
ARM GAS  /tmp/cchRYA0L.s 			page 12


 628              		.loc 1 225 0 discriminator 1
 629 00e0 2C83     		strh	r4, [r5, #24]	@ movhi
 630              		.loc 1 226 0 discriminator 1
 631 00e2 40F2EE20 		movw	r0, #750
 632 00e6 FFF7FEFF 		bl	chThdSleep
 633              	.LVL90:
 634              		.loc 1 227 0 discriminator 1
 635 00ea 6C83     		strh	r4, [r5, #26]	@ movhi
 636 00ec F4E7     		b	.L47
 637              	.L51:
 638 00ee 00BF     		.align	2
 639              	.L50:
 640 00f0 00000000 		.word	.LANCHOR0
 641 00f4 00040240 		.word	1073873920
 642 00f8 00000000 		.word	periodic_thread
 643 00fc 00000000 		.word	.LANCHOR1
 644 0100 00000000 		.word	timer_thread
 645 0104 00000000 		.word	.LANCHOR2
 646 0108 00000000 		.word	flash_integrity_check_thread
 647 010c 00000000 		.word	.LANCHOR3
 648              		.cfi_endproc
 649              	.LFE263:
 650              		.size	main, .-main
 651              		.section	.rodata
 652              		.align	2
 653              		.set	.LANCHOR0,. + 0
 654              	.LC0:
 655 0000 01       		.byte	1
 656 0001 02       		.byte	2
 657 0002 03       		.byte	3
 658 0003 04       		.byte	4
 659              		.section	.bss.flash_integrity_check_thread_wa,"aw",%nobits
 660              		.align	3
 661              		.set	.LANCHOR3,. + 0
 662              		.type	flash_integrity_check_thread_wa, %object
 663              		.size	flash_integrity_check_thread_wa, 664
 664              	flash_integrity_check_thread_wa:
 665 0000 00000000 		.space	664
 665      00000000 
 665      00000000 
 665      00000000 
 665      00000000 
 666              		.section	.bss.periodic_thread_wa,"aw",%nobits
 667              		.align	3
 668              		.set	.LANCHOR1,. + 0
 669              		.type	periodic_thread_wa, %object
 670              		.size	periodic_thread_wa, 1432
 671              	periodic_thread_wa:
 672 0000 00000000 		.space	1432
 672      00000000 
 672      00000000 
 672      00000000 
 672      00000000 
 673              		.section	.bss.timer_thread_wa,"aw",%nobits
 674              		.align	3
 675              		.set	.LANCHOR2,. + 0
 676              		.type	timer_thread_wa, %object
ARM GAS  /tmp/cchRYA0L.s 			page 13


 677              		.size	timer_thread_wa, 536
 678              	timer_thread_wa:
 679 0000 00000000 		.space	536
 679      00000000 
 679      00000000 
 679      00000000 
 679      00000000 
 680              		.section	.rodata.assert_failed.str1.4,"aMS",%progbits,1
 681              		.align	2
 682              	.LC4:
 683 0000 57726F6E 		.ascii	"Wrong parameters value: file %s on line %d\015\012\000"
 683      67207061 
 683      72616D65 
 683      74657273 
 683      2076616C 
 684              		.section	.rodata.flash_integrity_check_thread.str1.4,"aMS",%progbits,1
 685              		.align	2
 686              	.LC1:
 687 0000 466C6173 		.ascii	"Flash check\000"
 687      68206368 
 687      65636B00 
 688              		.section	.rodata.periodic_thread.str1.4,"aMS",%progbits,1
 689              		.align	2
 690              	.LC3:
 691 0000 4D61696E 		.ascii	"Main periodic\000"
 691      20706572 
 691      696F6469 
 691      6300
 692              		.section	.rodata.timer_thread.str1.4,"aMS",%progbits,1
 693              		.align	2
 694              	.LC2:
 695 0000 6D736563 		.ascii	"msec_timer\000"
 695      5F74696D 
 695      657200
 696              		.text
 697              	.Letext0:
 698              		.file 5 "/usr/lib/gcc/arm-none-eabi/7.3.1/include/stddef.h"
 699              		.file 6 "/usr/arm-none-eabi/include/machine/_default_types.h"
 700              		.file 7 "/usr/arm-none-eabi/include/sys/_stdint.h"
 701              		.file 8 "ChibiOS_3.0.2/os/rt/ports/ARMCMx/compilers/GCC/chtypes.h"
 702              		.file 9 "ChibiOS_3.0.2/os/rt/include/chsystypes.h"
 703              		.file 10 "ChibiOS_3.0.2/os/rt/include/chschd.h"
 704              		.file 11 "ChibiOS_3.0.2/os/ext/CMSIS/ST/system_stm32f4xx.h"
 705              		.file 12 "ChibiOS_3.0.2/os/ext/CMSIS/ST/stm32f407xx.h"
 706              		.file 13 "ChibiOS_3.0.2/os/rt/ports/ARMCMx/chcore.h"
 707              		.file 14 "ChibiOS_3.0.2/os/rt/ports/ARMCMx/chcore_v7m.h"
 708              		.file 15 "ChibiOS_3.0.2/os/rt/include/chtm.h"
 709              		.file 16 "ChibiOS_3.0.2/os/rt/include/chsem.h"
 710              		.file 17 "ChibiOS_3.0.2/os/rt/include/chmtx.h"
 711              		.file 18 "ChibiOS_3.0.2/os/rt/include/chevents.h"
 712              		.file 19 "ChibiOS_3.0.2/os/rt/include/chqueues.h"
 713              		.file 20 "ChibiOS_3.0.2/os/ext/CMSIS/ST/stm32f4xx.h"
 714              		.file 21 "./datatypes.h"
 715              		.file 22 "./conf_general.h"
 716              		.file 23 "ChibiOS_3.0.2/os/hal/ports/STM32/STM32F4xx/stm32_dma.h"
 717              		.file 24 "ChibiOS_3.0.2/os/hal/ports/STM32/LLD/GPIOv2/pal_lld.h"
 718              		.file 25 "ChibiOS_3.0.2/os/hal/include/can.h"
ARM GAS  /tmp/cchRYA0L.s 			page 14


 719              		.file 26 "ChibiOS_3.0.2/os/hal/ports/STM32/LLD/can_lld.h"
 720              		.file 27 "ChibiOS_3.0.2/os/hal/include/i2c.h"
 721              		.file 28 "ChibiOS_3.0.2/os/hal/ports/STM32/LLD/I2Cv1/i2c_lld.h"
 722              		.file 29 "ChibiOS_3.0.2/os/hal/include/icu.h"
 723              		.file 30 "ChibiOS_3.0.2/os/hal/ports/STM32/LLD/TIMv1/icu_lld.h"
 724              		.file 31 "ChibiOS_3.0.2/os/hal/ports/STM32/LLD/TIMv1/stm32_tim.h"
 725              		.file 32 "ChibiOS_3.0.2/os/hal/include/serial.h"
 726              		.file 33 "ChibiOS_3.0.2/os/hal/ports/STM32/LLD/USARTv1/serial_lld.h"
 727              		.file 34 "ChibiOS_3.0.2/os/hal/include/spi.h"
 728              		.file 35 "ChibiOS_3.0.2/os/hal/ports/STM32/LLD/SPIv1/spi_lld.h"
 729              		.file 36 "ChibiOS_3.0.2/os/hal/include/usb.h"
 730              		.file 37 "ChibiOS_3.0.2/os/hal/ports/STM32/LLD/OTGv1/usb_lld.h"
 731              		.file 38 "ChibiOS_3.0.2/os/hal/ports/STM32/LLD/OTGv1/stm32_otg.h"
 732              		.file 39 "/usr/arm-none-eabi/include/sys/lock.h"
 733              		.file 40 "/usr/arm-none-eabi/include/sys/_types.h"
 734              		.file 41 "/usr/arm-none-eabi/include/sys/reent.h"
 735              		.file 42 "/usr/arm-none-eabi/include/math.h"
 736              		.file 43 "/usr/arm-none-eabi/include/stdlib.h"
 737              		.file 44 "mc_interface.h"
 738              		.file 45 "mcpwm.h"
 739              		.file 46 "timeout.h"
 740              		.file 47 "ChibiOS_3.0.2/os/hal/include/hal.h"
 741              		.file 48 "ChibiOS_3.0.2/os/rt/include/chsys.h"
 742              		.file 49 "spi.h"
 743              		.file 50 "ChibiOS_3.0.2/os/rt/include/chthreads.h"
 744              		.file 51 "hwconf/hw.h"
 745              		.file 52 "timer.h"
 746              		.file 53 "flash_helper.h"
 747              		.file 54 "ledpwm.h"
 748              		.file 55 "commands.h"
 749              		.file 56 "comm_usb.h"
 750              		.file 57 "comm_can.h"
 751              		.file 58 "applications/app.h"
 752              		.file 59 "imu/imu.h"
 753              		.file 60 "blackmagic/bm_if.h"
 754              		.file 61 "packet.h"
 755              		.file 62 "mcpwm_foc.h"
 756              		.file 63 "utils.h"
 757              		.file 64 "encoder.h"
 758              		.file 65 "ChibiOS_3.0.2/ext/stdperiph_stm32f4/inc/stm32f4xx_rcc.h"