ARM GAS  /tmp/cc6NCFXM.s 			page 1


   1              		.cpu cortex-m4
   2              		.eabi_attribute 27, 1
   3              		.eabi_attribute 28, 1
   4              		.eabi_attribute 20, 1
   5              		.eabi_attribute 21, 1
   6              		.eabi_attribute 23, 3
   7              		.eabi_attribute 24, 1
   8              		.eabi_attribute 25, 1
   9              		.eabi_attribute 26, 1
  10              		.eabi_attribute 30, 2
  11              		.eabi_attribute 34, 1
  12              		.eabi_attribute 18, 4
  13              		.file	"nrf_driver.c"
  14              		.text
  15              	.Ltext0:
  16              		.cfi_sections	.debug_frame
  17              		.section	.text.rf_tx_wrapper,"ax",%progbits
  18              		.align	1
  19              		.p2align 4,,15
  20              		.syntax unified
  21              		.thumb
  22              		.thumb_func
  23              		.fpu fpv4-sp-d16
  24              		.type	rf_tx_wrapper, %function
  25              	rf_tx_wrapper:
  26              	.LFB223:
  27              		.file 1 "nrf/nrf_driver.c"
  28              		.loc 1 165 0
  29              		.cfi_startproc
  30              		@ args = 0, pretend = 0, frame = 0
  31              		@ frame_needed = 1, uses_anonymous_args = 0
  32              	.LVL0:
  33 0000 B0B5     		push	{r4, r5, r7, lr}
  34              		.cfi_def_cfa_offset 16
  35              		.cfi_offset 4, -16
  36              		.cfi_offset 5, -12
  37              		.cfi_offset 7, -8
  38              		.cfi_offset 14, -4
  39              		.loc 1 168 0
  40 0002 134B     		ldr	r3, .L7
  41 0004 1B78     		ldrb	r3, [r3]	@ zero_extendqisi2
  42              		.loc 1 165 0
  43 0006 00AF     		add	r7, sp, #0
  44              		.cfi_def_cfa_register 7
  45              		.loc 1 168 0
  46 0008 43B9     		cbnz	r3, .L6
  47              		.loc 1 174 0
  48 000a FFF7FEFF 		bl	rfhelp_send_data_crc
  49              	.LVL1:
  50              		.loc 1 176 0
  51 000e 18B9     		cbnz	r0, .L1
  52              		.loc 1 177 0
  53 0010 104B     		ldr	r3, .L7+4
  54 0012 4FF4FA72 		mov	r2, #500
  55 0016 1A60     		str	r2, [r3]
  56              	.L1:
  57              		.loc 1 182 0
ARM GAS  /tmp/cc6NCFXM.s 			page 2


  58 0018 BD46     		mov	sp, r7
  59              		.cfi_remember_state
  60              		.cfi_def_cfa_register 13
  61              		@ sp needed
  62 001a B0BD     		pop	{r4, r5, r7, pc}
  63              	.LVL2:
  64              	.L6:
  65              		.cfi_restore_state
  66              	.LBB27:
  67              	.LBB28:
  68              	.LBB29:
  69              		.loc 1 169 0
  70 001c 01F10803 		add	r3, r1, #8
  71 0020 23F00703 		bic	r3, r3, #7
  72              		.loc 1 168 0
  73 0024 6D46     		mov	r5, sp
  74              		.loc 1 169 0
  75 0026 ADEB030D 		sub	sp, sp, r3
  76 002a 0446     		mov	r4, r0
  77              	.LVL3:
  78              		.loc 1 170 0
  79 002c 6846     		mov	r0, sp
  80              	.LVL4:
  81 002e 0A46     		mov	r2, r1
  82              	.LVL5:
  83 0030 3623     		movs	r3, #54
  84 0032 00F8013B 		strb	r3, [r0], #1
  85              	.LVL6:
  86              		.loc 1 171 0
  87 0036 2146     		mov	r1, r4
  88              	.LVL7:
  89              		.loc 1 169 0
  90 0038 541C     		adds	r4, r2, #1
  91              	.LVL8:
  92              		.loc 1 171 0
  93 003a FFF7FEFF 		bl	memcpy
  94              	.LVL9:
  95              		.loc 1 172 0
  96 003e 6846     		mov	r0, sp
  97 0040 2146     		mov	r1, r4
  98 0042 FFF7FEFF 		bl	commands_send_packet_nrf
  99              	.LVL10:
 100 0046 0020     		movs	r0, #0
 101 0048 AD46     		mov	sp, r5
 102              	.LVL11:
 103              	.LBE29:
 104              	.LBE28:
 105              	.LBE27:
 106              		.loc 1 182 0
 107 004a BD46     		mov	sp, r7
 108              		.cfi_def_cfa_register 13
 109              		@ sp needed
 110 004c B0BD     		pop	{r4, r5, r7, pc}
 111              	.LVL12:
 112              	.L8:
 113 004e 00BF     		.align	2
 114              	.L7:
ARM GAS  /tmp/cc6NCFXM.s 			page 3


 115 0050 00000000 		.word	.LANCHOR0
 116 0054 00000000 		.word	.LANCHOR1
 117              		.cfi_endproc
 118              	.LFE223:
 119              		.size	rf_tx_wrapper, .-rf_tx_wrapper
 120              		.section	.text.tx_thread,"ax",%progbits
 121              		.align	1
 122              		.p2align 4,,15
 123              		.syntax unified
 124              		.thumb
 125              		.thumb_func
 126              		.fpu fpv4-sp-d16
 127              		.type	tx_thread, %function
 128              	tx_thread:
 129              	.LFB224:
 130              		.loc 1 184 0
 131              		.cfi_startproc
 132              		@ args = 0, pretend = 0, frame = 56
 133              		@ frame_needed = 0, uses_anonymous_args = 0
 134              	.LVL13:
 135 0000 2DE9F04F 		push	{r4, r5, r6, r7, r8, r9, r10, fp, lr}
 136              		.cfi_def_cfa_offset 36
 137              		.cfi_offset 4, -36
 138              		.cfi_offset 5, -32
 139              		.cfi_offset 6, -28
 140              		.cfi_offset 7, -24
 141              		.cfi_offset 8, -20
 142              		.cfi_offset 9, -16
 143              		.cfi_offset 10, -12
 144              		.cfi_offset 11, -8
 145              		.cfi_offset 14, -4
 146              		.loc 1 188 0
 147 0004 8248     		ldr	r0, .L25
 148              	.LVL14:
 149              		.loc 1 191 0
 150 0006 834F     		ldr	r7, .L25+4
 151              	.LBB30:
 152              	.LBB31:
 153              		.file 2 "ChibiOS_3.0.2/os/rt/include/chregistry.h"
 154              		.loc 2 135 0
 155 0008 DFF83082 		ldr	r8, .L25+44
 156 000c 8249     		ldr	r1, .L25+8
 157 000e D8F81820 		ldr	r2, [r8, #24]
 158              	.LBE31:
 159              	.LBE30:
 160              		.loc 1 188 0
 161 0012 0123     		movs	r3, #1
 162              		.loc 1 184 0
 163 0014 2DED068B 		vpush.64	{d8, d9, d10}
 164              		.cfi_def_cfa_offset 60
 165              		.cfi_offset 80, -60
 166              		.cfi_offset 81, -56
 167              		.cfi_offset 82, -52
 168              		.cfi_offset 83, -48
 169              		.cfi_offset 84, -44
 170              		.cfi_offset 85, -40
 171              		.loc 1 188 0
ARM GAS  /tmp/cc6NCFXM.s 			page 4


 172 0018 0370     		strb	r3, [r0]
 173              		.loc 1 191 0
 174 001a 3B78     		ldrb	r3, [r7]	@ zero_extendqisi2
 175              	.LBB33:
 176              	.LBB32:
 177              		.loc 2 135 0
 178 001c 9161     		str	r1, [r2, #24]
 179              	.LVL15:
 180              	.LBE32:
 181              	.LBE33:
 182              		.loc 1 184 0
 183 001e 8FB0     		sub	sp, sp, #60
 184              		.cfi_def_cfa_offset 120
 185              		.loc 1 191 0
 186 0020 002B     		cmp	r3, #0
 187 0022 40F0D880 		bne	.L17
 188 0026 7D4D     		ldr	r5, .L25+12
 189 0028 7D4C     		ldr	r4, .L25+16
 190 002a DFF81492 		ldr	r9, .L25+48
 191              		.loc 1 198 0
 192 002e 7D4E     		ldr	r6, .L25+20
 193              	.LBB34:
 194              		.loc 1 202 0
 195 0030 DFF810A2 		ldr	r10, .L25+52
 196              		.loc 1 205 0
 197 0034 DFED7CAA 		vldr.32	s21, .L25+24
 198              		.loc 1 208 0
 199 0038 9FED7C8A 		vldr.32	s16, .L25+28
 200              		.loc 1 215 0
 201 003c 9FED7C9A 		vldr.32	s18, .L25+32
 202              		.loc 1 219 0
 203 0040 9FED7CAA 		vldr.32	s20, .L25+36
 204 0044 3EE0     		b	.L10
 205              	.L11:
 206              	.LBE34:
 207              		.loc 1 228 0
 208 0046 2368     		ldr	r3, [r4]
 209 0048 002B     		cmp	r3, #0
 210 004a 02DD     		ble	.L13
 211              		.loc 1 229 0
 212 004c 2368     		ldr	r3, [r4]
 213 004e 013B     		subs	r3, r3, #1
 214 0050 2360     		str	r3, [r4]
 215              	.L13:
 216              	.LBB35:
 217              	.LBB36:
 218              		.file 3 "ChibiOS_3.0.2/os/rt/include/chvt.h"
 219              		.loc 3 231 0
 220 0052 D8F82830 		ldr	r3, [r8, #40]
 221              	.LBE36:
 222              	.LBE35:
 223              		.loc 1 232 0
 224 0056 D9F80020 		ldr	r2, [r9]
 225 005a 9A42     		cmp	r2, r3
 226 005c 2BD2     		bcs	.L14
 227              		.loc 1 232 0 is_stmt 0 discriminator 1
 228 005e 3378     		ldrb	r3, [r6]	@ zero_extendqisi2
ARM GAS  /tmp/cc6NCFXM.s 			page 5


 229 0060 4BB3     		cbz	r3, .L14
 230              	.LBB37:
 231              		.loc 1 233 0 is_stmt 1
 232 0062 0022     		movs	r2, #0
 233              		.loc 1 235 0
 234 0064 744B     		ldr	r3, .L25+40
 235              		.loc 1 233 0
 236 0066 3270     		strb	r2, [r6]
 237              		.loc 1 235 0
 238 0068 1B78     		ldrb	r3, [r3]	@ zero_extendqisi2
 239 006a 002B     		cmp	r3, #0
 240 006c 00F0BB80 		beq	.L15
 241              	.LBB38:
 242              		.loc 1 236 0
 243 0070 FFF7FEFF 		bl	app_get_configuration
 244              	.LVL16:
 245              		.loc 1 238 0
 246 0074 3523     		movs	r3, #53
 247 0076 8DF81C30 		strb	r3, [sp, #28]
 248              		.loc 1 239 0
 249 007a 90F8DD30 		ldrb	r3, [r0, #221]	@ zero_extendqisi2
 250 007e 8DF81D30 		strb	r3, [sp, #29]
 251              		.loc 1 240 0
 252 0082 90F8DE30 		ldrb	r3, [r0, #222]	@ zero_extendqisi2
 253 0086 8DF81E30 		strb	r3, [sp, #30]
 254              		.loc 1 241 0
 255 008a 90F8DF30 		ldrb	r3, [r0, #223]	@ zero_extendqisi2
 256 008e 8DF81F30 		strb	r3, [sp, #31]
 257              		.loc 1 243 0
 258 0092 0DF11C0B 		add	fp, sp, #28
 259              		.loc 1 242 0
 260 0096 90F8E020 		ldrb	r2, [r0, #224]	@ zero_extendqisi2
 261 009a 8DF82020 		strb	r2, [sp, #32]
 262              		.loc 1 243 0
 263 009e 5846     		mov	r0, fp
 264              	.LVL17:
 265 00a0 0521     		movs	r1, #5
 266 00a2 FFF7FEFF 		bl	commands_send_packet_nrf
 267              	.LVL18:
 268              	.L16:
 269              	.LBE38:
 270              		.loc 1 250 0 discriminator 1
 271 00a6 40F22523 		movw	r3, #549
 272              		.loc 1 252 0 discriminator 1
 273 00aa 5846     		mov	r0, fp
 274 00ac 0221     		movs	r1, #2
 275              		.loc 1 250 0 discriminator 1
 276 00ae ADF81C30 		strh	r3, [sp, #28]	@ movhi
 277              		.loc 1 252 0 discriminator 1
 278 00b2 FFF7FEFF 		bl	commands_send_packet
 279              	.LVL19:
 280              	.L14:
 281              	.LBE37:
 282              		.loc 1 255 0
 283 00b6 0A20     		movs	r0, #10
 284 00b8 FFF7FEFF 		bl	chThdSleep
 285              	.LVL20:
ARM GAS  /tmp/cc6NCFXM.s 			page 6


 286              		.loc 1 191 0
 287 00bc 3B78     		ldrb	r3, [r7]	@ zero_extendqisi2
 288 00be 002B     		cmp	r3, #0
 289 00c0 40F08980 		bne	.L17
 290              	.L10:
 291              		.loc 1 196 0
 292 00c4 2B68     		ldr	r3, [r5]
 293 00c6 0133     		adds	r3, r3, #1
 294              		.loc 1 198 0
 295 00c8 632B     		cmp	r3, #99
 296              		.loc 1 196 0
 297 00ca 2B60     		str	r3, [r5]
 298              		.loc 1 198 0
 299 00cc BBDD     		ble	.L11
 300              		.loc 1 198 0 is_stmt 0 discriminator 1
 301 00ce 3378     		ldrb	r3, [r6]	@ zero_extendqisi2
 302 00d0 03F0FF02 		and	r2, r3, #255
 303 00d4 002B     		cmp	r3, #0
 304 00d6 B6D1     		bne	.L11
 305              	.LBB40:
 306              		.loc 1 202 0 is_stmt 1
 307 00d8 9AF80030 		ldrb	r3, [r10]	@ zero_extendqisi2
 308              		.loc 1 200 0
 309 00dc 0092     		str	r2, [sp]
 310              		.loc 1 202 0
 311 00de 0133     		adds	r3, r3, #1
 312              		.loc 1 204 0
 313 00e0 07A8     		add	r0, sp, #28
 314              		.loc 1 202 0
 315 00e2 8AF80030 		strb	r3, [r10]
 316              		.loc 1 204 0
 317 00e6 FFF7FEFF 		bl	mc_interface_get_setup_values
 318              	.LVL21:
 319              		.loc 1 207 0
 320 00ea 009B     		ldr	r3, [sp]
 321              		.loc 1 205 0
 322 00ec CDED01AA 		vstr.32	s21, [sp, #4]
 323              		.loc 1 207 0
 324 00f0 0EAA     		add	r2, sp, #56
 325 00f2 1A44     		add	r2, r2, r3
 326 00f4 0221     		movs	r1, #2
 327 00f6 0133     		adds	r3, r3, #1
 328              		.loc 1 208 0
 329 00f8 01A8     		add	r0, sp, #4
 330              		.loc 1 207 0
 331 00fa 02F8301C 		strb	r1, [r2, #-48]
 332 00fe 0093     		str	r3, [sp]
 333              		.loc 1 208 0
 334 0100 FFF7FEFF 		bl	mc_interface_get_battery_level
 335              	.LVL22:
 336 0104 6946     		mov	r1, sp
 337 0106 02A8     		add	r0, sp, #8
 338 0108 F0EE480A 		vmov.f32	s1, s16
 339 010c FFF7FEFF 		bl	buffer_append_float16
 340              	.LVL23:
 341              		.loc 1 209 0
 342 0110 FFF7FEFF 		bl	mc_interface_get_speed
ARM GAS  /tmp/cc6NCFXM.s 			page 7


 343              	.LVL24:
 344 0114 6946     		mov	r1, sp
 345 0116 F0EE480A 		vmov.f32	s1, s16
 346 011a 02A8     		add	r0, sp, #8
 347 011c FFF7FEFF 		bl	buffer_append_float32
 348              	.LVL25:
 349              		.loc 1 210 0
 350 0120 FFF7FEFF 		bl	mc_interface_get_distance_abs
 351              	.LVL26:
 352 0124 6946     		mov	r1, sp
 353 0126 F0EE480A 		vmov.f32	s1, s16
 354 012a 02A8     		add	r0, sp, #8
 355 012c FFF7FEFF 		bl	buffer_append_float32
 356              	.LVL27:
 357              		.loc 1 211 0
 358 0130 FFF7FEFF 		bl	mc_interface_temp_fet_filtered
 359              	.LVL28:
 360 0134 6946     		mov	r1, sp
 361 0136 02A8     		add	r0, sp, #8
 362 0138 F2EE040A 		vmov.f32	s1, #1.0e+1
 363 013c FFF7FEFF 		bl	buffer_append_float16
 364              	.LVL29:
 365              		.loc 1 212 0
 366 0140 FFF7FEFF 		bl	mc_interface_temp_motor_filtered
 367              	.LVL30:
 368 0144 6946     		mov	r1, sp
 369 0146 02A8     		add	r0, sp, #8
 370 0148 F2EE040A 		vmov.f32	s1, #1.0e+1
 371 014c FFF7FEFF 		bl	buffer_append_float16
 372              	.LVL31:
 373              		.loc 1 213 0
 374 0150 009B     		ldr	r3, [sp]
 375 0152 9AF80000 		ldrb	r0, [r10]	@ zero_extendqisi2
 376              		.loc 1 214 0
 377 0156 9DED010A 		vldr.32	s0, [sp, #4]
 378              		.loc 1 213 0
 379 015a 0EAA     		add	r2, sp, #56
 380 015c 1A44     		add	r2, r2, r3
 381              		.loc 1 214 0
 382 015e F0EE480A 		vmov.f32	s1, s16
 383              		.loc 1 213 0
 384 0162 0133     		adds	r3, r3, #1
 385 0164 02F8300C 		strb	r0, [r2, #-48]
 386              		.loc 1 214 0
 387 0168 6946     		mov	r1, sp
 388 016a 02A8     		add	r0, sp, #8
 389              		.loc 1 213 0
 390 016c 0093     		str	r3, [sp]
 391              		.loc 1 214 0
 392 016e FFF7FEFF 		bl	buffer_append_float32
 393              	.LVL32:
 394              		.loc 1 215 0
 395 0172 6946     		mov	r1, sp
 396 0174 F0EE490A 		vmov.f32	s1, s18
 397 0178 02A8     		add	r0, sp, #8
 398 017a 9DED090A 		vldr.32	s0, [sp, #36]
 399 017e FFF7FEFF 		bl	buffer_append_float32
ARM GAS  /tmp/cc6NCFXM.s 			page 8


 400              	.LVL33:
 401              		.loc 1 216 0
 402 0182 6946     		mov	r1, sp
 403 0184 F0EE490A 		vmov.f32	s1, s18
 404 0188 02A8     		add	r0, sp, #8
 405 018a 9DED0A0A 		vldr.32	s0, [sp, #40]
 406 018e FFF7FEFF 		bl	buffer_append_float32
 407              	.LVL34:
 408              		.loc 1 217 0
 409 0192 FFF7FEFF 		bl	mc_interface_get_tot_current_directional_filtered
 410              	.LVL35:
 411 0196 F0EE409A 		vmov.f32	s19, s0
 412              		.loc 1 218 0
 413 019a FFF7FEFF 		bl	mc_interface_get_configuration
 414              	.LVL36:
 415 019e D0ED018A 		vldr.32	s17, [r0, #4]
 416              		.loc 1 219 0
 417 01a2 FFF7FEFF 		bl	mc_interface_get_configuration
 418              	.LVL37:
 419 01a6 90ED197A 		vldr.32	s14, [r0, #100]
 420              		.loc 1 217 0
 421 01aa 0099     		ldr	r1, [sp]
 422              		.loc 1 221 0
 423 01ac 2268     		ldr	r2, [r4]
 424              		.loc 1 218 0
 425 01ae 28EE877A 		vmul.f32	s14, s17, s14
 426              		.loc 1 217 0
 427 01b2 0EAB     		add	r3, sp, #56
 428 01b4 C9EE877A 		vdiv.f32	s15, s19, s14
 429 01b8 5818     		adds	r0, r3, r1
 430 01ba 0131     		adds	r1, r1, #1
 431 01bc 0091     		str	r1, [sp]
 432              		.loc 1 219 0
 433 01be 67EE8A7A 		vmul.f32	s15, s15, s20
 434              		.loc 1 217 0
 435 01c2 FDEEE77A 		vcvt.s32.f32	s15, s15
 436 01c6 17EE903A 		vmov	r3, s15	@ int
 437 01ca 00F8303C 		strb	r3, [r0, #-48]
 438              		.loc 1 221 0
 439 01ce D2B1     		cbz	r2, .L24
 440              	.L12:
 441              		.loc 1 225 0
 442 01d0 0023     		movs	r3, #0
 443 01d2 2B60     		str	r3, [r5]
 444 01d4 37E7     		b	.L11
 445              	.L17:
 446              	.LBE40:
 447              		.loc 1 192 0
 448 01d6 0E4A     		ldr	r2, .L25
 449 01d8 0023     		movs	r3, #0
 450 01da 1370     		strb	r3, [r2]
 451              		.loc 1 258 0
 452 01dc 0FB0     		add	sp, sp, #60
 453              		.cfi_remember_state
 454              		.cfi_def_cfa_offset 60
 455              		@ sp needed
 456 01de BDEC068B 		vldm	sp!, {d8-d10}
ARM GAS  /tmp/cc6NCFXM.s 			page 9


 457              		.cfi_restore 84
 458              		.cfi_restore 85
 459              		.cfi_restore 82
 460              		.cfi_restore 83
 461              		.cfi_restore 80
 462              		.cfi_restore 81
 463              		.cfi_def_cfa_offset 36
 464 01e2 BDE8F08F 		pop	{r4, r5, r6, r7, r8, r9, r10, fp, pc}
 465              	.L15:
 466              		.cfi_restore_state
 467              	.LBB41:
 468              	.LBB39:
 469              		.loc 1 245 0 discriminator 2
 470 01e6 FFF7FEFF 		bl	app_get_configuration
 471              	.LVL38:
 472 01ea D830     		adds	r0, r0, #216
 473 01ec 07C8     		ldm	r0, {r0, r1, r2}
 474 01ee 0DF11C0C 		add	ip, sp, #28
 475 01f2 ACE80300 		stmia	ip!, {r0, r1}
 476              		.loc 1 246 0 discriminator 2
 477 01f6 0DF11C0B 		add	fp, sp, #28
 478 01fa 5846     		mov	r0, fp
 479              		.loc 1 245 0 discriminator 2
 480 01fc ACF80020 		strh	r2, [ip]	@ movhi
 481              		.loc 1 246 0 discriminator 2
 482 0200 FFF7FEFF 		bl	rfhelp_update_conf
 483              	.LVL39:
 484 0204 4FE7     		b	.L16
 485              	.L24:
 486              	.LBE39:
 487              	.LBE41:
 488              	.LBB42:
 489              		.loc 1 222 0
 490 0206 02A8     		add	r0, sp, #8
 491 0208 FFF7FEFF 		bl	rf_tx_wrapper
 492              	.LVL40:
 493 020c E0E7     		b	.L12
 494              	.L26:
 495 020e 00BF     		.align	2
 496              	.L25:
 497 0210 00000000 		.word	.LANCHOR2
 498 0214 00000000 		.word	.LANCHOR3
 499 0218 00000000 		.word	.LC0
 500 021c 00000000 		.word	.LANCHOR4
 501 0220 00000000 		.word	.LANCHOR7
 502 0224 00000000 		.word	.LANCHOR5
 503 0228 00000000 		.word	0
 504 022c 00007A44 		.word	1148846080
 505 0230 00401C46 		.word	1176256512
 506 0234 0000C842 		.word	1120403456
 507 0238 00000000 		.word	.LANCHOR0
 508 023c 00000000 		.word	ch
 509 0240 00000000 		.word	.LANCHOR8
 510 0244 00000000 		.word	.LANCHOR6
 511              	.LBE42:
 512              		.cfi_endproc
 513              	.LFE224:
ARM GAS  /tmp/cc6NCFXM.s 			page 10


 514              		.size	tx_thread, .-tx_thread
 515              		.section	.text.nrf_driver_send_buffer,"ax",%progbits
 516              		.align	1
 517              		.p2align 4,,15
 518              		.global	nrf_driver_send_buffer
 519              		.syntax unified
 520              		.thumb
 521              		.thumb_func
 522              		.fpu fpv4-sp-d16
 523              		.type	nrf_driver_send_buffer, %function
 524              	nrf_driver_send_buffer:
 525              	.LFB226:
 526              		.loc 1 313 0
 527              		.cfi_startproc
 528              		@ args = 0, pretend = 0, frame = 40
 529              		@ frame_needed = 0, uses_anonymous_args = 0
 530              	.LVL41:
 531 0000 2DE9F04F 		push	{r4, r5, r6, r7, r8, r9, r10, fp, lr}
 532              		.cfi_def_cfa_offset 36
 533              		.cfi_offset 4, -36
 534              		.cfi_offset 5, -32
 535              		.cfi_offset 6, -28
 536              		.cfi_offset 7, -24
 537              		.cfi_offset 8, -20
 538              		.cfi_offset 9, -16
 539              		.cfi_offset 10, -12
 540              		.cfi_offset 11, -8
 541              		.cfi_offset 14, -4
 542              		.loc 1 316 0
 543 0004 1829     		cmp	r1, #24
 544              		.loc 1 313 0
 545 0006 8BB0     		sub	sp, sp, #44
 546              		.cfi_def_cfa_offset 80
 547              		.loc 1 313 0
 548 0008 8846     		mov	r8, r1
 549 000a 0646     		mov	r6, r0
 550              		.loc 1 316 0
 551 000c 62D9     		bls	.L41
 552              	.LVL42:
 553              	.LBB43:
 554              		.loc 1 324 0
 555 000e 0021     		movs	r1, #0
 556              	.LVL43:
 557              	.LBB44:
 558              	.LBB45:
 559              		.loc 1 346 0
 560 0010 8A46     		mov	r10, r1
 561              	.LBE45:
 562              	.LBE44:
 563              		.loc 1 325 0
 564 0012 A8F11405 		sub	r5, r8, #20
 565              	.LVL44:
 566 0016 5D4F     		ldr	r7, .L44
 567              	.LBB49:
 568              	.LBB46:
 569              		.loc 1 335 0
 570 0018 4FF00309 		mov	r9, #3
ARM GAS  /tmp/cc6NCFXM.s 			page 11


 571 001c 02E0     		b	.L30
 572              	.LVL45:
 573              	.L34:
 574              		.loc 1 328 0
 575 001e B4F58A7F 		cmp	r4, #276
 576 0022 6CD0     		beq	.L42
 577              	.LVL46:
 578              	.L30:
 579              		.loc 1 332 0
 580 0024 01F11704 		add	r4, r1, #23
 581              	.LVL47:
 582 0028 E3B2     		uxtb	r3, r4
 583              		.loc 1 336 0
 584 002a A3F11702 		sub	r2, r3, #23
 585              		.loc 1 338 0
 586 002e A542     		cmp	r5, r4
 587              		.loc 1 335 0
 588 0030 8DF80C90 		strb	r9, [sp, #12]
 589 0034 3144     		add	r1, r1, r6
 590              	.LVL48:
 591              		.loc 1 336 0
 592 0036 8DF80D20 		strb	r2, [sp, #13]
 593              		.loc 1 338 0
 594 003a C0F09980 		bcc	.L32
 595              		.loc 1 339 0
 596 003e 0B68     		ldr	r3, [r1]	@ unaligned
 597 0040 8A68     		ldr	r2, [r1, #8]	@ unaligned
 598 0042 CDF80E30 		str	r3, [sp, #14]	@ unaligned
 599 0046 4B68     		ldr	r3, [r1, #4]	@ unaligned
 600 0048 D1F80CC0 		ldr	ip, [r1, #12]	@ unaligned
 601 004c 888A     		ldrh	r0, [r1, #20]	@ unaligned
 602 004e CDF81230 		str	r3, [sp, #18]	@ unaligned
 603 0052 CDF81620 		str	r2, [sp, #22]	@ unaligned
 604 0056 0B69     		ldr	r3, [r1, #16]	@ unaligned
 605 0058 8A7D     		ldrb	r2, [r1, #22]	@ zero_extendqisi2
 606 005a CDF81AC0 		str	ip, [sp, #26]	@ unaligned
 607 005e CDF81E30 		str	r3, [sp, #30]	@ unaligned
 608 0062 ADF82200 		strh	r0, [sp, #34]	@ unaligned
 609 0066 8DF82420 		strb	r2, [sp, #36]
 610 006a 1921     		movs	r1, #25
 611              	.LVL49:
 612              	.L33:
 613              		.loc 1 345 0 discriminator 2
 614 006c 03A8     		add	r0, sp, #12
 615 006e FFF7FEFF 		bl	rf_tx_wrapper
 616              	.LVL50:
 617              	.LBE46:
 618              		.loc 1 327 0 discriminator 2
 619 0072 A542     		cmp	r5, r4
 620              	.LBB47:
 621              		.loc 1 346 0 discriminator 2
 622 0074 C7F800A0 		str	r10, [r7]
 623 0078 2146     		mov	r1, r4
 624              	.LBE47:
 625              		.loc 1 327 0 discriminator 2
 626 007a D0D8     		bhi	.L34
 627              	.LVL51:
ARM GAS  /tmp/cc6NCFXM.s 			page 12


 628              	.L35:
 629              	.LBE49:
 630              		.loc 1 368 0
 631 007c 4FEA1823 		lsr	r3, r8, #8
 632              		.loc 1 367 0
 633 0080 0522     		movs	r2, #5
 634              		.loc 1 370 0
 635 0082 4146     		mov	r1, r8
 636 0084 3046     		mov	r0, r6
 637              		.loc 1 373 0
 638 0086 3544     		add	r5, r5, r6
 639              	.LVL52:
 640              		.loc 1 367 0
 641 0088 8DF80C20 		strb	r2, [sp, #12]
 642              	.LVL53:
 643              		.loc 1 368 0
 644 008c 8DF80D30 		strb	r3, [sp, #13]
 645              	.LVL54:
 646              		.loc 1 369 0
 647 0090 8DF80E80 		strb	r8, [sp, #14]
 648              		.loc 1 370 0
 649 0094 FFF7FEFF 		bl	crc16
 650              	.LVL55:
 651              		.loc 1 373 0
 652 0098 2B68     		ldr	r3, [r5]	@ unaligned
 653 009a 6968     		ldr	r1, [r5, #4]	@ unaligned
 654 009c CDF81130 		str	r3, [sp, #17]	@ unaligned
 655              		.loc 1 370 0
 656 00a0 0246     		mov	r2, r0
 657              	.LVL56:
 658              		.loc 1 371 0
 659 00a2 030A     		lsrs	r3, r0, #8
 660              		.loc 1 372 0
 661 00a4 8DF81020 		strb	r2, [sp, #16]
 662              		.loc 1 373 0
 663 00a8 AC68     		ldr	r4, [r5, #8]	@ unaligned
 664              		.loc 1 371 0
 665 00aa 8DF80F30 		strb	r3, [sp, #15]
 666              	.LVL57:
 667              		.loc 1 373 0
 668 00ae EA68     		ldr	r2, [r5, #12]	@ unaligned
 669 00b0 2B69     		ldr	r3, [r5, #16]	@ unaligned
 670 00b2 CDF81510 		str	r1, [sp, #21]	@ unaligned
 671              		.loc 1 376 0
 672 00b6 03A8     		add	r0, sp, #12
 673              	.LVL58:
 674 00b8 1921     		movs	r1, #25
 675              		.loc 1 373 0
 676 00ba CDF82130 		str	r3, [sp, #33]	@ unaligned
 677              	.LVL59:
 678 00be CDF81940 		str	r4, [sp, #25]	@ unaligned
 679 00c2 CDF81D20 		str	r2, [sp, #29]	@ unaligned
 680              		.loc 1 376 0
 681 00c6 FFF7FEFF 		bl	rf_tx_wrapper
 682              	.LVL60:
 683              		.loc 1 377 0
 684 00ca 0023     		movs	r3, #0
ARM GAS  /tmp/cc6NCFXM.s 			page 13


 685 00cc 3B60     		str	r3, [r7]
 686              	.LBE43:
 687              		.loc 1 379 0
 688 00ce 0BB0     		add	sp, sp, #44
 689              		.cfi_remember_state
 690              		.cfi_def_cfa_offset 36
 691              		@ sp needed
 692 00d0 BDE8F08F 		pop	{r4, r5, r6, r7, r8, r9, r10, fp, pc}
 693              	.LVL61:
 694              	.L41:
 695              		.cfi_restore_state
 696              	.LBB55:
 697              		.loc 1 318 0
 698 00d4 0AAC     		add	r4, sp, #40
 699 00d6 0623     		movs	r3, #6
 700 00d8 04F81C3D 		strb	r3, [r4, #-28]!
 701              		.loc 1 319 0
 702 00dc 4246     		mov	r2, r8
 703 00de 0146     		mov	r1, r0
 704              	.LVL62:
 705 00e0 0DF10D00 		add	r0, sp, #13
 706              	.LVL63:
 707 00e4 FFF7FEFF 		bl	memcpy
 708              	.LVL64:
 709              		.loc 1 321 0
 710 00e8 2046     		mov	r0, r4
 711 00ea 08F10101 		add	r1, r8, #1
 712              	.LVL65:
 713 00ee FFF7FEFF 		bl	rf_tx_wrapper
 714              	.LVL66:
 715              		.loc 1 322 0
 716 00f2 264B     		ldr	r3, .L44
 717 00f4 0022     		movs	r2, #0
 718 00f6 1A60     		str	r2, [r3]
 719              	.LBE55:
 720              		.loc 1 379 0
 721 00f8 0BB0     		add	sp, sp, #44
 722              		.cfi_remember_state
 723              		.cfi_def_cfa_offset 36
 724              		@ sp needed
 725 00fa BDE8F08F 		pop	{r4, r5, r6, r7, r8, r9, r10, fp, pc}
 726              	.LVL67:
 727              	.L42:
 728              		.cfi_restore_state
 729 00fe A6F1160B 		sub	fp, r6, #22
 730              	.LBB56:
 731              	.LBB50:
 732              	.LBB51:
 733              		.loc 1 351 0
 734 0102 4FF0040A 		mov	r10, #4
 735 0106 05F11609 		add	r9, r5, #22
 736 010a 19E0     		b	.L31
 737              	.LVL68:
 738              	.L43:
 739              		.loc 1 356 0
 740 010c 0B68     		ldr	r3, [r1]	@ unaligned
 741 010e 4A68     		ldr	r2, [r1, #4]	@ unaligned
ARM GAS  /tmp/cc6NCFXM.s 			page 14


 742 0110 CDF80F30 		str	r3, [sp, #15]	@ unaligned
 743 0114 8B68     		ldr	r3, [r1, #8]	@ unaligned
 744 0116 C868     		ldr	r0, [r1, #12]	@ unaligned
 745 0118 CDF81320 		str	r2, [sp, #19]	@ unaligned
 746 011c CDF81730 		str	r3, [sp, #23]	@ unaligned
 747 0120 8A8A     		ldrh	r2, [r1, #20]	@ unaligned
 748 0122 0B69     		ldr	r3, [r1, #16]	@ unaligned
 749 0124 CDF81B00 		str	r0, [sp, #27]	@ unaligned
 750 0128 CDF81F30 		str	r3, [sp, #31]	@ unaligned
 751 012c ADF82320 		strh	r2, [sp, #35]	@ unaligned
 752 0130 1921     		movs	r1, #25
 753              	.LVL69:
 754              	.L37:
 755              		.loc 1 362 0 discriminator 2
 756 0132 03A8     		add	r0, sp, #12
 757 0134 FFF7FEFF 		bl	rf_tx_wrapper
 758              	.LVL70:
 759              		.loc 1 363 0 discriminator 2
 760 0138 0023     		movs	r3, #0
 761              	.LBE51:
 762              		.loc 1 349 0 discriminator 2
 763 013a AC42     		cmp	r4, r5
 764              	.LBB52:
 765              		.loc 1 363 0 discriminator 2
 766 013c 3B60     		str	r3, [r7]
 767              	.LVL71:
 768              	.LBE52:
 769              		.loc 1 349 0 discriminator 2
 770 013e 9DD2     		bcs	.L35
 771              	.LVL72:
 772              	.L31:
 773              	.LBB53:
 774              		.loc 1 352 0
 775 0140 230A     		lsrs	r3, r4, #8
 776              		.loc 1 353 0
 777 0142 8DF80E40 		strb	r4, [sp, #14]
 778              		.loc 1 355 0
 779 0146 1634     		adds	r4, r4, #22
 780              	.LVL73:
 781 0148 AC42     		cmp	r4, r5
 782              		.loc 1 352 0
 783 014a 8DF80D30 		strb	r3, [sp, #13]
 784              		.loc 1 351 0
 785 014e 8DF80CA0 		strb	r10, [sp, #12]
 786 0152 0BEB0401 		add	r1, fp, r4
 787 0156 A9EB0403 		sub	r3, r9, r4
 788              		.loc 1 355 0
 789 015a D7D9     		bls	.L43
 790 015c DBB2     		uxtb	r3, r3
 791              	.LVL74:
 792              		.loc 1 359 0
 793 015e 1A46     		mov	r2, r3
 794 0160 0DF10F00 		add	r0, sp, #15
 795 0164 0193     		str	r3, [sp, #4]
 796 0166 FFF7FEFF 		bl	memcpy
 797              	.LVL75:
 798 016a 019B     		ldr	r3, [sp, #4]
ARM GAS  /tmp/cc6NCFXM.s 			page 15


 799 016c D91C     		adds	r1, r3, #3
 800 016e E0E7     		b	.L37
 801              	.LVL76:
 802              	.L32:
 803 0170 C3F1170B 		rsb	fp, r3, #23
 804 0174 AB44     		add	fp, fp, r5
 805 0176 5FFA8BFB 		uxtb	fp, fp
 806              	.LVL77:
 807              	.LBE53:
 808              	.LBE50:
 809              	.LBB54:
 810              	.LBB48:
 811              		.loc 1 342 0
 812 017a 5A46     		mov	r2, fp
 813 017c 0DF10E00 		add	r0, sp, #14
 814 0180 FFF7FEFF 		bl	memcpy
 815              	.LVL78:
 816 0184 0BF10201 		add	r1, fp, #2
 817 0188 70E7     		b	.L33
 818              	.L45:
 819 018a 00BF     		.align	2
 820              	.L44:
 821 018c 00000000 		.word	.LANCHOR4
 822              	.LBE48:
 823              	.LBE54:
 824              	.LBE56:
 825              		.cfi_endproc
 826              	.LFE226:
 827              		.size	nrf_driver_send_buffer, .-nrf_driver_send_buffer
 828              		.section	.text.nrf_driver_stop.part.1,"ax",%progbits
 829              		.align	1
 830              		.p2align 4,,15
 831              		.syntax unified
 832              		.thumb
 833              		.thumb_func
 834              		.fpu fpv4-sp-d16
 835              		.type	nrf_driver_stop.part.1, %function
 836              	nrf_driver_stop.part.1:
 837              	.LFB232:
 838              		.loc 1 107 0
 839              		.cfi_startproc
 840              		@ args = 0, pretend = 0, frame = 0
 841              		@ frame_needed = 0, uses_anonymous_args = 0
 842 0000 38B5     		push	{r3, r4, r5, lr}
 843              		.cfi_def_cfa_offset 16
 844              		.cfi_offset 3, -16
 845              		.cfi_offset 4, -12
 846              		.cfi_offset 5, -8
 847              		.cfi_offset 14, -4
 848              		.loc 1 112 0
 849 0002 0B4C     		ldr	r4, .L55
 850 0004 2378     		ldrb	r3, [r4]	@ zero_extendqisi2
 851 0006 83B9     		cbnz	r3, .L54
 852              	.L47:
 853              		.loc 1 116 0
 854 0008 0A49     		ldr	r1, .L55+4
 855              		.loc 1 117 0
ARM GAS  /tmp/cc6NCFXM.s 			page 16


 856 000a 0B4A     		ldr	r2, .L55+8
 857 000c 0B4D     		ldr	r5, .L55+12
 858              		.loc 1 116 0
 859 000e 0123     		movs	r3, #1
 860 0010 0B70     		strb	r3, [r1]
 861              		.loc 1 117 0
 862 0012 1370     		strb	r3, [r2]
 863 0014 01E0     		b	.L48
 864              	.L49:
 865              		.loc 1 120 0
 866 0016 FFF7FEFF 		bl	chThdSleep
 867              	.LVL79:
 868              	.L48:
 869              		.loc 1 119 0
 870 001a 2378     		ldrb	r3, [r4]	@ zero_extendqisi2
 871              		.loc 1 120 0
 872 001c 0A20     		movs	r0, #10
 873              		.loc 1 119 0
 874 001e 002B     		cmp	r3, #0
 875 0020 F9D1     		bne	.L49
 876 0022 2B78     		ldrb	r3, [r5]	@ zero_extendqisi2
 877 0024 002B     		cmp	r3, #0
 878 0026 F6D1     		bne	.L49
 879              		.loc 1 122 0
 880 0028 38BD     		pop	{r3, r4, r5, pc}
 881              	.L54:
 882              		.loc 1 113 0
 883 002a FFF7FEFF 		bl	rfhelp_stop
 884              	.LVL80:
 885 002e EBE7     		b	.L47
 886              	.L56:
 887              		.align	2
 888              	.L55:
 889 0030 00000000 		.word	.LANCHOR9
 890 0034 00000000 		.word	.LANCHOR3
 891 0038 00000000 		.word	.LANCHOR10
 892 003c 00000000 		.word	.LANCHOR2
 893              		.cfi_endproc
 894              	.LFE232:
 895              		.size	nrf_driver_stop.part.1, .-nrf_driver_stop.part.1
 896              		.section	.text.nrf_driver_init,"ax",%progbits
 897              		.align	1
 898              		.p2align 4,,15
 899              		.global	nrf_driver_init
 900              		.syntax unified
 901              		.thumb
 902              		.thumb_func
 903              		.fpu fpv4-sp-d16
 904              		.type	nrf_driver_init, %function
 905              	nrf_driver_init:
 906              	.LFB219:
 907              		.loc 1 68 0
 908              		.cfi_startproc
 909              		@ args = 0, pretend = 0, frame = 0
 910              		@ frame_needed = 0, uses_anonymous_args = 0
 911 0000 70B5     		push	{r4, r5, r6, lr}
 912              		.cfi_def_cfa_offset 16
ARM GAS  /tmp/cc6NCFXM.s 			page 17


 913              		.cfi_offset 4, -16
 914              		.cfi_offset 5, -12
 915              		.cfi_offset 6, -8
 916              		.cfi_offset 14, -4
 917              		.loc 1 69 0
 918 0002 1F4A     		ldr	r2, .L66
 919 0004 1378     		ldrb	r3, [r2]	@ zero_extendqisi2
 920              		.loc 1 68 0
 921 0006 82B0     		sub	sp, sp, #8
 922              		.cfi_def_cfa_offset 24
 923              		.loc 1 69 0
 924 0008 03F0FF04 		and	r4, r3, #255
 925 000c 3BB9     		cbnz	r3, .L58
 926              		.loc 1 73 0
 927 000e 1D4B     		ldr	r3, .L66+4
 928 0010 1C70     		strb	r4, [r3]
 929              	.LBB57:
 930              	.LBB58:
 931              		.loc 1 108 0
 932 0012 1278     		ldrb	r2, [r2]	@ zero_extendqisi2
 933 0014 32B1     		cbz	r2, .L64
 934              	.L59:
 935              	.LBE58:
 936              	.LBE57:
 937              		.loc 1 77 0
 938 0016 FFF7FEFF 		bl	rfhelp_init
 939              	.LVL81:
 940 001a 0446     		mov	r4, r0
 941 001c 40B9     		cbnz	r0, .L65
 942              	.L58:
 943              		.loc 1 96 0
 944 001e 2046     		mov	r0, r4
 945 0020 02B0     		add	sp, sp, #8
 946              		.cfi_remember_state
 947              		.cfi_def_cfa_offset 16
 948              		@ sp needed
 949 0022 70BD     		pop	{r4, r5, r6, pc}
 950              	.L64:
 951              		.cfi_restore_state
 952              	.LBB60:
 953              	.LBB59:
 954              		.loc 1 108 0
 955 0024 1B78     		ldrb	r3, [r3]	@ zero_extendqisi2
 956 0026 002B     		cmp	r3, #0
 957 0028 F5D1     		bne	.L59
 958 002a FFF7FEFF 		bl	nrf_driver_stop.part.1
 959              	.LVL82:
 960 002e F2E7     		b	.L59
 961              	.L65:
 962              	.LBE59:
 963              	.LBE60:
 964              		.loc 1 86 0
 965 0030 1548     		ldr	r0, .L66+8
 966              		.loc 1 88 0
 967 0032 164E     		ldr	r6, .L66+12
 968              		.loc 1 81 0
 969 0034 164B     		ldr	r3, .L66+16
ARM GAS  /tmp/cc6NCFXM.s 			page 18


 970              		.loc 1 82 0
 971 0036 174A     		ldr	r2, .L66+20
 972              		.loc 1 83 0
 973 0038 1749     		ldr	r1, .L66+24
 974              		.loc 1 81 0
 975 003a 0025     		movs	r5, #0
 976              		.loc 1 90 0
 977 003c 0095     		str	r5, [sp]
 978              		.loc 1 86 0
 979 003e 0570     		strb	r5, [r0]
 980              		.loc 1 88 0
 981 0040 3570     		strb	r5, [r6]
 982              		.loc 1 85 0
 983 0042 1648     		ldr	r0, .L66+28
 984              		.loc 1 89 0
 985 0044 164E     		ldr	r6, .L66+32
 986              		.loc 1 81 0
 987 0046 1D60     		str	r5, [r3]
 988              		.loc 1 82 0
 989 0048 1560     		str	r5, [r2]
 990              		.loc 1 83 0
 991 004a 0D60     		str	r5, [r1]
 992              		.loc 1 85 0
 993 004c 0560     		str	r5, [r0]
 994              		.loc 1 90 0
 995 004e 154B     		ldr	r3, .L66+36
 996              		.loc 1 89 0
 997 0050 3570     		strb	r5, [r6]
 998              		.loc 1 90 0
 999 0052 3F22     		movs	r2, #63
 1000 0054 40F69811 		movw	r1, #2456
 1001 0058 1348     		ldr	r0, .L66+40
 1002 005a FFF7FEFF 		bl	chThdCreateStatic
 1003              	.LVL83:
 1004              		.loc 1 91 0
 1005 005e 0095     		str	r5, [sp]
 1006 0060 124B     		ldr	r3, .L66+44
 1007 0062 1348     		ldr	r0, .L66+48
 1008 0064 3F22     		movs	r2, #63
 1009 0066 4FF46671 		mov	r1, #920
 1010 006a FFF7FEFF 		bl	chThdCreateStatic
 1011              	.LVL84:
 1012              		.loc 1 92 0
 1013 006e 1149     		ldr	r1, .L66+52
 1014              		.loc 1 93 0
 1015 0070 114A     		ldr	r2, .L66+56
 1016              		.loc 1 92 0
 1017 0072 0123     		movs	r3, #1
 1018              		.loc 1 96 0
 1019 0074 2046     		mov	r0, r4
 1020              		.loc 1 92 0
 1021 0076 0B70     		strb	r3, [r1]
 1022              		.loc 1 93 0
 1023 0078 1370     		strb	r3, [r2]
 1024              		.loc 1 96 0
 1025 007a 02B0     		add	sp, sp, #8
 1026              		.cfi_def_cfa_offset 16
ARM GAS  /tmp/cc6NCFXM.s 			page 19


 1027              		@ sp needed
 1028 007c 70BD     		pop	{r4, r5, r6, pc}
 1029              	.L67:
 1030 007e 00BF     		.align	2
 1031              	.L66:
 1032 0080 00000000 		.word	.LANCHOR11
 1033 0084 00000000 		.word	.LANCHOR0
 1034 0088 00000000 		.word	.LANCHOR5
 1035 008c 00000000 		.word	.LANCHOR10
 1036 0090 00000000 		.word	.LANCHOR4
 1037 0094 00000000 		.word	.LANCHOR12
 1038 0098 00000000 		.word	.LANCHOR1
 1039 009c 00000000 		.word	.LANCHOR8
 1040 00a0 00000000 		.word	.LANCHOR3
 1041 00a4 00000000 		.word	rx_thread
 1042 00a8 00000000 		.word	.LANCHOR13
 1043 00ac 00000000 		.word	tx_thread
 1044 00b0 00000000 		.word	.LANCHOR14
 1045 00b4 00000000 		.word	.LANCHOR9
 1046 00b8 00000000 		.word	.LANCHOR2
 1047              		.cfi_endproc
 1048              	.LFE219:
 1049              		.size	nrf_driver_init, .-nrf_driver_init
 1050              		.section	.text.nrf_driver_init_ext_nrf,"ax",%progbits
 1051              		.align	1
 1052              		.p2align 4,,15
 1053              		.global	nrf_driver_init_ext_nrf
 1054              		.syntax unified
 1055              		.thumb
 1056              		.thumb_func
 1057              		.fpu fpv4-sp-d16
 1058              		.type	nrf_driver_init_ext_nrf, %function
 1059              	nrf_driver_init_ext_nrf:
 1060              	.LFB220:
 1061              		.loc 1 98 0
 1062              		.cfi_startproc
 1063              		@ args = 0, pretend = 0, frame = 0
 1064              		@ frame_needed = 0, uses_anonymous_args = 0
 1065              		.loc 1 99 0
 1066 0000 0B4A     		ldr	r2, .L75
 1067              		.loc 1 101 0
 1068 0002 0C4B     		ldr	r3, .L75+4
 1069              		.loc 1 99 0
 1070 0004 0121     		movs	r1, #1
 1071 0006 1170     		strb	r1, [r2]
 1072              		.loc 1 101 0
 1073 0008 1B78     		ldrb	r3, [r3]	@ zero_extendqisi2
 1074 000a 03B1     		cbz	r3, .L74
 1075 000c 7047     		bx	lr
 1076              	.L74:
 1077              		.loc 1 98 0
 1078 000e 00B5     		push	{lr}
 1079              		.cfi_def_cfa_offset 4
 1080              		.cfi_offset 14, -4
 1081              		.loc 1 102 0
 1082 0010 0949     		ldr	r1, .L75+8
 1083              		.loc 1 103 0
ARM GAS  /tmp/cc6NCFXM.s 			page 20


 1084 0012 0A48     		ldr	r0, .L75+12
 1085              		.loc 1 98 0
 1086 0014 83B0     		sub	sp, sp, #12
 1087              		.cfi_def_cfa_offset 16
 1088 0016 03F0FF02 		and	r2, r3, #255
 1089              		.loc 1 103 0
 1090 001a 0092     		str	r2, [sp]
 1091 001c 084B     		ldr	r3, .L75+16
 1092              		.loc 1 102 0
 1093 001e 0A70     		strb	r2, [r1]
 1094              		.loc 1 103 0
 1095 0020 3F22     		movs	r2, #63
 1096 0022 4FF46671 		mov	r1, #920
 1097 0026 FFF7FEFF 		bl	chThdCreateStatic
 1098              	.LVL85:
 1099              		.loc 1 105 0
 1100 002a 03B0     		add	sp, sp, #12
 1101              		.cfi_def_cfa_offset 4
 1102              		@ sp needed
 1103 002c 5DF804FB 		ldr	pc, [sp], #4
 1104              	.L76:
 1105              		.align	2
 1106              	.L75:
 1107 0030 00000000 		.word	.LANCHOR0
 1108 0034 00000000 		.word	.LANCHOR2
 1109 0038 00000000 		.word	.LANCHOR3
 1110 003c 00000000 		.word	.LANCHOR14
 1111 0040 00000000 		.word	tx_thread
 1112              		.cfi_endproc
 1113              	.LFE220:
 1114              		.size	nrf_driver_init_ext_nrf, .-nrf_driver_init_ext_nrf
 1115              		.section	.text.nrf_driver_stop,"ax",%progbits
 1116              		.align	1
 1117              		.p2align 4,,15
 1118              		.global	nrf_driver_stop
 1119              		.syntax unified
 1120              		.thumb
 1121              		.thumb_func
 1122              		.fpu fpv4-sp-d16
 1123              		.type	nrf_driver_stop, %function
 1124              	nrf_driver_stop:
 1125              	.LFB221:
 1126              		.loc 1 107 0
 1127              		.cfi_startproc
 1128              		@ args = 0, pretend = 0, frame = 0
 1129              		@ frame_needed = 0, uses_anonymous_args = 0
 1130              		@ link register save eliminated.
 1131              		.loc 1 108 0
 1132 0000 044B     		ldr	r3, .L79
 1133 0002 1B78     		ldrb	r3, [r3]	@ zero_extendqisi2
 1134 0004 23B9     		cbnz	r3, .L77
 1135              		.loc 1 108 0 is_stmt 0 discriminator 1
 1136 0006 044B     		ldr	r3, .L79+4
 1137 0008 1B78     		ldrb	r3, [r3]	@ zero_extendqisi2
 1138 000a 0BB9     		cbnz	r3, .L77
 1139 000c FFF7FEBF 		b	nrf_driver_stop.part.1
 1140              	.LVL86:
ARM GAS  /tmp/cc6NCFXM.s 			page 21


 1141              	.L77:
 1142              		.loc 1 122 0 is_stmt 1
 1143 0010 7047     		bx	lr
 1144              	.L80:
 1145 0012 00BF     		.align	2
 1146              	.L79:
 1147 0014 00000000 		.word	.LANCHOR11
 1148 0018 00000000 		.word	.LANCHOR0
 1149              		.cfi_endproc
 1150              	.LFE221:
 1151              		.size	nrf_driver_stop, .-nrf_driver_stop
 1152              		.section	.text.nrf_driver_start_pairing,"ax",%progbits
 1153              		.align	1
 1154              		.p2align 4,,15
 1155              		.global	nrf_driver_start_pairing
 1156              		.syntax unified
 1157              		.thumb
 1158              		.thumb_func
 1159              		.fpu fpv4-sp-d16
 1160              		.type	nrf_driver_start_pairing, %function
 1161              	nrf_driver_start_pairing:
 1162              	.LFB222:
 1163              		.loc 1 124 0
 1164              		.cfi_startproc
 1165              		@ args = 0, pretend = 0, frame = 16
 1166              		@ frame_needed = 0, uses_anonymous_args = 0
 1167              	.LVL87:
 1168 0000 30B5     		push	{r4, r5, lr}
 1169              		.cfi_def_cfa_offset 12
 1170              		.cfi_offset 4, -12
 1171              		.cfi_offset 5, -8
 1172              		.cfi_offset 14, -4
 1173              		.loc 1 125 0
 1174 0002 2D4B     		ldr	r3, .L91
 1175 0004 1B78     		ldrb	r3, [r3]	@ zero_extendqisi2
 1176              		.loc 1 124 0
 1177 0006 85B0     		sub	sp, sp, #20
 1178              		.cfi_def_cfa_offset 32
 1179              		.loc 1 125 0
 1180 0008 B3B1     		cbz	r3, .L82
 1181              		.loc 1 126 0
 1182 000a 42F21073 		movw	r3, #10000
 1183              	.LBB61:
 1184              	.LBB62:
 1185              		.loc 3 231 0
 1186 000e 2B4A     		ldr	r2, .L91+4
 1187              	.LBE62:
 1188              	.LBE61:
 1189              		.loc 1 126 0
 1190 0010 2B4D     		ldr	r5, .L91+8
 1191              		.loc 1 128 0
 1192 0012 2C4C     		ldr	r4, .L91+12
 1193              	.LBB64:
 1194              	.LBB63:
 1195              		.loc 3 231 0
 1196 0014 926A     		ldr	r2, [r2, #40]
 1197              	.LBE63:
ARM GAS  /tmp/cc6NCFXM.s 			page 22


 1198              	.LBE64:
 1199              		.loc 1 126 0
 1200 0016 2C49     		ldr	r1, .L91+16
 1201 0018 03FB00F0 		mul	r0, r3, r0
 1202              	.LVL88:
 1203 001c 00F2E730 		addw	r0, r0, #999
 1204 0020 A5FB0030 		umull	r3, r0, r5, r0
 1205              		.loc 1 128 0
 1206 0024 2378     		ldrb	r3, [r4]	@ zero_extendqisi2
 1207              		.loc 1 126 0
 1208 0026 02EB9010 		add	r0, r2, r0, lsr #6
 1209 002a 0860     		str	r0, [r1]
 1210              		.loc 1 128 0
 1211 002c 03F0FF02 		and	r2, r3, #255
 1212 0030 002B     		cmp	r3, #0
 1213 0032 34D0     		beq	.L90
 1214              	.L81:
 1215              		.loc 1 163 0
 1216 0034 05B0     		add	sp, sp, #20
 1217              		.cfi_remember_state
 1218              		.cfi_def_cfa_offset 12
 1219              		@ sp needed
 1220 0036 30BD     		pop	{r4, r5, pc}
 1221              	.LVL89:
 1222              	.L82:
 1223              		.cfi_restore_state
 1224              		.loc 1 140 0
 1225 0038 244B     		ldr	r3, .L91+20
 1226 003a 1B78     		ldrb	r3, [r3]	@ zero_extendqisi2
 1227 003c 002B     		cmp	r3, #0
 1228 003e F9D0     		beq	.L81
 1229              		.loc 1 144 0
 1230 0040 42F21073 		movw	r3, #10000
 1231              	.LBB65:
 1232              	.LBB66:
 1233              		.loc 3 231 0
 1234 0044 1D4A     		ldr	r2, .L91+4
 1235              	.LBE66:
 1236              	.LBE65:
 1237              		.loc 1 144 0
 1238 0046 1E4D     		ldr	r5, .L91+8
 1239              		.loc 1 146 0
 1240 0048 1E49     		ldr	r1, .L91+12
 1241              	.LBB68:
 1242              	.LBB67:
 1243              		.loc 3 231 0
 1244 004a 926A     		ldr	r2, [r2, #40]
 1245              	.LBE67:
 1246              	.LBE68:
 1247              		.loc 1 144 0
 1248 004c 1E4C     		ldr	r4, .L91+16
 1249 004e 03FB00F0 		mul	r0, r3, r0
 1250              	.LVL90:
 1251 0052 00F2E730 		addw	r0, r0, #999
 1252 0056 A5FB0030 		umull	r3, r0, r5, r0
 1253              		.loc 1 146 0
 1254 005a 0B78     		ldrb	r3, [r1]	@ zero_extendqisi2
ARM GAS  /tmp/cc6NCFXM.s 			page 23


 1255              		.loc 1 144 0
 1256 005c 02EB9010 		add	r0, r2, r0, lsr #6
 1257 0060 2060     		str	r0, [r4]
 1258              		.loc 1 146 0
 1259 0062 03F0FF05 		and	r5, r3, #255
 1260 0066 002B     		cmp	r3, #0
 1261 0068 E4D1     		bne	.L81
 1262              	.LBB69:
 1263              		.loc 1 147 0 discriminator 4
 1264 006a 0124     		movs	r4, #1
 1265 006c 0C70     		strb	r4, [r1]
 1266              		.loc 1 149 0 discriminator 4
 1267 006e FFF7FEFF 		bl	app_get_configuration
 1268              	.LVL91:
 1269 0072 D830     		adds	r0, r0, #216
 1270 0074 07C8     		ldm	r0, {r0, r1, r2}
 1271 0076 01AB     		add	r3, sp, #4
 1272              		.loc 1 158 0 discriminator 4
 1273 0078 04AA     		add	r2, sp, #16
 1274              		.loc 1 149 0 discriminator 4
 1275 007a 03C3     		stmia	r3!, {r0, r1}
 1276              		.loc 1 155 0 discriminator 4
 1277 007c 144B     		ldr	r3, .L91+24
 1278 007e 0293     		str	r3, [sp, #8]
 1279              		.loc 1 151 0 discriminator 4
 1280 0080 8DF80C50 		strb	r5, [sp, #12]
 1281              		.loc 1 158 0 discriminator 4
 1282 0084 02F80C4D 		strb	r4, [r2, #-12]!
 1283              		.loc 1 156 0 discriminator 4
 1284 0088 0323     		movs	r3, #3
 1285              		.loc 1 160 0 discriminator 4
 1286 008a 1046     		mov	r0, r2
 1287              		.loc 1 157 0 discriminator 4
 1288 008c 8DF80D40 		strb	r4, [sp, #13]
 1289              		.loc 1 154 0 discriminator 4
 1290 0090 8DF80640 		strb	r4, [sp, #6]
 1291              		.loc 1 156 0 discriminator 4
 1292 0094 8DF80730 		strb	r3, [sp, #7]
 1293              		.loc 1 160 0 discriminator 4
 1294 0098 FFF7FEFF 		bl	rfhelp_update_conf
 1295              	.LVL92:
 1296 009c CAE7     		b	.L81
 1297              	.L90:
 1298              	.LBE69:
 1299              	.LBB70:
 1300              		.loc 1 132 0
 1301 009e 0D4B     		ldr	r3, .L91+28
 1302              		.loc 1 135 0
 1303 00a0 8DF80820 		strb	r2, [sp, #8]
 1304              		.loc 1 129 0
 1305 00a4 0125     		movs	r5, #1
 1306              		.loc 1 137 0
 1307 00a6 0521     		movs	r1, #5
 1308 00a8 01A8     		add	r0, sp, #4
 1309              		.loc 1 129 0
 1310 00aa 2570     		strb	r5, [r4]
 1311              		.loc 1 132 0
ARM GAS  /tmp/cc6NCFXM.s 			page 24


 1312 00ac 0193     		str	r3, [sp, #4]
 1313              		.loc 1 137 0
 1314 00ae FFF7FEFF 		bl	commands_send_packet_nrf
 1315              	.LVL93:
 1316              	.LBE70:
 1317              		.loc 1 163 0
 1318 00b2 05B0     		add	sp, sp, #20
 1319              		.cfi_def_cfa_offset 12
 1320              		@ sp needed
 1321 00b4 30BD     		pop	{r4, r5, pc}
 1322              	.L92:
 1323 00b6 00BF     		.align	2
 1324              	.L91:
 1325 00b8 00000000 		.word	.LANCHOR0
 1326 00bc 00000000 		.word	ch
 1327 00c0 D34D6210 		.word	274877907
 1328 00c4 00000000 		.word	.LANCHOR5
 1329 00c8 00000000 		.word	.LANCHOR8
 1330 00cc 00000000 		.word	.LANCHOR9
 1331 00d0 0343C6C5 		.word	-976862461
 1332 00d4 3543C6C5 		.word	-976862411
 1333              		.cfi_endproc
 1334              	.LFE222:
 1335              		.size	nrf_driver_start_pairing, .-nrf_driver_start_pairing
 1336              		.section	.text.nrf_driver_process_packet,"ax",%progbits
 1337              		.align	1
 1338              		.p2align 4,,15
 1339              		.global	nrf_driver_process_packet
 1340              		.syntax unified
 1341              		.thumb
 1342              		.thumb_func
 1343              		.fpu fpv4-sp-d16
 1344              		.type	nrf_driver_process_packet, %function
 1345              	nrf_driver_process_packet:
 1346              	.LFB227:
 1347              		.loc 1 381 0
 1348              		.cfi_startproc
 1349              		@ args = 0, pretend = 0, frame = 400
 1350              		@ frame_needed = 0, uses_anonymous_args = 0
 1351              	.LVL94:
 1352 0000 F0B5     		push	{r4, r5, r6, r7, lr}
 1353              		.cfi_def_cfa_offset 20
 1354              		.cfi_offset 4, -20
 1355              		.cfi_offset 5, -16
 1356              		.cfi_offset 6, -12
 1357              		.cfi_offset 7, -8
 1358              		.cfi_offset 14, -4
 1359              		.loc 1 382 0
 1360 0002 0378     		ldrb	r3, [r0]	@ zero_extendqisi2
 1361              	.LVL95:
 1362              		.loc 1 381 0
 1363 0004 E5B0     		sub	sp, sp, #404
 1364              		.cfi_def_cfa_offset 424
 1365              		.loc 1 381 0
 1366 0006 0446     		mov	r4, r0
 1367              		.loc 1 387 0
 1368 0008 7748     		ldr	r0, .L114
ARM GAS  /tmp/cc6NCFXM.s 			page 25


 1369              	.LVL96:
 1370              		.loc 1 384 0
 1371 000a 0026     		movs	r6, #0
 1372              		.loc 1 387 0
 1373 000c 4FF4FA75 		mov	r5, #500
 1374              		.loc 1 389 0
 1375 0010 013B     		subs	r3, r3, #1
 1376              	.LVL97:
 1377              		.loc 1 384 0
 1378 0012 0396     		str	r6, [sp, #12]
 1379              		.loc 1 387 0
 1380 0014 0560     		str	r5, [r0]
 1381              		.loc 1 389 0
 1382 0016 062B     		cmp	r3, #6
 1383 0018 59D8     		bhi	.L93
 1384 001a DFE803F0 		tbb	[pc, r3]
 1385              	.L96:
 1386 001e 6B       		.byte	(.L95-.L96)/2
 1387 001f 58       		.byte	(.L93-.L96)/2
 1388 0020 A7       		.byte	(.L97-.L96)/2
 1389 0021 B1       		.byte	(.L98-.L96)/2
 1390 0022 BD       		.byte	(.L99-.L96)/2
 1391 0023 5A       		.byte	(.L100-.L96)/2
 1392 0024 04       		.byte	(.L101-.L96)/2
 1393 0025 00       		.p2align 1
 1394              	.L101:
 1395              	.LBB71:
 1396              		.loc 1 469 0
 1397 0026 714B     		ldr	r3, .L114+4
 1398              	.LVL98:
 1399 0028 1A78     		ldrb	r2, [r3]	@ zero_extendqisi2
 1400              		.loc 1 467 0
 1401 002a 0125     		movs	r5, #1
 1402 002c 0395     		str	r5, [sp, #12]
 1403              		.loc 1 469 0
 1404 002e 002A     		cmp	r2, #0
 1405 0030 4DD0     		beq	.L93
 1406              		.loc 1 473 0
 1407 0032 0022     		movs	r2, #0
 1408 0034 1A70     		strb	r2, [r3]
 1409              		.loc 1 475 0
 1410 0036 FFF7FEFF 		bl	app_get_configuration
 1411              	.LVL99:
 1412 003a 4FF4BC72 		mov	r2, #376
 1413 003e 0146     		mov	r1, r0
 1414 0040 06A8     		add	r0, sp, #24
 1415 0042 FFF7FEFF 		bl	memcpy
 1416              	.LVL100:
 1417              		.loc 1 476 0
 1418 0046 039B     		ldr	r3, [sp, #12]
 1419              		.loc 1 486 0
 1420 0048 694A     		ldr	r2, .L114+8
 1421              		.loc 1 476 0
 1422 004a E15C     		ldrb	r1, [r4, r3]	@ zero_extendqisi2
 1423              		.loc 1 486 0
 1424 004c 1778     		ldrb	r7, [r2]	@ zero_extendqisi2
 1425              		.loc 1 480 0
ARM GAS  /tmp/cc6NCFXM.s 			page 26


 1426 004e 8DF8F250 		strb	r5, [sp, #242]
 1427              		.loc 1 477 0
 1428 0052 1C44     		add	r4, r4, r3
 1429              	.LVL101:
 1430              		.loc 1 479 0
 1431 0054 0433     		adds	r3, r3, #4
 1432              		.loc 1 477 0
 1433 0056 6678     		ldrb	r6, [r4, #1]	@ zero_extendqisi2
 1434              		.loc 1 478 0
 1435 0058 A278     		ldrb	r2, [r4, #2]	@ zero_extendqisi2
 1436              		.loc 1 479 0
 1437 005a E078     		ldrb	r0, [r4, #3]	@ zero_extendqisi2
 1438 005c 0393     		str	r3, [sp, #12]
 1439              		.loc 1 481 0
 1440 005e 0323     		movs	r3, #3
 1441              		.loc 1 483 0
 1442 0060 8DF8F950 		strb	r5, [sp, #249]
 1443              		.loc 1 484 0
 1444 0064 8DF8F050 		strb	r5, [sp, #240]
 1445              		.loc 1 476 0
 1446 0068 8DF8F610 		strb	r1, [sp, #246]
 1447              		.loc 1 477 0
 1448 006c 8DF8F760 		strb	r6, [sp, #247]
 1449              		.loc 1 478 0
 1450 0070 8DF8F820 		strb	r2, [sp, #248]
 1451              		.loc 1 479 0
 1452 0074 8DF8F500 		strb	r0, [sp, #245]
 1453              		.loc 1 481 0
 1454 0078 8DF8F430 		strb	r3, [sp, #244]
 1455              		.loc 1 482 0
 1456 007c 8DF8F330 		strb	r3, [sp, #243]
 1457              	.LBB72:
 1458              		.loc 1 488 0
 1459 0080 04AC     		add	r4, sp, #16
 1460              	.LBE72:
 1461              		.loc 1 486 0
 1462 0082 77B1     		cbz	r7, .L105
 1463              	.LBB73:
 1464              		.loc 1 488 0
 1465 0084 3523     		movs	r3, #53
 1466              		.loc 1 489 0
 1467 0086 8DF81100 		strb	r0, [sp, #17]
 1468              		.loc 1 490 0
 1469 008a 8DF81210 		strb	r1, [sp, #18]
 1470              		.loc 1 493 0
 1471 008e 2046     		mov	r0, r4
 1472 0090 0521     		movs	r1, #5
 1473              		.loc 1 491 0
 1474 0092 8DF81360 		strb	r6, [sp, #19]
 1475              		.loc 1 492 0
 1476 0096 8DF81420 		strb	r2, [sp, #20]
 1477              		.loc 1 488 0
 1478 009a 8DF81030 		strb	r3, [sp, #16]
 1479              		.loc 1 493 0
 1480 009e FFF7FEFF 		bl	commands_send_packet_nrf
 1481              	.LVL102:
 1482              	.L105:
ARM GAS  /tmp/cc6NCFXM.s 			page 27


 1483              	.LBE73:
 1484              		.loc 1 496 0
 1485 00a2 544D     		ldr	r5, .L114+12
 1486 00a4 0123     		movs	r3, #1
 1487              		.loc 1 497 0
 1488 00a6 06A8     		add	r0, sp, #24
 1489              		.loc 1 496 0
 1490 00a8 2B70     		strb	r3, [r5]
 1491              		.loc 1 497 0
 1492 00aa FFF7FEFF 		bl	conf_general_store_app_configuration
 1493              	.LVL103:
 1494              		.loc 1 498 0
 1495 00ae 06A8     		add	r0, sp, #24
 1496 00b0 FFF7FEFF 		bl	app_set_configuration
 1497              	.LVL104:
 1498              		.loc 1 500 0
 1499 00b4 06A9     		add	r1, sp, #24
 1500 00b6 1120     		movs	r0, #17
 1501 00b8 FFF7FEFF 		bl	commands_send_appconf
 1502              	.LVL105:
 1503              		.loc 1 503 0
 1504 00bc 40F22513 		movw	r3, #293
 1505 00c0 2380     		strh	r3, [r4]	@ movhi
 1506              		.loc 1 505 0
 1507 00c2 2046     		mov	r0, r4
 1508 00c4 0221     		movs	r1, #2
 1509 00c6 FFF7FEFF 		bl	commands_send_packet
 1510              	.LVL106:
 1511              		.loc 1 507 0
 1512 00ca 0023     		movs	r3, #0
 1513 00cc 2B70     		strb	r3, [r5]
 1514              	.L93:
 1515              	.LBE71:
 1516              		.loc 1 513 0
 1517 00ce 65B0     		add	sp, sp, #404
 1518              		.cfi_remember_state
 1519              		.cfi_def_cfa_offset 20
 1520              		@ sp needed
 1521 00d0 F0BD     		pop	{r4, r5, r6, r7, pc}
 1522              	.LVL107:
 1523              	.L100:
 1524              		.cfi_restore_state
 1525              		.loc 1 459 0
 1526 00d2 1420     		movs	r0, #20
 1527 00d4 0191     		str	r1, [sp, #4]
 1528 00d6 FFF7FEFF 		bl	chThdSleep
 1529              	.LVL108:
 1530              		.loc 1 462 0
 1531 00da 0199     		ldr	r1, [sp, #4]
 1532              		.loc 1 461 0
 1533 00dc 454D     		ldr	r5, .L114+12
 1534              		.loc 1 462 0
 1535 00de 464A     		ldr	r2, .L114+16
 1536              		.loc 1 461 0
 1537 00e0 0123     		movs	r3, #1
 1538              		.loc 1 462 0
 1539 00e2 0139     		subs	r1, r1, #1
ARM GAS  /tmp/cc6NCFXM.s 			page 28


 1540 00e4 601C     		adds	r0, r4, #1
 1541              		.loc 1 461 0
 1542 00e6 2B70     		strb	r3, [r5]
 1543              		.loc 1 462 0
 1544 00e8 FFF7FEFF 		bl	commands_process_packet
 1545              	.LVL109:
 1546              		.loc 1 463 0
 1547 00ec 0023     		movs	r3, #0
 1548 00ee 2B70     		strb	r3, [r5]
 1549              		.loc 1 513 0
 1550 00f0 65B0     		add	sp, sp, #404
 1551              		.cfi_remember_state
 1552              		.cfi_def_cfa_offset 20
 1553              		@ sp needed
 1554 00f2 F0BD     		pop	{r4, r5, r6, r7, pc}
 1555              	.LVL110:
 1556              	.L95:
 1557              		.cfi_restore_state
 1558              		.loc 1 398 0
 1559 00f4 E378     		ldrb	r3, [r4, #3]	@ zero_extendqisi2
 1560              	.LVL111:
 1561              		.loc 1 396 0
 1562 00f6 414D     		ldr	r5, .L114+20
 1563 00f8 6278     		ldrb	r2, [r4, #1]	@ zero_extendqisi2
 1564 00fa 2A70     		strb	r2, [r5]
 1565              		.loc 1 399 0
 1566 00fc 03F00101 		and	r1, r3, #1
 1567              	.LVL112:
 1568              		.loc 1 397 0
 1569 0100 A278     		ldrb	r2, [r4, #2]	@ zero_extendqisi2
 1570              		.loc 1 399 0
 1571 0102 A970     		strb	r1, [r5, #2]
 1572              		.loc 1 400 0
 1573 0104 C3F34001 		ubfx	r1, r3, #1, #1
 1574              		.loc 1 397 0
 1575 0108 6A70     		strb	r2, [r5, #1]
 1576              		.loc 1 400 0
 1577 010a E970     		strb	r1, [r5, #3]
 1578              		.loc 1 401 0
 1579 010c C3F38002 		ubfx	r2, r3, #2, #1
 1580              		.loc 1 402 0
 1581 0110 C3F3C001 		ubfx	r1, r3, #3, #1
 1582              		.loc 1 401 0
 1583 0114 2A71     		strb	r2, [r5, #4]
 1584              		.loc 1 403 0
 1585 0116 C3F30013 		ubfx	r3, r3, #4, #1
 1586              	.LVL113:
 1587              		.loc 1 398 0
 1588 011a 0422     		movs	r2, #4
 1589              		.loc 1 402 0
 1590 011c 6971     		strb	r1, [r5, #5]
 1591              		.loc 1 404 0
 1592 011e 2046     		mov	r0, r4
 1593 0120 03A9     		add	r1, sp, #12
 1594              		.loc 1 403 0
 1595 0122 AB71     		strb	r3, [r5, #6]
 1596              		.loc 1 398 0
ARM GAS  /tmp/cc6NCFXM.s 			page 29


 1597 0124 0392     		str	r2, [sp, #12]
 1598              		.loc 1 404 0
 1599 0126 FFF7FEFF 		bl	buffer_get_int16
 1600              	.LVL114:
 1601 012a 07EE900A 		vmov	s15, r0	@ int
 1602 012e 9FED347A 		vldr.32	s14, .L114+24
 1603              		.loc 1 406 0
 1604 0132 2B78     		ldrb	r3, [r5]	@ zero_extendqisi2
 1605              		.loc 1 407 0
 1606 0134 6E78     		ldrb	r6, [r5, #1]	@ zero_extendqisi2
 1607              		.loc 1 408 0
 1608 0136 AC78     		ldrb	r4, [r5, #2]	@ zero_extendqisi2
 1609              	.LVL115:
 1610              		.loc 1 409 0
 1611 0138 E978     		ldrb	r1, [r5, #3]	@ zero_extendqisi2
 1612              		.loc 1 410 0
 1613 013a 6A79     		ldrb	r2, [r5, #5]	@ zero_extendqisi2
 1614              		.loc 1 407 0
 1615 013c 0796     		str	r6, [sp, #28]
 1616              		.loc 1 404 0
 1617 013e F8EEE76A 		vcvt.f32.s32	s13, s15
 1618              		.loc 1 406 0
 1619 0142 C3F1FF03 		rsb	r3, r3, #255
 1620              		.loc 1 404 0
 1621 0146 C6EE877A 		vdiv.f32	s15, s13, s14
 1622              		.loc 1 406 0
 1623 014a 0693     		str	r3, [sp, #24]
 1624              		.loc 1 413 0
 1625 014c 06A8     		add	r0, sp, #24
 1626              		.loc 1 411 0
 1627 014e AB79     		ldrb	r3, [r5, #6]	@ zero_extendqisi2
 1628              		.loc 1 408 0
 1629 0150 8DF82C40 		strb	r4, [sp, #44]
 1630              		.loc 1 409 0
 1631 0154 8DF82D10 		strb	r1, [sp, #45]
 1632              		.loc 1 410 0
 1633 0158 8DF82E20 		strb	r2, [sp, #46]
 1634              		.loc 1 411 0
 1635 015c 8DF82F30 		strb	r3, [sp, #47]
 1636              		.loc 1 404 0
 1637 0160 C5ED027A 		vstr.32	s15, [r5, #8]
 1638              		.loc 1 413 0
 1639 0164 FFF7FEFF 		bl	app_nunchuk_update_output
 1640              	.LVL116:
 1641              		.loc 1 513 0
 1642 0168 65B0     		add	sp, sp, #404
 1643              		.cfi_remember_state
 1644              		.cfi_def_cfa_offset 20
 1645              		@ sp needed
 1646 016a F0BD     		pop	{r4, r5, r6, r7, pc}
 1647              	.LVL117:
 1648              	.L97:
 1649              		.cfi_restore_state
 1650              		.loc 1 417 0
 1651 016c 2548     		ldr	r0, .L114+28
 1652 016e 6378     		ldrb	r3, [r4, #1]	@ zero_extendqisi2
 1653              	.LVL118:
ARM GAS  /tmp/cc6NCFXM.s 			page 30


 1654 0170 8A1E     		subs	r2, r1, #2
 1655 0172 1844     		add	r0, r0, r3
 1656 0174 A11C     		adds	r1, r4, #2
 1657              	.LVL119:
 1658              	.L113:
 1659              		.loc 1 513 0
 1660 0176 65B0     		add	sp, sp, #404
 1661              		.cfi_remember_state
 1662              		.cfi_def_cfa_offset 20
 1663              		@ sp needed
 1664 0178 BDE8F040 		pop	{r4, r5, r6, r7, lr}
 1665              		.cfi_restore 14
 1666              		.cfi_restore 7
 1667              		.cfi_restore 6
 1668              		.cfi_restore 5
 1669              		.cfi_restore 4
 1670              		.cfi_def_cfa_offset 0
 1671              	.LVL120:
 1672              	.LBB74:
 1673              		.loc 1 424 0
 1674 017c FFF7FEBF 		b	memcpy
 1675              	.LVL121:
 1676              	.L98:
 1677              		.cfi_restore_state
 1678 0180 B4F80130 		ldrh	r3, [r4, #1]	@ unaligned
 1679              	.LVL122:
 1680 0184 5BBA     		rev16	r3, r3
 1681 0186 9BB2     		uxth	r3, r3
 1682              	.LVL123:
 1683              		.loc 1 423 0
 1684 0188 B3F5007F 		cmp	r3, #512
 1685 018c 9FD2     		bcs	.L93
 1686              		.loc 1 424 0
 1687 018e 1D48     		ldr	r0, .L114+28
 1688 0190 CA1E     		subs	r2, r1, #3
 1689 0192 1844     		add	r0, r0, r3
 1690 0194 E11C     		adds	r1, r4, #3
 1691              	.LVL124:
 1692 0196 EEE7     		b	.L113
 1693              	.LVL125:
 1694              	.L99:
 1695              	.LBE74:
 1696              	.LBB75:
 1697              		.loc 1 431 0
 1698 0198 6378     		ldrb	r3, [r4, #1]	@ zero_extendqisi2
 1699              	.LVL126:
 1700              		.loc 1 432 0
 1701 019a A578     		ldrb	r5, [r4, #2]	@ zero_extendqisi2
 1702 019c 45EA0325 		orr	r5, r5, r3, lsl #8
 1703              	.LVL127:
 1704              		.loc 1 434 0
 1705 01a0 B5F5007F 		cmp	r5, #512
 1706 01a4 93D8     		bhi	.L93
 1707              		.loc 1 441 0
 1708 01a6 4A1F     		subs	r2, r1, #5
 1709 01a8 164E     		ldr	r6, .L114+28
 1710              		.loc 1 438 0
ARM GAS  /tmp/cc6NCFXM.s 			page 31


 1711 01aa E778     		ldrb	r7, [r4, #3]	@ zero_extendqisi2
 1712              	.LVL128:
 1713              		.loc 1 439 0
 1714 01ac 0523     		movs	r3, #5
 1715              		.loc 1 441 0
 1716 01ae A81A     		subs	r0, r5, r2
 1717 01b0 E118     		adds	r1, r4, r3
 1718              	.LVL129:
 1719 01b2 3044     		add	r0, r0, r6
 1720              		.loc 1 439 0
 1721 01b4 0393     		str	r3, [sp, #12]
 1722 01b6 2479     		ldrb	r4, [r4, #4]	@ zero_extendqisi2
 1723              	.LVL130:
 1724              		.loc 1 441 0
 1725 01b8 FFF7FEFF 		bl	memcpy
 1726              	.LVL131:
 1727              		.loc 1 443 0
 1728 01bc 2946     		mov	r1, r5
 1729 01be 3046     		mov	r0, r6
 1730 01c0 FFF7FEFF 		bl	crc16
 1731              	.LVL132:
 1732              		.loc 1 445 0
 1733 01c4 44EA0724 		orr	r4, r4, r7, lsl #8
 1734              	.LVL133:
 1735              		.loc 1 443 0
 1736 01c8 A042     		cmp	r0, r4
 1737 01ca 80D1     		bne	.L93
 1738              		.loc 1 448 0
 1739 01cc 1420     		movs	r0, #20
 1740              		.loc 1 450 0
 1741 01ce 094C     		ldr	r4, .L114+12
 1742              		.loc 1 448 0
 1743 01d0 FFF7FEFF 		bl	chThdSleep
 1744              	.LVL134:
 1745              		.loc 1 450 0
 1746 01d4 0123     		movs	r3, #1
 1747              		.loc 1 451 0
 1748 01d6 2946     		mov	r1, r5
 1749 01d8 3046     		mov	r0, r6
 1750 01da 074A     		ldr	r2, .L114+16
 1751              		.loc 1 450 0
 1752 01dc 2370     		strb	r3, [r4]
 1753              		.loc 1 451 0
 1754 01de FFF7FEFF 		bl	commands_process_packet
 1755              	.LVL135:
 1756              		.loc 1 452 0
 1757 01e2 0023     		movs	r3, #0
 1758 01e4 2370     		strb	r3, [r4]
 1759 01e6 72E7     		b	.L93
 1760              	.L115:
 1761              		.align	2
 1762              	.L114:
 1763 01e8 00000000 		.word	.LANCHOR12
 1764 01ec 00000000 		.word	.LANCHOR5
 1765 01f0 00000000 		.word	.LANCHOR0
 1766 01f4 00000000 		.word	.LANCHOR11
 1767 01f8 00000000 		.word	nrf_driver_send_buffer
ARM GAS  /tmp/cc6NCFXM.s 			page 32


 1768 01fc 00000000 		.word	.LANCHOR15
 1769 0200 00007A44 		.word	1148846080
 1770 0204 00000000 		.word	.LANCHOR16
 1771              	.LBE75:
 1772              		.cfi_endproc
 1773              	.LFE227:
 1774              		.size	nrf_driver_process_packet, .-nrf_driver_process_packet
 1775              		.section	.text.rx_thread,"ax",%progbits
 1776              		.align	1
 1777              		.p2align 4,,15
 1778              		.syntax unified
 1779              		.thumb
 1780              		.thumb_func
 1781              		.fpu fpv4-sp-d16
 1782              		.type	rx_thread, %function
 1783              	rx_thread:
 1784              	.LFB225:
 1785              		.loc 1 260 0
 1786              		.cfi_startproc
 1787              		@ args = 0, pretend = 0, frame = 40
 1788              		@ frame_needed = 0, uses_anonymous_args = 0
 1789              	.LVL136:
 1790 0000 2DE9F043 		push	{r4, r5, r6, r7, r8, r9, lr}
 1791              		.cfi_def_cfa_offset 28
 1792              		.cfi_offset 4, -28
 1793              		.cfi_offset 5, -24
 1794              		.cfi_offset 6, -20
 1795              		.cfi_offset 7, -16
 1796              		.cfi_offset 8, -12
 1797              		.cfi_offset 9, -8
 1798              		.cfi_offset 14, -4
 1799              	.LBB76:
 1800              	.LBB77:
 1801              		.loc 2 135 0
 1802 0004 234B     		ldr	r3, .L135
 1803              	.LBE77:
 1804              	.LBE76:
 1805              		.loc 1 264 0
 1806 0006 DFF8A090 		ldr	r9, .L135+20
 1807              	.LBB79:
 1808              	.LBB78:
 1809              		.loc 2 135 0
 1810 000a 9B69     		ldr	r3, [r3, #24]
 1811 000c 224A     		ldr	r2, .L135+4
 1812 000e 9A61     		str	r2, [r3, #24]
 1813              	.LVL137:
 1814 0010 224F     		ldr	r7, .L135+8
 1815 0012 DFF89880 		ldr	r8, .L135+24
 1816              	.LBE78:
 1817              	.LBE79:
 1818              	.LBB80:
 1819              		.loc 1 301 0
 1820 0016 224D     		ldr	r5, .L135+12
 1821 0018 224E     		ldr	r6, .L135+16
 1822              	.LBE80:
 1823              		.loc 1 264 0
 1824 001a 0123     		movs	r3, #1
ARM GAS  /tmp/cc6NCFXM.s 			page 33


 1825              		.loc 1 260 0
 1826 001c 8BB0     		sub	sp, sp, #44
 1827              		.cfi_def_cfa_offset 72
 1828              		.loc 1 264 0
 1829 001e 89F80030 		strb	r3, [r9]
 1830              	.LVL138:
 1831              	.L117:
 1832              	.LBB83:
 1833              		.loc 1 267 0
 1834 0022 3B68     		ldr	r3, [r7]
 1835 0024 D3B9     		cbnz	r3, .L132
 1836              	.L118:
 1837              		.loc 1 272 0
 1838 0026 98F80020 		ldrb	r2, [r8]	@ zero_extendqisi2
 1839 002a 72BB     		cbnz	r2, .L133
 1840              	.L120:
 1841              	.LBB81:
 1842              		.loc 1 282 0
 1843 002c 01AA     		add	r2, sp, #4
 1844 002e 6946     		mov	r1, sp
 1845 0030 02A8     		add	r0, sp, #8
 1846 0032 FFF7FEFF 		bl	rfhelp_read_rx_data_crc
 1847              	.LVL139:
 1848              		.loc 1 285 0
 1849 0036 041E     		subs	r4, r0, #0
 1850              		.loc 1 286 0
 1851 0038 02A8     		add	r0, sp, #8
 1852              	.LVL140:
 1853              		.loc 1 285 0
 1854 003a 13DA     		bge	.L134
 1855              	.L121:
 1856              	.LBE81:
 1857              		.loc 1 298 0
 1858 003c 3220     		movs	r0, #50
 1859 003e FFF7FEFF 		bl	chThdSleep
 1860              	.LVL141:
 1861              		.loc 1 301 0
 1862 0042 2B68     		ldr	r3, [r5]
 1863 0044 002B     		cmp	r3, #0
 1864 0046 17DD     		ble	.L122
 1865              		.loc 1 301 0 is_stmt 0 discriminator 1
 1866 0048 3268     		ldr	r2, [r6]
 1867 004a 002A     		cmp	r2, #0
 1868 004c 14DD     		ble	.L122
 1869              		.loc 1 302 0 is_stmt 1
 1870 004e 053B     		subs	r3, r3, #5
 1871 0050 2B60     		str	r3, [r5]
 1872              		.loc 1 267 0
 1873 0052 3B68     		ldr	r3, [r7]
 1874              		.loc 1 303 0
 1875 0054 053A     		subs	r2, r2, #5
 1876 0056 3260     		str	r2, [r6]
 1877              		.loc 1 267 0
 1878 0058 002B     		cmp	r3, #0
 1879 005a E4D0     		beq	.L118
 1880              	.LVL142:
 1881              	.L132:
ARM GAS  /tmp/cc6NCFXM.s 			page 34


 1882              		.loc 1 268 0
 1883 005c 3220     		movs	r0, #50
 1884 005e FFF7FEFF 		bl	chThdSleep
 1885              	.LVL143:
 1886 0062 DEE7     		b	.L117
 1887              	.LVL144:
 1888              	.L134:
 1889              	.LBB82:
 1890              		.loc 1 286 0
 1891 0064 9DF80010 		ldrb	r1, [sp]	@ zero_extendqisi2
 1892 0068 FFF7FEFF 		bl	nrf_driver_process_packet
 1893              	.LVL145:
 1894              		.loc 1 294 0
 1895 006c 0A20     		movs	r0, #10
 1896              		.loc 1 290 0
 1897 006e 002C     		cmp	r4, #0
 1898 0070 E4D0     		beq	.L121
 1899              		.loc 1 294 0
 1900 0072 FFF7FEFF 		bl	chThdSleep
 1901              	.LVL146:
 1902              	.LBE82:
 1903              		.loc 1 281 0
 1904 0076 D9E7     		b	.L120
 1905              	.L122:
 1906              		.loc 1 305 0
 1907 0078 FFF7FEFF 		bl	rfhelp_power_up
 1908              	.LVL147:
 1909              		.loc 1 306 0
 1910 007c FFF7FEFF 		bl	rfhelp_restart
 1911              	.LVL148:
 1912              		.loc 1 307 0
 1913 0080 4FF4FA73 		mov	r3, #500
 1914 0084 2B60     		str	r3, [r5]
 1915              		.loc 1 308 0
 1916 0086 3360     		str	r3, [r6]
 1917 0088 CBE7     		b	.L117
 1918              	.LVL149:
 1919              	.L133:
 1920              		.loc 1 273 0
 1921 008a 89F80030 		strb	r3, [r9]
 1922              	.LBE83:
 1923              		.loc 1 311 0
 1924 008e 0BB0     		add	sp, sp, #44
 1925              		.cfi_def_cfa_offset 28
 1926              		@ sp needed
 1927 0090 BDE8F083 		pop	{r4, r5, r6, r7, r8, r9, pc}
 1928              	.L136:
 1929              		.align	2
 1930              	.L135:
 1931 0094 00000000 		.word	ch
 1932 0098 00000000 		.word	.LC1
 1933 009c 00000000 		.word	.LANCHOR7
 1934 00a0 00000000 		.word	.LANCHOR12
 1935 00a4 00000000 		.word	.LANCHOR1
 1936 00a8 00000000 		.word	.LANCHOR9
 1937 00ac 00000000 		.word	.LANCHOR10
 1938              		.cfi_endproc
ARM GAS  /tmp/cc6NCFXM.s 			page 35


 1939              	.LFE225:
 1940              		.size	rx_thread, .-rx_thread
 1941              		.section	.text.nrf_driver_is_pairing,"ax",%progbits
 1942              		.align	1
 1943              		.p2align 4,,15
 1944              		.global	nrf_driver_is_pairing
 1945              		.syntax unified
 1946              		.thumb
 1947              		.thumb_func
 1948              		.fpu fpv4-sp-d16
 1949              		.type	nrf_driver_is_pairing, %function
 1950              	nrf_driver_is_pairing:
 1951              	.LFB228:
 1952              		.loc 1 515 0
 1953              		.cfi_startproc
 1954              		@ args = 0, pretend = 0, frame = 0
 1955              		@ frame_needed = 0, uses_anonymous_args = 0
 1956              		@ link register save eliminated.
 1957              		.loc 1 516 0
 1958 0000 014B     		ldr	r3, .L138
 1959 0002 1878     		ldrb	r0, [r3]	@ zero_extendqisi2
 1960              		.loc 1 517 0
 1961 0004 7047     		bx	lr
 1962              	.L139:
 1963 0006 00BF     		.align	2
 1964              	.L138:
 1965 0008 00000000 		.word	.LANCHOR5
 1966              		.cfi_endproc
 1967              	.LFE228:
 1968              		.size	nrf_driver_is_pairing, .-nrf_driver_is_pairing
 1969              		.section	.text.nrf_driver_ext_nrf_running,"ax",%progbits
 1970              		.align	1
 1971              		.p2align 4,,15
 1972              		.global	nrf_driver_ext_nrf_running
 1973              		.syntax unified
 1974              		.thumb
 1975              		.thumb_func
 1976              		.fpu fpv4-sp-d16
 1977              		.type	nrf_driver_ext_nrf_running, %function
 1978              	nrf_driver_ext_nrf_running:
 1979              	.LFB229:
 1980              		.loc 1 519 0
 1981              		.cfi_startproc
 1982              		@ args = 0, pretend = 0, frame = 0
 1983              		@ frame_needed = 0, uses_anonymous_args = 0
 1984              		@ link register save eliminated.
 1985              		.loc 1 520 0
 1986 0000 014B     		ldr	r3, .L141
 1987 0002 1878     		ldrb	r0, [r3]	@ zero_extendqisi2
 1988              		.loc 1 521 0
 1989 0004 7047     		bx	lr
 1990              	.L142:
 1991 0006 00BF     		.align	2
 1992              	.L141:
 1993 0008 00000000 		.word	.LANCHOR0
 1994              		.cfi_endproc
 1995              	.LFE229:
ARM GAS  /tmp/cc6NCFXM.s 			page 36


 1996              		.size	nrf_driver_ext_nrf_running, .-nrf_driver_ext_nrf_running
 1997              		.section	.text.nrf_driver_pause,"ax",%progbits
 1998              		.align	1
 1999              		.p2align 4,,15
 2000              		.global	nrf_driver_pause
 2001              		.syntax unified
 2002              		.thumb
 2003              		.thumb_func
 2004              		.fpu fpv4-sp-d16
 2005              		.type	nrf_driver_pause, %function
 2006              	nrf_driver_pause:
 2007              	.LFB230:
 2008              		.loc 1 523 0
 2009              		.cfi_startproc
 2010              		@ args = 0, pretend = 0, frame = 0
 2011              		@ frame_needed = 0, uses_anonymous_args = 0
 2012              		@ link register save eliminated.
 2013              	.LVL150:
 2014              		.loc 1 524 0
 2015 0000 014B     		ldr	r3, .L144
 2016 0002 1860     		str	r0, [r3]
 2017              		.loc 1 525 0
 2018 0004 7047     		bx	lr
 2019              	.L145:
 2020 0006 00BF     		.align	2
 2021              	.L144:
 2022 0008 00000000 		.word	.LANCHOR7
 2023              		.cfi_endproc
 2024              	.LFE230:
 2025              		.size	nrf_driver_pause, .-nrf_driver_pause
 2026              		.section	.bss.driver_paused,"aw",%nobits
 2027              		.align	2
 2028              		.set	.LANCHOR7,. + 0
 2029              		.type	driver_paused, %object
 2030              		.size	driver_paused, 4
 2031              	driver_paused:
 2032 0000 00000000 		.space	4
 2033              		.section	.bss.ext_nrf,"aw",%nobits
 2034              		.set	.LANCHOR0,. + 0
 2035              		.type	ext_nrf, %object
 2036              		.size	ext_nrf, 1
 2037              	ext_nrf:
 2038 0000 00       		.space	1
 2039              		.section	.bss.from_nrf,"aw",%nobits
 2040              		.set	.LANCHOR11,. + 0
 2041              		.type	from_nrf, %object
 2042              		.size	from_nrf, 1
 2043              	from_nrf:
 2044 0000 00       		.space	1
 2045              		.section	.bss.mstate,"aw",%nobits
 2046              		.align	2
 2047              		.set	.LANCHOR15,. + 0
 2048              		.type	mstate, %object
 2049              		.size	mstate, 12
 2050              	mstate:
 2051 0000 00000000 		.space	12
 2051      00000000 
ARM GAS  /tmp/cc6NCFXM.s 			page 37


 2051      00000000 
 2052              		.section	.bss.nosend_cnt,"aw",%nobits
 2053              		.align	2
 2054              		.set	.LANCHOR4,. + 0
 2055              		.type	nosend_cnt, %object
 2056              		.size	nosend_cnt, 4
 2057              	nosend_cnt:
 2058 0000 00000000 		.space	4
 2059              		.section	.bss.nrf_restart_rx_time,"aw",%nobits
 2060              		.align	2
 2061              		.set	.LANCHOR12,. + 0
 2062              		.type	nrf_restart_rx_time, %object
 2063              		.size	nrf_restart_rx_time, 4
 2064              	nrf_restart_rx_time:
 2065 0000 00000000 		.space	4
 2066              		.section	.bss.nrf_restart_tx_time,"aw",%nobits
 2067              		.align	2
 2068              		.set	.LANCHOR1,. + 0
 2069              		.type	nrf_restart_tx_time, %object
 2070              		.size	nrf_restart_tx_time, 4
 2071              	nrf_restart_tx_time:
 2072 0000 00000000 		.space	4
 2073              		.section	.bss.pairing_active,"aw",%nobits
 2074              		.set	.LANCHOR5,. + 0
 2075              		.type	pairing_active, %object
 2076              		.size	pairing_active, 1
 2077              	pairing_active:
 2078 0000 00       		.space	1
 2079              		.section	.bss.pairing_time_end,"aw",%nobits
 2080              		.align	2
 2081              		.set	.LANCHOR8,. + 0
 2082              		.type	pairing_time_end, %object
 2083              		.size	pairing_time_end, 4
 2084              	pairing_time_end:
 2085 0000 00000000 		.space	4
 2086              		.section	.bss.rx_buffer,"aw",%nobits
 2087              		.align	2
 2088              		.set	.LANCHOR16,. + 0
 2089              		.type	rx_buffer, %object
 2090              		.size	rx_buffer, 512
 2091              	rx_buffer:
 2092 0000 00000000 		.space	512
 2092      00000000 
 2092      00000000 
 2092      00000000 
 2092      00000000 
 2093              		.section	.bss.rx_running,"aw",%nobits
 2094              		.set	.LANCHOR9,. + 0
 2095              		.type	rx_running, %object
 2096              		.size	rx_running, 1
 2097              	rx_running:
 2098 0000 00       		.space	1
 2099              		.section	.bss.rx_thread_wa,"aw",%nobits
 2100              		.align	3
 2101              		.set	.LANCHOR13,. + 0
 2102              		.type	rx_thread_wa, %object
 2103              		.size	rx_thread_wa, 2456
ARM GAS  /tmp/cc6NCFXM.s 			page 38


 2104              	rx_thread_wa:
 2105 0000 00000000 		.space	2456
 2105      00000000 
 2105      00000000 
 2105      00000000 
 2105      00000000 
 2106              		.section	.bss.seq_cnt.10554,"aw",%nobits
 2107              		.set	.LANCHOR6,. + 0
 2108              		.type	seq_cnt.10554, %object
 2109              		.size	seq_cnt.10554, 1
 2110              	seq_cnt.10554:
 2111 0000 00       		.space	1
 2112              		.section	.bss.tx_running,"aw",%nobits
 2113              		.set	.LANCHOR2,. + 0
 2114              		.type	tx_running, %object
 2115              		.size	tx_running, 1
 2116              	tx_running:
 2117 0000 00       		.space	1
 2118              		.section	.bss.tx_thread_wa,"aw",%nobits
 2119              		.align	3
 2120              		.set	.LANCHOR14,. + 0
 2121              		.type	tx_thread_wa, %object
 2122              		.size	tx_thread_wa, 920
 2123              	tx_thread_wa:
 2124 0000 00000000 		.space	920
 2124      00000000 
 2124      00000000 
 2124      00000000 
 2124      00000000 
 2125              		.section	.data.rx_stop,"aw",%progbits
 2126              		.set	.LANCHOR10,. + 0
 2127              		.type	rx_stop, %object
 2128              		.size	rx_stop, 1
 2129              	rx_stop:
 2130 0000 01       		.byte	1
 2131              		.section	.data.tx_stop,"aw",%progbits
 2132              		.set	.LANCHOR3,. + 0
 2133              		.type	tx_stop, %object
 2134              		.size	tx_stop, 1
 2135              	tx_stop:
 2136 0000 01       		.byte	1
 2137              		.section	.rodata.rx_thread.str1.4,"aMS",%progbits,1
 2138              		.align	2
 2139              	.LC1:
 2140 0000 4E726620 		.ascii	"Nrf RX\000"
 2140      525800
 2141              		.section	.rodata.tx_thread.str1.4,"aMS",%progbits,1
 2142              		.align	2
 2143              	.LC0:
 2144 0000 4E726620 		.ascii	"Nrf TX\000"
 2144      545800
 2145              		.text
 2146              	.Letext0:
 2147              		.file 4 "/usr/lib/gcc/arm-none-eabi/7.3.1/include/stddef.h"
 2148              		.file 5 "/usr/arm-none-eabi/include/machine/_default_types.h"
 2149              		.file 6 "/usr/arm-none-eabi/include/sys/lock.h"
 2150              		.file 7 "/usr/arm-none-eabi/include/sys/_types.h"
ARM GAS  /tmp/cc6NCFXM.s 			page 39


 2151              		.file 8 "/usr/arm-none-eabi/include/sys/reent.h"
 2152              		.file 9 "/usr/arm-none-eabi/include/sys/_stdint.h"
 2153              		.file 10 "ChibiOS_3.0.2/os/rt/ports/ARMCMx/compilers/GCC/chtypes.h"
 2154              		.file 11 "ChibiOS_3.0.2/os/rt/include/chsystypes.h"
 2155              		.file 12 "ChibiOS_3.0.2/os/rt/include/chschd.h"
 2156              		.file 13 "ChibiOS_3.0.2/os/ext/CMSIS/include/core_cm4.h"
 2157              		.file 14 "ChibiOS_3.0.2/os/ext/CMSIS/ST/system_stm32f4xx.h"
 2158              		.file 15 "ChibiOS_3.0.2/os/rt/ports/ARMCMx/chcore.h"
 2159              		.file 16 "ChibiOS_3.0.2/os/rt/ports/ARMCMx/chcore_v7m.h"
 2160              		.file 17 "ChibiOS_3.0.2/os/rt/include/chtm.h"
 2161              		.file 18 "ChibiOS_3.0.2/os/rt/include/chsem.h"
 2162              		.file 19 "ChibiOS_3.0.2/os/rt/include/chmtx.h"
 2163              		.file 20 "./datatypes.h"
 2164              		.file 21 "./conf_general.h"
 2165              		.file 22 "./mc_interface.h"
 2166              		.file 23 "./crc.h"
 2167              		.file 24 "ChibiOS_3.0.2/os/rt/include/chthreads.h"
 2168              		.file 25 "./commands.h"
 2169              		.file 26 "applications/app.h"
 2170              		.file 27 "./buffer.h"
 2171              		.file 28 "nrf/rfhelp.h"
 2172              		.file 29 "<built-in>"