ARM GAS  /tmp/ccXBpS8K.s 			page 1


   1              		.cpu cortex-m4
   2              		.eabi_attribute 27, 1
   3              		.eabi_attribute 28, 1
   4              		.eabi_attribute 20, 1
   5              		.eabi_attribute 21, 1
   6              		.eabi_attribute 23, 3
   7              		.eabi_attribute 24, 1
   8              		.eabi_attribute 25, 1
   9              		.eabi_attribute 26, 1
  10              		.eabi_attribute 30, 2
  11              		.eabi_attribute 34, 1
  12              		.eabi_attribute 18, 4
  13              		.file	"comm_usb_serial.c"
  14              		.text
  15              	.Ltext0:
  16              		.cfi_sections	.debug_frame
  17              		.section	.text.get_descriptor,"ax",%progbits
  18              		.align	1
  19              		.p2align 4,,15
  20              		.syntax unified
  21              		.thumb
  22              		.thumb_func
  23              		.fpu fpv4-sp-d16
  24              		.type	get_descriptor, %function
  25              	get_descriptor:
  26              	.LFB256:
  27              		.file 1 "comm_usb_serial.c"
  28              		.loc 1 190 0
  29              		.cfi_startproc
  30              		@ args = 0, pretend = 0, frame = 0
  31              		@ frame_needed = 0, uses_anonymous_args = 0
  32              		@ link register save eliminated.
  33              	.LVL0:
  34              		.loc 1 194 0
  35 0000 0229     		cmp	r1, #2
  36 0002 06D0     		beq	.L3
  37 0004 0329     		cmp	r1, #3
  38 0006 06D0     		beq	.L4
  39 0008 0129     		cmp	r1, #1
  40              		.loc 1 203 0
  41 000a 0648     		ldr	r0, .L9
  42              	.LVL1:
  43 000c 18BF     		it	ne
  44 000e 0020     		movne	r0, #0
  45 0010 7047     		bx	lr
  46              	.LVL2:
  47              	.L3:
  48              		.loc 1 198 0
  49 0012 0548     		ldr	r0, .L9+4
  50              	.LVL3:
  51 0014 7047     		bx	lr
  52              	.LVL4:
  53              	.L4:
  54              		.loc 1 200 0
  55 0016 032A     		cmp	r2, #3
  56              		.loc 1 201 0
  57 0018 9ABF     		itte	ls
ARM GAS  /tmp/ccXBpS8K.s 			page 2


  58 001a 0448     		ldrls	r0, .L9+8
  59              	.LVL5:
  60 001c 00EBC200 		addls	r0, r0, r2, lsl #3
  61              		.loc 1 203 0
  62 0020 0020     		movhi	r0, #0
  63              		.loc 1 204 0
  64 0022 7047     		bx	lr
  65              	.L10:
  66              		.align	2
  67              	.L9:
  68 0024 00000000 		.word	.LANCHOR0
  69 0028 00000000 		.word	.LANCHOR1
  70 002c 00000000 		.word	.LANCHOR2
  71              		.cfi_endproc
  72              	.LFE256:
  73              		.size	get_descriptor, .-get_descriptor
  74              		.section	.text.usb_event,"ax",%progbits
  75              		.align	1
  76              		.p2align 4,,15
  77              		.syntax unified
  78              		.thumb
  79              		.thumb_func
  80              		.fpu fpv4-sp-d16
  81              		.type	usb_event, %function
  82              	usb_event:
  83              	.LFB257:
  84              		.loc 1 256 0
  85              		.cfi_startproc
  86              		@ args = 0, pretend = 0, frame = 0
  87              		@ frame_needed = 0, uses_anonymous_args = 0
  88              	.LVL6:
  89              		.loc 1 258 0
  90 0000 0229     		cmp	r1, #2
  91 0002 11D1     		bne	.L15
  92              		.loc 1 256 0
  93 0004 38B5     		push	{r3, r4, r5, lr}
  94              		.cfi_def_cfa_offset 16
  95              		.cfi_offset 3, -16
  96              		.cfi_offset 4, -12
  97              		.cfi_offset 5, -8
  98              		.cfi_offset 14, -4
  99 0006 0546     		mov	r5, r0
 100 0008 0C46     		mov	r4, r1
 101              	.LVL7:
 102              	.LBB58:
 103              	.LBB59:
 104              	.LBB60:
 105              	.LBB61:
 106              	.LBB62:
 107              	.LBB63:
 108              	.LBB64:
 109              		.file 2 "ChibiOS_3.0.2/os/ext/CMSIS/include/core_cmFunc.h"
 110              		.loc 2 342 0
 111              		.syntax unified
 112              	@ 342 "ChibiOS_3.0.2/os/ext/CMSIS/include/core_cmFunc.h" 1
 113 000a 72B6     		cpsid i
 114              	@ 0 "" 2
ARM GAS  /tmp/ccXBpS8K.s 			page 3


 115              		.thumb
 116              		.syntax unified
 117              	.LBE64:
 118              	.LBE63:
 119              	.LBE62:
 120              	.LBE61:
 121              	.LBE60:
 122              		.loc 1 269 0
 123 000c 074A     		ldr	r2, .L18
 124 000e 0121     		movs	r1, #1
 125              	.LVL8:
 126 0010 FFF7FEFF 		bl	usbInitEndpointI
 127              	.LVL9:
 128              		.loc 1 270 0
 129 0014 2146     		mov	r1, r4
 130 0016 2846     		mov	r0, r5
 131 0018 054A     		ldr	r2, .L18+4
 132 001a FFF7FEFF 		bl	usbInitEndpointI
 133              	.LVL10:
 134              		.loc 1 273 0
 135 001e 0548     		ldr	r0, .L18+8
 136 0020 FFF7FEFF 		bl	sduConfigureHookI
 137              	.LVL11:
 138              	.LBB65:
 139              	.LBB66:
 140              	.LBB67:
 141              	.LBB68:
 142              	.LBB69:
 143              		.loc 2 331 0
 144              		.syntax unified
 145              	@ 331 "ChibiOS_3.0.2/os/ext/CMSIS/include/core_cmFunc.h" 1
 146 0024 62B6     		cpsie i
 147              	@ 0 "" 2
 148              		.thumb
 149              		.syntax unified
 150              	.LBE69:
 151              	.LBE68:
 152              	.LBE67:
 153              	.LBE66:
 154              	.LBE65:
 155              	.LBE59:
 156              	.LBE58:
 157              		.loc 1 285 0
 158 0026 38BD     		pop	{r3, r4, r5, pc}
 159              	.LVL12:
 160              	.L15:
 161              		.cfi_def_cfa_offset 0
 162              		.cfi_restore 3
 163              		.cfi_restore 4
 164              		.cfi_restore 5
 165              		.cfi_restore 14
 166 0028 7047     		bx	lr
 167              	.L19:
 168 002a 00BF     		.align	2
 169              	.L18:
 170 002c 00000000 		.word	.LANCHOR3
 171 0030 00000000 		.word	.LANCHOR4
ARM GAS  /tmp/ccXBpS8K.s 			page 4


 172 0034 00000000 		.word	.LANCHOR5
 173              		.cfi_endproc
 174              	.LFE257:
 175              		.size	usb_event, .-usb_event
 176              		.section	.text.comm_usb_serial_init,"ax",%progbits
 177              		.align	1
 178              		.p2align 4,,15
 179              		.global	comm_usb_serial_init
 180              		.syntax unified
 181              		.thumb
 182              		.thumb_func
 183              		.fpu fpv4-sp-d16
 184              		.type	comm_usb_serial_init, %function
 185              	comm_usb_serial_init:
 186              	.LFB258:
 187              		.loc 1 307 0
 188              		.cfi_startproc
 189              		@ args = 0, pretend = 0, frame = 0
 190              		@ frame_needed = 0, uses_anonymous_args = 0
 191 0000 70B5     		push	{r4, r5, r6, lr}
 192              		.cfi_def_cfa_offset 16
 193              		.cfi_offset 4, -16
 194              		.cfi_offset 5, -12
 195              		.cfi_offset 6, -8
 196              		.cfi_offset 14, -4
 197              		.loc 1 308 0
 198 0002 154E     		ldr	r6, .L22
 199              		.loc 1 317 0
 200 0004 154D     		ldr	r5, .L22+4
 201              		.loc 1 325 0
 202 0006 164C     		ldr	r4, .L22+8
 203              		.loc 1 308 0
 204 0008 3046     		mov	r0, r6
 205 000a 40F20A52 		movw	r2, #1290
 206 000e 4FF40061 		mov	r1, #2048
 207 0012 FFF7FEFF 		bl	_pal_lld_setgroupmode
 208              	.LVL13:
 209              		.loc 1 312 0
 210 0016 40F20A52 		movw	r2, #1290
 211 001a 4FF48051 		mov	r1, #4096
 212 001e 3046     		mov	r0, r6
 213 0020 FFF7FEFF 		bl	_pal_lld_setgroupmode
 214              	.LVL14:
 215              		.loc 1 317 0
 216 0024 2846     		mov	r0, r5
 217 0026 FFF7FEFF 		bl	sduObjectInit
 218              	.LVL15:
 219              		.loc 1 318 0
 220 002a 0E49     		ldr	r1, .L22+12
 221 002c 2846     		mov	r0, r5
 222 002e FFF7FEFF 		bl	sduStart
 223              	.LVL16:
 224              		.loc 1 325 0
 225 0032 226D     		ldr	r2, [r4, #80]
 226 0034 936B     		ldr	r3, [r2, #56]
 227 0036 23F40023 		bic	r3, r3, #524288
 228 003a 9363     		str	r3, [r2, #56]
ARM GAS  /tmp/ccXBpS8K.s 			page 5


 229              		.loc 1 326 0
 230 003c 43F69820 		movw	r0, #15000
 231 0040 FFF7FEFF 		bl	chThdSleep
 232              	.LVL17:
 233              		.loc 1 327 0
 234 0044 2046     		mov	r0, r4
 235 0046 0849     		ldr	r1, .L22+16
 236 0048 FFF7FEFF 		bl	usbStart
 237              	.LVL18:
 238              		.loc 1 328 0
 239 004c 226D     		ldr	r2, [r4, #80]
 240 004e 936B     		ldr	r3, [r2, #56]
 241 0050 43F40023 		orr	r3, r3, #524288
 242 0054 9363     		str	r3, [r2, #56]
 243              		.loc 1 329 0
 244 0056 70BD     		pop	{r4, r5, r6, pc}
 245              	.L23:
 246              		.align	2
 247              	.L22:
 248 0058 00000240 		.word	1073872896
 249 005c 00000000 		.word	.LANCHOR5
 250 0060 00000000 		.word	USBD1
 251 0064 00000000 		.word	.LANCHOR6
 252 0068 00000000 		.word	.LANCHOR7
 253              		.cfi_endproc
 254              	.LFE258:
 255              		.size	comm_usb_serial_init, .-comm_usb_serial_init
 256              		.section	.text.comm_usb_serial_is_active,"ax",%progbits
 257              		.align	1
 258              		.p2align 4,,15
 259              		.global	comm_usb_serial_is_active
 260              		.syntax unified
 261              		.thumb
 262              		.thumb_func
 263              		.fpu fpv4-sp-d16
 264              		.type	comm_usb_serial_is_active, %function
 265              	comm_usb_serial_is_active:
 266              	.LFB259:
 267              		.loc 1 331 0
 268              		.cfi_startproc
 269              		@ args = 0, pretend = 0, frame = 0
 270              		@ frame_needed = 0, uses_anonymous_args = 0
 271              		@ link register save eliminated.
 272              		.loc 1 332 0
 273 0000 054B     		ldr	r3, .L25
 274 0002 D3F85432 		ldr	r3, [r3, #596]
 275 0006 1B68     		ldr	r3, [r3]
 276 0008 1878     		ldrb	r0, [r3]	@ zero_extendqisi2
 277              		.loc 1 333 0
 278 000a A0F10400 		sub	r0, #4
 279 000e B0FA80F0 		clz	r0, r0
 280 0012 4009     		lsrs	r0, r0, #5
 281 0014 7047     		bx	lr
 282              	.L26:
 283 0016 00BF     		.align	2
 284              	.L25:
 285 0018 00000000 		.word	.LANCHOR5
ARM GAS  /tmp/ccXBpS8K.s 			page 6


 286              		.cfi_endproc
 287              	.LFE259:
 288              		.size	comm_usb_serial_is_active, .-comm_usb_serial_is_active
 289              		.global	serusbcfg
 290              		.global	SDU1
 291              		.section	.bss.SDU1,"aw",%nobits
 292              		.align	2
 293              		.set	.LANCHOR5,. + 0
 294              		.type	SDU1, %object
 295              		.size	SDU1, 600
 296              	SDU1:
 297 0000 00000000 		.space	600
 297      00000000 
 297      00000000 
 297      00000000 
 297      00000000 
 298              		.section	.bss.ep1instate,"aw",%nobits
 299              		.align	2
 300              		.type	ep1instate, %object
 301              		.size	ep1instate, 20
 302              	ep1instate:
 303 0000 00000000 		.space	20
 303      00000000 
 303      00000000 
 303      00000000 
 303      00000000 
 304              		.section	.bss.ep1outstate,"aw",%nobits
 305              		.align	2
 306              		.type	ep1outstate, %object
 307              		.size	ep1outstate, 20
 308              	ep1outstate:
 309 0000 00000000 		.space	20
 309      00000000 
 309      00000000 
 309      00000000 
 309      00000000 
 310              		.section	.bss.ep2instate,"aw",%nobits
 311              		.align	2
 312              		.type	ep2instate, %object
 313              		.size	ep2instate, 20
 314              	ep2instate:
 315 0000 00000000 		.space	20
 315      00000000 
 315      00000000 
 315      00000000 
 315      00000000 
 316              		.section	.rodata.ep1config,"a",%progbits
 317              		.align	2
 318              		.set	.LANCHOR3,. + 0
 319              		.type	ep1config, %object
 320              		.size	ep1config, 36
 321              	ep1config:
 322 0000 02000000 		.word	2
 323 0004 00000000 		.word	0
 324 0008 00000000 		.word	sduDataTransmitted
 325 000c 00000000 		.word	sduDataReceived
 326 0010 4000     		.short	64
ARM GAS  /tmp/ccXBpS8K.s 			page 7


 327 0012 4000     		.short	64
 328 0014 00000000 		.word	ep1instate
 329 0018 00000000 		.word	ep1outstate
 330 001c 0200     		.short	2
 331 001e 0000     		.space	2
 332 0020 00000000 		.word	0
 333              		.section	.rodata.ep2config,"a",%progbits
 334              		.align	2
 335              		.set	.LANCHOR4,. + 0
 336              		.type	ep2config, %object
 337              		.size	ep2config, 36
 338              	ep2config:
 339 0000 03000000 		.word	3
 340 0004 00000000 		.word	0
 341 0008 00000000 		.word	sduInterruptTransmitted
 342 000c 00000000 		.word	0
 343 0010 1000     		.short	16
 344 0012 0000     		.short	0
 345 0014 00000000 		.word	ep2instate
 346 0018 00000000 		.word	0
 347 001c 0100     		.short	1
 348 001e 0000     		.space	2
 349 0020 00000000 		.word	0
 350              		.section	.rodata.serusbcfg,"a",%progbits
 351              		.align	2
 352              		.set	.LANCHOR6,. + 0
 353              		.type	serusbcfg, %object
 354              		.size	serusbcfg, 8
 355              	serusbcfg:
 356 0000 00000000 		.word	USBD1
 357 0004 01       		.byte	1
 358 0005 01       		.byte	1
 359 0006 02       		.byte	2
 360 0007 00       		.space	1
 361              		.section	.rodata.usbcfg,"a",%progbits
 362              		.align	2
 363              		.set	.LANCHOR7,. + 0
 364              		.type	usbcfg, %object
 365              		.size	usbcfg, 16
 366              	usbcfg:
 367 0000 00000000 		.word	usb_event
 368 0004 00000000 		.word	get_descriptor
 369 0008 00000000 		.word	sduRequestsHook
 370 000c 00000000 		.word	0
 371              		.section	.rodata.vcom_configuration_descriptor,"a",%progbits
 372              		.align	2
 373              		.set	.LANCHOR1,. + 0
 374              		.type	vcom_configuration_descriptor, %object
 375              		.size	vcom_configuration_descriptor, 8
 376              	vcom_configuration_descriptor:
 377 0000 43000000 		.word	67
 378 0004 00000000 		.word	vcom_configuration_descriptor_data
 379              		.section	.rodata.vcom_configuration_descriptor_data,"a",%progbits
 380              		.align	2
 381              		.type	vcom_configuration_descriptor_data, %object
 382              		.size	vcom_configuration_descriptor_data, 67
 383              	vcom_configuration_descriptor_data:
ARM GAS  /tmp/ccXBpS8K.s 			page 8


 384 0000 09       		.byte	9
 385 0001 02       		.byte	2
 386 0002 43       		.byte	67
 387 0003 00       		.byte	0
 388 0004 02       		.byte	2
 389 0005 01       		.byte	1
 390 0006 00       		.byte	0
 391 0007 C0       		.byte	-64
 392 0008 32       		.byte	50
 393 0009 09       		.byte	9
 394 000a 04       		.byte	4
 395 000b 00       		.byte	0
 396 000c 00       		.byte	0
 397 000d 01       		.byte	1
 398 000e 02       		.byte	2
 399 000f 02       		.byte	2
 400 0010 01       		.byte	1
 401 0011 00       		.byte	0
 402 0012 05       		.byte	5
 403 0013 24       		.byte	36
 404 0014 00       		.byte	0
 405 0015 10       		.byte	16
 406 0016 01       		.byte	1
 407 0017 05       		.byte	5
 408 0018 24       		.byte	36
 409 0019 01       		.byte	1
 410 001a 00       		.byte	0
 411 001b 01       		.byte	1
 412 001c 04       		.byte	4
 413 001d 24       		.byte	36
 414 001e 02       		.byte	2
 415 001f 02       		.byte	2
 416 0020 05       		.byte	5
 417 0021 24       		.byte	36
 418 0022 06       		.byte	6
 419 0023 00       		.byte	0
 420 0024 01       		.byte	1
 421 0025 07       		.byte	7
 422 0026 05       		.byte	5
 423 0027 82       		.byte	-126
 424 0028 03       		.byte	3
 425 0029 08       		.byte	8
 426 002a 00       		.byte	0
 427 002b FF       		.byte	-1
 428 002c 09       		.byte	9
 429 002d 04       		.byte	4
 430 002e 01       		.byte	1
 431 002f 00       		.byte	0
 432 0030 02       		.byte	2
 433 0031 0A       		.byte	10
 434 0032 00       		.byte	0
 435 0033 00       		.byte	0
 436 0034 00       		.byte	0
 437 0035 07       		.byte	7
 438 0036 05       		.byte	5
 439 0037 01       		.byte	1
 440 0038 02       		.byte	2
ARM GAS  /tmp/ccXBpS8K.s 			page 9


 441 0039 40       		.byte	64
 442 003a 00       		.byte	0
 443 003b 00       		.byte	0
 444 003c 07       		.byte	7
 445 003d 05       		.byte	5
 446 003e 81       		.byte	-127
 447 003f 02       		.byte	2
 448 0040 40       		.byte	64
 449 0041 00       		.byte	0
 450 0042 00       		.byte	0
 451              		.section	.rodata.vcom_device_descriptor,"a",%progbits
 452              		.align	2
 453              		.set	.LANCHOR0,. + 0
 454              		.type	vcom_device_descriptor, %object
 455              		.size	vcom_device_descriptor, 8
 456              	vcom_device_descriptor:
 457 0000 12000000 		.word	18
 458 0004 00000000 		.word	vcom_device_descriptor_data
 459              		.section	.rodata.vcom_device_descriptor_data,"a",%progbits
 460              		.align	2
 461              		.type	vcom_device_descriptor_data, %object
 462              		.size	vcom_device_descriptor_data, 18
 463              	vcom_device_descriptor_data:
 464 0000 12       		.byte	18
 465 0001 01       		.byte	1
 466 0002 10       		.byte	16
 467 0003 01       		.byte	1
 468 0004 02       		.byte	2
 469 0005 00       		.byte	0
 470 0006 00       		.byte	0
 471 0007 40       		.byte	64
 472 0008 83       		.byte	-125
 473 0009 04       		.byte	4
 474 000a 40       		.byte	64
 475 000b 57       		.byte	87
 476 000c 00       		.byte	0
 477 000d 02       		.byte	2
 478 000e 01       		.byte	1
 479 000f 02       		.byte	2
 480 0010 03       		.byte	3
 481 0011 01       		.byte	1
 482              		.section	.rodata.vcom_string0,"a",%progbits
 483              		.align	2
 484              		.type	vcom_string0, %object
 485              		.size	vcom_string0, 4
 486              	vcom_string0:
 487 0000 04       		.byte	4
 488 0001 03       		.byte	3
 489 0002 09       		.byte	9
 490 0003 04       		.byte	4
 491              		.section	.rodata.vcom_string1,"a",%progbits
 492              		.align	2
 493              		.type	vcom_string1, %object
 494              		.size	vcom_string1, 38
 495              	vcom_string1:
 496 0000 26       		.byte	38
 497 0001 03       		.byte	3
ARM GAS  /tmp/ccXBpS8K.s 			page 10


 498 0002 53       		.byte	83
 499 0003 00       		.byte	0
 500 0004 54       		.byte	84
 501 0005 00       		.byte	0
 502 0006 4D       		.byte	77
 503 0007 00       		.byte	0
 504 0008 69       		.byte	105
 505 0009 00       		.byte	0
 506 000a 63       		.byte	99
 507 000b 00       		.byte	0
 508 000c 72       		.byte	114
 509 000d 00       		.byte	0
 510 000e 6F       		.byte	111
 511 000f 00       		.byte	0
 512 0010 65       		.byte	101
 513 0011 00       		.byte	0
 514 0012 6C       		.byte	108
 515 0013 00       		.byte	0
 516 0014 65       		.byte	101
 517 0015 00       		.byte	0
 518 0016 63       		.byte	99
 519 0017 00       		.byte	0
 520 0018 74       		.byte	116
 521 0019 00       		.byte	0
 522 001a 72       		.byte	114
 523 001b 00       		.byte	0
 524 001c 6F       		.byte	111
 525 001d 00       		.byte	0
 526 001e 6E       		.byte	110
 527 001f 00       		.byte	0
 528 0020 69       		.byte	105
 529 0021 00       		.byte	0
 530 0022 63       		.byte	99
 531 0023 00       		.byte	0
 532 0024 73       		.byte	115
 533 0025 00       		.byte	0
 534              		.section	.rodata.vcom_string2,"a",%progbits
 535              		.align	2
 536              		.type	vcom_string2, %object
 537              		.size	vcom_string2, 56
 538              	vcom_string2:
 539 0000 38       		.byte	56
 540 0001 03       		.byte	3
 541 0002 43       		.byte	67
 542 0003 00       		.byte	0
 543 0004 68       		.byte	104
 544 0005 00       		.byte	0
 545 0006 69       		.byte	105
 546 0007 00       		.byte	0
 547 0008 62       		.byte	98
 548 0009 00       		.byte	0
 549 000a 69       		.byte	105
 550 000b 00       		.byte	0
 551 000c 4F       		.byte	79
 552 000d 00       		.byte	0
 553 000e 53       		.byte	83
 554 000f 00       		.byte	0
ARM GAS  /tmp/ccXBpS8K.s 			page 11


 555 0010 2F       		.byte	47
 556 0011 00       		.byte	0
 557 0012 52       		.byte	82
 558 0013 00       		.byte	0
 559 0014 54       		.byte	84
 560 0015 00       		.byte	0
 561 0016 20       		.byte	32
 562 0017 00       		.byte	0
 563 0018 56       		.byte	86
 564 0019 00       		.byte	0
 565 001a 69       		.byte	105
 566 001b 00       		.byte	0
 567 001c 72       		.byte	114
 568 001d 00       		.byte	0
 569 001e 74       		.byte	116
 570 001f 00       		.byte	0
 571 0020 75       		.byte	117
 572 0021 00       		.byte	0
 573 0022 61       		.byte	97
 574 0023 00       		.byte	0
 575 0024 6C       		.byte	108
 576 0025 00       		.byte	0
 577 0026 20       		.byte	32
 578 0027 00       		.byte	0
 579 0028 43       		.byte	67
 580 0029 00       		.byte	0
 581 002a 4F       		.byte	79
 582 002b 00       		.byte	0
 583 002c 4D       		.byte	77
 584 002d 00       		.byte	0
 585 002e 20       		.byte	32
 586 002f 00       		.byte	0
 587 0030 50       		.byte	80
 588 0031 00       		.byte	0
 589 0032 6F       		.byte	111
 590 0033 00       		.byte	0
 591 0034 72       		.byte	114
 592 0035 00       		.byte	0
 593 0036 74       		.byte	116
 594 0037 00       		.byte	0
 595              		.section	.rodata.vcom_string3,"a",%progbits
 596              		.align	2
 597              		.type	vcom_string3, %object
 598              		.size	vcom_string3, 8
 599              	vcom_string3:
 600 0000 08       		.byte	8
 601 0001 03       		.byte	3
 602 0002 33       		.byte	51
 603 0003 00       		.byte	0
 604 0004 30       		.byte	48
 605 0005 00       		.byte	0
 606 0006 31       		.byte	49
 607 0007 00       		.byte	0
 608              		.section	.rodata.vcom_strings,"a",%progbits
 609              		.align	2
 610              		.set	.LANCHOR2,. + 0
 611              		.type	vcom_strings, %object
ARM GAS  /tmp/ccXBpS8K.s 			page 12


 612              		.size	vcom_strings, 32
 613              	vcom_strings:
 614 0000 04000000 		.word	4
 615 0004 00000000 		.word	vcom_string0
 616 0008 26000000 		.word	38
 617 000c 00000000 		.word	vcom_string1
 618 0010 38000000 		.word	56
 619 0014 00000000 		.word	vcom_string2
 620 0018 08000000 		.word	8
 621 001c 00000000 		.word	vcom_string3
 622              		.text
 623              	.Letext0:
 624              		.file 3 "/usr/lib/gcc/arm-none-eabi/7.3.1/include/stddef.h"
 625              		.file 4 "/usr/arm-none-eabi/include/machine/_default_types.h"
 626              		.file 5 "/usr/arm-none-eabi/include/sys/_stdint.h"
 627              		.file 6 "ChibiOS_3.0.2/os/rt/ports/ARMCMx/compilers/GCC/chtypes.h"
 628              		.file 7 "ChibiOS_3.0.2/os/rt/include/chsystypes.h"
 629              		.file 8 "ChibiOS_3.0.2/os/rt/include/chschd.h"
 630              		.file 9 "ChibiOS_3.0.2/os/ext/CMSIS/include/core_cm4.h"
 631              		.file 10 "ChibiOS_3.0.2/os/ext/CMSIS/ST/system_stm32f4xx.h"
 632              		.file 11 "ChibiOS_3.0.2/os/ext/CMSIS/ST/stm32f407xx.h"
 633              		.file 12 "ChibiOS_3.0.2/os/rt/ports/ARMCMx/chcore.h"
 634              		.file 13 "ChibiOS_3.0.2/os/rt/ports/ARMCMx/chcore_v7m.h"
 635              		.file 14 "ChibiOS_3.0.2/os/rt/include/chtm.h"
 636              		.file 15 "ChibiOS_3.0.2/os/rt/include/chsem.h"
 637              		.file 16 "ChibiOS_3.0.2/os/rt/include/chmtx.h"
 638              		.file 17 "ChibiOS_3.0.2/os/rt/include/chregistry.h"
 639              		.file 18 "ChibiOS_3.0.2/os/rt/include/chevents.h"
 640              		.file 19 "ChibiOS_3.0.2/os/rt/include/chqueues.h"
 641              		.file 20 "./conf_general.h"
 642              		.file 21 "ChibiOS_3.0.2/os/hal/ports/STM32/STM32F4xx/stm32_dma.h"
 643              		.file 22 "ChibiOS_3.0.2/os/hal/ports/STM32/LLD/GPIOv2/pal_lld.h"
 644              		.file 23 "ChibiOS_3.0.2/os/hal/include/can.h"
 645              		.file 24 "ChibiOS_3.0.2/os/hal/ports/STM32/LLD/can_lld.h"
 646              		.file 25 "ChibiOS_3.0.2/os/hal/include/i2c.h"
 647              		.file 26 "ChibiOS_3.0.2/os/hal/ports/STM32/LLD/I2Cv1/i2c_lld.h"
 648              		.file 27 "ChibiOS_3.0.2/os/hal/include/icu.h"
 649              		.file 28 "ChibiOS_3.0.2/os/hal/ports/STM32/LLD/TIMv1/icu_lld.h"
 650              		.file 29 "ChibiOS_3.0.2/os/hal/ports/STM32/LLD/TIMv1/stm32_tim.h"
 651              		.file 30 "ChibiOS_3.0.2/os/hal/include/serial.h"
 652              		.file 31 "ChibiOS_3.0.2/os/hal/ports/STM32/LLD/USARTv1/serial_lld.h"
 653              		.file 32 "ChibiOS_3.0.2/os/hal/include/spi.h"
 654              		.file 33 "ChibiOS_3.0.2/os/hal/ports/STM32/LLD/SPIv1/spi_lld.h"
 655              		.file 34 "ChibiOS_3.0.2/os/hal/include/usb.h"
 656              		.file 35 "ChibiOS_3.0.2/os/hal/ports/STM32/LLD/OTGv1/usb_lld.h"
 657              		.file 36 "ChibiOS_3.0.2/os/hal/ports/STM32/LLD/OTGv1/stm32_otg.h"
 658              		.file 37 "ChibiOS_3.0.2/os/hal/include/serial_usb.h"
 659              		.file 38 "ChibiOS_3.0.2/os/rt/include/chsys.h"
 660              		.file 39 "ChibiOS_3.0.2/os/rt/include/chthreads.h"