 speedgoat_IO316_CI_01547_slrt

 Timestamp is 5a295982 (Thu Dec 07 16:08:50 2017)

 Preferred load address is 10000000

 Start         Length     Name                   Class
 0001:00000000 00044e77H .text$mn                CODE
 0002:00000000 00000104H .CRT$XCA                DATA
 0002:00000104 00000104H .CRT$XCZ                DATA
 0002:00000208 00000104H .CRT$XIA                DATA
 0002:0000030c 00000113H .CRT$XIC                DATA
 0002:00000420 00000104H .CRT$XIZ                DATA
 0002:00000524 00000104H .CRT$XPA                DATA
 0002:00000628 00000109H .CRT$XPX                DATA
 0002:00000734 00000104H .CRT$XPXA               DATA
 0002:00000838 00000104H .CRT$XPZ                DATA
 0002:0000093c 00000104H .CRT$XTA                DATA
 0002:00000a40 00000104H .CRT$XTZ                DATA
 0002:00000b50 0000dc9dH .rdata                  DATA
 0002:0000e7f0 000001d8H .rdata$debug            DATA
 0002:0000e9d0 0000010eH .rdata$sxdata           DATA
 0002:0000eae0 00000104H .rtc$IAA                DATA
 0002:0000ebe4 00000104H .rtc$IZZ                DATA
 0002:0000ece8 00000104H .rtc$TAA                DATA
 0002:0000edec 00000104H .rtc$TZZ                DATA
 0002:0000eef0 00000991H .xdata$x                DATA
 0002:0000f890 000001f4H .edata                  DATA
 0003:00000000 00d9b6fcH .data                   DATA
 0003:00d9b700 000163a4H .bss                    DATA
 0004:00000000 000001b0H .idata$5                DATA
 0004:000001b0 00000014H .idata$2                DATA
 0004:000001c4 00000014H .idata$3                DATA
 0004:000001d8 000001b0H .idata$4                DATA
 0004:00000388 0000076bH .idata$6                DATA

  Address         Publics by Value              Rva+Base       Lib:Object

 0000:00000000       ___guard_fids_table        00000000     <absolute>
 0000:00000000       ___guard_flags             00000000     <absolute>
 0000:00000000       __except_list              00000000     <absolute>
 0000:00000000       ___guard_fids_count        00000000     <absolute>
 0000:00000003       ___safe_se_handler_count   00000003     <absolute>
 0000:00000000       ___ImageBase               10000000     <linker-defined>
 0001:000004e0       _MdlInitialize             100014e0 f   speedgoat_IO316_CI_01547.obj
 0001:000004f0       _MdlInitializeSampleTimes  100014f0 f   speedgoat_IO316_CI_01547.obj
 0001:00000500       _MdlInitializeSizes        10001500 f   speedgoat_IO316_CI_01547.obj
 0001:00000510       _MdlOutputs                10001510 f   speedgoat_IO316_CI_01547.obj
 0001:00000520       _MdlStart                  10001520 f   speedgoat_IO316_CI_01547.obj
 0001:00000530       _MdlTerminate              10001530 f   speedgoat_IO316_CI_01547.obj
 0001:00000540       _MdlUpdate                 10001540 f   speedgoat_IO316_CI_01547.obj
 0001:00000550       _speedgoat_IO316_CI_01547  10001550 f   speedgoat_IO316_CI_01547.obj
 0001:00003530       _rt_mxCreateCharMatrixFromStrings 10004530 f   rt_matrx.obj
 0001:00003680       _rt_mxCreateDoubleMatrix   10004680 f   rt_matrx.obj
 0001:000036e0       _rt_mxCreateNumericArray   100046e0 f   rt_matrx.obj
 0001:00003760       _rt_mxCreateString         10004760 f   rt_matrx.obj
 0001:000037f0       _rt_mxDuplicateArray       100047f0 f   rt_matrx.obj
 0001:00003850       _rt_mxGetDimensions        10004850 f   rt_matrx.obj
 0001:00003890       _rt_mxGetEps               10004890 f   rt_matrx.obj
 0001:000038a0       _rt_mxGetString            100048a0 f   rt_matrx.obj
 0001:00003920       _rtPrintfNoOp              10004920 f   rt_printf.obj
 0001:00003930       _rtGetInf                  10004930 f   rtGetInf.obj
 0001:00003960       _rtGetInfF                 10004960 f   rtGetInf.obj
 0001:00003980       _rtGetMinusInf             10004980 f   rtGetInf.obj
 0001:000039b0       _rtGetMinusInfF            100049b0 f   rtGetInf.obj
 0001:000039d0       _rtGetNaN                  100049d0 f   rtGetNaN.obj
 0001:00003a00       _rtGetNaNF                 10004a00 f   rtGetNaN.obj
 0001:00003a20       _rtIsInf                   10004a20 f   rt_nonfinite.obj
 0001:00003a60       _rtIsInfF                  10004a60 f   rt_nonfinite.obj
 0001:00003aa0       _rtIsNaN                   10004aa0 f   rt_nonfinite.obj
 0001:00003ac0       _rtIsNaNF                  10004ac0 f   rt_nonfinite.obj
 0001:00003ae0       _rt_InitInfAndNaN          10004ae0 f   rt_nonfinite.obj
 0001:00003b40       _speedgoat_IO316_CI_01547_GetCAPIStaticMap 10004b40 f   speedgoat_IO316_CI_01547_capi.obj
 0001:00003b50       _speedgoat_IO316_CI_01547_InitializeDataMapInfo 10004b50 f   speedgoat_IO316_CI_01547_capi.obj
 0001:00003be0       _rt_CleanUpForStateLogWithMMI 10004be0 f   rt_logging_mmi.obj
 0001:00003cf0       _rt_FillStateSigInfoFromMMI 10004cf0 f   rt_logging_mmi.obj
 0001:000040a0       _rtwCAPI_CountSysRan       100050a0 f   rtw_modelmap_utils.obj
 0001:00004140       _rtwCAPI_EncodePath        10005140 f   rtw_modelmap_utils.obj
 0001:00004230       _rtwCAPI_FillSysRan        10005230 f   rtw_modelmap_utils.obj
 0001:00004320       _rtwCAPI_FreeFullPaths     10005320 f   rtw_modelmap_utils.obj
 0001:000043b0       _rtwCAPI_GetFullStateBlockPath 100053b0 f   rtw_modelmap_utils.obj
 0001:00004560       _rtwCAPI_GetNumContStateRecords 10005560 f   rtw_modelmap_utils.obj
 0001:00004620       _rtwCAPI_GetNumSigLogRecords 10005620 f   rtw_modelmap_utils.obj
 0001:00004670       _rtwCAPI_GetNumSigLogRecordsForRTWLogging 10005670 f   rtw_modelmap_utils.obj
 0001:00004700       _rtwCAPI_GetNumStateRecords 10005700 f   rtw_modelmap_utils.obj
 0001:00004750       _rtwCAPI_GetNumStateRecordsForRTWLogging 10005750 f   rtw_modelmap_utils.obj
 0001:000047e0       _rtwCAPI_GetSigAddrFromMap 100057e0 f   rtw_modelmap_utils.obj
 0001:000048a0       _rtwCAPI_GetSigLogRecordInfo 100058a0 f   rtw_modelmap_utils.obj
 0001:00004cd0       _rtwCAPI_GetStateRecordInfo 10005cd0 f   rtw_modelmap_utils.obj
 0001:00005180       _rtwCAPI_GetStateWidth     10006180 f   rtw_modelmap_utils.obj
 0001:000051e0       _rtwCAPI_HasStates         100061e0 f   rtw_modelmap_utils.obj
 0001:00005250       _rtwCAPI_UpdateFullPaths   10006250 f   rtw_modelmap_utils.obj
 0001:00005d40       _rt_CreateLogVar           10006d40 f   rt_logging.obj
 0001:00005dd0       _rt_CreateLogVarWithConvert 10006dd0 f   rt_logging.obj
 0001:00006750       _rt_CreateStructLogVar     10007750 f   rt_logging.obj
 0001:000074c0       _rt_GetMxIdFromDTypeId     100084c0 f   rt_logging.obj
 0001:000074f0       _rt_GetMxIdFromDTypeIdForRSim 100084f0 f   rt_logging.obj
 0001:00009e30       _rt_StartDataLogging       1000ae30 f   rt_logging.obj
 0001:0000a2f0       _rt_StartDataLoggingWithStartTime 1000b2f0 f   rt_logging.obj
 0001:0000ac50       _rt_StopDataLogging        1000bc50 f   rt_logging.obj
 0001:0000ac70       _rt_StopDataLoggingImpl    1000bc70 f   rt_logging.obj
 0001:0000af90       _rt_UpdateLogVar           1000bf90 f   rt_logging.obj
 0001:0000c350       _rt_UpdateStructLogVar     1000d350 f   rt_logging.obj
 0001:0000c3e0       _rt_UpdateTXXFYLogVars     1000d3e0 f   rt_logging.obj
 0001:0000c720       _rt_UpdateTXYLogVars       1000d720 f   rt_logging.obj
 0001:0000c970       _sg_fpga_IO3xxGetModuleId  1000d970 f   sg_fpga_io3xx_util.obj
 0001:0000d020       _DllMain@12                1000e020 f   xpctarget.obj
 0001:0000d030       _SLRTSetErrorStatus        1000e030 f   xpctarget.obj
 0001:0000d050       _changeStepSize            1000e050 f   xpctarget.obj
 0001:0000d0a0       _getDLMVersion             1000e0a0 f   xpctarget.obj
 0001:0000d0b0       _getRefMdlPath             1000e0b0 f   xpctarget.obj
 0001:0000d130       _getRefMdlSignalNumber     1000e130 f   xpctarget.obj
 0001:0000d1e0       _getrlmdlinfo              1000e1e0 f   xpctarget.obj
 0001:0000d3c0       _speedgoat_IO316_CI_01547_ChangeStepSize 1000e3c0 f   xpctarget.obj
 0001:0000d410       _updateDiscreteEvents      1000e410 f   xpctarget.obj
 0001:0000d420       _getNumRef                 1000e420 f   appmappingData.obj
 0001:0000daf0       _sg_fpga_di_sf_a2          1000eaf0 f   sg_fpga_di_sf_a2.obj
 0001:0000e460       _sg_fpga_do_sf_a2          1000f460 f   sg_fpga_do_sf_a2.obj
 0001:0000e8d0       _sg_fpga_setup_sf_3        1000f8d0 f   sg_fpga_setup_sf_3.obj
 0001:0000e920       _z070ae92654               1000f920 f   sg_fpga_setup_sf_3.obj
 0001:0000eb20       _z0b57aa50e1               1000fb20 f   sg_fpga_setup_sf_3.obj
 0001:0000eff0       _z10dff60fae               1000fff0 f   sg_fpga_setup_sf_3.obj
 0001:0000f470       _z13c010fc93               10010470 f   sg_fpga_setup_sf_3.obj
 0001:0000f560       _z2127420848               10010560 f   sg_fpga_setup_sf_3.obj
 0001:0000fac0       _z2903c72e11               10010ac0 f   sg_fpga_setup_sf_3.obj
 0001:0000fbe0       _z2afd378cd7               10010be0 f   sg_fpga_setup_sf_3.obj
 0001:00010610       _z32392d7a44               10011610 f   sg_fpga_setup_sf_3.obj
 0001:00010660       _z33ddbe722a               10011660 f   sg_fpga_setup_sf_3.obj
 0001:00010980       _z3483200c6b               10011980 f   sg_fpga_setup_sf_3.obj
 0001:00010ac0       _z3c5e6500be               10011ac0 f   sg_fpga_setup_sf_3.obj
 0001:00010bf0       _z400d9d3de3               10011bf0 f   sg_fpga_setup_sf_3.obj
 0001:00010d00       _z484653a0f1               10011d00 f   sg_fpga_setup_sf_3.obj
 0001:00010e90       _z5065316727               10011e90 f   sg_fpga_setup_sf_3.obj
 0001:000110a0       _z602d1d6328               100120a0 f   sg_fpga_setup_sf_3.obj
 0001:000112f0       _z60a644eb80               100122f0 f   sg_fpga_setup_sf_3.obj
 0001:00011380       _z66a55bb7a6               10012380 f   sg_fpga_setup_sf_3.obj
 0001:000116f0       _z82b5f8ddea               100126f0 f   sg_fpga_setup_sf_3.obj
 0001:00011840       _z85dc0630c4               10012840 f   sg_fpga_setup_sf_3.obj
 0001:00011be0       _z8f6246335c               10012be0 f   sg_fpga_setup_sf_3.obj
 0001:00011ca0       _z8f7f21a9ef               10012ca0 f   sg_fpga_setup_sf_3.obj
 0001:00011df0       _z950e08fd5e               10012df0 f   sg_fpga_setup_sf_3.obj
 0001:00011f30       _za302a29b4b               10012f30 f   sg_fpga_setup_sf_3.obj
 0001:00012080       _za518f13bf4               10013080 f   sg_fpga_setup_sf_3.obj
 0001:000121f0       _zad1156101c               100131f0 f   sg_fpga_setup_sf_3.obj
 0001:000126d0       _zb0671b5b1f               100136d0 f   sg_fpga_setup_sf_3.obj
 0001:00012720       _zb16b3bc77f               10013720 f   sg_fpga_setup_sf_3.obj
 0001:00012910       _zbb9e9b554c               10013910 f   sg_fpga_setup_sf_3.obj
 0001:00012b90       _zbd43af33cd               10013b90 f   sg_fpga_setup_sf_3.obj
 0001:00012ef0       _zbd86078d47               10013ef0 f   sg_fpga_setup_sf_3.obj
 0001:00012fc0       _zc06d52d14f               10013fc0 f   sg_fpga_setup_sf_3.obj
 0001:00013120       _zc934d75827               10014120 f   sg_fpga_setup_sf_3.obj
 0001:000134e0       _zcac85afeba               100144e0 f   sg_fpga_setup_sf_3.obj
 0001:00013800       _zcc4ca80ab6               10014800 f   sg_fpga_setup_sf_3.obj
 0001:00013a40       _zd460749fdc               10014a40 f   sg_fpga_setup_sf_3.obj
 0001:00013be0       _zdf223dd217               10014be0 f   sg_fpga_setup_sf_3.obj
 0001:00013d40       _zdf9b030801               10014d40 f   sg_fpga_setup_sf_3.obj
 0001:00013ed0       _ze5de0e8794               10014ed0 f   sg_fpga_setup_sf_3.obj
 0001:00014010       _zec95e0d1ee               10015010 f   sg_fpga_setup_sf_3.obj
 0001:00014130       _zf32562f9c4               10015130 f   sg_fpga_setup_sf_3.obj
 0001:00014150       _zf364bde6b4               10015150 f   sg_fpga_setup_sf_3.obj
 0001:00014190       _zf69355bf64               10015190 f   sg_fpga_setup_sf_3.obj
 0001:000141f0       _zf9e44dd9ae               100151f0 f   sg_fpga_setup_sf_3.obj
 0001:00014430       _zfb2ef5d44e               10015430 f   sg_fpga_setup_sf_3.obj
 0001:000145a0       _zffd367e2a3               100155a0 f   sg_fpga_setup_sf_3.obj
 0001:000155e0       _sg_fpga_spi_sf_1          100165e0 f   sg_fpga_spi_sf_1.obj
 0001:00015630       _z068d5ded6b               10016630 f   sg_fpga_spi_sf_1.obj
 0001:00015730       _zf42bec4a5a               10016730 f   sg_fpga_spi_sf_1.obj
 0001:000158b0       _GetPCIDeviceFull          100168b0 f   xpcruntime:xpcimports.obj
 0001:000158e0       _ShowPCIDevice             100168e0 f   xpcruntime:xpcimports.obj
 0001:00015f50       _xpcGetPciConfigAtSlot     10016f50 f   xpcruntime:xpcimports.obj
 0001:000161d0       _xpcInitProcs              100171d0 f   xpcruntime:xpcimports.obj
 0001:00017150       _xpceuploadevent           10018150 f   xpcruntime:xpcimports.obj
 0001:00017160       _restoreInterrupts         10018160 f   xpcruntime:xpcPCFunctions.obj
 0001:00017170       _rl32eGetTicksDouble       10018170 f   xpcruntime:xpcPCFunctions.obj
 0001:000171e0       _saveAndDisableInterrupts  100181e0 f   xpcruntime:xpcPCFunctions.obj
 0001:00017200       _xPCSubtractTime           10018200 f   xpcruntime:xpcPCFunctions.obj
 0001:00017220       _xpcSubtractTime           10018220 f   xpcruntime:xpcPCFunctions.obj
 0001:000172c8       __heap_alloc               100182c8 f i LIBCMT:malloc.obj
 0001:00017305       _malloc                    10018305 f   LIBCMT:malloc.obj
 0001:00017397       __get_printf_count_output  10018397 f   LIBCMT:printf.obj
 0001:000173ac       __printf_l                 100183ac f   LIBCMT:printf.obj
 0001:000173c3       __printf_p                 100183c3 f   LIBCMT:printf.obj
 0001:000173d9       __printf_p_l               100183d9 f   LIBCMT:printf.obj
 0001:000173f0       __printf_s_l               100183f0 f   LIBCMT:printf.obj
 0001:00017407       __set_printf_count_output  10018407 f   LIBCMT:printf.obj
 0001:0001742f       _printf                    1001842f f   LIBCMT:printf.obj
 0001:000174de       _printf_s                  100184de f   LIBCMT:printf.obj
 0001:00017500       _fmod                      10018500 f   LIBCMT:87fmod.obj
 0001:0001750a       __CIfmod                   1001850a f   LIBCMT:87fmod.obj
 0001:00017530       __ftoui3                   10018530 f   LIBCMT:ftol3.obj
 0001:0001753f       __ftoul3                   1001853f f   LIBCMT:ftol3.obj
 0001:0001754e       __ftol3                    1001854e f   LIBCMT:ftol3.obj
 0001:0001755b       __ftol3_NaN                1001855b f   LIBCMT:ftol3.obj
 0001:00017573       __ftol3_work               10018573 f   LIBCMT:ftol3.obj
 0001:000175f9       __ftol3_common             100185f9 f   LIBCMT:ftol3.obj
 0001:000176bb       __ftol3_arg_error          100186bb f   LIBCMT:ftol3.obj
 0001:000176cd       __ftol3_except             100186cd f   LIBCMT:ftol3.obj
 0001:0001770f       __dtoui3                   1001870f f   LIBCMT:ftol3.obj
 0001:0001771e       __dtoul3                   1001871e f   LIBCMT:ftol3.obj
 0001:0001772d       __dtol3                    1001872d f   LIBCMT:ftol3.obj
 0001:0001773a       __dtol3_NaN                1001873a f   LIBCMT:ftol3.obj
 0001:00017757       __dtol3_work               10018757 f   LIBCMT:ftol3.obj
 0001:0001783c       __ultod3                   1001883c f   LIBCMT:ftol3.obj
 0001:000178cd       __ltod3                    100188cd f   LIBCMT:ftol3.obj
 0001:00017900       _memset                    10018900 f   LIBCMT:memset.obj
 0001:00017990       __fpmath                   10018990 f   LIBCMT:fpinit.obj
 0001:000179a7       ___setfflag                100189a7 f   LIBCMT:fpinit.obj
 0001:000179ba       __cfltcvt_init             100189ba f   LIBCMT:fpinit.obj
 0001:00017a1a       _calloc                    10018a1a f   LIBCMT:calloc.obj
 0001:00017a60       _memcpy                    10018a60 f   LIBCMT:memcpy.obj
 0001:000180a4       _free                      100190a4 f   LIBCMT:free.obj
 0001:000180dc       __invoke_watson_if_error   100190dc f i LIBCMT:wassert.obj
 0001:000180fc       __wassert                  100190fc f   LIBCMT:wassert.obj
 0001:000187a0       ___raise_securityfailure   100197a0 f   LIBCMT:gs_report.obj
 0001:000187dd       ___report_gsfailure        100197dd f   LIBCMT:gs_report.obj
 0001:000188d8       ___report_rangecheckfailure 100198d8 f   LIBCMT:gs_report.obj
 0001:000188e4       ___report_securityfailure  100198e4 f   LIBCMT:gs_report.obj
 0001:000189b4       ___report_securityfailureEx 100199b4 f   LIBCMT:gs_report.obj
 0001:00018aca       ___copy_path_to_wide_string 10019aca f   LIBCMT:crt0dat.obj
 0001:00018b7c       ___copy_to_char            10019b7c f   LIBCMT:crt0dat.obj
 0001:00018c31       ___crtCorExitProcess       10019c31 f   LIBCMT:crt0dat.obj
 0001:00018c65       ___crtExitProcess          10019c65 f   LIBCMT:crt0dat.obj
 0001:00018c7b       ___freeCrtMemory           10019c7b f   LIBCMT:crt0dat.obj
 0001:00018d88       __amsg_exit                10019d88 f   LIBCMT:crt0dat.obj
 0001:00018da4       __c_exit                   10019da4 f   LIBCMT:crt0dat.obj
 0001:00018db3       __cexit                    10019db3 f   LIBCMT:crt0dat.obj
 0001:00018dc2       __cinit                    10019dc2 f   LIBCMT:crt0dat.obj
 0001:00018e46       __exit                     10019e46 f   LIBCMT:crt0dat.obj
 0001:00018e5a       __exit_app                 10019e5a f   LIBCMT:crt0dat.obj
 0001:00018e68       __get_pgmptr               10019e68 f   LIBCMT:crt0dat.obj
 0001:00018e97       __get_wpgmptr              10019e97 f   LIBCMT:crt0dat.obj
 0001:00018ec6       __init_pointers            10019ec6 f   LIBCMT:crt0dat.obj
 0001:00018f34       __initterm_e               10019f34 f   LIBCMT:crt0dat.obj
 0001:00018f56       __lockexit                 10019f56 f   LIBCMT:crt0dat.obj
 0001:00018f5f       __unlockexit               10019f5f f   LIBCMT:crt0dat.obj
 0001:00019097       _exit                      1001a097 f   LIBCMT:crt0dat.obj
 0001:000190ab       _realloc                   1001a0ab f   LIBCMT:realloc.obj
 0001:00019160       _memmove                   1001a160 f   LIBCMT:memmove.obj
 0001:000197b0       _strchr                    1001a7b0 f   LIBCMT:strchr.obj
 0001:0001981e       ___from_strstr_to_strchr   1001a81e     LIBCMT:strchr.obj
 0001:000198e0       _strncat                   1001a8e0 f   LIBCMT:strncat.obj
 0001:00019a20       _strncpy                   1001aa20 f   LIBCMT:strncpy.obj
 0001:00019b44       ___initstdio               1001ab44 f   LIBCMT:_file.obj
 0001:00019bb7       ___endstdio                1001abb7 f   LIBCMT:_file.obj
 0001:00019bde       ___iob_func                1001abde f   LIBCMT:_file.obj
 0001:00019be4       __lock_file                1001abe4 f   LIBCMT:_file.obj
 0001:00019c23       __lock_file2               1001ac23 f   LIBCMT:_file.obj
 0001:00019c53       __unlock_file              1001ac53 f   LIBCMT:_file.obj
 0001:00019c8d       __unlock_file2             1001ac8d f   LIBCMT:_file.obj
 0001:00019cba       __fclose_nolock            1001acba f   LIBCMT:fclose.obj
 0001:00019d26       _fclose                    1001ad26 f   LIBCMT:fclose.obj
 0001:00019d9d       __fsopen                   1001ad9d f   LIBCMT:fopen.obj
 0001:00019e61       _fopen                     1001ae61 f   LIBCMT:fopen.obj
 0001:00019e76       _fopen_s                   1001ae76 f   LIBCMT:fopen.obj
 0001:00019ebb       __fprintf_l                1001aebb f   LIBCMT:fprintf.obj
 0001:00019ed5       __fprintf_p                1001aed5 f   LIBCMT:fprintf.obj
 0001:00019eee       __fprintf_p_l              1001aeee f   LIBCMT:fprintf.obj
 0001:00019f08       __fprintf_s_l              1001af08 f   LIBCMT:fprintf.obj
 0001:00019f22       _fprintf                   1001af22 f   LIBCMT:fprintf.obj
 0001:0001a034       _fprintf_s                 1001b034 f   LIBCMT:fprintf.obj
 0001:0001a04d       __fread_nolock             1001b04d f   LIBCMT:fread.obj
 0001:0001a068       __fread_nolock_s           1001b068 f   LIBCMT:fread.obj
 0001:0001a22d       _fread                     1001b22d f   LIBCMT:fread.obj
 0001:0001a248       _fread_s                   1001b248 f   LIBCMT:fread.obj
 0001:0001a2d9       __fwrite_nolock            1001b2d9 f   LIBCMT:fwrite.obj
 0001:0001a432       _fwrite                    1001b432 f   LIBCMT:fwrite.obj
 0001:0001a4b4       __unlink                   1001b4b4 f   LIBCMT:unlink.obj
 0001:0001a4bd       _remove                    1001b4bd f   LIBCMT:unlink.obj
 0001:0001a4ff       _rewind                    1001b4ff f   LIBCMT:rewind.obj
 0001:0001a5be       __scprintf                 1001b5be f   LIBCMT:sprintf.obj
 0001:0001a5d1       __scprintf_l               1001b5d1 f   LIBCMT:sprintf.obj
 0001:0001a5e8       __scprintf_p               1001b5e8 f   LIBCMT:sprintf.obj
 0001:0001a5fb       __scprintf_p_l             1001b5fb f   LIBCMT:sprintf.obj
 0001:0001a612       __snprintf_s               1001b612 f   LIBCMT:sprintf.obj
 0001:0001a631       __snprintf_s_l             1001b631 f   LIBCMT:sprintf.obj
 0001:0001a651       __sprintf_l                1001b651 f   LIBCMT:sprintf.obj
 0001:0001a66b       __sprintf_p                1001b66b f   LIBCMT:sprintf.obj
 0001:0001a687       __sprintf_p_l              1001b687 f   LIBCMT:sprintf.obj
 0001:0001a6a4       __sprintf_s_l              1001b6a4 f   LIBCMT:sprintf.obj
 0001:0001a6c1       _sprintf                   1001b6c1 f   LIBCMT:sprintf.obj
 0001:0001a745       _sprintf_s                 1001b745 f   LIBCMT:sprintf.obj
 0001:0001a761       _ldexp                     1001b761 f   LIBCMT:ldexp.obj
 0001:0001a94d       @__security_check_cookie@4 1001b94d f   LIBCMT:secchk.obj
 0001:0001a95c       ___isa_available_init      1001b95c f   LIBCMT:cpu_disp.obj
 0001:0001aae0       __alldiv                   1001bae0 f   LIBCMT:lldiv.obj
 0001:0001ab90       __allrem                   1001bb90 f   LIBCMT:llrem.obj
 0001:0001ac42       __CRT_INIT@12              1001bc42 f   LIBCMT:dllcrt0.obj
 0001:0001adb4       __DllMainCRTStartup@12     1001bdb4 f   LIBCMT:dllcrt0.obj
 0001:0001aee5       ___DllXcptFilter           1001bee5 f   LIBCMT:dllcrt0.obj
 0001:0001af0a       ?_query_new_handler@@YAP6AHI@ZXZ 1001bf0a f   LIBCMT:handler.obj
 0001:0001af17       ?_set_new_handler@@YAP6AHI@ZH@Z 1001bf17 f   LIBCMT:handler.obj
 0001:0001af20       ?_set_new_handler@@YAP6AHI@ZP6AHI@Z@Z 1001bf20 f   LIBCMT:handler.obj
 0001:0001af55       __callnewh                 1001bf55 f   LIBCMT:handler.obj
 0001:0001af7b       __initp_heap_handler       1001bf7b f   LIBCMT:handler.obj
 0001:0001af88       __FF_MSGBANNER             1001bf88 f   LIBCMT:crt0msg.obj
 0001:0001afc1       __GET_RTERRMSG             1001bfc1 f   LIBCMT:crt0msg.obj
 0001:0001afe5       __NMSG_WRITE               1001bfe5 f   LIBCMT:crt0msg.obj
 0001:0001b1a2       ___doserrno                1001c1a2 f   LIBCMT:dosmap.obj
 0001:0001b1b5       __dosmaperr                1001c1b5 f   LIBCMT:dosmap.obj
 0001:0001b1d6       __errno                    1001c1d6 f   LIBCMT:dosmap.obj
 0001:0001b1e9       __get_doserrno             1001c1e9 f   LIBCMT:dosmap.obj
 0001:0001b20c       __get_errno                1001c20c f   LIBCMT:dosmap.obj
 0001:0001b22f       __get_errno_from_oserr     1001c22f f   LIBCMT:dosmap.obj
 0001:0001b270       __set_doserrno             1001c270 f   LIBCMT:dosmap.obj
 0001:0001b28f       __set_errno                1001c28f f   LIBCMT:dosmap.obj
 0001:0001b2ae       __get_heap_handle          1001c2ae f   LIBCMT:heapinit.obj
 0001:0001b2b4       __heap_init                1001c2b4 f   LIBCMT:heapinit.obj
 0001:0001b2c9       __heap_term                1001c2c9 f   LIBCMT:heapinit.obj
 0001:0001b2d1       ?_invalid_parameter@@YAXPBG00II@Z 1001c2d1 f   LIBCMT:invarg.obj
 0001:0001b2d6       ?_invoke_watson@@YAXPBG00II@Z 1001c2d6 f   LIBCMT:invarg.obj
 0001:0001b2ee       __call_reportfault         1001c2ee f   LIBCMT:invarg.obj
 0001:0001b413       __get_invalid_parameter_handler 1001c413 f   LIBCMT:invarg.obj
 0001:0001b420       __initp_misc_invarg        1001c420 f   LIBCMT:invarg.obj
 0001:0001b42d       __invalid_parameter        1001c42d f   LIBCMT:invarg.obj
 0001:0001b458       __invalid_parameter_noinfo 1001c458 f   LIBCMT:invarg.obj
 0001:0001b468       __invalid_parameter_noinfo_noreturn 1001c468 f   LIBCMT:invarg.obj
 0001:0001b483       __invoke_watson            1001c483 f   LIBCMT:invarg.obj
 0001:0001b4ae       __set_invalid_parameter_handler 1001c4ae f   LIBCMT:invarg.obj
 0001:0001b4d3       __vprintf_l                1001c4d3 f   LIBCMT:vprintf.obj
 0001:0001b4ee       __vprintf_p                1001c4ee f   LIBCMT:vprintf.obj
 0001:0001b508       __vprintf_p_l              1001c508 f   LIBCMT:vprintf.obj
 0001:0001b523       __vprintf_s_l              1001c523 f   LIBCMT:vprintf.obj
 0001:0001b53e       _vprintf                   1001c53e f   LIBCMT:vprintf.obj
 0001:0001b558       _vprintf_helper            1001c558 f   LIBCMT:vprintf.obj
 0001:0001b5e5       _vprintf_s                 1001c5e5 f   LIBCMT:vprintf.obj
 0001:0001b5ff       __ftbuf                    1001c5ff f   LIBCMT:_sftbuf.obj
 0001:0001b630       __stbuf                    1001c630 f   LIBCMT:_sftbuf.obj
 0001:0001b6d6       ??0_LocaleUpdate@@QAE@PAUlocaleinfo_struct@@@Z 1001c6d6 f i LIBCMT:output.obj
 0001:0001b75e       ??1_LocaleUpdate@@QAE@XZ   1001c75e f i LIBCMT:output.obj
 0001:0001b76c       ?GetLocaleT@_LocaleUpdate@@QAEPAUlocaleinfo_struct@@XZ 1001c76c f i LIBCMT:output.obj
 0001:0001b76f       __output_l                 1001c76f f   LIBCMT:output.obj
 0001:0001c2ef       _get_int64_arg             1001d2ef f i LIBCMT:output.obj
 0001:0001c302       _get_int_arg               1001d302 f i LIBCMT:output.obj
 0001:0001c312       _get_short_arg             1001d312 f i LIBCMT:output.obj
 0001:0001c410       __SEH_prolog4              1001d410 f   LIBCMT:sehprolg4.obj
 0001:0001c455       __SEH_epilog4              1001d455 f   LIBCMT:sehprolg4.obj
 0001:0001c4b0       __except_handler4          1001d4b0 f   LIBCMT:chandler4.obj
 0001:0001c650       __cintrindisp2             1001d650 f   LIBCMT:87cdisp.obj
 0001:0001c68e       __cintrindisp1             1001d68e f   LIBCMT:87cdisp.obj
 0001:0001c6cb       __ctrandisp2               1001d6cb f   LIBCMT:87cdisp.obj
 0001:0001c85a       __ctrandisp1               1001d85a f   LIBCMT:87cdisp.obj
 0001:0001c88d       __fload                    1001d88d f   LIBCMT:87cdisp.obj
 0001:0001c8d0       __trandisp1                1001d8d0 f   LIBCMT:87disp.obj
 0001:0001c937       __trandisp2                1001d937 f   LIBCMT:87disp.obj
 0001:0001c9c3       __rttospopde               1001d9c3     LIBCMT:87disp.obj
 0001:0001c9c8       __rttospop                 1001d9c8     LIBCMT:87disp.obj
 0001:0001c9ca       __rtnospop                 1001d9ca     LIBCMT:87disp.obj
 0001:0001c9cc       __rttosnpop                1001d9cc     LIBCMT:87disp.obj
 0001:0001c9cd       __rtnospopde               1001d9cd     LIBCMT:87disp.obj
 0001:0001c9d4       __rtzeropop                1001d9d4     LIBCMT:87disp.obj
 0001:0001c9d6       __rtzeronpop               1001d9d6     LIBCMT:87disp.obj
 0001:0001c9db       __rtonepop                 1001d9db     LIBCMT:87disp.obj
 0001:0001c9dd       __rtonenpop                1001d9dd     LIBCMT:87disp.obj
 0001:0001c9e2       __tosnan1                  1001d9e2     LIBCMT:87disp.obj
 0001:0001ca0d       __nosnan2                  1001da0d     LIBCMT:87disp.obj
 0001:0001ca0f       __tosnan2                  1001da0f     LIBCMT:87disp.obj
 0001:0001ca37       __nan2                     1001da37     LIBCMT:87disp.obj
 0001:0001ca76       __rtindfpop                1001da76     LIBCMT:87disp.obj
 0001:0001ca78       __rtindfnpop               1001da78     LIBCMT:87disp.obj
 0001:0001ca89       __rttosnpopde              1001da89     LIBCMT:87disp.obj
 0001:0001ca93       __rtchsifneg               1001da93     LIBCMT:87disp.obj
 0001:0001ca9a       __errcode                  1001da9a f   LIBCMT:fpexcept.obj
 0001:0001cacc       __except1                  1001dacc f   LIBCMT:fpexcept.obj
 0001:0001cb94       __except2                  1001db94 f   LIBCMT:fpexcept.obj
 0001:0001cc94       __handle_exc               1001dc94 f   LIBCMT:fpexcept.obj
 0001:0001ce72       __handle_qnan1             1001de72 f   LIBCMT:fpexcept.obj
 0001:0001cec2       __handle_qnan2             1001dec2 f   LIBCMT:fpexcept.obj
 0001:0001cf22       __raise_exc                1001df22 f   LIBCMT:fpexcept.obj
 0001:0001cf43       __raise_exc_ex             1001df43 f   LIBCMT:fpexcept.obj
 0001:0001d228       __raise_excf               1001e228 f   LIBCMT:fpexcept.obj
 0001:0001d249       __set_errno_from_matherr   1001e249 f   LIBCMT:fpexcept.obj
 0001:0001d276       __umatherr                 1001e276 f   LIBCMT:fpexcept.obj
 0001:0001d316       __VEC_memset               1001e316 f   LIBCMT:p4_memset.obj
 0001:0001d3de       ?strrchr@@YAPADPADH@Z      1001e3de f i LIBCMT:cvt.obj
 0001:0001d3e7       __cfltcvt                  1001e3e7 f   LIBCMT:cvt.obj
 0001:0001d408       __cfltcvt_l                1001e408 f   LIBCMT:cvt.obj
 0001:0001d48e       __cftoa                    1001e48e f   LIBCMT:cvt.obj
 0001:0001d4ac       __cftoa_l                  1001e4ac f   LIBCMT:cvt.obj
 0001:0001d808       __cftoe                    1001e808 f   LIBCMT:cvt.obj
 0001:0001d977       __cftoe_l                  1001e977 f   LIBCMT:cvt.obj
 0001:0001da45       __cftof                    1001ea45 f   LIBCMT:cvt.obj
 0001:0001db4c       __cftof_l                  1001eb4c f   LIBCMT:cvt.obj
 0001:0001dc0d       __cftog                    1001ec0d f   LIBCMT:cvt.obj
 0001:0001dc2b       __cftog_l                  1001ec2b f   LIBCMT:cvt.obj
 0001:0001dd2a       __cropzeros                1001ed2a f   LIBCMT:cvt.obj
 0001:0001dd3b       __cropzeros_l              1001ed3b f   LIBCMT:cvt.obj
 0001:0001ddbb       __fassign                  1001edbb f   LIBCMT:cvt.obj
 0001:0001ddd3       __fassign_l                1001edd3 f   LIBCMT:cvt.obj
 0001:0001de15       __forcdecpt                1001ee15 f   LIBCMT:cvt.obj
 0001:0001de26       __forcdecpt_l              1001ee26 f   LIBCMT:cvt.obj
 0001:0001de9a       __positive                 1001ee9a f   LIBCMT:cvt.obj
 0001:0001dedc       __setdefaultprecision      1001eedc f   LIBCMT:fp8.obj
 0001:0001df03       __initp_misc_cfltcvt_tab   1001ef03 f   LIBCMT:cmiscdat.obj
 0001:0001df22       __calloc_impl              1001ef22 f   LIBCMT:calloc_impl.obj
 0001:0001df9c       _memcpy_s                  1001ef9c f   LIBCMT:memcpy_s.obj
 0001:0001e01b       _wcscat_s                  1001f01b f   LIBCMT:wcscat_s.obj
 0001:0001e087       _wcscpy_s                  1001f087 f   LIBCMT:wcscpy_s.obj
 0001:0001e0e3       _wcslen                    1001f0e3 f   LIBCMT:wcslen.obj
 0001:0001e0fc       _wcsncat_s                 1001f0fc f   LIBCMT:wcsncat_s.obj
 0001:0001e1ca       __set_abort_behavior       1001f1ca f   LIBCMT:abort.obj
 0001:0001e1e9       _abort                     1001f1e9 f   LIBCMT:abort.obj
 0001:0001e22c       ___set_app_type            1001f22c f   LIBCMT:errmode.obj
 0001:0001e239       __set_error_mode           1001f239 f   LIBCMT:errmode.obj
 0001:0001e395       __i64tow_s                 1001f395 f   LIBCMT:xtows.obj
 0001:0001e3c6       __itow_s                   1001f3c6 f   LIBCMT:xtows.obj
 0001:0001e3ef       __ltow_s                   1001f3ef f   LIBCMT:xtows.obj
 0001:0001e419       __ui64tow_s                1001f419 f   LIBCMT:xtows.obj
 0001:0001e434       __ultow_s                  1001f434 f   LIBCMT:xtows.obj
 0001:0001e53f       __fflush_nolock            1001f53f f   LIBCMT:fflush.obj
 0001:0001e585       __flush                    1001f585 f   LIBCMT:fflush.obj
 0001:0001e5e9       __flushall                 1001f5e9 f   LIBCMT:fflush.obj
 0001:0001e5f2       _fflush                    1001f5f2 f   LIBCMT:fflush.obj
 0001:0001e72f       _setvbuf                   1001f72f f   LIBCMT:setvbuf.obj
 0001:0001e835       __fwprintf_l               1001f835 f   LIBCMT:fwprintf.obj
 0001:0001e84f       __fwprintf_p               1001f84f f   LIBCMT:fwprintf.obj
 0001:0001e868       __fwprintf_p_l             1001f868 f   LIBCMT:fwprintf.obj
 0001:0001e882       __fwprintf_s_l             1001f882 f   LIBCMT:fwprintf.obj
 0001:0001e89c       _fwprintf                  1001f89c f   LIBCMT:fwprintf.obj
 0001:0001e930       _fwprintf_s                1001f930 f   LIBCMT:fwprintf.obj
 0001:0001e949       __vsnwprintf_s             1001f949 f   LIBCMT:vswprnc.obj
 0001:0001e967       __vsnwprintf_s_l           1001f967 f   LIBCMT:vswprnc.obj
 0001:0001ea6b       __vswprintf_c              1001fa6b f   LIBCMT:vswprnc.obj
 0001:0001ea92       __vswprintf_c_l            1001fa92 f   LIBCMT:vswprnc.obj
 0001:0001eaba       __vswprintf_helper         1001faba f   LIBCMT:vswprnc.obj
 0001:0001ebb5       __vswprintf_p              1001fbb5 f   LIBCMT:vswprnc.obj
 0001:0001ebdc       __vswprintf_p_l            1001fbdc f   LIBCMT:vswprnc.obj
 0001:0001ec04       __vswprintf_s_l            1001fc04 f   LIBCMT:vswprnc.obj
 0001:0001ec7b       _vswprintf_s               1001fc7b f   LIBCMT:vswprnc.obj
 0001:0001ec96       ___fpecode                 1001fc96 f   LIBCMT:winsig.obj
 0001:0001ec9f       ___get_sigabrt             1001fc9f f   LIBCMT:winsig.obj
 0001:0001ecac       ___pxcptinfoptrs           1001fcac f   LIBCMT:winsig.obj
 0001:0001ecb5       __initp_misc_winsig        1001fcb5 f   LIBCMT:winsig.obj
 0001:0001ed76       _raise                     1001fd76 f   LIBCMT:winsig.obj
 0001:0001ef6b       _signal                    1001ff6b f   LIBCMT:winsig.obj
 0001:0001f1c2       ___crtMessageBoxW          100201c2 f   LIBCMT:crtmboxw.obj
 0001:0001f3a8       ___crtMessageBoxWaitThreadW@4 100203a8 f   LIBCMT:crtmboxw.obj
 0001:0001f3c6       __crt_debugger_hook        100203c6 f   LIBCMT:dbghook.obj
 0001:0001f3fb       ___crtCloseThreadpoolTimer 100203fb f   LIBCMT:winapisupp.obj
 0001:0001f412       ___crtCloseThreadpoolWait  10020412 f   LIBCMT:winapisupp.obj
 0001:0001f429       ___crtCreateEventExW       10020429 f   LIBCMT:winapisupp.obj
 0001:0001f464       ___crtCreateSemaphoreExW   10020464 f   LIBCMT:winapisupp.obj
 0001:0001f49e       ___crtCreateSymbolicLinkW  1002049e f   LIBCMT:winapisupp.obj
 0001:0001f4c7       ___crtCreateThreadpoolTimer 100204c7 f   LIBCMT:winapisupp.obj
 0001:0001f4e8       ___crtCreateThreadpoolWait 100204e8 f   LIBCMT:winapisupp.obj
 0001:0001f509       ___crtFlsAlloc             10020509 f   LIBCMT:winapisupp.obj
 0001:0001f527       ___crtFlsFree              10020527 f   LIBCMT:winapisupp.obj
 0001:0001f546       ___crtFlsGetValue          10020546 f   LIBCMT:winapisupp.obj
 0001:0001f565       ___crtFlsSetValue          10020565 f   LIBCMT:winapisupp.obj
 0001:0001f587       ___crtFlushProcessWriteBuffers 10020587 f   LIBCMT:winapisupp.obj
 0001:0001f597       ___crtFreeLibraryWhenCallbackReturns 10020597 f   LIBCMT:winapisupp.obj
 0001:0001f5b1       ___crtGetCurrentProcessorNumber 100205b1 f   LIBCMT:winapisupp.obj
 0001:0001f5c3       ___crtGetFileInformationByHandleEx 100205c3 f   LIBCMT:winapisupp.obj
 0001:0001f5ef       ___crtGetLogicalProcessorInformation 100205ef f   LIBCMT:winapisupp.obj
 0001:0001f615       ___crtGetShowWindowMode    10020615 f   LIBCMT:winapisupp.obj
 0001:0001f638       ___crtGetTickCount64       10020638 f   LIBCMT:winapisupp.obj
 0001:0001f650       ___crtInitializeCriticalSectionEx 10020650 f   LIBCMT:winapisupp.obj
 0001:0001f67e       ___crtIsPackagedApp        1002067e f   LIBCMT:winapisupp.obj
 0001:0001f6be       ___crtLoadWinApiPointers   100206be f   LIBCMT:winapisupp.obj
 0001:0001f949       ___crtSetFileInformationByHandle 10020949 f   LIBCMT:winapisupp.obj
 0001:0001f975       ___crtSetThreadStackGuarantee 10020975 f   LIBCMT:winapisupp.obj
 0001:0001f990       ___crtSetThreadpoolTimer   10020990 f   LIBCMT:winapisupp.obj
 0001:0001f9b0       ___crtSetThreadpoolWait    100209b0 f   LIBCMT:winapisupp.obj
 0001:0001f9cd       ___crtSetUnhandledExceptionFilter 100209cd f   LIBCMT:winapisupp.obj
 0001:0001f9db       ___crtSleep                100209db f   LIBCMT:winapisupp.obj
 0001:0001f9e9       ___crtTerminateProcess     100209e9 f   LIBCMT:winapisupp.obj
 0001:0001f9fe       ___crtUnhandledException   100209fe f   LIBCMT:winapisupp.obj
 0001:0001fa14       ___crtWaitForThreadpoolTimerCallbacks 10020a14 f   LIBCMT:winapisupp.obj
 0001:0001fa2e       __RTC_Initialize           10020a2e f   LIBCMT:initsect.obj
 0001:0001fa4e       __RTC_Terminate            10020a4e f   LIBCMT:initsect.obj
 0001:0001fa6e       __lock                     10020a6e f   LIBCMT:mlock.obj
 0001:0001faa2       __lockerr_exit             10020aa2 f   LIBCMT:mlock.obj
 0001:0001fac2       __mtdeletelocks            10020ac2 f   LIBCMT:mlock.obj
 0001:0001fb16       __mtinitlocknum            10020b16 f   LIBCMT:mlock.obj
 0001:0001fbbf       __mtinitlocks              10020bbf f   LIBCMT:mlock.obj
 0001:0001fbf8       __unlock                   10020bf8 f   LIBCMT:mlock.obj
 0001:0001fc10       __FindPESection            10020c10 f   LIBCMT:pesect.obj
 0001:0001fc60       __IsNonwritableInCurrentImage 10020c60 f   LIBCMT:pesect.obj
 0001:0001fd20       __ValidateImageBase        10020d20 f   LIBCMT:pesect.obj
 0001:0001fd51       ___onexitinit              10020d51 f   LIBCMT:onexit.obj
 0001:0001fd80       __onexit                   10020d80 f   LIBCMT:onexit.obj
 0001:0001fe7c       _atexit                    10020e7c f   LIBCMT:onexit.obj
 0001:0001fe91       __calloc_crt               10020e91 f   LIBCMT:crtheap.obj
 0001:0001fed9       __malloc_crt               10020ed9 f   LIBCMT:crtheap.obj
 0001:0001ff20       __realloc_crt              10020f20 f   LIBCMT:crtheap.obj
 0001:0001ff6a       __recalloc_crt             10020f6a f   LIBCMT:crtheap.obj
 0001:0001ffb8       __set_malloc_crt_max_wait  10020fb8 f   LIBCMT:crtheap.obj
 0001:0001ffcb       _wait_a_bit                10020fcb f i LIBCMT:crtheap.obj
 0001:0001ffef       ?_inconsistency@@YAXXZ     10020fef f   LIBCMT:hooks.obj
 0001:00020027       ?terminate@@YAXXZ          10021027 f   LIBCMT:hooks.obj
 0001:0002005b       ?unexpected@@YAXXZ         1002105b f   LIBCMT:hooks.obj
 0001:0002006e       __initp_eh_hooks           1002106e f   LIBCMT:hooks.obj
 0001:0002007f       ___getlocaleinfo           1002107f f   LIBCMT:inithelp.obj
 0001:00020258       __initp_misc_purevirt      10021258 f   LIBCMT:inithelp.obj
 0001:00020265       __initp_misc_rand_s        10021265 f   LIBCMT:rand_s.obj
 0001:00020272       _rand_s                    10021272 f   LIBCMT:rand_s.obj
 0001:00020378       ___initmbctable            10021378 f   LIBCMT:mbctype.obj
 0001:0002062f       ___updatetmbcinfo          1002162f f   LIBCMT:mbctype.obj
 0001:000206d5       __getmbcp                  100216d5 f   LIBCMT:mbctype.obj
 0001:00020706       __setmbcp                  10021706 f   LIBCMT:mbctype.obj
 0001:000208ae       __setmbcp_nolock           100218ae f   LIBCMT:mbctype.obj
 0001:00020a99       __fcloseall                10021a99 f   LIBCMT:closeall.obj
 0001:00020b36       __fileno                   10021b36 f   LIBCMT:fileno.obj
 0001:00020b5a       __close                    10021b5a f   LIBCMT:close.obj
 0001:00020c35       __close_nolock             10021c35 f   LIBCMT:close.obj
 0001:00020ccf       __freebuf                  10021ccf f   LIBCMT:_freebuf.obj
 0001:00020cff       __getstream                10021cff f   LIBCMT:stream.obj
 0001:00020e1e       __openfile                 10021e1e f   LIBCMT:_open.obj
 0001:000210a0       __local_unwind4            100220a0 f   LIBCMT:exsup4.obj
 0001:00021176       __seh_longjmp_unwind4@4    10022176 f   LIBCMT:exsup4.obj
 0001:00021192       @_EH4_CallFilterFunc@8     10022192 f   LIBCMT:exsup4.obj
 0001:000211a9       @_EH4_TransferToHandler@8  100221a9 f   LIBCMT:exsup4.obj
 0001:000211c2       @_EH4_GlobalUnwind2@8      100221c2 f   LIBCMT:exsup4.obj
 0001:000211db       @_EH4_LocalUnwind@16       100221db f   LIBCMT:exsup4.obj
 0001:000211f2       __vfprintf_l               100221f2 f   LIBCMT:vfprintf.obj
 0001:00021210       __vfprintf_p               10022210 f   LIBCMT:vfprintf.obj
 0001:0002122d       __vfprintf_p_l             1002222d f   LIBCMT:vfprintf.obj
 0001:0002124b       __vfprintf_s_l             1002224b f   LIBCMT:vfprintf.obj
 0001:00021269       _vfprintf                  10022269 f   LIBCMT:vfprintf.obj
 0001:00021286       _vfprintf_helper           10022286 f   LIBCMT:vfprintf.obj
 0001:00021397       _vfprintf_s                10022397 f   LIBCMT:vfprintf.obj
 0001:000213b4       __ioinit                   100223b4 f   LIBCMT:ioinit.obj
 0001:00021668       __ioterm                   10022668 f   LIBCMT:ioinit.obj
 0001:000216ba       __filbuf                   100226ba f   LIBCMT:_filbuf.obj
 0001:000217db       __read                     100227db f   LIBCMT:read.obj
 0001:000218ef       __read_nolock              100228ef f   LIBCMT:read.obj
 0001:00022080       __flsbuf                   10023080 f   LIBCMT:_flsbuf.obj
 0001:000221cf       __write                    100231cf f   LIBCMT:write.obj
 0001:000222be       __write_nolock             100232be f   LIBCMT:write.obj
 0001:00022b23       __wremove                  10023b23 f   LIBCMT:wunlink.obj
 0001:00022b51       __wunlink                  10023b51 f   LIBCMT:wunlink.obj
 0001:00022b5a       __lseek                    10023b5a f   LIBCMT:lseek.obj
 0001:00022c49       __lseek_nolock             10023c49 f   LIBCMT:lseek.obj
 0001:00022cf0       __vscprintf                10023cf0 f   LIBCMT:vsprintf.obj
 0001:00022d0a       __vscprintf_helper         10023d0a f   LIBCMT:vsprintf.obj
 0001:00022d66       __vscprintf_l              10023d66 f   LIBCMT:vsprintf.obj
 0001:00022d81       __vscprintf_p              10023d81 f   LIBCMT:vsprintf.obj
 0001:00022d9b       __vscprintf_p_l            10023d9b f   LIBCMT:vsprintf.obj
 0001:00022db6       __vsprintf_l               10023db6 f   LIBCMT:vsprintf.obj
 0001:00022e3a       _vsprintf                  10023e3a f   LIBCMT:vsprintf.obj
 0001:00022e52       __vsnprintf_c              10023e52 f   LIBCMT:vsnprnc.obj
 0001:00022e79       __vsnprintf_c_l            10023e79 f   LIBCMT:vsnprnc.obj
 0001:00022ea1       __vsnprintf_helper         10023ea1 f   LIBCMT:vsnprnc.obj
 0001:00022f6b       __vsnprintf_s              10023f6b f   LIBCMT:vsnprnc.obj
 0001:00022f89       __vsnprintf_s_l            10023f89 f   LIBCMT:vsnprnc.obj
 0001:00023089       __vsprintf_p               10024089 f   LIBCMT:vsnprnc.obj
 0001:000230b0       __vsprintf_p_l             100240b0 f   LIBCMT:vsnprnc.obj
 0001:000230d8       __vsprintf_s_l             100240d8 f   LIBCMT:vsnprnc.obj
 0001:0002314d       _vsprintf_s                1002414d f   LIBCMT:vsnprnc.obj
 0001:00023168       __chgsign                  10024168 f   LIBCMT:ieeemisc.obj
 0001:00023195       __chgsignf                 10024195 f   LIBCMT:ieeemisc.obj
 0001:000231b6       __copysign                 100241b6 f   LIBCMT:ieeemisc.obj
 0001:000231de       __copysignf                100241de f   LIBCMT:ieeemisc.obj
 0001:000231fa       __finite                   100241fa f   LIBCMT:ieeemisc.obj
 0001:00023212       __fpclass                  10024212 f   LIBCMT:ieeemisc.obj
 0001:000232ae       __isnan                    100242ae f   LIBCMT:ieeemisc.obj
 0001:000232e1       __logb                     100242e1 f   LIBCMT:ieeemisc.obj
 0001:000233c2       __nextafter                100243c2 f   LIBCMT:ieeemisc.obj
 0001:00023662       __scalb                    10024662 f   LIBCMT:ieeemisc.obj
 0001:0002367a       __add_exp                  1002467a f   LIBCMT:util.obj
 0001:000236a9       __decomp                   100246a9 f   LIBCMT:util.obj
 0001:0002377b       __get_exp                  1002477b f   LIBCMT:util.obj
 0001:00023794       __set_bexp                 10024794 f   LIBCMT:util.obj
 0001:000237bd       __set_exp                  100247bd f   LIBCMT:util.obj
 0001:000237ec       __sptype                   100247ec f   LIBCMT:util.obj
 0001:00023847       ___clrfp_sse2              10024847 f   LIBCMT:fpctrl.obj
 0001:00023868       ___ctrlfp_sse2             10024868 f   LIBCMT:fpctrl.obj
 0001:000238a1       ___fclrf_sse2              100248a1 f   LIBCMT:fpctrl.obj
 0001:000238be       ___get_fpsr_sse2           100248be f   LIBCMT:fpctrl.obj
 0001:000238da       ___set_fpsr_sse2           100248da f   LIBCMT:fpctrl.obj
 0001:00023950       ___set_statfp_sse2         10024950 f   LIBCMT:fpctrl.obj
 0001:00023969       ___statfp_sse2             10024969 f   LIBCMT:fpctrl.obj
 0001:0002397e       __clrfp                    1002497e f   LIBCMT:fpctrl.obj
 0001:0002398f       __ctrlfp                   1002498f f   LIBCMT:fpctrl.obj
 0001:000239ba       __set_statfp               100249ba f   LIBCMT:fpctrl.obj
 0001:00023a12       __statfp                   10024a12 f   LIBCMT:fpctrl.obj
 0001:00023a22       __XcptFilter               10024a22 f   LIBCMT:winxfltr.obj
 0001:00023b7d       ___CppXcptFilter           10024b7d f   LIBCMT:winxfltr.obj
 0001:00023bcf       ___get_flsindex            10024bcf f   LIBCMT:tidtable.obj
 0001:00023bd5       ___threadhandle            10024bd5 f   LIBCMT:tidtable.obj
 0001:00023bdb       ___threadid                10024bdb f   LIBCMT:tidtable.obj
 0001:00023be1       __freefls@4                10024be1 f   LIBCMT:tidtable.obj
 0001:00023d16       __freeptd                  10024d16 f   LIBCMT:tidtable.obj
 0001:00023d4c       __getptd                   10024d4c f   LIBCMT:tidtable.obj
 0001:00023d64       __getptd_noexit            10024d64 f   LIBCMT:tidtable.obj
 0001:00023dd3       __initptd                  10024dd3 f   LIBCMT:tidtable.obj
 0001:00023e86       __mtinit                   10024e86 f   LIBCMT:tidtable.obj
 0001:00023efc       __mtterm                   10024efc f   LIBCMT:tidtable.obj
 0001:00023f19       __set_pgmptr               10024f19 f i LIBCMT:stdargv.obj
 0001:00023f26       __setargv                  10024f26 f   LIBCMT:stdargv.obj
 0001:00024155       __setenvp                  10025155 f   LIBCMT:stdenvp.obj
 0001:00024236       ___security_init_cookie    10025236 f   LIBCMT:gs_support.obj
 0001:000242d2       ___crtGetEnvironmentStringsA 100252d2 f   LIBCMT:a_env.obj
 0001:00024360       _strlen                    10025360 f   LIBCMT:strlen.obj
 0001:000243eb       _wcsncpy_s                 100253eb f   LIBCMT:wcsncpy_s.obj
 0001:000244a9       __output_s_l               100254a9 f   LIBCMT:outputs.obj
 0001:00025131       __output_p_l               10026131 f   LIBCMT:outputp.obj
 0001:00026469       __validate_param_reuseA    10027469 f   LIBCMT:outputp.obj
 0001:0002659f       _get_crtdouble_arg         1002759f f i LIBCMT:outputp.obj
 0001:0002669e       __isatty                   1002769e f   LIBCMT:isatty.obj
 0001:000266f2       ___addlocaleref            100276f2 f   LIBCMT:localref.obj
 0001:00026787       ___freetlocinfo            10027787 f   LIBCMT:localref.obj
 0001:000268e1       ___removelocaleref         100278e1 f   LIBCMT:localref.obj
 0001:00026981       ___updatetlocinfo          10027981 f   LIBCMT:localref.obj
 0001:00026a01       __updatetlocinfoEx_nolock  10027a01 f   LIBCMT:localref.obj
 0001:00026a4c       ___iswcsym                 10027a4c f i LIBCMT:_wctype.obj
 0001:00026a70       ___iswcsymf                10027a70 f i LIBCMT:_wctype.obj
 0001:00026a94       __isleadbyte_l             10027a94 f i LIBCMT:_wctype.obj
 0001:00026ace       __iswalnum_l               10027ace f i LIBCMT:_wctype.obj
 0001:00026ae2       __iswalpha_l               10027ae2 f i LIBCMT:_wctype.obj
 0001:00026af6       __iswblank_l               10027af6 f i LIBCMT:_wctype.obj
 0001:00026b11       __iswcntrl_l               10027b11 f i LIBCMT:_wctype.obj
 0001:00026b22       __iswcsym_l                10027b22 f i LIBCMT:_wctype.obj
 0001:00026b46       __iswcsymf_l               10027b46 f i LIBCMT:_wctype.obj
 0001:00026b6a       __iswdigit_l               10027b6a f i LIBCMT:_wctype.obj
 0001:00026b7b       __iswgraph_l               10027b7b f i LIBCMT:_wctype.obj
 0001:00026b8f       __iswlower_l               10027b8f f i LIBCMT:_wctype.obj
 0001:00026ba0       __iswprint_l               10027ba0 f i LIBCMT:_wctype.obj
 0001:00026bb4       __iswpunct_l               10027bb4 f i LIBCMT:_wctype.obj
 0001:00026bc5       __iswspace_l               10027bc5 f i LIBCMT:_wctype.obj
 0001:00026bd6       __iswupper_l               10027bd6 f i LIBCMT:_wctype.obj
 0001:00026be7       __iswxdigit_l              10027be7 f i LIBCMT:_wctype.obj
 0001:00026bfb       _isleadbyte                10027bfb f i LIBCMT:_wctype.obj
 0001:00026c0c       _iswalnum                  10027c0c f i LIBCMT:_wctype.obj
 0001:00026c20       _iswalpha                  10027c20 f i LIBCMT:_wctype.obj
 0001:00026c34       _iswascii                  10027c34 f i LIBCMT:_wctype.obj
 0001:00026c46       _iswblank                  10027c46 f i LIBCMT:_wctype.obj
 0001:00026c61       _iswcntrl                  10027c61 f i LIBCMT:_wctype.obj
 0001:00026c72       _iswdigit                  10027c72 f i LIBCMT:_wctype.obj
 0001:00026c83       _iswgraph                  10027c83 f i LIBCMT:_wctype.obj
 0001:00026c97       _iswlower                  10027c97 f i LIBCMT:_wctype.obj
 0001:00026ca8       _iswprint                  10027ca8 f i LIBCMT:_wctype.obj
 0001:00026cbc       _iswpunct                  10027cbc f i LIBCMT:_wctype.obj
 0001:00026ccd       _iswspace                  10027ccd f i LIBCMT:_wctype.obj
 0001:00026cde       _iswupper                  10027cde f i LIBCMT:_wctype.obj
 0001:00026cef       _iswxdigit                 10027cef f i LIBCMT:_wctype.obj
 0001:00026d03       __wctomb_l                 10027d03 f   LIBCMT:wctomb.obj
 0001:00026d52       __wctomb_s_l               10027d52 f   LIBCMT:wctomb.obj
 0001:00026e76       _wctomb                    10027e76 f   LIBCMT:wctomb.obj
 0001:00026ea9       _wctomb_s                  10027ea9 f   LIBCMT:wctomb.obj
 0001:00026ed0       __aulldvrm                 10027ed0 f   LIBCMT:ulldvrm.obj
 0001:00026f65       __87except                 10027f65 f   LIBCMT:87except.obj
 0001:0002706e       __matherr                  1002806e f   LIBCMT:matherr.obj
 0001:00027071       ___isascii                 10028071 f i LIBCMT:_ctype.obj
 0001:00027081       ___iscsym                  10028081 f i LIBCMT:_ctype.obj
 0001:000270a1       ___iscsymf                 100280a1 f i LIBCMT:_ctype.obj
 0001:000270be       ___toascii                 100280be f i LIBCMT:_ctype.obj
 0001:000270c9       __isalnum_l                100280c9 f i LIBCMT:_ctype.obj
 0001:00027121       __isalpha_l                10028121 f i LIBCMT:_ctype.obj
 0001:00027179       __isblank_l                10028179 f i LIBCMT:_ctype.obj
 0001:000271d3       __iscntrl_l                100281d3 f i LIBCMT:_ctype.obj
 0001:00027225       __iscsym_l                 10028225 f i LIBCMT:_ctype.obj
 0001:00027246       __iscsymf_l                10028246 f i LIBCMT:_ctype.obj
 0001:00027267       __isdigit_l                10028267 f i LIBCMT:_ctype.obj
 0001:000272b9       __isgraph_l                100282b9 f i LIBCMT:_ctype.obj
 0001:00027311       __islower_l                10028311 f i LIBCMT:_ctype.obj
 0001:00027363       __isprint_l                10028363 f i LIBCMT:_ctype.obj
 0001:000273bb       __ispunct_l                100283bb f i LIBCMT:_ctype.obj
 0001:0002740d       __isspace_l                1002840d f i LIBCMT:_ctype.obj
 0001:0002745f       __isupper_l                1002845f f i LIBCMT:_ctype.obj
 0001:000274b1       __isxdigit_l               100284b1 f i LIBCMT:_ctype.obj
 0001:00027509       _isalnum                   10028509 f i LIBCMT:_ctype.obj
 0001:00027536       _isalpha                   10028536 f i LIBCMT:_ctype.obj
 0001:00027563       _isblank                   10028563 f i LIBCMT:_ctype.obj
 0001:00027598       _iscntrl                   10028598 f i LIBCMT:_ctype.obj
 0001:000275c3       _isdigit                   100285c3 f i LIBCMT:_ctype.obj
 0001:000275ee       _isgraph                   100285ee f i LIBCMT:_ctype.obj
 0001:0002761b       _islower                   1002861b f i LIBCMT:_ctype.obj
 0001:00027646       _isprint                   10028646 f i LIBCMT:_ctype.obj
 0001:00027673       _ispunct                   10028673 f i LIBCMT:_ctype.obj
 0001:0002769e       _isspace                   1002869e f i LIBCMT:_ctype.obj
 0001:000276c9       _isupper                   100286c9 f i LIBCMT:_ctype.obj
 0001:000276f4       _isxdigit                  100286f4 f i LIBCMT:_ctype.obj
 0001:00027721       __tolower                  10028721 f   LIBCMT:tolower.obj
 0001:0002772c       __tolower_l                1002872c f   LIBCMT:tolower.obj
 0001:0002786f       _tolower                   1002886f f   LIBCMT:tolower.obj
 0001:0002789b       _strcpy_s                  1002889b f   LIBCMT:strcpy_s.obj
 0001:000278f0       _strrchr                   100288f0 f   LIBCMT:strrchr.obj
 0001:00027a27       __fptostr                  10028a27 f   LIBCMT:_fptostr.obj
 0001:00027ad7       ___crt_atoflt_l            10028ad7 f   LIBCMT:atodbl.obj
 0001:00027b7b       __atodbl                   10028b7b f   LIBCMT:atodbl.obj
 0001:00027b90       __atodbl_l                 10028b90 f   LIBCMT:atodbl.obj
 0001:00027c1e       __atoflt                   10028c1e f   LIBCMT:atodbl.obj
 0001:00027c33       __atoflt_l                 10028c33 f   LIBCMT:atodbl.obj
 0001:00027c4b       __atoldbl                  10028c4b f   LIBCMT:atodbl.obj
 0001:00027c60       __atoldbl_l                10028c60 f   LIBCMT:atodbl.obj
 0001:00027cef       ___dtold                   10028cef f   LIBCMT:cfout.obj
 0001:00027db7       __fltout2                  10028db7 f   LIBCMT:cfout.obj
 0001:00027e50       __alldvrm                  10028e50 f   LIBCMT:lldvrm.obj
 0001:00027f30       __aullshr                  10028f30 f   LIBCMT:ullshr.obj
 0001:00027f4f       __get_output_format        10028f4f f   LIBCMT:outputformat.obj
 0001:00027f55       __set_output_format        10028f55 f   LIBCMT:outputformat.obj
 0001:00027f87       __controlfp_s              10028f87 f   LIBCMT:contrlfp.obj
 0001:00027fe4       __fptrap                   10028fe4 f   LIBCMT:crt0fp.obj
 0001:00027fed       __commit                   10028fed f   LIBCMT:commit.obj
 0001:000280d6       __vfwprintf_l              100290d6 f   LIBCMT:vfwprint.obj
 0001:000280f4       __vfwprintf_p              100290f4 f   LIBCMT:vfwprint.obj
 0001:00028111       __vfwprintf_p_l            10029111 f   LIBCMT:vfwprint.obj
 0001:0002812f       __vfwprintf_s_l            1002912f f   LIBCMT:vfwprint.obj
 0001:0002814d       _vfwprintf                 1002914d f   LIBCMT:vfwprint.obj
 0001:0002816a       _vfwprintf_helper          1002916a f   LIBCMT:vfwprint.obj
 0001:000281fd       _vfwprintf_s               100291fd f   LIBCMT:vfwprint.obj
 0001:0002821a       __woutput_l                1002921a f   LIBCMT:woutput.obj
 0001:00028ef9       __woutput_s_l              10029ef9 f   LIBCMT:woutputs.obj
 0001:00029c10       __validate_param_reuseW    1002ac10 f   LIBCMT:woutputp.obj
 0001:00029d88       __woutput_p_l              1002ad88 f   LIBCMT:woutputp.obj
 0001:0002b157       __msize                    1002c157 f   LIBCMT:msize.obj
 0001:0002b188       __recalloc                 1002c188 f   LIBCMT:recalloc.obj
 0001:0002b1f1       _strncpy_s                 1002c1f1 f   LIBCMT:strncpy_s.obj
 0001:0002b379       __MallocaIsSizeInRange     1002c379 f i LIBCMT:a_loc.obj
 0001:0002b38a       __MarkAllocaS              1002c38a f i LIBCMT:a_loc.obj
 0001:0002b39e       ___crtGetLocaleInfoA       1002c39e f   LIBCMT:a_loc.obj
 0001:0002b3d8       __freea                    1002c3d8 f i LIBCMT:a_loc.obj
 0001:0002b3f6       _GetTableIndexFromLcid     1002c3f6 f   LIBCMT:winapinls.obj
 0001:0002b42b       _GetTableIndexFromLocaleName 1002c42b f   LIBCMT:winapinls.obj
 0001:0002b479       ___crtCompareStringEx      1002c479 f   LIBCMT:winapinls.obj
 0001:0002b4c5       ___crtDownlevelLCIDToLocaleName 1002c4c5 f   LIBCMT:winapinls.obj
 0001:0002b541       ___crtDownlevelLocaleNameToLCID 1002c541 f   LIBCMT:winapinls.obj
 0001:0002b57f       ___crtEnumSystemLocalesEx  1002c57f f   LIBCMT:winapinls.obj
 0001:0002b5bc       ___crtGetDateFormatEx      1002c5bc f   LIBCMT:winapinls.obj
 0001:0002b605       ___crtGetLocaleInfoEx      1002c605 f   LIBCMT:winapinls.obj
 0001:0002b634       ___crtGetTimeFormatEx      1002c634 f   LIBCMT:winapinls.obj
 0001:0002b669       ___crtGetUserDefaultLocaleName 1002c669 f   LIBCMT:winapinls.obj
 0001:0002b694       ___crtIsValidLocaleName    1002c694 f   LIBCMT:winapinls.obj
 0001:0002b6bf       ___crtLCMapStringEx        1002c6bf f   LIBCMT:winapinls.obj
 0001:0002b70b       ___wcsnicmp_ascii          1002c70b f   LIBCMT:winapinls.obj
 0001:0002b99d       ___crtLCMapStringA         1002c99d f   LIBCMT:a_map.obj
 0001:0002badb       ___crtGetStringTypeA       1002cadb f   LIBCMT:a_str.obj
 0001:0002bb1b       ___lock_fhandle            1002cb1b f   LIBCMT:osfinfo.obj
 0001:0002bba9       __alloc_osfhnd             1002cba9 f   LIBCMT:osfinfo.obj
 0001:0002bd52       __free_osfhnd              1002cd52 f   LIBCMT:osfinfo.obj
 0001:0002bdd8       __get_osfhandle            1002cdd8 f   LIBCMT:osfinfo.obj
 0001:0002be3f       __open_osfhandle           1002ce3f f   LIBCMT:osfinfo.obj
 0001:0002bf55       __set_osfhnd               1002cf55 f   LIBCMT:osfinfo.obj
 0001:0002bfd7       __unlock_fhandle           1002cfd7 f   LIBCMT:osfinfo.obj
 0001:0002bffd       __open                     1002cffd f   LIBCMT:open.obj
 0001:0002c0ad       __sopen                    1002d0ad f   LIBCMT:open.obj
 0001:0002c0e0       __sopen_helper             1002d0e0 f   LIBCMT:open.obj
 0001:0002c1a9       __sopen_nolock             1002d1a9 f   LIBCMT:open.obj
 0001:0002c1f7       __sopen_s                  1002d1f7 f   LIBCMT:open.obj
 0001:0002c215       __mbsnbcmp                 1002d215 f   LIBCMT:mbsnbcmp.obj
 0001:0002c22d       __mbsnbcmp_l               1002d22d f   LIBCMT:mbsnbcmp.obj
 0001:0002c344       __mbsnbicmp                1002d344 f   LIBCMT:mbsnbicm.obj
 0001:0002c35c       __mbsnbicmp_l              1002d35c f   LIBCMT:mbsnbicm.obj
 0001:0002c520       __global_unwind2           1002d520 f   LIBCMT:exsup.obj
 0001:0002c585       __local_unwind2            1002d585 f   LIBCMT:exsup.obj
 0001:0002c609       __abnormal_termination     1002d609 f   LIBCMT:exsup.obj
 0001:0002c62c       __NLG_Notify1              1002d62c f   LIBCMT:exsup.obj
 0001:0002c635       __NLG_Notify               1002d635 f   LIBCMT:exsup.obj
 0001:0002c64c       __NLG_Dispatch2            1002d64c     LIBCMT:exsup.obj
 0001:0002c64c       __NLG_Dispatch             1002d64c     LIBCMT:exsup.obj
 0001:0002c654       __NLG_Call                 1002d654 f   LIBCMT:exsup.obj
 0001:0002c656       __NLG_Return2              1002d656     LIBCMT:exsup.obj
 0001:0002c657       __getbuf                   1002d657 f   LIBCMT:_getbuf.obj
 0001:0002c69d       __lseeki64                 1002d69d f   LIBCMT:lseeki64.obj
 0001:0002c799       __lseeki64_nolock          1002d799 f   LIBCMT:lseeki64.obj
 0001:0002c80c       __mbtowc_l                 1002d80c f   LIBCMT:mbtowc.obj
 0001:0002c901       _mbtowc                    1002d901 f   LIBCMT:mbtowc.obj
 0001:0002c919       __putwch                   1002d919 f   LIBCMT:putwch.obj
 0001:0002c965       __putwch_nolock            1002d965 f   LIBCMT:putwch.obj
 0001:0002c9b0       __alloca_probe             1002d9b0 f   LIBCMT:chkstk.obj
 0001:0002c9b0       __chkstk                   1002d9b0 f   LIBCMT:chkstk.obj
 0001:0002ca35       __ismbbalnum               1002da35 f   LIBCMT:ismbbyte.obj
 0001:0002ca4e       __ismbbalnum_l             1002da4e f   LIBCMT:ismbbyte.obj
 0001:0002ca68       __ismbbalpha               1002da68 f   LIBCMT:ismbbyte.obj
 0001:0002ca81       __ismbbalpha_l             1002da81 f   LIBCMT:ismbbyte.obj
 0001:0002ca9b       __ismbbblank               1002da9b f   LIBCMT:ismbbyte.obj
 0001:0002cabc       __ismbbblank_l             1002dabc f   LIBCMT:ismbbyte.obj
 0001:0002cade       __ismbbgraph               1002dade f   LIBCMT:ismbbyte.obj
 0001:0002caf7       __ismbbgraph_l             1002daf7 f   LIBCMT:ismbbyte.obj
 0001:0002cb11       __ismbbkalnum              1002db11 f   LIBCMT:ismbbyte.obj
 0001:0002cb27       __ismbbkalnum_l            1002db27 f   LIBCMT:ismbbyte.obj
 0001:0002cb3e       __ismbbkana                1002db3e f   LIBCMT:ismbbyte.obj
 0001:0002cb4f       __ismbbkana_l              1002db4f f   LIBCMT:ismbbyte.obj
 0001:0002cb9b       __ismbbkprint              1002db9b f   LIBCMT:ismbbyte.obj
 0001:0002cbb1       __ismbbkprint_l            1002dbb1 f   LIBCMT:ismbbyte.obj
 0001:0002cbc8       __ismbbkpunct              1002dbc8 f   LIBCMT:ismbbyte.obj
 0001:0002cbde       __ismbbkpunct_l            1002dbde f   LIBCMT:ismbbyte.obj
 0001:0002cbf5       __ismbblead                1002dbf5 f   LIBCMT:ismbbyte.obj
 0001:0002cc0b       __ismbblead_l              1002dc0b f   LIBCMT:ismbbyte.obj
 0001:0002cc22       __ismbbprint               1002dc22 f   LIBCMT:ismbbyte.obj
 0001:0002cc3b       __ismbbprint_l             1002dc3b f   LIBCMT:ismbbyte.obj
 0001:0002cc55       __ismbbpunct               1002dc55 f   LIBCMT:ismbbyte.obj
 0001:0002cc6b       __ismbbpunct_l             1002dc6b f   LIBCMT:ismbbyte.obj
 0001:0002cc82       __ismbbtrail               1002dc82 f   LIBCMT:ismbbyte.obj
 0001:0002cc98       __ismbbtrail_l             1002dc98 f   LIBCMT:ismbbyte.obj
 0001:0002ced5       __strtol_l                 1002ded5 f   LIBCMT:strtol.obj
 0001:0002cef0       __strtoul_l                1002def0 f   LIBCMT:strtol.obj
 0001:0002cf0b       _strtol                    1002df0b f   LIBCMT:strtol.obj
 0001:0002cf35       _strtoul                   1002df35 f   LIBCMT:strtol.obj
 0001:0002cf5f       ___free_lconv_mon          1002df5f f   LIBCMT:initmon.obj
 0001:0002d05b       ___init_monetary           1002e05b f   LIBCMT:initmon.obj
 0001:0002d434       ___free_lconv_num          1002e434 f   LIBCMT:initnum.obj
 0001:0002d49b       ___init_numeric            1002e49b f   LIBCMT:initnum.obj
 0001:0002d6d9       ___free_lc_time            1002e6d9 f   LIBCMT:inittime.obj
 0001:0002da59       ___init_time               1002ea59 f   LIBCMT:inittime.obj
 0001:0002e2c8       _localeconv                1002f2c8 f   LIBCMT:lconv.obj
 0001:0002e2ee       __iswctype_l               1002f2ee f   LIBCMT:iswctype.obj
 0001:0002e300       _is_wctype                 1002f300 f   LIBCMT:iswctype.obj
 0001:0002e309       _iswctype                  1002f309 f   LIBCMT:iswctype.obj
 0001:0002e35f       ____lc_codepage_func       1002f35f f   LIBCMT:initctyp.obj
 0001:0002e385       ____lc_collate_cp_func     1002f385 f   LIBCMT:initctyp.obj
 0001:0002e3ab       ____lc_locale_name_func    1002f3ab f   LIBCMT:initctyp.obj
 0001:0002e3d3       ____mb_cur_max_func        1002f3d3 f   LIBCMT:initctyp.obj
 0001:0002e3f9       ____mb_cur_max_l_func      1002f3f9 f   LIBCMT:initctyp.obj
 0001:0002e410       ___init_ctype              1002f410 f   LIBCMT:initctyp.obj
 0001:0002e7a8       ___pctype_func             1002f7a8 f   LIBCMT:ctype.obj
 0001:0002e7d1       ___pwctype_func            1002f7d1 f   LIBCMT:ctype.obj
 0001:0002e7d7       __isctype                  1002f7d7 f   LIBCMT:isctype.obj
 0001:0002e806       __isctype_l                1002f806 f   LIBCMT:isctype.obj
 0001:0002e8b7       ___init_dummy              1002f8b7 f   LIBCMT:wsetloca.obj
 0001:0002e8ba       __locterm                  1002f8ba f   LIBCMT:wsetloca.obj
 0001:0002e90c       ____setlc_active_func      1002f90c f   LIBCMT:wsetloca.obj
 0001:0002e912       ____unguarded_readlc_active_add_func 1002f912 f   LIBCMT:wsetloca.obj
 0001:0002e918       ___copy_locale_name        1002f918 f   LIBCMT:wsetloca.obj
 0001:0002e97c       ___create_locale           1002f97c f   LIBCMT:wsetloca.obj
 0001:0002e985       ___free_locale             1002f985 f   LIBCMT:wsetloca.obj
 0001:0002e98a       ___get_current_locale      1002f98a f   LIBCMT:wsetloca.obj
 0001:0002e98f       ___lc_lctowcs              1002f98f f   LIBCMT:wsetloca.obj
 0001:0002e9fd       ___lc_wcstolc              1002f9fd f   LIBCMT:wsetloca.obj
 0001:0002eb29       __configthreadlocale       1002fb29 f   LIBCMT:wsetloca.obj
 0001:0002ebaf       __create_locale            1002fbaf f   LIBCMT:wsetloca.obj
 0001:0002ec11       __expandlocale             1002fc11 f   LIBCMT:wsetloca.obj
 0001:0002ef08       __free_locale              1002ff08 f   LIBCMT:wsetloca.obj
 0001:0002efbf       __get_current_locale       1002ffbf f   LIBCMT:wsetloca.obj
 0001:0002f06e       __wcreate_locale           1003006e f   LIBCMT:wsetloca.obj
 0001:0002f145       __wcscats                  10030145 f   LIBCMT:wsetloca.obj
 0001:0002f184       __wsetlocale               10030184 f   LIBCMT:wsetloca.obj
 0001:0002fac6       __CopyMan                  10030ac6 f i LIBCMT:intrncvt.obj
 0001:0002fae3       __FillZeroMan              10030ae3 f i LIBCMT:intrncvt.obj
 0001:0002faf2       __IncMan                   10030af2 f i LIBCMT:intrncvt.obj
 0001:0002fb54       __IsZeroMan                10030b54 f i LIBCMT:intrncvt.obj
 0001:0002fb71       __RoundMan                 10030b71 f i LIBCMT:intrncvt.obj
 0001:0002fc72       __ShrMan                   10030c72 f i LIBCMT:intrncvt.obj
 0001:0002fd00       __ZeroTail                 10030d00 f i LIBCMT:intrncvt.obj
 0001:0002fd48       ___addl                    10030d48 f i LIBCMT:intrncvt.obj
 0001:0002fd6c       __ld12cvt                  10030d6c f i LIBCMT:intrncvt.obj
 0001:000302d7       __ld12tod                  100312d7 f   LIBCMT:intrncvt.obj
 0001:00030849       __ld12tof                  10031849 f   LIBCMT:intrncvt.obj
 0001:00030dbb       __ld12told                 10031dbb f   LIBCMT:intrncvt.obj
 0001:00030e8a       ___STRINGTOLD_L            10031e8a f   LIBCMT:strgtold.obj
 0001:00030ee5       ___ld12mul                 10031ee5 f i LIBCMT:strgtold.obj
 0001:000311b1       ___multtenpow12            100321b1 f i LIBCMT:strgtold.obj
 0001:00031504       ___shl_12                  10032504 f i LIBCMT:strgtold.obj
 0001:00031535       ___shr_12                  10032535 f i LIBCMT:strgtold.obj
 0001:00031565       ___strgtold12_l            10032565 f   LIBCMT:strgtold.obj
 0001:00031d0d       _$I10_OUTPUT               10032d0d f   LIBCMT:x10fout.obj
 0001:000326e1       ___add_12                  100336e1 f i LIBCMT:x10fout.obj
 0001:0003288d       ___control87_2             1003388d f   LIBCMT:ieee87.obj
 0001:00032f01       __clearfp                  10033f01 f   LIBCMT:ieee87.obj
 0001:00032fe1       __control87                10033fe1 f i LIBCMT:ieee87.obj
 0001:000332e3       __controlfp                100342e3 f   LIBCMT:ieee87.obj
 0001:000335ee       __fpreset                  100345ee f   LIBCMT:ieee87.obj
 0001:000336bb       __set_controlfp            100346bb f   LIBCMT:ieee87.obj
 0001:0003372e       __statusfp                 1003472e f   LIBCMT:ieee87.obj
 0001:000337c8       __statusfp2                100347c8 f   LIBCMT:ieee87.obj
 0001:00033827       __fputwc_nolock            10034827 f   LIBCMT:fputwc.obj
 0001:000339ad       _fputwc                    100349ad f   LIBCMT:fputwc.obj
 0001:00033a24       _putwc                     10034a24 f   LIBCMT:fputwc.obj
 0001:00033c0e       __wcstol_l                 10034c0e f   LIBCMT:wcstol.obj
 0001:00033c26       __wcstoul_l                10034c26 f   LIBCMT:wcstol.obj
 0001:00033c3e       _wcstol                    10034c3e f   LIBCMT:wcstol.obj
 0001:00033c56       _wcstoul                   10034c56 f   LIBCMT:wcstol.obj
 0001:00033c70       __alloca_probe_16          10034c70 f   LIBCMT:alloca16.obj
 0001:00033c86       __alloca_probe_8           10034c86     LIBCMT:alloca16.obj
 0001:00033c9c       _wcsnlen                   10034c9c f   LIBCMT:wcslen_s.obj
 0001:00033d43       __wopen                    10034d43 f   LIBCMT:wopen.obj
 0001:00033df3       __wsopen                   10034df3 f   LIBCMT:wopen.obj
 0001:00033e26       __wsopen_helper            10034e26 f   LIBCMT:wopen.obj
 0001:00033eef       __wsopen_nolock            10034eef f   LIBCMT:wopen.obj
 0001:00034642       __wsopen_s                 10035642 f   LIBCMT:wopen.obj
 0001:00034660       _strncmp                   10035660 f   LIBCMT:strncmp.obj
 0001:000346d8       __strnicmp                 100356d8 f   LIBCMT:strnicmp.obj
 0001:00034743       __strnicmp_l               10035743 f   LIBCMT:strnicmp.obj
 0001:000347f4       ___termconout              100357f4 f   LIBCMT:initcon.obj
 0001:0003480b       ___initconout              1003580b f   LIBCMT:initcon.obj
 0001:0003482a       ___init_collate            1003582a f   LIBCMT:initcoll.obj
 0001:0003494a       _memcmp                    1003594a f   LIBCMT:memcmp.obj
 0001:0003785e       _wcscmp                    1003885e f   LIBCMT:wcscmp.obj
 0001:0003789c       _wcscspn                   1003889c f   LIBCMT:wcscspn.obj
 0001:000378e7       _wcsncmp                   100388e7 f   LIBCMT:wcsncmp.obj
 0001:0003791d       _wcspbrk                   1003891d f   LIBCMT:wcspbrk.obj
 0001:00037f21       ___get_qualified_locale    10038f21 f   LIBCMT:getqloc.obj
 0001:00038791       ___get_qualified_locale_downlevel 10039791 f   LIBCMT:getqloc_downlevel.obj
 0001:000389ad       ___mtold12                 100399ad f   LIBCMT:mantold.obj
 0001:00038b8d       __flswbuf                  10039b8d f   LIBCMT:_flswbuf.obj
 0001:00038cef       __wchartodigit             10039cef f   LIBCMT:wchtodig.obj
 0001:00038e8e       __chsize                   10039e8e f   LIBCMT:chsize.obj
 0001:00038ea8       __chsize_nolock            10039ea8 f   LIBCMT:chsize.obj
 0001:0003905e       __chsize_s                 1003a05e f   LIBCMT:chsize.obj
 0001:0003914c       __get_fmode                1003a14c f   LIBCMT:setmode.obj
 0001:00039176       __set_fmode                1003a176 f   LIBCMT:setmode.obj
 0001:000391b1       __setmode                  1003a1b1 f   LIBCMT:setmode.obj
 0001:000392b6       __setmode_nolock           1003a2b6 f   LIBCMT:setmode.obj
 0001:00039390       ___ascii_strnicmp          1003a390 f   LIBCMT:_strnicm.obj
 0001:000393f1       __wtoi                     1003a3f1 f   LIBCMT:wtox.obj
 0001:000393fa       __wtoi64                   1003a3fa f   LIBCMT:wtox.obj
 0001:0003940e       __wtoi64_l                 1003a40e f   LIBCMT:wtox.obj
 0001:00039425       __wtoi_l                   1003a425 f   LIBCMT:wtox.obj
 0001:0003942e       __wtol                     1003a42e f   LIBCMT:wtox.obj
 0001:00039442       __wtol_l                   1003a442 f   LIBCMT:wtox.obj
 0001:00039459       __wtoll                    1003a459 f   LIBCMT:wtox.obj
 0001:0003946d       __wtoll_l                  1003a46d f   LIBCMT:wtox.obj
 0001:00039484       _wcschr                    1003a484 f   LIBCMT:wcschr.obj
 0001:00039532       __wcsicmp                  1003a532 f   LIBCMT:wcsicmp.obj
 0001:000395c5       __wcsicmp_l                1003a5c5 f   LIBCMT:wcsicmp.obj
 0001:000396a0       __wcsnicmp                 1003a6a0 f   LIBCMT:wcsnicmp.obj
 0001:00039756       __wcsnicmp_l               1003a756 f   LIBCMT:wcsnicmp.obj
 0001:00039b1f       __wcstof_l                 1003ab1f f   LIBCMT:wcstoq.obj
 0001:00039bd2       __wcstoi64                 1003abd2 f   LIBCMT:wcstoq.obj
 0001:00039bfc       __wcstoi64_l               1003abfc f   LIBCMT:wcstoq.obj
 0001:00039c17       __wcstoimax_l              1003ac17 f   LIBCMT:wcstoq.obj
 0001:00039c20       __wcstold_l                1003ac20 f   LIBCMT:wcstoq.obj
 0001:00039c29       __wcstoll_l                1003ac29 f   LIBCMT:wcstoq.obj
 0001:00039c32       __wcstoui64                1003ac32 f   LIBCMT:wcstoq.obj
 0001:00039c5c       __wcstoui64_l              1003ac5c f   LIBCMT:wcstoq.obj
 0001:00039c77       __wcstoull_l               1003ac77 f   LIBCMT:wcstoq.obj
 0001:00039c80       __wcstoumax_l              1003ac80 f   LIBCMT:wcstoq.obj
 0001:00039c89       _wcstof                    1003ac89 f   LIBCMT:wcstoq.obj
 0001:00039c9e       _wcstoimax                 1003ac9e f   LIBCMT:wcstoq.obj
 0001:00039ca7       _wcstold                   1003aca7 f   LIBCMT:wcstoq.obj
 0001:00039cb0       _wcstoll                   1003acb0 f   LIBCMT:wcstoq.obj
 0001:00039cb9       _wcstoull                  1003acb9 f   LIBCMT:wcstoq.obj
 0001:00039cc2       _wcstoumax                 1003acc2 f   LIBCMT:wcstoq.obj
 0001:00039ccb       __towlower_l               1003accb f   LIBCMT:towlower.obj
 0001:00039d7c       _towlower                  1003ad7c f   LIBCMT:towlower.obj
 0001:00039d8d       __wcstod_l                 1003ad8d f   LIBCMT:wcstod.obj
 0001:00039e88       _wcstod                    1003ae88 f   LIBCMT:wcstod.obj
 0001:00039ea0       __allmul                   1003aea0 f   LIBCMT:llmul.obj
 0001:00039ed4       ___crtLCMapStringW         1003aed4 f   LIBCMT:w_map.obj
 0001:00039f03       __wfltin2                  1003af03 f   LIBCMT:wcfin.obj
 0001:00039fb0       ___WSTRINGTOLD_L           1003afb0 f   LIBCMT:wstrgtold.obj
 0001:0003a00b       ___wstrgtold12_l           1003b00b f   LIBCMT:wstrgtold.obj
 0001:0003a85c       _GetModuleHandleA@4        1003b85c f   kernel32:KERNEL32.dll
 0001:0003a862       _GetProcAddress@8          1003b862 f   kernel32:KERNEL32.dll
 0001:0003a868       _HeapAlloc@12              1003b868 f   kernel32:KERNEL32.dll
 0001:0003a86e       _GetLastError@0            1003b86e f   kernel32:KERNEL32.dll
 0001:0003a874       _HeapFree@12               1003b874 f   kernel32:KERNEL32.dll
 0001:0003a87a       _GetStdHandle@4            1003b87a f   kernel32:KERNEL32.dll
 0001:0003a880       _GetFileType@4             1003b880 f   kernel32:KERNEL32.dll
 0001:0003a886       _GetModuleFileNameW@12     1003b886 f   kernel32:KERNEL32.dll
 0001:0003a88c       _GetModuleHandleExW@12     1003b88c f   kernel32:KERNEL32.dll
 0001:0003a892       _WriteConsoleW@20          1003b892 f   kernel32:KERNEL32.dll
 0001:0003a898       _IsDebuggerPresent@0       1003b898 f   kernel32:KERNEL32.dll
 0001:0003a89e       _IsProcessorFeaturePresent@4 1003b89e f   kernel32:KERNEL32.dll
 0001:0003a8a4       _EncodePointer@4           1003b8a4 f   kernel32:KERNEL32.dll
 0001:0003a8aa       _DecodePointer@4           1003b8aa f   kernel32:KERNEL32.dll
 0001:0003a8b0       _ExitProcess@4             1003b8b0 f   kernel32:KERNEL32.dll
 0001:0003a8b6       _AreFileApisANSI@0         1003b8b6 f   kernel32:KERNEL32.dll
 0001:0003a8bc       _MultiByteToWideChar@24    1003b8bc f   kernel32:KERNEL32.dll
 0001:0003a8c2       _WideCharToMultiByte@32    1003b8c2 f   kernel32:KERNEL32.dll
 0001:0003a8c8       _HeapReAlloc@16            1003b8c8 f   kernel32:KERNEL32.dll
 0001:0003a8ce       _EnterCriticalSection@4    1003b8ce f   kernel32:KERNEL32.dll
 0001:0003a8d4       _LeaveCriticalSection@4    1003b8d4 f   kernel32:KERNEL32.dll
 0001:0003a8da       _GetCommandLineA@0         1003b8da f   kernel32:KERNEL32.dll
 0001:0003a8e0       _GetCurrentThreadId@0      1003b8e0 f   kernel32:KERNEL32.dll
 0001:0003a8e6       _WriteFile@20              1003b8e6 f   kernel32:KERNEL32.dll
 0001:0003a8ec       _GetProcessHeap@0          1003b8ec f   kernel32:KERNEL32.dll
 0001:0003a8f2       _RaiseException@16         1003b8f2 f   kernel32:KERNEL32.dll
 0001:0003a8f8       _SetConsoleCtrlHandler@8   1003b8f8 f   kernel32:KERNEL32.dll
 0001:0003a8fe       _OutputDebugStringW@4      1003b8fe f   kernel32:KERNEL32.dll
 0001:0003a904       _LoadLibraryExW@12         1003b904 f   kernel32:KERNEL32.dll
 0001:0003a90a       _UnhandledExceptionFilter@4 1003b90a f   kernel32:KERNEL32.dll
 0001:0003a910       _SetUnhandledExceptionFilter@4 1003b910 f   kernel32:KERNEL32.dll
 0001:0003a916       _SetLastError@4            1003b916 f   kernel32:KERNEL32.dll
 0001:0003a91c       _InitializeCriticalSectionAndSpinCount@8 1003b91c f   kernel32:KERNEL32.dll
 0001:0003a922       _CreateEventW@16           1003b922 f   kernel32:KERNEL32.dll
 0001:0003a928       _Sleep@4                   1003b928 f   kernel32:KERNEL32.dll
 0001:0003a92e       _GetCurrentProcess@0       1003b92e f   kernel32:KERNEL32.dll
 0001:0003a934       _TerminateProcess@8        1003b934 f   kernel32:KERNEL32.dll
 0001:0003a93a       _TlsAlloc@0                1003b93a f   kernel32:KERNEL32.dll
 0001:0003a940       _TlsGetValue@4             1003b940 f   kernel32:KERNEL32.dll
 0001:0003a946       _TlsSetValue@8             1003b946 f   kernel32:KERNEL32.dll
 0001:0003a94c       _TlsFree@4                 1003b94c f   kernel32:KERNEL32.dll
 0001:0003a952       _GetStartupInfoW@4         1003b952 f   kernel32:KERNEL32.dll
 0001:0003a958       _GetTickCount@0            1003b958 f   kernel32:KERNEL32.dll
 0001:0003a95e       _GetModuleHandleW@4        1003b95e f   kernel32:KERNEL32.dll
 0001:0003a964       _CreateSemaphoreW@16       1003b964 f   kernel32:KERNEL32.dll
 0001:0003a96a       _DeleteCriticalSection@4   1003b96a f   kernel32:KERNEL32.dll
 0001:0003a970       _FatalAppExitA@8           1003b970 f   kernel32:KERNEL32.dll
 0001:0003a976       _FreeLibrary@4             1003b976 f   kernel32:KERNEL32.dll
 0001:0003a97c       _IsValidCodePage@4         1003b97c f   kernel32:KERNEL32.dll
 0001:0003a982       _GetACP@0                  1003b982 f   kernel32:KERNEL32.dll
 0001:0003a988       _GetOEMCP@0                1003b988 f   kernel32:KERNEL32.dll
 0001:0003a98e       _GetCPInfo@8               1003b98e f   kernel32:KERNEL32.dll
 0001:0003a994       _CloseHandle@4             1003b994 f   kernel32:KERNEL32.dll
 0001:0003a99a       _RtlUnwind@16              1003b99a f   kernel32:KERNEL32.dll
 0001:0003a9a0       _ReadFile@20               1003b9a0 f   kernel32:KERNEL32.dll
 0001:0003a9a6       _GetConsoleMode@8          1003b9a6 f   kernel32:KERNEL32.dll
 0001:0003a9ac       _ReadConsoleW@20           1003b9ac f   kernel32:KERNEL32.dll
 0001:0003a9b2       _GetConsoleCP@0            1003b9b2 f   kernel32:KERNEL32.dll
 0001:0003a9b8       _DeleteFileW@4             1003b9b8 f   kernel32:KERNEL32.dll
 0001:0003a9be       _SetFilePointerEx@20       1003b9be f   kernel32:KERNEL32.dll
 0001:0003a9c4       _GetCurrentThread@0        1003b9c4 f   kernel32:KERNEL32.dll
 0001:0003a9ca       _GetModuleFileNameA@12     1003b9ca f   kernel32:KERNEL32.dll
 0001:0003a9d0       _QueryPerformanceCounter@4 1003b9d0 f   kernel32:KERNEL32.dll
 0001:0003a9d6       _GetCurrentProcessId@0     1003b9d6 f   kernel32:KERNEL32.dll
 0001:0003a9dc       _GetSystemTimeAsFileTime@4 1003b9dc f   kernel32:KERNEL32.dll
 0001:0003a9e2       _GetEnvironmentStringsW@0  1003b9e2 f   kernel32:KERNEL32.dll
 0001:0003a9e8       _FreeEnvironmentStringsW@4 1003b9e8 f   kernel32:KERNEL32.dll
 0001:0003a9ee       _FlushFileBuffers@4        1003b9ee f   kernel32:KERNEL32.dll
 0001:0003a9f4       _HeapSize@12               1003b9f4 f   kernel32:KERNEL32.dll
 0001:0003a9fa       _GetDateFormatW@24         1003b9fa f   kernel32:KERNEL32.dll
 0001:0003aa00       _GetTimeFormatW@24         1003ba00 f   kernel32:KERNEL32.dll
 0001:0003aa06       _CompareStringW@24         1003ba06 f   kernel32:KERNEL32.dll
 0001:0003aa0c       _LCMapStringW@24           1003ba0c f   kernel32:KERNEL32.dll
 0001:0003aa12       _GetLocaleInfoW@16         1003ba12 f   kernel32:KERNEL32.dll
 0001:0003aa18       _IsValidLocale@8           1003ba18 f   kernel32:KERNEL32.dll
 0001:0003aa1e       _GetUserDefaultLCID@0      1003ba1e f   kernel32:KERNEL32.dll
 0001:0003aa24       _EnumSystemLocalesW@8      1003ba24 f   kernel32:KERNEL32.dll
 0001:0003aa2a       _GetStringTypeW@16         1003ba2a f   kernel32:KERNEL32.dll
 0001:0003aa30       _SetStdHandle@8            1003ba30 f   kernel32:KERNEL32.dll
 0001:0003aa36       _CreateFileW@28            1003ba36 f   kernel32:KERNEL32.dll
 0001:0003aa3c       _SetEndOfFile@4            1003ba3c f   kernel32:KERNEL32.dll
 0002:00000000       ___xc_a                    10046000     LIBCMT:crt0init.obj
 0002:00000104       ___xc_z                    10046104     LIBCMT:crt0init.obj
 0002:00000208       ___xi_a                    10046208     LIBCMT:crt0init.obj
 0002:00000420       ___xi_z                    10046420     LIBCMT:crt0init.obj
 0002:00000524       ___xp_a                    10046524     LIBCMT:crt0init.obj
 0002:00000838       ___xp_z                    10046838     LIBCMT:crt0init.obj
 0002:0000093c       ___xt_a                    1004693c     LIBCMT:crt0init.obj
 0002:00000a40       ___xt_z                    10046a40     LIBCMT:crt0init.obj
 0002:00000b88       _speedgoat_IO316_CI_01547_M 10046b88     speedgoat_IO316_CI_01547.obj
 0002:00000b8c       ??_C@_0BI@PHJEPFFP@Error?5creating?5scope?51?6?$AA@ 10046b8c     speedgoat_IO316_CI_01547.obj
 0002:00000ba8       ??_C@_0BF@PGLFALKD@dio?1Digital?5input?1p5?$AA@ 10046ba8     speedgoat_IO316_CI_01547.obj
 0002:00000bc4       ??_C@_0BC@MBGMNEKK@dio?1GainLow1?1Gain?$AA@ 10046bc4     speedgoat_IO316_CI_01547.obj
 0002:00000bdc       ??_C@_0BD@PAJPCBJA@dio?1GainLow1?1Gain1?$AA@ 10046bdc     speedgoat_IO316_CI_01547.obj
 0002:00000bf4       ??_C@_0BD@NLLCHCFD@dio?1GainLow1?1Gain2?$AA@ 10046bf4     speedgoat_IO316_CI_01547.obj
 0002:00000c0c       ??_C@_0BI@PFNCELAG@Error?5creating?5scope?52?6?$AA@ 10046c0c     speedgoat_IO316_CI_01547.obj
 0002:00000c28       ??_C@_0BF@JCNJMOKH@dio?1Digital?5input?1p1?$AA@ 10046c28     speedgoat_IO316_CI_01547.obj
 0002:00000c44       ??_C@_0BB@PDFGCFJL@dio?1GainLow?1Gain?$AA@ 10046c44     speedgoat_IO316_CI_01547.obj
 0002:00000c58       ??_C@_0BC@KBHDBLFL@dio?1GainLow?1Gain1?$AA@ 10046c58     speedgoat_IO316_CI_01547.obj
 0002:00000c70       ??_C@_0BC@IKFOEIJI@dio?1GainLow?1Gain2?$AA@ 10046c70     speedgoat_IO316_CI_01547.obj
 0002:00000c88       ??_C@_0BI@PEBACBDB@Error?5creating?5scope?53?6?$AA@ 10046c88     speedgoat_IO316_CI_01547.obj
 0002:00000ca4       ??_C@_0L@PGIMBHEK@spi?1SPI?1s1?$AA@ 10046ca4     speedgoat_IO316_CI_01547.obj
 0002:00000cb4       ??_C@_0L@NNKBEEIJ@spi?1SPI?1s2?$AA@ 10046cb4     speedgoat_IO316_CI_01547.obj
 0002:00000cc4       ??_C@_0L@MELKHFMI@spi?1SPI?1s3?$AA@ 10046cc4     speedgoat_IO316_CI_01547.obj
 0002:00000cd4       ??_C@_0L@ILPLODAP@spi?1SPI?1s4?$AA@ 10046cd4     speedgoat_IO316_CI_01547.obj
 0002:00000ce4       ??_C@_06KFNFIEK@?$CF15?46f?$AA@ 10046ce4     speedgoat_IO316_CI_01547.obj
 0002:00000cec       ??_C@_0BI@PBFPDHLE@Error?5creating?5scope?54?6?$AA@ 10046cec     speedgoat_IO316_CI_01547.obj
 0002:00000d08       ??_C@_0M@DKBHJJKM@spi?1SPI2?1s1?$AA@ 10046d08     speedgoat_IO316_CI_01547.obj
 0002:00000d18       ??_C@_0M@BBDKMKGP@spi?1SPI2?1s2?$AA@ 10046d18     speedgoat_IO316_CI_01547.obj
 0002:00000d28       ??_C@_0M@ICBPLCO@spi?1SPI2?1s3?$AA@ 10046d28     speedgoat_IO316_CI_01547.obj
 0002:00000d38       ??_C@_0M@EHGAGNOJ@spi?1SPI2?1s4?$AA@ 10046d38     speedgoat_IO316_CI_01547.obj
 0002:00000d48       ??_C@_0BC@OJJPBDHH@FixedStepDiscrete?$AA@ 10046d48     speedgoat_IO316_CI_01547.obj
 0002:00000d60       ??_C@_04EPKDLPPB@tout?$AA@ 10046d60     speedgoat_IO316_CI_01547.obj
 0002:00000d66       ??_C@_00CNPNBAHC@?$AA@     10046d66     speedgoat_IO316_CI_01547.obj
 0002:00000d68       ??_C@_03HBFGMJOD@rt_?$AA@  10046d68     speedgoat_IO316_CI_01547.obj
 0002:00000d6c       ??_C@_05MKNDILO@Setup?$AA@ 10046d6c     speedgoat_IO316_CI_01547.obj
 0002:00000d74       ??_C@_0BP@PMABGOPE@speedgoat_IO316_CI_01547?1Setup?$AA@ 10046d74     speedgoat_IO316_CI_01547.obj
 0002:00000d9c       ??_C@_0O@PIIBOFI@Digital?5input?$AA@ 10046d9c     speedgoat_IO316_CI_01547.obj
 0002:00000dac       ??_C@_0CL@EDDDBCNK@speedgoat_IO316_CI_01547?1dio?1Dig@ 10046dac     speedgoat_IO316_CI_01547.obj
 0002:00000de0       ??_C@_0P@OHLBBGIN@Digital?5output?$AA@ 10046de0     speedgoat_IO316_CI_01547.obj
 0002:00000df4       ??_C@_0CM@OEELEPIN@speedgoat_IO316_CI_01547?1dio?1Dig@ 10046df4     speedgoat_IO316_CI_01547.obj
 0002:00000e28       ??_C@_03EKAEFKFD@SPI?$AA@  10046e28     speedgoat_IO316_CI_01547.obj
 0002:00000e2c       ??_C@_0CB@CECBFJNL@speedgoat_IO316_CI_01547?1spi?1SPI@ 10046e2c     speedgoat_IO316_CI_01547.obj
 0002:00000e54       ??_C@_04BPFIFAGF@SPI2?$AA@ 10046e54     speedgoat_IO316_CI_01547.obj
 0002:00000e5c       ??_C@_0CC@PMFFHOHE@speedgoat_IO316_CI_01547?1spi?1SPI@ 10046e5c     speedgoat_IO316_CI_01547.obj
 0002:00000e88       __real@3f50624dd2f1a9fc    10046e88     speedgoat_IO316_CI_01547.obj
 0002:00000e98       __real@3ff0000000000000    10046e98     speedgoat_IO316_CI_01547.obj
 0002:00000ea8       __real@4008000000000000    10046ea8     speedgoat_IO316_CI_01547.obj
 0002:00000eb8       __real@406f400000000000    10046eb8     speedgoat_IO316_CI_01547.obj
 0002:00000ec8       __real@41f0000000000000    10046ec8     speedgoat_IO316_CI_01547.obj
 0002:00000ed8       __real@4330000000000000    10046ed8     speedgoat_IO316_CI_01547.obj
 0002:00000ee8       __real@8000000000000000    10046ee8     speedgoat_IO316_CI_01547.obj
 0002:00000ef8       __real@bff0000000000000    10046ef8     speedgoat_IO316_CI_01547.obj
 0002:00000f10       __xmm@00000000000000003f50624dd2f1a9fc 10046f10     speedgoat_IO316_CI_01547.obj
 0002:00000f30       __xmm@0016aad7000000230000003c00000001 10046f30     speedgoat_IO316_CI_01547.obj
 0002:00000f50       __xmm@41f00000000000000000000000000000 10046f50     speedgoat_IO316_CI_01547.obj
 0002:00000f70       __xmm@80000000000000008000000000000000 10046f70     speedgoat_IO316_CI_01547.obj
 0002:00000f88       __real@3cb0000000000000    10046f88     rt_matrx.obj
 0002:00000f98       __real@3fe0000000000000    10046f98     rt_matrx.obj
 0002:00001da4       ??_C@_0BE@JJHKHIGO@dio?1Pulse?5Generator?$AA@ 10047da4     speedgoat_IO316_CI_01547_capi.obj
 0002:00001dbc       ??_C@_0BF@LJPEJNGE@dio?1Digital?5input?1p2?$AA@ 10047dbc     speedgoat_IO316_CI_01547_capi.obj
 0002:00001dd8       ??_C@_0BF@KAOPKMCF@dio?1Digital?5input?1p3?$AA@ 10047dd8     speedgoat_IO316_CI_01547_capi.obj
 0002:00001df4       ??_C@_0BF@OPKODKOC@dio?1Digital?5input?1p4?$AA@ 10047df4     speedgoat_IO316_CI_01547_capi.obj
 0002:00001e10       ??_C@_0BF@NNJIFIGA@dio?1Digital?5input?1p6?$AA@ 10047e10     speedgoat_IO316_CI_01547_capi.obj
 0002:00001e2c       ??_C@_0BF@MEIDGJCB@dio?1Digital?5input?1p7?$AA@ 10047e2c     speedgoat_IO316_CI_01547_capi.obj
 0002:00001e48       ??_C@_0BF@EDBLHFOO@dio?1Digital?5input?1p8?$AA@ 10047e48     speedgoat_IO316_CI_01547_capi.obj
 0002:00001e64       ??_C@_0BK@LGPAINCK@spi?1Data?5Type?5Conversion1?$AA@ 10047e64     speedgoat_IO316_CI_01547_capi.obj
 0002:00001e84       ??_C@_0BK@JNNNNOOJ@spi?1Data?5Type?5Conversion2?$AA@ 10047e84     speedgoat_IO316_CI_01547_capi.obj
 0002:00001ea4       ??_C@_0BK@IEMGOPKI@spi?1Data?5Type?5Conversion3?$AA@ 10047ea4     speedgoat_IO316_CI_01547_capi.obj
 0002:00001ec4       ??_C@_0BK@MLIHHJGP@spi?1Data?5Type?5Conversion4?$AA@ 10047ec4     speedgoat_IO316_CI_01547_capi.obj
 0002:00001ee4       ??_C@_0BK@NCJMEICO@spi?1Data?5Type?5Conversion5?$AA@ 10047ee4     speedgoat_IO316_CI_01547_capi.obj
 0002:00001f04       ??_C@_0BK@PJLBBLON@spi?1Data?5Type?5Conversion6?$AA@ 10047f04     speedgoat_IO316_CI_01547_capi.obj
 0002:00001f24       ??_C@_07KMLPPKDJ@spi?1SPI?$AA@ 10047f24     speedgoat_IO316_CI_01547_capi.obj
 0002:00001f30       ??_C@_08LCNJGDID@spi?1SPI2?$AA@ 10047f30     speedgoat_IO316_CI_01547_capi.obj
 0002:00001f3c       ??_C@_0CB@ELGFPBHK@spi?1Counter?5Free?9Running1?1Output@ 10047f3c     speedgoat_IO316_CI_01547_capi.obj
 0002:00001f64       ??_C@_0CB@HCOIMNLP@spi?1Counter?5Free?9Running2?1Output@ 10047f64     speedgoat_IO316_CI_01547_capi.obj
 0002:00001f8c       ??_C@_0CB@GFJDNJPM@spi?1Counter?5Free?9Running3?1Output@ 10047f8c     speedgoat_IO316_CI_01547_capi.obj
 0002:00001fb4       ??_C@_0CB@BPCLEDF@spi?1Counter?5Free?9Running4?1Output@ 10047fb4     speedgoat_IO316_CI_01547_capi.obj
 0002:00001fdc       ??_C@_0DK@IEINHDBO@spi?1Counter?5Free?9Running1?1Increm@ 10047fdc     speedgoat_IO316_CI_01547_capi.obj
 0002:00002024       ??_C@_0DE@FEAPHAID@spi?1Counter?5Free?9Running1?1Wrap?5T@ 10048024     speedgoat_IO316_CI_01547_capi.obj
 0002:00002064       ??_C@_0DK@OJALIAEE@spi?1Counter?5Free?9Running2?1Increm@ 10048064     speedgoat_IO316_CI_01547_capi.obj
 0002:000020ac       ??_C@_0DE@FGNBHHKE@spi?1Counter?5Free?9Running2?1Wrap?5T@ 100480ac     speedgoat_IO316_CI_01547_capi.obj
 0002:000020ec       ??_C@_0DK@MNIJNBHC@spi?1Counter?5Free?9Running3?1Increm@ 100480ec     speedgoat_IO316_CI_01547_capi.obj
 0002:00002134       ??_C@_0DE@FHGEIKLJ@spi?1Counter?5Free?9Running3?1Wrap?5T@ 10048134     speedgoat_IO316_CI_01547_capi.obj
 0002:00002174       ??_C@_0DK@DCAGGGPA@spi?1Counter?5Free?9Running4?1Increm@ 10048174     speedgoat_IO316_CI_01547_capi.obj
 0002:000021bc       ??_C@_0DE@FDGNHJOK@spi?1Counter?5Free?9Running4?1Wrap?5T@ 100481bc     speedgoat_IO316_CI_01547_capi.obj
 0002:000021fc       ??_C@_02KKFPAPOP@P1?$AA@   100481fc     speedgoat_IO316_CI_01547_capi.obj
 0002:00002200       ??_C@_02IBHCFMCM@P2?$AA@   10048200     speedgoat_IO316_CI_01547_capi.obj
 0002:00002204       ??_C@_02JIGJGNGN@P3?$AA@   10048204     speedgoat_IO316_CI_01547_capi.obj
 0002:00002208       ??_C@_02NHCIPLKK@P4?$AA@   10048208     speedgoat_IO316_CI_01547_capi.obj
 0002:0000220c       ??_C@_02MODDMKOL@P5?$AA@   1004820c     speedgoat_IO316_CI_01547_capi.obj
 0002:00002210       ??_C@_02OFBOJJCI@P6?$AA@   10048210     speedgoat_IO316_CI_01547_capi.obj
 0002:00002214       ??_C@_02PMAFKIGJ@P7?$AA@   10048214     speedgoat_IO316_CI_01547_capi.obj
 0002:00002218       ??_C@_02HLJNLEKG@P8?$AA@   10048218     speedgoat_IO316_CI_01547_capi.obj
 0002:0000221c       ??_C@_02GCIGIFOH@P9?$AA@   1004821c     speedgoat_IO316_CI_01547_capi.obj
 0002:00002220       ??_C@_03OPFJJGBF@P10?$AA@  10048220     speedgoat_IO316_CI_01547_capi.obj
 0002:00002224       ??_C@_03PGECKHFE@P11?$AA@  10048224     speedgoat_IO316_CI_01547_capi.obj
 0002:00002228       ??_C@_09IHLJOMI@Amplitude?$AA@ 10048228     speedgoat_IO316_CI_01547_capi.obj
 0002:00002234       ??_C@_06JOFJHOEH@Period?$AA@ 10048234     speedgoat_IO316_CI_01547_capi.obj
 0002:0000223c       ??_C@_0L@HCJBDGGO@PulseWidth?$AA@ 1004823c     speedgoat_IO316_CI_01547_capi.obj
 0002:0000224c       ??_C@_0L@JNLMCMDB@PhaseDelay?$AA@ 1004824c     speedgoat_IO316_CI_01547_capi.obj
 0002:0000225c       ??_C@_0BC@CMPOHDOJ@dio?1Digital?5input?$AA@ 1004825c     speedgoat_IO316_CI_01547_capi.obj
 0002:00002274       ??_C@_0BD@FLPEODPK@dio?1Digital?5output?$AA@ 10048274     speedgoat_IO316_CI_01547_capi.obj
 0002:0000228c       ??_C@_0N@HIAJJBJA@spi?1Constant?$AA@ 1004828c     speedgoat_IO316_CI_01547_capi.obj
 0002:0000229c       ??_C@_05LPIJGKJ@Value?$AA@ 1004829c     speedgoat_IO316_CI_01547_capi.obj
 0002:000022a4       ??_C@_0O@DGCKJNGH@spi?1Constant1?$AA@ 100482a4     speedgoat_IO316_CI_01547_capi.obj
 0002:000022b4       ??_C@_0O@BNAHMOKE@spi?1Constant2?$AA@ 100482b4     speedgoat_IO316_CI_01547_capi.obj
 0002:000022c4       ??_C@_0O@EBMPPOF@spi?1Constant3?$AA@ 100482c4     speedgoat_IO316_CI_01547_capi.obj
 0002:000022d4       ??_C@_03NNGPPEJH@P12?$AA@  100482d4     speedgoat_IO316_CI_01547_capi.obj
 0002:000022d8       ??_C@_03MEHEMFNG@P13?$AA@  100482d8     speedgoat_IO316_CI_01547_capi.obj
 0002:000022dc       ??_C@_03ILDFFDBB@P14?$AA@  100482dc     speedgoat_IO316_CI_01547_capi.obj
 0002:000022e0       ??_C@_03JCCOGCFA@P15?$AA@  100482e0     speedgoat_IO316_CI_01547_capi.obj
 0002:000022e4       ??_C@_03LJADDBJD@P16?$AA@  100482e4     speedgoat_IO316_CI_01547_capi.obj
 0002:000022e8       ??_C@_04OMOMKKFL@Gain?$AA@ 100482e8     speedgoat_IO316_CI_01547_capi.obj
 0002:000022f0       ??_C@_0CH@JKENICLD@spi?1Counter?5Free?9Running1?1Wrap?5T@ 100482f0     speedgoat_IO316_CI_01547_capi.obj
 0002:00002320       ??_C@_09HLCHFPPJ@Threshold?$AA@ 10048320     speedgoat_IO316_CI_01547_capi.obj
 0002:0000232c       ??_C@_0BB@CFEOEMDC@InitialCondition?$AA@ 1004832c     speedgoat_IO316_CI_01547_capi.obj
 0002:00002340       ??_C@_0CH@ILDAOIMK@spi?1Counter?5Free?9Running2?1Wrap?5T@ 10048340     speedgoat_IO316_CI_01547_capi.obj
 0002:00002370       ??_C@_0CH@DCMLDDCC@spi?1Counter?5Free?9Running3?1Wrap?5T@ 10048370     speedgoat_IO316_CI_01547_capi.obj
 0002:000023a0       ??_C@_0CH@KJMKDMDI@spi?1Counter?5Free?9Running4?1Wrap?5T@ 100483a0     speedgoat_IO316_CI_01547_capi.obj
 0002:000023d0       ??_C@_0DO@DGJIAFED@spi?1Counter?5Free?9Running1?1Increm@ 100483d0     speedgoat_IO316_CI_01547_capi.obj
 0002:0000241c       ??_C@_0DA@HJLJEOIN@spi?1Counter?5Free?9Running1?1Wrap?5T@ 1004841c     speedgoat_IO316_CI_01547_capi.obj
 0002:00002458       ??_C@_0DO@HLHAAFCE@spi?1Counter?5Free?9Running2?1Increm@ 10048458     speedgoat_IO316_CI_01547_capi.obj
 0002:000024a4       ??_C@_0DA@CBKHOHKF@spi?1Counter?5Free?9Running2?1Wrap?5T@ 100484a4     speedgoat_IO316_CI_01547_capi.obj
 0002:000024e0       ??_C@_0DO@PGPIPIMG@spi?1Counter?5Free?9Running3?1Increm@ 100484e0     speedgoat_IO316_CI_01547_capi.obj
 0002:0000252c       ??_C@_0DA@KAICICIC@spi?1Counter?5Free?9Running3?1Wrap?5T@ 1004852c     speedgoat_IO316_CI_01547_capi.obj
 0002:00002568       ??_C@_0DO@OAKAAFOK@spi?1Counter?5Free?9Running4?1Increm@ 10048568     speedgoat_IO316_CI_01547_capi.obj
 0002:000025b4       ??_C@_0DA@JBJKLFPF@spi?1Counter?5Free?9Running4?1Wrap?5T@ 100485b4     speedgoat_IO316_CI_01547_capi.obj
 0002:000025f0       ??_C@_06BNJCAIGJ@double?$AA@ 100485f0     speedgoat_IO316_CI_01547_capi.obj
 0002:000025f8       ??_C@_06CNMIJIPB@real_T?$AA@ 100485f8     speedgoat_IO316_CI_01547_capi.obj
 0002:00002600       ??_C@_0N@OFHMGPAL@unsigned?5int?$AA@ 10048600     speedgoat_IO316_CI_01547_capi.obj
 0002:00002610       ??_C@_08CCMIKNJF@uint32_T?$AA@ 10048610     speedgoat_IO316_CI_01547_capi.obj
 0002:0000261c       ??_C@_0O@PPAIJIHF@unsigned?5char?$AA@ 1004861c     speedgoat_IO316_CI_01547_capi.obj
 0002:0000262c       ??_C@_07NCEHLPOC@uint8_T?$AA@ 1004862c     speedgoat_IO316_CI_01547_capi.obj
 0002:00002638       ??_C@_05KNFBNCOH@float?$AA@ 10048638     speedgoat_IO316_CI_01547_capi.obj
 0002:00002640       _serialfifoground          10048640     xpc_datatype_ground.obj
 0002:0000264c       _bcmsg1553ground           1004864c     xpc_datatype_ground.obj
 0002:0000265c       _bcstatground              1004865c     xpc_datatype_ground.obj
 0002:00002674       _bmmsg1553ground           10048674     xpc_datatype_ground.obj
 0002:000026b0       ??_C@_0BI@INNPNFJN@Memory?5Allocation?5Error?$AA@ 100486b0     rtw_modelmap_utils.obj
 0002:000026d0       ??_C@_1HC@IFMGIDHA@?$AAC?$AA?3?$AA?2?$AAP?$AAR?$AAO?$AAG?$AAR?$AAA?$AA?$HO?$AA1?$AA?2?$AAM?$AAA?$AAT?$AAL?$AAA?$AAB?$AA?2?$AAR?$AA2?$AA0?$AA1?$AA7?$AAa?$AA?2?$AAr?$AAt?$AAw?$AA?2?$AAc?$AA?2@ 100486d0     rtw_modelmap_utils.obj
 0002:00002758       ??_C@_1CI@OEAJCJND@?$AAj?$AA?5?$AA?$DN?$AA?$DN?$AA?5?$AAe?$AAn?$AAc?$AAo?$AAd?$AAe?$AAd?$AAP?$AAa?$AAt?$AAh?$AAL?$AAe?$AAn?$AA?$AA@ 10048758     rtw_modelmap_utils.obj
 0002:00002788       ??_C@_1DC@NFAOIFKB@?$AAe?$AAn?$AAc?$AAo?$AAd?$AAe?$AAd?$AAP?$AAa?$AAt?$AAh?$AA?$FL?$AAj?$AA?9?$AA1?$AA?$FN?$AA?5?$AA?$DN?$AA?$DN?$AA?5?$AA?8?$AA?2?$AA0?$AA?8?$AA?$AA@ 10048788     rtw_modelmap_utils.obj
 0002:000027c4       ??_C@_1DI@FLNJGPEE@?$AAs?$AAi?$AAg?$AAC?$AAo?$AAm?$AAp?$AAl?$AAe?$AAx?$AAi?$AAt?$AAy?$AA?$FL?$AA?$CK?$AAs?$AAi?$AAg?$AAI?$AAd?$AAx?$AA?$FN?$AA?5?$AA?$CB?$AA?$DN?$AA?5?$AA1?$AA?$AA@ 100487c4     rtw_modelmap_utils.obj
 0002:00002808       ??_C@_1KI@OFELMGBG@?$AA?$CI?$AA?$CI?$AA?$CI?$AAd?$AAa?$AAt?$AAa?$AAT?$AAy?$AAp?$AAe?$AAM?$AAa?$AAp?$AA?$CJ?$AA?$FL?$AA?$CI?$AA?$CI?$AA?$CI?$AAs?$AAt?$AAa?$AAt?$AAe?$AAs?$AA?$CJ?$AA?$FL?$AA?$CI?$AAi?$AA?$CJ?$AA?$FN?$AA?4@ 10048808     rtw_modelmap_utils.obj
 0002:000028d4       ??_C@_1DA@ILCMPHNE@?$AAf?$AAu?$AAl?$AAl?$AAP?$AAa?$AAt?$AAh?$AA?5?$AA?$CB?$AA?$DN?$AA?5?$AA?$CI?$AA?$CI?$AAv?$AAo?$AAi?$AAd?$AA?5?$AA?$CK?$AA?$CJ?$AA0?$AA?$CJ?$AA?$AA@ 100488d4     rtw_modelmap_utils.obj
 0002:00002910       ??_C@_1CI@OEPPFCCA@?$AAp?$AAa?$AAt?$AAh?$AA?5?$AA?$CB?$AA?$DN?$AA?5?$AA?$CI?$AA?$CI?$AAv?$AAo?$AAi?$AAd?$AA?5?$AA?$CK?$AA?$CJ?$AA0?$AA?$CJ?$AA?$AA@ 10048910     rtw_modelmap_utils.obj
 0002:00002940       ??_C@_1FK@GLJIMFHB@?$AA?$CI?$AA?$CI?$AAm?$AAm?$AAi?$AA?$CJ?$AA?9?$AA?$DO?$AAI?$AAn?$AAs?$AAt?$AAa?$AAn?$AAc?$AAe?$AAM?$AAa?$AAp?$AA?4?$AAf?$AAu?$AAl?$AAl?$AAP?$AAa?$AAt?$AAh?$AA?$CJ?$AA?5?$AA?$DN?$AA?$DN@ 10048940     rtw_modelmap_utils.obj
 0002:000029ac       ??_C@_1DG@HPCJGNCE@?$AAm?$AAm?$AAi?$AAP?$AAa?$AAt?$AAh?$AA?$FL?$AAp?$AAa?$AAt?$AAh?$AAL?$AAe?$AAn?$AA?9?$AA1?$AA?$FN?$AA?5?$AA?$DN?$AA?$DN?$AA?5?$AA?8?$AA?2?$AA0?$AA?8?$AA?$AA@ 100489ac     rtw_modelmap_utils.obj
 0002:000029ec       ??_C@_1DM@DBAOGGOO@?$AAm?$AAm?$AAi?$AAP?$AAa?$AAt?$AAh?$AA?$FL?$AAm?$AAm?$AAi?$AAP?$AAa?$AAt?$AAh?$AAL?$AAe?$AAn?$AA?9?$AA1?$AA?$FN?$AA?5?$AA?$DN?$AA?$DN?$AA?5?$AA?8?$AA?2?$AA0?$AA?8?$AA?$AA@ 100489ec     rtw_modelmap_utils.obj
 0002:00002a34       ??_C@_1DC@LHIAKAFE@?$AAb?$AAl?$AAo?$AAc?$AAk?$AAP?$AAa?$AAt?$AAh?$AA?5?$AA?$CB?$AA?$DN?$AA?5?$AA?$CI?$AA?$CI?$AAv?$AAo?$AAi?$AAd?$AA?5?$AA?$CK?$AA?$CJ?$AA0?$AA?$CJ?$AA?$AA@ 10048a34     rtw_modelmap_utils.obj
 0002:00002a70       ??_C@_1GI@KIEJKPGC@?$AAf?$AAu?$AAl?$AAl?$AAS?$AAt?$AAa?$AAt?$AAe?$AAB?$AAl?$AAo?$AAc?$AAk?$AAP?$AAa?$AAt?$AAh?$AA?$FL?$AAf?$AAu?$AAl?$AAl?$AAS?$AAt?$AAa?$AAt?$AAe?$AAB?$AAl?$AAo?$AAc@ 10048a70     rtw_modelmap_utils.obj
 0002:00002af0       ??_C@_1EE@DNPIBJHC@?$AA?$CI?$AA?$CI?$AAd?$AAi?$AAm?$AAM?$AAa?$AAp?$AA?$CJ?$AA?$FL?$AA?$CI?$AAm?$AAa?$AAp?$AAI?$AAd?$AAx?$AA?$CJ?$AA?$FN?$AA?4?$AAn?$AAu?$AAm?$AAD?$AAi?$AAm?$AAs?$AA?$CJ?$AA?5?$AA?$DN?$AA?$DN?$AA?5@ 10048af0     rtw_modelmap_utils.obj
 0002:00002b44       ??_C@_06JFOKFOED@CSTATE?$AA@ 10048b44     rtw_modelmap_utils.obj
 0002:00002b4c       ??_C@_06FAENGAMN@DSTATE?$AA@ 10048b4c     rtw_modelmap_utils.obj
 0002:00002b54       ??_C@_1BI@LEBJNOGG@?$AAc?$AAs?$AAv?$AAI?$AAd?$AAx?$AA?5?$AA?$DO?$AA?$DN?$AA?5?$AA0?$AA?$AA@ 10048b54     rtw_modelmap_utils.obj
 0002:00002b70       ??_C@_1BA@KDMGHCHP@?$AAT?$AAI?$AAD?$AA?$DN?$AA?$DN?$AA?9?$AA1?$AA?$AA@ 10048b70     rtw_modelmap_utils.obj
 0002:00002b84       ??_C@_1DM@DHGKBPCE@?$AAs?$AAi?$AAg?$AAP?$AAa?$AAt?$AAh?$AA?$FL?$AAs?$AAi?$AAg?$AAP?$AAa?$AAt?$AAh?$AAL?$AAe?$AAn?$AA?9?$AA1?$AA?$FN?$AA?5?$AA?$DN?$AA?$DN?$AA?5?$AA?8?$AA?2?$AA0?$AA?8?$AA?$AA@ 10048b84     rtw_modelmap_utils.obj
 0002:00003430       ??_C@_0DJ@FHKINPLE@Unexpected?5itemKind?5?$DN?5DATA_ITEM?5@ 10049430     rt_logging.obj
 0002:00003474       ??_C@_0DA@IEHFPFCJ@Unexpected?5itemKind?$DN?$CFd?5in?5rt_Pro@ 10049474     rt_logging.obj
 0002:000034b0       ??_C@_0DA@IFLHJPBO@Unexpected?5itemKind?$DN?$CFd?5in?5rt_Pro@ 100494b0     rt_logging.obj
 0002:000034ec       ??_C@_0DA@IAPIIJJL@Unexpected?5itemKind?$DN?$CFd?5in?5rt_Pro@ 100494ec     rt_logging.obj
 0002:00003528       ??_C@_0BE@LCIGPJIG@MATLAB?55?40?5MAT?9file?$AA@ 10049528     rt_logging.obj
 0002:00003540       ??_C@_0FB@PCJEAJIB@?$CK?$CK?$CK?5Log?5variable?5?$CFs?5has?5wrapped?5@ 10049540     rt_logging.obj
 0002:000035a8       ??_C@_0MG@NKMLMOGF@?$CK?$CK?$CK?5To?5avoid?5wrapping?0?5explicitl@ 100495a8     rt_logging.obj
 0002:00003698       ??_C@_0N@IPAEOLLP@_rtw_tmw?4tmw?$AA@ 10049698     rt_logging.obj
 0002:000036a8       ??_C@_04HDOCAJNK@?$CFs?$CFs?$AA@ 100496a8     rt_logging.obj
 0002:000036b0       ??_C@_03ELIABIOC@w?$CLb?$AA@ 100496b0     rt_logging.obj
 0002:000036b4       ??_C@_0BF@JPILDDFA@?$CK?$CK?$CK?5Error?5opening?5?$CFs?$AA@ 100496b4     rt_logging.obj
 0002:000036d0       ??_C@_0BK@EEMDELA@unable?5to?5open?5data?5file?6?$AA@ 100496d0     rt_logging.obj
 0002:000036f0       ??_C@_04CGFJFPFD@none?$AA@ 100496f0     rt_logging.obj
 0002:000036f8       ??_C@_0EE@LCGFPNON@?$CK?$CK?$CK?5Error?5creating?5signals?5struc@ 100496f8     rt_logging.obj
 0002:0000374c       ??_C@_0CE@NHECEDMK@?$CK?$CK?$CK?5Error?5creating?5log?5variable?5@ 1004974c     rt_logging.obj
 0002:00003778       ??_C@_0DB@IOCGKAGH@?$CK?$CK?$CK?5Errors?5occurred?5when?5startin@ 10049778     rt_logging.obj
 0002:000037b4       ??_C@_0BO@BBLOGEBK@?$CK?$CK?$CK?5Memory?5allocation?5error?4?6?$AA@ 100497b4     rt_logging.obj
 0002:000037d8       ??_C@_0N@LGFBAGEL@?5?$CIreal?5part?$CJ?$AA@ 100497d8     rt_logging.obj
 0002:000037e8       ??_C@_0KH@CGNMHNFE@?5?5?5?5varName?5?5?5?5?5?5?5?5?5?5?$DN?5?$CFs?$CFs?6?5?5?5?5@ 100497e8     rt_logging.obj
 0002:000038b0       ??_C@_0LE@OALKKEFM@?5?5?5?5varName?5?5?5?5?5?5?5?5?5?5?$DN?5?$CFs?5?$CIcompl@ 100498b0     rt_logging.obj
 0002:00003988       ??_C@_0KF@JDDLEOKO@?5?5?5?5varName?5?5?5?5?5?5?5?5?5?5?$DN?5?$CFs?6?5?5?5?5nR@ 10049988     rt_logging.obj
 0002:00003a50       ??_C@_0DP@HPDMIOFM@?$CK?$CK?$CK?5Using?5a?5default?5buffer?5of?5si@ 10049a50     rt_logging.obj
 0002:00003aa0       ??_C@_0KE@JEFOLKNF@?6?$CK?$CK?$CK?5Memory?5required?5to?5log?5vari@ 10049aa0     rt_logging.obj
 0002:00003b68       ??_C@_0JP@DKLMHCBI@?$CK?$CK?$CK?5Details?3?6?5?5?5?5?5?5?5varName?5?5?5?5?5@ 10049b68     rt_logging.obj
 0002:00003c28       ??_C@_0CM@CAMILBED@?$CK?$CK?$CK?5Error?5allocating?5memory?5for?5@ 10049c28     rt_logging.obj
 0002:00003c5c       ??_C@_0DF@BBCNMOPM@?$CK?$CK?$CK?5Error?5allocating?5memory?5for?5@ 10049c5c     rt_logging.obj
 0002:00003ca0       ??_C@_0JP@DBCLPCCI@?$CK?$CK?$CK?5Details?3?6?5?5?5?5?5?5?5varName?5?5?5?5?5@ 10049ca0     rt_logging.obj
 0002:00003d60       ??_C@_0FK@DPGAOBGA@?$CK?$CK?$CK?5Error?5allocating?5memory?5for?5@ 10049d60     rt_logging.obj
 0002:00003dcc       ??_C@_0BI@GGDNPHLJ@?$CK?$CK?$CK?5Error?5writing?5to?5?$CFs?$AA@ 10049dcc     rt_logging.obj
 0002:00003de8       ??_C@_0CB@IBGJGELG@?$CK?$CK?$CK?5Error?5writing?5?$CFs?5due?5to?3?5?$CFs?6@ 10049de8     rt_logging.obj
 0002:00003e10       ??_C@_0CN@FLMCHCPB@?$CK?$CK?$CK?5Error?5writing?5log?5variable?5?$CF@ 10049e10     rt_logging.obj
 0002:00003e48       ??_C@_0DH@GAJCNOJP@?$CK?$CK?$CK?5Error?5writing?5structure?5log?5@ 10049e48     rt_logging.obj
 0002:00003e8c       ??_C@_0BD@POEALECL@?$CK?$CK?5created?5?$CFs?5?$CK?$CK?6?6?$AA@ 10049e8c     rt_logging.obj
 0002:00003ea8       __real@0000000000000000    10049ea8     rt_logging.obj
 0002:00003eb8       __real@4020000000000000    10049eb8     rt_logging.obj
 0002:00003ec8       __real@41dfffffffc00000    10049ec8     rt_logging.obj
 0002:00003ed8       __real@41efffffffe00000    10049ed8     rt_logging.obj
 0002:00003ee8       __real@bfbf9add3afd2773    10049ee8     rt_logging.obj
 0002:00003ef8       __real@c000000000000000    10049ef8     rt_logging.obj
 0002:00003f10       __xmm@20202020202020202020202020202020 10049f10     rt_logging.obj
 0002:00003f24       ??_C@_0BE@DPOGKMGB@Speedgoat?5IO306?925k?$AA@ 10049f24     sg_fpga_io3xx_util.obj
 0002:00003f3c       ??_C@_0BE@PELKHPME@Speedgoat?5IO307?925k?$AA@ 10049f3c     sg_fpga_io3xx_util.obj
 0002:00003f54       ??_C@_0BE@FOMMNBB@Speedgoat?5IO308?925k?$AA@ 10049f54     sg_fpga_io3xx_util.obj
 0002:00003f6c       ??_C@_0BA@INBMPPBI@Speedgoat?5IO316?$AA@ 10049f6c     sg_fpga_io3xx_util.obj
 0002:00003f80       ??_C@_0BF@GALOEOCD@Speedgoat?5IO316?9100k?$AA@ 10049f80     sg_fpga_io3xx_util.obj
 0002:00003f9c       ??_C@_0BA@JEAHMOFJ@Speedgoat?5IO317?$AA@ 10049f9c     sg_fpga_io3xx_util.obj
 0002:00003fb0       ??_C@_0BF@MGMJEFJH@Speedgoat?5IO317?9100k?$AA@ 10049fb0     sg_fpga_io3xx_util.obj
 0002:00003fcc       ??_C@_0BA@BDJPNCJG@Speedgoat?5IO318?$AA@ 10049fcc     sg_fpga_io3xx_util.obj
 0002:00003fe0       ??_C@_0BF@DAIBDFHO@Speedgoat?5IO318?9100k?$AA@ 10049fe0     sg_fpga_io3xx_util.obj
 0002:00003ffc       ??_C@_0BA@OLDGIEEF@Speedgoat?5IO322?$AA@ 10049ffc     sg_fpga_io3xx_util.obj
 0002:00004010       ??_C@_0BA@PCCNLFAE@Speedgoat?5IO323?$AA@ 1004a010     sg_fpga_io3xx_util.obj
 0002:00004024       ??_C@_0BA@MBNJLNLB@Speedgoat?5IO331?$AA@ 1004a024     sg_fpga_io3xx_util.obj
 0002:00004038       ??_C@_0BJ@HCLFJHCK@Speedgoat?5IO333?9325k?9SFP?$AA@ 1004a038     sg_fpga_io3xx_util.obj
 0002:00004058       ??_C@_0BJ@MKGDNCKH@Speedgoat?5IO333?9410k?9SFP?$AA@ 1004a058     sg_fpga_io3xx_util.obj
 0002:00004078       ??_C@_0BF@KGKBDPPJ@Speedgoat?5IO333?9325k?$AA@ 1004a078     sg_fpga_io3xx_util.obj
 0002:00004094       ??_C@_0BF@PPIOOM@Speedgoat?5IO333?9410k?$AA@ 1004a094     sg_fpga_io3xx_util.obj
 0002:000040b0       ??_C@_0BI@LIMKKJAH@Speedgoat?5IO333?9325k?9CC?$AA@ 1004a0b0     sg_fpga_io3xx_util.obj
 0002:000040cc       ??_C@_0BI@NDCKCLDA@Speedgoat?5IO333?9410k?9CC?$AA@ 1004a0cc     sg_fpga_io3xx_util.obj
 0002:000040e8       ??_C@_0BA@OPLLPIPH@Speedgoat?5IO342?$AA@ 1004a0e8     sg_fpga_io3xx_util.obj
 0002:000040fc       ??_C@_0BE@FMMEHDLF@Speedgoat?5IO383?925k?$AA@ 1004a0fc     sg_fpga_io3xx_util.obj
 0002:00004114       ??_C@_0BE@PKDOMAEF@Speedgoat?5IO397?950k?$AA@ 1004a114     sg_fpga_io3xx_util.obj
 0002:0000412c       ??_C@_0CO@ENFADFDP@IO3xx?5util?3?5unrecognized?5FPGA?5bo@ 1004a12c     sg_fpga_io3xx_util.obj
 0002:00004164       _ptsetfilename             1004a164     xpctarget.obj
 0002:00004168       _xmlfile                   1004a168     xpctarget.obj
 0002:00004170       ??_C@_0BJ@HCEFFMCD@speedgoat_IO316_CI_01547?$AA@ 1004a170     xpctarget.obj
 0002:00004190       ??_C@_0L@CHBJKKFC@xpceSetVar?$AA@ 1004a190     xpctarget.obj
 0002:000041a0       ??_C@_03LADEHNAB@6?46?$AA@ 1004a1a0     xpctarget.obj
 0002:000041a8       __real@3fb999999999999a    1004a1a8     xpctarget.obj
 0002:000041b8       __real@408f400000000000    1004a1b8     xpctarget.obj
 0002:000041c8       _speedgoat_IO316_CI_01547_BIOMAP 1004a1c8     appmappingData.obj
 0002:00004378       _speedgoat_IO316_CI_01547_LBLMAP 1004a378     appmappingData.obj
 0002:00004528       _speedgoat_IO316_CI_01547_SIDMAP 1004a528     appmappingData.obj
 0002:000046d8       _speedgoat_IO316_CI_01547_SBIO 1004a6d8     appmappingData.obj
 0002:00004768       _speedgoat_IO316_CI_01547_SLBL 1004a768     appmappingData.obj
 0002:000047f8       _speedgoat_IO316_CI_01547_PTIDSMAP 1004a7f8     appmappingData.obj
 0002:00004aa8       _speedgoat_IO316_CI_01547_PTNAMESMAP 1004aaa8     appmappingData.obj
 0002:00004d58       _speedgoat_IO316_CI_01547_SPTMAP 1004ad58     appmappingData.obj
 0002:00004eb0       _speedgoat_IO316_CI_01547_dtmap 1004aeb0     appmappingData.obj
 0002:00004ed8       _appInfo                   1004aed8     appmappingData.obj
 0002:000051d0       ??_C@_0ED@LKHIFFLC@Wrong?5number?5of?5input?5arguments?5@ 1004b1d0     sg_fpga_di_sf_a2.obj
 0002:00005220       ??_C@_0CL@PAFOELEC@IO3xx?5digital?5input?3?5board?5type?5@ 1004b220     sg_fpga_di_sf_a2.obj
 0002:00005254       ??_C@_0DN@KHLGDMGO@?$CFs?5?$CIbus?5?$CFd?0?5slot?5?$CFd?$CJ?3?5IO3xx?5digi@ 1004b254     sg_fpga_di_sf_a2.obj
 0002:000052a0       ??_C@_0BM@DCPIMNJK@Error?3?5unsupported?5channel?4?$AA@ 1004b2a0     sg_fpga_di_sf_a2.obj
 0002:000052c4       ??_C@_0DO@BPALHEDG@?$CFs?5?$CIbus?5?$CFd?0?5slot?5?$CFd?$CJ?3?5IO3xx?5digi@ 1004b2c4     sg_fpga_do_sf_a2.obj
 0002:00005310       _z3f2c743afd               1004b310     sg_fpga_setup_sf_3.obj
 0002:000053ac       ??_C@_0CD@JPDPEAIM@setup?5block?3?5board?5type?5incorrec@ 1004b3ac     sg_fpga_setup_sf_3.obj
 0002:000053d8       ??_C@_0CM@KENEKEFE@setup?5block?3?5module?5architecture@ 1004b3d8     sg_fpga_setup_sf_3.obj
 0002:0000540c       ??_C@_0BL@KLNDCOHD@pointer?5to?5io3xx?921?5failed?$AA@ 1004b40c     sg_fpga_setup_sf_3.obj
 0002:0000542c       ??_C@_0CD@BDNPBAHC@?$CFs?3?5Conditioning?5module?3?5io3xx_2@ 1004b42c     sg_fpga_setup_sf_3.obj
 0002:00005458       ??_C@_0BL@JCFOBCLG@pointer?5to?5io3xx?922?5failed?$AA@ 1004b458     sg_fpga_setup_sf_3.obj
 0002:00005478       ??_C@_0CD@BBJJKOCL@?$CFs?3?5Conditioning?5module?3?5io3xx_2@ 1004b478     sg_fpga_setup_sf_3.obj
 0002:000054a8       ??_C@_0EA@OOBFLHKG@?$CFs?5with?5Sub?9DeviceId?3?50x?$CFx?5?$CIbus?5@ 1004b4a8     sg_fpga_setup_sf_3.obj
 0002:000054f8       ??_C@_0FP@OMJFPPCO@Built?9in?5test?5register?50?3?50x?$CFX?6B@ 1004b4f8     sg_fpga_setup_sf_3.obj
 0002:0000556c       ??_C@_0BL@PLDPPDHF@?$CFs?5?3?5Built?9in?5tests?5failed?$AA@ 1004b56c     sg_fpga_setup_sf_3.obj
 0002:0000558c       ??_C@_0CC@FJDGPJEC@?$CFs?3?5prepare?5FPGA?5for?5programming@ 1004b58c     sg_fpga_setup_sf_3.obj
 0002:000055b4       ??_C@_0CB@HKFHNJOP@?$CFs?3?5ERROR?5preparing?5FPGA?5failed?6@ 1004b5b4     sg_fpga_setup_sf_3.obj
 0002:000055dc       ??_C@_0BM@INBMBGDH@?$CFs?3?5start?5programming?5FPGA?6?$AA@ 1004b5dc     sg_fpga_setup_sf_3.obj
 0002:00005600       ??_C@_0BK@CGHCNLMO@?$CFs?3?5?$CFd?5bytes?5to?5download?6?$AA@ 1004b600     sg_fpga_setup_sf_3.obj
 0002:00005620       ??_C@_0CD@JBIHHDOL@?$CFs?3?5ERROR?5programming?5FPGA?5faile@ 1004b620     sg_fpga_setup_sf_3.obj
 0002:0000564c       ??_C@_0CA@PGJLFKP@?$CFs?3?5programming?5FPGA?5completed?6?$AA@ 1004b64c     sg_fpga_setup_sf_3.obj
 0002:00005674       ??_C@_0CA@DCOMIKMO@isp?5data?3?50x?$CFX?5at?5address?50x?$CFX?6?$AA@ 1004b674     sg_fpga_setup_sf_3.obj
 0002:0000569c       ??_C@_0L@DFNHPMDD@cf8?3?50x?$CFx?6?$AA@ 1004b69c     sg_fpga_setup_sf_3.obj
 0002:000056ac       ??_C@_0L@MFNACDJI@cfc?3?50x?$CFx?6?$AA@ 1004b6ac     sg_fpga_setup_sf_3.obj
 0002:000056bc       ??_C@_0CE@DMDLOEEC@UserDevice?5PCI?5Header?5?$EA?50x00?3?50x@ 1004b6bc     sg_fpga_setup_sf_3.obj
 0002:000056e8       ??_C@_0CE@GBNHLFEO@UserDevice?5PCI?5Header?5?$EA?50x04?3?50x@ 1004b6e8     sg_fpga_setup_sf_3.obj
 0002:00005714       ??_C@_0CE@IHODEGFK@UserDevice?5PCI?5Header?5?$EA?50x08?3?50x@ 1004b714     sg_fpga_setup_sf_3.obj
 0002:00005740       ??_C@_0CE@HHOEJJPB@UserDevice?5PCI?5Header?5?$EA?50x0c?3?50x@ 1004b740     sg_fpga_setup_sf_3.obj
 0002:0000576c       ??_C@_0CE@NDPJIPHM@UserDevice?5PCI?5Header?5?$EA?50x10?3?50x@ 1004b76c     sg_fpga_setup_sf_3.obj
 0002:00005798       ??_C@_0CE@IOBFNOHA@UserDevice?5PCI?5Header?5?$EA?50x14?3?50x@ 1004b798     sg_fpga_setup_sf_3.obj
 0002:000057c4       ??_C@_0CE@GICBCNGE@UserDevice?5PCI?5Header?5?$EA?50x18?3?50x@ 1004b7c4     sg_fpga_setup_sf_3.obj
 0002:000057f0       ??_C@_0CE@JICGPCMP@UserDevice?5PCI?5Header?5?$EA?50x1c?3?50x@ 1004b7f0     sg_fpga_setup_sf_3.obj
 0002:0000581c       ??_C@_0CE@DIMODEHP@UserDevice?5PCI?5Header?5?$EA?50x20?3?50x@ 1004b81c     sg_fpga_setup_sf_3.obj
 0002:00005848       ??_C@_0CE@GFCCGFHD@UserDevice?5PCI?5Header?5?$EA?50x24?3?50x@ 1004b848     sg_fpga_setup_sf_3.obj
 0002:00005874       ??_C@_0CE@IDBGJGGH@UserDevice?5PCI?5Header?5?$EA?50x28?3?50x@ 1004b874     sg_fpga_setup_sf_3.obj
 0002:000058a0       ??_C@_0CE@HDBBEJMM@UserDevice?5PCI?5Header?5?$EA?50x2c?3?50x@ 1004b8a0     sg_fpga_setup_sf_3.obj
 0002:000058cc       ??_C@_0CE@NHAMFPEB@UserDevice?5PCI?5Header?5?$EA?50x30?3?50x@ 1004b8cc     sg_fpga_setup_sf_3.obj
 0002:000058f8       ??_C@_0CE@IKOAAOEN@UserDevice?5PCI?5Header?5?$EA?50x34?3?50x@ 1004b8f8     sg_fpga_setup_sf_3.obj
 0002:00005924       ??_C@_0CE@JMNDCCPC@UserDevice?5PCI?5Header?5?$EA?50x3c?3?50x@ 1004b924     sg_fpga_setup_sf_3.obj
 0002:00005950       ??_C@_0BH@BODOOKEH@?$CFs?3?5serial?5number?3?5?$CFd?6?$AA@ 1004b950     sg_fpga_setup_sf_3.obj
 0002:0000596c       ??_C@_0CC@FILJJIFD@?$CFs?3?5firmware?5revision?5number?3?5?$CFx@ 1004b96c     sg_fpga_setup_sf_3.obj
 0002:00005994       ??_C@_0BJ@FJGNNFB@?$CFs?3?5Register?50xD0?3?50x?$CFX?6?$AA@ 1004b994     sg_fpga_setup_sf_3.obj
 0002:000059b4       ??_C@_0BM@PECPEOBD@?$CFs?3?5IO31x?5SerialNumber?3?5?$CFd?6?$AA@ 1004b9b4     sg_fpga_setup_sf_3.obj
 0002:000059d8       ??_C@_0EG@FJKKKDAF@?$CFs?3?5FP_INIT_STAT?5doesn?8t?5change?5@ 1004b9d8     sg_fpga_setup_sf_3.obj
 0002:00005a2c       ??_C@_0CC@DMLMDIFL@?$CFs?3?5programming?5time?5exeeded?3?5?$CFf@ 1004ba2c     sg_fpga_setup_sf_3.obj
 0002:00005a54       ??_C@_0CG@BJBDIEJF@?$CFs?3?5not?5successfully?5programmed?5@ 1004ba54     sg_fpga_setup_sf_3.obj
 0002:00005a84       ??_C@_0CC@FKIDEIBF@?$CFs?3?5successfully?5programmed?5FPGA@ 1004ba84     sg_fpga_setup_sf_3.obj
 0002:00005aac       ??_C@_0CL@FCFBCLCF@?$CFs?3?5ERROR?5failed?5to?5enable?5PCIe?5@ 1004baac     sg_fpga_setup_sf_3.obj
 0002:00005ae0       ??_C@_0CO@BHJHJAOF@?$CFs?3?5start?5manually?5SPI?5Flash?5rec@ 1004bae0     sg_fpga_setup_sf_3.obj
 0002:00005b18       ??_C@_0CP@HOMCLBHB@?$CFs?3?5start?5programming?5SPI?5Config@ 1004bb18     sg_fpga_setup_sf_3.obj
 0002:00005b50       ??_C@_0BF@DIDGKDP@?$CFs?3?5please?5wait?5?4?4?4?6?$AA@ 1004bb50     sg_fpga_setup_sf_3.obj
 0002:00005b6c       ??_C@_0CI@IKDDHEMC@?$CFs?3?5SPI?5flash?5successfully?5progr@ 1004bb6c     sg_fpga_setup_sf_3.obj
 0002:00005b9c       ??_C@_0CL@GFFAKNMG@?$CFs?3?5start?5reading?5SPI?5Configurat@ 1004bb9c     sg_fpga_setup_sf_3.obj
 0002:00005bd0       ??_C@_0CF@OPDHODGN@Data?5page?5?$CFd?5on?5SPI_addr?50x?$CFx?3?50@ 1004bbd0     sg_fpga_setup_sf_3.obj
 0002:00005bfc       ??_C@_0CL@FMEELFOL@?$CFs?3?5start?5erasing?5SPI?5Configurat@ 1004bbfc     sg_fpga_setup_sf_3.obj
 0002:00005c30       ??_C@_0CO@LIDHDAHN@?$CFs?3?5ERROR?5reset?5SPI?5Flash?5instru@ 1004bc30     sg_fpga_setup_sf_3.obj
 0002:00005c68       ??_C@_0CN@GFGDLNNN@?$CFs?3?5ERROR?5UserFPGA?5Flash?5Instruc@ 1004bc68     sg_fpga_setup_sf_3.obj
 0002:00005ca0       ??_C@_0CP@POBNIJCP@?$CFs?3?5ERROR?5UserFPGA?5Flash?5Data?5tr@ 1004bca0     sg_fpga_setup_sf_3.obj
 0002:00005cd8       ??_C@_0CE@BDCJOIKN@?$CFs?3?5wait?5for?5instruction?5busy?5lo@ 1004bcd8     sg_fpga_setup_sf_3.obj
 0002:00005d04       ??_C@_0BP@MCNEPOEB@?$CFs?3?5EEPROM?5already?5configured?6?$AA@ 1004bd04     sg_fpga_setup_sf_3.obj
 0002:00005d2c       ??_C@_0CJ@CPDADFDC@?$CFs?3?5ERROR?5EEPROM?5reconfiguration@ 1004bd2c     sg_fpga_setup_sf_3.obj
 0002:00005d60       ??_C@_0DM@IOGNIFJG@?$CFs?3?5EEPROM?5successfully?5configur@ 1004bd60     sg_fpga_setup_sf_3.obj
 0002:00005da8       ??_C@_0DC@ILCCPKHK@?$CFs?3?5ERROR?5UserFPGA?5Flash?5Data?5tr@ 1004bda8     sg_fpga_setup_sf_3.obj
 0002:00005de4       ??_C@_0BG@OOOJNILJ@Bitstreamlength?5?$DN?5?$CFd?6?$AA@ 1004bde4     sg_fpga_setup_sf_3.obj
 0002:00005e00       ??_C@_0BJ@OOMGBJHO@?$CFs?5?3?5programming?5Flash?3?5?$AA@ 1004be00     sg_fpga_setup_sf_3.obj
 0002:00005e20       ??_C@_01IPJKGB@?$CD?$AA@   1004be20     sg_fpga_setup_sf_3.obj
 0002:00005e24       ??_C@_0CD@HLDFAFOF@?$CFs?3?5ERROR?5programming?5SPI?5Flash?5@ 1004be24     sg_fpga_setup_sf_3.obj
 0002:00005e50       ??_C@_0CD@HJHDLLLM@?$CFs?3?5ERROR?5programming?5SPI?5Flash?5@ 1004be50     sg_fpga_setup_sf_3.obj
 0002:00005e7c       ??_C@_0CB@KOLPNIAL@?$CFs?3?5ERROR?5programming?5SPI?5Flash?6@ 1004be7c     sg_fpga_setup_sf_3.obj
 0002:00005ea4       ??_C@_04LNELOFCG@?5OK?6?$AA@ 1004bea4     sg_fpga_setup_sf_3.obj
 0002:00005eac       ??_C@_0CF@INJKFIGG@?$CFs?5?3?5load?5configuration?5from?5Fla@ 1004beac     sg_fpga_setup_sf_3.obj
 0002:00005ed8       ??_C@_0CB@CECLJIDB@?$CFs?3?5ERROR?5loading?5configuration?6@ 1004bed8     sg_fpga_setup_sf_3.obj
 0002:00005f00       ??_C@_0BE@OKDEBOOC@?$CFs?5?3?5Erasing?5Flash?3?$AA@ 1004bf00     sg_fpga_setup_sf_3.obj
 0002:00005f18       ??_C@_0BN@LCJILPHI@?$CFs?3?5ERROR?5Erasing?5SPI?5Flash?6?$AA@ 1004bf18     sg_fpga_setup_sf_3.obj
 0002:00005f3c       ??_C@_0CL@JONICIMB@FPGA?5programming?5completed?5succc@ 1004bf3c     sg_fpga_setup_sf_3.obj
 0002:00005f70       ??_C@_0P@NHOBKHDM@IO383?5Testing?6?$AA@ 1004bf70     sg_fpga_setup_sf_3.obj
 0002:00005f84       ??_C@_0BC@MENGDMBM@PROM?5I2C?5timeout?4?$AA@ 1004bf84     sg_fpga_setup_sf_3.obj
 0002:00005f9c       ??_C@_01EEMJAFIK@?6?$AA@   1004bf9c     sg_fpga_setup_sf_3.obj
 0002:00005fa0       ??_C@_0CA@CFAIAJMI@Verifying?5bitstream?5integrity?4?6?$AA@ 1004bfa0     sg_fpga_setup_sf_3.obj
 0002:00005fc8       ??_C@_0CA@PDOFLDGG@Flash?5is?5programmed?5correctly?4?6?$AA@ 1004bfc8     sg_fpga_setup_sf_3.obj
 0002:00005ff0       ??_C@_0DH@LNACFALE@New?5bitstream?5and?5programmed?5des@ 1004bff0     sg_fpga_setup_sf_3.obj
 0002:00006034       ??_C@_0BJ@INHEHELA@Timestamp?5register?5?$DN?5?$CFd?6?$AA@ 1004c034     sg_fpga_setup_sf_3.obj
 0002:00006054       ??_C@_0BK@JBCEAGL@Timestamp?5parameter?5?$DN?5?$CFd?6?$AA@ 1004c054     sg_fpga_setup_sf_3.obj
 0002:00006074       ??_C@_0CJ@BBDBIHDD@Performing?5Bulk?5Erase?5of?5the?5SPI@ 1004c074     sg_fpga_setup_sf_3.obj
 0002:000060a8       ??_C@_0BD@CACPJNKA@?6?5Erase?5Complete?4?6?$AA@ 1004c0a8     sg_fpga_setup_sf_3.obj
 0002:000060c0       ??_C@_0BI@GFGEKNBL@Programming?5SPI?5flash?4?6?$AA@ 1004c0c0     sg_fpga_setup_sf_3.obj
 0002:000060dc       ??_C@_0CB@FGBILCON@Flash?5programming?5failed?4?5SR?5?$DN?5?6@ 1004c0dc     sg_fpga_setup_sf_3.obj
 0002:00006104       ??_C@_0CM@ENAJMCBJ@Flash?5programming?5completed?5succ@ 1004c104     sg_fpga_setup_sf_3.obj
 0002:00006138       ??_C@_0FP@LHCBIBMP@Flash?5programming?5left?5flash?5inc@ 1004c138     sg_fpga_setup_sf_3.obj
 0002:000061ac       ??_C@_0DJ@ELKFINOG@Triggering?5FPGA?5reconfiguration?5@ 1004c1ac     sg_fpga_setup_sf_3.obj
 0002:000061f0       ??_C@_0BM@ENJOHONM@Reconfiguration?5timed?5out?4?6?$AA@ 1004c1f0     sg_fpga_setup_sf_3.obj
 0002:00006214       ??_C@_0BN@IEBJCELM@Reconfiguration?5successful?4?6?$AA@ 1004c214     sg_fpga_setup_sf_3.obj
 0002:00006238       ??_C@_0BL@JHABAODB@IO397?5Built?5in?5self?5test?4?6?$AA@ 1004c238     sg_fpga_setup_sf_3.obj
 0002:00006258       ??_C@_0DE@IKAHLGMH@Writing?5self?5test?5registers?5at?50@ 1004c258     sg_fpga_setup_sf_3.obj
 0002:00006298       ??_C@_0P@GBEAPFKP@Board?5Status?3?6?$AA@ 1004c298     sg_fpga_setup_sf_3.obj
 0002:000062ac       ??_C@_0CJ@OHDEAKNO@Bitstream?5was?5generated?3?5?$CFd?4?$CFd?4?$CF@ 1004c2ac     sg_fpga_setup_sf_3.obj
 0002:000062e0       ??_C@_0CF@COLJKMDH@Timestamp?5parameter?3?5?$CFd?4?$CFd?4?$CFd?5?$CFd@ 1004c2e0     sg_fpga_setup_sf_3.obj
 0002:0000630c       ??_C@_0CC@LHLFNDKB@FPGA?5die?5temperature?3?5?5?$CF3?42f?5?$FLC?$FN@ 1004c30c     sg_fpga_setup_sf_3.obj
 0002:00006334       ??_C@_0BF@KPBLMODG@FPGA?5Vcc?5?5?$CF3?42f?5?$FLV?$FN?6?$AA@ 1004c334     sg_fpga_setup_sf_3.obj
 0002:00006350       ??_C@_0BJ@FBBBIFFH@FPGA?5Vccaux?3?5?5?$CF3?42f?5?$FLV?$FN?6?$AA@ 1004c350     sg_fpga_setup_sf_3.obj
 0002:00006370       ??_C@_0BI@FDLBBFJD@FPGA?5Vbram?3?5?5?$CF3?42f?5?$FLV?$FN?6?$AA@ 1004c370     sg_fpga_setup_sf_3.obj
 0002:0000638c       ??_C@_0CN@NBLFPIEO@Se95?5ADC?1DAC?5chip?5temperature?3?5?$CF@ 1004c38c     sg_fpga_setup_sf_3.obj
 0002:000063c4       ??_C@_0BB@MAKKNMHB@SE95?5I2C?5error?4?6?$AA@ 1004c3c4     sg_fpga_setup_sf_3.obj
 0002:000063d8       ??_C@_0CF@BACDDCO@Pull?5test?51?3?50x?$CFX?6Pull?5test?52?3?50@ 1004c3d8     sg_fpga_setup_sf_3.obj
 0002:00006404       ??_C@_0BG@BGICLPPH@Pull?9up?5to?53?43V?5set?4?6?$AA@ 1004c404     sg_fpga_setup_sf_3.obj
 0002:00006420       ??_C@_0BE@GPEKMGGH@Pull?9up?5to?55V?5set?4?6?$AA@ 1004c420     sg_fpga_setup_sf_3.obj
 0002:00006438       ??_C@_0O@HJDNCBNE@No?5pull?5set?4?6?$AA@ 1004c438     sg_fpga_setup_sf_3.obj
 0002:00006448       ??_C@_0BA@PEMDBDOJ@Pull?9down?5set?4?6?$AA@ 1004c448     sg_fpga_setup_sf_3.obj
 0002:0000645c       ??_C@_0DB@LJHIFOMJ@Invalid?5pull?5setting?3?50x?$CFX?4?6Sett@ 1004c45c     sg_fpga_setup_sf_3.obj
 0002:00006498       ??_C@_0BO@NEDJEECH@IO33x_FLASH_BLOCK_SIZE?3?50x?$CFX?6?$AA@ 1004c498     sg_fpga_setup_sf_3.obj
 0002:000064bc       ??_C@_0BP@DKGMHCIN@IO33x_FLASH_REGION_SIZE?3?50x?$CFX?6?$AA@ 1004c4bc     sg_fpga_setup_sf_3.obj
 0002:000064e4       ??_C@_0BM@EPLEFGGG@bitstreamlength?5bytes?3?3?5?$CFd?6?$AA@ 1004c4e4     sg_fpga_setup_sf_3.obj
 0002:00006508       ??_C@_0N@LKCJOIIJ@NBblock?3?5?$CFd?6?$AA@ 1004c508     sg_fpga_setup_sf_3.obj
 0002:00006518       ??_C@_0CE@CNACOLCA@?$CFs?3?5ConfigFlash?3?5erase?5blocks?4?4?4@ 1004c518     sg_fpga_setup_sf_3.obj
 0002:00006544       ??_C@_0CC@OHIJELHB@?$CFs?3?5ConfigFlash?3?5?4?4?4erase?5done?$CB?6@ 1004c544     sg_fpga_setup_sf_3.obj
 0002:0000656c       ??_C@_0CE@DINIJOPB@?$CFs?3?5ConfigFlash?3?5erase?5time?3?5?$CFf?$FL@ 1004c56c     sg_fpga_setup_sf_3.obj
 0002:00006598       ??_C@_0CI@LJGHFCAH@?$CFs?3?5ConfigFlash?3?5programing?5flas@ 1004c598     sg_fpga_setup_sf_3.obj
 0002:000065c8       ??_C@_0CA@JONPCMEE@?$CFs?3?5ConfigFlash?3?5?4?4?4succeeded?6?$CF?$AA@ 1004c5c8     sg_fpga_setup_sf_3.obj
 0002:000065f0       ??_C@_0CJ@PMOJGKAJ@?$CFs?3?5ConfigFlash?3?5total?5prog?5time@ 1004c5f0     sg_fpga_setup_sf_3.obj
 0002:00006624       ??_C@_0CL@CGBMDFAB@while?5druing?5reset?3?5status?5regis@ 1004c624     sg_fpga_setup_sf_3.obj
 0002:00006658       ??_C@_0BH@BEDCIPHG@?$CFs?3?5Flash?5reset?5error?6?$AA@ 1004c658     sg_fpga_setup_sf_3.obj
 0002:00006674       ??_C@_0DE@BCKBNJGA@blank?5check?5at?5address?50x?$CFX?5fail@ 1004c674     sg_fpga_setup_sf_3.obj
 0002:000066b4       ??_C@_0BH@NIMMMJPG@status?5register?3?50x?$CFX?6?$AA@ 1004c6b4     sg_fpga_setup_sf_3.obj
 0002:000066d0       ??_C@_0DJ@JCILLOEH@?$CFs?5?3?5blank?5check?5at?5address?50x?$CFX@ 1004c6d0     sg_fpga_setup_sf_3.obj
 0002:00006714       ??_C@_0BI@DPKAGFJA@?$CFs?3?5Flash?5status?5error?6?$AA@ 1004c714     sg_fpga_setup_sf_3.obj
 0002:00006730       ??_C@_0CI@KLKOLNLL@?$CFs?3?5Error?5counter?5reached?5errorC@ 1004c730     sg_fpga_setup_sf_3.obj
 0002:00006760       ??_C@_0DE@IJGEPDMC@?$CFs?5?3?5error?5return?5from?5lock?5whil@ 1004c760     sg_fpga_setup_sf_3.obj
 0002:000067a0       ??_C@_0CL@JFBPLBHJ@block?5at?5address?5is?5already?5unlo@ 1004c7a0     sg_fpga_setup_sf_3.obj
 0002:000067d4       ??_C@_0DL@OKHFHEGD@while1?5during?5block?5unlock?5at?5ad@ 1004c7d4     sg_fpga_setup_sf_3.obj
 0002:0000681c       ??_C@_0DG@CEHPPAMH@?$CFs?5?3?5error?5return?5from?5unlock?5wh@ 1004c81c     sg_fpga_setup_sf_3.obj
 0002:0000685c       ??_C@_0CD@EHNBNJIG@while?5program?3?5status?$FL0x?$CFx?$FN?3?50x?$CF@ 1004c85c     sg_fpga_setup_sf_3.obj
 0002:00006888       ??_C@_0BC@LPOOADOG@program?5time?3?5?$CFf?6?$AA@ 1004c888     sg_fpga_setup_sf_3.obj
 0002:000068a0       ??_C@_0CE@EJGBLKJC@?$CFs?5?3?5error?0?5buffersize?5wrong?3?50x@ 1004c8a0     sg_fpga_setup_sf_3.obj
 0002:000068cc       ??_C@_0BP@IIPKMGGL@while1?3?5status?5register?3?50x?$CFX?6?$AA@ 1004c8cc     sg_fpga_setup_sf_3.obj
 0002:000068f8       ??_C@_0GF@PLCCNKPL@?$CFs?5?3?5error?0?5erase?5suspend?5in?5eff@ 1004c8f8     sg_fpga_setup_sf_3.obj
 0002:00006974       ??_C@_0CP@GMAHENKP@?$CFs?3after?5Buffered?5Programming?5Fl@ 1004c974     sg_fpga_setup_sf_3.obj
 0002:000069ac       ??_C@_0DL@JKOIKLJM@while?5program2?3regionCntr?30x?$CFX?5f@ 1004c9ac     sg_fpga_setup_sf_3.obj
 0002:000069f4       ??_C@_0DC@LANMDLJ@?$CFs?5?3?5error?0?5exit?5programm?0?5statu@ 1004c9f4     sg_fpga_setup_sf_3.obj
 0002:00006a30       __real@3eac2047cc67484a    1004ca30     sg_fpga_setup_sf_3.obj
 0002:00006a40       __real@3eb0c6f7a0b5ed8d    1004ca40     sg_fpga_setup_sf_3.obj
 0002:00006a50       __real@3f1a36e2eb1c432d    1004ca50     sg_fpga_setup_sf_3.obj
 0002:00006a60       __real@3f30000000000000    1004ca60     sg_fpga_setup_sf_3.obj
 0002:00006a70       __real@3f48018018018018    1004ca70     sg_fpga_setup_sf_3.obj
 0002:00006a80       __real@3f947ae147ae147b    1004ca80     sg_fpga_setup_sf_3.obj
 0002:00006a90       __real@3fa0000000000000    1004ca90     sg_fpga_setup_sf_3.obj
 0002:00006aa0       __real@3fc999999999999a    1004caa0     sg_fpga_setup_sf_3.obj
 0002:00006ab0       __real@4071126666666666    1004cab0     sg_fpga_setup_sf_3.obj
 0002:00006ac0       __real@407f7f999999999a    1004cac0     sg_fpga_setup_sf_3.obj
 0002:00006ad0       __real@4132342800000000    1004cad0     sg_fpga_setup_sf_3.obj
 0002:00006ae0       __real@414b4e3c00000000    1004cae0     sg_fpga_setup_sf_3.obj
 0002:00006af0       __real@4156c13200000000    1004caf0     sg_fpga_setup_sf_3.obj
 0002:00006b00       __real@415b4e3c00000000    1004cb00     sg_fpga_setup_sf_3.obj
 0002:00006b10       __real@41647aad00000000    1004cb10     sg_fpga_setup_sf_3.obj
 0002:00006b20       __real@4166c13200000000    1004cb20     sg_fpga_setup_sf_3.obj
 0002:00006b30       __real@4176c13200000000    1004cb30     sg_fpga_setup_sf_3.obj
 0002:00006b3c       ??_C@_0CB@PKDDIGDN@SPI?5block?3?5board?5type?5incorrect?4@ 1004cb3c     sg_fpga_spi_sf_1.obj
 0002:00006b64       ??_C@_0DD@FGCGGOAA@?$CFs?5SPI?5block?3?5?$CIbus?5?$CFd?0?5slot?5?$CFd?$CJ?3@ 1004cb64     sg_fpga_spi_sf_1.obj
 0002:00006ba4       ??_C@_0BJ@PFJIILJC@?$CFs?5SPI?5Version?5test?5ok?$CB?6?$AA@ 1004cba4     sg_fpga_spi_sf_1.obj
 0002:00006bc8       ??_C@_0FP@OODAPCNK@?$CFs?5Wrong?5Version?5of?5SPI?5Module?4?6@ 1004cbc8     sg_fpga_spi_sf_1.obj
 0002:00006c3c       ??_C@_0CC@DMFKNLL@VendorId?5?$DN?50x?$CFx?0?5DeviceId?5?$DN?50x?$CFx@ 1004cc3c     xpcruntime:xpcimports.obj
 0002:00006c60       ??_C@_0DH@OHCBLNMG@Subsystem?5Device?5ID?5?$DN?50x?$CFx?6Subsy@ 1004cc60     xpcruntime:xpcimports.obj
 0002:00006c98       ??_C@_0BD@MMMMEFCM@Class?5Code?5?$DN?50x?$CFx?6?$AA@ 1004cc98     xpcruntime:xpcimports.obj
 0002:00006cac       ??_C@_0BE@OLDDDNHM@InterruptLine?5?$DN?5?$CFd?6?$AA@ 1004ccac     xpcruntime:xpcimports.obj
 0002:00006cc0       ??_C@_0BF@OLKLEKBD@bus?5?$DN?5?$CFd?0?5slot?5?$DN?5?$CFd?6?$AA@ 1004ccc0     xpcruntime:xpcimports.obj
 0002:00006cd8       ??_C@_0CE@DGLLGDFH@?5?5?5?5Phys?5?5?5Virtual?5?5?5Length?5IO?1M@ 1004ccd8     xpcruntime:xpcimports.obj
 0002:00006cfc       ??_C@_0BI@FEOPLEMG@?$CF08x?5?$CF08x?5?$CF08x?5?5?5?5?5?5?$CFc?6?$AA@ 1004ccfc     xpcruntime:xpcimports.obj
 0002:00006d14       ??_C@_0BB@BNNCEDPC@rl32eScopeExists?$AA@ 1004cd14     xpcruntime:xpcimports.obj
 0002:00006d28       ??_C@_0BM@FJBFEGFG@rl32eScopeExists?5not?5found?6?$AA@ 1004cd28     xpcruntime:xpcimports.obj
 0002:00006d44       ??_C@_0O@BNNGKJEA@rl32eDefScope?$AA@ 1004cd44     xpcruntime:xpcimports.obj
 0002:00006d54       ??_C@_0BJ@CDNOENKA@rl32eDefScope?5not?5found?6?$AA@ 1004cd54     xpcruntime:xpcimports.obj
 0002:00006d70       ??_C@_0P@CKNKILDP@rl32eAddSignal?$AA@ 1004cd70     xpcruntime:xpcimports.obj
 0002:00006d80       ??_C@_0BK@GMJAJBAI@rl32eAddSignal?5not?5found?6?$AA@ 1004cd80     xpcruntime:xpcimports.obj
 0002:00006d9c       ??_C@_0BB@LDMIHGCE@rl32eGetSignalNo?$AA@ 1004cd9c     xpcruntime:xpcimports.obj
 0002:00006db0       ??_C@_0BM@LGAMBAID@rl32eGetSignalNo?5not?5found?6?$AA@ 1004cdb0     xpcruntime:xpcimports.obj
 0002:00006dcc       ??_C@_0O@CFDGALBP@rl32eSetScope?$AA@ 1004cdcc     xpcruntime:xpcimports.obj
 0002:00006ddc       ??_C@_0BJ@JCLHHIN@rl32eSetScope?5not?5found?6?$AA@ 1004cddc     xpcruntime:xpcimports.obj
 0002:00006df8       ??_C@_0P@IKMCBMHH@xpceFSScopeSet?$AA@ 1004cdf8     xpcruntime:xpcimports.obj
 0002:00006e08       ??_C@_0BK@JODJPNNH@xpceFSScopeSet?5not?5found?6?$AA@ 1004ce08     xpcruntime:xpcimports.obj
 0002:00006e24       ??_C@_0BE@DLACEEJM@rl32eSetTargetScope?$AA@ 1004ce24     xpcruntime:xpcimports.obj
 0002:00006e38       ??_C@_0BP@JCHFMKPJ@rl32eSetTargetScope?5not?5found?6?$AA@ 1004ce38     xpcruntime:xpcimports.obj
 0002:00006e58       ??_C@_0BJ@LIDLNDHC@rl32eSetTargetScopeSigFt?$AA@ 1004ce58     xpcruntime:xpcimports.obj
 0002:00006e74       ??_C@_0CE@JLGHCFHI@rl32eSetTargetScopeSigFt?5not?5fou@ 1004ce74     xpcruntime:xpcimports.obj
 0002:00006e98       ??_C@_0BI@JAPOIDNG@rl32eRestartAcquisition?$AA@ 1004ce98     xpcruntime:xpcimports.obj
 0002:00006eb0       ??_C@_0CD@LLBEFFBO@rl32eRestartAcquisition?5not?5foun@ 1004ceb0     xpcruntime:xpcimports.obj
 0002:00006ed4       ??_C@_0P@IEIIADJB@xpceScopeAcqOK?$AA@ 1004ced4     xpcruntime:xpcimports.obj
 0002:00006ee4       ??_C@_0BK@NJCKNFPN@xpceScopeAcqOK?5not?5found?6?$AA@ 1004cee4     xpcruntime:xpcimports.obj
 0002:00006f00       ??_C@_0BA@IJINKAHF@xpceRegisterISR?$AA@ 1004cf00     xpcruntime:xpcimports.obj
 0002:00006f10       ??_C@_0BL@NNDLOEJE@xpceRegisterISR?5not?5found?6?$AA@ 1004cf10     xpcruntime:xpcimports.obj
 0002:00006f2c       ??_C@_0BC@NLBADGKF@xpceDeRegisterISR?$AA@ 1004cf2c     xpcruntime:xpcimports.obj
 0002:00006f40       ??_C@_0BN@DCAIKFFD@xpceDeRegisterISR?5not?5found?6?$AA@ 1004cf40     xpcruntime:xpcimports.obj
 0002:00006f60       ??_C@_07JPMEPILD@xpcInpB?$AA@ 1004cf60     xpcruntime:xpcimports.obj
 0002:00006f68       ??_C@_0BD@PGABEJOL@xpcInpB?5not?5found?6?$AA@ 1004cf68     xpcruntime:xpcimports.obj
 0002:00006f7c       ??_C@_07KIHBBOKH@xpcInpW?$AA@ 1004cf7c     xpcruntime:xpcimports.obj
 0002:00006f84       ??_C@_0BD@FPCJFMCC@xpcInpW?5not?5found?6?$AA@ 1004cf84     xpcruntime:xpcimports.obj
 0002:00006f98       ??_C@_08KDIAJBOP@xpcInpDW?$AA@ 1004cf98     xpcruntime:xpcimports.obj
 0002:00006fa4       ??_C@_0BE@PIELDNIL@xpcInpDW?5not?5found?6?$AA@ 1004cfa4     xpcruntime:xpcimports.obj
 0002:00006fb8       ??_C@_08PJFMOIGO@xpcOutpB?$AA@ 1004cfb8     xpcruntime:xpcimports.obj
 0002:00006fc4       ??_C@_0BE@HCKNCEKF@xpcOutpB?5not?5found?6?$AA@ 1004cfc4     xpcruntime:xpcimports.obj
 0002:00006fd8       ??_C@_08MOOJAOHK@xpcOutpW?$AA@ 1004cfd8     xpcruntime:xpcimports.obj
 0002:00006fe4       ??_C@_0BE@NLIFDBGM@xpcOutpW?5not?5found?6?$AA@ 1004cfe4     xpcruntime:xpcimports.obj
 0002:00006ff8       ??_C@_09FLIEKHJG@xpcOutpDW?$AA@ 1004cff8     xpcruntime:xpcimports.obj
 0002:00007004       ??_C@_0BF@GJKLPNHB@xpcOutpDW?5not?5found?6?$AA@ 1004d004     xpcruntime:xpcimports.obj
 0002:0000701c       ??_C@_0BH@EHOLELHH@xpcReserveMemoryRegion?$AA@ 1004d01c     xpcruntime:xpcimports.obj
 0002:00007034       ??_C@_0CC@KAAAGPI@xpcReserveMemoryRegion?5not?5found@ 1004d034     xpcruntime:xpcimports.obj
 0002:00007058       ??_C@_0BA@JGPMHGAF@rl32eShowPCIDev?$AA@ 1004d058     xpcruntime:xpcimports.obj
 0002:00007068       ??_C@_0BL@DDFFLNHI@rl32eShowPCIDev?5not?5found?6?$AA@ 1004d068     xpcruntime:xpcimports.obj
 0002:00007084       ??_C@_0BB@KBCOJPFB@rl32eShowPCIInfo?$AA@ 1004d084     xpcruntime:xpcimports.obj
 0002:00007098       ??_C@_0BM@IFDMAGLO@rl32eShowPCIInfo?5not?5found?6?$AA@ 1004d098     xpcruntime:xpcimports.obj
 0002:000070b4       ??_C@_0BA@BGPAADB@rl32eGetPCIInfo?$AA@ 1004d0b4     xpcruntime:xpcimports.obj
 0002:000070c4       ??_C@_0BL@IGOMLDCK@rl32eGetPCIInfo?5not?5found?6?$AA@ 1004d0c4     xpcruntime:xpcimports.obj
 0002:000070e0       ??_C@_0BG@NJPFKFDP@rl32eGetPCIInfoAtSlot?$AA@ 1004d0e0     xpcruntime:xpcimports.obj
 0002:000070f8       ??_C@_0CB@BBKIPMLA@rl32eGetPCIInfoAtSlot?5not?5found?6@ 1004d0f8     xpcruntime:xpcimports.obj
 0002:0000711c       ??_C@_0BH@OKBOPNFG@xpceAssignPCIInterrupt?$AA@ 1004d11c     xpcruntime:xpcimports.obj
 0002:00007134       ??_C@_0CC@CDNDNJBJ@xpceAssignPCIInterrupt?5not?5found@ 1004d134     xpcruntime:xpcimports.obj
 0002:00007158       ??_C@_0BD@PCKOKHO@xpceGetSignalValue?$AA@ 1004d158     xpcruntime:xpcimports.obj
 0002:0000716c       ??_C@_0BO@GCBDJHMB@xpceGetSignalValue?5not?5found?6?$AA@ 1004d16c     xpcruntime:xpcimports.obj
 0002:0000718c       ??_C@_0BB@BJONJAGA@xpceSetParameter?$AA@ 1004d18c     xpcruntime:xpcimports.obj
 0002:000071a0       ??_C@_0BM@BJIKDLHA@xpceSetParameter?5not?5found?6?$AA@ 1004d1a0     xpcruntime:xpcimports.obj
 0002:000071bc       ??_C@_0BB@GNFDFMCM@xpceGetParameter?$AA@ 1004d1bc     xpcruntime:xpcimports.obj
 0002:000071d0       ??_C@_0BM@POHNKBC@xpceGetParameter?5not?5found?6?$AA@ 1004d1d0     xpcruntime:xpcimports.obj
 0002:000071ec       ??_C@_0BB@CEIJLFCD@xpceGetParamDims?$AA@ 1004d1ec     xpcruntime:xpcimports.obj
 0002:00007200       ??_C@_0BM@OABDBKAO@xpceGetParamDims?5not?5found?6?$AA@ 1004d200     xpcruntime:xpcimports.obj
 0002:0000721c       ??_C@_0L@OCBLLHBM@xpceGetTET?$AA@ 1004d21c     xpcruntime:xpcimports.obj
 0002:00007228       ??_C@_0BG@HNOFBOB@xpceGetTET?5not?5found?6?$AA@ 1004d228     xpcruntime:xpcimports.obj
 0002:00007240       ??_C@_0P@OKGNGAGH@xpcIsModelInit?$AA@ 1004d240     xpcruntime:xpcimports.obj
 0002:00007250       ??_C@_0BK@DHEMLBIM@xpcIsModelInit?5not?5found?6?$AA@ 1004d250     xpcruntime:xpcimports.obj
 0002:0000726c       ??_C@_0BH@KJJLCAOJ@xpcAllocPhysicalMemory?$AA@ 1004d26c     xpcruntime:xpcimports.obj
 0002:00007284       ??_C@_0CC@MOJPNHKL@xpcAllocPhysicalMemory?5not?5found@ 1004d284     xpcruntime:xpcimports.obj
 0002:000072a8       ??_C@_0BG@CBNPGAEL@xpcFreePhysicalMemory?$AA@ 1004d2a8     xpcruntime:xpcimports.obj
 0002:000072c0       ??_C@_0CB@PKJEBPOG@xpcFreePhysicalMemory?5not?5found?6@ 1004d2c0     xpcruntime:xpcimports.obj
 0002:000072e4       ??_C@_0BC@JGKNLICL@xpcGetElapsedTime?$AA@ 1004d2e4     xpcruntime:xpcimports.obj
 0002:000072f8       ??_C@_0BN@OEOAHCIO@xpcGetElapsedTime?5not?5found?6?$AA@ 1004d2f8     xpcruntime:xpcimports.obj
 0002:00007318       ??_C@_0M@ICBLMODA@xpcBusyWait?$AA@ 1004d318     xpcruntime:xpcimports.obj
 0002:00007324       ??_C@_0BH@FBOPECBI@xpcBusyWait?5not?5found?6?$AA@ 1004d324     xpcruntime:xpcimports.obj
 0002:0000733c       ??_C@_0N@LKKJEKKA@TBCreateSpin?$AA@ 1004d33c     xpcruntime:xpcimports.obj
 0002:0000734c       ??_C@_0BI@FHKMLKOE@TBCreateSpin?5not?5found?6?$AA@ 1004d34c     xpcruntime:xpcimports.obj
 0002:00007364       ??_C@_0N@HOAJHNBD@TBDeleteSpin?$AA@ 1004d364     xpcruntime:xpcimports.obj
 0002:00007374       ??_C@_0BI@BKCPAAG@TBDeleteSpin?5not?5found?6?$AA@ 1004d374     xpcruntime:xpcimports.obj
 0002:0000738c       ??_C@_0P@DAHDDBJG@TBTakeSpinFast?$AA@ 1004d38c     xpcruntime:xpcimports.obj
 0002:0000739c       ??_C@_0BK@NKAIBHGB@TBTakeSpinFast?5not?5found?6?$AA@ 1004d39c     xpcruntime:xpcimports.obj
 0002:000073b8       ??_C@_0P@FKNAAELA@TBGiveSpinFast?$AA@ 1004d3b8     xpcruntime:xpcimports.obj
 0002:000073c8       ??_C@_0BK@KGPJBJND@TBGiveSpinFast?5not?5found?6?$AA@ 1004d3c8     xpcruntime:xpcimports.obj
 0002:000073e4       ??_C@_0BE@IIGBFDHK@xpceCreateSemaphore?$AA@ 1004d3e4     xpcruntime:xpcimports.obj
 0002:000073f8       ??_C@_0BP@KFBAFFKJ@xpceCreateSemaphore?5not?5found?6?$AA@ 1004d3f8     xpcruntime:xpcimports.obj
 0002:00007418       ??_C@_0BC@IFNIONKJ@xpceWaitSemaphore?$AA@ 1004d418     xpcruntime:xpcimports.obj
 0002:0000742c       ??_C@_0BN@NMFAADIO@xpceWaitSemaphore?5not?5found?6?$AA@ 1004d42c     xpcruntime:xpcimports.obj
 0002:0000744c       ??_C@_0BE@NNDIOBKE@xpceSignalSemaphore?$AA@ 1004d44c     xpcruntime:xpcimports.obj
 0002:00007460       ??_C@_0BP@LBANMHJP@xpceSignalSemaphore?5not?5found?6?$AA@ 1004d460     xpcruntime:xpcimports.obj
 0002:00007480       ??_C@_0BE@MEBEKOIM@xpceDeleteSemaphore?$AA@ 1004d480     xpcruntime:xpcimports.obj
 0002:00007494       ??_C@_0BP@OFNCKOJH@xpceDeleteSemaphore?5not?5found?6?$AA@ 1004d494     xpcruntime:xpcimports.obj
 0002:000074b4       ??_C@_0BD@MFNDMBOF@FindUsbVideoDevice?$AA@ 1004d4b4     xpcruntime:xpcimports.obj
 0002:000074c8       ??_C@_0BO@POKLDHMI@FindUsbVideoDevice?5not?5found?6?$AA@ 1004d4c8     xpcruntime:xpcimports.obj
 0002:000074e8       ??_C@_0BA@PLPAPNAB@GetVideoConfigs?$AA@ 1004d4e8     xpcruntime:xpcimports.obj
 0002:000074f8       ??_C@_0BL@DALDHKHC@GetVideoConfigs?5not?5found?6?$AA@ 1004d4f8     xpcruntime:xpcimports.obj
 0002:00007514       ??_C@_0L@GBAEMHMH@StartVideo?$AA@ 1004d514     xpcruntime:xpcimports.obj
 0002:00007520       ??_C@_0BG@HDCELEBP@StartVideo?5not?5found?6?$AA@ 1004d520     xpcruntime:xpcimports.obj
 0002:00007538       ??_C@_0BA@FDNPOCLN@ReadFrameBuffer?$AA@ 1004d538     xpcruntime:xpcimports.obj
 0002:00007548       ??_C@_0BL@JHGHPNBI@ReadFrameBuffer?5not?5found?6?$AA@ 1004d548     xpcruntime:xpcimports.obj
 0002:00007564       ??_C@_09FAHCLKAG@StopVideo?$AA@ 1004d564     xpcruntime:xpcimports.obj
 0002:00007570       ??_C@_0BF@NKGKKADL@StopVideo?5not?5found?6?$AA@ 1004d570     xpcruntime:xpcimports.obj
 0002:00007588       ??_C@_0O@MCPKDLLL@ConvertUImage?$AA@ 1004d588     xpcruntime:xpcimports.obj
 0002:00007598       ??_C@_0BJ@PHJKOAFL@ConvertUImage?5not?5found?6?$AA@ 1004d598     xpcruntime:xpcimports.obj
 0002:000075b4       ??_C@_0BD@NKCBPBJJ@CreateVideoDisplay?$AA@ 1004d5b4     xpcruntime:xpcimports.obj
 0002:000075c8       ??_C@_0BO@HPPLLNFP@CreateVideoDisplay?5not?5found?6?$AA@ 1004d5c8     xpcruntime:xpcimports.obj
 0002:000075e8       ??_C@_0BE@KJCKGPHA@DestroyVideoDisplay?$AA@ 1004d5e8     xpcruntime:xpcimports.obj
 0002:000075fc       ??_C@_0BP@FMGLJAIJ@DestroyVideoDisplay?5not?5found?6?$AA@ 1004d5fc     xpcruntime:xpcimports.obj
 0002:0000761c       ??_C@_0BC@HCMIMIDN@StartVideoDisplay?$AA@ 1004d61c     xpcruntime:xpcimports.obj
 0002:00007630       ??_C@_0BN@EFIEBGOO@StartVideoDisplay?5not?5found?6?$AA@ 1004d630     xpcruntime:xpcimports.obj
 0002:00007650       ??_C@_0BB@JBBLMILG@StopVideoDisplay?$AA@ 1004d650     xpcruntime:xpcimports.obj
 0002:00007664       ??_C@_0BM@DBJBPLEL@StopVideoDisplay?5not?5found?6?$AA@ 1004d664     xpcruntime:xpcimports.obj
 0002:00007680       ??_C@_0M@MFJEGMHC@StreamVideo?$AA@ 1004d680     xpcruntime:xpcimports.obj
 0002:0000768c       ??_C@_0BH@OINCDMLA@StreamVideo?5not?5found?6?$AA@ 1004d68c     xpcruntime:xpcimports.obj
 0002:000076a4       ??_C@_0N@IGGLCIGE@xpceaddEvent?$AA@ 1004d6a4     xpcruntime:xpcimports.obj
 0002:000076b4       ??_C@_0BI@NHJNFMKH@xpceaddEvent?5not?5found?6?$AA@ 1004d6b4     xpcruntime:xpcimports.obj
 0002:000076cc       ??_C@_0BB@HDPOIJAB@xpceDAQPostEvent?$AA@ 1004d6cc     xpcruntime:xpcimports.obj
 0002:000076e0       ??_C@_0BM@IHANBKGN@xpceDAQPostEvent?5not?5found?6?$AA@ 1004d6e0     xpcruntime:xpcimports.obj
 0002:000076fc       ??_C@_0BH@MBACMOD@xpceDAQUpdateTimeStamp?$AA@ 1004d6fc     xpcruntime:xpcimports.obj
 0002:00007714       ??_C@_0CC@DAKBBINL@xpceDAQUpdateTimeStamp?5not?5found@ 1004d714     xpcruntime:xpcimports.obj
 0002:00007738       ??_C@_0BN@HJOHIFOM@xpceGetIntTimerGranularityNS?$AA@ 1004d738     xpcruntime:xpcimports.obj
 0002:00007758       ??_C@_0CI@OADDPMKB@xpceGetIntTimerGranularityNS?5not@ 1004d758     xpcruntime:xpcimports.obj
 0002:00007780       ??_C@_0BG@CCHICKPN@slrteSetStepSizeDelta?$AA@ 1004d780     xpcruntime:xpcimports.obj
 0002:00007798       ??_C@_0CB@MKHINEIJ@slrteSetStepSizeDelta?5not?5found?6@ 1004d798     xpcruntime:xpcimports.obj
 0002:000077bc       ??_C@_0BI@CLNBLDKJ@slrteGetCurrentStepSize?$AA@ 1004d7bc     xpcruntime:xpcimports.obj
 0002:000077d4       ??_C@_0CD@GIOJPGJA@slrteGetCurrentStepSize?5not?5foun@ 1004d7d4     xpcruntime:xpcimports.obj
 0002:000077f8       ??_C@_0BE@FCLCBOC@registerPTPTimeRead?$AA@ 1004d7f8     xpcruntime:xpcimports.obj
 0002:0000780c       ??_C@_0BP@LHPKAJIP@registerPTPTimeRead?5not?5found?6?$AA@ 1004d80c     xpcruntime:xpcimports.obj
 0002:0000782c       ??_C@_0BG@KIGCDDJI@unRegisterPTPTimeRead?$AA@ 1004d82c     xpcruntime:xpcimports.obj
 0002:00007844       ??_C@_0CB@MLFFBFCM@unRegisterPTPTimeRead?5not?5found?6@ 1004d844     xpcruntime:xpcimports.obj
 0002:00007868       ??_C@_0BB@IPMDDBHK@slTestInitialize?$AA@ 1004d868     xpcruntime:xpcimports.obj
 0002:0000787c       ??_C@_0BM@LAJFCCJH@slTestInitialize?5not?5found?6?$AA@ 1004d87c     xpcruntime:xpcimports.obj
 0002:00007898       ??_C@_0BF@OOMPMEBC@slTestLogAssessments?$AA@ 1004d898     xpcruntime:xpcimports.obj
 0002:000078b0       ??_C@_0CA@FGJCEBAG@slTestLogAssessments?5not?5found?6?$AA@ 1004d8b0     xpcruntime:xpcimports.obj
 0002:000078d0       ??_C@_0BB@HJHKONHO@slTestEvalOnFail?$AA@ 1004d8d0     xpcruntime:xpcimports.obj
 0002:000078e4       ??_C@_0BM@JIKCFFNJ@slTestEvalOnFail?5not?5found?6?$AA@ 1004d8e4     xpcruntime:xpcimports.obj
 0002:00007900       ??_C@_0BA@LBHLABFP@slTestTerminate?$AA@ 1004d900     xpcruntime:xpcimports.obj
 0002:00007910       ??_C@_0BL@EMFGKAPA@slTestTerminate?5not?5found?6?$AA@ 1004d910     xpcruntime:xpcimports.obj
 0002:0000792c       ??_C@_0BE@JPNPBBEO@slTestRegAssessment?$AA@ 1004d92c     xpcruntime:xpcimports.obj
 0002:00007940       ??_C@_0BP@FBDEJJJH@slTestRegAssessment?5not?5found?6?$AA@ 1004d940     xpcruntime:xpcimports.obj
 0002:00007960       ??_C@_0O@NCLGDNIB@slrteSetupMSI?$AA@ 1004d960     xpcruntime:xpcimports.obj
 0002:00007970       ??_C@_0BJ@HEFMECLM@slrteSetupMSI?5not?5found?6?$AA@ 1004d970     xpcruntime:xpcimports.obj
 0002:0000798c       ??_C@_0BH@BPOLALHD@slrtGetCRBScratchSpace?$AA@ 1004d98c     xpcruntime:xpcimports.obj
 0002:000079a4       ??_C@_0CC@KCKAJKKJ@slrtGetCRBScratchSpace?5not?5found@ 1004d9a4     xpcruntime:xpcimports.obj
 0002:000079c8       ??_C@_0BC@MKFDAKOL@slrtGetSgCRBSpace?$AA@ 1004d9c8     xpcruntime:xpcimports.obj
 0002:000079dc       ??_C@_0BN@JDPHPLHL@slrtGetSgCRBSpace?5not?5found?6?$AA@ 1004d9dc     xpcruntime:xpcimports.obj
 0002:000079fc       ??_C@_0P@EPAPKLIF@slrtfsOpenFile?$AA@ 1004d9fc     xpcruntime:xpcimports.obj
 0002:00007a0c       ??_C@_0BK@FIHCBOHG@slrtfsOpenFile?5not?5found?6?$AA@ 1004da0c     xpcruntime:xpcimports.obj
 0002:00007a28       ??_C@_0BA@LILAFDDL@slrtfsCloseFile?$AA@ 1004da28     xpcruntime:xpcimports.obj
 0002:00007a38       ??_C@_0BL@DEGHJFIB@slrtfsCloseFile?5not?5found?6?$AA@ 1004da38     xpcruntime:xpcimports.obj
 0002:00007a54       ??_C@_0BC@OKMJDIEH@slrtfsWriteToFile?$AA@ 1004da54     xpcruntime:xpcimports.obj
 0002:00007a68       ??_C@_0BN@KCFLCLAH@slrtfsWriteToFile?5not?5found?6?$AA@ 1004da68     xpcruntime:xpcimports.obj
 0002:00007a88       ??_C@_0BK@GIPNFFFF@slrtfsGetFileErrorMessage?$AA@ 1004da88     xpcruntime:xpcimports.obj
 0002:00007aa4       ??_C@_0CF@BCBLMKLE@slrtfsGetFileErrorMessage?5not?5fo@ 1004daa4     xpcruntime:xpcimports.obj
 0002:00007acc       ??_C@_0BD@ICBOKMK@slrtfsGetFileError?$AA@ 1004dacc     xpcruntime:xpcimports.obj
 0002:00007ae0       ??_C@_0BO@FNBANAE@slrtfsGetFileError?5not?5found?6?$AA@ 1004dae0     xpcruntime:xpcimports.obj
 0002:00007b00       ??_C@_0BE@PPAJMHJP@slrtfsOpenFileAsync?$AA@ 1004db00     xpcruntime:xpcimports.obj
 0002:00007b14       ??_C@_0BP@HKBMMJOK@slrtfsOpenFileAsync?5not?5found?6?$AA@ 1004db14     xpcruntime:xpcimports.obj
 0002:00007b34       ??_C@_0BF@IGNDIBPF@slrtfsCloseFileAsync?$AA@ 1004db34     xpcruntime:xpcimports.obj
 0002:00007b4c       ??_C@_0CA@GJPFDBKN@slrtfsCloseFileAsync?5not?5found?6?$AA@ 1004db4c     xpcruntime:xpcimports.obj
 0002:00007b6c       ??_C@_0BE@IOLEBNB@slrtfsGetFileStatus?$AA@ 1004db6c     xpcruntime:xpcimports.obj
 0002:00007b80       ??_C@_0BP@PEFHDGHL@slrtfsGetFileStatus?5not?5found?6?$AA@ 1004db80     xpcruntime:xpcimports.obj
 0002:00007ba0       ??_C@_0M@HKIJIMG@slrtfsFread?$AA@ 1004dba0     xpcruntime:xpcimports.obj
 0002:00007bac       ??_C@_0BH@OOKBGONO@slrtfsFread?5not?5found?6?$AA@ 1004dbac     xpcruntime:xpcimports.obj
 0002:00007bc4       ??_C@_0BE@OGCMPLAP@slrtGetDefaultDrive?$AA@ 1004dbc4     xpcruntime:xpcimports.obj
 0002:00007bd8       ??_C@_0BP@HKFGLHOE@slrtGetDefaultDrive?5not?5found?6?$AA@ 1004dbd8     xpcruntime:xpcimports.obj
 0002:00007bf8       ??_C@_0N@NAJIKFFI@slrtLogEvent?$AA@ 1004dbf8     xpcruntime:xpcimports.obj
 0002:00007c08       ??_C@_0BI@NKCEACND@slrtLogEvent?5not?5found?6?$AA@ 1004dc08     xpcruntime:xpcimports.obj
 0002:00007c20       ??_C@_0N@IDKFJOHI@getlasterror?$AA@ 1004dc20     xpcruntime:xpcimports.obj
 0002:00007c30       ??_C@_0BI@MIHMCHGL@getlasterror?5not?5found?6?$AA@ 1004dc30     xpcruntime:xpcimports.obj
 0002:00007c48       ??_C@_0P@OKHGKJKN@geterrorstring?$AA@ 1004dc48     xpcruntime:xpcimports.obj
 0002:00007c58       ??_C@_0BK@NOHFDMLP@geterrorstring?5not?5found?6?$AA@ 1004dc58     xpcruntime:xpcimports.obj
 0002:00007c74       ??_C@_0BD@HNFFKMGJ@slrtGetCPUTCelsius?$AA@ 1004dc74     xpcruntime:xpcimports.obj
 0002:00007c88       ??_C@_0BO@LHBFKLIH@slrtGetCPUTCelsius?5not?5found?6?$AA@ 1004dc88     xpcruntime:xpcimports.obj
 0002:00007ca8       ??_C@_0M@OONCNCLM@slrtWarning?$AA@ 1004dca8     xpcruntime:xpcimports.obj
 0002:00007cb4       ??_C@_0BH@ICKGIEMB@slrtWarning?5not?5found?6?$AA@ 1004dcb4     xpcruntime:xpcimports.obj
 0002:00007ccc       ??_C@_0N@EAAOMIIE@isUsedByRTIP?$AA@ 1004dccc     xpcruntime:xpcimports.obj
 0002:00007cdc       ??_C@_0BI@GNHHHICK@isUsedByRTIP?5not?5found?6?$AA@ 1004dcdc     xpcruntime:xpcimports.obj
 0002:00007cf4       ??_C@_0BC@HLDKJAG@SetIPTASKPriority?$AA@ 1004dcf4     xpcruntime:xpcimports.obj
 0002:00007d08       ??_C@_0BN@OGKMHHAE@SetIPTASKPriority?5not?5found?6?$AA@ 1004dd08     xpcruntime:xpcimports.obj
 0002:00007d28       ??_C@_0O@LHENMBDD@OpenInterface?$AA@ 1004dd28     xpcruntime:xpcimports.obj
 0002:00007d38       ??_C@_0BJ@PFGDBKHB@OpenInterface?5not?5found?6?$AA@ 1004dd38     xpcruntime:xpcimports.obj
 0002:00007d54       ??_C@_0P@IINFELKD@CloseInterface?$AA@ 1004dd54     xpcruntime:xpcimports.obj
 0002:00007d64       ??_C@_0BK@PAPDNDBK@CloseInterface?5not?5found?6?$AA@ 1004dd64     xpcruntime:xpcimports.obj
 0002:00007d80       ??_C@_05LEFIAAOI@SetIP?$AA@ 1004dd80     xpcruntime:xpcimports.obj
 0002:00007d88       ??_C@_0BB@CGLIBAMM@SetIP?5not?5found?6?$AA@ 1004dd88     xpcruntime:xpcimports.obj
 0002:00007d9c       ??_C@_0BA@HIJJHHMD@AddGatewayRoute?$AA@ 1004dd9c     xpcruntime:xpcimports.obj
 0002:00007dac       ??_C@_0BL@BFCFMDMN@AddGatewayRoute?5not?5found?6?$AA@ 1004ddac     xpcruntime:xpcimports.obj
 0002:00007dc8       ??_C@_0M@PHMABFPI@DeleteRoute?$AA@ 1004ddc8     xpcruntime:xpcimports.obj
 0002:00007dd4       ??_C@_0BH@JPJGLLID@DeleteRoute?5not?5found?6?$AA@ 1004ddd4     xpcruntime:xpcimports.obj
 0002:00007dec       ??_C@_0BA@FCDIMKIJ@GetHostTarIPAdd?$AA@ 1004ddec     xpcruntime:xpcimports.obj
 0002:00007dfc       ??_C@_0BL@MBKDGKBO@GetHostTarIPAdd?5not?5found?6?$AA@ 1004ddfc     xpcruntime:xpcimports.obj
 0002:00007e18       ??_C@_0M@HPMIPIBI@GetDCUUsage?$AA@ 1004de18     xpcruntime:xpcimports.obj
 0002:00007e24       ??_C@_0BH@EBLJKCJC@GetDCUUsage?5not?5found?6?$AA@ 1004de24     xpcruntime:xpcimports.obj
 0002:00007e3c       ??_C@_06MPKMECK@accept?$AA@ 1004de3c     xpcruntime:xpcimports.obj
 0002:00007e44       ??_C@_0BC@GBGIEMNO@accept?5not?5found?6?$AA@ 1004de44     xpcruntime:xpcimports.obj
 0002:00007e58       ??_C@_04NPNJNMMP@bind?$AA@ 1004de58     xpcruntime:xpcimports.obj
 0002:00007e60       ??_C@_0BA@DAJNENLO@bind?5not?5found?6?$AA@ 1004de60     xpcruntime:xpcimports.obj
 0002:00007e70       ??_C@_0L@CKHNIFCM@setsockopt?$AA@ 1004de70     xpcruntime:xpcimports.obj
 0002:00007e7c       ??_C@_0BG@MFIIOMFE@setsockopt?5not?5found?6?$AA@ 1004de7c     xpcruntime:xpcimports.obj
 0002:00007e94       ??_C@_0M@ODDJDCDK@closesocket?$AA@ 1004de94     xpcruntime:xpcimports.obj
 0002:00007ea0       ??_C@_0BH@JHGHMIL@closesocket?5not?5found?6?$AA@ 1004dea0     xpcruntime:xpcimports.obj
 0002:00007eb8       ??_C@_07KAIBNCHO@connect?$AA@ 1004deb8     xpcruntime:xpcimports.obj
 0002:00007ec0       ??_C@_0BD@MKLLMBM@connect?5not?5found?6?$AA@ 1004dec0     xpcruntime:xpcimports.obj
 0002:00007ed4       ??_C@_0M@PBPOCKDG@ioctlsocket?$AA@ 1004ded4     xpcruntime:xpcimports.obj
 0002:00007ee0       ??_C@_0BH@NFCNHHIH@ioctlsocket?5not?5found?6?$AA@ 1004dee0     xpcruntime:xpcimports.obj
 0002:00007ef8       ??_C@_06OODDLKLE@listen?$AA@ 1004def8     xpcruntime:xpcimports.obj
 0002:00007f00       ??_C@_0BC@NHBILEKI@listen?5not?5found?6?$AA@ 1004df00     xpcruntime:xpcimports.obj
 0002:00007f14       ??_C@_08HMBBGFHE@recvfrom?$AA@ 1004df14     xpcruntime:xpcimports.obj
 0002:00007f20       ??_C@_0BE@BJAJFFLF@recvfrom?5not?5found?6?$AA@ 1004df20     xpcruntime:xpcimports.obj
 0002:00007f34       ??_C@_06MEPBGKEC@sendto?$AA@ 1004df34     xpcruntime:xpcimports.obj
 0002:00007f3c       ??_C@_0BC@BHPIMDJO@sendto?5not?5found?6?$AA@ 1004df3c     xpcruntime:xpcimports.obj
 0002:00007f50       ??_C@_09JKBDEEOB@inet_addr?$AA@ 1004df50     xpcruntime:xpcimports.obj
 0002:00007f5c       ??_C@_0BF@HKJPGECN@inet_addr?5not?5found?6?$AA@ 1004df5c     xpcruntime:xpcimports.obj
 0002:00007f74       ??_C@_06HBELJPBO@socket?$AA@ 1004df74     xpcruntime:xpcimports.obj
 0002:00007f7c       ??_C@_0BC@NAGFFJGA@socket?5not?5found?6?$AA@ 1004df7c     xpcruntime:xpcimports.obj
 0002:00007f90       ??_C@_09ICJIFGNC@GetSocket?$AA@ 1004df90     xpcruntime:xpcimports.obj
 0002:00007f9c       ??_C@_0BF@KDBCKMOJ@GetSocket?5not?5found?6?$AA@ 1004df9c     xpcruntime:xpcimports.obj
 0002:00007fb4       ??_C@_0P@KJEGJMJI@GetSocketState?$AA@ 1004dfb4     xpcruntime:xpcimports.obj
 0002:00007fc4       ??_C@_0BK@IALBJHEB@GetSocketState?5not?5found?6?$AA@ 1004dfc4     xpcruntime:xpcimports.obj
 0002:00007fe0       ??_C@_0L@MEAJHNHB@SocketSend?$AA@ 1004dfe0     xpcruntime:xpcimports.obj
 0002:00007fec       ??_C@_0BG@EOCMBFJA@SocketSend?5not?5found?6?$AA@ 1004dfec     xpcruntime:xpcimports.obj
 0002:00008004       ??_C@_0O@PFPCLEMF@SocketReceive?$AA@ 1004e004     xpcruntime:xpcimports.obj
 0002:00008014       ??_C@_0BJ@HIBADDFO@SocketReceive?5not?5found?6?$AA@ 1004e014     xpcruntime:xpcimports.obj
 0002:00008030       ??_C@_0BD@OOGFNAIK@CreateServerSocket?$AA@ 1004e030     xpcruntime:xpcimports.obj
 0002:00008044       ??_C@_0BO@GKIJHIPH@CreateServerSocket?5not?5found?6?$AA@ 1004e044     xpcruntime:xpcimports.obj
 0002:00008064       ??_C@_0BB@KGHJGFFO@OpenServerListen?$AA@ 1004e064     xpcruntime:xpcimports.obj
 0002:00008078       ??_C@_0BM@NFMMLIO@OpenServerListen?5not?5found?6?$AA@ 1004e078     xpcruntime:xpcimports.obj
 0002:00008094       ??_C@_0BE@BAJLDJAH@ConnectServerSocket?$AA@ 1004e094     xpcruntime:xpcimports.obj
 0002:000080a8       ??_C@_0BP@KJNODIKE@ConnectServerSocket?5not?5found?6?$AA@ 1004e0a8     xpcruntime:xpcimports.obj
 0002:000080c8       ??_C@_0BC@PLKKJDIM@CloseServerSocket?$AA@ 1004e0c8     xpcruntime:xpcimports.obj
 0002:000080dc       ??_C@_0BN@KEJEPNMB@CloseServerSocket?5not?5found?6?$AA@ 1004e0dc     xpcruntime:xpcimports.obj
 0002:000080fc       ??_C@_0BD@MCLPKCPP@CreateClientSocket?$AA@ 1004e0fc     xpcruntime:xpcimports.obj
 0002:00008110       ??_C@_0BO@DILAGPFN@CreateClientSocket?5not?5found?6?$AA@ 1004e110     xpcruntime:xpcimports.obj
 0002:00008130       ??_C@_0BB@DAPKNNLG@BindClientSocket?$AA@ 1004e130     xpcruntime:xpcimports.obj
 0002:00008144       ??_C@_0BM@LLLMMDFN@BindClientSocket?5not?5found?6?$AA@ 1004e144     xpcruntime:xpcimports.obj
 0002:00008160       ??_C@_0BE@DMEBELHC@ConnectClientSocket?$AA@ 1004e160     xpcruntime:xpcimports.obj
 0002:00008174       ??_C@_0BP@PLOHCPAO@ConnectClientSocket?5not?5found?6?$AA@ 1004e174     xpcruntime:xpcimports.obj
 0002:00008194       ??_C@_0BC@NHHAOBPJ@CloseClientSocket?$AA@ 1004e194     xpcruntime:xpcimports.obj
 0002:000081a8       ??_C@_0BN@PGKNOKGL@CloseClientSocket?5not?5found?6?$AA@ 1004e1a8     xpcruntime:xpcimports.obj
 0002:000081c8       __real@3e112e0be826d695    1004e1c8     xpcruntime:xpcPCFunctions.obj
 0002:000081d0       __real@3f538bcdfefbf402    1004e1d0     xpcruntime:xpcPCFunctions.obj
 0002:000081d8       __real@40112e0be826d695    1004e1d8     xpcruntime:xpcPCFunctions.obj
 0002:000081e0       __real@40f0000000000000    1004e1e0     xpcruntime:xpcPCFunctions.obj
 0002:000081f0       __OP_FMODjmptab            1004e1f0     LIBCMT:87fmod.obj
 0002:000082c4       __FPinit                   1004e2c4     LIBCMT:fpinit.obj
 0002:000082c8       ??_C@_17LGKOMLJ@?$AA?4?$AA?4?$AA?4?$AA?$AA@ 1004e2c8     LIBCMT:wassert.obj
 0002:000082d0       ??_C@_13LBAGMAIH@?$AA?6?$AA?$AA@ 1004e2d0     LIBCMT:wassert.obj
 0002:000082d4       ??_C@_15IABLJNFO@?$AA?6?$AA?6?$AA?$AA@ 1004e2d4     LIBCMT:wassert.obj
 0002:000082dc       ??_C@_1CE@OJBNHDMO@?$AAA?$AAs?$AAs?$AAe?$AAr?$AAt?$AAi?$AAo?$AAn?$AA?5?$AAf?$AAa?$AAi?$AAl?$AAe?$AAd?$AA?$CB?$AA?$AA@ 1004e2dc     LIBCMT:wassert.obj
 0002:00008300       ??_C@_1BE@PHKBBGE@?$AAP?$AAr?$AAo?$AAg?$AAr?$AAa?$AAm?$AA?3?$AA?5?$AA?$AA@ 1004e300     LIBCMT:wassert.obj
 0002:00008314       ??_C@_1CO@EAEJAADC@?$AA?$DM?$AAp?$AAr?$AAo?$AAg?$AAr?$AAa?$AAm?$AA?5?$AAn?$AAa?$AAm?$AAe?$AA?5?$AAu?$AAn?$AAk?$AAn?$AAo?$AAw?$AAn?$AA?$DO?$AA?$AA@ 1004e314     LIBCMT:wassert.obj
 0002:00008344       ??_C@_1O@HEMHKNDC@?$AAF?$AAi?$AAl?$AAe?$AA?3?$AA?5?$AA?$AA@ 1004e344     LIBCMT:wassert.obj
 0002:00008354       ??_C@_1O@KCAFKHJE@?$AAL?$AAi?$AAn?$AAe?$AA?3?$AA?5?$AA?$AA@ 1004e354     LIBCMT:wassert.obj
 0002:00008364       ??_C@_1BK@PEDCIPMA@?$AAE?$AAx?$AAp?$AAr?$AAe?$AAs?$AAs?$AAi?$AAo?$AAn?$AA?3?$AA?5?$AA?$AA@ 1004e364     LIBCMT:wassert.obj
 0002:00008380       ??_C@_1OA@EGMLFBHJ@?$AAF?$AAo?$AAr?$AA?5?$AAi?$AAn?$AAf?$AAo?$AAr?$AAm?$AAa?$AAt?$AAi?$AAo?$AAn?$AA?5?$AAo?$AAn?$AA?5?$AAh?$AAo?$AAw?$AA?5?$AAy?$AAo?$AAu?$AAr?$AA?5?$AAp?$AAr?$AAo?$AAg@ 1004e380     LIBCMT:wassert.obj
 0002:00008460       ??_C@_1HK@POCJMFGK@?$AA?$CI?$AAP?$AAr?$AAe?$AAs?$AAs?$AA?5?$AAR?$AAe?$AAt?$AAr?$AAy?$AA?5?$AAt?$AAo?$AA?5?$AAd?$AAe?$AAb?$AAu?$AAg?$AA?5?$AAt?$AAh?$AAe?$AA?5?$AAa?$AAp?$AAp?$AAl?$AAi?$AAc@ 1004e460     LIBCMT:wassert.obj
 0002:000084e0       ??_C@_1EK@MBDPDCGA@?$AAM?$AAi?$AAc?$AAr?$AAo?$AAs?$AAo?$AAf?$AAt?$AA?5?$AAV?$AAi?$AAs?$AAu?$AAa?$AAl?$AA?5?$AAC?$AA?$CL?$AA?$CL?$AA?5?$AAR?$AAu?$AAn?$AAt?$AAi?$AAm?$AAe?$AA?5?$AAL?$AAi?$AAb@ 1004e4e0     LIBCMT:wassert.obj
 0002:00008534       ??_C@_1BI@BGOHAHKC@?$AAm?$AAs?$AAc?$AAo?$AAr?$AAe?$AAe?$AA?4?$AAd?$AAl?$AAl?$AA?$AA@ 1004e534     LIBCMT:crt0dat.obj
 0002:0000854c       ??_C@_0P@MIGLKIOC@CorExitProcess?$AA@ 1004e54c     LIBCMT:crt0dat.obj
 0002:0000855c       __pRawDllMain              1004e55c     LIBCMT:dllcrt0.obj
 0002:0000855c       __pDefaultRawDllMain       1004e55c     LIBCMT:dllcrt0.obj
 0002:00008560       ?ProcessDetach@NativeDll@<CrtImplementationDetails>@@0IB 1004e560     LIBCMT:handler.obj
 0002:00008564       ?ProcessAttach@NativeDll@<CrtImplementationDetails>@@0IB 1004e564     LIBCMT:handler.obj
 0002:00008568       ?ThreadAttach@NativeDll@<CrtImplementationDetails>@@0IB 1004e568     LIBCMT:handler.obj
 0002:0000856c       ?ThreadDetach@NativeDll@<CrtImplementationDetails>@@0IB 1004e56c     LIBCMT:handler.obj
 0002:00008570       ?ProcessVerifier@NativeDll@<CrtImplementationDetails>@@0IB 1004e570     LIBCMT:handler.obj
 0002:00008630       ??_C@_1FK@PGACCAFB@?$AAR?$AA6?$AA0?$AA0?$AA2?$AA?$AN?$AA?6?$AA?9?$AA?5?$AAf?$AAl?$AAo?$AAa?$AAt?$AAi?$AAn?$AAg?$AA?5?$AAp?$AAo?$AAi?$AAn?$AAt?$AA?5?$AAs?$AAu?$AAp?$AAp?$AAo?$AAr?$AAt?$AA?5@ 1004e630     LIBCMT:crt0msg.obj
 0002:00008690       ??_C@_1FE@LLNEDJMD@?$AAR?$AA6?$AA0?$AA0?$AA8?$AA?$AN?$AA?6?$AA?9?$AA?5?$AAn?$AAo?$AAt?$AA?5?$AAe?$AAn?$AAo?$AAu?$AAg?$AAh?$AA?5?$AAs?$AAp?$AAa?$AAc?$AAe?$AA?5?$AAf?$AAo?$AAr?$AA?5?$AAa?$AAr@ 1004e690     LIBCMT:crt0msg.obj
 0002:000086e8       ??_C@_1FI@HONFMGBI@?$AAR?$AA6?$AA0?$AA0?$AA9?$AA?$AN?$AA?6?$AA?9?$AA?5?$AAn?$AAo?$AAt?$AA?5?$AAe?$AAn?$AAo?$AAu?$AAg?$AAh?$AA?5?$AAs?$AAp?$AAa?$AAc?$AAe?$AA?5?$AAf?$AAo?$AAr?$AA?5?$AAe?$AAn@ 1004e6e8     LIBCMT:crt0msg.obj
 0002:00008740       ??_C@_1EG@BEHAGFJD@?$AAR?$AA6?$AA0?$AA1?$AA0?$AA?$AN?$AA?6?$AA?9?$AA?5?$AAa?$AAb?$AAo?$AAr?$AAt?$AA?$CI?$AA?$CJ?$AA?5?$AAh?$AAa?$AAs?$AA?5?$AAb?$AAe?$AAe?$AAn?$AA?5?$AAc?$AAa?$AAl?$AAl?$AAe?$AAd@ 1004e740     LIBCMT:crt0msg.obj
 0002:00008788       ??_C@_1FI@LOGNIKDM@?$AAR?$AA6?$AA0?$AA1?$AA6?$AA?$AN?$AA?6?$AA?9?$AA?5?$AAn?$AAo?$AAt?$AA?5?$AAe?$AAn?$AAo?$AAu?$AAg?$AAh?$AA?5?$AAs?$AAp?$AAa?$AAc?$AAe?$AA?5?$AAf?$AAo?$AAr?$AA?5?$AAt?$AAh@ 1004e788     LIBCMT:crt0msg.obj
 0002:000087e0       ??_C@_1FK@BEOGODMC@?$AAR?$AA6?$AA0?$AA1?$AA7?$AA?$AN?$AA?6?$AA?9?$AA?5?$AAu?$AAn?$AAe?$AAx?$AAp?$AAe?$AAc?$AAt?$AAe?$AAd?$AA?5?$AAm?$AAu?$AAl?$AAt?$AAi?$AAt?$AAh?$AAr?$AAe?$AAa?$AAd?$AA?5@ 1004e7e0     LIBCMT:crt0msg.obj
 0002:00008840       ??_C@_1EC@JIBHAOPH@?$AAR?$AA6?$AA0?$AA1?$AA8?$AA?$AN?$AA?6?$AA?9?$AA?5?$AAu?$AAn?$AAe?$AAx?$AAp?$AAe?$AAc?$AAt?$AAe?$AAd?$AA?5?$AAh?$AAe?$AAa?$AAp?$AA?5?$AAe?$AAr?$AAr?$AAo?$AAr?$AA?$AN?$AA?6@ 1004e840     LIBCMT:crt0msg.obj
 0002:00008888       ??_C@_1FC@ECHBIFBC@?$AAR?$AA6?$AA0?$AA1?$AA9?$AA?$AN?$AA?6?$AA?9?$AA?5?$AAu?$AAn?$AAa?$AAb?$AAl?$AAe?$AA?5?$AAt?$AAo?$AA?5?$AAo?$AAp?$AAe?$AAn?$AA?5?$AAc?$AAo?$AAn?$AAs?$AAo?$AAl?$AAe?$AA?5@ 1004e888     LIBCMT:crt0msg.obj
 0002:000088e0       ??_C@_1GK@FHCKBEFA@?$AAR?$AA6?$AA0?$AA2?$AA4?$AA?$AN?$AA?6?$AA?9?$AA?5?$AAn?$AAo?$AAt?$AA?5?$AAe?$AAn?$AAo?$AAu?$AAg?$AAh?$AA?5?$AAs?$AAp?$AAa?$AAc?$AAe?$AA?5?$AAf?$AAo?$AAr?$AA?5?$AA_?$AAo@ 1004e8e0     LIBCMT:crt0msg.obj
 0002:00008950       ??_C@_1EM@MAADIHMB@?$AAR?$AA6?$AA0?$AA2?$AA5?$AA?$AN?$AA?6?$AA?9?$AA?5?$AAp?$AAu?$AAr?$AAe?$AA?5?$AAv?$AAi?$AAr?$AAt?$AAu?$AAa?$AAl?$AA?5?$AAf?$AAu?$AAn?$AAc?$AAt?$AAi?$AAo?$AAn?$AA?5?$AAc@ 1004e950     LIBCMT:crt0msg.obj
 0002:000089a0       ??_C@_1GK@MCAAGJMO@?$AAR?$AA6?$AA0?$AA2?$AA6?$AA?$AN?$AA?6?$AA?9?$AA?5?$AAn?$AAo?$AAt?$AA?5?$AAe?$AAn?$AAo?$AAu?$AAg?$AAh?$AA?5?$AAs?$AAp?$AAa?$AAc?$AAe?$AA?5?$AAf?$AAo?$AAr?$AA?5?$AAs?$AAt@ 1004e9a0     LIBCMT:crt0msg.obj
 0002:00008a10       ??_C@_1GK@MFGOKLAG@?$AAR?$AA6?$AA0?$AA2?$AA7?$AA?$AN?$AA?6?$AA?9?$AA?5?$AAn?$AAo?$AAt?$AA?5?$AAe?$AAn?$AAo?$AAu?$AAg?$AAh?$AA?5?$AAs?$AAp?$AAa?$AAc?$AAe?$AA?5?$AAf?$AAo?$AAr?$AA?5?$AAl?$AAo@ 1004ea10     LIBCMT:crt0msg.obj
 0002:00008a80       ??_C@_1EK@HHFLMAOL@?$AAR?$AA6?$AA0?$AA2?$AA8?$AA?$AN?$AA?6?$AA?9?$AA?5?$AAu?$AAn?$AAa?$AAb?$AAl?$AAe?$AA?5?$AAt?$AAo?$AA?5?$AAi?$AAn?$AAi?$AAt?$AAi?$AAa?$AAl?$AAi?$AAz?$AAe?$AA?5?$AAh?$AAe@ 1004ea80     LIBCMT:crt0msg.obj
 0002:00008acc       ??_C@_1DO@BMFCDCD@?$AAR?$AA6?$AA0?$AA3?$AA0?$AA?$AN?$AA?6?$AA?9?$AA?5?$AAC?$AAR?$AAT?$AA?5?$AAn?$AAo?$AAt?$AA?5?$AAi?$AAn?$AAi?$AAt?$AAi?$AAa?$AAl?$AAi?$AAz?$AAe?$AAd?$AA?$AN?$AA?6?$AA?$AA@ 1004eacc     LIBCMT:crt0msg.obj
 0002:00008b10       ??_C@_1MG@ENCOOIDF@?$AAR?$AA6?$AA0?$AA3?$AA1?$AA?$AN?$AA?6?$AA?9?$AA?5?$AAA?$AAt?$AAt?$AAe?$AAm?$AAp?$AAt?$AA?5?$AAt?$AAo?$AA?5?$AAi?$AAn?$AAi?$AAt?$AAi?$AAa?$AAl?$AAi?$AAz?$AAe?$AA?5?$AAt@ 1004eb10     LIBCMT:crt0msg.obj
 0002:00008bd8       ??_C@_1GG@GOPILAJP@?$AAR?$AA6?$AA0?$AA3?$AA2?$AA?$AN?$AA?6?$AA?9?$AA?5?$AAn?$AAo?$AAt?$AA?5?$AAe?$AAn?$AAo?$AAu?$AAg?$AAh?$AA?5?$AAs?$AAp?$AAa?$AAc?$AAe?$AA?5?$AAf?$AAo?$AAr?$AA?5?$AAl?$AAo@ 1004ebd8     LIBCMT:crt0msg.obj
 0002:00008c40       ??_C@_1BOO@KGEDBGAJ@?$AAR?$AA6?$AA0?$AA3?$AA3?$AA?$AN?$AA?6?$AA?9?$AA?5?$AAA?$AAt?$AAt?$AAe?$AAm?$AAp?$AAt?$AA?5?$AAt?$AAo?$AA?5?$AAu?$AAs?$AAe?$AA?5?$AAM?$AAS?$AAI?$AAL?$AA?5?$AAc?$AAo?$AAd@ 1004ec40     LIBCMT:crt0msg.obj
 0002:00008e30       ??_C@_1GG@MKFPEKFO@?$AAR?$AA6?$AA0?$AA3?$AA4?$AA?$AN?$AA?6?$AA?9?$AA?5?$AAi?$AAn?$AAc?$AAo?$AAn?$AAs?$AAi?$AAs?$AAt?$AAe?$AAn?$AAt?$AA?5?$AAo?$AAn?$AAe?$AAx?$AAi?$AAt?$AA?5?$AAb?$AAe?$AAg@ 1004ee30     LIBCMT:crt0msg.obj
 0002:00008e98       ??_C@_1BO@BFCDCGC@?$AAD?$AAO?$AAM?$AAA?$AAI?$AAN?$AA?5?$AAe?$AAr?$AAr?$AAo?$AAr?$AA?$AN?$AA?6?$AA?$AA@ 1004ee98     LIBCMT:crt0msg.obj
 0002:00008eb8       ??_C@_1BK@KMOMNAAI@?$AAS?$AAI?$AAN?$AAG?$AA?5?$AAe?$AAr?$AAr?$AAo?$AAr?$AA?$AN?$AA?6?$AA?$AA@ 1004eeb8     LIBCMT:crt0msg.obj
 0002:00008ed4       ??_C@_1BM@JBBEPPHI@?$AAT?$AAL?$AAO?$AAS?$AAS?$AA?5?$AAe?$AAr?$AAr?$AAo?$AAr?$AA?$AN?$AA?6?$AA?$AA@ 1004eed4     LIBCMT:crt0msg.obj
 0002:00008ef0       ??_C@_15JNBOKNOG@?$AA?$AN?$AA?6?$AA?$AA@ 1004eef0     LIBCMT:crt0msg.obj
 0002:00008ef8       ??_C@_1BO@BKOMIGKJ@?$AAr?$AAu?$AAn?$AAt?$AAi?$AAm?$AAe?$AA?5?$AAe?$AAr?$AAr?$AAo?$AAr?$AA?5?$AA?$AA@ 1004eef8     LIBCMT:crt0msg.obj
 0002:00008f18       ??_C@_1DE@JNGNBFGO@?$AAR?$AAu?$AAn?$AAt?$AAi?$AAm?$AAe?$AA?5?$AAE?$AAr?$AAr?$AAo?$AAr?$AA?$CB?$AA?6?$AA?6?$AAP?$AAr?$AAo?$AAg?$AAr?$AAa?$AAm?$AA?3?$AA?5?$AA?$AA@ 1004ef18     LIBCMT:crt0msg.obj
 0002:00008f4c       ??_C@_06OJHGLDPL@?$CInull?$CJ?$AA@ 1004ef4c     LIBCMT:output.obj
 0002:00008f54       ??_C@_1O@CEDCILHN@?$AA?$CI?$AAn?$AAu?$AAl?$AAl?$AA?$CJ?$AA?$AA@ 1004ef54     LIBCMT:output.obj
 0002:00008f68       ___lookuptable             1004ef68     LIBCMT:output.obj
 0002:00009000       __indefinite               1004f000     LIBCMT:87disp.obj
 0002:0000900a       __piby2                    1004f00a     LIBCMT:87disp.obj
 0002:0000902c       ??_C@_04FJHINJAO@tanh?$AA@ 1004f02c     LIBCMT:fpexcept.obj
 0002:00009034       ??_C@_04FIHNOPOL@asin?$AA@ 1004f034     LIBCMT:fpexcept.obj
 0002:0000903c       ??_C@_04PDIFKINK@acos?$AA@ 1004f03c     LIBCMT:fpexcept.obj
 0002:00009044       ??_C@_04MLLJIGOK@atan?$AA@ 1004f044     LIBCMT:fpexcept.obj
 0002:0000904c       ??_C@_05KNGEOGJB@atan2?$AA@ 1004f04c     LIBCMT:fpexcept.obj
 0002:00009054       ??_C@_04EIAKFFMI@sqrt?$AA@ 1004f054     LIBCMT:fpexcept.obj
 0002:0000905c       ??_C@_03BLEJJJBH@sin?$AA@  1004f05c     LIBCMT:fpexcept.obj
 0002:00009060       ??_C@_03LALBNOCG@cos?$AA@  1004f060     LIBCMT:fpexcept.obj
 0002:00009064       ??_C@_03IIINPABG@tan?$AA@  1004f064     LIBCMT:fpexcept.obj
 0002:00009068       ??_C@_04GFPJNGEK@ceil?$AA@ 1004f068     LIBCMT:fpexcept.obj
 0002:00009070       ??_C@_05PBJFFIGL@floor?$AA@ 1004f070     LIBCMT:fpexcept.obj
 0002:00009078       ??_C@_04ODHECPBC@fabs?$AA@ 1004f078     LIBCMT:fpexcept.obj
 0002:00009080       ??_C@_04EHEDPDJG@modf?$AA@ 1004f080     LIBCMT:fpexcept.obj
 0002:00009088       ??_C@_05CEJMAHNP@ldexp?$AA@ 1004f088     LIBCMT:fpexcept.obj
 0002:00009090       ??_C@_05KBKMEMPO@_cabs?$AA@ 1004f090     LIBCMT:fpexcept.obj
 0002:00009098       ??_C@_06MEIMCGCF@_hypot?$AA@ 1004f098     LIBCMT:fpexcept.obj
 0002:000090a0       ??_C@_04KEPJIHGP@fmod?$AA@ 1004f0a0     LIBCMT:fpexcept.obj
 0002:000090a8       ??_C@_05GKKHEGJL@frexp?$AA@ 1004f0a8     LIBCMT:fpexcept.obj
 0002:000090b0       ??_C@_03MJLDFKDL@_y0?$AA@  1004f0b0     LIBCMT:fpexcept.obj
 0002:000090b4       ??_C@_03NAKIGLHK@_y1?$AA@  1004f0b4     LIBCMT:fpexcept.obj
 0002:000090b8       ??_C@_03ONILCKOB@_yn?$AA@  1004f0b8     LIBCMT:fpexcept.obj
 0002:000090bc       ??_C@_05JGDBENOH@_logb?$AA@ 1004f0bc     LIBCMT:fpexcept.obj
 0002:000090c4       ??_C@_0L@KDOEJCKC@_nextafter?$AA@ 1004f0c4     LIBCMT:fpexcept.obj
 0002:000090d0       ??_C@_03KHJOGHMM@exp?$AA@  1004f0d0     LIBCMT:fpexcept.obj
 0002:000090d4       ??_C@_03JGHBODFD@pow?$AA@  1004f0d4     LIBCMT:fpexcept.obj
 0002:000090d8       ??_C@_03MGHMBJCF@log?$AA@  1004f0d8     LIBCMT:fpexcept.obj
 0002:000090dc       ??_C@_05HGHHAHAP@log10?$AA@ 1004f0dc     LIBCMT:fpexcept.obj
 0002:000090e4       ??_C@_04COOMCNPB@sinh?$AA@ 1004f0e4     LIBCMT:fpexcept.obj
 0002:000090ec       ??_C@_04HPJJNFIM@cosh?$AA@ 1004f0ec     LIBCMT:fpexcept.obj
 0002:000090f4       ??_C@_05KLBDPFGC@e?$CL000?$AA@ 1004f0f4     LIBCMT:cvt.obj
 0002:000090fc       ??_C@_1BG@GOEBHBDC@?$AAU?$AAS?$AAE?$AAR?$AA3?$AA2?$AA?4?$AAD?$AAL?$AAL?$AA?$AA@ 1004f0fc     LIBCMT:crtmboxw.obj
 0002:00009114       ??_C@_0M@DLDCCGNP@MessageBoxW?$AA@ 1004f114     LIBCMT:crtmboxw.obj
 0002:00009120       ??_C@_0BA@HNOPNCHB@GetActiveWindow?$AA@ 1004f120     LIBCMT:crtmboxw.obj
 0002:00009130       ??_C@_0BD@HHGDFDBJ@GetLastActivePopup?$AA@ 1004f130     LIBCMT:crtmboxw.obj
 0002:00009144       ??_C@_0BK@DEKFELLI@GetUserObjectInformationW?$AA@ 1004f144     LIBCMT:crtmboxw.obj
 0002:00009160       ??_C@_0BI@DFKBFLJE@GetProcessWindowStation?$AA@ 1004f160     LIBCMT:crtmboxw.obj
 0002:00009178       ??_C@_1BK@MGMFAEKH@?$AAk?$AAe?$AAr?$AAn?$AAe?$AAl?$AA3?$AA2?$AA?4?$AAd?$AAl?$AAl?$AA?$AA@ 1004f178     LIBCMT:winapisupp.obj
 0002:00009194       ??_C@_08KNHFBNJ@FlsAlloc?$AA@ 1004f194     LIBCMT:winapisupp.obj
 0002:000091a0       ??_C@_07PEJMOBNF@FlsFree?$AA@ 1004f1a0     LIBCMT:winapisupp.obj
 0002:000091a8       ??_C@_0M@GDNOONDI@FlsGetValue?$AA@ 1004f1a8     LIBCMT:winapisupp.obj
 0002:000091b4       ??_C@_0M@JCPCPOEF@FlsSetValue?$AA@ 1004f1b4     LIBCMT:winapisupp.obj
 0002:000091c0       ??_C@_0BM@HCFOFFN@InitializeCriticalSectionEx?$AA@ 1004f1c0     LIBCMT:winapisupp.obj
 0002:000091dc       ??_C@_0P@DLHPPCNH@CreateEventExW?$AA@ 1004f1dc     LIBCMT:winapisupp.obj
 0002:000091ec       ??_C@_0BD@KIEEOEEH@CreateSemaphoreExW?$AA@ 1004f1ec     LIBCMT:winapisupp.obj
 0002:00009200       ??_C@_0BI@BKLFFAPO@SetThreadStackGuarantee?$AA@ 1004f200     LIBCMT:winapisupp.obj
 0002:00009218       ??_C@_0BG@OGFAJCKC@CreateThreadpoolTimer?$AA@ 1004f218     LIBCMT:winapisupp.obj
 0002:00009230       ??_C@_0BD@LPLEMMDI@SetThreadpoolTimer?$AA@ 1004f230     LIBCMT:winapisupp.obj
 0002:00009244       ??_C@_0CA@FMNJENH@WaitForThreadpoolTimerCallbacks?$AA@ 1004f244     LIBCMT:winapisupp.obj
 0002:00009264       ??_C@_0BF@DCFCCNOC@CloseThreadpoolTimer?$AA@ 1004f264     LIBCMT:winapisupp.obj
 0002:0000927c       ??_C@_0BF@FLABGKKM@CreateThreadpoolWait?$AA@ 1004f27c     LIBCMT:winapisupp.obj
 0002:00009294       ??_C@_0BC@MGCOHNA@SetThreadpoolWait?$AA@ 1004f294     LIBCMT:winapisupp.obj
 0002:000092a8       ??_C@_0BE@OCIOMIMP@CloseThreadpoolWait?$AA@ 1004f2a8     LIBCMT:winapisupp.obj
 0002:000092bc       ??_C@_0BJ@LKGHFHBO@FlushProcessWriteBuffers?$AA@ 1004f2bc     LIBCMT:winapisupp.obj
 0002:000092d8       ??_C@_0BP@KALKKPMO@FreeLibraryWhenCallbackReturns?$AA@ 1004f2d8     LIBCMT:winapisupp.obj
 0002:000092f8       ??_C@_0BK@DFNBACLA@GetCurrentProcessorNumber?$AA@ 1004f2f8     LIBCMT:winapisupp.obj
 0002:00009314       ??_C@_0BP@KHGALBC@GetLogicalProcessorInformation?$AA@ 1004f314     LIBCMT:winapisupp.obj
 0002:00009334       ??_C@_0BE@FKKLLFLM@CreateSymbolicLinkW?$AA@ 1004f334     LIBCMT:winapisupp.obj
 0002:00009348       ??_C@_0BJ@OHNKDLIJ@SetDefaultDllDirectories?$AA@ 1004f348     LIBCMT:winapisupp.obj
 0002:00009364       ??_C@_0BE@LJANKFHF@EnumSystemLocalesEx?$AA@ 1004f364     LIBCMT:winapisupp.obj
 0002:00009378       ??_C@_0BA@IHGNDAEB@CompareStringEx?$AA@ 1004f378     LIBCMT:winapisupp.obj
 0002:00009388       ??_C@_0BA@EPCJIIPD@GetDateFormatEx?$AA@ 1004f388     LIBCMT:winapisupp.obj
 0002:00009398       ??_C@_0BA@ONOKGCMP@GetLocaleInfoEx?$AA@ 1004f398     LIBCMT:winapisupp.obj
 0002:000093a8       ??_C@_0BA@CIJJKCJJ@GetTimeFormatEx?$AA@ 1004f3a8     LIBCMT:winapisupp.obj
 0002:000093b8       ??_C@_0BJ@PBCCBIPI@GetUserDefaultLocaleName?$AA@ 1004f3b8     LIBCMT:winapisupp.obj
 0002:000093d4       ??_C@_0BC@CELBKLLA@IsValidLocaleName?$AA@ 1004f3d4     LIBCMT:winapisupp.obj
 0002:000093e8       ??_C@_0O@KKBNKAPF@LCMapStringEx?$AA@ 1004f3e8     LIBCMT:winapisupp.obj
 0002:000093f8       ??_C@_0BE@JOGNEJCI@GetCurrentPackageId?$AA@ 1004f3f8     LIBCMT:winapisupp.obj
 0002:0000940c       ??_C@_0P@CDHHOHKP@GetTickCount64?$AA@ 1004f40c     LIBCMT:winapisupp.obj
 0002:0000941c       ??_C@_0BO@KPCLFDJJ@GetFileInformationByHandleExW?$AA@ 1004f41c     LIBCMT:winapisupp.obj
 0002:0000943c       ??_C@_0BM@MHIDLABK@SetFileInformationByHandleW?$AA@ 1004f43c     LIBCMT:winapisupp.obj
 0002:00009458       ??_C@_1BK@GAEMIDIL@?$AAA?$AAD?$AAV?$AAA?$AAP?$AAI?$AA3?$AA2?$AA?4?$AAD?$AAL?$AAL?$AA?$AA@ 1004f458     LIBCMT:rand_s.obj
 0002:00009474       ??_C@_0BC@JEAENNKH@SystemFunction036?$AA@ 1004f474     LIBCMT:rand_s.obj
 0002:00009498       ??_C@_1M@HPNHIDJI@?$AAj?$AAa?$AA?9?$AAJ?$AAP?$AA?$AA@ 1004f498     LIBCMT:mbctype.obj
 0002:000094a4       ??_C@_1M@BIBDDEMK@?$AAz?$AAh?$AA?9?$AAC?$AAN?$AA?$AA@ 1004f4a4     LIBCMT:mbctype.obj
 0002:000094b0       ??_C@_1M@JLOOOEGK@?$AAk?$AAo?$AA?9?$AAK?$AAR?$AA?$AA@ 1004f4b0     LIBCMT:mbctype.obj
 0002:000094bc       ??_C@_1M@CLNBBOPM@?$AAz?$AAh?$AA?9?$AAT?$AAW?$AA?$AA@ 1004f4bc     LIBCMT:mbctype.obj
 0002:000094e8       __XcptActTab               1004f4e8     LIBCMT:winxfltr.obj
 0002:00009578       __XcptActTabCount          1004f578     LIBCMT:winxfltr.obj
 0002:0000957c       __XcptActTabSize           1004f57c     LIBCMT:winxfltr.obj
 0002:00009580       __First_FPE_Indx           1004f580     LIBCMT:winxfltr.obj
 0002:00009584       __Num_FPE                  1004f584     LIBCMT:winxfltr.obj
 0002:00009588       ___lookuptable_s           1004f588     LIBCMT:outputs.obj
 0002:000095e4       ??_C@_03KOEHGMDN@Sun?$AA@  1004f5e4     LIBCMT:nlsdata.obj
 0002:000095e8       ??_C@_03PDAGKDH@Mon?$AA@   1004f5e8     LIBCMT:nlsdata.obj
 0002:000095ec       ??_C@_03NAGEINEP@Tue?$AA@  1004f5ec     LIBCMT:nlsdata.obj
 0002:000095f0       ??_C@_03MHOMLAJA@Wed?$AA@  1004f5f0     LIBCMT:nlsdata.obj
 0002:000095f4       ??_C@_03IOFIKPDN@Thu?$AA@  1004f5f4     LIBCMT:nlsdata.obj
 0002:000095f8       ??_C@_03IDIOELNC@Fri?$AA@  1004f5f8     LIBCMT:nlsdata.obj
 0002:000095fc       ??_C@_03FEFJNEK@Sat?$AA@   1004f5fc     LIBCMT:nlsdata.obj
 0002:00009600       ??_C@_06OOPIFAJ@Sunday?$AA@ 1004f600     LIBCMT:nlsdata.obj
 0002:00009608       ??_C@_06JLEDEDGH@Monday?$AA@ 1004f608     LIBCMT:nlsdata.obj
 0002:00009610       ??_C@_07BAAGCFCM@Tuesday?$AA@ 1004f610     LIBCMT:nlsdata.obj
 0002:00009618       ??_C@_09DLIGFAKA@Wednesday?$AA@ 1004f618     LIBCMT:nlsdata.obj
 0002:00009624       ??_C@_08HACCIKIA@Thursday?$AA@ 1004f624     LIBCMT:nlsdata.obj
 0002:00009630       ??_C@_06JECMNKMI@Friday?$AA@ 1004f630     LIBCMT:nlsdata.obj
 0002:00009638       ??_C@_08INBOOONO@Saturday?$AA@ 1004f638     LIBCMT:nlsdata.obj
 0002:00009644       ??_C@_03JIHJHPIE@Jan?$AA@  1004f644     LIBCMT:nlsdata.obj
 0002:00009648       ??_C@_03HJBDCHOM@Feb?$AA@  1004f648     LIBCMT:nlsdata.obj
 0002:0000964c       ??_C@_03ODNJBKGA@Mar?$AA@  1004f64c     LIBCMT:nlsdata.obj
 0002:00009650       ??_C@_03LEOLGMJP@Apr?$AA@  1004f650     LIBCMT:nlsdata.obj
 0002:00009654       ??_C@_03CNMDKL@May?$AA@    1004f654     LIBCMT:nlsdata.obj
 0002:00009658       ??_C@_03IDFGHECI@Jun?$AA@  1004f658     LIBCMT:nlsdata.obj
 0002:0000965c       ??_C@_03LBGABGKK@Jul?$AA@  1004f65c     LIBCMT:nlsdata.obj
 0002:00009660       ??_C@_03IFJFEIGA@Aug?$AA@  1004f660     LIBCMT:nlsdata.obj
 0002:00009664       ??_C@_03GGCAPAJC@Sep?$AA@  1004f664     LIBCMT:nlsdata.obj
 0002:00009668       ??_C@_03BMAOKBAD@Oct?$AA@  1004f668     LIBCMT:nlsdata.obj
 0002:0000966c       ??_C@_03JPJOFNIA@Nov?$AA@  1004f66c     LIBCMT:nlsdata.obj
 0002:00009670       ??_C@_03MKABNOCG@Dec?$AA@  1004f670     LIBCMT:nlsdata.obj
 0002:00009674       ??_C@_07CGJPFGJA@January?$AA@ 1004f674     LIBCMT:nlsdata.obj
 0002:0000967c       ??_C@_08GNJGEPFN@February?$AA@ 1004f67c     LIBCMT:nlsdata.obj
 0002:00009688       ??_C@_05HPCKOFNC@March?$AA@ 1004f688     LIBCMT:nlsdata.obj
 0002:00009690       ??_C@_05DMJDNLEJ@April?$AA@ 1004f690     LIBCMT:nlsdata.obj
 0002:00009698       ??_C@_04CNLMGBGM@June?$AA@ 1004f698     LIBCMT:nlsdata.obj
 0002:000096a0       ??_C@_04MIEPOIFP@July?$AA@ 1004f6a0     LIBCMT:nlsdata.obj
 0002:000096a8       ??_C@_06LBBHFDDG@August?$AA@ 1004f6a8     LIBCMT:nlsdata.obj
 0002:000096b0       ??_C@_09BHHEALKD@September?$AA@ 1004f6b0     LIBCMT:nlsdata.obj
 0002:000096bc       ??_C@_07JJNFCEND@October?$AA@ 1004f6bc     LIBCMT:nlsdata.obj
 0002:000096c4       ??_C@_08HCHEGEOA@November?$AA@ 1004f6c4     LIBCMT:nlsdata.obj
 0002:000096d0       ??_C@_08EDHMEBNP@December?$AA@ 1004f6d0     LIBCMT:nlsdata.obj
 0002:000096dc       ??_C@_02DEDBPAFC@AM?$AA@   1004f6dc     LIBCMT:nlsdata.obj
 0002:000096e0       ??_C@_02CJNFDJBF@PM?$AA@   1004f6e0     LIBCMT:nlsdata.obj
 0002:000096e4       ??_C@_08BPBNCDIB@MM?1dd?1yy?$AA@ 1004f6e4     LIBCMT:nlsdata.obj
 0002:000096f0       ??_C@_0BE@CKGJFCPC@dddd?0?5MMMM?5dd?0?5yyyy?$AA@ 1004f6f0     LIBCMT:nlsdata.obj
 0002:00009704       ??_C@_08JCCMCCIL@HH?3mm?3ss?$AA@ 1004f704     LIBCMT:nlsdata.obj
 0002:00009710       ??_C@_17MBGCMIPB@?$AAS?$AAu?$AAn?$AA?$AA@ 1004f710     LIBCMT:nlsdata.obj
 0002:00009718       ??_C@_17KBOMKBF@?$AAM?$AAo?$AAn?$AA?$AA@ 1004f718     LIBCMT:nlsdata.obj
 0002:00009720       ??_C@_17BMKGEGOJ@?$AAT?$AAu?$AAe?$AA?$AA@ 1004f720     LIBCMT:nlsdata.obj
 0002:00009728       ??_C@_17CJEDCEPE@?$AAW?$AAe?$AAd?$AA?$AA@ 1004f728     LIBCMT:nlsdata.obj
 0002:00009730       ??_C@_17PDPHAADD@?$AAT?$AAh?$AAu?$AA?$AA@ 1004f730     LIBCMT:nlsdata.obj
 0002:00009738       ??_C@_17HFOLPPLP@?$AAF?$AAr?$AAi?$AA?$AA@ 1004f738     LIBCMT:nlsdata.obj
 0002:00009740       ??_C@_17GGIBDPIH@?$AAS?$AAa?$AAt?$AA?$AA@ 1004f740     LIBCMT:nlsdata.obj
 0002:00009748       ??_C@_1O@IHNHDHPB@?$AAS?$AAu?$AAn?$AAd?$AAa?$AAy?$AA?$AA@ 1004f748     LIBCMT:nlsdata.obj
 0002:00009758       ??_C@_1O@MMNBFLIA@?$AAM?$AAo?$AAn?$AAd?$AAa?$AAy?$AA?$AA@ 1004f758     LIBCMT:nlsdata.obj
 0002:00009768       ??_C@_1BA@ENFBFFEK@?$AAT?$AAu?$AAe?$AAs?$AAd?$AAa?$AAy?$AA?$AA@ 1004f768     LIBCMT:nlsdata.obj
 0002:00009778       ??_C@_1BE@EBOGMDOH@?$AAW?$AAe?$AAd?$AAn?$AAe?$AAs?$AAd?$AAa?$AAy?$AA?$AA@ 1004f778     LIBCMT:nlsdata.obj
 0002:0000978c       ??_C@_1BC@HHMNLIHE@?$AAT?$AAh?$AAu?$AAr?$AAs?$AAd?$AAa?$AAy?$AA?$AA@ 1004f78c     LIBCMT:nlsdata.obj
 0002:000097a0       ??_C@_1O@PDICJHAG@?$AAF?$AAr?$AAi?$AAd?$AAa?$AAy?$AA?$AA@ 1004f7a0     LIBCMT:nlsdata.obj
 0002:000097b0       ??_C@_1BC@ENMNNPAJ@?$AAS?$AAa?$AAt?$AAu?$AAr?$AAd?$AAa?$AAy?$AA?$AA@ 1004f7b0     LIBCMT:nlsdata.obj
 0002:000097c4       ??_C@_17DKNBKCHM@?$AAJ?$AAa?$AAn?$AA?$AA@ 1004f7c4     LIBCMT:nlsdata.obj
 0002:000097cc       ??_C@_17LMDJEKJN@?$AAF?$AAe?$AAb?$AA?$AA@ 1004f7cc     LIBCMT:nlsdata.obj
 0002:000097d4       ??_C@_17CKNLEDEC@?$AAM?$AAa?$AAr?$AA?$AA@ 1004f7d4     LIBCMT:nlsdata.obj
 0002:000097dc       ??_C@_17LFPOIHDD@?$AAA?$AAp?$AAr?$AA?$AA@ 1004f7dc     LIBCMT:nlsdata.obj
 0002:000097e4       ??_C@_17PNNKMEED@?$AAM?$AAa?$AAy?$AA?$AA@ 1004f7e4     LIBCMT:nlsdata.obj
 0002:000097ec       ??_C@_17KCJGOCPB@?$AAJ?$AAu?$AAn?$AA?$AA@ 1004f7ec     LIBCMT:nlsdata.obj
 0002:000097f4       ??_C@_17IJPCKHK@?$AAJ?$AAu?$AAl?$AA?$AA@ 1004f7f4     LIBCMT:nlsdata.obj
 0002:000097fc       ??_C@_17ICPELBCN@?$AAA?$AAu?$AAg?$AA?$AA@ 1004f7fc     LIBCMT:nlsdata.obj
 0002:00009804       ??_C@_17HCHCOKMG@?$AAS?$AAe?$AAp?$AA?$AA@ 1004f804     LIBCMT:nlsdata.obj
 0002:0000980c       ??_C@_17FNLKOI@?$AAO?$AAc?$AAt?$AA?$AA@ 1004f80c     LIBCMT:nlsdata.obj
 0002:00009814       ??_C@_17BBDMLCIG@?$AAN?$AAo?$AAv?$AA?$AA@ 1004f814     LIBCMT:nlsdata.obj
 0002:0000981c       ??_C@_17EGKACKIF@?$AAD?$AAe?$AAc?$AA?$AA@ 1004f81c     LIBCMT:nlsdata.obj
 0002:00009824       ??_C@_1BA@EFMEIEBA@?$AAJ?$AAa?$AAn?$AAu?$AAa?$AAr?$AAy?$AA?$AA@ 1004f824     LIBCMT:nlsdata.obj
 0002:00009834       ??_C@_1BC@JGDDFFAM@?$AAF?$AAe?$AAb?$AAr?$AAu?$AAa?$AAr?$AAy?$AA?$AA@ 1004f834     LIBCMT:nlsdata.obj
 0002:00009848       ??_C@_1M@IKEENEDF@?$AAM?$AAa?$AAr?$AAc?$AAh?$AA?$AA@ 1004f848     LIBCMT:nlsdata.obj
 0002:00009854       ??_C@_1M@GJNLMHFD@?$AAA?$AAp?$AAr?$AAi?$AAl?$AA?$AA@ 1004f854     LIBCMT:nlsdata.obj
 0002:00009860       ??_C@_19EPFLPGAP@?$AAJ?$AAu?$AAn?$AAe?$AA?$AA@ 1004f860     LIBCMT:nlsdata.obj
 0002:0000986c       ??_C@_19BIFMLPCD@?$AAJ?$AAu?$AAl?$AAy?$AA?$AA@ 1004f86c     LIBCMT:nlsdata.obj
 0002:00009878       ??_C@_1O@PAHLKOAC@?$AAA?$AAu?$AAg?$AAu?$AAs?$AAt?$AA?$AA@ 1004f878     LIBCMT:nlsdata.obj
 0002:00009888       ??_C@_1BE@DKAAMBJL@?$AAS?$AAe?$AAp?$AAt?$AAe?$AAm?$AAb?$AAe?$AAr?$AA?$AA@ 1004f888     LIBCMT:nlsdata.obj
 0002:0000989c       ??_C@_1BA@EPANDLNG@?$AAO?$AAc?$AAt?$AAo?$AAb?$AAe?$AAr?$AA?$AA@ 1004f89c     LIBCMT:nlsdata.obj
 0002:000098ac       ??_C@_1BC@BGLIFPF@?$AAN?$AAo?$AAv?$AAe?$AAm?$AAb?$AAe?$AAr?$AA?$AA@ 1004f8ac     LIBCMT:nlsdata.obj
 0002:000098c0       ??_C@_1BC@FEMKIFH@?$AAD?$AAe?$AAc?$AAe?$AAm?$AAb?$AAe?$AAr?$AA?$AA@ 1004f8c0     LIBCMT:nlsdata.obj
 0002:000098d4       ??_C@_15ODEHAHHF@?$AAA?$AAM?$AA?$AA@ 1004f8d4     LIBCMT:nlsdata.obj
 0002:000098dc       ??_C@_15CLMNNGEL@?$AAP?$AAM?$AA?$AA@ 1004f8dc     LIBCMT:nlsdata.obj
 0002:000098e4       ??_C@_1BC@IEBCMHCM@?$AAM?$AAM?$AA?1?$AAd?$AAd?$AA?1?$AAy?$AAy?$AA?$AA@ 1004f8e4     LIBCMT:nlsdata.obj
 0002:000098f8       ??_C@_1CI@KNAKOEBC@?$AAd?$AAd?$AAd?$AAd?$AA?0?$AA?5?$AAM?$AAM?$AAM?$AAM?$AA?5?$AAd?$AAd?$AA?0?$AA?5?$AAy?$AAy?$AAy?$AAy?$AA?$AA@ 1004f8f8     LIBCMT:nlsdata.obj
 0002:00009920       ??_C@_1BC@GDGBMEMK@?$AAH?$AAH?$AA?3?$AAm?$AAm?$AA?3?$AAs?$AAs?$AA?$AA@ 1004f920     LIBCMT:nlsdata.obj
 0002:00009934       ??_C@_1M@BMHNFIME@?$AAe?$AAn?$AA?9?$AAU?$AAS?$AA?$AA@ 1004f934     LIBCMT:nlsdata.obj
 0002:00009940       _LcidToLocaleNameTable     1004f940     LIBCMT:winapinls.obj
 0002:0000a060       _LocaleNameToIndexTable    10050060     LIBCMT:winapinls.obj
 0002:0000a780       ??_C@_15EMKDOKLE@?$AAa?$AAr?$AA?$AA@ 10050780     LIBCMT:winapinls.obj
 0002:0000a788       ??_C@_15KNPADPLH@?$AAb?$AAg?$AA?$AA@ 10050788     LIBCMT:winapinls.obj
 0002:0000a790       ??_C@_15EDMHLDMO@?$AAc?$AAa?$AA?$AA@ 10050790     LIBCMT:winapinls.obj
 0002:0000a798       ??_C@_1O@BPEAJADD@?$AAz?$AAh?$AA?9?$AAC?$AAH?$AAS?$AA?$AA@ 10050798     LIBCMT:winapinls.obj
 0002:0000a7a8       ??_C@_15LJNHCMNK@?$AAc?$AAs?$AA?$AA@ 100507a8     LIBCMT:winapinls.obj
 0002:0000a7b0       ??_C@_15FOMCIDHG@?$AAd?$AAa?$AA?$AA@ 100507b0     LIBCMT:winapinls.obj
 0002:0000a7b8       ??_C@_15NBKABECB@?$AAd?$AAe?$AA?$AA@ 100507b8     LIBCMT:winapinls.obj
 0002:0000a7c0       ??_C@_15GHPEIIAO@?$AAe?$AAl?$AA?$AA@ 100507c0     LIBCMT:winapinls.obj
 0002:0000a7c8       ??_C@_15MNPNEAIF@?$AAe?$AAn?$AA?$AA@ 100507c8     LIBCMT:winapinls.obj
 0002:0000a7d0       ??_C@_15GPIOMPMH@?$AAe?$AAs?$AA?$AA@ 100507d0     LIBCMT:winapinls.obj
 0002:0000a7d8       ??_C@_15NGLOAKJC@?$AAf?$AAi?$AA?$AA@ 100507d8     LIBCMT:winapinls.obj
 0002:0000a7e0       ??_C@_15FBKGNKAM@?$AAf?$AAr?$AA?$AA@ 100507e0     LIBCMT:winapinls.obj
 0002:0000a7e8       ??_C@_15KGGCNEFK@?$AAh?$AAe?$AA?$AA@ 100507e8     LIBCMT:winapinls.obj
 0002:0000a7f0       ??_C@_15PGHLIDMF@?$AAh?$AAu?$AA?$AA@ 100507f0     LIBCMT:winapinls.obj
 0002:0000a7f8       ??_C@_15BIEMAPLM@?$AAi?$AAs?$AA?$AA@ 100507f8     LIBCMT:winapinls.obj
 0002:0000a800       ??_C@_15IFJLDHAF@?$AAi?$AAt?$AA?$AA@ 10050800     LIBCMT:winapinls.obj
 0002:0000a808       ??_C@_15GEMIOCAG@?$AAj?$AAa?$AA?$AA@ 10050808     LIBCMT:winapinls.obj
 0002:0000a810       ??_C@_15EPELEGJA@?$AAk?$AAo?$AA?$AA@ 10050810     LIBCMT:winapinls.obj
 0002:0000a818       ??_C@_15NDDHIMN@?$AAn?$AAl?$AA?$AA@ 10050818     LIBCMT:winapinls.obj
 0002:0000a820       ??_C@_15BPIGNHCD@?$AAn?$AAo?$AA?$AA@ 10050820     LIBCMT:winapinls.obj
 0002:0000a828       ??_C@_15DEOPBLCG@?$AAp?$AAl?$AA?$AA@ 10050828     LIBCMT:winapinls.obj
 0002:0000a830       ??_C@_15KBECGEFG@?$AAp?$AAt?$AA?$AA@ 10050830     LIBCMT:winapinls.obj
 0002:0000a838       ??_C@_15GLJCBFMD@?$AAr?$AAo?$AA?$AA@ 10050838     LIBCMT:winapinls.obj
 0002:0000a840       ??_C@_15FEDGKCDI@?$AAr?$AAu?$AA?$AA@ 10050840     LIBCMT:winapinls.obj
 0002:0000a848       ??_C@_15GLKMLLHM@?$AAh?$AAr?$AA?$AA@ 10050848     LIBCMT:winapinls.obj
 0002:0000a850       ??_C@_15CPKMFBDB@?$AAs?$AAk?$AA?$AA@ 10050850     LIBCMT:winapinls.obj
 0002:0000a858       ??_C@_15BAAIOGMK@?$AAs?$AAq?$AA?$AA@ 10050858     LIBCMT:winapinls.obj
 0002:0000a860       ??_C@_15INNPNOHD@?$AAs?$AAv?$AA?$AA@ 10050860     LIBCMT:winapinls.obj
 0002:0000a868       ??_C@_15CABMMOGH@?$AAt?$AAh?$AA?$AA@ 10050868     LIBCMT:winapinls.obj
 0002:0000a870       ??_C@_15BPLIHJJM@?$AAt?$AAr?$AA?$AA@ 10050870     LIBCMT:winapinls.obj
 0002:0000a878       ??_C@_15NEOEKKDJ@?$AAu?$AAr?$AA?$AA@ 10050878     LIBCMT:winapinls.obj
 0002:0000a880       ??_C@_15NFICGAJK@?$AAi?$AAd?$AA?$AA@ 10050880     LIBCMT:winapinls.obj
 0002:0000a888       ??_C@_15PJPFLCCM@?$AAu?$AAk?$AA?$AA@ 10050888     LIBCMT:winapinls.obj
 0002:0000a890       ??_C@_15HPJPHDM@?$AAb?$AAe?$AA?$AA@ 10050890     LIBCMT:winapinls.obj
 0002:0000a898       ??_C@_15LCHLGJII@?$AAs?$AAl?$AA?$AA@ 10050898     LIBCMT:winapinls.obj
 0002:0000a8a0       ??_C@_15PCFJPHHO@?$AAe?$AAt?$AA?$AA@ 100508a0     LIBCMT:winapinls.obj
 0002:0000a8a8       ??_C@_15HPFPGODN@?$AAl?$AAv?$AA?$AA@ 100508a8     LIBCMT:winapinls.obj
 0002:0000a8b0       ??_C@_15NFFGKGLG@?$AAl?$AAt?$AA?$AA@ 100508b0     LIBCMT:winapinls.obj
 0002:0000a8b8       ??_C@_15BDAKCCHN@?$AAf?$AAa?$AA?$AA@ 100508b8     LIBCMT:winapinls.obj
 0002:0000a8c0       ??_C@_15NFGIAIAJ@?$AAv?$AAi?$AA?$AA@ 100508c0     LIBCMT:winapinls.obj
 0002:0000a8c8       ??_C@_15LMKNDMHN@?$AAh?$AAy?$AA?$AA@ 100508c8     LIBCMT:winapinls.obj
 0002:0000a8d0       ??_C@_15IJBHMCFL@?$AAa?$AAz?$AA?$AA@ 100508d0     LIBCMT:winapinls.obj
 0002:0000a8d8       ??_C@_15EKOFJABL@?$AAe?$AAu?$AA?$AA@ 100508d8     LIBCMT:winapinls.obj
 0002:0000a8e0       ??_C@_15BGHADCNK@?$AAm?$AAk?$AA?$AA@ 100508e0     LIBCMT:winapinls.obj
 0002:0000a8e8       ??_C@_15JDNICKHM@?$AAa?$AAf?$AA?$AA@ 100508e8     LIBCMT:winapinls.obj
 0002:0000a8f0       ??_C@_15KPJEDBKD@?$AAk?$AAa?$AA?$AA@ 100508f0     LIBCMT:winapinls.obj
 0002:0000a8f8       ??_C@_15PDNFFFEO@?$AAf?$AAo?$AA?$AA@ 100508f8     LIBCMT:winapinls.obj
 0002:0000a900       ??_C@_15OMLEGLOC@?$AAh?$AAi?$AA?$AA@ 10050900     LIBCMT:winapinls.obj
 0002:0000a908       ??_C@_15IDNNENKK@?$AAm?$AAs?$AA?$AA@ 10050908     LIBCMT:winapinls.obj
 0002:0000a910       ??_C@_15MACJNBMH@?$AAk?$AAk?$AA?$AA@ 10050910     LIBCMT:winapinls.obj
 0002:0000a918       ??_C@_15DKDJEOND@?$AAk?$AAy?$AA?$AA@ 10050918     LIBCMT:winapinls.obj
 0002:0000a920       ??_C@_15DFGDLJBG@?$AAs?$AAw?$AA?$AA@ 10050920     LIBCMT:winapinls.obj
 0002:0000a928       ??_C@_15BBFAICNG@?$AAu?$AAz?$AA?$AA@ 10050928     LIBCMT:winapinls.obj
 0002:0000a930       ??_C@_15DKNDCGEA@?$AAt?$AAt?$AA?$AA@ 10050930     LIBCMT:winapinls.obj
 0002:0000a938       ??_C@_15MGIFMDPL@?$AAp?$AAa?$AA?$AA@ 10050938     LIBCMT:winapinls.obj
 0002:0000a940       ??_C@_15HCNDBBA@?$AAg?$AAu?$AA?$AA@ 10050940     LIBCMT:winapinls.obj
 0002:0000a948       ??_C@_15FNBEIBON@?$AAt?$AAa?$AA?$AA@ 10050948     LIBCMT:winapinls.obj
 0002:0000a950       ??_C@_15NCHGBGLK@?$AAt?$AAe?$AA?$AA@ 10050950     LIBCMT:winapinls.obj
 0002:0000a958       ??_C@_15PHPHCBPF@?$AAk?$AAn?$AA?$AA@ 10050958     LIBCMT:winapinls.obj
 0002:0000a960       ??_C@_15DLGBCKMP@?$AAm?$AAr?$AA?$AA@ 10050960     LIBCMT:winapinls.obj
 0002:0000a968       ??_C@_15EABBLBFF@?$AAs?$AAa?$AA?$AA@ 10050968     LIBCMT:winapinls.obj
 0002:0000a970       ??_C@_15CBKOMCOI@?$AAm?$AAn?$AA?$AA@ 10050970     LIBCMT:winapinls.obj
 0002:0000a978       ??_C@_15CKDMCJAF@?$AAg?$AAl?$AA?$AA@ 10050978     LIBCMT:winapinls.obj
 0002:0000a980       ??_C@_17CNJFBPG@?$AAk?$AAo?$AAk?$AA?$AA@ 10050980     LIBCMT:winapinls.obj
 0002:0000a988       ??_C@_17FFBJICPL@?$AAs?$AAy?$AAr?$AA?$AA@ 10050988     LIBCMT:winapinls.obj
 0002:0000a990       ??_C@_17KPNDCPAF@?$AAd?$AAi?$AAv?$AA?$AA@ 10050990     LIBCMT:winapinls.obj
 0002:0000a998       ??_C@_11LOCGONAA@?$AA?$AA@ 10050998     LIBCMT:winapinls.obj
 0002:0000a99c       ??_C@_1M@OKAHONE@?$AAa?$AAr?$AA?9?$AAS?$AAA?$AA?$AA@ 1005099c     LIBCMT:winapinls.obj
 0002:0000a9a8       ??_C@_1M@FFFIGIGK@?$AAb?$AAg?$AA?9?$AAB?$AAG?$AA?$AA@ 100509a8     LIBCMT:winapinls.obj
 0002:0000a9b4       ??_C@_1M@BJNKEDC@?$AAc?$AAa?$AA?9?$AAE?$AAS?$AA?$AA@ 100509b4     LIBCMT:winapinls.obj
 0002:0000a9c0       ??_C@_1M@IJJHFJHA@?$AAc?$AAs?$AA?9?$AAC?$AAZ?$AA?$AA@ 100509c0     LIBCMT:winapinls.obj
 0002:0000a9cc       ??_C@_1M@CLPEOBGI@?$AAd?$AAa?$AA?9?$AAD?$AAK?$AA?$AA@ 100509cc     LIBCMT:winapinls.obj
 0002:0000a9d8       ??_C@_1M@MCMADGCB@?$AAd?$AAe?$AA?9?$AAD?$AAE?$AA?$AA@ 100509d8     LIBCMT:winapinls.obj
 0002:0000a9e4       ??_C@_1M@OOCKEMAM@?$AAe?$AAl?$AA?9?$AAG?$AAR?$AA?$AA@ 100509e4     LIBCMT:winapinls.obj
 0002:0000a9f0       ??_C@_1M@DDNJFGID@?$AAf?$AAi?$AA?9?$AAF?$AAI?$AA?$AA@ 100509f0     LIBCMT:winapinls.obj
 0002:0000a9fc       ??_C@_1M@GLIPPMAC@?$AAf?$AAr?$AA?9?$AAF?$AAR?$AA?$AA@ 100509fc     LIBCMT:winapinls.obj
 0002:0000aa08       ??_C@_1M@GFMCHPE@?$AAh?$AAe?$AA?9?$AAI?$AAL?$AA?$AA@ 10050a08     LIBCMT:winapinls.obj
 0002:0000aa14       ??_C@_1M@MHLPGNKM@?$AAh?$AAu?$AA?9?$AAH?$AAU?$AA?$AA@ 10050a14     LIBCMT:winapinls.obj
 0002:0000aa20       ??_C@_1M@LPDDNNPN@?$AAi?$AAs?$AA?9?$AAI?$AAS?$AA?$AA@ 10050a20     LIBCMT:winapinls.obj
 0002:0000aa2c       ??_C@_1M@MADIPODN@?$AAi?$AAt?$AA?9?$AAI?$AAT?$AA?$AA@ 10050a2c     LIBCMT:winapinls.obj
 0002:0000aa38       ??_C@_1M@IHBJJGG@?$AAn?$AAl?$AA?9?$AAN?$AAL?$AA?$AA@ 10050a38     LIBCMT:winapinls.obj
 0002:0000aa44       ??_C@_1M@EANAGDL@?$AAn?$AAb?$AA?9?$AAN?$AAO?$AA?$AA@ 10050a44     LIBCMT:winapinls.obj
 0002:0000aa50       ??_C@_1M@NEIEMEGP@?$AAp?$AAl?$AA?9?$AAP?$AAL?$AA?$AA@ 10050a50     LIBCMT:winapinls.obj
 0002:0000aa5c       ??_C@_1M@BOCFIGEP@?$AAp?$AAt?$AA?9?$AAB?$AAR?$AA?$AA@ 10050a5c     LIBCMT:winapinls.obj
 0002:0000aa68       ??_C@_1M@IMPFOPBG@?$AAr?$AAo?$AA?9?$AAR?$AAO?$AA?$AA@ 10050a68     LIBCMT:winapinls.obj
 0002:0000aa74       ??_C@_1M@IDNNEJMM@?$AAr?$AAu?$AA?9?$AAR?$AAU?$AA?$AA@ 10050a74     LIBCMT:winapinls.obj
 0002:0000aa80       ??_C@_1M@LILEEOGM@?$AAh?$AAr?$AA?9?$AAH?$AAR?$AA?$AA@ 10050a80     LIBCMT:winapinls.obj
 0002:0000aa8c       ??_C@_1M@FKIFEHPB@?$AAs?$AAk?$AA?9?$AAS?$AAK?$AA?$AA@ 10050a8c     LIBCMT:winapinls.obj
 0002:0000aa98       ??_C@_1M@LJMAMNPJ@?$AAs?$AAq?$AA?9?$AAA?$AAL?$AA?$AA@ 10050a98     LIBCMT:winapinls.obj
 0002:0000aaa4       ??_C@_1M@GIAKDKJK@?$AAs?$AAv?$AA?9?$AAS?$AAE?$AA?$AA@ 10050aa4     LIBCMT:winapinls.obj
 0002:0000aab0       ??_C@_1M@MKJKIKCL@?$AAt?$AAh?$AA?9?$AAT?$AAH?$AA?$AA@ 10050ab0     LIBCMT:winapinls.obj
 0002:0000aabc       ??_C@_1M@MFLCCMPB@?$AAt?$AAr?$AA?9?$AAT?$AAR?$AA?$AA@ 10050abc     LIBCMT:winapinls.obj
 0002:0000aac8       ??_C@_1M@OIJHDKJN@?$AAu?$AAr?$AA?9?$AAP?$AAK?$AA?$AA@ 10050ac8     LIBCMT:winapinls.obj
 0002:0000aad4       ??_C@_1M@LHIPCIEK@?$AAi?$AAd?$AA?9?$AAI?$AAD?$AA?$AA@ 10050ad4     LIBCMT:winapinls.obj
 0002:0000aae0       ??_C@_1M@MFMOBGI@?$AAu?$AAk?$AA?9?$AAU?$AAA?$AA?$AA@ 10050ae0     LIBCMT:winapinls.obj
 0002:0000aaec       ??_C@_1M@OBGLJIPL@?$AAb?$AAe?$AA?9?$AAB?$AAY?$AA?$AA@ 10050aec     LIBCMT:winapinls.obj
 0002:0000aaf8       ??_C@_1M@BCFAJEAD@?$AAs?$AAl?$AA?9?$AAS?$AAI?$AA?$AA@ 10050af8     LIBCMT:winapinls.obj
 0002:0000ab04       ??_C@_1M@FKFFEDDN@?$AAe?$AAt?$AA?9?$AAE?$AAE?$AA?$AA@ 10050b04     LIBCMT:winapinls.obj
 0002:0000ab10       ??_C@_1M@KGKKAACI@?$AAl?$AAv?$AA?9?$AAL?$AAV?$AA?$AA@ 10050b10     LIBCMT:winapinls.obj
 0002:0000ab1c       ??_C@_1M@IFGBIJO@?$AAl?$AAt?$AA?9?$AAL?$AAT?$AA?$AA@ 10050b1c     LIBCMT:winapinls.obj
 0002:0000ab28       ??_C@_1M@FGEAHEDM@?$AAf?$AAa?$AA?9?$AAI?$AAR?$AA?$AA@ 10050b28     LIBCMT:winapinls.obj
 0002:0000ab34       ??_C@_1M@KBMAIBFN@?$AAv?$AAi?$AA?9?$AAV?$AAN?$AA?$AA@ 10050b34     LIBCMT:winapinls.obj
 0002:0000ab40       ??_C@_1M@GPCBKDJK@?$AAh?$AAy?$AA?9?$AAA?$AAM?$AA?$AA@ 10050b40     LIBCMT:winapinls.obj
 0002:0000ab4c       ??_C@_1BG@BECMDDJB@?$AAa?$AAz?$AA?9?$AAA?$AAZ?$AA?9?$AAL?$AAa?$AAt?$AAn?$AA?$AA@ 10050b4c     LIBCMT:winapinls.obj
 0002:0000ab64       ??_C@_1M@MAOFCAEA@?$AAe?$AAu?$AA?9?$AAE?$AAS?$AA?$AA@ 10050b64     LIBCMT:winapinls.obj
 0002:0000ab70       ??_C@_1M@IGHABKPI@?$AAm?$AAk?$AA?9?$AAM?$AAK?$AA?$AA@ 10050b70     LIBCMT:winapinls.obj
 0002:0000ab7c       ??_C@_1M@IAIGNEJG@?$AAt?$AAn?$AA?9?$AAZ?$AAA?$AA?$AA@ 10050b7c     LIBCMT:winapinls.obj
 0002:0000ab88       ??_C@_1M@IIJCOJFA@?$AAx?$AAh?$AA?9?$AAZ?$AAA?$AA?$AA@ 10050b88     LIBCMT:winapinls.obj
 0002:0000ab94       ??_C@_1M@LGPJHNJH@?$AAz?$AAu?$AA?9?$AAZ?$AAA?$AA?$AA@ 10050b94     LIBCMT:winapinls.obj
 0002:0000aba0       ??_C@_1M@HOKAOIO@?$AAa?$AAf?$AA?9?$AAZ?$AAA?$AA?$AA@ 10050ba0     LIBCMT:winapinls.obj
 0002:0000abac       ??_C@_1M@DPCLHLIE@?$AAk?$AAa?$AA?9?$AAG?$AAE?$AA?$AA@ 10050bac     LIBCMT:winapinls.obj
 0002:0000abb8       ??_C@_1M@BLKMHJBI@?$AAf?$AAo?$AA?9?$AAF?$AAO?$AA?$AA@ 10050bb8     LIBCMT:winapinls.obj
 0002:0000abc4       ??_C@_1M@LGGJAPPB@?$AAh?$AAi?$AA?9?$AAI?$AAN?$AA?$AA@ 10050bc4     LIBCMT:winapinls.obj
 0002:0000abd0       ??_C@_1M@FIKPIHFE@?$AAm?$AAt?$AA?9?$AAM?$AAT?$AA?$AA@ 10050bd0     LIBCMT:winapinls.obj
 0002:0000abdc       ??_C@_1M@HEGGPBFA@?$AAs?$AAe?$AA?9?$AAN?$AAO?$AA?$AA@ 10050bdc     LIBCMT:winapinls.obj
 0002:0000abe8       ??_C@_1M@EIBJEEPA@?$AAm?$AAs?$AA?9?$AAM?$AAY?$AA?$AA@ 10050be8     LIBCMT:winapinls.obj
 0002:0000abf4       ??_C@_1M@FHLBGMPP@?$AAk?$AAk?$AA?9?$AAK?$AAZ?$AA?$AA@ 10050bf4     LIBCMT:winapinls.obj
 0002:0000ac00       ??_C@_1M@NGJJLCGI@?$AAk?$AAy?$AA?9?$AAK?$AAG?$AA?$AA@ 10050c00     LIBCMT:winapinls.obj
 0002:0000ac0c       ??_C@_1M@GIENNBFC@?$AAs?$AAw?$AA?9?$AAK?$AAE?$AA?$AA@ 10050c0c     LIBCMT:winapinls.obj
 0002:0000ac18       ??_C@_1BG@NDGMJIMJ@?$AAu?$AAz?$AA?9?$AAU?$AAZ?$AA?9?$AAL?$AAa?$AAt?$AAn?$AA?$AA@ 10050c18     LIBCMT:winapinls.obj
 0002:0000ac30       ??_C@_1M@IDCCIHBC@?$AAt?$AAt?$AA?9?$AAR?$AAU?$AA?$AA@ 10050c30     LIBCMT:winapinls.obj
 0002:0000ac3c       ??_C@_1M@LOICPMOJ@?$AAb?$AAn?$AA?9?$AAI?$AAN?$AA?$AA@ 10050c3c     LIBCMT:winapinls.obj
 0002:0000ac48       ??_C@_1M@KPKKNEAH@?$AAp?$AAa?$AA?9?$AAI?$AAN?$AA?$AA@ 10050c48     LIBCMT:winapinls.obj
 0002:0000ac54       ??_C@_1M@PJGPPBOG@?$AAg?$AAu?$AA?9?$AAI?$AAN?$AA?$AA@ 10050c54     LIBCMT:winapinls.obj
 0002:0000ac60       ??_C@_1M@KMKMOPHI@?$AAt?$AAa?$AA?9?$AAI?$AAN?$AA?$AA@ 10050c60     LIBCMT:winapinls.obj
 0002:0000ac6c       ??_C@_1M@KFEHEPAC@?$AAt?$AAe?$AA?9?$AAI?$AAN?$AA?$AA@ 10050c6c     LIBCMT:winapinls.obj
 0002:0000ac78       ??_C@_1M@CDCLMGHI@?$AAk?$AAn?$AA?9?$AAI?$AAN?$AA?$AA@ 10050c78     LIBCMT:winapinls.obj
 0002:0000ac84       ??_C@_1M@MIODLDKF@?$AAm?$AAl?$AA?9?$AAI?$AAN?$AA?$AA@ 10050c84     LIBCMT:winapinls.obj
 0002:0000ac90       ??_C@_1M@PBIEACPO@?$AAm?$AAr?$AA?9?$AAI?$AAN?$AA?$AA@ 10050c90     LIBCMT:winapinls.obj
 0002:0000ac9c       ??_C@_1M@NIDEAGPH@?$AAs?$AAa?$AA?9?$AAI?$AAN?$AA?$AA@ 10050c9c     LIBCMT:winapinls.obj
 0002:0000aca8       ??_C@_1M@FHIHCBIO@?$AAm?$AAn?$AA?9?$AAM?$AAN?$AA?$AA@ 10050ca8     LIBCMT:winapinls.obj
 0002:0000acb4       ??_C@_1M@JAIJPENP@?$AAc?$AAy?$AA?9?$AAG?$AAB?$AA?$AA@ 10050cb4     LIBCMT:winapinls.obj
 0002:0000acc0       ??_C@_1M@PHGFBEPN@?$AAg?$AAl?$AA?9?$AAE?$AAS?$AA?$AA@ 10050cc0     LIBCMT:winapinls.obj
 0002:0000accc       ??_C@_1O@KPIPDNCP@?$AAk?$AAo?$AAk?$AA?9?$AAI?$AAN?$AA?$AA@ 10050ccc     LIBCMT:winapinls.obj
 0002:0000acdc       ??_C@_1O@KNHJLDJA@?$AAs?$AAy?$AAr?$AA?9?$AAS?$AAY?$AA?$AA@ 10050cdc     LIBCMT:winapinls.obj
 0002:0000acec       ??_C@_1O@MKEKBLAH@?$AAd?$AAi?$AAv?$AA?9?$AAM?$AAV?$AA?$AA@ 10050cec     LIBCMT:winapinls.obj
 0002:0000acfc       ??_C@_1O@OHDCKDDF@?$AAq?$AAu?$AAz?$AA?9?$AAB?$AAO?$AA?$AA@ 10050cfc     LIBCMT:winapinls.obj
 0002:0000ad0c       ??_C@_1M@LEPJNLFD@?$AAn?$AAs?$AA?9?$AAZ?$AAA?$AA?$AA@ 10050d0c     LIBCMT:winapinls.obj
 0002:0000ad18       ??_C@_1M@OMLEIIJB@?$AAm?$AAi?$AA?9?$AAN?$AAZ?$AA?$AA@ 10050d18     LIBCMT:winapinls.obj
 0002:0000ad24       ??_C@_1M@PMPEAILG@?$AAa?$AAr?$AA?9?$AAI?$AAQ?$AA?$AA@ 10050d24     LIBCMT:winapinls.obj
 0002:0000ad30       ??_C@_1M@CNKPNOEE@?$AAd?$AAe?$AA?9?$AAC?$AAH?$AA?$AA@ 10050d30     LIBCMT:winapinls.obj
 0002:0000ad3c       ??_C@_1M@LKMGMLKO@?$AAe?$AAn?$AA?9?$AAG?$AAB?$AA?$AA@ 10050d3c     LIBCMT:winapinls.obj
 0002:0000ad48       ??_C@_1M@PGKJFFGL@?$AAe?$AAs?$AA?9?$AAM?$AAX?$AA?$AA@ 10050d48     LIBCMT:winapinls.obj
 0002:0000ad54       ??_C@_1M@DNNANBDC@?$AAf?$AAr?$AA?9?$AAB?$AAE?$AA?$AA@ 10050d54     LIBCMT:winapinls.obj
 0002:0000ad60       ??_C@_1M@HLGMDFHM@?$AAi?$AAt?$AA?9?$AAC?$AAH?$AA?$AA@ 10050d60     LIBCMT:winapinls.obj
 0002:0000ad6c       ??_C@_1M@CLLBGJH@?$AAn?$AAl?$AA?9?$AAB?$AAE?$AA?$AA@ 10050d6c     LIBCMT:winapinls.obj
 0002:0000ad78       ??_C@_1M@BODBOGLF@?$AAn?$AAn?$AA?9?$AAN?$AAO?$AA?$AA@ 10050d78     LIBCMT:winapinls.obj
 0002:0000ad84       ??_C@_1M@HFFAHKAD@?$AAp?$AAt?$AA?9?$AAP?$AAT?$AA?$AA@ 10050d84     LIBCMT:winapinls.obj
 0002:0000ad90       ??_C@_1BG@LNOAKHIE@?$AAs?$AAr?$AA?9?$AAS?$AAP?$AA?9?$AAL?$AAa?$AAt?$AAn?$AA?$AA@ 10050d90     LIBCMT:winapinls.obj
 0002:0000ada8       ??_C@_1M@HBMHBGAK@?$AAs?$AAv?$AA?9?$AAF?$AAI?$AA?$AA@ 10050da8     LIBCMT:winapinls.obj
 0002:0000adb4       ??_C@_1BG@DGCJGJBE@?$AAa?$AAz?$AA?9?$AAA?$AAZ?$AA?9?$AAC?$AAy?$AAr?$AAl?$AA?$AA@ 10050db4     LIBCMT:winapinls.obj
 0002:0000adcc       ??_C@_1M@KEJDAAHB@?$AAs?$AAe?$AA?9?$AAS?$AAE?$AA?$AA@ 10050dcc     LIBCMT:winapinls.obj
 0002:0000add8       ??_C@_1M@HEIBJJAD@?$AAm?$AAs?$AA?9?$AAB?$AAN?$AA?$AA@ 10050dd8     LIBCMT:winapinls.obj
 0002:0000ade4       ??_C@_1BG@PBGJMCEM@?$AAu?$AAz?$AA?9?$AAU?$AAZ?$AA?9?$AAC?$AAy?$AAr?$AAl?$AA?$AA@ 10050de4     LIBCMT:winapinls.obj
 0002:0000adfc       ??_C@_1O@LAOBCMDF@?$AAq?$AAu?$AAz?$AA?9?$AAE?$AAC?$AA?$AA@ 10050dfc     LIBCMT:winapinls.obj
 0002:0000ae0c       ??_C@_1M@POEEMAIO@?$AAa?$AAr?$AA?9?$AAE?$AAG?$AA?$AA@ 10050e0c     LIBCMT:winapinls.obj
 0002:0000ae18       ??_C@_1M@EFAKDEDL@?$AAz?$AAh?$AA?9?$AAH?$AAK?$AA?$AA@ 10050e18     LIBCMT:winapinls.obj
 0002:0000ae24       ??_C@_1M@HKKIJHGI@?$AAd?$AAe?$AA?9?$AAA?$AAT?$AA?$AA@ 10050e24     LIBCMT:winapinls.obj
 0002:0000ae30       ??_C@_1M@KBFBEHJF@?$AAe?$AAn?$AA?9?$AAA?$AAU?$AA?$AA@ 10050e30     LIBCMT:winapinls.obj
 0002:0000ae3c       ??_C@_1M@MNPLFAAH@?$AAe?$AAs?$AA?9?$AAE?$AAS?$AA?$AA@ 10050e3c     LIBCMT:winapinls.obj
 0002:0000ae48       ??_C@_1M@HJOOJFMA@?$AAf?$AAr?$AA?9?$AAC?$AAA?$AA?$AA@ 10050e48     LIBCMT:winapinls.obj
 0002:0000ae54       ??_C@_1BG@JPOFPNAB@?$AAs?$AAr?$AA?9?$AAS?$AAP?$AA?9?$AAC?$AAy?$AAr?$AAl?$AA?$AA@ 10050e54     LIBCMT:winapinls.obj
 0002:0000ae6c       ??_C@_1M@LNFOCMOB@?$AAs?$AAe?$AA?9?$AAF?$AAI?$AA?$AA@ 10050e6c     LIBCMT:winapinls.obj
 0002:0000ae78       ??_C@_1O@MGJBOAMB@?$AAq?$AAu?$AAz?$AA?9?$AAP?$AAE?$AA?$AA@ 10050e78     LIBCMT:winapinls.obj
 0002:0000ae88       ??_C@_1M@GJINLBOK@?$AAa?$AAr?$AA?9?$AAL?$AAY?$AA?$AA@ 10050e88     LIBCMT:winapinls.obj
 0002:0000ae94       ??_C@_1M@GGMNHJNL@?$AAz?$AAh?$AA?9?$AAS?$AAG?$AA?$AA@ 10050e94     LIBCMT:winapinls.obj
 0002:0000aea0       ??_C@_1M@HOIKODND@?$AAd?$AAe?$AA?9?$AAL?$AAU?$AA?$AA@ 10050ea0     LIBCMT:winapinls.obj
 0002:0000aeac       ??_C@_1M@DDOCCGFG@?$AAe?$AAn?$AA?9?$AAC?$AAA?$AA?$AA@ 10050eac     LIBCMT:winapinls.obj
 0002:0000aeb8       ??_C@_1M@BNOEMJLF@?$AAe?$AAs?$AA?9?$AAG?$AAT?$AA?$AA@ 10050eb8     LIBCMT:winapinls.obj
 0002:0000aec4       ??_C@_1M@EOGNKEK@?$AAf?$AAr?$AA?9?$AAC?$AAH?$AA?$AA@ 10050ec4     LIBCMT:winapinls.obj
 0002:0000aed0       ??_C@_1M@FLIDJFHL@?$AAh?$AAr?$AA?9?$AAB?$AAA?$AA?$AA@ 10050ed0     LIBCMT:winapinls.obj
 0002:0000aedc       ??_C@_1O@FMCELNAJ@?$AAs?$AAm?$AAj?$AA?9?$AAN?$AAO?$AA?$AA@ 10050edc     LIBCMT:winapinls.obj
 0002:0000aeec       ??_C@_1M@JHGLJMGJ@?$AAa?$AAr?$AA?9?$AAD?$AAZ?$AA?$AA@ 10050eec     LIBCMT:winapinls.obj
 0002:0000aef8       ??_C@_1M@JKKFDCNP@?$AAz?$AAh?$AA?9?$AAM?$AAO?$AA?$AA@ 10050ef8     LIBCMT:winapinls.obj
 0002:0000af04       ??_C@_1M@GEEFALPE@?$AAd?$AAe?$AA?9?$AAL?$AAI?$AA?$AA@ 10050f04     LIBCMT:winapinls.obj
 0002:0000af10       ??_C@_1M@IGEOFBG@?$AAe?$AAn?$AA?9?$AAN?$AAZ?$AA?$AA@ 10050f10     LIBCMT:winapinls.obj
 0002:0000af1c       ??_C@_1M@KDBONEHP@?$AAe?$AAs?$AA?9?$AAC?$AAR?$AA?$AA@ 10050f1c     LIBCMT:winapinls.obj
 0002:0000af28       ??_C@_1M@FHMDOHNN@?$AAf?$AAr?$AA?9?$AAL?$AAU?$AA?$AA@ 10050f28     LIBCMT:winapinls.obj
 0002:0000af34       ??_C@_1BG@NFKKMAFG@?$AAb?$AAs?$AA?9?$AAB?$AAA?$AA?9?$AAL?$AAa?$AAt?$AAn?$AA?$AA@ 10050f34     LIBCMT:winapinls.obj
 0002:0000af4c       ??_C@_1O@IMNBEMCI@?$AAs?$AAm?$AAj?$AA?9?$AAS?$AAE?$AA?$AA@ 10050f4c     LIBCMT:winapinls.obj
 0002:0000af5c       ??_C@_1M@DHHMBNDP@?$AAa?$AAr?$AA?9?$AAM?$AAA?$AA?$AA@ 10050f5c     LIBCMT:winapinls.obj
 0002:0000af68       ??_C@_1M@BNBLJCGH@?$AAe?$AAn?$AA?9?$AAI?$AAE?$AA?$AA@ 10050f68     LIBCMT:winapinls.obj
 0002:0000af74       ??_C@_1M@GEPAFMDL@?$AAe?$AAs?$AA?9?$AAP?$AAA?$AA?$AA@ 10050f74     LIBCMT:winapinls.obj
 0002:0000af80       ??_C@_1M@OJONDMDL@?$AAf?$AAr?$AA?9?$AAM?$AAC?$AA?$AA@ 10050f80     LIBCMT:winapinls.obj
 0002:0000af8c       ??_C@_1BG@OBCNFJB@?$AAs?$AAr?$AA?9?$AAB?$AAA?$AA?9?$AAL?$AAa?$AAt?$AAn?$AA?$AA@ 10050f8c     LIBCMT:winapinls.obj
 0002:0000afa4       ??_C@_1O@KEMEEGPO@?$AAs?$AAm?$AAa?$AA?9?$AAN?$AAO?$AA?$AA@ 10050fa4     LIBCMT:winapinls.obj
 0002:0000afb4       ??_C@_1M@ELMGFODK@?$AAa?$AAr?$AA?9?$AAT?$AAN?$AA?$AA@ 10050fb4     LIBCMT:winapinls.obj
 0002:0000afc0       ??_C@_1M@BHDLHFAF@?$AAe?$AAn?$AA?9?$AAZ?$AAA?$AA?$AA@ 10050fc0     LIBCMT:winapinls.obj
 0002:0000afcc       ??_C@_1M@BMGIGLIF@?$AAe?$AAs?$AA?9?$AAD?$AAO?$AA?$AA@ 10050fcc     LIBCMT:winapinls.obj
 0002:0000afd8       ??_C@_1BG@CMBHIPBE@?$AAs?$AAr?$AA?9?$AAB?$AAA?$AA?9?$AAC?$AAy?$AAr?$AAl?$AA?$AA@ 10050fd8     LIBCMT:winapinls.obj
 0002:0000aff0       ??_C@_1O@HEDBLHNP@?$AAs?$AAm?$AAa?$AA?9?$AAS?$AAE?$AA?$AA@ 10050ff0     LIBCMT:winapinls.obj
 0002:0000b000       ??_C@_1M@DAGCADIM@?$AAa?$AAr?$AA?9?$AAO?$AAM?$AA?$AA@ 10051000     LIBCMT:winapinls.obj
 0002:0000b00c       ??_C@_1M@FODLMICG@?$AAe?$AAn?$AA?9?$AAJ?$AAM?$AA?$AA@ 1005100c     LIBCMT:winapinls.obj
 0002:0000b018       ??_C@_1M@DNMLCIHB@?$AAe?$AAs?$AA?9?$AAV?$AAE?$AA?$AA@ 10051018     LIBCMT:winapinls.obj
 0002:0000b024       ??_C@_1O@EOKHMKJK@?$AAs?$AAm?$AAs?$AA?9?$AAF?$AAI?$AA?$AA@ 10051024     LIBCMT:winapinls.obj
 0002:0000b034       ??_C@_1M@CAFJMKOF@?$AAa?$AAr?$AA?9?$AAY?$AAE?$AA?$AA@ 10051034     LIBCMT:winapinls.obj
 0002:0000b040       ??_C@_1M@CBFHIJLI@?$AAe?$AAn?$AA?9?$AAC?$AAB?$AA?$AA@ 10051040     LIBCMT:winapinls.obj
 0002:0000b04c       ??_C@_1M@BGNFLDN@?$AAe?$AAs?$AA?9?$AAC?$AAO?$AA?$AA@ 1005104c     LIBCMT:winapinls.obj
 0002:0000b058       ??_C@_1O@JMPHMAMC@?$AAs?$AAm?$AAn?$AA?9?$AAF?$AAI?$AA?$AA@ 10051058     LIBCMT:winapinls.obj
 0002:0000b068       ??_C@_1M@JLANABKE@?$AAa?$AAr?$AA?9?$AAS?$AAY?$AA?$AA@ 10051068     LIBCMT:winapinls.obj
 0002:0000b074       ??_C@_1M@HPKGCFGN@?$AAe?$AAn?$AA?9?$AAB?$AAZ?$AA?$AA@ 10051074     LIBCMT:winapinls.obj
 0002:0000b080       ??_C@_1M@OLJCMLGM@?$AAe?$AAs?$AA?9?$AAP?$AAE?$AA?$AA@ 10051080     LIBCMT:winapinls.obj
 0002:0000b08c       ??_C@_1M@MKKGFKLE@?$AAa?$AAr?$AA?9?$AAJ?$AAO?$AA?$AA@ 1005108c     LIBCMT:winapinls.obj
 0002:0000b098       ??_C@_1M@EKPGLDNI@?$AAe?$AAn?$AA?9?$AAT?$AAT?$AA?$AA@ 10051098     LIBCMT:winapinls.obj
 0002:0000b0a4       ??_C@_1M@OONGHFHE@?$AAe?$AAs?$AA?9?$AAA?$AAR?$AA?$AA@ 100510a4     LIBCMT:winapinls.obj
 0002:0000b0b0       ??_C@_1M@OOJFGBHE@?$AAa?$AAr?$AA?9?$AAL?$AAB?$AA?$AA@ 100510b0     LIBCMT:winapinls.obj
 0002:0000b0bc       ??_C@_1M@GCEJHNEG@?$AAe?$AAn?$AA?9?$AAZ?$AAW?$AA?$AA@ 100510bc     LIBCMT:winapinls.obj
 0002:0000b0c8       ??_C@_1M@JNOCAHJI@?$AAe?$AAs?$AA?9?$AAE?$AAC?$AA?$AA@ 100510c8     LIBCMT:winapinls.obj
 0002:0000b0d4       ??_C@_1M@JEFHPGGB@?$AAa?$AAr?$AA?9?$AAK?$AAW?$AA?$AA@ 100510d4     LIBCMT:winapinls.obj
 0002:0000b0e0       ??_C@_1M@MLKIBJOJ@?$AAe?$AAn?$AA?9?$AAP?$AAH?$AA?$AA@ 100510e0     LIBCMT:winapinls.obj
 0002:0000b0ec       ??_C@_1M@BDNIPEND@?$AAe?$AAs?$AA?9?$AAC?$AAL?$AA?$AA@ 100510ec     LIBCMT:winapinls.obj
 0002:0000b0f8       ??_C@_1M@MPNMEKBD@?$AAa?$AAr?$AA?9?$AAA?$AAE?$AA?$AA@ 100510f8     LIBCMT:winapinls.obj
 0002:0000b104       ??_C@_1M@KBJALCPI@?$AAe?$AAs?$AA?9?$AAU?$AAY?$AA?$AA@ 10051104     LIBCMT:winapinls.obj
 0002:0000b110       ??_C@_1M@LLCCOAGA@?$AAa?$AAr?$AA?9?$AAB?$AAH?$AA?$AA@ 10051110     LIBCMT:winapinls.obj
 0002:0000b11c       ??_C@_1M@PBFNCDEL@?$AAe?$AAs?$AA?9?$AAP?$AAY?$AA?$AA@ 1005111c     LIBCMT:winapinls.obj
 0002:0000b128       ??_C@_1M@EDGINPNP@?$AAa?$AAr?$AA?9?$AAQ?$AAA?$AA?$AA@ 10051128     LIBCMT:winapinls.obj
 0002:0000b134       ??_C@_1M@MKDBIIJI@?$AAe?$AAs?$AA?9?$AAB?$AAO?$AA?$AA@ 10051134     LIBCMT:winapinls.obj
 0002:0000b140       ??_C@_1M@CPKKEBLD@?$AAe?$AAs?$AA?9?$AAS?$AAV?$AA?$AA@ 10051140     LIBCMT:winapinls.obj
 0002:0000b14c       ??_C@_1M@NDBGMMJL@?$AAe?$AAs?$AA?9?$AAH?$AAN?$AA?$AA@ 1005114c     LIBCMT:winapinls.obj
 0002:0000b158       ??_C@_1M@JIJIBHDP@?$AAe?$AAs?$AA?9?$AAN?$AAI?$AA?$AA@ 10051158     LIBCMT:winapinls.obj
 0002:0000b164       ??_C@_1M@CGFMKEEK@?$AAe?$AAs?$AA?9?$AAP?$AAR?$AA?$AA@ 10051164     LIBCMT:winapinls.obj
 0002:0000b170       ??_C@_1O@ICJHKIIK@?$AAz?$AAh?$AA?9?$AAC?$AAH?$AAT?$AA?$AA@ 10051170     LIBCMT:winapinls.obj
 0002:0000b180       ??_C@_15CLNEJCE@?$AAs?$AAr?$AA?$AA@ 10051180     LIBCMT:winapinls.obj
 0002:0000b188       ??_C@_1M@KAHEKEIG@?$AAa?$AAf?$AA?9?$AAz?$AAa?$AA?$AA@ 10051188     LIBCMT:winapinls.obj
 0002:0000b194       ??_C@_1M@GIECOABL@?$AAa?$AAr?$AA?9?$AAa?$AAe?$AA?$AA@ 10051194     LIBCMT:winapinls.obj
 0002:0000b1a0       ??_C@_1M@BMLMEKGI@?$AAa?$AAr?$AA?9?$AAb?$AAh?$AA?$AA@ 100511a0     LIBCMT:winapinls.obj
 0002:0000b1ac       ??_C@_1M@DAPFDGGB@?$AAa?$AAr?$AA?9?$AAd?$AAz?$AA?$AA@ 100511ac     LIBCMT:winapinls.obj
 0002:0000b1b8       ??_C@_1M@FJNKGKIG@?$AAa?$AAr?$AA?9?$AAe?$AAg?$AA?$AA@ 100511b8     LIBCMT:winapinls.obj
 0002:0000b1c4       ??_C@_1M@FLGKKCLO@?$AAa?$AAr?$AA?9?$AAi?$AAq?$AA?$AA@ 100511c4     LIBCMT:winapinls.obj
 0002:0000b1d0       ??_C@_1M@GNDIPALM@?$AAa?$AAr?$AA?9?$AAj?$AAo?$AA?$AA@ 100511d0     LIBCMT:winapinls.obj
 0002:0000b1dc       ??_C@_1M@DDMJFMGJ@?$AAa?$AAr?$AA?9?$AAk?$AAw?$AA?$AA@ 100511dc     LIBCMT:winapinls.obj
 0002:0000b1e8       ??_C@_1M@EJALMLHM@?$AAa?$AAr?$AA?9?$AAl?$AAb?$AA?$AA@ 100511e8     LIBCMT:winapinls.obj
 0002:0000b1f4       ??_C@_1M@MOBDBLOC@?$AAa?$AAr?$AA?9?$AAl?$AAy?$AA?$AA@ 100511f4     LIBCMT:winapinls.obj
 0002:0000b200       ??_C@_1M@JAOCLHDH@?$AAa?$AAr?$AA?9?$AAm?$AAa?$AA?$AA@ 10051200     LIBCMT:winapinls.obj
 0002:0000b20c       ??_C@_1M@JHPMKJIE@?$AAa?$AAr?$AA?9?$AAo?$AAm?$AA?$AA@ 1005120c     LIBCMT:winapinls.obj
 0002:0000b218       ??_C@_1M@OEPGHFNH@?$AAa?$AAr?$AA?9?$AAq?$AAa?$AA?$AA@ 10051218     LIBCMT:winapinls.obj
 0002:0000b224       ??_C@_1M@KJDONENM@?$AAa?$AAr?$AA?9?$AAs?$AAa?$AA?$AA@ 10051224     LIBCMT:winapinls.obj
 0002:0000b230       ??_C@_1M@DMJDKLKM@?$AAa?$AAr?$AA?9?$AAs?$AAy?$AA?$AA@ 10051230     LIBCMT:winapinls.obj
 0002:0000b23c       ??_C@_1M@OMFIPEDC@?$AAa?$AAr?$AA?9?$AAt?$AAn?$AA?$AA@ 1005123c     LIBCMT:winapinls.obj
 0002:0000b248       ??_C@_1M@IHMHGAON@?$AAa?$AAr?$AA?9?$AAy?$AAe?$AA?$AA@ 10051248     LIBCMT:winapinls.obj
 0002:0000b254       ??_C@_1BG@KDCPGJGB@?$AAa?$AAz?$AA?9?$AAa?$AAz?$AA?9?$AAc?$AAy?$AAr?$AAl?$AA?$AA@ 10051254     LIBCMT:winapinls.obj
 0002:0000b26c       ??_C@_1BG@IBCKDDOE@?$AAa?$AAz?$AA?9?$AAa?$AAz?$AA?9?$AAl?$AAa?$AAt?$AAn?$AA?$AA@ 1005126c     LIBCMT:winapinls.obj
 0002:0000b284       ??_C@_1M@EGPFDCPD@?$AAb?$AAe?$AA?9?$AAb?$AAy?$AA?$AA@ 10051284     LIBCMT:winapinls.obj
 0002:0000b290       ??_C@_1M@PCMGMCGC@?$AAb?$AAg?$AA?9?$AAb?$AAg?$AA?$AA@ 10051290     LIBCMT:winapinls.obj
 0002:0000b29c       ??_C@_1M@BJBMFGOB@?$AAb?$AAn?$AA?9?$AAi?$AAn?$AA?$AA@ 1005129c     LIBCMT:winapinls.obj
 0002:0000b2a8       ??_C@_1BG@EAKMMACD@?$AAb?$AAs?$AA?9?$AAb?$AAa?$AA?9?$AAl?$AAa?$AAt?$AAn?$AA?$AA@ 100512a8     LIBCMT:winapinls.obj
 0002:0000b2c0       ??_C@_1M@KGADAODK@?$AAc?$AAa?$AA?9?$AAe?$AAs?$AA?$AA@ 100512c0     LIBCMT:winapinls.obj
 0002:0000b2cc       ??_C@_1M@COAJPDHI@?$AAc?$AAs?$AA?9?$AAc?$AAz?$AA?$AA@ 100512cc     LIBCMT:winapinls.obj
 0002:0000b2d8       ??_C@_1M@DHBHFONH@?$AAc?$AAy?$AA?9?$AAg?$AAb?$AA?$AA@ 100512d8     LIBCMT:winapinls.obj
 0002:0000b2e4       ??_C@_1M@IMGKELGA@?$AAd?$AAa?$AA?9?$AAd?$AAk?$AA?$AA@ 100512e4     LIBCMT:winapinls.obj
 0002:0000b2f0       ??_C@_1M@NNDGDNGA@?$AAd?$AAe?$AA?9?$AAa?$AAt?$AA?$AA@ 100512f0     LIBCMT:winapinls.obj
 0002:0000b2fc       ??_C@_1M@IKDBHEEM@?$AAd?$AAe?$AA?9?$AAc?$AAh?$AA?$AA@ 100512fc     LIBCMT:winapinls.obj
 0002:0000b308       ??_C@_1M@GFFOJMCJ@?$AAd?$AAe?$AA?9?$AAd?$AAe?$AA?$AA@ 10051308     LIBCMT:winapinls.obj
 0002:0000b314       ??_C@_1M@MDNLKBPM@?$AAd?$AAe?$AA?9?$AAl?$AAi?$AA?$AA@ 10051314     LIBCMT:winapinls.obj
 0002:0000b320       ??_C@_1M@NJBEEJNL@?$AAd?$AAe?$AA?9?$AAl?$AAu?$AA?$AA@ 10051320     LIBCMT:winapinls.obj
 0002:0000b32c       ??_C@_1O@GNNELBAP@?$AAd?$AAi?$AAv?$AA?9?$AAm?$AAv?$AA?$AA@ 1005132c     LIBCMT:winapinls.obj
 0002:0000b33c       ??_C@_1M@EJLEOGAE@?$AAe?$AAl?$AA?9?$AAg?$AAr?$AA?$AA@ 1005133c     LIBCMT:winapinls.obj
 0002:0000b348       ??_C@_1M@GMPONJN@?$AAe?$AAn?$AA?9?$AAa?$AAu?$AA?$AA@ 10051348     LIBCMT:winapinls.obj
 0002:0000b354       ??_C@_1M@NIDIIPGF@?$AAe?$AAn?$AA?9?$AAb?$AAz?$AA?$AA@ 10051354     LIBCMT:winapinls.obj
 0002:0000b360       ??_C@_1M@JEHMIMFO@?$AAe?$AAn?$AA?9?$AAc?$AAa?$AA?$AA@ 10051360     LIBCMT:winapinls.obj
 0002:0000b36c       ??_C@_1M@IGMJCDLA@?$AAe?$AAn?$AA?9?$AAc?$AAb?$AA?$AA@ 1005136c     LIBCMT:winapinls.obj
 0002:0000b378       ??_C@_1M@BNFIGBKG@?$AAe?$AAn?$AA?9?$AAg?$AAb?$AA?$AA@ 10051378     LIBCMT:winapinls.obj
 0002:0000b384       ??_C@_1M@LKIFDIGP@?$AAe?$AAn?$AA?9?$AAi?$AAe?$AA?$AA@ 10051384     LIBCMT:winapinls.obj
 0002:0000b390       ??_C@_1M@PJKFGCCO@?$AAe?$AAn?$AA?9?$AAj?$AAm?$AA?$AA@ 10051390     LIBCMT:winapinls.obj
 0002:0000b39c       ??_C@_1M@KPPKEPBO@?$AAe?$AAn?$AA?9?$AAn?$AAz?$AA?$AA@ 1005139c     LIBCMT:winapinls.obj
 0002:0000b3a8       ??_C@_1M@GMDGLDOB@?$AAe?$AAn?$AA?9?$AAp?$AAh?$AA?$AA@ 100513a8     LIBCMT:winapinls.obj
 0002:0000b3b4       ??_C@_1M@ONGIBJNA@?$AAe?$AAn?$AA?9?$AAt?$AAt?$AA?$AA@ 100513b4     LIBCMT:winapinls.obj
 0002:0000b3c0       ??_C@_1M@LLODPCMM@?$AAe?$AAn?$AA?9?$AAu?$AAs?$AA?$AA@ 100513c0     LIBCMT:winapinls.obj
 0002:0000b3cc       ??_C@_1M@LAKFNPAN@?$AAe?$AAn?$AA?9?$AAz?$AAa?$AA?$AA@ 100513cc     LIBCMT:winapinls.obj
 0002:0000b3d8       ??_C@_1M@MFNHNHEO@?$AAe?$AAn?$AA?9?$AAz?$AAw?$AA?$AA@ 100513d8     LIBCMT:winapinls.obj
 0002:0000b3e4       ??_C@_1M@EJEINPHM@?$AAe?$AAs?$AA?9?$AAa?$AAr?$AA?$AA@ 100513e4     LIBCMT:winapinls.obj
 0002:0000b3f0       ??_C@_1M@GNKPCCJA@?$AAe?$AAs?$AA?9?$AAb?$AAo?$AA?$AA@ 100513f0     LIBCMT:winapinls.obj
 0002:0000b3fc       ??_C@_1M@LEEGFONL@?$AAe?$AAs?$AA?9?$AAc?$AAl?$AA?$AA@ 100513fc     LIBCMT:winapinls.obj
 0002:0000b408       ??_C@_1M@KGPDPBDF@?$AAe?$AAs?$AA?9?$AAc?$AAo?$AA?$AA@ 10051408     LIBCMT:winapinls.obj
 0002:0000b414       ??_C@_1M@EIAHOHH@?$AAe?$AAs?$AA?9?$AAc?$AAr?$AA?$AA@ 10051414     LIBCMT:winapinls.obj
 0002:0000b420       ??_C@_1M@LLPGMBIN@?$AAe?$AAs?$AA?9?$AAd?$AAo?$AA?$AA@ 10051420     LIBCMT:winapinls.obj
 0002:0000b42c       ??_C@_1M@DKHMKNJA@?$AAe?$AAs?$AA?9?$AAe?$AAc?$AA?$AA@ 1005142c     LIBCMT:winapinls.obj
 0002:0000b438       ??_C@_1M@GKGFPKAP@?$AAe?$AAs?$AA?9?$AAe?$AAs?$AA?$AA@ 10051438     LIBCMT:winapinls.obj
 0002:0000b444       ??_C@_1M@LKHKGDLN@?$AAe?$AAs?$AA?9?$AAg?$AAt?$AA?$AA@ 10051444     LIBCMT:winapinls.obj
 0002:0000b450       ??_C@_1M@HEIIGGJD@?$AAe?$AAs?$AA?9?$AAh?$AAn?$AA?$AA@ 10051450     LIBCMT:winapinls.obj
 0002:0000b45c       ??_C@_1M@FBDHPPGD@?$AAe?$AAs?$AA?9?$AAm?$AAx?$AA?$AA@ 1005145c     LIBCMT:winapinls.obj
 0002:0000b468       ??_C@_1M@DPAGLNDH@?$AAe?$AAs?$AA?9?$AAn?$AAi?$AA?$AA@ 10051468     LIBCMT:winapinls.obj
 0002:0000b474       ??_C@_1M@MDGOPGDD@?$AAe?$AAs?$AA?9?$AAp?$AAa?$AA?$AA@ 10051474     LIBCMT:winapinls.obj
 0002:0000b480       ??_C@_1M@EMAMGBGE@?$AAe?$AAs?$AA?9?$AAp?$AAe?$AA?$AA@ 10051480     LIBCMT:winapinls.obj
 0002:0000b48c       ??_C@_1M@IBMCAOEC@?$AAe?$AAs?$AA?9?$AAp?$AAr?$AA?$AA@ 1005148c     LIBCMT:winapinls.obj
 0002:0000b498       ??_C@_1M@FGMDIJED@?$AAe?$AAs?$AA?9?$AAp?$AAy?$AA?$AA@ 10051498     LIBCMT:winapinls.obj
 0002:0000b4a4       ??_C@_1M@IIDEOLLL@?$AAe?$AAs?$AA?9?$AAs?$AAv?$AA?$AA@ 100514a4     LIBCMT:winapinls.obj
 0002:0000b4b0       ??_C@_1M@GAOBIPA@?$AAe?$AAs?$AA?9?$AAu?$AAy?$AA?$AA@ 100514b0     LIBCMT:winapinls.obj
 0002:0000b4bc       ??_C@_1M@JKFFICHJ@?$AAe?$AAs?$AA?9?$AAv?$AAe?$AA?$AA@ 100514bc     LIBCMT:winapinls.obj
 0002:0000b4c8       ??_C@_1M@PNMLOJDF@?$AAe?$AAt?$AA?9?$AAe?$AAe?$AA?$AA@ 100514c8     LIBCMT:winapinls.obj
 0002:0000b4d4       ??_C@_1M@GHHLIKEI@?$AAe?$AAu?$AA?9?$AAe?$AAs?$AA?$AA@ 100514d4     LIBCMT:winapinls.obj
 0002:0000b4e0       ??_C@_1M@PBNONODE@?$AAf?$AAa?$AA?9?$AAi?$AAr?$AA?$AA@ 100514e0     LIBCMT:winapinls.obj
 0002:0000b4ec       ??_C@_1M@JEEHPMIL@?$AAf?$AAi?$AA?9?$AAf?$AAi?$AA?$AA@ 100514ec     LIBCMT:winapinls.obj
 0002:0000b4f8       ??_C@_1M@LMDCNDBA@?$AAf?$AAo?$AA?9?$AAf?$AAo?$AA?$AA@ 100514f8     LIBCMT:winapinls.obj
 0002:0000b504       ??_C@_1M@JKEOHLDK@?$AAf?$AAr?$AA?9?$AAb?$AAe?$AA?$AA@ 10051504     LIBCMT:winapinls.obj
 0002:0000b510       ??_C@_1M@NOHADPMI@?$AAf?$AAr?$AA?9?$AAc?$AAa?$AA?$AA@ 10051510     LIBCMT:winapinls.obj
 0002:0000b51c       ??_C@_1M@KDHIHAEC@?$AAf?$AAr?$AA?9?$AAc?$AAh?$AA?$AA@ 1005151c     LIBCMT:winapinls.obj
 0002:0000b528       ??_C@_1M@MMBBFGAK@?$AAf?$AAr?$AA?9?$AAf?$AAr?$AA?$AA@ 10051528     LIBCMT:winapinls.obj
 0002:0000b534       ??_C@_1M@PAFNENNF@?$AAf?$AAr?$AA?9?$AAl?$AAu?$AA?$AA@ 10051534     LIBCMT:winapinls.obj
 0002:0000b540       ??_C@_1M@EOHDJGDD@?$AAf?$AAr?$AA?9?$AAm?$AAc?$AA?$AA@ 10051540     LIBCMT:winapinls.obj
 0002:0000b54c       ??_C@_1M@FAPLLOPF@?$AAg?$AAl?$AA?9?$AAe?$AAs?$AA?$AA@ 1005154c     LIBCMT:winapinls.obj
 0002:0000b558       ??_C@_1M@FOPBFLOO@?$AAg?$AAu?$AA?9?$AAi?$AAn?$AA?$AA@ 10051558     LIBCMT:winapinls.obj
 0002:0000b564       ??_C@_1M@KBMCINPM@?$AAh?$AAe?$AA?9?$AAi?$AAl?$AA?$AA@ 10051564     LIBCMT:winapinls.obj
 0002:0000b570       ??_C@_1M@BBPHKFPJ@?$AAh?$AAi?$AA?9?$AAi?$AAn?$AA?$AA@ 10051570     LIBCMT:winapinls.obj
 0002:0000b57c       ??_C@_1M@PMBNDPHD@?$AAh?$AAr?$AA?9?$AAb?$AAa?$AA?$AA@ 1005157c     LIBCMT:winapinls.obj
 0002:0000b588       ??_C@_1M@BPCKOEGE@?$AAh?$AAr?$AA?9?$AAh?$AAr?$AA?$AA@ 10051588     LIBCMT:winapinls.obj
 0002:0000b594       ??_C@_1M@GACBMHKE@?$AAh?$AAu?$AA?9?$AAh?$AAu?$AA?$AA@ 10051594     LIBCMT:winapinls.obj
 0002:0000b5a0       ??_C@_1M@MILPAJJC@?$AAh?$AAy?$AA?9?$AAa?$AAm?$AA?$AA@ 100515a0     LIBCMT:winapinls.obj
 0002:0000b5ac       ??_C@_1M@BABBICEC@?$AAi?$AAd?$AA?9?$AAi?$AAd?$AA?$AA@ 100515ac     LIBCMT:winapinls.obj
 0002:0000b5b8       ??_C@_1M@BIKNHHPF@?$AAi?$AAs?$AA?9?$AAi?$AAs?$AA?$AA@ 100515b8     LIBCMT:winapinls.obj
 0002:0000b5c4       ??_C@_1M@NMPCJPHE@?$AAi?$AAt?$AA?9?$AAc?$AAh?$AA?$AA@ 100515c4     LIBCMT:winapinls.obj
 0002:0000b5d0       ??_C@_1M@GHKGFEDF@?$AAi?$AAt?$AA?9?$AAi?$AAt?$AA?$AA@ 100515d0     LIBCMT:winapinls.obj
 0002:0000b5dc       ??_C@_1M@NIEJCJJA@?$AAj?$AAa?$AA?9?$AAj?$AAp?$AA?$AA@ 100515dc     LIBCMT:winapinls.obj
 0002:0000b5e8       ??_C@_1M@JILFNBIM@?$AAk?$AAa?$AA?9?$AAg?$AAe?$AA?$AA@ 100515e8     LIBCMT:winapinls.obj
 0002:0000b5f4       ??_C@_1M@PACPMGPH@?$AAk?$AAk?$AA?9?$AAk?$AAz?$AA?$AA@ 100515f4     LIBCMT:winapinls.obj
 0002:0000b600       ??_C@_1M@IELFGMHA@?$AAk?$AAn?$AA?9?$AAi?$AAn?$AA?$AA@ 10051600     LIBCMT:winapinls.obj
 0002:0000b60c       ??_C@_1O@IBBJHCH@?$AAk?$AAo?$AAk?$AA?9?$AAi?$AAn?$AA?$AA@ 1005160c     LIBCMT:winapinls.obj
 0002:0000b61c       ??_C@_1M@DMHAEOGC@?$AAk?$AAo?$AA?9?$AAk?$AAr?$AA?$AA@ 1005161c     LIBCMT:winapinls.obj
 0002:0000b628       ??_C@_1M@HBAHBIGA@?$AAk?$AAy?$AA?9?$AAk?$AAg?$AA?$AA@ 10051628     LIBCMT:winapinls.obj
 0002:0000b634       ??_C@_1M@KPMILCJG@?$AAl?$AAt?$AA?9?$AAl?$AAt?$AA?$AA@ 10051634     LIBCMT:winapinls.obj
 0002:0000b640       ??_C@_1M@BDEKKCA@?$AAl?$AAv?$AA?9?$AAl?$AAv?$AA?$AA@ 10051640     LIBCMT:winapinls.obj
 0002:0000b64c       ??_C@_1M@ELCKCCJJ@?$AAm?$AAi?$AA?9?$AAn?$AAz?$AA?$AA@ 1005164c     LIBCMT:winapinls.obj
 0002:0000b658       ??_C@_1M@CBOOLAPA@?$AAm?$AAk?$AA?9?$AAm?$AAk?$AA?$AA@ 10051658     LIBCMT:winapinls.obj
 0002:0000b664       ??_C@_1M@GPHNBJKN@?$AAm?$AAl?$AA?9?$AAi?$AAn?$AA?$AA@ 10051664     LIBCMT:winapinls.obj
 0002:0000b670       ??_C@_1M@PABJILIG@?$AAm?$AAn?$AA?9?$AAm?$AAn?$AA?$AA@ 10051670     LIBCMT:winapinls.obj
 0002:0000b67c       ??_C@_1M@FGBKKIPG@?$AAm?$AAr?$AA?9?$AAi?$AAn?$AA?$AA@ 1005167c     LIBCMT:winapinls.obj
 0002:0000b688       ??_C@_1M@NDBPDDAL@?$AAm?$AAs?$AA?9?$AAb?$AAn?$AA?$AA@ 10051688     LIBCMT:winapinls.obj
 0002:0000b694       ??_C@_1M@OPIHOOPI@?$AAm?$AAs?$AA?9?$AAm?$AAy?$AA?$AA@ 10051694     LIBCMT:winapinls.obj
 0002:0000b6a0       ??_C@_1M@PPDBCNFM@?$AAm?$AAt?$AA?9?$AAm?$AAt?$AA?$AA@ 100516a0     LIBCMT:winapinls.obj
 0002:0000b6ac       ??_C@_1M@KDJDKMDD@?$AAn?$AAb?$AA?9?$AAn?$AAo?$AA?$AA@ 100516ac     LIBCMT:winapinls.obj
 0002:0000b6b8       ??_C@_1M@KFCFLMJP@?$AAn?$AAl?$AA?9?$AAb?$AAe?$AA?$AA@ 100516b8     LIBCMT:winapinls.obj
 0002:0000b6c4       ??_C@_1M@KPOPDDGO@?$AAn?$AAl?$AA?9?$AAn?$AAl?$AA?$AA@ 100516c4     LIBCMT:winapinls.obj
 0002:0000b6d0       ??_C@_1M@LJKPEMLN@?$AAn?$AAn?$AA?9?$AAn?$AAo?$AA?$AA@ 100516d0     LIBCMT:winapinls.obj
 0002:0000b6dc       ??_C@_1M@BDGHHBFL@?$AAn?$AAs?$AA?9?$AAz?$AAa?$AA?$AA@ 100516dc     LIBCMT:winapinls.obj
 0002:0000b6e8       ??_C@_1M@IDEHOAP@?$AAp?$AAa?$AA?9?$AAi?$AAn?$AA?$AA@ 100516e8     LIBCMT:winapinls.obj
 0002:0000b6f4       ??_C@_1M@HDBKGOGH@?$AAp?$AAl?$AA?9?$AAp?$AAl?$AA?$AA@ 100516f4     LIBCMT:winapinls.obj
 0002:0000b700       ??_C@_1M@LJLLCMEH@?$AAp?$AAt?$AA?9?$AAb?$AAr?$AA?$AA@ 10051700     LIBCMT:winapinls.obj
 0002:0000b70c       ??_C@_1M@NCMONAAL@?$AAp?$AAt?$AA?9?$AAp?$AAt?$AA?$AA@ 1005170c     LIBCMT:winapinls.obj
 0002:0000b718       ??_C@_1O@EAKMAJDN@?$AAq?$AAu?$AAz?$AA?9?$AAb?$AAo?$AA?$AA@ 10051718     LIBCMT:winapinls.obj
 0002:0000b728       ??_C@_1O@BHHPIGDN@?$AAq?$AAu?$AAz?$AA?9?$AAe?$AAc?$AA?$AA@ 10051728     LIBCMT:winapinls.obj
 0002:0000b738       ??_C@_1O@GBAPEKMJ@?$AAq?$AAu?$AAz?$AA?9?$AAp?$AAe?$AA?$AA@ 10051738     LIBCMT:winapinls.obj
 0002:0000b748       ??_C@_1M@CLGLEFBO@?$AAr?$AAo?$AA?9?$AAr?$AAo?$AA?$AA@ 10051748     LIBCMT:winapinls.obj
 0002:0000b754       ??_C@_1M@CEEDODME@?$AAr?$AAu?$AA?9?$AAr?$AAu?$AA?$AA@ 10051754     LIBCMT:winapinls.obj
 0002:0000b760       ??_C@_1M@HPKKKMPP@?$AAs?$AAa?$AA?9?$AAi?$AAn?$AA?$AA@ 10051760     LIBCMT:winapinls.obj
 0002:0000b76c       ??_C@_1M@BKMAIGOJ@?$AAs?$AAe?$AA?9?$AAf?$AAi?$AA?$AA@ 1005176c     LIBCMT:winapinls.obj
 0002:0000b778       ??_C@_1M@NDPIFLFI@?$AAs?$AAe?$AA?9?$AAn?$AAo?$AA?$AA@ 10051778     LIBCMT:winapinls.obj
 0002:0000b784       ??_C@_1M@DANKKHJ@?$AAs?$AAe?$AA?9?$AAs?$AAe?$AA?$AA@ 10051784     LIBCMT:winapinls.obj
 0002:0000b790       ??_C@_1M@PNBLONPJ@?$AAs?$AAk?$AA?9?$AAs?$AAk?$AA?$AA@ 10051790     LIBCMT:winapinls.obj
 0002:0000b79c       ??_C@_1M@LFMODOAL@?$AAs?$AAl?$AA?9?$AAs?$AAi?$AA?$AA@ 1005179c     LIBCMT:winapinls.obj
 0002:0000b7a8       ??_C@_1O@DFKOMPG@?$AAs?$AAm?$AAa?$AA?9?$AAn?$AAo?$AA?$AA@ 100517a8     LIBCMT:winapinls.obj
 0002:0000b7b8       ??_C@_1O@NDKPBNNH@?$AAs?$AAm?$AAa?$AA?9?$AAs?$AAe?$AA?$AA@ 100517b8     LIBCMT:winapinls.obj
 0002:0000b7c8       ??_C@_1O@PLLKBHAB@?$AAs?$AAm?$AAj?$AA?9?$AAn?$AAo?$AA?$AA@ 100517c8     LIBCMT:winapinls.obj
 0002:0000b7d8       ??_C@_1O@CLEPOGCA@?$AAs?$AAm?$AAj?$AA?9?$AAs?$AAe?$AA?$AA@ 100517d8     LIBCMT:winapinls.obj
 0002:0000b7e8       ??_C@_1O@DLGJGKMK@?$AAs?$AAm?$AAn?$AA?9?$AAf?$AAi?$AA?$AA@ 100517e8     LIBCMT:winapinls.obj
 0002:0000b7f8       ??_C@_1O@OJDJGAJC@?$AAs?$AAm?$AAs?$AA?9?$AAf?$AAi?$AA?$AA@ 100517f8     LIBCMT:winapinls.obj
 0002:0000b808       ??_C@_1M@BOFOGHPB@?$AAs?$AAq?$AA?9?$AAa?$AAl?$AA?$AA@ 10051808     LIBCMT:winapinls.obj
 0002:0000b814       ??_C@_1BG@LJBBIPGB@?$AAs?$AAr?$AA?9?$AAb?$AAa?$AA?9?$AAc?$AAy?$AAr?$AAl?$AA?$AA@ 10051814     LIBCMT:winapinls.obj
 0002:0000b82c       ??_C@_1BG@JLBENFOE@?$AAs?$AAr?$AA?9?$AAb?$AAa?$AA?9?$AAl?$AAa?$AAt?$AAn?$AA?$AA@ 1005182c     LIBCMT:winapinls.obj
 0002:0000b844       ??_C@_1BG@KODPNHE@?$AAs?$AAr?$AA?9?$AAs?$AAp?$AA?9?$AAc?$AAy?$AAr?$AAl?$AA?$AA@ 10051844     LIBCMT:winapinls.obj
 0002:0000b85c       ??_C@_1BG@CIOGKHPB@?$AAs?$AAr?$AA?9?$AAs?$AAp?$AA?9?$AAl?$AAa?$AAt?$AAn?$AA?$AA@ 1005185c     LIBCMT:winapinls.obj
 0002:0000b874       ??_C@_1M@NGFJLMAC@?$AAs?$AAv?$AA?9?$AAf?$AAi?$AA?$AA@ 10051874     LIBCMT:winapinls.obj
 0002:0000b880       ??_C@_1M@MPJEJAJC@?$AAs?$AAv?$AA?9?$AAs?$AAe?$AA?$AA@ 10051880     LIBCMT:winapinls.obj
 0002:0000b88c       ??_C@_1M@MPNDHLFK@?$AAs?$AAw?$AA?9?$AAk?$AAe?$AA?$AA@ 1005188c     LIBCMT:winapinls.obj
 0002:0000b898       ??_C@_1O@KOHBJJI@?$AAs?$AAy?$AAr?$AA?9?$AAs?$AAy?$AA?$AA@ 10051898     LIBCMT:winapinls.obj
 0002:0000b8a8       ??_C@_1M@LDCEFHA@?$AAt?$AAa?$AA?9?$AAi?$AAn?$AA?$AA@ 100518a8     LIBCMT:winapinls.obj
 0002:0000b8b4       ??_C@_1M@CNJOFAK@?$AAt?$AAe?$AA?9?$AAi?$AAn?$AA?$AA@ 100518b4     LIBCMT:winapinls.obj
 0002:0000b8c0       ??_C@_1M@GNAECACD@?$AAt?$AAh?$AA?9?$AAt?$AAh?$AA?$AA@ 100518c0     LIBCMT:winapinls.obj
 0002:0000b8cc       ??_C@_1M@CHBIHOJO@?$AAt?$AAn?$AA?9?$AAz?$AAa?$AA?$AA@ 100518cc     LIBCMT:winapinls.obj
 0002:0000b8d8       ??_C@_1M@GCCMIGPJ@?$AAt?$AAr?$AA?9?$AAt?$AAr?$AA?$AA@ 100518d8     LIBCMT:winapinls.obj
 0002:0000b8e4       ??_C@_1M@CELMCNBK@?$AAt?$AAt?$AA?9?$AAr?$AAu?$AA?$AA@ 100518e4     LIBCMT:winapinls.obj
 0002:0000b8f0       ??_C@_1M@KLMCELGA@?$AAu?$AAk?$AA?9?$AAu?$AAa?$AA?$AA@ 100518f0     LIBCMT:winapinls.obj
 0002:0000b8fc       ??_C@_1M@EPAJJAJF@?$AAu?$AAr?$AA?9?$AAp?$AAk?$AA?$AA@ 100518fc     LIBCMT:winapinls.obj
 0002:0000b908       ??_C@_1BG@GEGPMCDJ@?$AAu?$AAz?$AA?9?$AAu?$AAz?$AA?9?$AAc?$AAy?$AAr?$AAl?$AA?$AA@ 10051908     LIBCMT:winapinls.obj
 0002:0000b920       ??_C@_1BG@EGGKJILM@?$AAu?$AAz?$AA?9?$AAu?$AAz?$AA?9?$AAl?$AAa?$AAt?$AAn?$AA?$AA@ 10051920     LIBCMT:winapinls.obj
 0002:0000b938       ??_C@_1M@GFOCLFF@?$AAv?$AAi?$AA?9?$AAv?$AAn?$AA?$AA@ 10051938     LIBCMT:winapinls.obj
 0002:0000b944       ??_C@_1M@CPAMEDFI@?$AAx?$AAh?$AA?9?$AAz?$AAa?$AA?$AA@ 10051944     LIBCMT:winapinls.obj
 0002:0000b950       ??_C@_1O@EBKIFIGN@?$AAz?$AAh?$AA?9?$AAc?$AAh?$AAs?$AA?$AA@ 10051950     LIBCMT:winapinls.obj
 0002:0000b960       ??_C@_1O@NMHPGANE@?$AAz?$AAh?$AA?9?$AAc?$AAh?$AAt?$AA?$AA@ 10051960     LIBCMT:winapinls.obj
 0002:0000b970       ??_C@_1M@LPINJOMC@?$AAz?$AAh?$AA?9?$AAc?$AAn?$AA?$AA@ 10051970     LIBCMT:winapinls.obj
 0002:0000b97c       ??_C@_1M@OCJEJODD@?$AAz?$AAh?$AA?9?$AAh?$AAk?$AA?$AA@ 1005197c     LIBCMT:winapinls.obj
 0002:0000b988       ??_C@_1M@DNDLJINH@?$AAz?$AAh?$AA?9?$AAm?$AAo?$AA?$AA@ 10051988     LIBCMT:winapinls.obj
 0002:0000b994       ??_C@_1M@MBFDNDND@?$AAz?$AAh?$AA?9?$AAs?$AAg?$AA?$AA@ 10051994     LIBCMT:winapinls.obj
 0002:0000b9a0       ??_C@_1M@IMEPLEPE@?$AAz?$AAh?$AA?9?$AAt?$AAw?$AA?$AA@ 100519a0     LIBCMT:winapinls.obj
 0002:0000b9ac       ??_C@_1M@BBGHNHJP@?$AAz?$AAu?$AA?9?$AAz?$AAa?$AA?$AA@ 100519ac     LIBCMT:winapinls.obj
 0002:0000b9b8       ___newctype                100519b8     LIBCMT:ctype.obj
 0002:0000bcb8       __wctype                   10051cb8     LIBCMT:ctype.obj
 0002:0000bec0       ___newclmap                10051ec0     LIBCMT:ctype.obj
 0002:0000c040       ___newcumap                10052040     LIBCMT:ctype.obj
 0002:0000c1c0       ___lc_category             100521c0     LIBCMT:wsetloca.obj
 0002:0000c208       ??_C@_1O@GIFLHMA@?$AAL?$AAC?$AA_?$AAA?$AAL?$AAL?$AA?$AA@ 10052208     LIBCMT:wsetloca.obj
 0002:0000c218       ??_C@_1BG@PPOMIBNJ@?$AAL?$AAC?$AA_?$AAC?$AAO?$AAL?$AAL?$AAA?$AAT?$AAE?$AA?$AA@ 10052218     LIBCMT:wsetloca.obj
 0002:0000c230       ??_C@_1BC@FFJGAPJM@?$AAL?$AAC?$AA_?$AAC?$AAT?$AAY?$AAP?$AAE?$AA?$AA@ 10052230     LIBCMT:wsetloca.obj
 0002:0000c244       ??_C@_1BI@PCKFNJFB@?$AAL?$AAC?$AA_?$AAM?$AAO?$AAN?$AAE?$AAT?$AAA?$AAR?$AAY?$AA?$AA@ 10052244     LIBCMT:wsetloca.obj
 0002:0000c25c       ??_C@_1BG@ENIEDKID@?$AAL?$AAC?$AA_?$AAN?$AAU?$AAM?$AAE?$AAR?$AAI?$AAC?$AA?$AA@ 1005225c     LIBCMT:wsetloca.obj
 0002:0000c274       ??_C@_1BA@HAAOMIIG@?$AAL?$AAC?$AA_?$AAT?$AAI?$AAM?$AAE?$AA?$AA@ 10052274     LIBCMT:wsetloca.obj
 0002:0000c308       ??_C@_15NBPDDFIP@?$AA?$DN?$AA?$DL?$AA?$AA@ 10052308     LIBCMT:wsetloca.obj
 0002:0000c310       ??_C@_13PJJBFPED@?$AA?$DL?$AA?$AA@ 10052310     LIBCMT:wsetloca.obj
 0002:0000c314       ??_C@_13NMPKAAJP@?$AA?$DN?$AA?$AA@ 10052314     LIBCMT:wsetloca.obj
 0002:0000c318       ??_C@_13FHBKNHDA@?$AAC?$AA?$AA@ 10052318     LIBCMT:wsetloca.obj
 0002:0000c31c       ??_C@_17MBJJLFDM@?$AA_?$AA?4?$AA?0?$AA?$AA@ 1005231c     LIBCMT:wsetloca.obj
 0002:0000c324       ??_C@_13ENNFDPBH@?$AA_?$AA?$AA@ 10052324     LIBCMT:wsetloca.obj
 0002:0000c328       ??_C@_13JOFGPIOO@?$AA?4?$AA?$AA@ 10052328     LIBCMT:wsetloca.obj
 0002:0000c32c       ??_C@_06PGGFOGJG@1?$CDSNAN?$AA@ 1005232c     LIBCMT:x10fout.obj
 0002:0000c334       ??_C@_05PHHOCPM@1?$CDIND?$AA@ 10052334     LIBCMT:x10fout.obj
 0002:0000c33c       ??_C@_05DNEBIAHO@1?$CDINF?$AA@ 1005233c     LIBCMT:x10fout.obj
 0002:0000c344       ??_C@_06IMKFLFPG@1?$CDQNAN?$AA@ 10052344     LIBCMT:x10fout.obj
 0002:0000c34c       ??_C@_0M@HHGEPIBF@CreateFile2?$AA@ 1005234c     LIBCMT:wopen.obj
 0002:0000c358       ??_C@_1BA@BALFACEM@?$AAC?$AAO?$AAN?$AAO?$AAU?$AAT?$AA$?$AA?$AA@ 10052358     LIBCMT:initcon.obj
 0002:0000c368       ___rg_language             10052368     LIBCMT:getqloc.obj
 0002:0000c674       ??_C@_1BC@LLOKLNP@?$AAa?$AAm?$AAe?$AAr?$AAi?$AAc?$AAa?$AAn?$AA?$AA@ 10052674     LIBCMT:getqloc.obj
 0002:0000c688       ??_C@_1CC@HEIGCDGG@?$AAa?$AAm?$AAe?$AAr?$AAi?$AAc?$AAa?$AAn?$AA?5?$AAe?$AAn?$AAg?$AAl?$AAi?$AAs?$AAh?$AA?$AA@ 10052688     LIBCMT:getqloc.obj
 0002:0000c6ac       ??_C@_1CC@IHCNOMIN@?$AAa?$AAm?$AAe?$AAr?$AAi?$AAc?$AAa?$AAn?$AA?9?$AAe?$AAn?$AAg?$AAl?$AAi?$AAs?$AAh?$AA?$AA@ 100526ac     LIBCMT:getqloc.obj
 0002:0000c6d0       ??_C@_1BG@GKAGPCGG@?$AAa?$AAu?$AAs?$AAt?$AAr?$AAa?$AAl?$AAi?$AAa?$AAn?$AA?$AA@ 100526d0     LIBCMT:getqloc.obj
 0002:0000c6e8       ??_C@_1BA@GMENCENF@?$AAb?$AAe?$AAl?$AAg?$AAi?$AAa?$AAn?$AA?$AA@ 100526e8     LIBCMT:getqloc.obj
 0002:0000c6f8       ??_C@_1BC@PJMIIAAN@?$AAc?$AAa?$AAn?$AAa?$AAd?$AAi?$AAa?$AAn?$AA?$AA@ 100526f8     LIBCMT:getqloc.obj
 0002:0000c70c       ??_C@_17NOIMNFBF@?$AAc?$AAh?$AAh?$AA?$AA@ 1005270c     LIBCMT:getqloc.obj
 0002:0000c714       ??_C@_17GGDALCHA@?$AAc?$AAh?$AAi?$AA?$AA@ 10052714     LIBCMT:getqloc.obj
 0002:0000c71c       ??_C@_1BA@NPNJKIBL@?$AAc?$AAh?$AAi?$AAn?$AAe?$AAs?$AAe?$AA?$AA@ 1005271c     LIBCMT:getqloc.obj
 0002:0000c72c       ??_C@_1CC@DINBAMMJ@?$AAc?$AAh?$AAi?$AAn?$AAe?$AAs?$AAe?$AA?9?$AAh?$AAo?$AAn?$AAg?$AAk?$AAo?$AAn?$AAg?$AA?$AA@ 1005272c     LIBCMT:getqloc.obj
 0002:0000c750       ??_C@_1CG@IOBJPACO@?$AAc?$AAh?$AAi?$AAn?$AAe?$AAs?$AAe?$AA?9?$AAs?$AAi?$AAm?$AAp?$AAl?$AAi?$AAf?$AAi?$AAe?$AAd?$AA?$AA@ 10052750     LIBCMT:getqloc.obj
 0002:0000c778       ??_C@_1CE@GAJNDCKG@?$AAc?$AAh?$AAi?$AAn?$AAe?$AAs?$AAe?$AA?9?$AAs?$AAi?$AAn?$AAg?$AAa?$AAp?$AAo?$AAr?$AAe?$AA?$AA@ 10052778     LIBCMT:getqloc.obj
 0002:0000c79c       ??_C@_1CI@PAJPIOOD@?$AAc?$AAh?$AAi?$AAn?$AAe?$AAs?$AAe?$AA?9?$AAt?$AAr?$AAa?$AAd?$AAi?$AAt?$AAi?$AAo?$AAn?$AAa?$AAl?$AA?$AA@ 1005279c     LIBCMT:getqloc.obj
 0002:0000c7c4       ??_C@_1BM@NILJBMMD@?$AAd?$AAu?$AAt?$AAc?$AAh?$AA?9?$AAb?$AAe?$AAl?$AAg?$AAi?$AAa?$AAn?$AA?$AA@ 100527c4     LIBCMT:getqloc.obj
 0002:0000c7e0       ??_C@_1CC@OOJPJNEJ@?$AAe?$AAn?$AAg?$AAl?$AAi?$AAs?$AAh?$AA?9?$AAa?$AAm?$AAe?$AAr?$AAi?$AAc?$AAa?$AAn?$AA?$AA@ 100527e0     LIBCMT:getqloc.obj
 0002:0000c804       ??_C@_1BI@IOLFEEM@?$AAe?$AAn?$AAg?$AAl?$AAi?$AAs?$AAh?$AA?9?$AAa?$AAu?$AAs?$AA?$AA@ 10052804     LIBCMT:getqloc.obj
 0002:0000c81c       ??_C@_1BO@HFFNLENJ@?$AAe?$AAn?$AAg?$AAl?$AAi?$AAs?$AAh?$AA?9?$AAb?$AAe?$AAl?$AAi?$AAz?$AAe?$AA?$AA@ 1005281c     LIBCMT:getqloc.obj
 0002:0000c83c       ??_C@_1BI@HAPKJMPO@?$AAe?$AAn?$AAg?$AAl?$AAi?$AAs?$AAh?$AA?9?$AAc?$AAa?$AAn?$AA?$AA@ 1005283c     LIBCMT:getqloc.obj
 0002:0000c854       ??_C@_1CE@HLNDMIOJ@?$AAe?$AAn?$AAg?$AAl?$AAi?$AAs?$AAh?$AA?9?$AAc?$AAa?$AAr?$AAi?$AAb?$AAb?$AAe?$AAa?$AAn?$AA?$AA@ 10052854     LIBCMT:getqloc.obj
 0002:0000c878       ??_C@_1BI@LDHJHHAC@?$AAe?$AAn?$AAg?$AAl?$AAi?$AAs?$AAh?$AA?9?$AAi?$AAr?$AAe?$AA?$AA@ 10052878     LIBCMT:getqloc.obj
 0002:0000c890       ??_C@_1CA@NJMMCFOC@?$AAe?$AAn?$AAg?$AAl?$AAi?$AAs?$AAh?$AA?9?$AAj?$AAa?$AAm?$AAa?$AAi?$AAc?$AAa?$AA?$AA@ 10052890     LIBCMT:getqloc.obj
 0002:0000c8b0       ??_C@_1BG@BHJEBBGG@?$AAe?$AAn?$AAg?$AAl?$AAi?$AAs?$AAh?$AA?9?$AAn?$AAz?$AA?$AA@ 100528b0     LIBCMT:getqloc.obj
 0002:0000c8c8       ??_C@_1CK@FGOEJJCO@?$AAe?$AAn?$AAg?$AAl?$AAi?$AAs?$AAh?$AA?9?$AAs?$AAo?$AAu?$AAt?$AAh?$AA?5?$AAa?$AAf?$AAr?$AAi?$AAc?$AAa?$AA?$AA@ 100528c8     LIBCMT:getqloc.obj
 0002:0000c8f4       ??_C@_1DE@PDBJPCJ@?$AAe?$AAn?$AAg?$AAl?$AAi?$AAs?$AAh?$AA?9?$AAt?$AAr?$AAi?$AAn?$AAi?$AAd?$AAa?$AAd?$AA?5?$AAy?$AA?5?$AAt?$AAo?$AAb?$AAa?$AAg?$AAo?$AA?$AA@ 100528f4     LIBCMT:getqloc.obj
 0002:0000c928       ??_C@_1BG@JGCANDME@?$AAe?$AAn?$AAg?$AAl?$AAi?$AAs?$AAh?$AA?9?$AAu?$AAk?$AA?$AA@ 10052928     LIBCMT:getqloc.obj
 0002:0000c940       ??_C@_1BG@DINKMLE@?$AAe?$AAn?$AAg?$AAl?$AAi?$AAs?$AAh?$AA?9?$AAu?$AAs?$AA?$AA@ 10052940     LIBCMT:getqloc.obj
 0002:0000c958       ??_C@_1BI@NMFDBHJE@?$AAe?$AAn?$AAg?$AAl?$AAi?$AAs?$AAh?$AA?9?$AAu?$AAs?$AAa?$AA?$AA@ 10052958     LIBCMT:getqloc.obj
 0002:0000c970       ??_C@_1BO@OIHKJKII@?$AAf?$AAr?$AAe?$AAn?$AAc?$AAh?$AA?9?$AAb?$AAe?$AAl?$AAg?$AAi?$AAa?$AAn?$AA?$AA@ 10052970     LIBCMT:getqloc.obj
 0002:0000c990       ??_C@_1CA@NKAELJKI@?$AAf?$AAr?$AAe?$AAn?$AAc?$AAh?$AA?9?$AAc?$AAa?$AAn?$AAa?$AAd?$AAi?$AAa?$AAn?$AA?$AA@ 10052990     LIBCMT:getqloc.obj
 0002:0000c9b0       ??_C@_1CE@MGKCNLGN@?$AAf?$AAr?$AAe?$AAn?$AAc?$AAh?$AA?9?$AAl?$AAu?$AAx?$AAe?$AAm?$AAb?$AAo?$AAu?$AAr?$AAg?$AA?$AA@ 100529b0     LIBCMT:getqloc.obj
 0002:0000c9d4       ??_C@_1BK@CEGEAILM@?$AAf?$AAr?$AAe?$AAn?$AAc?$AAh?$AA?9?$AAs?$AAw?$AAi?$AAs?$AAs?$AA?$AA@ 100529d4     LIBCMT:getqloc.obj
 0002:0000c9f0       ??_C@_1CA@PAFKEOCC@?$AAg?$AAe?$AAr?$AAm?$AAa?$AAn?$AA?9?$AAa?$AAu?$AAs?$AAt?$AAr?$AAi?$AAa?$AAn?$AA?$AA@ 100529f0     LIBCMT:getqloc.obj
 0002:0000ca10       ??_C@_1CI@HCFHGOFD@?$AAg?$AAe?$AAr?$AAm?$AAa?$AAn?$AA?9?$AAl?$AAi?$AAc?$AAh?$AAt?$AAe?$AAn?$AAs?$AAt?$AAe?$AAi?$AAn?$AA?$AA@ 10052a10     LIBCMT:getqloc.obj
 0002:0000ca38       ??_C@_1CE@FEDDNPDG@?$AAg?$AAe?$AAr?$AAm?$AAa?$AAn?$AA?9?$AAl?$AAu?$AAx?$AAe?$AAm?$AAb?$AAo?$AAu?$AAr?$AAg?$AA?$AA@ 10052a38     LIBCMT:getqloc.obj
 0002:0000ca5c       ??_C@_1BK@LIMINNMN@?$AAg?$AAe?$AAr?$AAm?$AAa?$AAn?$AA?9?$AAs?$AAw?$AAi?$AAs?$AAs?$AA?$AA@ 10052a5c     LIBCMT:getqloc.obj
 0002:0000ca78       ??_C@_1BM@LGMDBEPD@?$AAi?$AAr?$AAi?$AAs?$AAh?$AA?9?$AAe?$AAn?$AAg?$AAl?$AAi?$AAs?$AAh?$AA?$AA@ 10052a78     LIBCMT:getqloc.obj
 0002:0000ca94       ??_C@_1BM@NNCFBAEE@?$AAi?$AAt?$AAa?$AAl?$AAi?$AAa?$AAn?$AA?9?$AAs?$AAw?$AAi?$AAs?$AAs?$AA?$AA@ 10052a94     LIBCMT:getqloc.obj
 0002:0000cab0       ??_C@_1BE@FEDJNPIB@?$AAn?$AAo?$AAr?$AAw?$AAe?$AAg?$AAi?$AAa?$AAn?$AA?$AA@ 10052ab0     LIBCMT:getqloc.obj
 0002:0000cac4       ??_C@_1CC@CILKDEIE@?$AAn?$AAo?$AAr?$AAw?$AAe?$AAg?$AAi?$AAa?$AAn?$AA?9?$AAb?$AAo?$AAk?$AAm?$AAa?$AAl?$AA?$AA@ 10052ac4     LIBCMT:getqloc.obj
 0002:0000cae8       ??_C@_1CE@DHMMHEPL@?$AAn?$AAo?$AAr?$AAw?$AAe?$AAg?$AAi?$AAa?$AAn?$AA?9?$AAn?$AAy?$AAn?$AAo?$AAr?$AAs?$AAk?$AA?$AA@ 10052ae8     LIBCMT:getqloc.obj
 0002:0000cb0c       ??_C@_1CK@OPNMHECD@?$AAp?$AAo?$AAr?$AAt?$AAu?$AAg?$AAu?$AAe?$AAs?$AAe?$AA?9?$AAb?$AAr?$AAa?$AAz?$AAi?$AAl?$AAi?$AAa?$AAn?$AA?$AA@ 10052b0c     LIBCMT:getqloc.obj
 0002:0000cb38       ??_C@_1CE@KEEHCDB@?$AAs?$AAp?$AAa?$AAn?$AAi?$AAs?$AAh?$AA?9?$AAa?$AAr?$AAg?$AAe?$AAn?$AAt?$AAi?$AAn?$AAa?$AA?$AA@ 10052b38     LIBCMT:getqloc.obj
 0002:0000cb5c       ??_C@_1CA@GIAOLHJD@?$AAs?$AAp?$AAa?$AAn?$AAi?$AAs?$AAh?$AA?9?$AAb?$AAo?$AAl?$AAi?$AAv?$AAi?$AAa?$AA?$AA@ 10052b5c     LIBCMT:getqloc.obj
 0002:0000cb7c       ??_C@_1BM@OJNDFNPD@?$AAs?$AAp?$AAa?$AAn?$AAi?$AAs?$AAh?$AA?9?$AAc?$AAh?$AAi?$AAl?$AAe?$AA?$AA@ 10052b7c     LIBCMT:getqloc.obj
 0002:0000cb98       ??_C@_1CC@OCOLPALL@?$AAs?$AAp?$AAa?$AAn?$AAi?$AAs?$AAh?$AA?9?$AAc?$AAo?$AAl?$AAo?$AAm?$AAb?$AAi?$AAa?$AA?$AA@ 10052b98     LIBCMT:getqloc.obj
 0002:0000cbbc       ??_C@_1CG@BPOFMKBB@?$AAs?$AAp?$AAa?$AAn?$AAi?$AAs?$AAh?$AA?9?$AAc?$AAo?$AAs?$AAt?$AAa?$AA?5?$AAr?$AAi?$AAc?$AAa?$AA?$AA@ 10052bbc     LIBCMT:getqloc.obj
 0002:0000cbe4       ??_C@_1DG@IGOBAPBB@?$AAs?$AAp?$AAa?$AAn?$AAi?$AAs?$AAh?$AA?9?$AAd?$AAo?$AAm?$AAi?$AAn?$AAi?$AAc?$AAa?$AAn?$AA?5?$AAr?$AAe?$AAp?$AAu?$AAb?$AAl?$AAi?$AAc?$AA?$AA@ 10052be4     LIBCMT:getqloc.obj
 0002:0000cc1c       ??_C@_1CA@JHAPGEGI@?$AAs?$AAp?$AAa?$AAn?$AAi?$AAs?$AAh?$AA?9?$AAe?$AAc?$AAu?$AAa?$AAd?$AAo?$AAr?$AA?$AA@ 10052c1c     LIBCMT:getqloc.obj
 0002:0000cc3c       ??_C@_1CI@LAPALJPP@?$AAs?$AAp?$AAa?$AAn?$AAi?$AAs?$AAh?$AA?9?$AAe?$AAl?$AA?5?$AAs?$AAa?$AAl?$AAv?$AAa?$AAd?$AAo?$AAr?$AA?$AA@ 10052c3c     LIBCMT:getqloc.obj
 0002:0000cc64       ??_C@_1CE@PDGBOFOM@?$AAs?$AAp?$AAa?$AAn?$AAi?$AAs?$AAh?$AA?9?$AAg?$AAu?$AAa?$AAt?$AAe?$AAm?$AAa?$AAl?$AAa?$AA?$AA@ 10052c64     LIBCMT:getqloc.obj
 0002:0000cc88       ??_C@_1CC@NBEBAODI@?$AAs?$AAp?$AAa?$AAn?$AAi?$AAs?$AAh?$AA?9?$AAh?$AAo?$AAn?$AAd?$AAu?$AAr?$AAa?$AAs?$AA?$AA@ 10052c88     LIBCMT:getqloc.obj
 0002:0000ccac       ??_C@_1CA@LLKGHBMF@?$AAs?$AAp?$AAa?$AAn?$AAi?$AAs?$AAh?$AA?9?$AAm?$AAe?$AAx?$AAi?$AAc?$AAa?$AAn?$AA?$AA@ 10052cac     LIBCMT:getqloc.obj
 0002:0000cccc       ??_C@_1BO@LKNDOIGD@?$AAs?$AAp?$AAa?$AAn?$AAi?$AAs?$AAh?$AA?9?$AAm?$AAo?$AAd?$AAe?$AAr?$AAn?$AA?$AA@ 10052ccc     LIBCMT:getqloc.obj
 0002:0000ccec       ??_C@_1CE@NMDMOEEB@?$AAs?$AAp?$AAa?$AAn?$AAi?$AAs?$AAh?$AA?9?$AAn?$AAi?$AAc?$AAa?$AAr?$AAa?$AAg?$AAu?$AAa?$AA?$AA@ 10052cec     LIBCMT:getqloc.obj
 0002:0000cd10       ??_C@_1BO@LLCBEJGB@?$AAs?$AAp?$AAa?$AAn?$AAi?$AAs?$AAh?$AA?9?$AAp?$AAa?$AAn?$AAa?$AAm?$AAa?$AA?$AA@ 10052d10     LIBCMT:getqloc.obj
 0002:0000cd30       ??_C@_1CC@FKPGGIHO@?$AAs?$AAp?$AAa?$AAn?$AAi?$AAs?$AAh?$AA?9?$AAp?$AAa?$AAr?$AAa?$AAg?$AAu?$AAa?$AAy?$AA?$AA@ 10052d30     LIBCMT:getqloc.obj
 0002:0000cd54       ??_C@_1BK@CDEIHOOP@?$AAs?$AAp?$AAa?$AAn?$AAi?$AAs?$AAh?$AA?9?$AAp?$AAe?$AAr?$AAu?$AA?$AA@ 10052d54     LIBCMT:getqloc.obj
 0002:0000cd70       ??_C@_1CI@GAHAKKGP@?$AAs?$AAp?$AAa?$AAn?$AAi?$AAs?$AAh?$AA?9?$AAp?$AAu?$AAe?$AAr?$AAt?$AAo?$AA?5?$AAr?$AAi?$AAc?$AAo?$AA?$AA@ 10052d70     LIBCMT:getqloc.obj
 0002:0000cd98       ??_C@_1CA@NKJBCAGP@?$AAs?$AAp?$AAa?$AAn?$AAi?$AAs?$AAh?$AA?9?$AAu?$AAr?$AAu?$AAg?$AAu?$AAa?$AAy?$AA?$AA@ 10052d98     LIBCMT:getqloc.obj
 0002:0000cdb8       ??_C@_1CE@ODILCONM@?$AAs?$AAp?$AAa?$AAn?$AAi?$AAs?$AAh?$AA?9?$AAv?$AAe?$AAn?$AAe?$AAz?$AAu?$AAe?$AAl?$AAa?$AA?$AA@ 10052db8     LIBCMT:getqloc.obj
 0002:0000cddc       ??_C@_1CA@OBNMCGFO@?$AAs?$AAw?$AAe?$AAd?$AAi?$AAs?$AAh?$AA?9?$AAf?$AAi?$AAn?$AAl?$AAa?$AAn?$AAd?$AA?$AA@ 10052ddc     LIBCMT:getqloc.obj
 0002:0000cdfc       ??_C@_1M@PIPDDPPI@?$AAs?$AAw?$AAi?$AAs?$AAs?$AA?$AA@ 10052dfc     LIBCMT:getqloc.obj
 0002:0000ce08       ??_C@_15GMFIMNFM@?$AAu?$AAs?$AA?$AA@ 10052e08     LIBCMT:getqloc.obj
 0002:0000ce10       ??_C@_17HAEBFAGL@?$AAu?$AAs?$AAa?$AA?$AA@ 10052e10     LIBCMT:getqloc.obj
 0002:0000ce18       ___rg_country              10052e18     LIBCMT:getqloc.obj
 0002:0000cf2c       ??_C@_1BA@DPFJEPHB@?$AAa?$AAm?$AAe?$AAr?$AAi?$AAc?$AAa?$AA?$AA@ 10052f2c     LIBCMT:getqloc.obj
 0002:0000cf3c       ??_C@_1BA@ELOGGFK@?$AAb?$AAr?$AAi?$AAt?$AAa?$AAi?$AAn?$AA?$AA@ 10052f3c     LIBCMT:getqloc.obj
 0002:0000cf4c       ??_C@_1M@GHBGIGDA@?$AAc?$AAh?$AAi?$AAn?$AAa?$AA?$AA@ 10052f4c     LIBCMT:getqloc.obj
 0002:0000cf58       ??_C@_1M@NCHEJOPO@?$AAc?$AAz?$AAe?$AAc?$AAh?$AA?$AA@ 10052f58     LIBCMT:getqloc.obj
 0002:0000cf64       ??_C@_1BA@BKPAPBLA@?$AAe?$AAn?$AAg?$AAl?$AAa?$AAn?$AAd?$AA?$AA@ 10052f64     LIBCMT:getqloc.obj
 0002:0000cf74       ??_C@_1BM@HKBCKIPC@?$AAg?$AAr?$AAe?$AAa?$AAt?$AA?5?$AAb?$AAr?$AAi?$AAt?$AAa?$AAi?$AAn?$AA?$AA@ 10052f74     LIBCMT:getqloc.obj
 0002:0000cf90       ??_C@_1BA@PPCHPGJB@?$AAh?$AAo?$AAl?$AAl?$AAa?$AAn?$AAd?$AA?$AA@ 10052f90     LIBCMT:getqloc.obj
 0002:0000cfa0       ??_C@_1BE@JBMPEGDG@?$AAh?$AAo?$AAn?$AAg?$AA?9?$AAk?$AAo?$AAn?$AAg?$AA?$AA@ 10052fa0     LIBCMT:getqloc.obj
 0002:0000cfb4       ??_C@_1BI@KOELBBPJ@?$AAn?$AAe?$AAw?$AA?9?$AAz?$AAe?$AAa?$AAl?$AAa?$AAn?$AAd?$AA?$AA@ 10052fb4     LIBCMT:getqloc.obj
 0002:0000cfcc       ??_C@_15HIEBHAIO@?$AAn?$AAz?$AA?$AA@ 10052fcc     LIBCMT:getqloc.obj
 0002:0000cfd4       ??_C@_1BC@CHBCPFPI@?$AAp?$AAr?$AA?5?$AAc?$AAh?$AAi?$AAn?$AAa?$AA?$AA@ 10052fd4     LIBCMT:getqloc.obj
 0002:0000cfe8       ??_C@_1BC@JAOIIFKD@?$AAp?$AAr?$AA?9?$AAc?$AAh?$AAi?$AAn?$AAa?$AA?$AA@ 10052fe8     LIBCMT:getqloc.obj
 0002:0000cffc       ??_C@_1BI@BEHPPHKC@?$AAp?$AAu?$AAe?$AAr?$AAt?$AAo?$AA?9?$AAr?$AAi?$AAc?$AAo?$AA?$AA@ 10052ffc     LIBCMT:getqloc.obj
 0002:0000d014       ??_C@_1O@PAEOFKDI@?$AAs?$AAl?$AAo?$AAv?$AAa?$AAk?$AA?$AA@ 10053014     LIBCMT:getqloc.obj
 0002:0000d024       ??_C@_1BK@FIHMCKAM@?$AAs?$AAo?$AAu?$AAt?$AAh?$AA?5?$AAa?$AAf?$AAr?$AAi?$AAc?$AAa?$AA?$AA@ 10053024     LIBCMT:getqloc.obj
 0002:0000d040       ??_C@_1BI@NAEOODKB@?$AAs?$AAo?$AAu?$AAt?$AAh?$AA?5?$AAk?$AAo?$AAr?$AAe?$AAa?$AA?$AA@ 10053040     LIBCMT:getqloc.obj
 0002:0000d058       ??_C@_1BK@FBDGGIFF@?$AAs?$AAo?$AAu?$AAt?$AAh?$AA?9?$AAa?$AAf?$AAr?$AAi?$AAc?$AAa?$AA?$AA@ 10053058     LIBCMT:getqloc.obj
 0002:0000d074       ??_C@_1BI@GHLEJDPK@?$AAs?$AAo?$AAu?$AAt?$AAh?$AA?9?$AAk?$AAo?$AAr?$AAe?$AAa?$AA?$AA@ 10053074     LIBCMT:getqloc.obj
 0002:0000d08c       ??_C@_1CE@PLHLOMJF@?$AAt?$AAr?$AAi?$AAn?$AAi?$AAd?$AAa?$AAd?$AA?5?$AA?$CG?$AA?5?$AAt?$AAo?$AAb?$AAa?$AAg?$AAo?$AA?$AA@ 1005308c     LIBCMT:getqloc.obj
 0002:0000d0b0       ??_C@_1BO@MODIMHHI@?$AAu?$AAn?$AAi?$AAt?$AAe?$AAd?$AA?9?$AAk?$AAi?$AAn?$AAg?$AAd?$AAo?$AAm?$AA?$AA@ 100530b0     LIBCMT:getqloc.obj
 0002:0000d0d0       ??_C@_1BM@FFHJONBJ@?$AAu?$AAn?$AAi?$AAt?$AAe?$AAd?$AA?9?$AAs?$AAt?$AAa?$AAt?$AAe?$AAs?$AA?$AA@ 100530d0     LIBCMT:getqloc.obj
 0002:0000d0ec       ___rg_language_count       100530ec     LIBCMT:getqloc.obj
 0002:0000d0f0       ___rg_country_count        100530f0     LIBCMT:getqloc.obj
 0002:0000d0f4       ??_C@_17DNCLJFIF@?$AAA?$AAC?$AAP?$AA?$AA@ 100530f4     LIBCMT:getqloc.obj
 0002:0000d0fc       ??_C@_17CIKBIHLH@?$AAO?$AAC?$AAP?$AA?$AA@ 100530fc     LIBCMT:getqloc.obj
 0002:0000d104       ___rglangidNotDefault      10053104     LIBCMT:getqloc_downlevel.obj
 0002:0000d118       __real@00000000            10053118     LIBCMT:wcstoq.obj
 0002:0000d120       __load_config_used         10053120     LIBCMT:loadcfg.obj
 0002:0000e9d0       ___safe_se_handler_table   100549d0     <linker-defined>
 0002:0000eae0       ___rtc_iaa                 10054ae0     LIBCMT:initsect.obj
 0002:0000ebe4       ___rtc_izz                 10054be4     LIBCMT:initsect.obj
 0002:0000ece8       ___rtc_taa                 10054ce8     LIBCMT:initsect.obj
 0002:0000edec       ___rtc_tzz                 10054dec     LIBCMT:initsect.obj
 0003:000002c0       _speedgoat_IO316_CI_01547_P 100562c0     speedgoat_IO316_CI_01547_data.obj
 0003:00d99d90       _pci20041digout            10defd90     xpctarget.obj
 0003:00d99d94       _nipcdio24cnfg             10defd94     xpctarget.obj
 0003:00d99d98       _rtddm6604cnfg             10defd98     xpctarget.obj
 0003:00d99ebc       _DefaultCOMIOBase          10defebc     xpcruntime:xpcimports.obj
 0003:00d99ecc       _DefaultCOMIRQ             10defecc     xpcruntime:xpcimports.obj
 0003:00d99ee0       __fltused                  10defee0     LIBCMT:fpinit.obj
 0003:00d99ee4       __ldused                   10defee4     LIBCMT:fpinit.obj
 0003:00d99f50       __iob                      10deff50     LIBCMT:_file.obj
 0003:00d9a1d0       ___isa_enabled             10df01d0     LIBCMT:cpu_disp.obj
 0003:00d9a1d4       ___security_cookie         10df01d4     LIBCMT:gs_cookie.obj
 0003:00d9a1d8       ___security_cookie_complement 10df01d8     LIBCMT:gs_cookie.obj
 0003:00d9a350       ___nullstring              10df0350     LIBCMT:output.obj
 0003:00d9a354       ___wnullstring             10df0354     LIBCMT:output.obj
 0003:00d9a448       __cfltcvt_tab              10df0448     LIBCMT:cmiscdat.obj
 0003:00d9a470       ___abort_behavior          10df0470     LIBCMT:abort.obj
 0003:00d9a598       __mbctype                  10df0598     LIBCMT:mbctype.obj
 0003:00d9a6a0       __mbcasemap                10df06a0     LIBCMT:mbctype.obj
 0003:00d9a7a0       ___initialmbcinfo          10df07a0     LIBCMT:mbctype.obj
 0003:00d9a9c4       ___ptmbcinfo               10df09c4     LIBCMT:mbctype.obj
 0003:00d9aac0       ___badioinfo               10df0ac0     LIBCMT:ioinit.obj
 0003:00d9ab00       __lookuptrailbytes         10df0b00     LIBCMT:read.obj
 0003:00d9ac00       __d_inf                    10df0c00     LIBCMT:util.obj
 0003:00d9ac08       __d_ind                    10df0c08     LIBCMT:util.obj
 0003:00d9ac10       __d_max                    10df0c10     LIBCMT:util.obj
 0003:00d9ac18       __d_min                    10df0c18     LIBCMT:util.obj
 0003:00d9ac20       __d_mzero                  10df0c20     LIBCMT:util.obj
 0003:00d9ac44       ___flsindex                10df0c44     LIBCMT:tidtable.obj
 0003:00d9ac50       ___mb_cur_max              10df0c50     LIBCMT:nlsdata.obj
 0003:00d9ac54       ___wclocalestr             10df0c54     LIBCMT:nlsdata.obj
 0003:00d9ac58       ___lc_time_c               10df0c58     LIBCMT:nlsdata.obj
 0003:00d9adbc       ___ptlocinfo               10df0dbc     LIBCMT:nlsdata.obj
 0003:00d9adc0       ___initiallocinfo          10df0dc0     LIBCMT:nlsdata.obj
 0003:00d9ae78       ___initiallocalestructinfo 10df0e78     LIBCMT:nlsdata.obj
 0003:00d9ae80       ___globallocalestatus      10df0e80     LIBCMT:glstatus.obj
 0003:00d9ae84       __matherr_flag             10df0e84     LIBCMT:matherr.obj
 0003:00d9ae90       __NLG_Destination          10df0e90     LIBCMT:exsup.obj
 0003:00d9aea0       ___lconv                   10df0ea0     LIBCMT:lconv.obj
 0003:00d9aea4       ___lconv_static_decimal    10df0ea4     LIBCMT:lconv.obj
 0003:00d9aea8       ___lconv_c                 10df0ea8     LIBCMT:lconv.obj
 0003:00d9aef8       ___lconv_static_W_decimal  10df0ef8     LIBCMT:lconv.obj
 0003:00d9aefc       __pctype                   10df0efc     LIBCMT:ctype.obj
 0003:00d9af00       __pwctype                  10df0f00     LIBCMT:ctype.obj
 0003:00d9af40       __confh                    10df0f40     LIBCMT:initcon.obj
 0003:00d9af48       __pow10pos                 10df0f48     LIBCMT:constpow.obj
 0003:00d9b0a8       __pow10neg                 10df10a8     LIBCMT:constpow.obj
 0003:00d9b210       __HUGE                     10df1210     LIBCMT:huge.obj
 0003:00d9b768       ___isa_available_default   10df1768     rt_logging.obj
 0003:00d9b76c       _pci20098PortA             10df176c     xpctarget.obj
 0003:00d9b770       _pci20098PortB             10df1770     xpctarget.obj
 0003:00d9b774       _siepowercan_firmware_initialized 10df1774     xpctarget.obj
 0003:00d9b778       _siepowercan_port1_configured 10df1778     xpctarget.obj
 0003:00d9b77c       _siepowercan_port2_configured 10df177c     xpctarget.obj
 0003:00d9b780       _CANAC2_FIRMWARE_LOADED    10df1780     xpctarget.obj
 0003:00d9b784       _rs232ports                10df1784     xpctarget.obj
 0003:00d9b794       _NI_AT_MIO_16F_5_commreg2  10df1794     xpctarget.obj
 0003:00d9b798       _RTD_DM6430_init           10df1798     xpctarget.obj
 0003:00d9b79c       _RTD_DM6420_init           10df179c     xpctarget.obj
 0003:00d9b7a0       _CANAC2_FIRMWARE_LOADED_mb1 10df17a0     xpctarget.obj
 0003:00d9b7a4       _CANAC2_FIRMWARE_LOADED_mb2 10df17a4     xpctarget.obj
 0003:00d9b7a8       _CANAC2_FIRMWARE_LOADED_mb3 10df17a8     xpctarget.obj
 0003:00d9b7ac       _xmlsize                   10df17ac     xpctarget.obj
 0003:00d9bcd8       ___fastflag                10df1cd8     LIBCMT:fpinit.obj
 0003:00d9c000       __C_Exit_Done              10df2000     LIBCMT:crt0dat.obj
 0003:00d9c004       ___argc                    10df2004     LIBCMT:crt0dat.obj
 0003:00d9c008       ___argv                    10df2008     LIBCMT:crt0dat.obj
 0003:00d9c00c       ___wargv                   10df200c     LIBCMT:crt0dat.obj
 0003:00d9c010       __environ                  10df2010     LIBCMT:crt0dat.obj
 0003:00d9c014       __wenviron                 10df2014     LIBCMT:crt0dat.obj
 0003:00d9c018       __pgmptr                   10df2018     LIBCMT:crt0dat.obj
 0003:00d9c01c       __wpgmptr                  10df201c     LIBCMT:crt0dat.obj
 0003:00d9c020       __umaskval                 10df2020     LIBCMT:crt0dat.obj
 0003:00d9c024       __exitflag                 10df2024     LIBCMT:crt0dat.obj
 0003:00d9c028       __C_Termination_Done       10df2028     LIBCMT:crt0dat.obj
 0003:00d9c02c       ___winitenv                10df202c     LIBCMT:crt0dat.obj
 0003:00d9c030       ___initenv                 10df2030     LIBCMT:crt0dat.obj
 0003:00d9c034       __cflush                   10df2034     LIBCMT:_file.obj
 0003:00d9c038       ___isa_available           10df2038     LIBCMT:cpu_disp.obj
 0003:00d9c03c       ___favor                   10df203c     LIBCMT:cpu_disp.obj
 0003:00d9c044       __aenvptr                  10df2044     LIBCMT:dllcrt0.obj
 0003:00d9c048       __wenvptr                  10df2048     LIBCMT:dllcrt0.obj
 0003:00d9c04c       ?_pnhHeap@@3P6AHI@ZA       10df204c     LIBCMT:handler.obj
 0003:00d9c050       ___app_type                10df2050     LIBCMT:crt0msg.obj
 0003:00d9c680       __newmode                  10df2680     LIBCMT:_newmode.obj
 0003:00d9c684       __crtheap                  10df2684     LIBCMT:heapinit.obj
 0003:00d9c688       ___pInvalidArgHandler      10df2688     LIBCMT:invarg.obj
 0003:00d9c68c       __stdbuf                   10df268c     LIBCMT:_sftbuf.obj
 0003:00d9c694       ___error_mode              10df2694     LIBCMT:errmode.obj
 0003:00d9c810       __maxwait                  10df2810     LIBCMT:crtheap.obj
 0003:00d9c814       ?__pInconsistency@@3P6AXXZA 10df2814     LIBCMT:hooks.obj
 0003:00d9c818       ___pPurecall               10df2818     LIBCMT:inithelp.obj
 0003:00d9c820       ___mbcodepage              10df2820     LIBCMT:mbctype.obj
 0003:00d9c824       ___ismbcodepage            10df2824     LIBCMT:mbctype.obj
 0003:00d9c828       ___mbulinfo                10df2828     LIBCMT:mbctype.obj
 0003:00d9c834       ___mblocalename            10df2834     LIBCMT:mbctype.obj
 0003:00d9c840       ___pioinfo                 10df2840     LIBCMT:ioinit.obj
 0003:00d9ca48       __outputformat             10df2a48     LIBCMT:outputformat.obj
 0003:00d9ca50       __commode                  10df2a50     LIBCMT:ncommode.obj
 0003:00d9ca54       ___lconv_static_null       10df2a54     LIBCMT:lconv.obj
 0003:00d9ca58       ___lconv_static_W_null     10df2a58     LIBCMT:lconv.obj
 0003:00d9ca5c       ___locale_changed          10df2a5c     LIBCMT:wsetloca.obj
 0003:00d9ca60       __fmode                    10df2a60     LIBCMT:txtmode.obj
 0003:00d9ca64       _ze74d2f4ebd               10df2a64     <common>
 0003:00d9cac0       _z2385080352               10df2ac0     <common>
 0003:00d9cbc0       _Addr                      10df2bc0     <common>
 0003:00d9cbe0       _CANAC2_2_receiveindex_mb3 10df2be0     <common>
 0003:00d9fcb4       _CANAC2_2_receivemaxindex_mb3 10df5cb4     <common>
 0003:00d9fcc0       _CANAC2_2_sendindex_mb3    10df5cc0     <common>
 0003:00d9ffe0       _CANAC2_2_sendmaxindex_mb3 10df5fe0     <common>
 0003:00da0000       _CANAC2_1_receiveindex_mb3 10df6000     <common>
 0003:00da0320       _CANAC2_1_receivemaxindex_mb3 10df6320     <common>
 0003:00da0340       _CANAC2_1_sendindex_mb3    10df6340     <common>
 0003:00da0660       _CANAC2_1_sendmaxindex_mb3 10df6660     <common>
 0003:00da0680       _CANAC2_2_receive_mb3      10df6680     <common>
 0003:00da09a0       _CANAC2_2_send_mb3         10df69a0     <common>
 0003:00da0cc0       _CANAC2_1_receive_mb3      10df6cc0     <common>
 0003:00da0fe0       _CANAC2_1_send_mb3         10df6fe0     <common>
 0003:00da1300       _CANAC2_2_receiveindex_mb2 10df7300     <common>
 0003:00da1620       _CANAC2_2_receivemaxindex_mb2 10df7620     <common>
 0003:00da1640       _CANAC2_2_sendindex_mb2    10df7640     <common>
 0003:00da1960       _CANAC2_2_sendmaxindex_mb2 10df7960     <common>
 0003:00da1980       _CANAC2_1_receiveindex_mb2 10df7980     <common>
 0003:00da1ca0       _CANAC2_1_receivemaxindex_mb2 10df7ca0     <common>
 0003:00da1cc0       _CANAC2_1_sendindex_mb2    10df7cc0     <common>
 0003:00da1fe0       _CANAC2_1_sendmaxindex_mb2 10df7fe0     <common>
 0003:00da2000       _CANAC2_2_receive_mb2      10df8000     <common>
 0003:00da2320       _CANAC2_2_send_mb2         10df8320     <common>
 0003:00da2640       _CANAC2_1_receive_mb2      10df8640     <common>
 0003:00da2960       _CANAC2_1_send_mb2         10df8960     <common>
 0003:00da2c80       _CANAC2_2_receiveindex_mb1 10df8c80     <common>
 0003:00da2fa0       _CANAC2_2_receivemaxindex_mb1 10df8fa0     <common>
 0003:00da2fc0       _CANAC2_2_sendindex_mb1    10df8fc0     <common>
 0003:00da32e0       _CANAC2_2_sendmaxindex_mb1 10df92e0     <common>
 0003:00da3300       _CANAC2_1_receiveindex_mb1 10df9300     <common>
 0003:00da3620       _CANAC2_1_receivemaxindex_mb1 10df9620     <common>
 0003:00da3640       _CANAC2_1_sendindex_mb1    10df9640     <common>
 0003:00da3960       _CANAC2_1_sendmaxindex_mb1 10df9960     <common>
 0003:00da3980       _CANAC2_2_receive_mb1      10df9980     <common>
 0003:00da3ca0       _CANAC2_2_send_mb1         10df9ca0     <common>
 0003:00da3fc0       _CANAC2_1_receive_mb1      10df9fc0     <common>
 0003:00da42e0       _CANAC2_1_send_mb1         10dfa2e0     <common>
 0003:00da4600       _CANAC2_2_receiveindex     10dfa600     <common>
 0003:00da4920       _CANAC2_2_receivemaxindex  10dfa920     <common>
 0003:00da4940       _CANAC2_2_sendindex        10dfa940     <common>
 0003:00da4c60       _CANAC2_2_sendmaxindex     10dfac60     <common>
 0003:00da4c80       _CANAC2_1_receiveindex     10dfac80     <common>
 0003:00da4fa0       _CANAC2_1_receivemaxindex  10dfafa0     <common>
 0003:00da4fc0       _CANAC2_1_sendindex        10dfafc0     <common>
 0003:00da52e0       _CANAC2_1_sendmaxindex     10dfb2e0     <common>
 0003:00da5300       _CANAC2_2_receive          10dfb300     <common>
 0003:00da5620       _CANAC2_2_send             10dfb620     <common>
 0003:00da5940       _CANAC2_1_receive          10dfb940     <common>
 0003:00da5c60       _CANAC2_1_send             10dfbc60     <common>
 0003:00da5f80       _siepowercan_can_object_buffer_port2 10dfbf80     <common>
 0003:00da9fa0       _siepowercan_can_object_buffer_port1 10dfffa0     <common>
 0003:00dadfa0       _rtNaNF                    10e03fa0     <common>
 0003:00dadfb4       _rtMinusInfF               10e03fb4     <common>
 0003:00dadfb8       _rtInfF                    10e03fb8     <common>
 0003:00dadfc0       _rtNaN                     10e03fc0     <common>
 0003:00dadfc8       _rtMinusInf                10e03fc8     <common>
 0003:00dadfd0       _rtInf                     10e03fd0     <common>
 0003:00dadfe0       _speedgoat_IO316_CI_01547_M_ 10e03fe0     <common>
 0003:00db02a0       _speedgoat_IO316_CI_01547_DW 10e062a0     <common>
 0003:00db0320       _speedgoat_IO316_CI_01547_B 10e06320     <common>
 0003:00db0408       _GetVideoConfigs           10e06408     <common>
 0003:00db0470       _FindUsbVideoDevice        10e06470     <common>
 0003:00db0474       _xpceDeleteSemaphore       10e06474     <common>
 0003:00db0478       _xpceSignalSemaphore       10e06478     <common>
 0003:00db047c       _xpceWaitSemaphore         10e0647c     <common>
 0003:00db0480       _xpceCreateSemaphore       10e06480     <common>
 0003:00db0484       _TBGiveSpinFast            10e06484     <common>
 0003:00db0488       _TBTakeSpinFast            10e06488     <common>
 0003:00db048c       _TBDeleteSpin              10e0648c     <common>
 0003:00db0490       _TBCreateSpin              10e06490     <common>
 0003:00db0494       _xpceScopeAcqOK            10e06494     <common>
 0003:00db0498       _rl32eRestartAcquisition   10e06498     <common>
 0003:00db049c       _rl32eSetTargetScopeSigFt  10e0649c     <common>
 0003:00db04a0       _rl32eSetTargetScope       10e064a0     <common>
 0003:00db04a4       _xpceFSScopeSet            10e064a4     <common>
 0003:00db04a8       _rl32eSetScope             10e064a8     <common>
 0003:00db04ac       _rl32eAddSignal            10e064ac     <common>
 0003:00db04b0       _rl32eGetSignalNo          10e064b0     <common>
 0003:00db04b4       _rl32eDefScope             10e064b4     <common>
 0003:00db04b8       _rl32eScopeExists          10e064b8     <common>
 0003:00db04bc       _xpceGetParamDims          10e064bc     <common>
 0003:00db04c0       _xpceGetParameter          10e064c0     <common>
 0003:00db04c4       _xpceSetParameter          10e064c4     <common>
 0003:00db04c8       _xpceGetSignalValue        10e064c8     <common>
 0003:00db04cc       _xpceAssignPCIInterrupt    10e064cc     <common>
 0003:00db04d0       _rl32eGetPCIInfoAtSlot     10e064d0     <common>
 0003:00db04d4       _rl32eGetPCIInfo           10e064d4     <common>
 0003:00db04d8       _rl32eShowPCIInfo          10e064d8     <common>
 0003:00db04dc       _rl32eShowPCIDev           10e064dc     <common>
 0003:00db04e0       _xpceGetTET                10e064e0     <common>
 0003:00db04e4       _xpceaddEvent              10e064e4     <common>
 0003:00db04e8       _xpceDeRegisterISR         10e064e8     <common>
 0003:00db04ec       _xpceRegisterISR           10e064ec     <common>
 0003:00db04f0       _xpcIsModelInit            10e064f0     <common>
 0003:00db04f4       _xpcGetElapsedTime         10e064f4     <common>
 0003:00db04f8       _xpcBusyWait               10e064f8     <common>
 0003:00db04fc       _xpcFreePhysicalMemory     10e064fc     <common>
 0003:00db0500       _xpcAllocPhysicalMemory    10e06500     <common>
 0003:00db0504       _xpcReserveMemoryRegion    10e06504     <common>
 0003:00db0508       _xpcOutpB                  10e06508     <common>
 0003:00db050c       _xpcOutpW                  10e0650c     <common>
 0003:00db0510       _xpcOutpDW                 10e06510     <common>
 0003:00db0514       _xpcInpB                   10e06514     <common>
 0003:00db0518       _xpcInpW                   10e06518     <common>
 0003:00db051c       _xpcInpDW                  10e0651c     <common>
 0003:00db0520       _CloseClientSocket         10e06520     <common>
 0003:00db0524       _ConnectClientSocket       10e06524     <common>
 0003:00db0528       _BindClientSocket          10e06528     <common>
 0003:00db052c       _CreateClientSocket        10e0652c     <common>
 0003:00db0530       _CloseServerSocket         10e06530     <common>
 0003:00db0534       _ConnectServerSocket       10e06534     <common>
 0003:00db0538       _OpenServerListen          10e06538     <common>
 0003:00db053c       _CreateServerSocket        10e0653c     <common>
 0003:00db0540       _SocketReceive             10e06540     <common>
 0003:00db0544       _SocketSend                10e06544     <common>
 0003:00db0548       _GetSocketState            10e06548     <common>
 0003:00db054c       _GetSocket                 10e0654c     <common>
 0003:00db0550       _socket                    10e06550     <common>
 0003:00db0554       _inet_addr                 10e06554     <common>
 0003:00db0558       _sendto                    10e06558     <common>
 0003:00db055c       _recvfrom                  10e0655c     <common>
 0003:00db0560       _listen                    10e06560     <common>
 0003:00db0564       _ioctlsocket               10e06564     <common>
 0003:00db0568       _connect                   10e06568     <common>
 0003:00db056c       _closesocket               10e0656c     <common>
 0003:00db0570       _setsockopt                10e06570     <common>
 0003:00db0574       _bind                      10e06574     <common>
 0003:00db0578       _accept                    10e06578     <common>
 0003:00db057c       _GetHostTarIPAdd           10e0657c     <common>
 0003:00db0580       _GetDCUUsage               10e06580     <common>
 0003:00db0584       _DeleteRoute               10e06584     <common>
 0003:00db0588       _AddGatewayRoute           10e06588     <common>
 0003:00db058c       _SetIP                     10e0658c     <common>
 0003:00db0590       _CloseInterface            10e06590     <common>
 0003:00db0594       _OpenInterface             10e06594     <common>
 0003:00db0598       _SetIPTASKPriority         10e06598     <common>
 0003:00db059c       _isUsedByRTIP              10e0659c     <common>
 0003:00db05a0       _slrtWarning               10e065a0     <common>
 0003:00db05a4       _slrtGetCPUTCelsius        10e065a4     <common>
 0003:00db05a8       _geterrorstring            10e065a8     <common>
 0003:00db05ac       _getlasterror              10e065ac     <common>
 0003:00db05b0       _slrtLogEvent              10e065b0     <common>
 0003:00db05b4       _slrtGetDefaultDrive       10e065b4     <common>
 0003:00db05b8       _slrtfsFread               10e065b8     <common>
 0003:00db05bc       _slrtfsGetFileStatus       10e065bc     <common>
 0003:00db05c0       _slrtfsOpenFileAsync       10e065c0     <common>
 0003:00db05c4       _slrtfsCloseFileAsync      10e065c4     <common>
 0003:00db05c8       _slrtfsGetFileErrorMessage 10e065c8     <common>
 0003:00db05cc       _slrtfsGetFileError        10e065cc     <common>
 0003:00db05d0       _slrtfsWriteToFile         10e065d0     <common>
 0003:00db05d4       _slrtfsCloseFile           10e065d4     <common>
 0003:00db05d8       _slrtfsOpenFile            10e065d8     <common>
 0003:00db05dc       _slrtGetSgCRBSpace         10e065dc     <common>
 0003:00db05e0       _slrtGetCRBScratchSpace    10e065e0     <common>
 0003:00db05e4       _slrteSetupMSI             10e065e4     <common>
 0003:00db05e8       _slTestRegAssessment       10e065e8     <common>
 0003:00db05ec       _slTestTerminate           10e065ec     <common>
 0003:00db05f0       _slTestEvalOnFail          10e065f0     <common>
 0003:00db05f4       _slTestLogAssessments      10e065f4     <common>
 0003:00db05f8       _slTestInitialize          10e065f8     <common>
 0003:00db05fc       _unRegisterPTPTimeRead     10e065fc     <common>
 0003:00db0600       _registerPTPTimeRead       10e06600     <common>
 0003:00db0604       _slrteGetCurrentStepSize   10e06604     <common>
 0003:00db0608       _slrteSetStepSizeDelta     10e06608     <common>
 0003:00db060c       _xpceGetIntTimerGranularityNS 10e0660c     <common>
 0003:00db0610       _xpceDAQUpdateTimeStamp    10e06610     <common>
 0003:00db0614       _xpceDAQPostEvent          10e06614     <common>
 0003:00db0618       _StreamVideo               10e06618     <common>
 0003:00db061c       _StopVideoDisplay          10e0661c     <common>
 0003:00db0620       _StartVideoDisplay         10e06620     <common>
 0003:00db0624       _DestroyVideoDisplay       10e06624     <common>
 0003:00db0628       _CreateVideoDisplay        10e06628     <common>
 0003:00db062c       _ConvertUImage             10e0662c     <common>
 0003:00db0630       _StopVideo                 10e06630     <common>
 0003:00db0634       _ReadFrameBuffer           10e06634     <common>
 0003:00db0638       _StartVideo                10e06638     <common>
 0003:00db063c       ___unguarded_readlc_active 10e0663c     <common>
 0003:00db064c       ___setlc_active            10e0664c     <common>
 0003:00db0650       __nhandle                  10e06650     <common>
 0003:00db0660       _encodedKERNEL32Functions  10e06660     <common>
 0003:00db0708       __debugger_hook_dummy      10e06708     <common>
 0003:00db0714       __pDestructExceptionObject 10e06714     <common>
 0003:00db0720       __acmdln                   10e06720     <common>
 0003:00db0740       __bufin                    10e06740     <common>
 0003:00db1a7c       ___piob                    10e07a7c     <common>
 0003:00db1a80       __nstream                  10e07a80     <common>
 0003:00db1a84       ___dyn_tls_init_callback   10e07a84     <common>
 0003:00db1a94       ___onexitend               10e07a94     <common>
 0003:00db1a98       ___onexitbegin             10e07a98     <common>
 0003:00db1a9c       ___mbctype_initialized     10e07a9c     <common>
 0003:00db1aa0       ___env_initialized         10e07aa0     <common>
 0004:00000000       __imp__GetModuleHandleA@4  10e08000     kernel32:KERNEL32.dll
 0004:00000004       __imp__GetProcAddress@8    10e08004     kernel32:KERNEL32.dll
 0004:00000008       __imp__HeapAlloc@12        10e08008     kernel32:KERNEL32.dll
 0004:0000000c       __imp__GetLastError@0      10e0800c     kernel32:KERNEL32.dll
 0004:00000010       __imp__HeapFree@12         10e08010     kernel32:KERNEL32.dll
 0004:00000014       __imp__GetStdHandle@4      10e08014     kernel32:KERNEL32.dll
 0004:00000018       __imp__GetFileType@4       10e08018     kernel32:KERNEL32.dll
 0004:0000001c       __imp__GetModuleFileNameW@12 10e0801c     kernel32:KERNEL32.dll
 0004:00000020       __imp__GetModuleHandleExW@12 10e08020     kernel32:KERNEL32.dll
 0004:00000024       __imp__WriteConsoleW@20    10e08024     kernel32:KERNEL32.dll
 0004:00000028       __imp__IsDebuggerPresent@0 10e08028     kernel32:KERNEL32.dll
 0004:0000002c       __imp__IsProcessorFeaturePresent@4 10e0802c     kernel32:KERNEL32.dll
 0004:00000030       __imp__EncodePointer@4     10e08030     kernel32:KERNEL32.dll
 0004:00000034       __imp__DecodePointer@4     10e08034     kernel32:KERNEL32.dll
 0004:00000038       __imp__ExitProcess@4       10e08038     kernel32:KERNEL32.dll
 0004:0000003c       __imp__AreFileApisANSI@0   10e0803c     kernel32:KERNEL32.dll
 0004:00000040       __imp__MultiByteToWideChar@24 10e08040     kernel32:KERNEL32.dll
 0004:00000044       __imp__WideCharToMultiByte@32 10e08044     kernel32:KERNEL32.dll
 0004:00000048       __imp__HeapReAlloc@16      10e08048     kernel32:KERNEL32.dll
 0004:0000004c       __imp__EnterCriticalSection@4 10e0804c     kernel32:KERNEL32.dll
 0004:00000050       __imp__LeaveCriticalSection@4 10e08050     kernel32:KERNEL32.dll
 0004:00000054       __imp__GetCommandLineA@0   10e08054     kernel32:KERNEL32.dll
 0004:00000058       __imp__GetCurrentThreadId@0 10e08058     kernel32:KERNEL32.dll
 0004:0000005c       __imp__WriteFile@20        10e0805c     kernel32:KERNEL32.dll
 0004:00000060       __imp__GetProcessHeap@0    10e08060     kernel32:KERNEL32.dll
 0004:00000064       __imp__RaiseException@16   10e08064     kernel32:KERNEL32.dll
 0004:00000068       __imp__SetConsoleCtrlHandler@8 10e08068     kernel32:KERNEL32.dll
 0004:0000006c       __imp__OutputDebugStringW@4 10e0806c     kernel32:KERNEL32.dll
 0004:00000070       __imp__LoadLibraryExW@12   10e08070     kernel32:KERNEL32.dll
 0004:00000074       __imp__UnhandledExceptionFilter@4 10e08074     kernel32:KERNEL32.dll
 0004:00000078       __imp__SetUnhandledExceptionFilter@4 10e08078     kernel32:KERNEL32.dll
 0004:0000007c       __imp__SetLastError@4      10e0807c     kernel32:KERNEL32.dll
 0004:00000080       __imp__InitializeCriticalSectionAndSpinCount@8 10e08080     kernel32:KERNEL32.dll
 0004:00000084       __imp__CreateEventW@16     10e08084     kernel32:KERNEL32.dll
 0004:00000088       __imp__Sleep@4             10e08088     kernel32:KERNEL32.dll
 0004:0000008c       __imp__GetCurrentProcess@0 10e0808c     kernel32:KERNEL32.dll
 0004:00000090       __imp__TerminateProcess@8  10e08090     kernel32:KERNEL32.dll
 0004:00000094       __imp__TlsAlloc@0          10e08094     kernel32:KERNEL32.dll
 0004:00000098       __imp__TlsGetValue@4       10e08098     kernel32:KERNEL32.dll
 0004:0000009c       __imp__TlsSetValue@8       10e0809c     kernel32:KERNEL32.dll
 0004:000000a0       __imp__TlsFree@4           10e080a0     kernel32:KERNEL32.dll
 0004:000000a4       __imp__GetStartupInfoW@4   10e080a4     kernel32:KERNEL32.dll
 0004:000000a8       __imp__GetTickCount@0      10e080a8     kernel32:KERNEL32.dll
 0004:000000ac       __imp__GetModuleHandleW@4  10e080ac     kernel32:KERNEL32.dll
 0004:000000b0       __imp__CreateSemaphoreW@16 10e080b0     kernel32:KERNEL32.dll
 0004:000000b4       __imp__DeleteCriticalSection@4 10e080b4     kernel32:KERNEL32.dll
 0004:000000b8       __imp__FatalAppExitA@8     10e080b8     kernel32:KERNEL32.dll
 0004:000000bc       __imp__FreeLibrary@4       10e080bc     kernel32:KERNEL32.dll
 0004:000000c0       __imp__IsValidCodePage@4   10e080c0     kernel32:KERNEL32.dll
 0004:000000c4       __imp__GetACP@0            10e080c4     kernel32:KERNEL32.dll
 0004:000000c8       __imp__GetOEMCP@0          10e080c8     kernel32:KERNEL32.dll
 0004:000000cc       __imp__GetCPInfo@8         10e080cc     kernel32:KERNEL32.dll
 0004:000000d0       __imp__CloseHandle@4       10e080d0     kernel32:KERNEL32.dll
 0004:000000d4       __imp__RtlUnwind@16        10e080d4     kernel32:KERNEL32.dll
 0004:000000d8       __imp__ReadFile@20         10e080d8     kernel32:KERNEL32.dll
 0004:000000dc       __imp__GetConsoleMode@8    10e080dc     kernel32:KERNEL32.dll
 0004:000000e0       __imp__ReadConsoleW@20     10e080e0     kernel32:KERNEL32.dll
 0004:000000e4       __imp__GetConsoleCP@0      10e080e4     kernel32:KERNEL32.dll
 0004:000000e8       __imp__DeleteFileW@4       10e080e8     kernel32:KERNEL32.dll
 0004:000000ec       __imp__SetFilePointerEx@20 10e080ec     kernel32:KERNEL32.dll
 0004:000000f0       __imp__GetCurrentThread@0  10e080f0     kernel32:KERNEL32.dll
 0004:000000f4       __imp__GetModuleFileNameA@12 10e080f4     kernel32:KERNEL32.dll
 0004:000000f8       __imp__QueryPerformanceCounter@4 10e080f8     kernel32:KERNEL32.dll
 0004:000000fc       __imp__GetCurrentProcessId@0 10e080fc     kernel32:KERNEL32.dll
 0004:00000100       __imp__GetSystemTimeAsFileTime@4 10e08100     kernel32:KERNEL32.dll
 0004:00000104       __imp__GetEnvironmentStringsW@0 10e08104     kernel32:KERNEL32.dll
 0004:00000108       __imp__FreeEnvironmentStringsW@4 10e08108     kernel32:KERNEL32.dll
 0004:0000010c       __imp__FlushFileBuffers@4  10e0810c     kernel32:KERNEL32.dll
 0004:00000110       __imp__HeapSize@12         10e08110     kernel32:KERNEL32.dll
 0004:00000114       __imp__GetDateFormatW@24   10e08114     kernel32:KERNEL32.dll
 0004:00000118       __imp__GetTimeFormatW@24   10e08118     kernel32:KERNEL32.dll
 0004:0000011c       __imp__CompareStringW@24   10e0811c     kernel32:KERNEL32.dll
 0004:00000120       __imp__LCMapStringW@24     10e08120     kernel32:KERNEL32.dll
 0004:00000124       __imp__GetLocaleInfoW@16   10e08124     kernel32:KERNEL32.dll
 0004:00000128       __imp__IsValidLocale@8     10e08128     kernel32:KERNEL32.dll
 0004:0000012c       __imp__GetUserDefaultLCID@0 10e0812c     kernel32:KERNEL32.dll
 0004:00000130       __imp__EnumSystemLocalesW@8 10e08130     kernel32:KERNEL32.dll
 0004:00000134       __imp__GetStringTypeW@16   10e08134     kernel32:KERNEL32.dll
 0004:00000138       __imp__SetStdHandle@8      10e08138     kernel32:KERNEL32.dll
 0004:0000013c       __imp__CreateFileW@28      10e0813c     kernel32:KERNEL32.dll
 0004:00000140       __imp__SetEndOfFile@4      10e08140     kernel32:KERNEL32.dll
 0004:00000144       \177KERNEL32_NULL_THUNK_DATA 10e08144     kernel32:KERNEL32.dll
 0004:000001b0       __IMPORT_DESCRIPTOR_KERNEL32 10e081b0     kernel32:KERNEL32.dll
 0004:000001c4       __NULL_IMPORT_DESCRIPTOR   10e081c4     kernel32:KERNEL32.dll

 entry point at        0001:0001adb4

