ARM GAS  /tmp/ccz6RJgL.s 			page 1


   1              		.cpu cortex-m4
   2              		.eabi_attribute 27, 1
   3              		.eabi_attribute 28, 1
   4              		.eabi_attribute 20, 1
   5              		.eabi_attribute 21, 1
   6              		.eabi_attribute 23, 3
   7              		.eabi_attribute 24, 1
   8              		.eabi_attribute 25, 1
   9              		.eabi_attribute 26, 1
  10              		.eabi_attribute 30, 2
  11              		.eabi_attribute 34, 1
  12              		.eabi_attribute 18, 4
  13              		.file	"app.c"
  14              		.text
  15              	.Ltext0:
  16              		.cfi_sections	.debug_frame
  17              		.section	.text.output_vt_cb,"ax",%progbits
  18              		.align	1
  19              		.p2align 4,,15
  20              		.syntax unified
  21              		.thumb
  22              		.thumb_func
  23              		.fpu fpv4-sp-d16
  24              		.type	output_vt_cb, %function
  25              	output_vt_cb:
  26              	.LFB261:
  27              		.file 1 "applications/app.c"
  28              		.loc 1 177 0
  29              		.cfi_startproc
  30              		@ args = 0, pretend = 0, frame = 0
  31              		@ frame_needed = 0, uses_anonymous_args = 0
  32              		@ link register save eliminated.
  33              	.LVL0:
  34              		.loc 1 179 0
  35 0000 014B     		ldr	r3, .L3
  36 0002 0022     		movs	r2, #0
  37 0004 1A70     		strb	r2, [r3]
  38              		.loc 1 180 0
  39 0006 7047     		bx	lr
  40              	.L4:
  41              		.align	2
  42              	.L3:
  43 0008 00000000 		.word	.LANCHOR0
  44              		.cfi_endproc
  45              	.LFE261:
  46              		.size	output_vt_cb, .-output_vt_cb
  47              		.section	.text.app_get_configuration,"ax",%progbits
  48              		.align	1
  49              		.p2align 4,,15
  50              		.global	app_get_configuration
  51              		.syntax unified
  52              		.thumb
  53              		.thumb_func
  54              		.fpu fpv4-sp-d16
  55              		.type	app_get_configuration, %function
  56              	app_get_configuration:
  57              	.LFB256:
ARM GAS  /tmp/ccz6RJgL.s 			page 2


  58              		.loc 1 39 0
  59              		.cfi_startproc
  60              		@ args = 0, pretend = 0, frame = 0
  61              		@ frame_needed = 0, uses_anonymous_args = 0
  62              		@ link register save eliminated.
  63              		.loc 1 41 0
  64 0000 0048     		ldr	r0, .L6
  65 0002 7047     		bx	lr
  66              	.L7:
  67              		.align	2
  68              	.L6:
  69 0004 00000000 		.word	.LANCHOR1
  70              		.cfi_endproc
  71              	.LFE256:
  72              		.size	app_get_configuration, .-app_get_configuration
  73              		.section	.text.custom_get_configuration,"ax",%progbits
  74              		.align	1
  75              		.p2align 4,,15
  76              		.global	custom_get_configuration
  77              		.syntax unified
  78              		.thumb
  79              		.thumb_func
  80              		.fpu fpv4-sp-d16
  81              		.type	custom_get_configuration, %function
  82              	custom_get_configuration:
  83              	.LFB257:
  84              		.loc 1 43 0
  85              		.cfi_startproc
  86              		@ args = 0, pretend = 0, frame = 0
  87              		@ frame_needed = 0, uses_anonymous_args = 0
  88              		@ link register save eliminated.
  89              		.loc 1 45 0
  90 0000 0048     		ldr	r0, .L9
  91 0002 7047     		bx	lr
  92              	.L10:
  93              		.align	2
  94              	.L9:
  95 0004 00000000 		.word	.LANCHOR2
  96              		.cfi_endproc
  97              	.LFE257:
  98              		.size	custom_get_configuration, .-custom_get_configuration
  99              		.section	.text.app_set_configuration,"ax",%progbits
 100              		.align	1
 101              		.p2align 4,,15
 102              		.global	app_set_configuration
 103              		.syntax unified
 104              		.thumb
 105              		.thumb_func
 106              		.fpu fpv4-sp-d16
 107              		.type	app_set_configuration, %function
 108              	app_set_configuration:
 109              	.LFB258:
 110              		.loc 1 54 0
 111              		.cfi_startproc
 112              		@ args = 0, pretend = 0, frame = 0
 113              		@ frame_needed = 0, uses_anonymous_args = 0
 114              	.LVL1:
ARM GAS  /tmp/ccz6RJgL.s 			page 3


 115 0000 70B5     		push	{r4, r5, r6, lr}
 116              		.cfi_def_cfa_offset 16
 117              		.cfi_offset 4, -16
 118              		.cfi_offset 5, -12
 119              		.cfi_offset 6, -8
 120              		.cfi_offset 14, -4
 121              		.loc 1 54 0
 122 0002 0546     		mov	r5, r0
 123              		.loc 1 63 0
 124 0004 3D4E     		ldr	r6, .L29
 125              		.loc 1 55 0
 126 0006 3E48     		ldr	r0, .L29+4
 127              	.LVL2:
 128 0008 2946     		mov	r1, r5
 129 000a 4FF4BC72 		mov	r2, #376
 130 000e FFF7FEFF 		bl	memcpy
 131              	.LVL3:
 132              		.loc 1 57 0
 133 0012 FFF7FEFF 		bl	app_ppm_stop
 134              	.LVL4:
 135              		.loc 1 58 0
 136 0016 FFF7FEFF 		bl	app_adc_stop
 137              	.LVL5:
 138              		.loc 1 59 0
 139 001a FFF7FEFF 		bl	app_uartcomm_stop
 140              	.LVL6:
 141              		.loc 1 60 0
 142 001e FFF7FEFF 		bl	app_nunchuk_stop
 143              	.LVL7:
 144              		.loc 1 61 0
 145 0022 FFF7FEFF 		bl	app_balance_stop
 146              	.LVL8:
 147              		.loc 1 63 0
 148 0026 3378     		ldrb	r3, [r6]	@ zero_extendqisi2
 149 0028 93B3     		cbz	r3, .L28
 150              	.L12:
 151              		.loc 1 78 0
 152 002a 354C     		ldr	r4, .L29+4
 153              		.loc 1 68 0
 154 002c 287D     		ldrb	r0, [r5, #20]	@ zero_extendqisi2
 155 002e FFF7FEFF 		bl	comm_can_set_baud
 156              	.LVL9:
 157              		.loc 1 75 0
 158 0032 05F59670 		add	r0, r5, #300
 159 0036 FFF7FEFF 		bl	imu_init
 160              	.LVL10:
 161              		.loc 1 78 0
 162 003a 04F59671 		add	r1, r4, #300
 163 003e 04F1E400 		add	r0, r4, #228
 164 0042 FFF7FEFF 		bl	app_balance_configure
 165              	.LVL11:
 166              		.loc 1 79 0
 167 0046 04F59672 		add	r2, r4, #300
 168 004a 04F1E401 		add	r1, r4, #228
 169 004e 04F16000 		add	r0, r4, #96
 170 0052 FFF7FEFF 		bl	app_adc_configure
 171              	.LVL12:
ARM GAS  /tmp/ccz6RJgL.s 			page 4


 172              		.loc 1 82 0
 173 0056 A37E     		ldrb	r3, [r4, #26]	@ zero_extendqisi2
 174 0058 013B     		subs	r3, r3, #1
 175 005a 082B     		cmp	r3, #8
 176 005c 08D8     		bhi	.L13
 177 005e DFE803F0 		tbb	[pc, r3]
 178              	.L15:
 179 0062 05       		.byte	(.L14-.L15)/2
 180 0063 47       		.byte	(.L16-.L15)/2
 181 0064 20       		.byte	(.L27-.L15)/2
 182 0065 25       		.byte	(.L18-.L15)/2
 183 0066 2C       		.byte	(.L19-.L15)/2
 184 0067 35       		.byte	(.L20-.L15)/2
 185 0068 38       		.byte	(.L21-.L15)/2
 186 0069 40       		.byte	(.L22-.L15)/2
 187 006a 1A       		.byte	(.L23-.L15)/2
 188 006b 00       		.p2align 1
 189              	.L14:
 190              		.loc 1 84 0
 191 006c FFF7FEFF 		bl	app_ppm_start
 192              	.LVL13:
 193              	.L13:
 194              		.loc 1 136 0
 195 0070 2448     		ldr	r0, .L29+8
 196 0072 FFF7FEFF 		bl	app_ppm_configure
 197              	.LVL14:
 198              		.loc 1 137 0
 199 0076 A17D     		ldrb	r1, [r4, #22]	@ zero_extendqisi2
 200 0078 D4F8A400 		ldr	r0, [r4, #164]
 201 007c FFF7FEFF 		bl	app_uartcomm_configure
 202              	.LVL15:
 203              		.loc 1 138 0
 204 0080 2148     		ldr	r0, .L29+12
 205 0082 FFF7FEFF 		bl	app_nunchuk_configure
 206              	.LVL16:
 207              		.loc 1 144 0
 208 0086 2148     		ldr	r0, .L29+16
 209              		.loc 1 145 0
 210 0088 BDE87040 		pop	{r4, r5, r6, lr}
 211              		.cfi_remember_state
 212              		.cfi_restore 14
 213              		.cfi_restore 6
 214              		.cfi_restore 5
 215              		.cfi_restore 4
 216              		.cfi_def_cfa_offset 0
 217              	.LVL17:
 218              		.loc 1 144 0
 219 008c FFF7FEBF 		b	rfhelp_update_conf
 220              	.LVL18:
 221              	.L28:
 222              		.cfi_restore_state
 223              		.loc 1 64 0
 224 0090 FFF7FEFF 		bl	nrf_driver_stop
 225              	.LVL19:
 226 0094 C9E7     		b	.L12
 227              	.L23:
 228              		.loc 1 113 0
ARM GAS  /tmp/ccz6RJgL.s 			page 5


 229 0096 FFF7FEFF 		bl	app_balance_start
 230              	.LVL20:
 231              		.loc 1 114 0
 232 009a 94F82C31 		ldrb	r3, [r4, #300]	@ zero_extendqisi2
 233 009e 012B     		cmp	r3, #1
 234 00a0 E6D1     		bne	.L13
 235              	.L27:
 236              		.loc 1 115 0
 237 00a2 FFF7FEFF 		bl	hw_stop_i2c
 238              	.LVL21:
 239              		.loc 1 116 0
 240 00a6 FFF7FEFF 		bl	app_uartcomm_start
 241              	.LVL22:
 242 00aa E1E7     		b	.L13
 243              	.L18:
 244              		.loc 1 97 0
 245 00ac FFF7FEFF 		bl	hw_stop_i2c
 246              	.LVL23:
 247              		.loc 1 98 0
 248 00b0 FFF7FEFF 		bl	app_ppm_start
 249              	.LVL24:
 250              		.loc 1 99 0
 251 00b4 FFF7FEFF 		bl	app_uartcomm_start
 252              	.LVL25:
 253              		.loc 1 100 0
 254 00b8 DAE7     		b	.L13
 255              	.L19:
 256              		.loc 1 103 0
 257 00ba FFF7FEFF 		bl	hw_stop_i2c
 258              	.LVL26:
 259              		.loc 1 104 0
 260 00be 0021     		movs	r1, #0
 261 00c0 0846     		mov	r0, r1
 262 00c2 FFF7FEFF 		bl	app_adc_start
 263              	.LVL27:
 264              		.loc 1 105 0
 265 00c6 FFF7FEFF 		bl	app_uartcomm_start
 266              	.LVL28:
 267              		.loc 1 106 0
 268 00ca D1E7     		b	.L13
 269              	.L20:
 270              		.loc 1 109 0
 271 00cc FFF7FEFF 		bl	app_nunchuk_start
 272              	.LVL29:
 273              		.loc 1 110 0
 274 00d0 CEE7     		b	.L13
 275              	.L21:
 276              		.loc 1 121 0
 277 00d2 3378     		ldrb	r3, [r6]	@ zero_extendqisi2
 278 00d4 002B     		cmp	r3, #0
 279 00d6 CBD1     		bne	.L13
 280              		.loc 1 122 0
 281 00d8 FFF7FEFF 		bl	nrf_driver_init
 282              	.LVL30:
 283              		.loc 1 123 0
 284 00dc FFF7FEFF 		bl	rfhelp_restart
 285              	.LVL31:
ARM GAS  /tmp/ccz6RJgL.s 			page 6


 286 00e0 C6E7     		b	.L13
 287              	.L22:
 288              		.loc 1 128 0
 289 00e2 0121     		movs	r1, #1
 290 00e4 0020     		movs	r0, #0
 291 00e6 FFF7FEFF 		bl	app_adc_start
 292              	.LVL32:
 293              		.loc 1 129 0
 294 00ea FFF7FEFF 		bl	app_uartcomm_start
 295              	.LVL33:
 296              		.loc 1 130 0
 297 00ee BFE7     		b	.L13
 298              	.L16:
 299              		.loc 1 88 0
 300 00f0 0021     		movs	r1, #0
 301 00f2 0120     		movs	r0, #1
 302 00f4 FFF7FEFF 		bl	app_adc_start
 303              	.LVL34:
 304              		.loc 1 89 0
 305 00f8 BAE7     		b	.L13
 306              	.L30:
 307 00fa 00BF     		.align	2
 308              	.L29:
 309 00fc 00000000 		.word	conf_general_permanent_nrf_found
 310 0100 00000000 		.word	.LANCHOR1
 311 0104 1C000000 		.word	.LANCHOR1+28
 312 0108 A8000000 		.word	.LANCHOR1+168
 313 010c D8000000 		.word	.LANCHOR1+216
 314              		.cfi_endproc
 315              	.LFE258:
 316              		.size	app_set_configuration, .-app_set_configuration
 317              		.section	.text.app_disable_output,"ax",%progbits
 318              		.align	1
 319              		.p2align 4,,15
 320              		.global	app_disable_output
 321              		.syntax unified
 322              		.thumb
 323              		.thumb_func
 324              		.fpu fpv4-sp-d16
 325              		.type	app_disable_output, %function
 326              	app_disable_output:
 327              	.LFB259:
 328              		.loc 1 156 0
 329              		.cfi_startproc
 330              		@ args = 0, pretend = 0, frame = 0
 331              		@ frame_needed = 0, uses_anonymous_args = 0
 332              	.LVL35:
 333              		.loc 1 157 0
 334 0000 194B     		ldr	r3, .L47
 335 0002 1A78     		ldrb	r2, [r3]	@ zero_extendqisi2
 336              		.loc 1 156 0
 337 0004 10B5     		push	{r4, lr}
 338              		.cfi_def_cfa_offset 8
 339              		.cfi_offset 4, -8
 340              		.cfi_offset 14, -4
 341              		.loc 1 157 0
 342 0006 1AB9     		cbnz	r2, .L32
ARM GAS  /tmp/ccz6RJgL.s 			page 7


 343              	.LVL36:
 344              	.LBB97:
 345              	.LBB98:
 346              		.file 2 "ChibiOS_3.0.2/os/rt/include/chvt.h"
 347              		.loc 2 212 0
 348 0008 184C     		ldr	r4, .L47+4
 349              	.LBE98:
 350              	.LBE97:
 351              		.loc 1 159 0
 352 000a 0121     		movs	r1, #1
 353              	.LBB100:
 354              	.LBB99:
 355              		.loc 2 212 0
 356 000c E260     		str	r2, [r4, #12]
 357              	.LBE99:
 358              	.LBE100:
 359              		.loc 1 159 0
 360 000e 1970     		strb	r1, [r3]
 361              	.LVL37:
 362              	.L32:
 363              		.loc 1 162 0
 364 0010 38B3     		cbz	r0, .L46
 365              		.loc 1 164 0
 366 0012 431C     		adds	r3, r0, #1
 367 0014 0AD1     		bne	.L35
 368              		.loc 1 165 0
 369 0016 164B     		ldr	r3, .L47+8
 370 0018 0122     		movs	r2, #1
 371 001a 1A70     		strb	r2, [r3]
 372              	.LVL38:
 373              	.LBB101:
 374              	.LBB102:
 375              	.LBB103:
 376              	.LBB104:
 377              	.LBB105:
 378              		.file 3 "ChibiOS_3.0.2/os/ext/CMSIS/include/core_cmFunc.h"
 379              		.loc 3 342 0
 380              		.syntax unified
 381              	@ 342 "ChibiOS_3.0.2/os/ext/CMSIS/include/core_cmFunc.h" 1
 382 001c 72B6     		cpsid i
 383              	@ 0 "" 2
 384              	.LVL39:
 385              		.thumb
 386              		.syntax unified
 387              	.LBE105:
 388              	.LBE104:
 389              	.LBE103:
 390              	.LBE102:
 391              	.LBB106:
 392              	.LBB107:
 393              		.loc 2 376 0
 394 001e 1348     		ldr	r0, .L47+4
 395              	.LVL40:
 396 0020 C368     		ldr	r3, [r0, #12]
 397 0022 0BB1     		cbz	r3, .L45
 398              		.loc 2 377 0
 399 0024 FFF7FEFF 		bl	chVTDoResetI
ARM GAS  /tmp/ccz6RJgL.s 			page 8


 400              	.LVL41:
 401              	.L45:
 402              	.LBE107:
 403              	.LBE106:
 404              	.LBE101:
 405              	.LBB108:
 406              	.LBB109:
 407              	.LBB110:
 408              	.LBB111:
 409              	.LBB112:
 410              	.LBB113:
 411              		.loc 3 331 0
 412              		.syntax unified
 413              	@ 331 "ChibiOS_3.0.2/os/ext/CMSIS/include/core_cmFunc.h" 1
 414 0028 62B6     		cpsie i
 415              	@ 0 "" 2
 416              	.LVL42:
 417              		.thumb
 418              		.syntax unified
 419              	.L31:
 420              	.LBE113:
 421              	.LBE112:
 422              	.LBE111:
 423              	.LBE110:
 424              	.LBE109:
 425              	.LBE108:
 426              		.loc 1 171 0
 427 002a 10BD     		pop	{r4, pc}
 428              	.LVL43:
 429              	.L35:
 430              		.loc 1 169 0
 431 002c 42F21074 		movw	r4, #10000
 432 0030 04FB00F0 		mul	r0, r4, r0
 433              	.LVL44:
 434 0034 0F49     		ldr	r1, .L47+12
 435              		.loc 1 168 0
 436 0036 0E4B     		ldr	r3, .L47+8
 437              	.LVL45:
 438              		.loc 1 169 0
 439 0038 00F2E734 		addw	r4, r0, #999
 440 003c A1FB0424 		umull	r2, r4, r1, r4
 441              		.loc 1 168 0
 442 0040 0122     		movs	r2, #1
 443              		.loc 1 169 0
 444 0042 A409     		lsrs	r4, r4, #6
 445              	.LVL46:
 446              		.loc 1 168 0
 447 0044 1A70     		strb	r2, [r3]
 448              	.LBB127:
 449              	.LBB118:
 450              	.LBB119:
 451              	.LBB120:
 452              	.LBB121:
 453              		.loc 3 342 0
 454              		.syntax unified
 455              	@ 342 "ChibiOS_3.0.2/os/ext/CMSIS/include/core_cmFunc.h" 1
 456 0046 72B6     		cpsid i
ARM GAS  /tmp/ccz6RJgL.s 			page 9


 457              	@ 0 "" 2
 458              	.LVL47:
 459              		.thumb
 460              		.syntax unified
 461              	.LBE121:
 462              	.LBE120:
 463              	.LBE119:
 464              	.LBE118:
 465              	.LBB122:
 466              	.LBB123:
 467              	.LBB124:
 468              	.LBB125:
 469              		.loc 2 376 0
 470 0048 0848     		ldr	r0, .L47+4
 471 004a C368     		ldr	r3, [r0, #12]
 472 004c 0BB1     		cbz	r3, .L37
 473              		.loc 2 377 0
 474 004e FFF7FEFF 		bl	chVTDoResetI
 475              	.LVL48:
 476              	.L37:
 477              	.LBE125:
 478              	.LBE124:
 479              		.loc 2 424 0
 480 0052 2146     		mov	r1, r4
 481 0054 0023     		movs	r3, #0
 482 0056 084A     		ldr	r2, .L47+16
 483 0058 0448     		ldr	r0, .L47+4
 484 005a FFF7FEFF 		bl	chVTDoSetI
 485              	.LVL49:
 486              	.LBE123:
 487              	.LBE122:
 488              	.LBB126:
 489              	.LBB117:
 490              	.LBB116:
 491              	.LBB115:
 492              	.LBB114:
 493              		.loc 3 331 0
 494              		.syntax unified
 495              	@ 331 "ChibiOS_3.0.2/os/ext/CMSIS/include/core_cmFunc.h" 1
 496 005e 62B6     		cpsie i
 497              	@ 0 "" 2
 498              		.thumb
 499              		.syntax unified
 500 0060 E3E7     		b	.L31
 501              	.LVL50:
 502              	.L46:
 503              	.LBE114:
 504              	.LBE115:
 505              	.LBE116:
 506              	.LBE117:
 507              	.LBE126:
 508              	.LBE127:
 509              		.loc 1 163 0
 510 0062 034B     		ldr	r3, .L47+8
 511 0064 1870     		strb	r0, [r3]
 512              		.loc 1 171 0
 513 0066 10BD     		pop	{r4, pc}
ARM GAS  /tmp/ccz6RJgL.s 			page 10


 514              	.L48:
 515              		.align	2
 516              	.L47:
 517 0068 00000000 		.word	.LANCHOR3
 518 006c 00000000 		.word	.LANCHOR4
 519 0070 00000000 		.word	.LANCHOR0
 520 0074 D34D6210 		.word	274877907
 521 0078 00000000 		.word	output_vt_cb
 522              		.cfi_endproc
 523              	.LFE259:
 524              		.size	app_disable_output, .-app_disable_output
 525              		.section	.text.app_is_output_disabled,"ax",%progbits
 526              		.align	1
 527              		.p2align 4,,15
 528              		.global	app_is_output_disabled
 529              		.syntax unified
 530              		.thumb
 531              		.thumb_func
 532              		.fpu fpv4-sp-d16
 533              		.type	app_is_output_disabled, %function
 534              	app_is_output_disabled:
 535              	.LFB260:
 536              		.loc 1 173 0
 537              		.cfi_startproc
 538              		@ args = 0, pretend = 0, frame = 0
 539              		@ frame_needed = 0, uses_anonymous_args = 0
 540              		@ link register save eliminated.
 541              		.loc 1 174 0
 542 0000 014B     		ldr	r3, .L50
 543 0002 1878     		ldrb	r0, [r3]	@ zero_extendqisi2
 544              		.loc 1 175 0
 545 0004 7047     		bx	lr
 546              	.L51:
 547 0006 00BF     		.align	2
 548              	.L50:
 549 0008 00000000 		.word	.LANCHOR0
 550              		.cfi_endproc
 551              	.LFE260:
 552              		.size	app_is_output_disabled, .-app_is_output_disabled
 553              		.section	.bss.appconf,"aw",%nobits
 554              		.align	2
 555              		.set	.LANCHOR1,. + 0
 556              		.type	appconf, %object
 557              		.size	appconf, 376
 558              	appconf:
 559 0000 00000000 		.space	376
 559      00000000 
 559      00000000 
 559      00000000 
 559      00000000 
 560              		.section	.bss.customconf,"aw",%nobits
 561              		.align	2
 562              		.set	.LANCHOR2,. + 0
 563              		.type	customconf, %object
 564              		.size	customconf, 4
 565              	customconf:
 566 0000 00000000 		.space	4
ARM GAS  /tmp/ccz6RJgL.s 			page 11


 567              		.section	.bss.output_disabled_now,"aw",%nobits
 568              		.set	.LANCHOR0,. + 0
 569              		.type	output_disabled_now, %object
 570              		.size	output_disabled_now, 1
 571              	output_disabled_now:
 572 0000 00       		.space	1
 573              		.section	.bss.output_vt,"aw",%nobits
 574              		.align	2
 575              		.set	.LANCHOR4,. + 0
 576              		.type	output_vt, %object
 577              		.size	output_vt, 20
 578              	output_vt:
 579 0000 00000000 		.space	20
 579      00000000 
 579      00000000 
 579      00000000 
 579      00000000 
 580              		.section	.bss.output_vt_init_done,"aw",%nobits
 581              		.set	.LANCHOR3,. + 0
 582              		.type	output_vt_init_done, %object
 583              		.size	output_vt_init_done, 1
 584              	output_vt_init_done:
 585 0000 00       		.space	1
 586              		.text
 587              	.Letext0:
 588              		.file 4 "/usr/arm-none-eabi/include/machine/_default_types.h"
 589              		.file 5 "/usr/arm-none-eabi/include/sys/_stdint.h"
 590              		.file 6 "/usr/lib/gcc/arm-none-eabi/7.3.1/include/stddef.h"
 591              		.file 7 "ChibiOS_3.0.2/os/rt/ports/ARMCMx/compilers/GCC/chtypes.h"
 592              		.file 8 "ChibiOS_3.0.2/os/rt/include/chsystypes.h"
 593              		.file 9 "ChibiOS_3.0.2/os/rt/include/chschd.h"
 594              		.file 10 "ChibiOS_3.0.2/os/ext/CMSIS/include/core_cm4.h"
 595              		.file 11 "ChibiOS_3.0.2/os/ext/CMSIS/ST/system_stm32f4xx.h"
 596              		.file 12 "ChibiOS_3.0.2/os/ext/CMSIS/ST/stm32f407xx.h"
 597              		.file 13 "ChibiOS_3.0.2/os/rt/ports/ARMCMx/chcore.h"
 598              		.file 14 "ChibiOS_3.0.2/os/rt/ports/ARMCMx/chcore_v7m.h"
 599              		.file 15 "ChibiOS_3.0.2/os/rt/include/chtm.h"
 600              		.file 16 "ChibiOS_3.0.2/os/rt/include/chsem.h"
 601              		.file 17 "ChibiOS_3.0.2/os/rt/include/chmtx.h"
 602              		.file 18 "ChibiOS_3.0.2/os/rt/include/chregistry.h"
 603              		.file 19 "ChibiOS_3.0.2/os/rt/include/chevents.h"
 604              		.file 20 "ChibiOS_3.0.2/os/rt/include/chqueues.h"
 605              		.file 21 "./datatypes.h"
 606              		.file 22 "./conf_general.h"
 607              		.file 23 "ChibiOS_3.0.2/os/hal/ports/STM32/STM32F4xx/stm32_dma.h"
 608              		.file 24 "ChibiOS_3.0.2/os/hal/ports/STM32/LLD/GPIOv2/pal_lld.h"
 609              		.file 25 "ChibiOS_3.0.2/os/hal/include/can.h"
 610              		.file 26 "ChibiOS_3.0.2/os/hal/ports/STM32/LLD/can_lld.h"
 611              		.file 27 "ChibiOS_3.0.2/os/hal/include/i2c.h"
 612              		.file 28 "ChibiOS_3.0.2/os/hal/ports/STM32/LLD/I2Cv1/i2c_lld.h"
 613              		.file 29 "ChibiOS_3.0.2/os/hal/include/icu.h"
 614              		.file 30 "ChibiOS_3.0.2/os/hal/ports/STM32/LLD/TIMv1/icu_lld.h"
 615              		.file 31 "ChibiOS_3.0.2/os/hal/ports/STM32/LLD/TIMv1/stm32_tim.h"
 616              		.file 32 "ChibiOS_3.0.2/os/hal/include/serial.h"
 617              		.file 33 "ChibiOS_3.0.2/os/hal/ports/STM32/LLD/USARTv1/serial_lld.h"
 618              		.file 34 "ChibiOS_3.0.2/os/hal/include/spi.h"
 619              		.file 35 "ChibiOS_3.0.2/os/hal/ports/STM32/LLD/SPIv1/spi_lld.h"
ARM GAS  /tmp/ccz6RJgL.s 			page 12


 620              		.file 36 "ChibiOS_3.0.2/os/hal/include/usb.h"
 621              		.file 37 "ChibiOS_3.0.2/os/hal/ports/STM32/LLD/OTGv1/usb_lld.h"
 622              		.file 38 "ChibiOS_3.0.2/os/hal/ports/STM32/LLD/OTGv1/stm32_otg.h"
 623              		.file 39 "ChibiOS_3.0.2/os/rt/include/chsys.h"
 624              		.file 40 "applications/app.h"
 625              		.file 41 "./comm_can.h"
 626              		.file 42 "imu/imu.h"
 627              		.file 43 "nrf/rfhelp.h"
 628              		.file 44 "nrf/nrf_driver.h"
 629              		.file 45 "hwconf/hw.h"
 630              		.file 46 "<built-in>"