ARM GAS  /tmp/ccxadqkm.s 			page 1


   1              		.cpu cortex-m4
   2              		.eabi_attribute 27, 1
   3              		.eabi_attribute 28, 1
   4              		.eabi_attribute 20, 1
   5              		.eabi_attribute 21, 1
   6              		.eabi_attribute 23, 3
   7              		.eabi_attribute 24, 1
   8              		.eabi_attribute 25, 1
   9              		.eabi_attribute 26, 1
  10              		.eabi_attribute 30, 2
  11              		.eabi_attribute 34, 1
  12              		.eabi_attribute 18, 4
  13              		.file	"app_adc.c"
  14              		.text
  15              	.Ltext0:
  16              		.cfi_sections	.debug_frame
  17              		.section	.text.adc_thread,"ax",%progbits
  18              		.align	1
  19              		.p2align 4,,15
  20              		.syntax unified
  21              		.thumb
  22              		.thumb_func
  23              		.fpu fpv4-sp-d16
  24              		.type	adc_thread, %function
  25              	adc_thread:
  26              	.LFB263:
  27              		.file 1 "applications/app_adc.c"
  28              		.loc 1 146 0
  29              		.cfi_startproc
  30              		@ args = 0, pretend = 0, frame = 16
  31              		@ frame_needed = 0, uses_anonymous_args = 0
  32              	.LVL0:
  33 0000 2DE9F04F 		push	{r4, r5, r6, r7, r8, r9, r10, fp, lr}
  34              		.cfi_def_cfa_offset 36
  35              		.cfi_offset 4, -36
  36              		.cfi_offset 5, -32
  37              		.cfi_offset 6, -28
  38              		.cfi_offset 7, -24
  39              		.cfi_offset 8, -20
  40              		.cfi_offset 9, -16
  41              		.cfi_offset 10, -12
  42              		.cfi_offset 11, -8
  43              		.cfi_offset 14, -4
  44              	.LBB65:
  45              	.LBB66:
  46              		.file 2 "ChibiOS_3.0.2/os/rt/include/chregistry.h"
  47              		.loc 2 135 0
  48 0004 D84B     		ldr	r3, .L381
  49 0006 D949     		ldr	r1, .L381+4
  50 0008 9A69     		ldr	r2, [r3, #24]
  51              	.LBE66:
  52              	.LBE65:
  53              		.loc 1 153 0
  54 000a D94B     		ldr	r3, .L381+8
  55              		.loc 1 146 0
  56 000c 2DED088B 		vpush.64	{d8, d9, d10, d11}
  57              		.cfi_def_cfa_offset 68
ARM GAS  /tmp/ccxadqkm.s 			page 2


  58              		.cfi_offset 80, -68
  59              		.cfi_offset 81, -64
  60              		.cfi_offset 82, -60
  61              		.cfi_offset 83, -56
  62              		.cfi_offset 84, -52
  63              		.cfi_offset 85, -48
  64              		.cfi_offset 86, -44
  65              		.cfi_offset 87, -40
  66              		.loc 1 153 0
  67 0010 1B78     		ldrb	r3, [r3]	@ zero_extendqisi2
  68              	.LBB68:
  69              	.LBB67:
  70              		.loc 2 135 0
  71 0012 9161     		str	r1, [r2, #24]
  72              	.LVL1:
  73              	.LBE67:
  74              	.LBE68:
  75              		.loc 1 146 0
  76 0014 85B0     		sub	sp, sp, #20
  77              		.cfi_def_cfa_offset 88
  78              		.loc 1 153 0
  79 0016 002B     		cmp	r3, #0
  80 0018 40F0CA87 		bne	.L354
  81              	.LVL2:
  82              	.L2:
  83              		.loc 1 161 0
  84 001c D54A     		ldr	r2, .L381+12
  85 001e DFF8AC93 		ldr	r9, .L381+100
  86              	.LBB69:
  87              		.loc 1 180 0
  88 0022 9FEDD58A 		vldr.32	s16, .L381+16
  89              		.loc 1 192 0
  90 0026 9FEDD59A 		vldr.32	s18, .L381+20
  91              	.LBB70:
  92              	.LBB71:
  93              	.LBB72:
  94              		.loc 1 878 0
  95 002a DFEDD59A 		vldr.32	s19, .L381+24
  96 002e 9FEDD5AA 		vldr.32	s20, .L381+28
  97              	.LBE72:
  98              	.LBE71:
  99              	.LBE70:
 100              	.LBE69:
 101              		.loc 1 161 0
 102 0032 0123     		movs	r3, #1
 103 0034 1370     		strb	r3, [r2]
 104              	.L3:
 105              	.LBB168:
 106              		.loc 1 165 0
 107 0036 D9F84030 		ldr	r3, [r9, #64]
 108 003a 42F21074 		movw	r4, #10000
 109 003e B4FBF3F4 		udiv	r4, r4, r3
 110              	.LVL3:
 111              		.loc 1 169 0
 112 0042 002C     		cmp	r4, #0
 113 0044 08BF     		it	eq
 114 0046 0124     		moveq	r4, #1
ARM GAS  /tmp/ccxadqkm.s 			page 3


 115              	.LVL4:
 116              		.loc 1 171 0
 117 0048 2046     		mov	r0, r4
 118 004a FFF7FEFF 		bl	chThdSleep
 119              	.LVL5:
 120              		.loc 1 173 0
 121 004e CE4B     		ldr	r3, .L381+32
 122 0050 1B78     		ldrb	r3, [r3]	@ zero_extendqisi2
 123 0052 002B     		cmp	r3, #0
 124 0054 40F01B86 		bne	.L355
 125              		.loc 1 179 0
 126 0058 FFF7FEFF 		bl	mc_interface_get_fault
 127              	.LVL6:
 128              		.loc 1 180 0
 129 005c CB4E     		ldr	r6, .L381+36
 130              		.loc 1 179 0
 131 005e 08B1     		cbz	r0, .L6
 132              		.loc 1 180 0
 133 0060 86ED008A 		vstr.32	s16, [r6]
 134              	.L6:
 135              		.loc 1 185 0
 136 0064 DFF86883 		ldr	r8, .L381+104
 137              		.loc 1 184 0
 138 0068 8DED028A 		vstr.32	s16, [sp, #8]
 139              		.loc 1 185 0
 140 006c 98F80030 		ldrb	r3, [r8]	@ zero_extendqisi2
 141 0070 002B     		cmp	r3, #0
 142 0072 40F08D84 		bne	.L356
 143              		.loc 1 189 0
 144 0076 C64B     		ldr	r3, .L381+40
 145 0078 9B89     		ldrh	r3, [r3, #12]
 146 007a 00EE103A 		vmov	s0, r3	@ int
 147 007e B8EE400A 		vcvt.f32.u32	s0, s0
 148              	.L8:
 149              		.loc 1 192 0
 150 0082 60EE097A 		vmul.f32	s15, s0, s18
 151              		.loc 1 194 0
 152 0086 9FEDC30A 		vldr.32	s0, .L381+44
 153              		.loc 1 196 0
 154 008a C34B     		ldr	r3, .L381+48
 155              		.loc 1 199 0
 156 008c 9FEDC37A 		vldr.32	s14, .L381+52
 157              		.loc 1 194 0
 158 0090 27EE800A 		vmul.f32	s0, s15, s0
 159              		.loc 1 196 0
 160 0094 83ED000A 		vstr.32	s0, [r3]
 161              		.loc 1 199 0
 162 0098 D6ED007A 		vldr.32	s15, [r6]
 163              		.loc 1 194 0
 164 009c 8DED020A 		vstr.32	s0, [sp, #8]
 165              		.loc 1 199 0
 166 00a0 F4EEC77A 		vcmpe.f32	s15, s14
 167 00a4 F1EE10FA 		vmrs	APSR_nzcv, FPSCR
 168 00a8 0DD4     		bmi	.L9
 169              		.loc 1 201 0
 170 00aa D9F80830 		ldr	r3, [r9, #8]	@ float
 171              		.loc 1 205 0
ARM GAS  /tmp/ccxadqkm.s 			page 4


 172 00ae DFEDBC7A 		vldr.32	s15, .L381+56
 173 00b2 99ED037A 		vldr.32	s14, [r9, #12]
 174 00b6 77EE277A 		vadd.f32	s15, s14, s15
 175 00ba B4EEE70A 		vcmpe.f32	s0, s15
 176 00be F1EE10FA 		vmrs	APSR_nzcv, FPSCR
 177 00c2 00F30186 		bgt	.L357
 178              	.L9:
 179              		.loc 1 212 0
 180 00c6 99F81C30 		ldrb	r3, [r9, #28]	@ zero_extendqisi2
 181 00ca 3BB3     		cbz	r3, .L11
 182              	.LBB84:
 183              		.loc 1 216 0
 184 00cc B549     		ldr	r1, .L381+60
 185 00ce B64B     		ldr	r3, .L381+64
 186 00d0 0A68     		ldr	r2, [r1]
 187 00d2 501C     		adds	r0, r2, #1
 188 00d4 03EB8202 		add	r2, r3, r2, lsl #2
 189 00d8 82ED000A 		vstr.32	s0, [r2]
 190              	.LBB85:
 191              		.loc 1 223 0
 192 00dc D3ED007A 		vldr.32	s15, [r3]
 193 00e0 D3ED015A 		vldr.32	s11, [r3, #4]
 194 00e4 93ED026A 		vldr.32	s12, [r3, #8]
 195 00e8 D3ED036A 		vldr.32	s13, [r3, #12]
 196 00ec 93ED047A 		vldr.32	s14, [r3, #16]
 197              	.LBE85:
 198              		.loc 1 216 0
 199 00f0 0860     		str	r0, [r1]
 200              	.LBB86:
 201              		.loc 1 223 0
 202 00f2 77EE887A 		vadd.f32	s15, s15, s16
 203              	.LBE86:
 204              		.loc 1 225 0
 205 00f6 B1EE045A 		vmov.f32	s10, #5.0e+0
 206              	.LBB87:
 207              		.loc 1 223 0
 208 00fa 77EEA57A 		vadd.f32	s15, s15, s11
 209              	.LBE87:
 210              		.loc 1 217 0
 211 00fe 0428     		cmp	r0, #4
 212              	.LBB88:
 213              		.loc 1 223 0
 214 0100 77EE867A 		vadd.f32	s15, s15, s12
 215              	.LBE88:
 216              		.loc 1 218 0
 217 0104 C8BF     		it	gt
 218 0106 0022     		movgt	r2, #0
 219              	.LBB89:
 220              		.loc 1 223 0
 221 0108 77EEA67A 		vadd.f32	s15, s15, s13
 222              	.LBE89:
 223              		.loc 1 218 0
 224 010c C8BF     		it	gt
 225 010e 0A60     		strgt	r2, [r1]
 226              	.LVL7:
 227              	.LBB90:
 228              		.loc 1 223 0
ARM GAS  /tmp/ccxadqkm.s 			page 5


 229 0110 77EE877A 		vadd.f32	s15, s15, s14
 230              	.LBE90:
 231              		.loc 1 225 0
 232 0114 87EE850A 		vdiv.f32	s0, s15, s10
 233 0118 8DED020A 		vstr.32	s0, [sp, #8]
 234              	.LVL8:
 235              	.L11:
 236              	.LBE84:
 237              		.loc 1 229 0
 238 011c 99F80030 		ldrb	r3, [r9]	@ zero_extendqisi2
 239 0120 DBB2     		uxtb	r3, r3
 240 0122 0D2B     		cmp	r3, #13
 241 0124 00F25383 		bhi	.L13
 242 0128 0122     		movs	r2, #1
 243 012a 02FA03F3 		lsl	r3, r2, r3
 244 012e 42F26442 		movw	r2, #9316
 245 0132 1342     		tst	r3, r2
 246 0134 00F04B83 		beq	.L13
 247              		.loc 1 236 0
 248 0138 D9ED047A 		vldr.32	s15, [r9, #16]
 249 013c F4EEC07A 		vcmpe.f32	s15, s0
 250 0140 F1EE10FA 		vmrs	APSR_nzcv, FPSCR
 251 0144 40F3DC85 		ble	.L333
 252              		.loc 1 237 0
 253 0148 D9ED020A 		vldr.32	s1, [r9, #8]
 254 014c 99ED041A 		vldr.32	s2, [r9, #16]
 255 0150 B6EE002A 		vmov.f32	s4, #5.0e-1
 256 0154 F0EE481A 		vmov.f32	s3, s16
 257 0158 FFF7FEFF 		bl	utils_map
 258              	.LVL9:
 259 015c 8DED020A 		vstr.32	s0, [sp, #8]
 260              	.L16:
 261              		.loc 1 253 0
 262 0160 02A8     		add	r0, sp, #8
 263 0162 F7EE000A 		vmov.f32	s1, #1.0e+0
 264 0166 B0EE480A 		vmov.f32	s0, s16
 265 016a FFF7FEFF 		bl	utils_truncate_number
 266              	.LVL10:
 267              		.loc 1 256 0
 268 016e 99F82030 		ldrb	r3, [r9, #32]	@ zero_extendqisi2
 269 0172 3BB1     		cbz	r3, .L17
 270              		.loc 1 257 0
 271 0174 DDED027A 		vldr.32	s15, [sp, #8]
 272 0178 B7EE007A 		vmov.f32	s14, #1.0e+0
 273 017c 77EE677A 		vsub.f32	s15, s14, s15
 274 0180 CDED027A 		vstr.32	s15, [sp, #8]
 275              	.L17:
 276              		.loc 1 261 0
 277 0184 FFF7FEFF 		bl	mc_interface_get_speed
 278              	.LVL11:
 279 0188 DFED888A 		vldr.32	s17, .L381+68
 280 018c 60EE28AA 		vmul.f32	s21, s0, s17
 281              	.LVL12:
 282              		.loc 1 262 0
 283 0190 FFF7FEFF 		bl	mc_interface_get_v_max_actual
 284              	.LVL13:
 285 0194 60EE288A 		vmul.f32	s17, s0, s17
ARM GAS  /tmp/ccxadqkm.s 			page 6


 286              	.LVL14:
 287              		.loc 1 266 0
 288 0198 F7EE001A 		vmov.f32	s3, #1.0e+0
 289 019c 78EEA10A 		vadd.f32	s1, s17, s3
 290 01a0 F4EEEA0A 		vcmpe.f32	s1, s21
 291 01a4 F1EE10FA 		vmrs	APSR_nzcv, FPSCR
 292 01a8 0BDC     		bgt	.L18
 293              		.loc 1 268 0
 294 01aa B1EE001A 		vmov.f32	s2, #4.0e+0
 295 01ae 38EE811A 		vadd.f32	s2, s17, s2
 296 01b2 B4EEEA1A 		vcmpe.f32	s2, s21
 297 01b6 F1EE10FA 		vmrs	APSR_nzcv, FPSCR
 298 01ba 40F19785 		bpl	.L358
 299              		.loc 1 269 0
 300 01be F0EE481A 		vmov.f32	s3, s16
 301              	.LVL15:
 302              	.L18:
 303              		.loc 1 274 0
 304 01c2 DDED027A 		vldr.32	s15, [sp, #8]
 305              		.loc 1 277 0
 306 01c6 9FED6C0A 		vldr.32	s0, .L381+16
 307              		.loc 1 274 0
 308 01ca 67EEA11A 		vmul.f32	s3, s15, s3
 309              	.LVL16:
 310              		.loc 1 277 0
 311 01ce F7EE000A 		vmov.f32	s1, #1.0e+0
 312 01d2 02A8     		add	r0, sp, #8
 313              		.loc 1 274 0
 314 01d4 CDED021A 		vstr.32	s3, [sp, #8]
 315              		.loc 1 277 0
 316 01d8 FFF7FEFF 		bl	utils_truncate_number
 317              	.LVL17:
 318              		.loc 1 279 0
 319 01dc 744B     		ldr	r3, .L381+72
 320 01de 029A     		ldr	r2, [sp, #8]	@ float
 321 01e0 1A60     		str	r2, [r3]	@ float
 322              		.loc 1 284 0
 323 01e2 98F80030 		ldrb	r3, [r8]	@ zero_extendqisi2
 324              		.loc 1 283 0
 325 01e6 8DED038A 		vstr.32	s16, [sp, #12]
 326              		.loc 1 284 0
 327 01ea 002B     		cmp	r3, #0
 328 01ec 40F0D883 		bne	.L359
 329              		.loc 1 288 0
 330 01f0 674B     		ldr	r3, .L381+40
 331 01f2 DB89     		ldrh	r3, [r3, #14]
 332 01f4 00EE103A 		vmov	s0, r3	@ int
 333 01f8 B8EE400A 		vcvt.f32.u32	s0, s0
 334              	.L20:
 335              		.loc 1 291 0
 336 01fc 60EE097A 		vmul.f32	s15, s0, s18
 337              		.loc 1 293 0
 338 0200 9FED640A 		vldr.32	s0, .L381+44
 339              		.loc 1 299 0
 340 0204 6B4B     		ldr	r3, .L381+76
 341              		.loc 1 302 0
 342 0206 9FED657A 		vldr.32	s14, .L381+52
ARM GAS  /tmp/ccxadqkm.s 			page 7


 343              		.loc 1 293 0
 344 020a 27EE800A 		vmul.f32	s0, s15, s0
 345              		.loc 1 299 0
 346 020e 83ED000A 		vstr.32	s0, [r3]
 347              		.loc 1 302 0
 348 0212 D6ED007A 		vldr.32	s15, [r6]
 349              		.loc 1 293 0
 350 0216 8DED030A 		vstr.32	s0, [sp, #12]
 351              		.loc 1 302 0
 352 021a F4EEC77A 		vcmpe.f32	s15, s14
 353 021e F1EE10FA 		vmrs	APSR_nzcv, FPSCR
 354 0222 0DD4     		bmi	.L21
 355              		.loc 1 304 0
 356 0224 D9F81430 		ldr	r3, [r9, #20]	@ float
 357              		.loc 1 308 0
 358 0228 DFED5D7A 		vldr.32	s15, .L381+56
 359 022c 99ED067A 		vldr.32	s14, [r9, #24]
 360 0230 77EE277A 		vadd.f32	s15, s14, s15
 361 0234 B4EEE70A 		vcmpe.f32	s0, s15
 362 0238 F1EE10FA 		vmrs	APSR_nzcv, FPSCR
 363 023c 00F34D85 		bgt	.L360
 364              	.L21:
 365              		.loc 1 314 0
 366 0240 99F81C30 		ldrb	r3, [r9, #28]	@ zero_extendqisi2
 367 0244 3BB3     		cbz	r3, .L23
 368              	.LBB91:
 369              		.loc 1 318 0
 370 0246 5C49     		ldr	r1, .L381+80
 371 0248 5C4B     		ldr	r3, .L381+84
 372 024a 0A68     		ldr	r2, [r1]
 373 024c 501C     		adds	r0, r2, #1
 374 024e 03EB8202 		add	r2, r3, r2, lsl #2
 375 0252 82ED000A 		vstr.32	s0, [r2]
 376              	.LBB92:
 377              		.loc 1 325 0
 378 0256 D3ED007A 		vldr.32	s15, [r3]
 379 025a D3ED015A 		vldr.32	s11, [r3, #4]
 380 025e 93ED026A 		vldr.32	s12, [r3, #8]
 381 0262 D3ED036A 		vldr.32	s13, [r3, #12]
 382 0266 93ED047A 		vldr.32	s14, [r3, #16]
 383              	.LBE92:
 384              		.loc 1 318 0
 385 026a 0860     		str	r0, [r1]
 386              	.LBB93:
 387              		.loc 1 325 0
 388 026c 77EE887A 		vadd.f32	s15, s15, s16
 389              	.LBE93:
 390              		.loc 1 327 0
 391 0270 B1EE045A 		vmov.f32	s10, #5.0e+0
 392              	.LBB94:
 393              		.loc 1 325 0
 394 0274 77EEA57A 		vadd.f32	s15, s15, s11
 395              	.LBE94:
 396              		.loc 1 319 0
 397 0278 0428     		cmp	r0, #4
 398              	.LBB95:
 399              		.loc 1 325 0
ARM GAS  /tmp/ccxadqkm.s 			page 8


 400 027a 77EE867A 		vadd.f32	s15, s15, s12
 401              	.LBE95:
 402              		.loc 1 320 0
 403 027e C8BF     		it	gt
 404 0280 0022     		movgt	r2, #0
 405              	.LBB96:
 406              		.loc 1 325 0
 407 0282 77EEA67A 		vadd.f32	s15, s15, s13
 408              	.LBE96:
 409              		.loc 1 320 0
 410 0286 C8BF     		it	gt
 411 0288 0A60     		strgt	r2, [r1]
 412              	.LVL18:
 413              	.LBB97:
 414              		.loc 1 325 0
 415 028a 77EE877A 		vadd.f32	s15, s15, s14
 416              	.LBE97:
 417              		.loc 1 327 0
 418 028e 87EE850A 		vdiv.f32	s0, s15, s10
 419 0292 8DED030A 		vstr.32	s0, [sp, #12]
 420              	.LVL19:
 421              	.L23:
 422              	.LBE91:
 423              		.loc 1 331 0
 424 0296 D9ED050A 		vldr.32	s1, [r9, #20]
 425 029a 99ED061A 		vldr.32	s2, [r9, #24]
 426 029e B7EE002A 		vmov.f32	s4, #1.0e+0
 427 02a2 F0EE481A 		vmov.f32	s3, s16
 428 02a6 FFF7FEFF 		bl	utils_map
 429              	.LVL20:
 430 02aa 0DF1100B 		add	fp, sp, #16
 431 02ae 2BED010A 		vstmdb.32	fp!, {s0}
 432              		.loc 1 332 0
 433 02b2 5846     		mov	r0, fp
 434 02b4 F7EE000A 		vmov.f32	s1, #1.0e+0
 435 02b8 B0EE480A 		vmov.f32	s0, s16
 436 02bc FFF7FEFF 		bl	utils_truncate_number
 437              	.LVL21:
 438              		.loc 1 335 0
 439 02c0 99F82130 		ldrb	r3, [r9, #33]	@ zero_extendqisi2
 440 02c4 3BB1     		cbz	r3, .L25
 441              		.loc 1 336 0
 442 02c6 DDED037A 		vldr.32	s15, [sp, #12]
 443 02ca B7EE007A 		vmov.f32	s14, #1.0e+0
 444 02ce 77EE677A 		vsub.f32	s15, s14, s15
 445 02d2 CDED037A 		vstr.32	s15, [sp, #12]
 446              	.L25:
 447              	.LVL22:
 448              		.loc 1 341 0
 449 02d6 F1EE000A 		vmov.f32	s1, #4.0e+0
 450 02da 78EEA00A 		vadd.f32	s1, s17, s1
 451 02de F4EEEA0A 		vcmpe.f32	s1, s21
 452 02e2 F1EE10FA 		vmrs	APSR_nzcv, FPSCR
 453 02e6 00F39482 		bgt	.L184
 454              		.loc 1 343 0
 455 02ea B1EE081A 		vmov.f32	s2, #6.0e+0
 456 02ee 38EE811A 		vadd.f32	s2, s17, s2
ARM GAS  /tmp/ccxadqkm.s 			page 9


 457              		.loc 1 344 0
 458 02f2 334B     		ldr	r3, .L381+88
 459              		.loc 1 343 0
 460 02f4 B4EEEA1A 		vcmpe.f32	s2, s21
 461 02f8 F1EE10FA 		vmrs	APSR_nzcv, FPSCR
 462 02fc 40F1DA84 		bpl	.L334
 463              		.loc 1 344 0
 464 0300 93ED100A 		vldr.32	s0, [r3, #64]
 465              	.LVL23:
 466              	.L26:
 467              		.loc 1 349 0
 468 0304 DDED037A 		vldr.32	s15, [sp, #12]
 469 0308 77EE807A 		vadd.f32	s15, s15, s0
 470              		.loc 1 352 0
 471 030c F7EE000A 		vmov.f32	s1, #1.0e+0
 472 0310 B0EE480A 		vmov.f32	s0, s16
 473              	.LVL24:
 474 0314 5846     		mov	r0, fp
 475              		.loc 1 349 0
 476 0316 CDED037A 		vstr.32	s15, [sp, #12]
 477              		.loc 1 352 0
 478 031a FFF7FEFF 		bl	utils_truncate_number
 479              	.LVL25:
 480              		.loc 1 354 0
 481 031e 294B     		ldr	r3, .L381+92
 482 0320 039A     		ldr	r2, [sp, #12]	@ float
 483 0322 1A60     		str	r2, [r3]	@ float
 484              	.LVL26:
 485              		.loc 1 359 0
 486 0324 FFF7FEFF 		bl	mc_interface_get_rpm
 487              	.LVL27:
 488              		.loc 1 360 0
 489 0328 114B     		ldr	r3, .L381+8
 490 032a 1B78     		ldrb	r3, [r3]	@ zero_extendqisi2
 491              		.loc 1 359 0
 492 032c F0EE408A 		vmov.f32	s17, s0
 493              	.LVL28:
 494              		.loc 1 360 0
 495 0330 03F0FF02 		and	r2, r3, #255
 496 0334 002B     		cmp	r3, #0
 497 0336 00F06F82 		beq	.L29
 498              		.loc 1 361 0
 499 033a 234B     		ldr	r3, .L381+96
 500 033c 1F69     		ldr	r7, [r3, #16]
 501              		.loc 1 362 0
 502 033e 99F81E30 		ldrb	r3, [r9, #30]	@ zero_extendqisi2
 503              		.loc 1 361 0
 504 0342 BF0A     		lsrs	r7, r7, #10
 505              	.LVL29:
 506              		.loc 1 362 0
 507 0344 03B9     		cbnz	r3, .L345
 508 0346 FF43     		mvns	r7, r7
 509              	.LVL30:
 510              	.L345:
 511              		.loc 1 365 0
 512 0348 1F4B     		ldr	r3, .L381+96
 513 034a 1D69     		ldr	r5, [r3, #16]
ARM GAS  /tmp/ccxadqkm.s 			page 10


 514              		.loc 1 366 0
 515 034c 99F81F30 		ldrb	r3, [r9, #31]	@ zero_extendqisi2
 516 0350 07F00107 		and	r7, r7, #1
 517              		.loc 1 365 0
 518 0354 ED0A     		lsrs	r5, r5, #11
 519 0356 0197     		str	r7, [sp, #4]
 520              	.LVL31:
 521 0358 EA43     		mvns	r2, r5
 522              	.LVL32:
 523              		.loc 1 366 0
 524 035a 002B     		cmp	r3, #0
 525 035c 00F09382 		beq	.L346
 526              		.loc 1 367 0
 527 0360 05F00105 		and	r5, r5, #1
 528 0364 36E0     		b	.L382
 529              	.L383:
 530 0366 00BF     		.align	2
 531              	.L381:
 532 0368 00000000 		.word	ch
 533 036c 00000000 		.word	.LC0
 534 0370 00000000 		.word	.LANCHOR0
 535 0374 00000000 		.word	.LANCHOR1
 536 0378 00000000 		.word	0
 537 037c 00008039 		.word	964689920
 538 0380 00401C46 		.word	1176256512
 539 0384 CDCCCC3D 		.word	1036831949
 540 0388 00000000 		.word	.LANCHOR3
 541 038c 00000000 		.word	.LANCHOR4
 542 0390 00000000 		.word	ADC_Value
 543 0394 986E5240 		.word	1079144088
 544 0398 00000000 		.word	.LANCHOR6
 545 039c 0000FA43 		.word	1140457472
 546 03a0 9A99993E 		.word	1050253722
 547 03a4 00000000 		.word	.LANCHOR7
 548 03a8 00000000 		.word	.LANCHOR8
 549 03ac 66666640 		.word	1080452710
 550 03b0 00000000 		.word	.LANCHOR9
 551 03b4 00000000 		.word	.LANCHOR10
 552 03b8 00000000 		.word	.LANCHOR11
 553 03bc 00000000 		.word	.LANCHOR12
 554 03c0 00000000 		.word	.LANCHOR13
 555 03c4 00000000 		.word	.LANCHOR14
 556 03c8 00040240 		.word	1073873920
 557 03cc 00000000 		.word	.LANCHOR2
 558 03d0 00000000 		.word	.LANCHOR5
 559              	.L382:
 560              	.LVL33:
 561              	.L33:
 562              		.loc 1 394 0
 563 03d4 FFF7FEFF 		bl	app_is_output_disabled
 564              	.LVL34:
 565 03d8 8246     		mov	r10, r0
 566 03da 0028     		cmp	r0, #0
 567 03dc 7FF42BAE 		bne	.L3
 568              		.loc 1 398 0
 569 03e0 99F80030 		ldrb	r3, [r9]	@ zero_extendqisi2
 570 03e4 DBB2     		uxtb	r3, r3
ARM GAS  /tmp/ccxadqkm.s 			page 11


 571 03e6 0E2B     		cmp	r3, #14
 572 03e8 10D8     		bhi	.L39
 573 03ea 0122     		movs	r2, #1
 574 03ec 02FA03F3 		lsl	r3, r2, r3
 575 03f0 44F68802 		movw	r2, #18568
 576 03f4 1342     		tst	r3, r2
 577 03f6 40F05284 		bne	.L40
 578 03fa 42F26442 		movw	r2, #9316
 579 03fe 1342     		tst	r3, r2
 580 0400 40F0B485 		bne	.L41
 581 0404 13F4887F 		tst	r3, #272
 582 0408 40F08F85 		bne	.L361
 583              	.L39:
 584              		.loc 1 446 0
 585 040c 99ED010A 		vldr.32	s0, [r9, #4]
 586              		.loc 1 455 0
 587 0410 A44F     		ldr	r7, .L384
 588              		.loc 1 446 0
 589 0412 02A8     		add	r0, sp, #8
 590 0414 F7EE000A 		vmov.f32	s1, #1.0e+0
 591 0418 FFF7FEFF 		bl	utils_deadband
 592              	.LVL35:
 593              		.loc 1 449 0
 594 041c D9ED090A 		vldr.32	s1, [r9, #36]
 595 0420 9DED020A 		vldr.32	s0, [sp, #8]
 596 0424 99ED0A1A 		vldr.32	s2, [r9, #40]
 597 0428 99F82C00 		ldrb	r0, [r9, #44]	@ zero_extendqisi2
 598 042c FFF7FEFF 		bl	utils_throttle_curve
 599              	.LVL36:
 600              		.loc 1 455 0
 601 0430 D7ED007A 		vldr.32	s15, [r7]
 602              		.loc 1 449 0
 603 0434 8DED020A 		vstr.32	s0, [sp, #8]
 604              		.loc 1 455 0
 605 0438 F0EEE77A 		vabs.f32	s15, s15
 606 043c B4EEE70A 		vcmpe.f32	s0, s15
 607 0440 F1EE10FA 		vmrs	APSR_nzcv, FPSCR
 608 0444 CCBF     		ite	gt
 609 0446 D9ED0C0A 		vldrgt.32	s1, [r9, #48]
 610 044a D9ED0D0A 		vldrle.32	s1, [r9, #52]
 611              	.LVL37:
 612              		.loc 1 461 0
 613 044e DFED967A 		vldr.32	s15, .L384+4
 614 0452 F4EEE70A 		vcmpe.f32	s1, s15
 615 0456 F1EE10FA 		vmrs	APSR_nzcv, FPSCR
 616 045a 00F3B982 		bgt	.L362
 617              	.LVL38:
 618              	.L52:
 619              		.loc 1 468 0
 620 045e FFF7FEFF 		bl	mc_interface_get_wheely_crtl
 621              	.LVL39:
 622              		.loc 1 469 0
 623 0462 DFED927A 		vldr.32	s15, .L384+8
 624              		.loc 1 468 0
 625 0466 DFF860B2 		ldr	fp, .L384+36
 626              		.loc 1 469 0
 627 046a B4EEE70A 		vcmpe.f32	s0, s15
ARM GAS  /tmp/ccxadqkm.s 			page 12


 628 046e F1EE10FA 		vmrs	APSR_nzcv, FPSCR
 629              		.loc 1 468 0
 630 0472 8BED000A 		vstr.32	s0, [fp]
 631              		.loc 1 469 0
 632 0476 00F1FF82 		bmi	.L363
 633              	.L54:
 634              	.LVL40:
 635              		.loc 1 546 0
 636 047a FFF7FEFF 		bl	mc_interface_get_configuration
 637              	.LVL41:
 638              		.loc 1 550 0
 639 047e 96ED007A 		vldr.32	s14, [r6]
 640 0482 DFED8B7A 		vldr.32	s15, .L384+12
 641 0486 8B4F     		ldr	r7, .L384+16
 642 0488 B4EEE77A 		vcmpe.f32	s14, s15
 643 048c F1EE10FA 		vmrs	APSR_nzcv, FPSCR
 644              		.loc 1 546 0
 645 0490 8346     		mov	fp, r0
 646              	.LVL42:
 647              		.loc 1 550 0
 648 0492 40F1A981 		bpl	.L79
 649              		.loc 1 550 0 is_stmt 0 discriminator 1
 650 0496 99F81D30 		ldrb	r3, [r9, #29]	@ zero_extendqisi2
 651 049a 002B     		cmp	r3, #0
 652 049c 00F0A481 		beq	.L79
 653              		.loc 1 565 0 is_stmt 1
 654 04a0 87ED008A 		vstr.32	s16, [r7]
 655              	.L84:
 656              		.loc 1 569 0
 657 04a4 844B     		ldr	r3, .L384+20
 658 04a6 1978     		ldrb	r1, [r3]	@ zero_extendqisi2
 659 04a8 A942     		cmp	r1, r5
 660              		.loc 1 571 0
 661 04aa 18BF     		it	ne
 662 04ac 1D70     		strbne	r5, [r3]
 663              		.loc 1 574 0
 664 04ae 9BF86031 		ldrb	r3, [fp, #352]	@ zero_extendqisi2
 665              		.loc 1 570 0
 666 04b2 18BF     		it	ne
 667 04b4 87ED008A 		vstrne.32	s16, [r7]
 668              		.loc 1 574 0
 669 04b8 002B     		cmp	r3, #0
 670 04ba 40F08382 		bne	.L88
 671              	.LVL43:
 672              	.L90:
 673              		.loc 1 575 0
 674 04be 87ED008A 		vstr.32	s16, [r7]
 675              	.L89:
 676              		.loc 1 581 0
 677 04c2 F6EE000A 		vmov.f32	s1, #5.0e-1
 678 04c6 B0EE480A 		vmov.f32	s0, s16
 679 04ca 7A48     		ldr	r0, .L384+16
 680 04cc FFF7FEFF 		bl	utils_truncate_number
 681              	.LVL44:
 682              		.loc 1 585 0
 683 04d0 99F80030 		ldrb	r3, [r9]	@ zero_extendqisi2
 684 04d4 013B     		subs	r3, r3, #1
ARM GAS  /tmp/ccxadqkm.s 			page 13


 685 04d6 0D2B     		cmp	r3, #13
 686 04d8 3FF6ADAD 		bhi	.L3
 687 04dc DFE813F0 		tbh	[pc, r3, lsl #1]
 688              	.L93:
 689 04e0 7500     		.2byte	(.L92-.L93)/2
 690 04e2 7500     		.2byte	(.L92-.L93)/2
 691 04e4 7500     		.2byte	(.L92-.L93)/2
 692 04e6 FA00     		.2byte	(.L94-.L93)/2
 693 04e8 FA00     		.2byte	(.L94-.L93)/2
 694 04ea FA00     		.2byte	(.L94-.L93)/2
 695 04ec FA00     		.2byte	(.L94-.L93)/2
 696 04ee FA00     		.2byte	(.L94-.L93)/2
 697 04f0 4800     		.2byte	(.L95-.L93)/2
 698 04f2 4800     		.2byte	(.L95-.L93)/2
 699 04f4 4800     		.2byte	(.L95-.L93)/2
 700 04f6 0E00     		.2byte	(.L96-.L93)/2
 701 04f8 0E00     		.2byte	(.L96-.L93)/2
 702 04fa 0E00     		.2byte	(.L96-.L93)/2
 703              		.p2align 1
 704              	.L96:
 705              		.loc 1 716 0
 706 04fc 96ED007A 		vldr.32	s14, [r6]
 707 0500 DFED6B7A 		vldr.32	s15, .L384+12
 708              		.loc 1 710 0
 709 0504 DDED02AA 		vldr.32	s21, [sp, #8]
 710              	.LVL45:
 711              		.loc 1 716 0
 712 0508 B4EEE77A 		vcmpe.f32	s14, s15
 713 050c F1EE10FA 		vmrs	APSR_nzcv, FPSCR
 714 0510 00F15284 		bmi	.L364
 715              	.L126:
 716              	.LVL46:
 717              	.LBB98:
 718              		.loc 1 718 0
 719 0514 F5EEC0AA 		vcmpe.f32	s21, #0
 720 0518 F1EE10FA 		vmrs	APSR_nzcv, FPSCR
 721              		.loc 1 721 0
 722 051c B6BF     		itet	lt
 723 051e 9BED060A 		vldrlt.32	s0, [fp, #24]
 724              		.loc 1 719 0
 725 0522 9BED070A 		vldrge.32	s0, [fp, #28]
 726              		.loc 1 721 0
 727 0526 B0EEC00A 		vabslt.f32	s0, s0
 728 052a 20EE2A0A 		vmul.f32	s0, s0, s21
 729              	.LVL47:
 730              		.loc 1 724 0
 731 052e FFF7FEFF 		bl	mc_interface_set_pid_speed
 732              	.LVL48:
 733 0532 DDED027A 		vldr.32	s15, [sp, #8]
 734              		.loc 1 725 0
 735 0536 0125     		movs	r5, #1
 736              	.LVL49:
 737              	.L128:
 738              	.LBE98:
 739              		.loc 1 728 0
 740 0538 9FED647A 		vldr.32	s14, .L384+40
 741 053c F0EEE77A 		vabs.f32	s15, s15
ARM GAS  /tmp/ccxadqkm.s 			page 14


 742 0540 F4EEC77A 		vcmpe.f32	s15, s14
 743 0544 F1EE10FA 		vmrs	APSR_nzcv, FPSCR
 744 0548 40F1EB83 		bpl	.L342
 745              		.loc 1 729 0
 746 054c 07EE904A 		vmov	s15, r4	@ int
 747 0550 9FED5F7A 		vldr.32	s14, .L384+44
 748 0554 F8EEE76A 		vcvt.f32.s32	s13, s15
 749 0558 D6ED007A 		vldr.32	s15, [r6]
 750 055c 66EE876A 		vmul.f32	s13, s13, s14
 751              		.loc 1 544 0
 752 0560 0024     		movs	r4, #0
 753              	.LVL50:
 754              		.loc 1 729 0
 755 0562 86EEA97A 		vdiv.f32	s14, s13, s19
 756 0566 77EE277A 		vadd.f32	s15, s14, s15
 757 056a C6ED007A 		vstr.32	s15, [r6]
 758 056e 4AE0     		b	.L99
 759              	.LVL51:
 760              	.L95:
 761              		.loc 1 697 0
 762 0570 9DED020A 		vldr.32	s0, [sp, #8]
 763 0574 DFED557A 		vldr.32	s15, .L384+40
 764 0578 B0EEC07A 		vabs.f32	s14, s0
 765 057c B4EEE77A 		vcmpe.f32	s14, s15
 766 0580 F1EE10FA 		vmrs	APSR_nzcv, FPSCR
 767 0584 00F10684 		bmi	.L365
 768              	.L122:
 769              		.loc 1 701 0
 770 0588 96ED007A 		vldr.32	s14, [r6]
 771 058c DFED487A 		vldr.32	s15, .L384+12
 772 0590 B4EEE77A 		vcmpe.f32	s14, s15
 773 0594 F1EE10FA 		vmrs	APSR_nzcv, FPSCR
 774 0598 04D5     		bpl	.L124
 775              		.loc 1 701 0 is_stmt 0 discriminator 1
 776 059a 99F81D30 		ldrb	r3, [r9, #29]	@ zero_extendqisi2
 777 059e 002B     		cmp	r3, #0
 778 05a0 40F07B84 		bne	.L192
 779              	.L124:
 780              		.loc 1 702 0 is_stmt 1
 781 05a4 DBED161A 		vldr.32	s3, [fp, #88]
 782 05a8 9BED162A 		vldr.32	s4, [fp, #88]
 783              		.loc 1 543 0
 784 05ac DFED43AA 		vldr.32	s21, .L384+24
 785              	.LVL52:
 786              		.loc 1 702 0
 787 05b0 F1EE611A 		vneg.f32	s3, s3
 788 05b4 B7EE001A 		vmov.f32	s2, #1.0e+0
 789 05b8 FFEE000A 		vmov.f32	s1, #-1.0e+0
 790 05bc FFF7FEFF 		bl	utils_map
 791              	.LVL53:
 792 05c0 FFF7FEFF 		bl	mc_interface_set_duty
 793              	.LVL54:
 794              		.loc 1 544 0
 795 05c4 0024     		movs	r4, #0
 796              	.LVL55:
 797              		.loc 1 703 0
 798 05c6 0125     		movs	r5, #1
ARM GAS  /tmp/ccxadqkm.s 			page 15


 799              	.LVL56:
 800 05c8 1DE0     		b	.L99
 801              	.LVL57:
 802              	.L92:
 803              		.loc 1 593 0
 804 05ca DDED02AA 		vldr.32	s21, [sp, #8]
 805              	.LVL58:
 806              		.loc 1 599 0
 807 05ce DFED3F7A 		vldr.32	s15, .L384+40
 808 05d2 B0EEEA7A 		vabs.f32	s14, s21
 809 05d6 B4EEE77A 		vcmpe.f32	s14, s15
 810 05da F1EE10FA 		vmrs	APSR_nzcv, FPSCR
 811 05de 00F1C883 		bmi	.L366
 812              	.LVL59:
 813              	.L119:
 814              		.loc 1 686 0
 815 05e2 FFEE007A 		vmov.f32	s15, #-1.0e+0
 816 05e6 F4EEE7AA 		vcmpe.f32	s21, s15
 817 05ea F1EE10FA 		vmrs	APSR_nzcv, FPSCR
 818 05ee 06D4     		bmi	.L186
 819              		.loc 1 689 0
 820 05f0 F7EE007A 		vmov.f32	s15, #1.0e+0
 821 05f4 F4EEE7AA 		vcmpe.f32	s21, s15
 822 05f8 F1EE10FA 		vmrs	APSR_nzcv, FPSCR
 823 05fc 01DD     		ble	.L349
 824              	.L186:
 825              		.loc 1 604 0
 826 05fe F0EE67AA 		vmov.f32	s21, s15
 827              	.LVL60:
 828              	.L349:
 829              		.loc 1 547 0
 830 0602 0025     		movs	r5, #0
 831              	.LVL61:
 832              		.loc 1 589 0
 833 0604 0124     		movs	r4, #1
 834              	.LVL62:
 835              	.L99:
 836              		.loc 1 738 0
 837 0606 96ED007A 		vldr.32	s14, [r6]
 838 060a DFED297A 		vldr.32	s15, .L384+12
 839 060e B4EEE77A 		vcmpe.f32	s14, s15
 840 0612 F1EE10FA 		vmrs	APSR_nzcv, FPSCR
 841 0616 40F13981 		bpl	.L133
 842              		.loc 1 738 0 is_stmt 0 discriminator 1
 843 061a 99F81D30 		ldrb	r3, [r9, #29]	@ zero_extendqisi2
 844 061e 002B     		cmp	r3, #0
 845 0620 00F03481 		beq	.L133
 846              	.LBB99:
 847              		.loc 1 740 0 is_stmt 1
 848 0624 264B     		ldr	r3, .L384+28
 849 0626 96ED007A 		vldr.32	s14, [r6]
 850 062a D3ED007A 		vldr.32	s15, [r3]	@ int
 851 062e F8EEE77A 		vcvt.f32.s32	s15, s15
 852 0632 F4EE477A 		vcmp.f32	s15, s14
 853 0636 F1EE10FA 		vmrs	APSR_nzcv, FPSCR
 854              		.loc 1 741 0
 855 063a 08BF     		it	eq
ARM GAS  /tmp/ccxadqkm.s 			page 16


 856 063c 86ED008A 		vstreq.32	s16, [r6]
 857              		.loc 1 743 0
 858 0640 D6ED007A 		vldr.32	s15, [r6]
 859 0644 FDEEE77A 		vcvt.s32.f32	s15, s15
 860 0648 C3ED007A 		vstr.32	s15, [r3]	@ int
 861              		.loc 1 744 0
 862 064c FFF7FEFF 		bl	timeout_get_brake_current
 863              	.LVL63:
 864 0650 FFF7FEFF 		bl	mc_interface_set_brake_current
 865              	.LVL64:
 866              		.loc 1 746 0
 867 0654 99F83830 		ldrb	r3, [r9, #56]	@ zero_extendqisi2
 868 0658 002B     		cmp	r3, #0
 869 065a 3FF4ECAC 		beq	.L3
 870              	.LBB100:
 871              		.loc 1 747 0
 872 065e 0024     		movs	r4, #0
 873              	.LVL65:
 874 0660 02E0     		b	.L138
 875              	.LVL66:
 876              	.L136:
 877              		.loc 1 747 0 is_stmt 0 discriminator 2
 878 0662 0A2C     		cmp	r4, #10
 879 0664 3FF4E7AC 		beq	.L3
 880              	.LVL67:
 881              	.L138:
 882              	.LBB101:
 883              		.loc 1 748 0 is_stmt 1
 884 0668 2046     		mov	r0, r4
 885 066a FFF7FEFF 		bl	comm_can_get_status_msg_index
 886              	.LVL68:
 887              		.loc 1 750 0
 888 066e 0568     		ldr	r5, [r0]
 889 0670 002D     		cmp	r5, #0
 890              	.LBE101:
 891              		.loc 1 747 0
 892 0672 04F10104 		add	r4, r4, #1
 893              	.LVL69:
 894              	.LBB108:
 895              		.loc 1 750 0
 896 0676 F4DB     		blt	.L136
 897              	.LBB102:
 898              	.LBB103:
 899              	.LBB104:
 900              	.LBB105:
 901              		.file 3 "ChibiOS_3.0.2/os/rt/include/chvt.h"
 902              		.loc 3 231 0 discriminator 1
 903 0678 124B     		ldr	r3, .L384+32
 904              	.LBE105:
 905              	.LBE104:
 906              		.loc 3 267 0 discriminator 1
 907 067a 4268     		ldr	r2, [r0, #4]
 908              	.LBB107:
 909              	.LBB106:
 910              		.loc 3 231 0 discriminator 1
 911 067c 9B6A     		ldr	r3, [r3, #40]
 912              	.LVL70:
ARM GAS  /tmp/ccxadqkm.s 			page 17


 913              	.LBE106:
 914              	.LBE107:
 915              		.loc 3 267 0 discriminator 1
 916 067e 9B1A     		subs	r3, r3, r2
 917              	.LBE103:
 918              	.LBE102:
 919              		.loc 1 750 0 discriminator 1
 920 0680 07EE903A 		vmov	s15, r3	@ int
 921 0684 F8EE677A 		vcvt.f32.u32	s15, s15
 922 0688 87EEA97A 		vdiv.f32	s14, s15, s19
 923 068c B4EECA7A 		vcmpe.f32	s14, s20
 924 0690 F1EE10FA 		vmrs	APSR_nzcv, FPSCR
 925 0694 E5D5     		bpl	.L136
 926              		.loc 1 751 0
 927 0696 FFF7FEFF 		bl	timeout_get_brake_current
 928              	.LVL71:
 929 069a E8B2     		uxtb	r0, r5
 930 069c FFF7FEFF 		bl	comm_can_set_current_brake
 931              	.LVL72:
 932 06a0 DFE7     		b	.L136
 933              	.L385:
 934 06a2 00BF     		.align	2
 935              	.L384:
 936 06a4 00000000 		.word	.LANCHOR15
 937 06a8 0AD7233C 		.word	1008981770
 938 06ac 0000B442 		.word	1119092736
 939 06b0 0000FA43 		.word	1140457472
 940 06b4 00000000 		.word	.LANCHOR29
 941 06b8 00000000 		.word	.LANCHOR30
 942 06bc 00000000 		.word	0
 943 06c0 00000000 		.word	.LANCHOR32
 944 06c4 00000000 		.word	ch
 945 06c8 00000000 		.word	.LANCHOR17
 946 06cc 6F12833A 		.word	981668463
 947 06d0 00007A44 		.word	1148846080
 948              	.LVL73:
 949              	.L94:
 950              	.LBE108:
 951              	.LBE100:
 952              	.LBE99:
 953              		.loc 1 618 0
 954 06d4 DDED027A 		vldr.32	s15, [sp, #8]
 955 06d8 1FED047A 		vldr.32	s14, .L384+40
 956 06dc F4EEC77A 		vcmpe.f32	s15, s14
 957 06e0 F1EE10FA 		vmrs	APSR_nzcv, FPSCR
 958 06e4 0FD5     		bpl	.L100
 959              		.loc 1 619 0
 960 06e6 07EE104A 		vmov	s14, r4	@ int
 961 06ea 5FED076A 		vldr.32	s13, .L384+44
 962 06ee B8EEC76A 		vcvt.f32.s32	s12, s14
 963 06f2 96ED007A 		vldr.32	s14, [r6]
 964 06f6 26EE266A 		vmul.f32	s12, s12, s13
 965 06fa C6EE296A 		vdiv.f32	s13, s12, s19
 966 06fe 36EE877A 		vadd.f32	s14, s13, s14
 967 0702 86ED007A 		vstr.32	s14, [r6]
 968              	.L100:
 969              		.loc 1 623 0
ARM GAS  /tmp/ccxadqkm.s 			page 18


 970 0706 C54B     		ldr	r3, .L386
 971 0708 93ED007A 		vldr.32	s14, [r3]
 972 070c 77EE277A 		vadd.f32	s15, s14, s15
 973 0710 CDED027A 		vstr.32	s15, [sp, #8]
 974              		.loc 1 627 0
 975 0714 FFF7FEFF 		bl	mc_interface_temp_motor_filtered
 976              	.LVL74:
 977 0718 DFEDC17A 		vldr.32	s15, .L386+4
 978 071c B4EEE70A 		vcmpe.f32	s0, s15
 979 0720 F1EE10FA 		vmrs	APSR_nzcv, FPSCR
 980 0724 00F3FF82 		bgt	.L367
 981 0728 D7ED007A 		vldr.32	s15, [r7]
 982 072c BD4B     		ldr	r3, .L386+8
 983              	.L104:
 984              		.loc 1 631 0
 985 072e 9FEDBE7A 		vldr.32	s14, .L386+12
 986 0732 F4EEC77A 		vcmpe.f32	s15, s14
 987 0736 F1EE10FA 		vmrs	APSR_nzcv, FPSCR
 988 073a 09DD     		ble	.L108
 989              		.loc 1 631 0 is_stmt 0 discriminator 1
 990 073c 93ED007A 		vldr.32	s14, [r3]
 991 0740 DFEDBA6A 		vldr.32	s13, .L386+16
 992 0744 B4EEE67A 		vcmpe.f32	s14, s13
 993 0748 F1EE10FA 		vmrs	APSR_nzcv, FPSCR
 994 074c 00F1F884 		bmi	.L368
 995              	.L108:
 996              		.loc 1 635 0 is_stmt 1
 997 0750 9FEDB77A 		vldr.32	s14, .L386+20
 998 0754 DDED02AA 		vldr.32	s21, [sp, #8]
 999              	.LVL75:
 1000 0758 F4EEC77A 		vcmpe.f32	s15, s14
 1001 075c F1EE10FA 		vmrs	APSR_nzcv, FPSCR
 1002 0760 40F36984 		ble	.L112
 1003              		.loc 1 635 0 is_stmt 0 discriminator 1
 1004 0764 D3ED006A 		vldr.32	s13, [r3]
 1005 0768 9FEDB07A 		vldr.32	s14, .L386+16
 1006 076c F4EE476A 		vcmp.f32	s13, s14
 1007 0770 F1EE10FA 		vmrs	APSR_nzcv, FPSCR
 1008 0774 40F0C684 		bne	.L114
 1009              		.loc 1 636 0 is_stmt 1
 1010 0778 DDED036A 		vldr.32	s13, [sp, #12]
 1011              		.loc 1 637 0
 1012 077c 9FEDAD7A 		vldr.32	s14, .L386+24
 1013              		.loc 1 638 0
 1014 0780 AD49     		ldr	r1, .L386+28
 1015 0782 1960     		str	r1, [r3]	@ float
 1016              		.loc 1 636 0
 1017 0784 B0EE006A 		vmov.f32	s12, #2.0e+0
 1018 0788 E7EE866A 		vfma.f32	s13, s15, s12
 1019              		.loc 1 637 0
 1020 078c 77EEC77A 		vsub.f32	s15, s15, s14
 1021              		.loc 1 636 0
 1022 0790 7AEEA6AA 		vadd.f32	s21, s21, s13
 1023              		.loc 1 637 0
 1024 0794 C7ED007A 		vstr.32	s15, [r7]
 1025              		.loc 1 666 0
 1026 0798 F5EEC0AA 		vcmpe.f32	s21, #0
ARM GAS  /tmp/ccxadqkm.s 			page 19


 1027 079c F1EE10FA 		vmrs	APSR_nzcv, FPSCR
 1028              		.loc 1 636 0
 1029 07a0 CDED02AA 		vstr.32	s21, [sp, #8]
 1030              		.loc 1 666 0
 1031 07a4 80F24F84 		bge	.L369
 1032              	.L340:
 1033              		.loc 1 682 0
 1034 07a8 99F80030 		ldrb	r3, [r9]	@ zero_extendqisi2
 1035 07ac 042B     		cmp	r3, #4
 1036              		.loc 1 672 0
 1037 07ae F0EEEAAA 		vabs.f32	s21, s21
 1038              	.LVL76:
 1039              		.loc 1 673 0
 1040 07b2 4FF0010A 		mov	r10, #1
 1041              		.loc 1 682 0
 1042 07b6 04D0     		beq	.L121
 1043              		.loc 1 683 0 discriminator 1
 1044 07b8 99F80030 		ldrb	r3, [r9]	@ zero_extendqisi2
 1045              		.loc 1 682 0 discriminator 1
 1046 07bc 052B     		cmp	r3, #5
 1047 07be 7FF410AF 		bne	.L119
 1048              	.LVL77:
 1049              	.L121:
 1050              		.loc 1 683 0
 1051 07c2 002D     		cmp	r5, #0
 1052 07c4 3FF40DAF 		beq	.L119
 1053              		.loc 1 684 0
 1054 07c8 F1EE6AAA 		vneg.f32	s21, s21
 1055              	.LVL78:
 1056 07cc 09E7     		b	.L119
 1057              	.LVL79:
 1058              	.L13:
 1059              		.loc 1 248 0
 1060 07ce D9ED020A 		vldr.32	s1, [r9, #8]
 1061 07d2 99ED031A 		vldr.32	s2, [r9, #12]
 1062 07d6 B7EE002A 		vmov.f32	s4, #1.0e+0
 1063 07da F0EE481A 		vmov.f32	s3, s16
 1064 07de FFF7FEFF 		bl	utils_map
 1065              	.LVL80:
 1066 07e2 8DED020A 		vstr.32	s0, [sp, #8]
 1067              		.loc 1 249 0
 1068 07e6 BBE4     		b	.L16
 1069              	.LVL81:
 1070              	.L79:
 1071 07e8 D7ED007A 		vldr.32	s15, [r7]
 1072              		.loc 1 553 0
 1073 07ec 9FED917A 		vldr.32	s14, .L386+24
 1074              		.loc 1 551 0
 1075 07f0 002D     		cmp	r5, #0
 1076 07f2 40F0DC80 		bne	.L82
 1077              		.loc 1 553 0
 1078 07f6 28EEC77A 		vnmul.f32	s14, s17, s14
 1079              		.loc 1 554 0
 1080 07fa F5EEC08A 		vcmpe.f32	s17, #0
 1081 07fe F1EE10FA 		vmrs	APSR_nzcv, FPSCR
 1082              		.loc 1 553 0
 1083 0802 77EE277A 		vadd.f32	s15, s14, s15
ARM GAS  /tmp/ccxadqkm.s 			page 20


 1084              		.loc 1 554 0
 1085 0806 01DD     		ble	.L348
 1086              	.L85:
 1087              		.loc 1 560 0
 1088 0808 77EE277A 		vadd.f32	s15, s14, s15
 1089              	.L348:
 1090 080c C7ED007A 		vstr.32	s15, [r7]
 1091 0810 48E6     		b	.L84
 1092              	.LVL82:
 1093              	.L184:
 1094              		.loc 1 342 0
 1095 0812 B0EE480A 		vmov.f32	s0, s16
 1096 0816 75E5     		b	.L26
 1097              	.LVL83:
 1098              	.L29:
 1099              		.loc 1 372 0
 1100 0818 99F80030 		ldrb	r3, [r9]	@ zero_extendqisi2
 1101 081c 032B     		cmp	r3, #3
 1102 081e 23D0     		beq	.L34
 1103              		.loc 1 373 0 discriminator 1
 1104 0820 99F80030 		ldrb	r3, [r9]	@ zero_extendqisi2
 1105              		.loc 1 372 0 discriminator 1
 1106 0824 052B     		cmp	r3, #5
 1107 0826 1FD0     		beq	.L34
 1108              		.loc 1 374 0
 1109 0828 99F80030 		ldrb	r3, [r9]	@ zero_extendqisi2
 1110              		.loc 1 373 0
 1111 082c 072B     		cmp	r3, #7
 1112 082e 1BD0     		beq	.L34
 1113              		.loc 1 375 0
 1114 0830 99F80030 		ldrb	r3, [r9]	@ zero_extendqisi2
 1115              		.loc 1 374 0
 1116 0834 042B     		cmp	r3, #4
 1117 0836 17D0     		beq	.L34
 1118              		.loc 1 376 0
 1119 0838 99F80030 		ldrb	r3, [r9]	@ zero_extendqisi2
 1120              		.loc 1 375 0
 1121 083c 0B2B     		cmp	r3, #11
 1122 083e 13D0     		beq	.L34
 1123              		.loc 1 377 0
 1124 0840 99F80030 		ldrb	r3, [r9]	@ zero_extendqisi2
 1125              		.loc 1 376 0
 1126 0844 0E2B     		cmp	r3, #14
 1127 0846 0FD0     		beq	.L34
 1128              		.loc 1 385 0
 1129 0848 7C4B     		ldr	r3, .L386+32
 1130 084a 1F69     		ldr	r7, [r3, #16]
 1131              		.loc 1 386 0
 1132 084c 99F81E30 		ldrb	r3, [r9, #30]	@ zero_extendqisi2
 1133              		.loc 1 385 0
 1134 0850 3F0B     		lsrs	r7, r7, #12
 1135 0852 F943     		mvns	r1, r7
 1136              	.LVL84:
 1137              		.loc 1 386 0
 1138 0854 03F0FF05 		and	r5, r3, #255
 1139 0858 002B     		cmp	r3, #0
 1140 085a 00F04484 		beq	.L370
ARM GAS  /tmp/ccxadqkm.s 			page 21


 1141              		.loc 1 387 0
 1142 085e 07F00103 		and	r3, r7, #1
 1143 0862 0193     		str	r3, [sp, #4]
 1144              	.LVL85:
 1145              		.loc 1 358 0
 1146 0864 1546     		mov	r5, r2
 1147 0866 B5E5     		b	.L33
 1148              	.LVL86:
 1149              	.L34:
 1150              		.loc 1 379 0
 1151 0868 754B     		ldr	r3, .L386+36
 1152 086a 1D69     		ldr	r5, [r3, #16]
 1153              		.loc 1 381 0
 1154 086c 99F81F30 		ldrb	r3, [r9, #31]	@ zero_extendqisi2
 1155              		.loc 1 379 0
 1156 0870 6D09     		lsrs	r5, r5, #5
 1157              		.loc 1 381 0
 1158 0872 03F0FF01 		and	r1, r3, #255
 1159 0876 EA43     		mvns	r2, r5
 1160              	.LVL87:
 1161 0878 0191     		str	r1, [sp, #4]
 1162 087a 23B1     		cbz	r3, .L346
 1163              		.loc 1 357 0
 1164 087c 0023     		movs	r3, #0
 1165              		.loc 1 382 0
 1166 087e 05F00105 		and	r5, r5, #1
 1167              	.LVL88:
 1168              		.loc 1 357 0
 1169 0882 0193     		str	r3, [sp, #4]
 1170 0884 A6E5     		b	.L33
 1171              	.LVL89:
 1172              	.L346:
 1173              		.loc 1 379 0
 1174 0886 02F00105 		and	r5, r2, #1
 1175 088a A3E5     		b	.L33
 1176              	.LVL90:
 1177              	.L133:
 1178              		.loc 1 760 0
 1179 088c 98F80030 		ldrb	r3, [r8]	@ zero_extendqisi2
 1180 0890 002B     		cmp	r3, #0
 1181 0892 00F04382 		beq	.L371
 1182              	.L139:
 1183              		.loc 1 774 0
 1184 0896 6B4E     		ldr	r6, .L386+40
 1185 0898 3768     		ldr	r7, [r6]
 1186 089a 7B1C     		adds	r3, r7, #1
 1187 089c 3360     		str	r3, [r6]
 1188 089e FFF7FEFF 		bl	mc_interface_get_rpm
 1189              	.LVL91:
 1190              		.loc 1 775 0
 1191 08a2 3268     		ldr	r2, [r6]
 1192              		.loc 1 774 0
 1193 08a4 684B     		ldr	r3, .L386+44
 1194              		.loc 1 779 0
 1195 08a6 DFED697A 		vldr.32	s15, .L386+48
 1196              		.loc 1 774 0
 1197 08aa 03EB8703 		add	r3, r3, r7, lsl #2
ARM GAS  /tmp/ccxadqkm.s 			page 22


 1198              		.loc 1 775 0
 1199 08ae 072A     		cmp	r2, #7
 1200              		.loc 1 774 0
 1201 08b0 83ED000A 		vstr.32	s0, [r3]
 1202              		.loc 1 776 0
 1203 08b4 C4BF     		itt	gt
 1204 08b6 0023     		movgt	r3, #0
 1205 08b8 3360     		strgt	r3, [r6]
 1206              	.LVL92:
 1207 08ba 634B     		ldr	r3, .L386+44
 1208 08bc 03F12002 		add	r2, r3, #32
 1209              	.LVL93:
 1210              	.L141:
 1211              	.LBB109:
 1212              		.loc 1 781 0 discriminator 3
 1213 08c0 B3EC017A 		vldmia.32	r3!, {s14}
 1214              		.loc 1 780 0 discriminator 3
 1215 08c4 9A42     		cmp	r2, r3
 1216              		.loc 1 781 0 discriminator 3
 1217 08c6 77EE877A 		vadd.f32	s15, s15, s14
 1218              	.LVL94:
 1219              		.loc 1 780 0 discriminator 3
 1220 08ca F9D1     		bne	.L141
 1221              	.LVL95:
 1222              	.LBE109:
 1223              		.loc 1 785 0
 1224 08cc 6CB1     		cbz	r4, .L142
 1225              		.loc 1 785 0 is_stmt 0 discriminator 1
 1226 08ce 019B     		ldr	r3, [sp, #4]
 1227 08d0 5BB1     		cbz	r3, .L142
 1228              		.loc 1 785 0 discriminator 2
 1229 08d2 9DED027A 		vldr.32	s14, [sp, #8]
 1230 08d6 DFED5E6A 		vldr.32	s13, .L386+52
 1231 08da B0EEC77A 		vabs.f32	s14, s14
 1232 08de B4EEE67A 		vcmpe.f32	s14, s13
 1233 08e2 F1EE10FA 		vmrs	APSR_nzcv, FPSCR
 1234 08e6 00F1DE82 		bmi	.L372
 1235              	.L142:
 1236              		.loc 1 811 0 is_stmt 1
 1237 08ea 5A4B     		ldr	r3, .L386+56
 1238 08ec 0026     		movs	r6, #0
 1239 08ee 1E70     		strb	r6, [r3]
 1240              		.loc 1 814 0
 1241 08f0 FFF7FEFF 		bl	mc_interface_get_rpm
 1242              	.LVL96:
 1243              		.loc 1 816 0
 1244 08f4 99F83830 		ldrb	r3, [r9, #56]	@ zero_extendqisi2
 1245              		.loc 1 814 0
 1246 08f8 B0EE40BA 		vmov.f32	s22, s0
 1247              	.LVL97:
 1248              		.loc 1 815 0
 1249 08fc F0EE408A 		vmov.f32	s17, s0
 1250              	.LVL98:
 1251              		.loc 1 816 0
 1252 0900 FBB9     		cbnz	r3, .L152
 1253              	.LVL99:
 1254              	.L149:
ARM GAS  /tmp/ccxadqkm.s 			page 23


 1255              		.loc 1 831 0
 1256 0902 25B1     		cbz	r5, .L153
 1257              		.loc 1 831 0 is_stmt 0 discriminator 1
 1258 0904 99F83830 		ldrb	r3, [r9, #56]	@ zero_extendqisi2
 1259 0908 002B     		cmp	r3, #0
 1260 090a 40F0C283 		bne	.L373
 1261              	.LVL100:
 1262              	.L153:
 1263              		.loc 1 844 0 is_stmt 1
 1264 090e 002C     		cmp	r4, #0
 1265 0910 3FF491AB 		beq	.L3
 1266              		.loc 1 845 0
 1267 0914 BAF1000F 		cmp	r10, #0
 1268 0918 40F05883 		bne	.L374
 1269              	.LVL101:
 1270              	.LBB110:
 1271              		.loc 1 865 0
 1272 091c F5EEC0AA 		vcmpe.f32	s21, #0
 1273 0920 F1EE10FA 		vmrs	APSR_nzcv, FPSCR
 1274              		.loc 1 874 0
 1275 0924 99F83830 		ldrb	r3, [r9, #56]	@ zero_extendqisi2
 1276              		.loc 1 865 0
 1277 0928 00F1F282 		bmi	.L164
 1278              		.loc 1 874 0
 1279 092c 002B     		cmp	r3, #0
 1280 092e 40F08784 		bne	.L375
 1281              	.LVL102:
 1282              	.L165:
 1283              		.loc 1 909 0
 1284 0932 494B     		ldr	r3, .L386+60
 1285              		.loc 1 920 0
 1286 0934 B0EE6A0A 		vmov.f32	s0, s21
 1287              		.loc 1 909 0
 1288 0938 1B7E     		ldrb	r3, [r3, #24]	@ zero_extendqisi2
 1289              		.loc 1 920 0
 1290 093a FFF7FEFF 		bl	mc_interface_set_current_rel
 1291              	.LVL103:
 1292 093e FFF77ABB 		b	.L3
 1293              	.LVL104:
 1294              	.L152:
 1295              	.LBE110:
 1296              	.LBB111:
 1297              	.LBB112:
 1298              		.loc 1 818 0
 1299 0942 3046     		mov	r0, r6
 1300 0944 FFF7FEFF 		bl	comm_can_get_status_msg_index
 1301              	.LVL105:
 1302              		.loc 1 820 0
 1303 0948 0368     		ldr	r3, [r0]
 1304 094a 002B     		cmp	r3, #0
 1305              	.LBE112:
 1306              		.loc 1 817 0
 1307 094c 06F10106 		add	r6, r6, #1
 1308              	.LVL106:
 1309              	.LBB121:
 1310              		.loc 1 820 0
 1311 0950 1BDB     		blt	.L150
ARM GAS  /tmp/ccxadqkm.s 			page 24


 1312              	.LBB113:
 1313              	.LBB114:
 1314              	.LBB115:
 1315              	.LBB116:
 1316              		.loc 3 231 0 discriminator 1
 1317 0952 424B     		ldr	r3, .L386+64
 1318              	.LBE116:
 1319              	.LBE115:
 1320              		.loc 3 267 0 discriminator 1
 1321 0954 4268     		ldr	r2, [r0, #4]
 1322              	.LBB118:
 1323              	.LBB117:
 1324              		.loc 3 231 0 discriminator 1
 1325 0956 9B6A     		ldr	r3, [r3, #40]
 1326              	.LVL107:
 1327              	.LBE117:
 1328              	.LBE118:
 1329              		.loc 3 267 0 discriminator 1
 1330 0958 9B1A     		subs	r3, r3, r2
 1331              	.LBE114:
 1332              	.LBE113:
 1333              		.loc 1 820 0 discriminator 1
 1334 095a 07EE903A 		vmov	s15, r3	@ int
 1335 095e F8EE677A 		vcvt.f32.u32	s15, s15
 1336              	.LBB119:
 1337              		.loc 1 823 0 discriminator 1
 1338 0962 F0EEE86A 		vabs.f32	s13, s17
 1339              	.LBE119:
 1340              		.loc 1 820 0 discriminator 1
 1341 0966 87EEA97A 		vdiv.f32	s14, s15, s19
 1342 096a B4EECA7A 		vcmpe.f32	s14, s20
 1343 096e F1EE10FA 		vmrs	APSR_nzcv, FPSCR
 1344 0972 0AD5     		bpl	.L150
 1345              	.LBB120:
 1346              		.loc 1 821 0
 1347 0974 D0ED027A 		vldr.32	s15, [r0, #8]
 1348              	.LVL108:
 1349              		.loc 1 823 0
 1350 0978 B0EEE77A 		vabs.f32	s14, s15
 1351              		.loc 1 824 0
 1352 097c B4EE667A 		vcmp.f32	s14, s13
 1353 0980 F1EE10FA 		vmrs	APSR_nzcv, FPSCR
 1354 0984 48BF     		it	mi
 1355 0986 F0EE678A 		vmovmi.f32	s17, s15
 1356              	.LVL109:
 1357              	.L150:
 1358              	.LBE120:
 1359              	.LBE121:
 1360              		.loc 1 817 0 discriminator 2
 1361 098a 0A2E     		cmp	r6, #10
 1362 098c D9D1     		bne	.L152
 1363 098e B8E7     		b	.L149
 1364              	.LVL110:
 1365              	.L356:
 1366              	.LBE111:
 1367              		.loc 1 186 0
 1368 0990 FFF7FEFF 		bl	mc_interface_get_gas
ARM GAS  /tmp/ccxadqkm.s 			page 25


 1369              	.LVL111:
 1370 0994 07EE900A 		vmov	s15, r0	@ int
 1371 0998 B8EE670A 		vcvt.f32.u32	s0, s15
 1372 099c FFF771BB 		b	.L8
 1373              	.LVL112:
 1374              	.L359:
 1375              		.loc 1 285 0
 1376 09a0 FFF7FEFF 		bl	mc_interface_get_reku
 1377              	.LVL113:
 1378 09a4 07EE900A 		vmov	s15, r0	@ int
 1379 09a8 B8EE670A 		vcvt.f32.u32	s0, s15
 1380 09ac 26E4     		b	.L20
 1381              	.LVL114:
 1382              	.L82:
 1383              		.loc 1 558 0
 1384 09ae 28EE877A 		vmul.f32	s14, s17, s14
 1385              		.loc 1 559 0
 1386 09b2 F5EEC08A 		vcmpe.f32	s17, #0
 1387 09b6 F1EE10FA 		vmrs	APSR_nzcv, FPSCR
 1388              		.loc 1 558 0
 1389 09ba 77EE277A 		vadd.f32	s15, s14, s15
 1390              		.loc 1 559 0
 1391 09be 7FF525AF 		bpl	.L348
 1392 09c2 21E7     		b	.L85
 1393              	.L88:
 1394              		.loc 1 574 0 discriminator 1
 1395 09c4 FFF7FEFF 		bl	mc_interface_get_enviro
 1396              	.LVL115:
 1397 09c8 4304     		lsls	r3, r0, #17
 1398 09ca 3FF578AD 		bmi	.L90
 1399 09ce 78E5     		b	.L89
 1400              	.LVL116:
 1401              	.L362:
 1402              	.LBB122:
 1403              		.loc 1 462 0
 1404 09d0 DFF898B0 		ldr	fp, .L386+80
 1405              	.LBB123:
 1406              	.LBB124:
 1407              	.LBB125:
 1408              	.LBB126:
 1409              		.loc 3 231 0
 1410 09d4 214B     		ldr	r3, .L386+64
 1411              	.LBE126:
 1412              	.LBE125:
 1413              		.loc 3 267 0
 1414 09d6 DBF80010 		ldr	r1, [fp]
 1415              	.LBB128:
 1416              	.LBB127:
 1417              		.loc 3 231 0
 1418 09da 9B6A     		ldr	r3, [r3, #40]
 1419              	.LVL117:
 1420              	.LBE127:
 1421              	.LBE128:
 1422              	.LBE124:
 1423              	.LBE123:
 1424              		.loc 1 462 0
 1425 09dc 2048     		ldr	r0, .L386+68
ARM GAS  /tmp/ccxadqkm.s 			page 26


 1426 09de 9FED217A 		vldr.32	s14, .L386+72
 1427              	.LBB130:
 1428              	.LBB129:
 1429              		.loc 3 267 0
 1430 09e2 5B1A     		subs	r3, r3, r1
 1431              	.LVL118:
 1432              	.LBE129:
 1433              	.LBE130:
 1434              		.loc 1 462 0
 1435 09e4 4FF47A7C 		mov	ip, #1000
 1436 09e8 42F20F71 		movw	r1, #9999
 1437 09ec 0CFB0313 		mla	r3, ip, r3, r1
 1438 09f0 A0FB0323 		umull	r2, r3, r0, r3
 1439 09f4 5B0B     		lsrs	r3, r3, #13
 1440 09f6 07EE903A 		vmov	s15, r3	@ int
 1441 09fa 60EE870A 		vmul.f32	s1, s1, s14
 1442              	.LVL119:
 1443 09fe F8EEE77A 		vcvt.f32.s32	s15, s15
 1444              		.loc 1 463 0
 1445 0a02 1948     		ldr	r0, .L386+76
 1446 0a04 C7EEA00A 		vdiv.f32	s1, s15, s1
 1447 0a08 FFF7FEFF 		bl	utils_step_towards
 1448              	.LVL120:
 1449              	.LBB131:
 1450              	.LBB132:
 1451              		.loc 3 231 0
 1452 0a0c 134B     		ldr	r3, .L386+64
 1453 0a0e 9B6A     		ldr	r3, [r3, #40]
 1454              	.LBE132:
 1455              	.LBE131:
 1456              		.loc 1 464 0
 1457 0a10 CBF80030 		str	r3, [fp]
 1458              		.loc 1 465 0
 1459 0a14 3B68     		ldr	r3, [r7]	@ float
 1460 0a16 0293     		str	r3, [sp, #8]	@ float
 1461 0a18 21E5     		b	.L52
 1462              	.L387:
 1463 0a1a 00BF     		.align	2
 1464              	.L386:
 1465 0a1c 00000000 		.word	.LANCHOR28
 1466 0a20 0000DC42 		.word	1121714176
 1467 0a24 00000000 		.word	.LANCHOR31
 1468 0a28 CDCCCC3C 		.word	1020054733
 1469 0a2c 00606A47 		.word	1198153728
 1470 0a30 0AD7A33C 		.word	1017370378
 1471 0a34 9C534936 		.word	910775196
 1472 0a38 00616A47 		.word	1198153984
 1473 0a3c 00040240 		.word	1073873920
 1474 0a40 00080240 		.word	1073874944
 1475 0a44 00000000 		.word	.LANCHOR33
 1476 0a48 00000000 		.word	.LANCHOR34
 1477 0a4c 00000000 		.word	0
 1478 0a50 6F12833A 		.word	981668463
 1479 0a54 00000000 		.word	.LANCHOR35
 1480 0a58 00000000 		.word	.LANCHOR13
 1481 0a5c 00000000 		.word	ch
 1482 0a60 5917B7D1 		.word	-776530087
ARM GAS  /tmp/ccxadqkm.s 			page 27


 1483 0a64 00007A44 		.word	1148846080
 1484 0a68 00000000 		.word	.LANCHOR15
 1485 0a6c 00000000 		.word	.LANCHOR16
 1486 0a70 00003443 		.word	1127481344
 1487 0a74 DB0F4940 		.word	1078530011
 1488              	.L363:
 1489              	.LBE122:
 1490              		.loc 1 470 0
 1491 0a78 FFF7FEFF 		bl	imu_get_pitch
 1492              	.LVL121:
 1493 0a7c 1FED047A 		vldr.32	s14, .L386+84
 1494 0a80 5FED046A 		vldr.32	s13, .L386+88
 1495              		.loc 1 472 0
 1496 0a84 E24B     		ldr	r3, .L388
 1497              		.loc 1 470 0
 1498 0a86 20EE070A 		vmul.f32	s0, s0, s14
 1499              		.loc 1 472 0
 1500 0a8a D3ED007A 		vldr.32	s15, [r3]
 1501              		.loc 1 470 0
 1502 0a8e E14B     		ldr	r3, .L388+4
 1503 0a90 80EE266A 		vdiv.f32	s12, s0, s13
 1504              		.loc 1 472 0
 1505 0a94 B4EEE76A 		vcmpe.f32	s12, s15
 1506 0a98 F1EE10FA 		vmrs	APSR_nzcv, FPSCR
 1507              		.loc 1 470 0
 1508 0a9c 83ED006A 		vstr.32	s12, [r3]
 1509              		.loc 1 472 0
 1510 0aa0 07DD     		ble	.L347
 1511              		.loc 1 472 0 is_stmt 0 discriminator 1
 1512 0aa2 B9EE047A 		vmov.f32	s14, #-5.0e+0
 1513 0aa6 F4EEC77A 		vcmpe.f32	s15, s14
 1514 0aaa F1EE10FA 		vmrs	APSR_nzcv, FPSCR
 1515 0aae 00F3D981 		bgt	.L58
 1516              	.L347:
 1517 0ab2 D94F     		ldr	r7, .L388+8
 1518 0ab4 D94B     		ldr	r3, .L388+12
 1519 0ab6 97ED004A 		vldr.32	s8, [r7]
 1520              	.L57:
 1521              		.loc 1 480 0 is_stmt 1
 1522 0aba B6EE007A 		vmov.f32	s14, #5.0e-1
 1523 0abe 77EEC76A 		vsub.f32	s13, s15, s14
 1524 0ac2 B4EEE66A 		vcmpe.f32	s12, s13
 1525 0ac6 F1EE10FA 		vmrs	APSR_nzcv, FPSCR
 1526 0aca 07DD     		ble	.L60
 1527              		.loc 1 480 0 is_stmt 0 discriminator 1
 1528 0acc F3EE0E6A 		vmov.f32	s13, #3.0e+1
 1529 0ad0 F4EEE67A 		vcmpe.f32	s15, s13
 1530 0ad4 F1EE10FA 		vmrs	APSR_nzcv, FPSCR
 1531 0ad8 00F18881 		bmi	.L376
 1532              	.L60:
 1533              		.loc 1 483 0 is_stmt 1
 1534 0adc 9FEDD07A 		vldr.32	s14, .L388+16
 1535 0ae0 DDED026A 		vldr.32	s13, [sp, #8]
 1536 0ae4 F4EEC76A 		vcmpe.f32	s13, s14
 1537 0ae8 F1EE10FA 		vmrs	APSR_nzcv, FPSCR
 1538 0aec 24D5     		bpl	.L63
 1539              		.loc 1 483 0 is_stmt 0 discriminator 1
ARM GAS  /tmp/ccxadqkm.s 			page 28


 1540 0aee 9BED007A 		vldr.32	s14, [fp]
 1541 0af2 B4EEE77A 		vcmpe.f32	s14, s15
 1542 0af6 F1EE10FA 		vmrs	APSR_nzcv, FPSCR
 1543 0afa 17D5     		bpl	.L65
 1544              		.loc 1 483 0 discriminator 2
 1545 0afc F6EE006A 		vmov.f32	s13, #5.0e-1
 1546 0b00 77EEA65A 		vadd.f32	s11, s15, s13
 1547 0b04 B4EEE56A 		vcmpe.f32	s12, s11
 1548 0b08 F1EE10FA 		vmrs	APSR_nzcv, FPSCR
 1549 0b0c 0ED5     		bpl	.L65
 1550              		.loc 1 483 0 discriminator 3
 1551 0b0e D3ED075A 		vldr.32	s11, [r3, #28]
 1552 0b12 F4EE665A 		vcmp.f32	s11, s13
 1553 0b16 F1EE10FA 		vmrs	APSR_nzcv, FPSCR
 1554 0b1a 07D1     		bne	.L65
 1555              		.loc 1 484 0 is_stmt 1
 1556 0b1c C149     		ldr	r1, .L388+20
 1557 0b1e BC4A     		ldr	r2, .L388
 1558 0b20 D1ED006A 		vldr.32	s13, [r1]
 1559 0b24 77EEE67A 		vsub.f32	s15, s15, s13
 1560 0b28 C2ED007A 		vstr.32	s15, [r2]
 1561              	.L65:
 1562              		.loc 1 488 0
 1563 0b2c B4EEE77A 		vcmpe.f32	s14, s15
 1564 0b30 F1EE10FA 		vmrs	APSR_nzcv, FPSCR
 1565 0b34 00F34A81 		bgt	.L178
 1566              	.L63:
 1567              		.loc 1 496 0
 1568 0b38 BB49     		ldr	r1, .L388+24
 1569              		.loc 1 495 0
 1570 0b3a 93ED000A 		vldr.32	s0, [r3]
 1571              		.loc 1 496 0
 1572 0b3e D1ED005A 		vldr.32	s11, [r1]
 1573 0b42 93ED015A 		vldr.32	s10, [r3, #4]
 1574              		.loc 1 497 0
 1575 0b46 D3ED023A 		vldr.32	s7, [r3, #8]
 1576 0b4a B848     		ldr	r0, .L388+28
 1577              		.loc 1 503 0
 1578 0b4c DFEDB84A 		vldr.32	s9, .L388+32
 1579              		.loc 1 497 0
 1580 0b50 90ED007A 		vldr.32	s14, [r0]
 1581 0b54 DFF808B3 		ldr	fp, .L388+80
 1582              		.loc 1 495 0
 1583 0b58 B64A     		ldr	r2, .L388+36
 1584              		.loc 1 497 0
 1585 0b5a C3EEA56A 		vdiv.f32	s13, s7, s11
 1586              		.loc 1 493 0
 1587 0b5e 77EEC67A 		vsub.f32	s15, s15, s12
 1588              		.loc 1 496 0
 1589 0b62 65EE255A 		vmul.f32	s11, s10, s11
 1590              		.loc 1 497 0
 1591 0b66 37EEC77A 		vsub.f32	s14, s15, s14
 1592              		.loc 1 496 0
 1593 0b6a B0EE446A 		vmov.f32	s12, s8
 1594              		.loc 1 497 0
 1595 0b6e 27EE267A 		vmul.f32	s14, s14, s13
 1596              		.loc 1 496 0
ARM GAS  /tmp/ccxadqkm.s 			page 29


 1597 0b72 A7EEA56A 		vfma.f32	s12, s15, s11
 1598              		.loc 1 495 0
 1599 0b76 27EE800A 		vmul.f32	s0, s15, s0
 1600              		.loc 1 503 0
 1601 0b7a B4EEE47A 		vcmpe.f32	s14, s9
 1602 0b7e F1EE10FA 		vmrs	APSR_nzcv, FPSCR
 1603              		.loc 1 496 0
 1604 0b82 87ED006A 		vstr.32	s12, [r7]
 1605              		.loc 1 500 0
 1606 0b86 C0ED007A 		vstr.32	s15, [r0]
 1607              		.loc 1 497 0
 1608 0b8a 8BED007A 		vstr.32	s14, [fp]
 1609              		.loc 1 495 0
 1610 0b8e 82ED000A 		vstr.32	s0, [r2]
 1611              		.loc 1 503 0
 1612 0b92 08D5     		bpl	.L68
 1613              		.loc 1 503 0 is_stmt 0 discriminator 1
 1614 0b94 DFEDA87A 		vldr.32	s15, .L388+40
 1615 0b98 B4EE677A 		vcmp.f32	s14, s15
 1616 0b9c F1EE10FA 		vmrs	APSR_nzcv, FPSCR
 1617 0ba0 C8BF     		it	gt
 1618 0ba2 B0EE487A 		vmovgt.f32	s14, s16
 1619              	.L68:
 1620              		.loc 1 506 0 is_stmt 1
 1621 0ba6 A548     		ldr	r0, .L388+44
 1622 0ba8 D3ED0C7A 		vldr.32	s15, [r3, #48]
 1623 0bac 90ED002A 		vldr.32	s4, [r0]
 1624 0bb0 32EE477A 		vsub.f32	s14, s4, s14
 1625              		.loc 1 509 0
 1626 0bb4 F7EE000A 		vmov.f32	s1, #1.0e+0
 1627              		.loc 1 506 0
 1628 0bb8 A7EEC72A 		vfms.f32	s4, s15, s14
 1629              		.loc 1 509 0
 1630 0bbc B4EEE00A 		vcmpe.f32	s0, s1
 1631 0bc0 F1EE10FA 		vmrs	APSR_nzcv, FPSCR
 1632              		.loc 1 506 0
 1633 0bc4 80ED002A 		vstr.32	s4, [r0]
 1634              		.loc 1 507 0
 1635 0bc8 8BED002A 		vstr.32	s4, [fp]
 1636              		.loc 1 509 0
 1637 0bcc 40F3E181 		ble	.L336
 1638              		.loc 1 510 0
 1639 0bd0 8BED008A 		vstr.32	s16, [fp]
 1640              	.L72:
 1641              		.loc 1 518 0
 1642 0bd4 F0EE000A 		vmov.f32	s1, #2.0e+0
 1643 0bd8 B8EE000A 		vmov.f32	s0, #-2.0e+0
 1644 0bdc 9548     		ldr	r0, .L388+36
 1645 0bde FFF7FEFF 		bl	utils_truncate_number
 1646              	.LVL122:
 1647              		.loc 1 519 0
 1648 0be2 944B     		ldr	r3, .L388+36
 1649 0be4 97ED007A 		vldr.32	s14, [r7]
 1650 0be8 D3ED007A 		vldr.32	s15, [r3]
 1651              		.loc 1 525 0
 1652 0bec 8A48     		ldr	r0, .L388+8
 1653              		.loc 1 519 0
ARM GAS  /tmp/ccxadqkm.s 			page 30


 1654 0bee 37EEC76A 		vsub.f32	s12, s15, s14
 1655 0bf2 F0EE006A 		vmov.f32	s13, #2.0e+0
 1656 0bf6 B4EEE66A 		vcmpe.f32	s12, s13
 1657 0bfa F1EE10FA 		vmrs	APSR_nzcv, FPSCR
 1658              		.loc 1 520 0
 1659 0bfe C8BF     		it	gt
 1660 0c00 37EEE67A 		vsubgt.f32	s14, s15, s13
 1661              		.loc 1 525 0
 1662 0c04 F0EE480A 		vmov.f32	s1, s16
 1663              		.loc 1 522 0
 1664 0c08 77EE876A 		vadd.f32	s13, s15, s14
 1665              		.loc 1 520 0
 1666 0c0c C8BF     		it	gt
 1667 0c0e 87ED007A 		vstrgt.32	s14, [r7]
 1668              		.loc 1 522 0
 1669 0c12 B8EE007A 		vmov.f32	s14, #-2.0e+0
 1670 0c16 F4EEC76A 		vcmpe.f32	s13, s14
 1671 0c1a F1EE10FA 		vmrs	APSR_nzcv, FPSCR
 1672              		.loc 1 523 0
 1673 0c1e 48BF     		it	mi
 1674 0c20 77EE677A 		vsubmi.f32	s15, s14, s15
 1675              		.loc 1 525 0
 1676 0c24 B8EE000A 		vmov.f32	s0, #-2.0e+0
 1677              		.loc 1 523 0
 1678 0c28 48BF     		it	mi
 1679 0c2a C7ED007A 		vstrmi.32	s15, [r7]
 1680              		.loc 1 525 0
 1681 0c2e FFF7FEFF 		bl	utils_truncate_number
 1682              	.LVL123:
 1683              		.loc 1 526 0
 1684 0c32 B8EE000A 		vmov.f32	s0, #-2.0e+0
 1685 0c36 F0EE480A 		vmov.f32	s1, s16
 1686 0c3a 7E48     		ldr	r0, .L388+36
 1687 0c3c FFF7FEFF 		bl	utils_truncate_number
 1688              	.LVL124:
 1689              		.loc 1 529 0
 1690 0c40 7C4B     		ldr	r3, .L388+36
 1691 0c42 D7ED007A 		vldr.32	s15, [r7]
 1692 0c46 D3ED006A 		vldr.32	s13, [r3]
 1693              		.loc 1 532 0
 1694 0c4a 714B     		ldr	r3, .L388
 1695              		.loc 1 529 0
 1696 0c4c 9BED007A 		vldr.32	s14, [fp]
 1697              		.loc 1 532 0
 1698 0c50 93ED006A 		vldr.32	s12, [r3]
 1699 0c54 6F4B     		ldr	r3, .L388+4
 1700              		.loc 1 529 0
 1701 0c56 7A48     		ldr	r0, .L388+48
 1702              		.loc 1 532 0
 1703 0c58 D3ED005A 		vldr.32	s11, [r3]
 1704              		.loc 1 529 0
 1705 0c5c 76EEA77A 		vadd.f32	s15, s13, s15
 1706              		.loc 1 532 0
 1707 0c60 F1EE046A 		vmov.f32	s13, #5.0e+0
 1708              		.loc 1 529 0
 1709 0c64 77EE877A 		vadd.f32	s15, s15, s14
 1710              		.loc 1 532 0
ARM GAS  /tmp/ccxadqkm.s 			page 31


 1711 0c68 36EE667A 		vsub.f32	s14, s12, s13
 1712              		.loc 1 533 0
 1713 0c6c F0EE480A 		vmov.f32	s1, s16
 1714              		.loc 1 532 0
 1715 0c70 B4EEE57A 		vcmpe.f32	s14, s11
 1716 0c74 F1EE10FA 		vmrs	APSR_nzcv, FPSCR
 1717              		.loc 1 533 0
 1718 0c78 CCBF     		ite	gt
 1719 0c7a BFEE000A 		vmovgt.f32	s0, #-1.0e+0
 1720              		.loc 1 535 0
 1721 0c7e B8EE000A 		vmovle.f32	s0, #-2.0e+0
 1722              		.loc 1 529 0
 1723 0c82 C0ED007A 		vstr.32	s15, [r0]
 1724              		.loc 1 535 0
 1725 0c86 FFF7FEFF 		bl	utils_truncate_number
 1726              	.LVL125:
 1727 0c8a FFF7F6BB 		b	.L54
 1728              	.LVL126:
 1729              	.L355:
 1730              		.loc 1 174 0
 1731 0c8e 6D4A     		ldr	r2, .L388+52
 1732 0c90 0023     		movs	r3, #0
 1733 0c92 1370     		strb	r3, [r2]
 1734              	.LBE168:
 1735              		.loc 1 927 0
 1736 0c94 05B0     		add	sp, sp, #20
 1737              		.cfi_remember_state
 1738              		.cfi_def_cfa_offset 68
 1739              		@ sp needed
 1740 0c96 BDEC088B 		vldm	sp!, {d8-d11}
 1741              		.cfi_restore 86
 1742              		.cfi_restore 87
 1743              		.cfi_restore 84
 1744              		.cfi_restore 85
 1745              		.cfi_restore 82
 1746              		.cfi_restore 83
 1747              		.cfi_restore 80
 1748              		.cfi_restore 81
 1749              		.cfi_def_cfa_offset 36
 1750 0c9a BDE8F08F 		pop	{r4, r5, r6, r7, r8, r9, r10, fp, pc}
 1751              	.LVL127:
 1752              	.L40:
 1753              		.cfi_restore_state
 1754              	.LBB169:
 1755              		.loc 1 436 0
 1756 0c9e 002D     		cmp	r5, #0
 1757 0ca0 3FF4B4AB 		beq	.L39
 1758              		.loc 1 437 0
 1759 0ca4 DDED027A 		vldr.32	s15, [sp, #8]
 1760 0ca8 F1EE677A 		vneg.f32	s15, s15
 1761 0cac CDED027A 		vstr.32	s15, [sp, #8]
 1762 0cb0 FFF7ACBB 		b	.L39
 1763              	.LVL128:
 1764              	.L334:
 1765              		.loc 1 346 0
 1766 0cb4 93ED102A 		vldr.32	s4, [r3, #64]
 1767 0cb8 B0EE6A0A 		vmov.f32	s0, s21
ARM GAS  /tmp/ccxadqkm.s 			page 32


 1768 0cbc F0EE481A 		vmov.f32	s3, s16
 1769 0cc0 FFF7FEFF 		bl	utils_map
 1770              	.LVL129:
 1771 0cc4 FFF71EBB 		b	.L26
 1772              	.LVL130:
 1773              	.L357:
 1774              		.loc 1 206 0
 1775 0cc8 1420     		movs	r0, #20
 1776 0cca FFF7FEFF 		bl	mc_interface_fault_stop
 1777              	.LVL131:
 1778              		.loc 1 207 0
 1779 0cce 9FED5E0A 		vldr.32	s0, .L388+56
 1780 0cd2 8DED028A 		vstr.32	s16, [sp, #8]
 1781 0cd6 FFF7F6B9 		b	.L9
 1782              	.LVL132:
 1783              	.L360:
 1784              		.loc 1 309 0
 1785 0cda 1620     		movs	r0, #22
 1786 0cdc FFF7FEFF 		bl	mc_interface_fault_info
 1787              	.LVL133:
 1788              		.loc 1 310 0
 1789 0ce0 9FED590A 		vldr.32	s0, .L388+56
 1790 0ce4 8DED038A 		vstr.32	s16, [sp, #12]
 1791 0ce8 FFF7AABA 		b	.L21
 1792              	.LVL134:
 1793              	.L358:
 1794              		.loc 1 271 0
 1795 0cec B0EE482A 		vmov.f32	s4, s16
 1796 0cf0 B0EE6A0A 		vmov.f32	s0, s21
 1797 0cf4 FFF7FEFF 		bl	utils_map
 1798              	.LVL135:
 1799 0cf8 F0EE401A 		vmov.f32	s3, s0
 1800              	.LVL136:
 1801 0cfc FFF761BA 		b	.L18
 1802              	.LVL137:
 1803              	.L333:
 1804              		.loc 1 240 0
 1805 0d00 D9ED040A 		vldr.32	s1, [r9, #16]
 1806 0d04 99ED031A 		vldr.32	s2, [r9, #12]
 1807 0d08 B7EE002A 		vmov.f32	s4, #1.0e+0
 1808 0d0c F6EE001A 		vmov.f32	s3, #5.0e-1
 1809 0d10 FFF7FEFF 		bl	utils_map
 1810              	.LVL138:
 1811 0d14 8DED020A 		vstr.32	s0, [sp, #8]
 1812 0d18 FFF722BA 		b	.L16
 1813              	.LVL139:
 1814              	.L371:
 1815              		.loc 1 764 0
 1816 0d1c FFF7FEFF 		bl	timeout_reset
 1817              	.LVL140:
 1818 0d20 B9E5     		b	.L139
 1819              	.LVL141:
 1820              	.L342:
 1821              		.loc 1 544 0
 1822 0d22 0024     		movs	r4, #0
 1823              	.LVL142:
 1824 0d24 6FE4     		b	.L99
ARM GAS  /tmp/ccxadqkm.s 			page 33


 1825              	.LVL143:
 1826              	.L367:
 1827              		.loc 1 627 0 discriminator 1
 1828 0d26 494B     		ldr	r3, .L388+60
 1829 0d28 9FED497A 		vldr.32	s14, .L388+64
 1830 0d2c D3ED006A 		vldr.32	s13, [r3]
 1831 0d30 D7ED007A 		vldr.32	s15, [r7]
 1832 0d34 F4EEC76A 		vcmpe.f32	s13, s14
 1833 0d38 F1EE10FA 		vmrs	APSR_nzcv, FPSCR
 1834 0d3c 7FF5F7AC 		bpl	.L104
 1835              		.loc 1 631 0
 1836 0d40 DFED446A 		vldr.32	s13, .L388+68
 1837              		.loc 1 628 0
 1838 0d44 83ED007A 		vstr.32	s14, [r3]
 1839              		.loc 1 631 0
 1840 0d48 F4EEE67A 		vcmpe.f32	s15, s13
 1841 0d4c F1EE10FA 		vmrs	APSR_nzcv, FPSCR
 1842 0d50 40F36781 		ble	.L377
 1843 0d54 DFED406A 		vldr.32	s13, .L388+72
 1844              	.L106:
 1845              		.loc 1 632 0
 1846 0d58 9DED037A 		vldr.32	s14, [sp, #12]
 1847 0d5c DDED02AA 		vldr.32	s21, [sp, #8]
 1848              	.LVL144:
 1849              		.loc 1 633 0
 1850 0d60 C3ED006A 		vstr.32	s13, [r3]
 1851              		.loc 1 632 0
 1852 0d64 77EE877A 		vadd.f32	s15, s15, s14
 1853 0d68 77EEAAAA 		vadd.f32	s21, s15, s21
 1854 0d6c CDED02AA 		vstr.32	s21, [sp, #8]
 1855              		.loc 1 633 0
 1856 0d70 63E1     		b	.L111
 1857              	.LVL145:
 1858              	.L366:
 1859              		.loc 1 600 0
 1860 0d72 07EE904A 		vmov	s15, r4	@ int
 1861 0d76 9FED397A 		vldr.32	s14, .L388+76
 1862 0d7a F8EEE76A 		vcvt.f32.s32	s13, s15
 1863 0d7e D6ED007A 		vldr.32	s15, [r6]
 1864 0d82 66EE876A 		vmul.f32	s13, s13, s14
 1865 0d86 86EEA97A 		vdiv.f32	s14, s13, s19
 1866 0d8a 77EE277A 		vadd.f32	s15, s14, s15
 1867 0d8e C6ED007A 		vstr.32	s15, [r6]
 1868 0d92 26E4     		b	.L119
 1869              	.LVL146:
 1870              	.L365:
 1871              		.loc 1 698 0
 1872 0d94 07EE904A 		vmov	s15, r4	@ int
 1873 0d98 9FED307A 		vldr.32	s14, .L388+76
 1874 0d9c F8EEE76A 		vcvt.f32.s32	s13, s15
 1875 0da0 D6ED007A 		vldr.32	s15, [r6]
 1876 0da4 66EE876A 		vmul.f32	s13, s13, s14
 1877 0da8 86EEA97A 		vdiv.f32	s14, s13, s19
 1878 0dac 77EE277A 		vadd.f32	s15, s14, s15
 1879 0db0 C6ED007A 		vstr.32	s15, [r6]
 1880 0db4 FFF7E8BB 		b	.L122
 1881              	.LVL147:
ARM GAS  /tmp/ccxadqkm.s 			page 34


 1882              	.L364:
 1883              		.loc 1 716 0 discriminator 1
 1884 0db8 99F81D30 		ldrb	r3, [r9, #29]	@ zero_extendqisi2
 1885 0dbc 002B     		cmp	r3, #0
 1886 0dbe 3FF4A9AB 		beq	.L126
 1887 0dc2 F0EE6A7A 		vmov.f32	s15, s21
 1888              		.loc 1 547 0
 1889 0dc6 0025     		movs	r5, #0
 1890              	.LVL148:
 1891 0dc8 FFF7B6BB 		b	.L128
 1892              	.LVL149:
 1893              	.L178:
 1894              		.loc 1 488 0 discriminator 2
 1895 0dcc D3ED075A 		vldr.32	s11, [r3, #28]
 1896 0dd0 F6EE006A 		vmov.f32	s13, #5.0e-1
 1897 0dd4 F4EE665A 		vcmp.f32	s11, s13
 1898 0dd8 F1EE10FA 		vmrs	APSR_nzcv, FPSCR
 1899 0ddc 3FF4ACAE 		beq	.L63
 1900              		.loc 1 489 0
 1901 0de0 0B4A     		ldr	r2, .L388
 1902 0de2 F0EE477A 		vmov.f32	s15, s14
 1903 0de6 82ED007A 		vstr.32	s14, [r2]
 1904 0dea A5E6     		b	.L63
 1905              	.L376:
 1906              		.loc 1 480 0 discriminator 2
 1907 0dec D3ED076A 		vldr.32	s13, [r3, #28]
 1908 0df0 F4EE476A 		vcmp.f32	s13, s14
 1909 0df4 F1EE10FA 		vmrs	APSR_nzcv, FPSCR
 1910 0df8 7FF470AE 		bne	.L60
 1911              		.loc 1 481 0
 1912 0dfc 0949     		ldr	r1, .L388+20
 1913 0dfe 044A     		ldr	r2, .L388
 1914 0e00 91ED007A 		vldr.32	s14, [r1]
 1915 0e04 77EE877A 		vadd.f32	s15, s15, s14
 1916 0e08 C2ED007A 		vstr.32	s15, [r2]
 1917 0e0c 66E6     		b	.L60
 1918              	.L389:
 1919 0e0e 00BF     		.align	2
 1920              	.L388:
 1921 0e10 00000000 		.word	.LANCHOR19
 1922 0e14 00000000 		.word	.LANCHOR18
 1923 0e18 00000000 		.word	.LANCHOR20
 1924 0e1c 00000000 		.word	.LANCHOR13
 1925 0e20 CDCC4C3D 		.word	1028443341
 1926 0e24 00000000 		.word	.LANCHOR22
 1927 0e28 00000000 		.word	.LANCHOR24
 1928 0e2c 00000000 		.word	.LANCHOR25
 1929 0e30 0AD7233D 		.word	1025758986
 1930 0e34 00000000 		.word	.LANCHOR23
 1931 0e38 0AD723BD 		.word	3173242634
 1932 0e3c 00000000 		.word	.LANCHOR27
 1933 0e40 00000000 		.word	.LANCHOR28
 1934 0e44 00000000 		.word	.LANCHOR1
 1935 0e48 00000000 		.word	0
 1936 0e4c 00000000 		.word	.LANCHOR31
 1937 0e50 00786647 		.word	1197897728
 1938 0e54 CDCCCC3C 		.word	1020054733
ARM GAS  /tmp/ccxadqkm.s 			page 35


 1939 0e58 00796647 		.word	1197897984
 1940 0e5c 00007A44 		.word	1148846080
 1941 0e60 00000000 		.word	.LANCHOR26
 1942              	.L58:
 1943              		.loc 1 472 0 discriminator 2
 1944 0e64 BC4B     		ldr	r3, .L390
 1945 0e66 D3ED076A 		vldr.32	s13, [r3, #28]
 1946 0e6a B7EE007A 		vmov.f32	s14, #1.0e+0
 1947 0e6e F4EE476A 		vcmp.f32	s13, s14
 1948 0e72 F1EE10FA 		vmrs	APSR_nzcv, FPSCR
 1949 0e76 40F03281 		bne	.L378
 1950              		.loc 1 473 0
 1951 0e7a B84A     		ldr	r2, .L390+4
 1952              		.loc 1 475 0
 1953 0e7c B84F     		ldr	r7, .L390+8
 1954              		.loc 1 473 0
 1955 0e7e 92ED007A 		vldr.32	s14, [r2]
 1956 0e82 B84A     		ldr	r2, .L390+12
 1957              		.loc 1 475 0
 1958 0e84 9FEDB84A 		vldr.32	s8, .L390+16
 1959              		.loc 1 474 0
 1960 0e88 83ED018A 		vstr.32	s16, [r3, #4]
 1961              		.loc 1 473 0
 1962 0e8c 77EEC77A 		vsub.f32	s15, s15, s14
 1963              		.loc 1 475 0
 1964 0e90 87ED008A 		vstr.32	s16, [r7]
 1965              		.loc 1 473 0
 1966 0e94 C2ED007A 		vstr.32	s15, [r2]
 1967 0e98 0FE6     		b	.L57
 1968              	.LVL150:
 1969              	.L192:
 1970              		.loc 1 547 0
 1971 0e9a 0025     		movs	r5, #0
 1972              	.LVL151:
 1973              		.loc 1 544 0
 1974 0e9c 2C46     		mov	r4, r5
 1975              	.LVL152:
 1976              		.loc 1 543 0
 1977 0e9e DFEDB2AA 		vldr.32	s21, .L390+16
 1978              	.LVL153:
 1979 0ea2 FFF7B0BB 		b	.L99
 1980              	.LVL154:
 1981              	.L372:
 1982              	.LBB133:
 1983              		.loc 1 788 0
 1984 0ea6 B14B     		ldr	r3, .L390+20
 1985 0ea8 1A78     		ldrb	r2, [r3]	@ zero_extendqisi2
 1986 0eaa 002A     		cmp	r2, #0
 1987 0eac 00F02081 		beq	.L144
 1988 0eb0 AF4B     		ldr	r3, .L390+24
 1989 0eb2 93ED000A 		vldr.32	s0, [r3]
 1990              	.L145:
 1991              		.loc 1 793 0
 1992 0eb6 FFF7FEFF 		bl	mc_interface_set_pid_speed
 1993              	.LVL155:
 1994              		.loc 1 796 0
 1995 0eba 99F83830 		ldrb	r3, [r9, #56]	@ zero_extendqisi2
ARM GAS  /tmp/ccxadqkm.s 			page 36


 1996 0ebe 002B     		cmp	r3, #0
 1997 0ec0 3FF4B9A8 		beq	.L3
 1998              	.LBB134:
 1999              		.loc 1 797 0
 2000 0ec4 FFF7FEFF 		bl	mc_interface_get_tot_current_directional_filtered
 2001              	.LVL156:
 2002              	.LBB135:
 2003              		.loc 1 799 0
 2004 0ec8 0024     		movs	r4, #0
 2005              	.LVL157:
 2006              	.LBE135:
 2007              		.loc 1 797 0
 2008 0eca F0EE408A 		vmov.f32	s17, s0
 2009              	.LVL158:
 2010 0ece 02E0     		b	.L148
 2011              	.LVL159:
 2012              	.L146:
 2013              	.LBB144:
 2014              		.loc 1 799 0 discriminator 2
 2015 0ed0 0A2C     		cmp	r4, #10
 2016 0ed2 3FF4B0A8 		beq	.L3
 2017              	.LVL160:
 2018              	.L148:
 2019              	.LBB136:
 2020              		.loc 1 800 0
 2021 0ed6 2046     		mov	r0, r4
 2022 0ed8 FFF7FEFF 		bl	comm_can_get_status_msg_index
 2023              	.LVL161:
 2024              		.loc 1 802 0
 2025 0edc 0268     		ldr	r2, [r0]
 2026 0ede 002A     		cmp	r2, #0
 2027              	.LBE136:
 2028              		.loc 1 799 0
 2029 0ee0 04F10104 		add	r4, r4, #1
 2030              	.LVL162:
 2031              	.LBB143:
 2032              		.loc 1 802 0
 2033 0ee4 F4DB     		blt	.L146
 2034              	.LBB137:
 2035              	.LBB138:
 2036              	.LBB139:
 2037              	.LBB140:
 2038              		.loc 3 231 0 discriminator 1
 2039 0ee6 A34B     		ldr	r3, .L390+28
 2040              	.LBE140:
 2041              	.LBE139:
 2042              		.loc 3 267 0 discriminator 1
 2043 0ee8 4168     		ldr	r1, [r0, #4]
 2044              	.LBB142:
 2045              	.LBB141:
 2046              		.loc 3 231 0 discriminator 1
 2047 0eea 9B6A     		ldr	r3, [r3, #40]
 2048              	.LVL163:
 2049              	.LBE141:
 2050              	.LBE142:
 2051              		.loc 3 267 0 discriminator 1
 2052 0eec 5B1A     		subs	r3, r3, r1
ARM GAS  /tmp/ccxadqkm.s 			page 37


 2053              	.LBE138:
 2054              	.LBE137:
 2055              		.loc 1 802 0 discriminator 1
 2056 0eee 07EE903A 		vmov	s15, r3	@ int
 2057 0ef2 F8EE677A 		vcvt.f32.u32	s15, s15
 2058 0ef6 87EEA97A 		vdiv.f32	s14, s15, s19
 2059 0efa B4EECA7A 		vcmpe.f32	s14, s20
 2060 0efe F1EE10FA 		vmrs	APSR_nzcv, FPSCR
 2061 0f02 E5D5     		bpl	.L146
 2062              		.loc 1 803 0
 2063 0f04 D0B2     		uxtb	r0, r2
 2064              	.LVL164:
 2065 0f06 B0EE680A 		vmov.f32	s0, s17
 2066 0f0a FFF7FEFF 		bl	comm_can_set_current
 2067              	.LVL165:
 2068 0f0e DFE7     		b	.L146
 2069              	.LVL166:
 2070              	.L164:
 2071              	.LBE143:
 2072              	.LBE144:
 2073              	.LBE134:
 2074              	.LBE133:
 2075              	.LBB145:
 2076              		.loc 1 867 0
 2077 0f10 F1EE6AAA 		vneg.f32	s21, s21
 2078              	.LVL167:
 2079              		.loc 1 874 0
 2080 0f14 03F0FF0A 		and	r10, r3, #255
 2081              	.LVL168:
 2082 0f18 002B     		cmp	r3, #0
 2083 0f1a 40F03381 		bne	.L379
 2084              	.LVL169:
 2085              	.L167:
 2086              		.loc 1 904 0
 2087 0f1e B1EE6A0A 		vneg.f32	s0, s21
 2088 0f22 FFF7FEFF 		bl	mc_interface_set_current_rel
 2089              	.LVL170:
 2090 0f26 FFF786B8 		b	.L3
 2091              	.LVL171:
 2092              	.L361:
 2093              	.LBE145:
 2094              		.loc 1 421 0
 2095 0f2a FFF7FEFF 		bl	mc_interface_get_enviro
 2096              	.LVL172:
 2097 0f2e 8104     		lsls	r1, r0, #18
 2098 0f30 2AD5     		bpl	.L46
 2099              	.L48:
 2100              		.loc 1 422 0
 2101 0f32 FFF7FEFF 		bl	mc_interface_get_brk_reku_float
 2102              	.LVL173:
 2103 0f36 9DED027A 		vldr.32	s14, [sp, #8]
 2104 0f3a DDED037A 		vldr.32	s15, [sp, #12]
 2105 0f3e F7EE000A 		vmov.f32	s1, #1.0e+0
 2106 0f42 30EEC77A 		vsub.f32	s14, s1, s14
 2107              		.loc 1 423 0
 2108 0f46 5846     		mov	r0, fp
 2109              		.loc 1 422 0
ARM GAS  /tmp/ccxadqkm.s 			page 38


 2110 0f48 E0EE077A 		vfma.f32	s15, s0, s14
 2111              		.loc 1 423 0
 2112 0f4c B0EE480A 		vmov.f32	s0, s16
 2113              		.loc 1 422 0
 2114 0f50 CDED037A 		vstr.32	s15, [sp, #12]
 2115              		.loc 1 423 0
 2116 0f54 FFF7FEFF 		bl	utils_truncate_number
 2117              	.LVL174:
 2118              	.L47:
 2119              		.loc 1 426 0
 2120 0f58 9DED027A 		vldr.32	s14, [sp, #8]
 2121 0f5c DDED037A 		vldr.32	s15, [sp, #12]
 2122 0f60 77EE677A 		vsub.f32	s15, s14, s15
 2123 0f64 CDED027A 		vstr.32	s15, [sp, #8]
 2124              		.loc 1 429 0
 2125 0f68 FFF750BA 		b	.L39
 2126              	.L41:
 2127              		.loc 1 406 0
 2128 0f6c DDED026A 		vldr.32	s13, [sp, #8]
 2129 0f70 B0EE007A 		vmov.f32	s14, #2.0e+0
 2130 0f74 FFEE007A 		vmov.f32	s15, #-1.0e+0
 2131 0f78 E6EE877A 		vfma.f32	s15, s13, s14
 2132 0f7c CDED027A 		vstr.32	s15, [sp, #8]
 2133              		.loc 1 409 0
 2134 0f80 FFF7FEFF 		bl	mc_interface_get_enviro
 2135              	.LVL175:
 2136 0f84 8004     		lsls	r0, r0, #18
 2137 0f86 D4D4     		bmi	.L48
 2138              	.L46:
 2139              		.loc 1 421 0 discriminator 1
 2140 0f88 FFF7FEFF 		bl	mc_interface_get_enviro
 2141              	.LVL176:
 2142 0f8c 0204     		lsls	r2, r0, #16
 2143 0f8e D0D4     		bmi	.L48
 2144 0f90 E2E7     		b	.L47
 2145              	.L336:
 2146              		.loc 1 511 0
 2147 0f92 B6EE001A 		vmov.f32	s2, #5.0e-1
 2148 0f96 B4EEC10A 		vcmpe.f32	s0, s2
 2149 0f9a F1EE10FA 		vmrs	APSR_nzcv, FPSCR
 2150 0f9e 3FF519AE 		bmi	.L72
 2151              		.loc 1 514 0
 2152 0fa2 F0EE481A 		vmov.f32	s3, s16
 2153 0fa6 FFF7FEFF 		bl	utils_map
 2154              	.LVL177:
 2155 0faa 8BED000A 		vstr.32	s0, [fp]
 2156 0fae 11E6     		b	.L72
 2157              	.LVL178:
 2158              	.L354:
 2159              	.LBE169:
 2160              		.loc 1 154 0
 2161 0fb0 2022     		movs	r2, #32
 2162 0fb2 4FF48061 		mov	r1, #1024
 2163 0fb6 7048     		ldr	r0, .L390+32
 2164              	.LVL179:
 2165 0fb8 FFF7FEFF 		bl	_pal_lld_setgroupmode
 2166              	.LVL180:
ARM GAS  /tmp/ccxadqkm.s 			page 39


 2167              		.loc 1 155 0
 2168 0fbc 2022     		movs	r2, #32
 2169 0fbe 4FF40061 		mov	r1, #2048
 2170 0fc2 6D48     		ldr	r0, .L390+32
 2171 0fc4 FFF7FEFF 		bl	_pal_lld_setgroupmode
 2172              	.LVL181:
 2173 0fc8 FFF728B8 		b	.L2
 2174              	.LVL182:
 2175              	.L374:
 2176              	.LBB170:
 2177              		.loc 1 848 0
 2178 0fcc B0EE6A0A 		vmov.f32	s0, s21
 2179 0fd0 FFF7FEFF 		bl	mc_interface_set_brake_current_rel
 2180              	.LVL183:
 2181              		.loc 1 851 0
 2182 0fd4 99F83830 		ldrb	r3, [r9, #56]	@ zero_extendqisi2
 2183 0fd8 002B     		cmp	r3, #0
 2184 0fda 3FF42CA8 		beq	.L3
 2185              	.LBB146:
 2186              		.loc 1 852 0
 2187 0fde 0024     		movs	r4, #0
 2188              	.LVL184:
 2189 0fe0 02E0     		b	.L163
 2190              	.LVL185:
 2191              	.L161:
 2192              		.loc 1 852 0 is_stmt 0 discriminator 2
 2193 0fe2 0A2C     		cmp	r4, #10
 2194 0fe4 3FF427A8 		beq	.L3
 2195              	.LVL186:
 2196              	.L163:
 2197              	.LBB147:
 2198              		.loc 1 853 0 is_stmt 1
 2199 0fe8 2046     		mov	r0, r4
 2200 0fea FFF7FEFF 		bl	comm_can_get_status_msg_index
 2201              	.LVL187:
 2202              		.loc 1 855 0
 2203 0fee 0268     		ldr	r2, [r0]
 2204 0ff0 002A     		cmp	r2, #0
 2205              	.LBE147:
 2206              		.loc 1 852 0
 2207 0ff2 04F10104 		add	r4, r4, #1
 2208              	.LVL188:
 2209              	.LBB154:
 2210              		.loc 1 855 0
 2211 0ff6 F4DB     		blt	.L161
 2212              	.LBB148:
 2213              	.LBB149:
 2214              	.LBB150:
 2215              	.LBB151:
 2216              		.loc 3 231 0 discriminator 1
 2217 0ff8 5E4B     		ldr	r3, .L390+28
 2218              	.LBE151:
 2219              	.LBE150:
 2220              		.loc 3 267 0 discriminator 1
 2221 0ffa 4168     		ldr	r1, [r0, #4]
 2222              	.LBB153:
 2223              	.LBB152:
ARM GAS  /tmp/ccxadqkm.s 			page 40


 2224              		.loc 3 231 0 discriminator 1
 2225 0ffc 9B6A     		ldr	r3, [r3, #40]
 2226              	.LVL189:
 2227              	.LBE152:
 2228              	.LBE153:
 2229              		.loc 3 267 0 discriminator 1
 2230 0ffe 5B1A     		subs	r3, r3, r1
 2231              	.LBE149:
 2232              	.LBE148:
 2233              		.loc 1 855 0 discriminator 1
 2234 1000 07EE903A 		vmov	s15, r3	@ int
 2235 1004 F8EE677A 		vcvt.f32.u32	s15, s15
 2236 1008 87EEA97A 		vdiv.f32	s14, s15, s19
 2237 100c B4EECA7A 		vcmpe.f32	s14, s20
 2238 1010 F1EE10FA 		vmrs	APSR_nzcv, FPSCR
 2239 1014 E5D5     		bpl	.L161
 2240              		.loc 1 856 0
 2241 1016 D0B2     		uxtb	r0, r2
 2242              	.LVL190:
 2243 1018 B0EE6A0A 		vmov.f32	s0, s21
 2244 101c FFF7FEFF 		bl	comm_can_set_current_brake_rel
 2245              	.LVL191:
 2246 1020 DFE7     		b	.L161
 2247              	.LVL192:
 2248              	.L377:
 2249              	.LBE154:
 2250              	.LBE146:
 2251              		.loc 1 635 0
 2252 1022 DFED566A 		vldr.32	s13, .L390+36
 2253 1026 DDED02AA 		vldr.32	s21, [sp, #8]
 2254              	.LVL193:
 2255 102a F4EEE67A 		vcmpe.f32	s15, s13
 2256 102e F1EE10FA 		vmrs	APSR_nzcv, FPSCR
 2257 1032 00F30881 		bgt	.L180
 2258              	.L112:
 2259              		.loc 1 646 0
 2260 1036 83ED008A 		vstr.32	s16, [r3]
 2261              	.L111:
 2262              		.loc 1 666 0
 2263 103a F5EEC0AA 		vcmpe.f32	s21, #0
 2264 103e F1EE10FA 		vmrs	APSR_nzcv, FPSCR
 2265 1042 FFF6B1AB 		blt	.L340
 2266              	.L369:
 2267              	.LVL194:
 2268              		.loc 1 668 0
 2269 1046 C5B9     		cbnz	r5, .L118
 2270              		.loc 1 668 0 is_stmt 0 discriminator 1
 2271 1048 DBED2A7A 		vldr.32	s15, [fp, #168]
 2272              		.loc 1 682 0 is_stmt 1 discriminator 1
 2273 104c 99F80030 		ldrb	r3, [r9]	@ zero_extendqisi2
 2274              		.loc 1 668 0 discriminator 1
 2275 1050 F1EE677A 		vneg.f32	s15, s15
 2276 1054 F4EEE87A 		vcmpe.f32	s15, s17
 2277 1058 F1EE10FA 		vmrs	APSR_nzcv, FPSCR
 2278 105c CCBF     		ite	gt
 2279 105e 4FF0010A 		movgt	r10, #1
 2280 1062 4FF0000A 		movle	r10, #0
ARM GAS  /tmp/ccxadqkm.s 			page 41


 2281              	.LVL195:
 2282              		.loc 1 682 0 discriminator 1
 2283 1066 042B     		cmp	r3, #4
 2284 1068 3FF4BBAA 		beq	.L119
 2285              		.loc 1 683 0
 2286 106c 99F80030 		ldrb	r3, [r9]	@ zero_extendqisi2
 2287              		.loc 1 682 0
 2288 1070 052B     		cmp	r3, #5
 2289 1072 7FF4B6AA 		bne	.L119
 2290 1076 FFF7A4BB 		b	.L121
 2291              	.LVL196:
 2292              	.L118:
 2293 107a 99F80030 		ldrb	r3, [r9]	@ zero_extendqisi2
 2294 107e 042B     		cmp	r3, #4
 2295 1080 63D0     		beq	.L198
 2296              		.loc 1 683 0
 2297 1082 99F80030 		ldrb	r3, [r9]	@ zero_extendqisi2
 2298              		.loc 1 682 0
 2299 1086 052B     		cmp	r3, #5
 2300 1088 5FD0     		beq	.L198
 2301              		.loc 1 545 0
 2302 108a 4FF0000A 		mov	r10, #0
 2303 108e FFF7A8BA 		b	.L119
 2304              	.LVL197:
 2305              	.L373:
 2306              	.LBB155:
 2307              		.loc 1 832 0
 2308 1092 FFF7FEFF 		bl	mc_interface_get_duty_cycle_now
 2309              	.LVL198:
 2310              	.LBB156:
 2311              		.loc 1 834 0
 2312 1096 0025     		movs	r5, #0
 2313              	.LVL199:
 2314              	.LBE156:
 2315              		.loc 1 832 0
 2316 1098 F0EE40BA 		vmov.f32	s23, s0
 2317              	.LVL200:
 2318 109c 02E0     		b	.L156
 2319              	.LVL201:
 2320              	.L154:
 2321              	.LBB165:
 2322              		.loc 1 834 0 discriminator 2
 2323 109e 0A2D     		cmp	r5, #10
 2324 10a0 3FF435AC 		beq	.L153
 2325              	.LVL202:
 2326              	.L156:
 2327              	.LBB157:
 2328              		.loc 1 835 0
 2329 10a4 2846     		mov	r0, r5
 2330 10a6 FFF7FEFF 		bl	comm_can_get_status_msg_index
 2331              	.LVL203:
 2332              		.loc 1 837 0
 2333 10aa 0268     		ldr	r2, [r0]
 2334 10ac 002A     		cmp	r2, #0
 2335              	.LBE157:
 2336              		.loc 1 834 0
 2337 10ae 05F10105 		add	r5, r5, #1
ARM GAS  /tmp/ccxadqkm.s 			page 42


 2338              	.LVL204:
 2339              	.LBB164:
 2340              		.loc 1 837 0
 2341 10b2 F4DB     		blt	.L154
 2342              	.LBB158:
 2343              	.LBB159:
 2344              	.LBB160:
 2345              	.LBB161:
 2346              		.loc 3 231 0 discriminator 1
 2347 10b4 2F4B     		ldr	r3, .L390+28
 2348              	.LBE161:
 2349              	.LBE160:
 2350              		.loc 3 267 0 discriminator 1
 2351 10b6 4168     		ldr	r1, [r0, #4]
 2352              	.LBB163:
 2353              	.LBB162:
 2354              		.loc 3 231 0 discriminator 1
 2355 10b8 9B6A     		ldr	r3, [r3, #40]
 2356              	.LVL205:
 2357              	.LBE162:
 2358              	.LBE163:
 2359              		.loc 3 267 0 discriminator 1
 2360 10ba 5B1A     		subs	r3, r3, r1
 2361              	.LBE159:
 2362              	.LBE158:
 2363              		.loc 1 837 0 discriminator 1
 2364 10bc 07EE903A 		vmov	s15, r3	@ int
 2365 10c0 F8EE677A 		vcvt.f32.u32	s15, s15
 2366 10c4 87EEA97A 		vdiv.f32	s14, s15, s19
 2367 10c8 B4EECA7A 		vcmpe.f32	s14, s20
 2368 10cc F1EE10FA 		vmrs	APSR_nzcv, FPSCR
 2369 10d0 E5D5     		bpl	.L154
 2370              		.loc 1 838 0
 2371 10d2 D0B2     		uxtb	r0, r2
 2372              	.LVL206:
 2373 10d4 B0EE6B0A 		vmov.f32	s0, s23
 2374 10d8 FFF7FEFF 		bl	comm_can_set_duty
 2375              	.LVL207:
 2376 10dc DFE7     		b	.L154
 2377              	.LVL208:
 2378              	.L378:
 2379 10de 204F     		ldr	r7, .L390+8
 2380 10e0 97ED004A 		vldr.32	s8, [r7]
 2381 10e4 E9E4     		b	.L57
 2382              	.LVL209:
 2383              	.L370:
 2384              	.LBE164:
 2385              	.LBE165:
 2386              	.LBE155:
 2387              		.loc 1 385 0
 2388 10e6 01F00103 		and	r3, r1, #1
 2389 10ea 0193     		str	r3, [sp, #4]
 2390 10ec FFF772B9 		b	.L33
 2391              	.LVL210:
 2392              	.L144:
 2393              		.loc 1 783 0
 2394 10f0 B4EE000A 		vmov.f32	s0, #1.25e-1
ARM GAS  /tmp/ccxadqkm.s 			page 43


 2395 10f4 27EE800A 		vmul.f32	s0, s15, s0
 2396              	.LBB166:
 2397              		.loc 1 790 0
 2398 10f8 1D49     		ldr	r1, .L390+24
 2399              		.loc 1 789 0
 2400 10fa 0122     		movs	r2, #1
 2401              		.loc 1 790 0
 2402 10fc 81ED000A 		vstr.32	s0, [r1]
 2403              		.loc 1 789 0
 2404 1100 1A70     		strb	r2, [r3]
 2405 1102 D8E6     		b	.L145
 2406              	.LVL211:
 2407              	.L114:
 2408              	.LBE166:
 2409              		.loc 1 640 0 discriminator 1
 2410 1104 B7EE007A 		vmov.f32	s14, #1.0e+0
 2411 1108 F4EEC76A 		vcmpe.f32	s13, s14
 2412 110c F1EE10FA 		vmrs	APSR_nzcv, FPSCR
 2413 1110 91DD     		ble	.L112
 2414              	.L179:
 2415              		.loc 1 641 0
 2416 1112 DDED035A 		vldr.32	s11, [sp, #12]
 2417              		.loc 1 642 0
 2418 1116 9FED1A7A 		vldr.32	s14, .L390+40
 2419              		.loc 1 641 0
 2420 111a B6EE006A 		vmov.f32	s12, #5.0e-1
 2421 111e E7EE865A 		vfma.f32	s11, s15, s12
 2422              		.loc 1 643 0
 2423 1122 B7EE006A 		vmov.f32	s12, #1.0e+0
 2424              		.loc 1 642 0
 2425 1126 77EEC77A 		vsub.f32	s15, s15, s14
 2426              		.loc 1 641 0
 2427 112a 7AEEA5AA 		vadd.f32	s21, s21, s11
 2428              		.loc 1 643 0
 2429 112e 36EEC67A 		vsub.f32	s14, s13, s12
 2430              		.loc 1 641 0
 2431 1132 CDED02AA 		vstr.32	s21, [sp, #8]
 2432              		.loc 1 642 0
 2433 1136 C7ED007A 		vstr.32	s15, [r7]
 2434              		.loc 1 643 0
 2435 113a 83ED007A 		vstr.32	s14, [r3]
 2436 113e 7CE7     		b	.L111
 2437              	.LVL212:
 2438              	.L368:
 2439 1140 F7EE006A 		vmov.f32	s13, #1.0e+0
 2440 1144 77EE266A 		vadd.f32	s13, s14, s13
 2441 1148 06E6     		b	.L106
 2442              	.LVL213:
 2443              	.L198:
 2444              		.loc 1 545 0
 2445 114a 4FF0000A 		mov	r10, #0
 2446              		.loc 1 684 0
 2447 114e F1EE6AAA 		vneg.f32	s21, s21
 2448              	.LVL214:
 2449 1152 FFF746BA 		b	.L119
 2450              	.L391:
 2451 1156 00BF     		.align	2
ARM GAS  /tmp/ccxadqkm.s 			page 44


 2452              	.L390:
 2453 1158 00000000 		.word	.LANCHOR13
 2454 115c 00000000 		.word	.LANCHOR21
 2455 1160 00000000 		.word	.LANCHOR20
 2456 1164 00000000 		.word	.LANCHOR19
 2457 1168 00000000 		.word	0
 2458 116c 00000000 		.word	.LANCHOR35
 2459 1170 00000000 		.word	.LANCHOR36
 2460 1174 00000000 		.word	ch
 2461 1178 00040240 		.word	1073873920
 2462 117c 0AD7A33C 		.word	1017370378
 2463 1180 9C534936 		.word	910775196
 2464              	.LVL215:
 2465              	.L379:
 2466              	.LBB167:
 2467              		.loc 1 869 0
 2468 1184 B1EE4BBA 		vneg.f32	s22, s22
 2469              	.LVL216:
 2470              		.loc 1 870 0
 2471 1188 F1EE688A 		vneg.f32	s17, s17
 2472              	.LVL217:
 2473              		.loc 1 868 0
 2474 118c F0EE6ABA 		vmov.f32	s23, s21
 2475              	.LVL218:
 2476              	.L168:
 2477              		.loc 1 868 0 is_stmt 0 discriminator 1
 2478 1190 0024     		movs	r4, #0
 2479              	.LVL219:
 2480 1192 5546     		mov	r5, r10
 2481              	.LVL220:
 2482              	.L166:
 2483              	.LBB82:
 2484              	.LBB81:
 2485              		.loc 1 876 0 is_stmt 1
 2486 1194 2046     		mov	r0, r4
 2487 1196 FFF7FEFF 		bl	comm_can_get_status_msg_index
 2488              	.LVL221:
 2489              		.loc 1 878 0
 2490 119a 0368     		ldr	r3, [r0]
 2491 119c 002B     		cmp	r3, #0
 2492 119e 30DB     		blt	.L169
 2493              	.LBB73:
 2494              	.LBB74:
 2495              	.LBB75:
 2496              	.LBB76:
 2497              		.loc 3 231 0 discriminator 1
 2498 11a0 2A4A     		ldr	r2, .L392
 2499              	.LBE76:
 2500              	.LBE75:
 2501              		.loc 3 267 0 discriminator 1
 2502 11a2 4168     		ldr	r1, [r0, #4]
 2503              	.LBB78:
 2504              	.LBB77:
 2505              		.loc 3 231 0 discriminator 1
 2506 11a4 926A     		ldr	r2, [r2, #40]
 2507              	.LVL222:
 2508              	.LBE77:
ARM GAS  /tmp/ccxadqkm.s 			page 45


 2509              	.LBE78:
 2510              		.loc 3 267 0 discriminator 1
 2511 11a6 521A     		subs	r2, r2, r1
 2512              	.LBE74:
 2513              	.LBE73:
 2514              		.loc 1 878 0 discriminator 1
 2515 11a8 07EE902A 		vmov	s15, r2	@ int
 2516 11ac F8EE677A 		vcvt.f32.u32	s15, s15
 2517 11b0 87EEA97A 		vdiv.f32	s14, s15, s19
 2518 11b4 B4EECA7A 		vcmpe.f32	s14, s20
 2519 11b8 F1EE10FA 		vmrs	APSR_nzcv, FPSCR
 2520 11bc 21D5     		bpl	.L169
 2521              		.loc 1 879 0
 2522 11be 99F83920 		ldrb	r2, [r9, #57]	@ zero_extendqisi2
 2523              	.LBB79:
 2524              		.loc 1 886 0
 2525 11c2 DFED230A 		vldr.32	s1, .L392+4
 2526              	.LBE79:
 2527              		.loc 1 879 0
 2528 11c6 9AB1     		cbz	r2, .L171
 2529              	.LBB80:
 2530              		.loc 1 880 0
 2531 11c8 90ED020A 		vldr.32	s0, [r0, #8]
 2532              	.LVL223:
 2533              		.loc 1 881 0
 2534 11cc 0DB1     		cbz	r5, .L172
 2535              		.loc 1 882 0
 2536 11ce B1EE400A 		vneg.f32	s0, s0
 2537              	.LVL224:
 2538              	.L172:
 2539              		.loc 1 886 0
 2540 11d2 99ED0F1A 		vldr.32	s2, [r9, #60]
 2541 11d6 0190     		str	r0, [sp, #4]
 2542 11d8 30EE680A 		vsub.f32	s0, s0, s17
 2543              	.LVL225:
 2544 11dc B0EE482A 		vmov.f32	s4, s16
 2545 11e0 F0EE6B1A 		vmov.f32	s3, s23
 2546 11e4 FFF7FEFF 		bl	utils_map
 2547              	.LVL226:
 2548 11e8 0198     		ldr	r0, [sp, #4]
 2549 11ea 0368     		ldr	r3, [r0]
 2550 11ec F0EE40AA 		vmov.f32	s21, s0
 2551              	.LVL227:
 2552              	.L171:
 2553 11f0 DBB2     		uxtb	r3, r3
 2554              	.LBE80:
 2555              		.loc 1 890 0
 2556 11f2 B1EE6A0A 		vneg.f32	s0, s21
 2557 11f6 1846     		mov	r0, r3
 2558              		.loc 1 889 0
 2559 11f8 0DB9     		cbnz	r5, .L350
 2560              		.loc 1 892 0
 2561 11fa B0EE6A0A 		vmov.f32	s0, s21
 2562              	.L350:
 2563 11fe FFF7FEFF 		bl	comm_can_set_current_rel
 2564              	.LVL228:
 2565              	.L169:
ARM GAS  /tmp/ccxadqkm.s 			page 46


 2566              	.LBE81:
 2567              		.loc 1 875 0 discriminator 2
 2568 1202 0134     		adds	r4, r4, #1
 2569              	.LVL229:
 2570 1204 0A2C     		cmp	r4, #10
 2571 1206 C5D1     		bne	.L166
 2572              	.LBE82:
 2573              		.loc 1 897 0
 2574 1208 99F83930 		ldrb	r3, [r9, #57]	@ zero_extendqisi2
 2575 120c AA46     		mov	r10, r5
 2576 120e 23B9     		cbnz	r3, .L380
 2577              		.loc 1 903 0
 2578 1210 BAF1000F 		cmp	r10, #0
 2579 1214 3FF48DAB 		beq	.L165
 2580 1218 81E6     		b	.L167
 2581              	.L380:
 2582              	.LVL230:
 2583              	.LBB83:
 2584              		.loc 1 899 0
 2585 121a 99ED0F1A 		vldr.32	s2, [r9, #60]
 2586 121e DFED0C0A 		vldr.32	s1, .L392+4
 2587 1222 F0EE6B1A 		vmov.f32	s3, s23
 2588 1226 3BEE680A 		vsub.f32	s0, s22, s17
 2589              	.LVL231:
 2590 122a B0EE482A 		vmov.f32	s4, s16
 2591 122e FFF7FEFF 		bl	utils_map
 2592              	.LVL232:
 2593 1232 F0EE40AA 		vmov.f32	s21, s0
 2594              	.LVL233:
 2595              	.LBE83:
 2596              		.loc 1 903 0
 2597 1236 BAF1000F 		cmp	r10, #0
 2598 123a 3FF47AAB 		beq	.L165
 2599 123e 6EE6     		b	.L167
 2600              	.LVL234:
 2601              	.L375:
 2602              		.loc 1 874 0
 2603 1240 F0EE6ABA 		vmov.f32	s23, s21
 2604 1244 A4E7     		b	.L168
 2605              	.LVL235:
 2606              	.L180:
 2607              	.LBE167:
 2608              		.loc 1 635 0
 2609 1246 F0EE476A 		vmov.f32	s13, s14
 2610 124a 62E7     		b	.L179
 2611              	.L393:
 2612              		.align	2
 2613              	.L392:
 2614 124c 00000000 		.word	ch
 2615 1250 00000000 		.word	0
 2616              	.LBE170:
 2617              		.cfi_endproc
 2618              	.LFE263:
 2619              		.size	adc_thread, .-adc_thread
 2620              		.section	.text.app_adc_configure,"ax",%progbits
 2621              		.align	1
 2622              		.p2align 4,,15
ARM GAS  /tmp/ccxadqkm.s 			page 47


 2623              		.global	app_adc_configure
 2624              		.syntax unified
 2625              		.thumb
 2626              		.thumb_func
 2627              		.fpu fpv4-sp-d16
 2628              		.type	app_adc_configure, %function
 2629              	app_adc_configure:
 2630              	.LFB256:
 2631              		.loc 1 77 0
 2632              		.cfi_startproc
 2633              		@ args = 0, pretend = 0, frame = 0
 2634              		@ frame_needed = 0, uses_anonymous_args = 0
 2635              	.LVL236:
 2636 0000 38B5     		push	{r3, r4, r5, lr}
 2637              		.cfi_def_cfa_offset 16
 2638              		.cfi_offset 3, -16
 2639              		.cfi_offset 4, -12
 2640              		.cfi_offset 5, -8
 2641              		.cfi_offset 14, -4
 2642              		.loc 1 77 0
 2643 0002 0D46     		mov	r5, r1
 2644 0004 1446     		mov	r4, r2
 2645              		.loc 1 78 0
 2646 0006 0146     		mov	r1, r0
 2647              	.LVL237:
 2648 0008 4422     		movs	r2, #68
 2649              	.LVL238:
 2650 000a 0848     		ldr	r0, .L396
 2651              	.LVL239:
 2652 000c FFF7FEFF 		bl	memcpy
 2653              	.LVL240:
 2654              		.loc 1 79 0
 2655 0010 2946     		mov	r1, r5
 2656 0012 4822     		movs	r2, #72
 2657 0014 0648     		ldr	r0, .L396+4
 2658 0016 FFF7FEFF 		bl	memcpy
 2659              	.LVL241:
 2660              		.loc 1 80 0
 2661 001a 4C22     		movs	r2, #76
 2662 001c 2146     		mov	r1, r4
 2663 001e 0548     		ldr	r0, .L396+8
 2664 0020 FFF7FEFF 		bl	memcpy
 2665              	.LVL242:
 2666              		.loc 1 81 0
 2667 0024 044B     		ldr	r3, .L396+12
 2668 0026 0022     		movs	r2, #0
 2669 0028 1A60     		str	r2, [r3]	@ float
 2670              		.loc 1 82 0
 2671 002a 38BD     		pop	{r3, r4, r5, pc}
 2672              	.LVL243:
 2673              	.L397:
 2674              		.align	2
 2675              	.L396:
 2676 002c 00000000 		.word	.LANCHOR2
 2677 0030 00000000 		.word	.LANCHOR13
 2678 0034 00000000 		.word	.LANCHOR37
 2679 0038 00000000 		.word	.LANCHOR4
ARM GAS  /tmp/ccxadqkm.s 			page 48


 2680              		.cfi_endproc
 2681              	.LFE256:
 2682              		.size	app_adc_configure, .-app_adc_configure
 2683              		.section	.text.app_adc_start,"ax",%progbits
 2684              		.align	1
 2685              		.p2align 4,,15
 2686              		.global	app_adc_start
 2687              		.syntax unified
 2688              		.thumb
 2689              		.thumb_func
 2690              		.fpu fpv4-sp-d16
 2691              		.type	app_adc_start, %function
 2692              	app_adc_start:
 2693              	.LFB257:
 2694              		.loc 1 86 0
 2695              		.cfi_startproc
 2696              		@ args = 0, pretend = 0, frame = 0
 2697              		@ frame_needed = 0, uses_anonymous_args = 0
 2698              	.LVL244:
 2699 0000 2DE9F041 		push	{r4, r5, r6, r7, r8, lr}
 2700              		.cfi_def_cfa_offset 24
 2701              		.cfi_offset 4, -24
 2702              		.cfi_offset 5, -20
 2703              		.cfi_offset 6, -16
 2704              		.cfi_offset 7, -12
 2705              		.cfi_offset 8, -8
 2706              		.cfi_offset 14, -4
 2707              		.loc 1 89 0
 2708 0004 2E4D     		ldr	r5, .L400
 2709              		.loc 1 88 0
 2710 0006 2F4B     		ldr	r3, .L400+4
 2711              		.loc 1 89 0
 2712 0008 D5ED047A 		vldr.32	s15, [r5, #16]
 2713              		.loc 1 93 0
 2714 000c DFF8FC80 		ldr	r8, .L400+76
 2715              		.loc 1 89 0
 2716 0010 FCEEE77A 		vcvt.u32.f32	s15, s15
 2717              		.loc 1 88 0
 2718 0014 0024     		movs	r4, #0
 2719              		.loc 1 89 0
 2720 0016 17EE902A 		vmov	r2, s15	@ int
 2721              		.loc 1 86 0
 2722 001a 82B0     		sub	sp, sp, #8
 2723              		.cfi_def_cfa_offset 32
 2724              		.loc 1 86 0
 2725 001c 0746     		mov	r7, r0
 2726              		.loc 1 89 0
 2727 001e 90B2     		uxth	r0, r2
 2728              	.LVL245:
 2729              		.loc 1 86 0
 2730 0020 0E46     		mov	r6, r1
 2731              		.loc 1 88 0
 2732 0022 1C60     		str	r4, [r3]	@ float
 2733              		.loc 1 89 0
 2734 0024 FFF7FEFF 		bl	mc_interface_set_wheely_crtl
 2735              	.LVL246:
 2736              		.loc 1 90 0
ARM GAS  /tmp/ccxadqkm.s 			page 49


 2737 0028 FFF7FEFF 		bl	mc_interface_get_wheely_crtl
 2738              	.LVL247:
 2739              		.loc 1 93 0
 2740 002c 264B     		ldr	r3, .L400+8
 2741 002e D5ED0F4A 		vldr.32	s9, [r5, #60]
 2742 0032 D3ED106A 		vldr.32	s13, [r3, #64]	@ int
 2743              		.loc 1 94 0
 2744 0036 95ED0A5A 		vldr.32	s10, [r5, #40]
 2745 003a 93ED107A 		vldr.32	s14, [r3, #64]	@ int
 2746              		.loc 1 99 0
 2747 003e D3ED107A 		vldr.32	s15, [r3, #64]	@ int
 2748              		.loc 1 116 0
 2749 0042 224B     		ldr	r3, .L400+12
 2750              		.loc 1 90 0
 2751 0044 224A     		ldr	r2, .L400+16
 2752              		.loc 1 116 0
 2753 0046 1F70     		strb	r7, [r3]
 2754              		.loc 1 99 0
 2755 0048 F8EE677A 		vcvt.f32.u32	s15, s15
 2756              		.loc 1 93 0
 2757 004c F8EE666A 		vcvt.f32.u32	s13, s13
 2758              		.loc 1 94 0
 2759 0050 B8EE477A 		vcvt.f32.u32	s14, s14
 2760              		.loc 1 99 0
 2761 0054 F7EE005A 		vmov.f32	s11, #1.0e+0
 2762              		.loc 1 93 0
 2763 0058 84EEA66A 		vdiv.f32	s12, s9, s13
 2764              		.loc 1 117 0
 2765 005c 1D4B     		ldr	r3, .L400+20
 2766              		.loc 1 91 0
 2767 005e 1E49     		ldr	r1, .L400+24
 2768              		.loc 1 117 0
 2769 0060 1E70     		strb	r6, [r3]
 2770              		.loc 1 98 0
 2771 0062 1E48     		ldr	r0, .L400+28
 2772              		.loc 1 100 0
 2773 0064 1E4F     		ldr	r7, .L400+32
 2774              		.loc 1 101 0
 2775 0066 1F4E     		ldr	r6, .L400+36
 2776              		.loc 1 102 0
 2777 0068 1F4D     		ldr	r5, .L400+40
 2778              		.loc 1 98 0
 2779 006a 0460     		str	r4, [r0]	@ float
 2780              		.loc 1 100 0
 2781 006c 3C60     		str	r4, [r7]	@ float
 2782              		.loc 1 101 0
 2783 006e 3460     		str	r4, [r6]	@ float
 2784              		.loc 1 94 0
 2785 0070 DFF89CE0 		ldr	lr, .L400+80
 2786              		.loc 1 103 0
 2787 0074 1D4B     		ldr	r3, .L400+44
 2788              		.loc 1 114 0
 2789 0076 1E48     		ldr	r0, .L400+48
 2790              		.loc 1 90 0
 2791 0078 82ED000A 		vstr.32	s0, [r2]
 2792              		.loc 1 94 0
 2793 007c C5EE076A 		vdiv.f32	s13, s10, s14
ARM GAS  /tmp/ccxadqkm.s 			page 50


 2794              		.loc 1 105 0
 2795 0080 1C4A     		ldr	r2, .L400+52
 2796              		.loc 1 99 0
 2797 0082 1D4F     		ldr	r7, .L400+56
 2798              		.loc 1 118 0
 2799 0084 1D4E     		ldr	r6, .L400+60
 2800              		.loc 1 102 0
 2801 0086 2C60     		str	r4, [r5]	@ float
 2802              		.loc 1 118 0
 2803 0088 0025     		movs	r5, #0
 2804              		.loc 1 99 0
 2805 008a 85EEA77A 		vdiv.f32	s14, s11, s15
 2806              		.loc 1 91 0
 2807 008e 81ED000A 		vstr.32	s0, [r1]
 2808              		.loc 1 112 0
 2809 0092 1B49     		ldr	r1, .L400+64
 2810              		.loc 1 94 0
 2811 0094 CEED006A 		vstr.32	s13, [lr]
 2812              		.loc 1 119 0
 2813 0098 0095     		str	r5, [sp]
 2814              		.loc 1 103 0
 2815 009a 1C60     		str	r4, [r3]	@ float
 2816              		.loc 1 105 0
 2817 009c 1460     		str	r4, [r2]	@ float
 2818              		.loc 1 112 0
 2819 009e 0C60     		str	r4, [r1]	@ float
 2820              		.loc 1 114 0
 2821 00a0 0460     		str	r4, [r0]	@ float
 2822              		.loc 1 119 0
 2823 00a2 184B     		ldr	r3, .L400+68
 2824              		.loc 1 99 0
 2825 00a4 87ED007A 		vstr.32	s14, [r7]
 2826              		.loc 1 119 0
 2827 00a8 4022     		movs	r2, #64
 2828 00aa 4FF4B361 		mov	r1, #1432
 2829              		.loc 1 118 0
 2830 00ae 3570     		strb	r5, [r6]
 2831              		.loc 1 119 0
 2832 00b0 1548     		ldr	r0, .L400+72
 2833              		.loc 1 93 0
 2834 00b2 88ED006A 		vstr.32	s12, [r8]
 2835              		.loc 1 119 0
 2836 00b6 FFF7FEFF 		bl	chThdCreateStatic
 2837              	.LVL248:
 2838              		.loc 1 120 0
 2839 00ba 02B0     		add	sp, sp, #8
 2840              		.cfi_def_cfa_offset 24
 2841              		@ sp needed
 2842 00bc BDE8F081 		pop	{r4, r5, r6, r7, r8, pc}
 2843              	.L401:
 2844              		.align	2
 2845              	.L400:
 2846 00c0 00000000 		.word	.LANCHOR13
 2847 00c4 00000000 		.word	.LANCHOR18
 2848 00c8 00000000 		.word	.LANCHOR2
 2849 00cc 00000000 		.word	.LANCHOR0
 2850 00d0 00000000 		.word	.LANCHOR17
ARM GAS  /tmp/ccxadqkm.s 			page 51


 2851 00d4 00000000 		.word	.LANCHOR5
 2852 00d8 00000000 		.word	.LANCHOR19
 2853 00dc 00000000 		.word	.LANCHOR28
 2854 00e0 00000000 		.word	.LANCHOR23
 2855 00e4 00000000 		.word	.LANCHOR20
 2856 00e8 00000000 		.word	.LANCHOR26
 2857 00ec 00000000 		.word	.LANCHOR27
 2858 00f0 00000000 		.word	.LANCHOR31
 2859 00f4 00000000 		.word	.LANCHOR25
 2860 00f8 00000000 		.word	.LANCHOR24
 2861 00fc 00000000 		.word	.LANCHOR3
 2862 0100 00000000 		.word	.LANCHOR29
 2863 0104 00000000 		.word	adc_thread
 2864 0108 00000000 		.word	.LANCHOR38
 2865 010c 00000000 		.word	.LANCHOR22
 2866 0110 00000000 		.word	.LANCHOR21
 2867              		.cfi_endproc
 2868              	.LFE257:
 2869              		.size	app_adc_start, .-app_adc_start
 2870              		.section	.text.app_adc_stop,"ax",%progbits
 2871              		.align	1
 2872              		.p2align 4,,15
 2873              		.global	app_adc_stop
 2874              		.syntax unified
 2875              		.thumb
 2876              		.thumb_func
 2877              		.fpu fpv4-sp-d16
 2878              		.type	app_adc_stop, %function
 2879              	app_adc_stop:
 2880              	.LFB258:
 2881              		.loc 1 122 0
 2882              		.cfi_startproc
 2883              		@ args = 0, pretend = 0, frame = 0
 2884              		@ frame_needed = 0, uses_anonymous_args = 0
 2885              		.loc 1 123 0
 2886 0000 064B     		ldr	r3, .L410
 2887              		.loc 1 122 0
 2888 0002 10B5     		push	{r4, lr}
 2889              		.cfi_def_cfa_offset 8
 2890              		.cfi_offset 4, -8
 2891              		.cfi_offset 14, -4
 2892              		.loc 1 123 0
 2893 0004 0122     		movs	r2, #1
 2894              		.loc 1 124 0
 2895 0006 064C     		ldr	r4, .L410+4
 2896              		.loc 1 123 0
 2897 0008 1A70     		strb	r2, [r3]
 2898              		.loc 1 124 0
 2899 000a 2378     		ldrb	r3, [r4]	@ zero_extendqisi2
 2900 000c 2BB1     		cbz	r3, .L402
 2901              	.L404:
 2902              		.loc 1 125 0
 2903 000e 0A20     		movs	r0, #10
 2904 0010 FFF7FEFF 		bl	chThdSleep
 2905              	.LVL249:
 2906              		.loc 1 124 0
 2907 0014 2378     		ldrb	r3, [r4]	@ zero_extendqisi2
ARM GAS  /tmp/ccxadqkm.s 			page 52


 2908 0016 002B     		cmp	r3, #0
 2909 0018 F9D1     		bne	.L404
 2910              	.L402:
 2911              		.loc 1 127 0
 2912 001a 10BD     		pop	{r4, pc}
 2913              	.L411:
 2914              		.align	2
 2915              	.L410:
 2916 001c 00000000 		.word	.LANCHOR3
 2917 0020 00000000 		.word	.LANCHOR1
 2918              		.cfi_endproc
 2919              	.LFE258:
 2920              		.size	app_adc_stop, .-app_adc_stop
 2921              		.section	.text.app_adc_get_decoded_level,"ax",%progbits
 2922              		.align	1
 2923              		.p2align 4,,15
 2924              		.global	app_adc_get_decoded_level
 2925              		.syntax unified
 2926              		.thumb
 2927              		.thumb_func
 2928              		.fpu fpv4-sp-d16
 2929              		.type	app_adc_get_decoded_level, %function
 2930              	app_adc_get_decoded_level:
 2931              	.LFB259:
 2932              		.loc 1 129 0
 2933              		.cfi_startproc
 2934              		@ args = 0, pretend = 0, frame = 0
 2935              		@ frame_needed = 0, uses_anonymous_args = 0
 2936              		@ link register save eliminated.
 2937              		.loc 1 130 0
 2938 0000 014B     		ldr	r3, .L413
 2939 0002 93ED000A 		vldr.32	s0, [r3]
 2940              		.loc 1 131 0
 2941 0006 7047     		bx	lr
 2942              	.L414:
 2943              		.align	2
 2944              	.L413:
 2945 0008 00000000 		.word	.LANCHOR9
 2946              		.cfi_endproc
 2947              	.LFE259:
 2948              		.size	app_adc_get_decoded_level, .-app_adc_get_decoded_level
 2949              		.section	.text.app_adc_get_voltage,"ax",%progbits
 2950              		.align	1
 2951              		.p2align 4,,15
 2952              		.global	app_adc_get_voltage
 2953              		.syntax unified
 2954              		.thumb
 2955              		.thumb_func
 2956              		.fpu fpv4-sp-d16
 2957              		.type	app_adc_get_voltage, %function
 2958              	app_adc_get_voltage:
 2959              	.LFB260:
 2960              		.loc 1 133 0
 2961              		.cfi_startproc
 2962              		@ args = 0, pretend = 0, frame = 0
 2963              		@ frame_needed = 0, uses_anonymous_args = 0
 2964              		@ link register save eliminated.
ARM GAS  /tmp/ccxadqkm.s 			page 53


 2965              		.loc 1 134 0
 2966 0000 014B     		ldr	r3, .L416
 2967 0002 93ED000A 		vldr.32	s0, [r3]
 2968              		.loc 1 135 0
 2969 0006 7047     		bx	lr
 2970              	.L417:
 2971              		.align	2
 2972              	.L416:
 2973 0008 00000000 		.word	.LANCHOR6
 2974              		.cfi_endproc
 2975              	.LFE260:
 2976              		.size	app_adc_get_voltage, .-app_adc_get_voltage
 2977              		.section	.text.app_adc_get_decoded_level2,"ax",%progbits
 2978              		.align	1
 2979              		.p2align 4,,15
 2980              		.global	app_adc_get_decoded_level2
 2981              		.syntax unified
 2982              		.thumb
 2983              		.thumb_func
 2984              		.fpu fpv4-sp-d16
 2985              		.type	app_adc_get_decoded_level2, %function
 2986              	app_adc_get_decoded_level2:
 2987              	.LFB261:
 2988              		.loc 1 137 0
 2989              		.cfi_startproc
 2990              		@ args = 0, pretend = 0, frame = 0
 2991              		@ frame_needed = 0, uses_anonymous_args = 0
 2992              		@ link register save eliminated.
 2993              		.loc 1 138 0
 2994 0000 014B     		ldr	r3, .L419
 2995 0002 93ED000A 		vldr.32	s0, [r3]
 2996              		.loc 1 139 0
 2997 0006 7047     		bx	lr
 2998              	.L420:
 2999              		.align	2
 3000              	.L419:
 3001 0008 00000000 		.word	.LANCHOR14
 3002              		.cfi_endproc
 3003              	.LFE261:
 3004              		.size	app_adc_get_decoded_level2, .-app_adc_get_decoded_level2
 3005              		.section	.text.app_adc_get_voltage2,"ax",%progbits
 3006              		.align	1
 3007              		.p2align 4,,15
 3008              		.global	app_adc_get_voltage2
 3009              		.syntax unified
 3010              		.thumb
 3011              		.thumb_func
 3012              		.fpu fpv4-sp-d16
 3013              		.type	app_adc_get_voltage2, %function
 3014              	app_adc_get_voltage2:
 3015              	.LFB262:
 3016              		.loc 1 141 0
 3017              		.cfi_startproc
 3018              		@ args = 0, pretend = 0, frame = 0
 3019              		@ frame_needed = 0, uses_anonymous_args = 0
 3020              		@ link register save eliminated.
 3021              		.loc 1 142 0
ARM GAS  /tmp/ccxadqkm.s 			page 54


 3022 0000 014B     		ldr	r3, .L422
 3023 0002 93ED000A 		vldr.32	s0, [r3]
 3024              		.loc 1 143 0
 3025 0006 7047     		bx	lr
 3026              	.L423:
 3027              		.align	2
 3028              	.L422:
 3029 0008 00000000 		.word	.LANCHOR10
 3030              		.cfi_endproc
 3031              	.LFE262:
 3032              		.size	app_adc_get_voltage2, .-app_adc_get_voltage2
 3033              		.section	.bss.adc_thread_wa,"aw",%nobits
 3034              		.align	3
 3035              		.set	.LANCHOR38,. + 0
 3036              		.type	adc_thread_wa, %object
 3037              		.size	adc_thread_wa, 1432
 3038              	adc_thread_wa:
 3039 0000 00000000 		.space	1432
 3039      00000000 
 3039      00000000 
 3039      00000000 
 3039      00000000 
 3040              		.section	.bss.balance_conf,"aw",%nobits
 3041              		.align	2
 3042              		.set	.LANCHOR13,. + 0
 3043              		.type	balance_conf, %object
 3044              		.size	balance_conf, 72
 3045              	balance_conf:
 3046 0000 00000000 		.space	72
 3046      00000000 
 3046      00000000 
 3046      00000000 
 3046      00000000 
 3047              		.section	.bss.config,"aw",%nobits
 3048              		.align	2
 3049              		.set	.LANCHOR2,. + 0
 3050              		.type	config, %object
 3051              		.size	config, 68
 3052              	config:
 3053 0000 00000000 		.space	68
 3053      00000000 
 3053      00000000 
 3053      00000000 
 3053      00000000 
 3054              		.section	.bss.d_filter,"aw",%nobits
 3055              		.align	2
 3056              		.set	.LANCHOR27,. + 0
 3057              		.type	d_filter, %object
 3058              		.size	d_filter, 4
 3059              	d_filter:
 3060 0000 00000000 		.space	4
 3061              		.section	.bss.d_t,"aw",%nobits
 3062              		.align	2
 3063              		.set	.LANCHOR24,. + 0
 3064              		.type	d_t, %object
 3065              		.size	d_t, 4
 3066              	d_t:
ARM GAS  /tmp/ccxadqkm.s 			page 55


 3067 0000 00000000 		.space	4
 3068              		.section	.bss.d_term,"aw",%nobits
 3069              		.align	2
 3070              		.set	.LANCHOR26,. + 0
 3071              		.type	d_term, %object
 3072              		.size	d_term, 4
 3073              	d_term:
 3074 0000 00000000 		.space	4
 3075              		.section	.bss.decoded_level,"aw",%nobits
 3076              		.align	2
 3077              		.set	.LANCHOR9,. + 0
 3078              		.type	decoded_level, %object
 3079              		.size	decoded_level, 4
 3080              	decoded_level:
 3081 0000 00000000 		.space	4
 3082              		.section	.bss.decoded_level2,"aw",%nobits
 3083              		.align	2
 3084              		.set	.LANCHOR14,. + 0
 3085              		.type	decoded_level2, %object
 3086              		.size	decoded_level2, 4
 3087              	decoded_level2:
 3088 0000 00000000 		.space	4
 3089              		.section	.bss.filter_buffer.12156,"aw",%nobits
 3090              		.align	2
 3091              		.set	.LANCHOR8,. + 0
 3092              		.type	filter_buffer.12156, %object
 3093              		.size	filter_buffer.12156, 20
 3094              	filter_buffer.12156:
 3095 0000 00000000 		.space	20
 3095      00000000 
 3095      00000000 
 3095      00000000 
 3095      00000000 
 3096              		.section	.bss.filter_buffer.12231,"aw",%nobits
 3097              		.align	2
 3098              		.set	.LANCHOR34,. + 0
 3099              		.type	filter_buffer.12231, %object
 3100              		.size	filter_buffer.12231, 32
 3101              	filter_buffer.12231:
 3102 0000 00000000 		.space	32
 3102      00000000 
 3102      00000000 
 3102      00000000 
 3102      00000000 
 3103              		.section	.bss.filter_buffer2.12174,"aw",%nobits
 3104              		.align	2
 3105              		.set	.LANCHOR12,. + 0
 3106              		.type	filter_buffer2.12174, %object
 3107              		.size	filter_buffer2.12174, 20
 3108              	filter_buffer2.12174:
 3109 0000 00000000 		.space	20
 3109      00000000 
 3109      00000000 
 3109      00000000 
 3109      00000000 
 3110              		.section	.bss.filter_ptr.12157,"aw",%nobits
 3111              		.align	2
ARM GAS  /tmp/ccxadqkm.s 			page 56


 3112              		.set	.LANCHOR7,. + 0
 3113              		.type	filter_ptr.12157, %object
 3114              		.size	filter_ptr.12157, 4
 3115              	filter_ptr.12157:
 3116 0000 00000000 		.space	4
 3117              		.section	.bss.filter_ptr.12232,"aw",%nobits
 3118              		.align	2
 3119              		.set	.LANCHOR33,. + 0
 3120              		.type	filter_ptr.12232, %object
 3121              		.size	filter_ptr.12232, 4
 3122              	filter_ptr.12232:
 3123 0000 00000000 		.space	4
 3124              		.section	.bss.filter_ptr2.12175,"aw",%nobits
 3125              		.align	2
 3126              		.set	.LANCHOR11,. + 0
 3127              		.type	filter_ptr2.12175, %object
 3128              		.size	filter_ptr2.12175, 4
 3129              	filter_ptr2.12175:
 3130 0000 00000000 		.space	4
 3131              		.section	.bss.hill_counter,"aw",%nobits
 3132              		.align	2
 3133              		.set	.LANCHOR31,. + 0
 3134              		.type	hill_counter, %object
 3135              		.size	hill_counter, 4
 3136              	hill_counter:
 3137 0000 00000000 		.space	4
 3138              		.section	.bss.hill_value,"aw",%nobits
 3139              		.align	2
 3140              		.set	.LANCHOR29,. + 0
 3141              		.type	hill_value, %object
 3142              		.size	hill_value, 4
 3143              	hill_value:
 3144 0000 00000000 		.space	4
 3145              		.section	.bss.i_term,"aw",%nobits
 3146              		.align	2
 3147              		.set	.LANCHOR20,. + 0
 3148              		.type	i_term, %object
 3149              		.size	i_term, 4
 3150              	i_term:
 3151 0000 00000000 		.space	4
 3152              		.section	.bss.imu_conf,"aw",%nobits
 3153              		.align	2
 3154              		.set	.LANCHOR37,. + 0
 3155              		.type	imu_conf, %object
 3156              		.size	imu_conf, 76
 3157              	imu_conf:
 3158 0000 00000000 		.space	76
 3158      00000000 
 3158      00000000 
 3158      00000000 
 3158      00000000 
 3159              		.section	.bss.is_running,"aw",%nobits
 3160              		.set	.LANCHOR1,. + 0
 3161              		.type	is_running, %object
 3162              		.size	is_running, 1
 3163              	is_running:
 3164 0000 00       		.space	1
ARM GAS  /tmp/ccxadqkm.s 			page 57


 3165              		.section	.bss.last_time.12198,"aw",%nobits
 3166              		.align	2
 3167              		.set	.LANCHOR16,. + 0
 3168              		.type	last_time.12198, %object
 3169              		.size	last_time.12198, 4
 3170              	last_time.12198:
 3171 0000 00000000 		.space	4
 3172              		.section	.bss.ms_without_power,"aw",%nobits
 3173              		.align	2
 3174              		.set	.LANCHOR4,. + 0
 3175              		.type	ms_without_power, %object
 3176              		.size	ms_without_power, 4
 3177              	ms_without_power:
 3178 0000 00000000 		.space	4
 3179              		.section	.bss.p_term,"aw",%nobits
 3180              		.align	2
 3181              		.set	.LANCHOR23,. + 0
 3182              		.type	p_term, %object
 3183              		.size	p_term, 4
 3184              	p_term:
 3185 0000 00000000 		.space	4
 3186              		.section	.bss.pid_rpm.12238,"aw",%nobits
 3187              		.align	2
 3188              		.set	.LANCHOR36,. + 0
 3189              		.type	pid_rpm.12238, %object
 3190              		.size	pid_rpm.12238, 4
 3191              	pid_rpm.12238:
 3192 0000 00000000 		.space	4
 3193              		.section	.bss.pid_value,"aw",%nobits
 3194              		.align	2
 3195              		.set	.LANCHOR28,. + 0
 3196              		.type	pid_value, %object
 3197              		.size	pid_value, 4
 3198              	pid_value:
 3199 0000 00000000 		.space	4
 3200              		.section	.bss.pitch_angle,"aw",%nobits
 3201              		.align	2
 3202              		.set	.LANCHOR18,. + 0
 3203              		.type	pitch_angle, %object
 3204              		.size	pitch_angle, 4
 3205              	pitch_angle:
 3206 0000 00000000 		.space	4
 3207              		.section	.bss.prev_error,"aw",%nobits
 3208              		.align	2
 3209              		.set	.LANCHOR25,. + 0
 3210              		.type	prev_error, %object
 3211              		.size	prev_error, 4
 3212              	prev_error:
 3213 0000 00000000 		.space	4
 3214              		.section	.bss.pulses_without_power_before.12224,"aw",%nobits
 3215              		.align	2
 3216              		.set	.LANCHOR32,. + 0
 3217              		.type	pulses_without_power_before.12224, %object
 3218              		.size	pulses_without_power_before.12224, 4
 3219              	pulses_without_power_before.12224:
 3220 0000 00000000 		.space	4
 3221              		.section	.bss.pwr_ramp.12199,"aw",%nobits
ARM GAS  /tmp/ccxadqkm.s 			page 58


 3222              		.align	2
 3223              		.set	.LANCHOR15,. + 0
 3224              		.type	pwr_ramp.12199, %object
 3225              		.size	pwr_ramp.12199, 4
 3226              	pwr_ramp.12199:
 3227 0000 00000000 		.space	4
 3228              		.section	.bss.read_voltage,"aw",%nobits
 3229              		.align	2
 3230              		.set	.LANCHOR6,. + 0
 3231              		.type	read_voltage, %object
 3232              		.size	read_voltage, 4
 3233              	read_voltage:
 3234 0000 00000000 		.space	4
 3235              		.section	.bss.read_voltage2,"aw",%nobits
 3236              		.align	2
 3237              		.set	.LANCHOR10,. + 0
 3238              		.type	read_voltage2, %object
 3239              		.size	read_voltage2, 4
 3240              	read_voltage2:
 3241 0000 00000000 		.space	4
 3242              		.section	.bss.rev_button_last,"aw",%nobits
 3243              		.set	.LANCHOR30,. + 0
 3244              		.type	rev_button_last, %object
 3245              		.size	rev_button_last, 1
 3246              	rev_button_last:
 3247 0000 00       		.space	1
 3248              		.section	.bss.setpoint,"aw",%nobits
 3249              		.align	2
 3250              		.set	.LANCHOR19,. + 0
 3251              		.type	setpoint, %object
 3252              		.size	setpoint, 4
 3253              	setpoint:
 3254 0000 00000000 		.space	4
 3255              		.section	.bss.setpoint_target,"aw",%nobits
 3256              		.align	2
 3257              		.set	.LANCHOR17,. + 0
 3258              		.type	setpoint_target, %object
 3259              		.size	setpoint_target, 4
 3260              	setpoint_target:
 3261 0000 00000000 		.space	4
 3262              		.section	.bss.startup_step_size,"aw",%nobits
 3263              		.align	2
 3264              		.set	.LANCHOR22,. + 0
 3265              		.type	startup_step_size, %object
 3266              		.size	startup_step_size, 4
 3267              	startup_step_size:
 3268 0000 00000000 		.space	4
 3269              		.section	.bss.tiltback_step_size,"aw",%nobits
 3270              		.align	2
 3271              		.set	.LANCHOR21,. + 0
 3272              		.type	tiltback_step_size, %object
 3273              		.size	tiltback_step_size, 4
 3274              	tiltback_step_size:
 3275 0000 00000000 		.space	4
 3276              		.section	.bss.use_can_adc_input,"aw",%nobits
 3277              		.set	.LANCHOR5,. + 0
 3278              		.type	use_can_adc_input, %object
ARM GAS  /tmp/ccxadqkm.s 			page 59


 3279              		.size	use_can_adc_input, 1
 3280              	use_can_adc_input:
 3281 0000 00       		.space	1
 3282              		.section	.bss.use_rx_tx_as_buttons,"aw",%nobits
 3283              		.set	.LANCHOR0,. + 0
 3284              		.type	use_rx_tx_as_buttons, %object
 3285              		.size	use_rx_tx_as_buttons, 1
 3286              	use_rx_tx_as_buttons:
 3287 0000 00       		.space	1
 3288              		.section	.bss.was_pid.12230,"aw",%nobits
 3289              		.set	.LANCHOR35,. + 0
 3290              		.type	was_pid.12230, %object
 3291              		.size	was_pid.12230, 1
 3292              	was_pid.12230:
 3293 0000 00       		.space	1
 3294              		.section	.data.stop_now,"aw",%progbits
 3295              		.set	.LANCHOR3,. + 0
 3296              		.type	stop_now, %object
 3297              		.size	stop_now, 1
 3298              	stop_now:
 3299 0000 01       		.byte	1
 3300              		.section	.rodata.adc_thread.str1.4,"aMS",%progbits,1
 3301              		.align	2
 3302              	.LC0:
 3303 0000 4150505F 		.ascii	"APP_ADC\000"
 3303      41444300 
 3304              		.text
 3305              	.Letext0:
 3306              		.file 4 "/usr/arm-none-eabi/include/machine/_default_types.h"
 3307              		.file 5 "/usr/arm-none-eabi/include/sys/_stdint.h"
 3308              		.file 6 "/usr/lib/gcc/arm-none-eabi/7.3.1/include/stddef.h"
 3309              		.file 7 "ChibiOS_3.0.2/os/rt/ports/ARMCMx/compilers/GCC/chtypes.h"
 3310              		.file 8 "ChibiOS_3.0.2/os/rt/include/chsystypes.h"
 3311              		.file 9 "ChibiOS_3.0.2/os/rt/include/chschd.h"
 3312              		.file 10 "ChibiOS_3.0.2/os/ext/CMSIS/include/core_cm4.h"
 3313              		.file 11 "ChibiOS_3.0.2/os/ext/CMSIS/ST/system_stm32f4xx.h"
 3314              		.file 12 "ChibiOS_3.0.2/os/ext/CMSIS/ST/stm32f407xx.h"
 3315              		.file 13 "ChibiOS_3.0.2/os/rt/ports/ARMCMx/chcore.h"
 3316              		.file 14 "ChibiOS_3.0.2/os/rt/ports/ARMCMx/chcore_v7m.h"
 3317              		.file 15 "ChibiOS_3.0.2/os/rt/include/chtm.h"
 3318              		.file 16 "ChibiOS_3.0.2/os/rt/include/chsem.h"
 3319              		.file 17 "ChibiOS_3.0.2/os/rt/include/chmtx.h"
 3320              		.file 18 "ChibiOS_3.0.2/os/rt/include/chevents.h"
 3321              		.file 19 "ChibiOS_3.0.2/os/rt/include/chqueues.h"
 3322              		.file 20 "./datatypes.h"
 3323              		.file 21 "./conf_general.h"
 3324              		.file 22 "ChibiOS_3.0.2/os/hal/ports/STM32/STM32F4xx/stm32_dma.h"
 3325              		.file 23 "ChibiOS_3.0.2/os/hal/ports/STM32/LLD/GPIOv2/pal_lld.h"
 3326              		.file 24 "ChibiOS_3.0.2/os/hal/include/can.h"
 3327              		.file 25 "ChibiOS_3.0.2/os/hal/ports/STM32/LLD/can_lld.h"
 3328              		.file 26 "ChibiOS_3.0.2/os/hal/include/i2c.h"
 3329              		.file 27 "ChibiOS_3.0.2/os/hal/ports/STM32/LLD/I2Cv1/i2c_lld.h"
 3330              		.file 28 "ChibiOS_3.0.2/os/hal/include/icu.h"
 3331              		.file 29 "ChibiOS_3.0.2/os/hal/ports/STM32/LLD/TIMv1/icu_lld.h"
 3332              		.file 30 "ChibiOS_3.0.2/os/hal/ports/STM32/LLD/TIMv1/stm32_tim.h"
 3333              		.file 31 "ChibiOS_3.0.2/os/hal/include/serial.h"
 3334              		.file 32 "ChibiOS_3.0.2/os/hal/ports/STM32/LLD/USARTv1/serial_lld.h"
ARM GAS  /tmp/ccxadqkm.s 			page 60


 3335              		.file 33 "ChibiOS_3.0.2/os/hal/include/spi.h"
 3336              		.file 34 "ChibiOS_3.0.2/os/hal/ports/STM32/LLD/SPIv1/spi_lld.h"
 3337              		.file 35 "ChibiOS_3.0.2/os/hal/include/usb.h"
 3338              		.file 36 "ChibiOS_3.0.2/os/hal/ports/STM32/LLD/OTGv1/usb_lld.h"
 3339              		.file 37 "ChibiOS_3.0.2/os/hal/ports/STM32/LLD/OTGv1/stm32_otg.h"
 3340              		.file 38 "./mc_interface.h"
 3341              		.file 39 "/usr/arm-none-eabi/include/sys/lock.h"
 3342              		.file 40 "/usr/arm-none-eabi/include/sys/_types.h"
 3343              		.file 41 "/usr/arm-none-eabi/include/sys/reent.h"
 3344              		.file 42 "/usr/arm-none-eabi/include/math.h"
 3345              		.file 43 "./utils.h"
 3346              		.file 44 "./comm_can.h"
 3347              		.file 45 "./timeout.h"
 3348              		.file 46 "ChibiOS_3.0.2/os/rt/include/chthreads.h"
 3349              		.file 47 "applications/app.h"
 3350              		.file 48 "./imu/imu.h"
 3351              		.file 49 "<built-in>"