ARM GAS  /tmp/ccDtuH3m.s 			page 1


   1              		.cpu cortex-m4
   2              		.eabi_attribute 27, 1
   3              		.eabi_attribute 28, 1
   4              		.eabi_attribute 20, 1
   5              		.eabi_attribute 21, 1
   6              		.eabi_attribute 23, 3
   7              		.eabi_attribute 24, 1
   8              		.eabi_attribute 25, 1
   9              		.eabi_attribute 26, 1
  10              		.eabi_attribute 30, 2
  11              		.eabi_attribute 34, 1
  12              		.eabi_attribute 18, 4
  13              		.file	"app_balance.c"
  14              		.text
  15              	.Ltext0:
  16              		.cfi_sections	.debug_frame
  17              		.section	.text.app_balance_configure,"ax",%progbits
  18              		.align	1
  19              		.p2align 4,,15
  20              		.global	app_balance_configure
  21              		.syntax unified
  22              		.thumb
  23              		.thumb_func
  24              		.fpu fpv4-sp-d16
  25              		.type	app_balance_configure, %function
  26              	app_balance_configure:
  27              	.LFB256:
  28              		.file 1 "applications/app_balance.c"
  29              		.loc 1 74 0
  30              		.cfi_startproc
  31              		@ args = 0, pretend = 0, frame = 0
  32              		@ frame_needed = 0, uses_anonymous_args = 0
  33              	.LVL0:
  34 0000 10B5     		push	{r4, lr}
  35              		.cfi_def_cfa_offset 8
  36              		.cfi_offset 4, -8
  37              		.cfi_offset 14, -4
  38              		.loc 1 75 0
  39 0002 4822     		movs	r2, #72
  40              		.loc 1 74 0
  41 0004 0C46     		mov	r4, r1
  42              		.loc 1 75 0
  43 0006 0146     		mov	r1, r0
  44              	.LVL1:
  45 0008 0448     		ldr	r0, .L4
  46              	.LVL2:
  47 000a FFF7FEFF 		bl	memcpy
  48              	.LVL3:
  49              		.loc 1 76 0
  50 000e 2146     		mov	r1, r4
  51 0010 4C22     		movs	r2, #76
  52 0012 0348     		ldr	r0, .L4+4
  53 0014 FFF7FEFF 		bl	memcpy
  54              	.LVL4:
  55              		.loc 1 77 0
  56 0018 10BD     		pop	{r4, pc}
  57              	.LVL5:
ARM GAS  /tmp/ccDtuH3m.s 			page 2


  58              	.L5:
  59 001a 00BF     		.align	2
  60              	.L4:
  61 001c 00000000 		.word	.LANCHOR0
  62 0020 00000000 		.word	.LANCHOR1
  63              		.cfi_endproc
  64              	.LFE256:
  65              		.size	app_balance_configure, .-app_balance_configure
  66              		.section	.text.app_balance_start,"ax",%progbits
  67              		.align	1
  68              		.p2align 4,,15
  69              		.global	app_balance_start
  70              		.syntax unified
  71              		.thumb
  72              		.thumb_func
  73              		.fpu fpv4-sp-d16
  74              		.type	app_balance_start, %function
  75              	app_balance_start:
  76              	.LFB257:
  77              		.loc 1 79 0
  78              		.cfi_startproc
  79              		@ args = 0, pretend = 0, frame = 0
  80              		@ frame_needed = 0, uses_anonymous_args = 0
  81              		.loc 1 104 0
  82 0000 1C4B     		ldr	r3, .L12
  83              		.loc 1 98 0
  84 0002 1D48     		ldr	r0, .L12+4
  85              		.loc 1 104 0
  86 0004 197E     		ldrb	r1, [r3, #24]	@ zero_extendqisi2
  87              		.loc 1 93 0
  88 0006 1D4B     		ldr	r3, .L12+8
  89              		.loc 1 79 0
  90 0008 F0B5     		push	{r4, r5, r6, r7, lr}
  91              		.cfi_def_cfa_offset 20
  92              		.cfi_offset 4, -20
  93              		.cfi_offset 5, -16
  94              		.cfi_offset 6, -12
  95              		.cfi_offset 7, -8
  96              		.cfi_offset 14, -4
  97              		.loc 1 85 0
  98 000a 1D4D     		ldr	r5, .L12+12
  99              		.loc 1 97 0
 100 000c 1D4C     		ldr	r4, .L12+16
 101              		.loc 1 82 0
 102 000e 1E4F     		ldr	r7, .L12+20
 103              		.loc 1 83 0
 104 0010 1E4E     		ldr	r6, .L12+24
 105              		.loc 1 82 0
 106 0012 0022     		movs	r2, #0
 107              		.loc 1 85 0
 108 0014 2A80     		strh	r2, [r5]	@ movhi
 109              		.loc 1 97 0
 110 0016 2260     		str	r2, [r4]
 111              		.loc 1 98 0
 112 0018 0260     		str	r2, [r0]
 113              		.loc 1 93 0
 114 001a 1A70     		strb	r2, [r3]
ARM GAS  /tmp/ccDtuH3m.s 			page 3


 115              		.loc 1 84 0
 116 001c 1C4D     		ldr	r5, .L12+28
 117              		.loc 1 87 0
 118 001e 1D4C     		ldr	r4, .L12+32
 119              		.loc 1 89 0
 120 0020 1D48     		ldr	r0, .L12+36
 121              		.loc 1 82 0
 122 0022 3A70     		strb	r2, [r7]
 123              		.loc 1 90 0
 124 0024 1D4A     		ldr	r2, .L12+40
 125              		.loc 1 83 0
 126 0026 0023     		movs	r3, #0
 127              		.loc 1 84 0
 128 0028 2B60     		str	r3, [r5]	@ float
 129              		.loc 1 87 0
 130 002a 2360     		str	r3, [r4]	@ float
 131              		.loc 1 89 0
 132 002c 0360     		str	r3, [r0]	@ float
 133              		.loc 1 90 0
 134 002e 1360     		str	r3, [r2]	@ float
 135              		.loc 1 91 0
 136 0030 1B4D     		ldr	r5, .L12+44
 137              		.loc 1 92 0
 138 0032 1C4C     		ldr	r4, .L12+48
 139              		.loc 1 94 0
 140 0034 1C48     		ldr	r0, .L12+52
 141              		.loc 1 95 0
 142 0036 1D4A     		ldr	r2, .L12+56
 143              		.loc 1 83 0
 144 0038 3360     		str	r3, [r6]	@ float
 145              		.loc 1 79 0
 146 003a 83B0     		sub	sp, sp, #12
 147              		.cfi_def_cfa_offset 32
 148              		.loc 1 91 0
 149 003c 2B60     		str	r3, [r5]	@ float
 150              		.loc 1 92 0
 151 003e 2360     		str	r3, [r4]	@ float
 152              		.loc 1 94 0
 153 0040 0360     		str	r3, [r0]	@ float
 154              		.loc 1 95 0
 155 0042 1360     		str	r3, [r2]	@ float
 156              		.loc 1 104 0
 157 0044 49B1     		cbz	r1, .L7
 158              		.loc 1 105 0
 159 0046 4022     		movs	r2, #64
 160 0048 2021     		movs	r1, #32
 161 004a 1948     		ldr	r0, .L12+60
 162 004c FFF7FEFF 		bl	_pal_lld_setgroupmode
 163              	.LVL6:
 164              		.loc 1 106 0
 165 0050 4022     		movs	r2, #64
 166 0052 1146     		mov	r1, r2
 167 0054 1648     		ldr	r0, .L12+60
 168 0056 FFF7FEFF 		bl	_pal_lld_setgroupmode
 169              	.LVL7:
 170              	.L7:
 171              		.loc 1 111 0
ARM GAS  /tmp/ccDtuH3m.s 			page 4


 172 005a 0023     		movs	r3, #0
 173 005c 0093     		str	r3, [sp]
 174 005e 4022     		movs	r2, #64
 175 0060 144B     		ldr	r3, .L12+64
 176 0062 1548     		ldr	r0, .L12+68
 177 0064 40F69811 		movw	r1, #2456
 178 0068 FFF7FEFF 		bl	chThdCreateStatic
 179              	.LVL8:
 180 006c 134B     		ldr	r3, .L12+72
 181 006e 1860     		str	r0, [r3]
 182              		.loc 1 112 0
 183 0070 03B0     		add	sp, sp, #12
 184              		.cfi_def_cfa_offset 20
 185              		@ sp needed
 186 0072 F0BD     		pop	{r4, r5, r6, r7, pc}
 187              	.L13:
 188              		.align	2
 189              	.L12:
 190 0074 00000000 		.word	.LANCHOR0
 191 0078 00000000 		.word	.LANCHOR15
 192 007c 00000000 		.word	.LANCHOR11
 193 0080 00000000 		.word	.LANCHOR5
 194 0084 00000000 		.word	.LANCHOR14
 195 0088 00000000 		.word	.LANCHOR2
 196 008c 00000000 		.word	.LANCHOR3
 197 0090 00000000 		.word	.LANCHOR4
 198 0094 00000000 		.word	.LANCHOR6
 199 0098 00000000 		.word	.LANCHOR7
 200 009c 00000000 		.word	.LANCHOR8
 201 00a0 00000000 		.word	.LANCHOR9
 202 00a4 00000000 		.word	.LANCHOR10
 203 00a8 00000000 		.word	.LANCHOR12
 204 00ac 00000000 		.word	.LANCHOR13
 205 00b0 00000240 		.word	1073872896
 206 00b4 00000000 		.word	balance_thread
 207 00b8 00000000 		.word	.LANCHOR16
 208 00bc 00000000 		.word	.LANCHOR17
 209              		.cfi_endproc
 210              	.LFE257:
 211              		.size	app_balance_start, .-app_balance_start
 212              		.section	.text.app_balance_stop,"ax",%progbits
 213              		.align	1
 214              		.p2align 4,,15
 215              		.global	app_balance_stop
 216              		.syntax unified
 217              		.thumb
 218              		.thumb_func
 219              		.fpu fpv4-sp-d16
 220              		.type	app_balance_stop, %function
 221              	app_balance_stop:
 222              	.LFB258:
 223              		.loc 1 114 0
 224              		.cfi_startproc
 225              		@ args = 0, pretend = 0, frame = 0
 226              		@ frame_needed = 0, uses_anonymous_args = 0
 227 0000 10B5     		push	{r4, lr}
 228              		.cfi_def_cfa_offset 8
ARM GAS  /tmp/ccDtuH3m.s 			page 5


 229              		.cfi_offset 4, -8
 230              		.cfi_offset 14, -4
 231              		.loc 1 115 0
 232 0002 074C     		ldr	r4, .L20
 233 0004 2068     		ldr	r0, [r4]
 234 0006 20B1     		cbz	r0, .L15
 235              		.loc 1 116 0
 236 0008 FFF7FEFF 		bl	chThdTerminate
 237              	.LVL9:
 238              		.loc 1 117 0
 239 000c 2068     		ldr	r0, [r4]
 240 000e FFF7FEFF 		bl	chThdWait
 241              	.LVL10:
 242              	.L15:
 243              		.loc 1 119 0
 244 0012 9FED040A 		vldr.32	s0, .L20+4
 245              		.loc 1 120 0
 246 0016 BDE81040 		pop	{r4, lr}
 247              		.cfi_restore 14
 248              		.cfi_restore 4
 249              		.cfi_def_cfa_offset 0
 250              		.loc 1 119 0
 251 001a FFF7FEBF 		b	mc_interface_set_current
 252              	.LVL11:
 253              	.L21:
 254 001e 00BF     		.align	2
 255              	.L20:
 256 0020 00000000 		.word	.LANCHOR17
 257 0024 00000000 		.word	0
 258              		.cfi_endproc
 259              	.LFE258:
 260              		.size	app_balance_stop, .-app_balance_stop
 261              		.section	.text.app_balance_get_pid_output,"ax",%progbits
 262              		.align	1
 263              		.p2align 4,,15
 264              		.global	app_balance_get_pid_output
 265              		.syntax unified
 266              		.thumb
 267              		.thumb_func
 268              		.fpu fpv4-sp-d16
 269              		.type	app_balance_get_pid_output, %function
 270              	app_balance_get_pid_output:
 271              	.LFB259:
 272              		.loc 1 122 0
 273              		.cfi_startproc
 274              		@ args = 0, pretend = 0, frame = 0
 275              		@ frame_needed = 0, uses_anonymous_args = 0
 276              		@ link register save eliminated.
 277              		.loc 1 123 0
 278 0000 014B     		ldr	r3, .L23
 279              		.loc 1 124 0
 280 0002 93ED000A 		vldr.32	s0, [r3]
 281 0006 7047     		bx	lr
 282              	.L24:
 283              		.align	2
 284              	.L23:
 285 0008 00000000 		.word	.LANCHOR8
ARM GAS  /tmp/ccDtuH3m.s 			page 6


 286              		.cfi_endproc
 287              	.LFE259:
 288              		.size	app_balance_get_pid_output, .-app_balance_get_pid_output
 289              		.section	.text.app_balance_get_pitch_angle,"ax",%progbits
 290              		.align	1
 291              		.p2align 4,,15
 292              		.global	app_balance_get_pitch_angle
 293              		.syntax unified
 294              		.thumb
 295              		.thumb_func
 296              		.fpu fpv4-sp-d16
 297              		.type	app_balance_get_pitch_angle, %function
 298              	app_balance_get_pitch_angle:
 299              	.LFB260:
 300              		.loc 1 125 0
 301              		.cfi_startproc
 302              		@ args = 0, pretend = 0, frame = 0
 303              		@ frame_needed = 0, uses_anonymous_args = 0
 304              		@ link register save eliminated.
 305              		.loc 1 126 0
 306 0000 014B     		ldr	r3, .L26
 307              		.loc 1 127 0
 308 0002 93ED000A 		vldr.32	s0, [r3]
 309 0006 7047     		bx	lr
 310              	.L27:
 311              		.align	2
 312              	.L26:
 313 0008 00000000 		.word	.LANCHOR3
 314              		.cfi_endproc
 315              	.LFE260:
 316              		.size	app_balance_get_pitch_angle, .-app_balance_get_pitch_angle
 317              		.section	.text.app_balance_get_roll_angle,"ax",%progbits
 318              		.align	1
 319              		.p2align 4,,15
 320              		.global	app_balance_get_roll_angle
 321              		.syntax unified
 322              		.thumb
 323              		.thumb_func
 324              		.fpu fpv4-sp-d16
 325              		.type	app_balance_get_roll_angle, %function
 326              	app_balance_get_roll_angle:
 327              	.LFB261:
 328              		.loc 1 128 0
 329              		.cfi_startproc
 330              		@ args = 0, pretend = 0, frame = 0
 331              		@ frame_needed = 0, uses_anonymous_args = 0
 332              		@ link register save eliminated.
 333              		.loc 1 129 0
 334 0000 014B     		ldr	r3, .L29
 335              		.loc 1 130 0
 336 0002 93ED000A 		vldr.32	s0, [r3]
 337 0006 7047     		bx	lr
 338              	.L30:
 339              		.align	2
 340              	.L29:
 341 0008 00000000 		.word	.LANCHOR4
 342              		.cfi_endproc
ARM GAS  /tmp/ccDtuH3m.s 			page 7


 343              	.LFE261:
 344              		.size	app_balance_get_roll_angle, .-app_balance_get_roll_angle
 345              		.section	.text.app_balance_get_diff_time,"ax",%progbits
 346              		.align	1
 347              		.p2align 4,,15
 348              		.global	app_balance_get_diff_time
 349              		.syntax unified
 350              		.thumb
 351              		.thumb_func
 352              		.fpu fpv4-sp-d16
 353              		.type	app_balance_get_diff_time, %function
 354              	app_balance_get_diff_time:
 355              	.LFB262:
 356              		.loc 1 131 0
 357              		.cfi_startproc
 358              		@ args = 0, pretend = 0, frame = 0
 359              		@ frame_needed = 0, uses_anonymous_args = 0
 360              		@ link register save eliminated.
 361              		.loc 1 132 0
 362 0000 054B     		ldr	r3, .L32
 363 0002 0649     		ldr	r1, .L32+4
 364 0004 1868     		ldr	r0, [r3]
 365 0006 064B     		ldr	r3, .L32+8
 366 0008 42F20F72 		movw	r2, #9999
 367 000c 01FB0020 		mla	r0, r1, r0, r2
 368 0010 A3FB0030 		umull	r3, r0, r3, r0
 369              		.loc 1 133 0
 370 0014 400B     		lsrs	r0, r0, #13
 371 0016 7047     		bx	lr
 372              	.L33:
 373              		.align	2
 374              	.L32:
 375 0018 00000000 		.word	.LANCHOR15
 376 001c 40420F00 		.word	1000000
 377 0020 5917B7D1 		.word	-776530087
 378              		.cfi_endproc
 379              	.LFE262:
 380              		.size	app_balance_get_diff_time, .-app_balance_get_diff_time
 381              		.section	.text.app_balance_get_motor_current,"ax",%progbits
 382              		.align	1
 383              		.p2align 4,,15
 384              		.global	app_balance_get_motor_current
 385              		.syntax unified
 386              		.thumb
 387              		.thumb_func
 388              		.fpu fpv4-sp-d16
 389              		.type	app_balance_get_motor_current, %function
 390              	app_balance_get_motor_current:
 391              	.LFB263:
 392              		.loc 1 134 0
 393              		.cfi_startproc
 394              		@ args = 0, pretend = 0, frame = 0
 395              		@ frame_needed = 0, uses_anonymous_args = 0
 396              		@ link register save eliminated.
 397              		.loc 1 135 0
 398 0000 014B     		ldr	r3, .L35
 399              		.loc 1 136 0
ARM GAS  /tmp/ccDtuH3m.s 			page 8


 400 0002 93ED000A 		vldr.32	s0, [r3]
 401 0006 7047     		bx	lr
 402              	.L36:
 403              		.align	2
 404              	.L35:
 405 0008 00000000 		.word	.LANCHOR18
 406              		.cfi_endproc
 407              	.LFE263:
 408              		.size	app_balance_get_motor_current, .-app_balance_get_motor_current
 409              		.section	.text.app_balance_get_motor_position,"ax",%progbits
 410              		.align	1
 411              		.p2align 4,,15
 412              		.global	app_balance_get_motor_position
 413              		.syntax unified
 414              		.thumb
 415              		.thumb_func
 416              		.fpu fpv4-sp-d16
 417              		.type	app_balance_get_motor_position, %function
 418              	app_balance_get_motor_position:
 419              	.LFB264:
 420              		.loc 1 137 0
 421              		.cfi_startproc
 422              		@ args = 0, pretend = 0, frame = 0
 423              		@ frame_needed = 0, uses_anonymous_args = 0
 424              		@ link register save eliminated.
 425              		.loc 1 138 0
 426 0000 014B     		ldr	r3, .L38
 427              		.loc 1 139 0
 428 0002 93ED000A 		vldr.32	s0, [r3]
 429 0006 7047     		bx	lr
 430              	.L39:
 431              		.align	2
 432              	.L38:
 433 0008 00000000 		.word	.LANCHOR19
 434              		.cfi_endproc
 435              	.LFE264:
 436              		.size	app_balance_get_motor_position, .-app_balance_get_motor_position
 437              		.section	.text.app_balance_get_state,"ax",%progbits
 438              		.align	1
 439              		.p2align 4,,15
 440              		.global	app_balance_get_state
 441              		.syntax unified
 442              		.thumb
 443              		.thumb_func
 444              		.fpu fpv4-sp-d16
 445              		.type	app_balance_get_state, %function
 446              	app_balance_get_state:
 447              	.LFB265:
 448              		.loc 1 140 0
 449              		.cfi_startproc
 450              		@ args = 0, pretend = 0, frame = 0
 451              		@ frame_needed = 0, uses_anonymous_args = 0
 452              		@ link register save eliminated.
 453              		.loc 1 141 0
 454 0000 014B     		ldr	r3, .L41
 455              		.loc 1 142 0
 456 0002 1878     		ldrb	r0, [r3]	@ zero_extendqisi2
ARM GAS  /tmp/ccDtuH3m.s 			page 9


 457 0004 7047     		bx	lr
 458              	.L42:
 459 0006 00BF     		.align	2
 460              	.L41:
 461 0008 00000000 		.word	.LANCHOR2
 462              		.cfi_endproc
 463              	.LFE265:
 464              		.size	app_balance_get_state, .-app_balance_get_state
 465              		.section	.text.app_balance_get_switch_value,"ax",%progbits
 466              		.align	1
 467              		.p2align 4,,15
 468              		.global	app_balance_get_switch_value
 469              		.syntax unified
 470              		.thumb
 471              		.thumb_func
 472              		.fpu fpv4-sp-d16
 473              		.type	app_balance_get_switch_value, %function
 474              	app_balance_get_switch_value:
 475              	.LFB266:
 476              		.loc 1 143 0
 477              		.cfi_startproc
 478              		@ args = 0, pretend = 0, frame = 0
 479              		@ frame_needed = 0, uses_anonymous_args = 0
 480              		@ link register save eliminated.
 481              		.loc 1 144 0
 482 0000 014B     		ldr	r3, .L44
 483              		.loc 1 145 0
 484 0002 1888     		ldrh	r0, [r3]
 485 0004 7047     		bx	lr
 486              	.L45:
 487 0006 00BF     		.align	2
 488              	.L44:
 489 0008 00000000 		.word	.LANCHOR5
 490              		.cfi_endproc
 491              	.LFE266:
 492              		.size	app_balance_get_switch_value, .-app_balance_get_switch_value
 493              		.section	.text.get_setpoint_adjustment_step_size,"ax",%progbits
 494              		.align	1
 495              		.p2align 4,,15
 496              		.global	get_setpoint_adjustment_step_size
 497              		.syntax unified
 498              		.thumb
 499              		.thumb_func
 500              		.fpu fpv4-sp-d16
 501              		.type	get_setpoint_adjustment_step_size, %function
 502              	get_setpoint_adjustment_step_size:
 503              	.LFB267:
 504              		.loc 1 147 0
 505              		.cfi_startproc
 506              		@ args = 0, pretend = 0, frame = 0
 507              		@ frame_needed = 0, uses_anonymous_args = 0
 508              		@ link register save eliminated.
 509              		.loc 1 148 0
 510 0000 074B     		ldr	r3, .L53
 511 0002 1B78     		ldrb	r3, [r3]	@ zero_extendqisi2
 512 0004 43B1     		cbz	r3, .L48
 513 0006 012B     		cmp	r3, #1
ARM GAS  /tmp/ccDtuH3m.s 			page 10


 514 0008 03D1     		bne	.L52
 515              		.loc 1 152 0
 516 000a 064B     		ldr	r3, .L53+4
 517 000c 93ED000A 		vldr.32	s0, [r3]
 518 0010 7047     		bx	lr
 519              	.L52:
 520              		.loc 1 154 0
 521 0012 9FED050A 		vldr.32	s0, .L53+8
 522              		.loc 1 155 0
 523 0016 7047     		bx	lr
 524              	.L48:
 525              		.loc 1 150 0
 526 0018 044B     		ldr	r3, .L53+12
 527 001a 93ED000A 		vldr.32	s0, [r3]
 528 001e 7047     		bx	lr
 529              	.L54:
 530              		.align	2
 531              	.L53:
 532 0020 00000000 		.word	.LANCHOR11
 533 0024 00000000 		.word	.LANCHOR13
 534 0028 00000000 		.word	0
 535 002c 00000000 		.word	.LANCHOR12
 536              		.cfi_endproc
 537              	.LFE267:
 538              		.size	get_setpoint_adjustment_step_size, .-get_setpoint_adjustment_step_size
 539              		.section	.text.apply_deadzone,"ax",%progbits
 540              		.align	1
 541              		.p2align 4,,15
 542              		.global	apply_deadzone
 543              		.syntax unified
 544              		.thumb
 545              		.thumb_func
 546              		.fpu fpv4-sp-d16
 547              		.type	apply_deadzone, %function
 548              	apply_deadzone:
 549              	.LFB268:
 550              		.loc 1 157 0
 551              		.cfi_startproc
 552              		@ args = 0, pretend = 0, frame = 0
 553              		@ frame_needed = 0, uses_anonymous_args = 0
 554              		@ link register save eliminated.
 555              	.LVL12:
 556              		.loc 1 158 0
 557 0000 144B     		ldr	r3, .L66
 558 0002 D3ED107A 		vldr.32	s15, [r3, #64]
 559 0006 F5EE407A 		vcmp.f32	s15, #0
 560 000a F1EE10FA 		vmrs	APSR_nzcv, FPSCR
 561 000e 1FD0     		beq	.L55
 562              		.loc 1 162 0
 563 0010 D3ED107A 		vldr.32	s15, [r3, #64]
 564 0014 F4EEC07A 		vcmpe.f32	s15, s0
 565 0018 F1EE10FA 		vmrs	APSR_nzcv, FPSCR
 566 001c 08DD     		ble	.L57
 567              		.loc 1 162 0 is_stmt 0 discriminator 1
 568 001e D3ED107A 		vldr.32	s15, [r3, #64]
 569 0022 F1EE677A 		vneg.f32	s15, s15
 570 0026 F4EEC07A 		vcmpe.f32	s15, s0
ARM GAS  /tmp/ccDtuH3m.s 			page 11


 571 002a F1EE10FA 		vmrs	APSR_nzcv, FPSCR
 572 002e 0DD4     		bmi	.L62
 573              	.L57:
 574              	.LVL13:
 575              	.LBB26:
 576              	.LBB27:
 577              		.loc 1 164 0 is_stmt 1
 578 0030 D3ED107A 		vldr.32	s15, [r3, #64]
 579 0034 B4EEE70A 		vcmpe.f32	s0, s15
 580              		.loc 1 165 0
 581 0038 D3ED107A 		vldr.32	s15, [r3, #64]
 582              		.loc 1 164 0
 583 003c F1EE10FA 		vmrs	APSR_nzcv, FPSCR
 584              		.loc 1 165 0
 585 0040 CCBF     		ite	gt
 586 0042 30EE670A 		vsubgt.f32	s0, s0, s15
 587              	.LVL14:
 588              		.loc 1 167 0
 589 0046 30EE270A 		vaddle.f32	s0, s0, s15
 590 004a 7047     		bx	lr
 591              	.LVL15:
 592              	.L62:
 593              	.LBE27:
 594              	.LBE26:
 595              		.loc 1 163 0
 596 004c 9FED020A 		vldr.32	s0, .L66+4
 597              	.LVL16:
 598              	.L55:
 599              		.loc 1 169 0
 600 0050 7047     		bx	lr
 601              	.L67:
 602 0052 00BF     		.align	2
 603              	.L66:
 604 0054 00000000 		.word	.LANCHOR0
 605 0058 00000000 		.word	0
 606              		.cfi_endproc
 607              	.LFE268:
 608              		.size	apply_deadzone, .-apply_deadzone
 609              		.section	.text.balance_thread,"ax",%progbits
 610              		.align	1
 611              		.p2align 4,,15
 612              		.syntax unified
 613              		.thumb
 614              		.thumb_func
 615              		.fpu fpv4-sp-d16
 616              		.type	balance_thread, %function
 617              	balance_thread:
 618              	.LFB269:
 619              		.loc 1 171 0
 620              		.cfi_startproc
 621              		@ args = 0, pretend = 0, frame = 0
 622              		@ frame_needed = 0, uses_anonymous_args = 0
 623              	.LVL17:
 624 0000 2DE9F84F 		push	{r3, r4, r5, r6, r7, r8, r9, r10, fp, lr}
 625              		.cfi_def_cfa_offset 40
 626              		.cfi_offset 3, -40
 627              		.cfi_offset 4, -36
ARM GAS  /tmp/ccDtuH3m.s 			page 12


 628              		.cfi_offset 5, -32
 629              		.cfi_offset 6, -28
 630              		.cfi_offset 7, -24
 631              		.cfi_offset 8, -20
 632              		.cfi_offset 9, -16
 633              		.cfi_offset 10, -12
 634              		.cfi_offset 11, -8
 635              		.cfi_offset 14, -4
 636              		.loc 1 176 0
 637 0004 C54C     		ldr	r4, .L170
 638              	.LBB28:
 639              	.LBB29:
 640              		.file 2 "ChibiOS_3.0.2/os/rt/include/chregistry.h"
 641              		.loc 2 135 0
 642 0006 C64D     		ldr	r5, .L170+4
 643              	.LBE29:
 644              	.LBE28:
 645              		.loc 1 176 0
 646 0008 D4ED0F5A 		vldr.32	s11, [r4, #60]
 647 000c A389     		ldrh	r3, [r4, #12]
 648              		.loc 1 177 0
 649 000e 94ED0A6A 		vldr.32	s12, [r4, #40]
 650              	.LBB33:
 651              	.LBB30:
 652              		.loc 2 135 0
 653 0012 C449     		ldr	r1, .L170+8
 654              	.LBE30:
 655              	.LBE33:
 656              		.loc 1 179 0
 657 0014 DFF86C83 		ldr	r8, .L170+104
 658              		.loc 1 176 0
 659 0018 07EE103A 		vmov	s14, r3	@ int
 660              		.loc 1 177 0
 661 001c A389     		ldrh	r3, [r4, #12]
 662              		.loc 1 176 0
 663 001e B8EEC77A 		vcvt.f32.s32	s14, s14
 664              		.loc 1 177 0
 665 0022 07EE903A 		vmov	s15, r3	@ int
 666              		.loc 1 176 0
 667 0026 C5EE876A 		vdiv.f32	s13, s11, s14
 668              	.LBB34:
 669              	.LBB31:
 670              		.loc 2 135 0
 671 002a AB69     		ldr	r3, [r5, #24]
 672              	.LBE31:
 673              	.LBE34:
 674              		.loc 1 177 0
 675 002c F8EEE77A 		vcvt.f32.s32	s15, s15
 676              		.loc 1 171 0
 677 0030 2DED068B 		vpush.64	{d8, d9, d10}
 678              		.cfi_def_cfa_offset 64
 679              		.cfi_offset 80, -64
 680              		.cfi_offset 81, -60
 681              		.cfi_offset 82, -56
 682              		.cfi_offset 83, -52
 683              		.cfi_offset 84, -48
 684              		.cfi_offset 85, -44
ARM GAS  /tmp/ccDtuH3m.s 			page 13


 685              		.loc 1 177 0
 686 0034 86EE277A 		vdiv.f32	s14, s12, s15
 687              	.LBB35:
 688              	.LBB32:
 689              		.loc 2 135 0
 690 0038 9961     		str	r1, [r3, #24]
 691              	.LVL18:
 692              	.LBE32:
 693              	.LBE35:
 694              		.loc 1 180 0
 695 003a BB49     		ldr	r1, .L170+12
 696              		.loc 1 182 0
 697 003c 5A7F     		ldrb	r2, [r3, #29]	@ zero_extendqisi2
 698              		.loc 1 179 0
 699 003e 0023     		movs	r3, #0
 700 0040 88F80030 		strb	r3, [r8]
 701              		.loc 1 180 0
 702 0044 0B70     		strb	r3, [r1]
 703              		.loc 1 176 0
 704 0046 B94B     		ldr	r3, .L170+16
 705              		.loc 1 182 0
 706 0048 5007     		lsls	r0, r2, #29
 707              	.LVL19:
 708              		.loc 1 176 0
 709 004a C3ED006A 		vstr.32	s13, [r3]
 710              		.loc 1 177 0
 711 004e B84B     		ldr	r3, .L170+20
 712 0050 83ED007A 		vstr.32	s14, [r3]
 713              		.loc 1 182 0
 714 0054 00F18B80 		bmi	.L69
 715 0058 B64E     		ldr	r6, .L170+24
 716 005a DFF82C93 		ldr	r9, .L170+108
 717 005e DFF82CA3 		ldr	r10, .L170+112
 718 0062 B54F     		ldr	r7, .L170+28
 719              		.loc 1 196 0
 720 0064 DFEDB58A 		vldr.32	s17, .L170+32
 721 0068 9FEDB58A 		vldr.32	s16, .L170+36
 722              		.loc 1 309 0
 723 006c 9FEDB59A 		vldr.32	s18, .L170+40
 724              		.loc 1 240 0
 725 0070 DFEDB59A 		vldr.32	s19, .L170+44
 726              		.loc 1 242 0
 727 0074 9FEDB5AA 		vldr.32	s20, .L170+48
 728              		.loc 1 314 0
 729 0078 DFF814B3 		ldr	fp, .L170+116
 730              	.L123:
 731              		.loc 1 185 0
 732 007c 3368     		ldr	r3, [r6]
 733              	.LBB36:
 734              	.LBB37:
 735              		.file 3 "ChibiOS_3.0.2/os/rt/include/chvt.h"
 736              		.loc 3 231 0
 737 007e AA6A     		ldr	r2, [r5, #40]
 738              	.LBE37:
 739              	.LBE36:
 740              		.loc 1 185 0
 741 0080 03B1     		cbz	r3, .L70
ARM GAS  /tmp/ccDtuH3m.s 			page 14


 742 0082 D31A     		subs	r3, r2, r3
 743              	.L70:
 744              		.loc 1 188 0
 745 0084 B249     		ldr	r1, .L170+52
 746              		.loc 1 189 0
 747 0086 3260     		str	r2, [r6]
 748              		.loc 1 188 0
 749 0088 0B60     		str	r3, [r1]
 750              		.loc 1 192 0
 751 008a FFF7FEFF 		bl	mc_interface_get_tot_current_directional_filtered
 752              	.LVL20:
 753 008e B14B     		ldr	r3, .L170+56
 754 0090 83ED000A 		vstr.32	s0, [r3]
 755              		.loc 1 193 0
 756 0094 FFF7FEFF 		bl	mc_interface_get_pid_pos_now
 757              	.LVL21:
 758 0098 AF4B     		ldr	r3, .L170+60
 759 009a 83ED000A 		vstr.32	s0, [r3]
 760              		.loc 1 196 0
 761 009e FFF7FEFF 		bl	imu_get_pitch
 762              	.LVL22:
 763 00a2 20EE280A 		vmul.f32	s0, s0, s17
 764 00a6 C0EE087A 		vdiv.f32	s15, s0, s16
 765 00aa C9ED007A 		vstr.32	s15, [r9]
 766              		.loc 1 197 0
 767 00ae FFF7FEFF 		bl	imu_get_roll
 768              	.LVL23:
 769 00b2 20EE280A 		vmul.f32	s0, s0, s17
 770              		.loc 1 199 0
 771 00b6 237E     		ldrb	r3, [r4, #24]	@ zero_extendqisi2
 772              		.loc 1 197 0
 773 00b8 C0EE087A 		vdiv.f32	s15, s0, s16
 774 00bc CAED007A 		vstr.32	s15, [r10]
 775              		.loc 1 199 0
 776 00c0 002B     		cmp	r3, #0
 777 00c2 40F00481 		bne	.L71
 778              		.loc 1 200 0
 779 00c6 0223     		movs	r3, #2
 780 00c8 3B80     		strh	r3, [r7]	@ movhi
 781              	.L72:
 782              		.loc 1 214 0
 783 00ca 98F80030 		ldrb	r3, [r8]	@ zero_extendqisi2
 784 00ce 032B     		cmp	r3, #3
 785 00d0 2DD8     		bhi	.L74
 786 00d2 DFE803F0 		tbb	[pc, r3]
 787              	.L76:
 788 00d6 06       		.byte	(.L75-.L76)/2
 789 00d7 54       		.byte	(.L77-.L76)/2
 790 00d8 0E       		.byte	(.L78-.L76)/2
 791 00d9 28       		.byte	(.L79-.L76)/2
 792              		.p2align 1
 793              	.L80:
 794              		.loc 1 217 0
 795 00da 4FF4FA70 		mov	r0, #500
 796 00de FFF7FEFF 		bl	chThdSleep
 797              	.LVL24:
 798              	.L75:
ARM GAS  /tmp/ccDtuH3m.s 			page 15


 799              		.loc 1 216 0
 800 00e2 FFF7FEFF 		bl	imu_startup_done
 801              	.LVL25:
 802 00e6 0028     		cmp	r0, #0
 803 00e8 F7D0     		beq	.L80
 804              		.loc 1 219 0
 805 00ea 0223     		movs	r3, #2
 806 00ec 88F80030 		strb	r3, [r8]
 807              		.loc 1 222 0
 808 00f0 1DE0     		b	.L74
 809              	.L78:
 810              		.loc 1 296 0
 811 00f2 99ED007A 		vldr.32	s14, [r9]
 812 00f6 D4ED0D7A 		vldr.32	s15, [r4, #52]
 813 00fa F0EEC76A 		vabs.f32	s13, s14
 814 00fe F4EEE76A 		vcmpe.f32	s13, s15
 815 0102 F1EE10FA 		vmrs	APSR_nzcv, FPSCR
 816 0106 0ED5     		bpl	.L79
 817              		.loc 1 296 0 is_stmt 0 discriminator 1
 818 0108 DAED007A 		vldr.32	s15, [r10]
 819 010c D4ED0E6A 		vldr.32	s13, [r4, #56]
 820 0110 F0EEE77A 		vabs.f32	s15, s15
 821 0114 F4EEE67A 		vcmpe.f32	s15, s13
 822 0118 F1EE10FA 		vmrs	APSR_nzcv, FPSCR
 823 011c 03D5     		bpl	.L79
 824              		.loc 1 296 0
 825 011e 3B88     		ldrh	r3, [r7]
 826 0120 022B     		cmp	r3, #2
 827 0122 00F09881 		beq	.L162
 828              	.L79:
 829              		.loc 1 309 0 is_stmt 1
 830 0126 B0EE490A 		vmov.f32	s0, s18
 831              	.L161:
 832 012a FFF7FEFF 		bl	mc_interface_set_current
 833              	.LVL26:
 834              	.L74:
 835              		.loc 1 314 0
 836 012e A389     		ldrh	r3, [r4, #12]
 837 0130 DFED8A7A 		vldr.32	s15, .L170+64
 838 0134 06EE903A 		vmov	s13, r3	@ int
 839 0138 F8EEE66A 		vcvt.f32.s32	s13, s13
 840 013c 42F21073 		movw	r3, #10000
 841 0140 87EEA67A 		vdiv.f32	s14, s15, s13
 842 0144 67EE277A 		vmul.f32	s15, s14, s15
 843 0148 FDEEE77A 		vcvt.s32.f32	s15, s15
 844 014c 17EE900A 		vmov	r0, s15	@ int
 845 0150 03FB00F0 		mul	r0, r3, r0
 846 0154 00F57420 		add	r0, r0, #999424
 847 0158 00F23F20 		addw	r0, r0, #575
 848 015c ABFB0030 		umull	r3, r0, fp, r0
 849 0160 800C     		lsrs	r0, r0, #18
 850 0162 FFF7FEFF 		bl	chThdSleep
 851              	.LVL27:
 852              	.LBB38:
 853              	.LBB39:
 854              		.file 4 "ChibiOS_3.0.2/os/rt/include/chthreads.h"
 855              		.loc 4 233 0
ARM GAS  /tmp/ccDtuH3m.s 			page 16


 856 0166 AB69     		ldr	r3, [r5, #24]
 857              	.LBE39:
 858              	.LBE38:
 859              		.loc 1 182 0
 860 0168 5B7F     		ldrb	r3, [r3, #29]	@ zero_extendqisi2
 861 016a 5B07     		lsls	r3, r3, #29
 862 016c 86D5     		bpl	.L123
 863              	.L69:
 864              		.loc 1 319 0
 865 016e BDEC068B 		vldm	sp!, {d8-d10}
 866              		.cfi_remember_state
 867              		.cfi_restore 84
 868              		.cfi_restore 85
 869              		.cfi_restore 82
 870              		.cfi_restore 83
 871              		.cfi_restore 80
 872              		.cfi_restore 81
 873              		.cfi_def_cfa_offset 40
 874              		.loc 1 318 0
 875 0172 9FED740A 		vldr.32	s0, .L170+40
 876              		.loc 1 319 0
 877 0176 BDE8F84F 		pop	{r3, r4, r5, r6, r7, r8, r9, r10, fp, lr}
 878              		.cfi_restore 14
 879              		.cfi_restore 11
 880              		.cfi_restore 10
 881              		.cfi_restore 9
 882              		.cfi_restore 8
 883              		.cfi_restore 7
 884              		.cfi_restore 6
 885              		.cfi_restore 5
 886              		.cfi_restore 4
 887              		.cfi_restore 3
 888              		.cfi_def_cfa_offset 0
 889              		.loc 1 318 0
 890 017a FFF7FEBF 		b	mc_interface_set_current
 891              	.LVL28:
 892              	.L77:
 893              		.cfi_restore_state
 894              		.loc 1 225 0
 895 017e FFF7FEFF 		bl	mc_interface_get_duty_cycle_now
 896              	.LVL29:
 897 0182 D4ED077A 		vldr.32	s15, [r4, #28]
 898              		.loc 1 231 0
 899 0186 94ED047A 		vldr.32	s14, [r4, #16]
 900              		.loc 1 225 0
 901 018a B0EEC00A 		vabs.f32	s0, s0
 902 018e B4EEE70A 		vcmpe.f32	s0, s15
 903              		.loc 1 231 0
 904 0192 D9ED007A 		vldr.32	s15, [r9]
 905              		.loc 1 225 0
 906 0196 F1EE10FA 		vmrs	APSR_nzcv, FPSCR
 907              		.loc 1 231 0
 908 019a F0EEE77A 		vabs.f32	s15, s15
 909              		.loc 1 226 0
 910 019e C8BF     		it	gt
 911 01a0 0323     		movgt	r3, #3
 912              		.loc 1 230 0
ARM GAS  /tmp/ccDtuH3m.s 			page 17


 913 01a2 F4EEC77A 		vcmpe.f32	s15, s14
 914              		.loc 1 226 0
 915 01a6 C8BF     		it	gt
 916 01a8 88F80030 		strbgt	r3, [r8]
 917              		.loc 1 230 0
 918 01ac F1EE10FA 		vmrs	APSR_nzcv, FPSCR
 919 01b0 0BDC     		bgt	.L86
 920              		.loc 1 232 0
 921 01b2 DAED007A 		vldr.32	s15, [r10]
 922 01b6 94ED057A 		vldr.32	s14, [r4, #20]
 923 01ba F0EEE77A 		vabs.f32	s15, s15
 924              		.loc 1 231 0
 925 01be F4EEC77A 		vcmpe.f32	s15, s14
 926 01c2 F1EE10FA 		vmrs	APSR_nzcv, FPSCR
 927 01c6 40F39580 		ble	.L163
 928              	.L86:
 929              		.loc 1 236 0
 930 01ca 0223     		movs	r3, #2
 931 01cc 88F80030 		strb	r3, [r8]
 932              	.L85:
 933              		.loc 1 240 0
 934 01d0 FFF7FEFF 		bl	mc_interface_get_duty_cycle_now
 935              	.LVL30:
 936 01d4 D4ED087A 		vldr.32	s15, [r4, #32]
 937 01d8 B0EEC00A 		vabs.f32	s0, s0
 938 01dc B4EEE70A 		vcmpe.f32	s0, s15
 939 01e0 F1EE10FA 		vmrs	APSR_nzcv, FPSCR
 940 01e4 1DDC     		bgt	.L95
 941              		.loc 1 241 0 discriminator 1
 942 01e6 FFF7FEFF 		bl	mc_interface_get_duty_cycle_now
 943              	.LVL31:
 944 01ea B0EEC00A 		vabs.f32	s0, s0
 945              		.loc 1 240 0 discriminator 1
 946 01ee B4EEE90A 		vcmpe.f32	s0, s19
 947 01f2 F1EE10FA 		vmrs	APSR_nzcv, FPSCR
 948 01f6 40F3CD80 		ble	.L93
 949              		.loc 1 241 0
 950 01fa 594B     		ldr	r3, .L170+68
 951 01fc 9FED597A 		vldr.32	s14, .L170+72
 952 0200 DB8A     		ldrh	r3, [r3, #22]
 953 0202 D4ED0B6A 		vldr.32	s13, [r4, #44]
 954 0206 07EE903A 		vmov	s15, r3	@ int
 955 020a F8EE677A 		vcvt.f32.u32	s15, s15
 956 020e 67EE8A7A 		vmul.f32	s15, s15, s20
 957 0212 67EE877A 		vmul.f32	s15, s15, s14
 958 0216 F4EEE67A 		vcmpe.f32	s15, s13
 959 021a F1EE10FA 		vmrs	APSR_nzcv, FPSCR
 960 021e 40F3B980 		ble	.L93
 961              	.L95:
 962              		.loc 1 243 0
 963 0222 FFF7FEFF 		bl	mc_interface_get_duty_cycle_now
 964              	.LVL32:
 965 0226 B5EEC00A 		vcmpe.f32	s0, #0
 966 022a F1EE10FA 		vmrs	APSR_nzcv, FPSCR
 967 022e 40F3E480 		ble	.L164
 968              		.loc 1 244 0
 969 0232 94ED097A 		vldr.32	s14, [r4, #36]
ARM GAS  /tmp/ccDtuH3m.s 			page 18


 970 0236 4C4B     		ldr	r3, .L170+76
 971 0238 83ED007A 		vstr.32	s14, [r3]
 972              	.L98:
 973              		.loc 1 254 0
 974 023c 4B4B     		ldr	r3, .L170+80
 975              		.loc 1 248 0
 976 023e 3A49     		ldr	r1, .L170+12
 977              		.loc 1 254 0
 978 0240 D3ED007A 		vldr.32	s15, [r3]
 979 0244 F4EE477A 		vcmp.f32	s15, s14
 980              		.loc 1 248 0
 981 0248 0122     		movs	r2, #1
 982              		.loc 1 254 0
 983 024a F1EE10FA 		vmrs	APSR_nzcv, FPSCR
 984              		.loc 1 248 0
 985 024e 0A70     		strb	r2, [r1]
 986              		.loc 1 254 0
 987 0250 40F01381 		bne	.L165
 988              	.L100:
 989              		.loc 1 266 0
 990 0254 99ED000A 		vldr.32	s0, [r9]
 991              		.loc 1 268 0
 992 0258 37EEC00A 		vsub.f32	s0, s15, s0
 993 025c FFF7FEFF 		bl	apply_deadzone
 994              	.LVL33:
 995              		.loc 1 270 0
 996 0260 434A     		ldr	r2, .L170+84
 997              		.loc 1 273 0
 998 0262 94ED006A 		vldr.32	s12, [r4]
 999              		.loc 1 270 0
 1000 0266 D2ED007A 		vldr.32	s15, [r2]
 1001              		.loc 1 273 0
 1002 026a 94ED017A 		vldr.32	s14, [r4, #4]
 1003              		.loc 1 271 0
 1004 026e 414B     		ldr	r3, .L170+88
 1005              		.loc 1 273 0
 1006 0270 D4ED026A 		vldr.32	s13, [r4, #8]
 1007              		.loc 1 270 0
 1008 0274 70EE277A 		vadd.f32	s15, s0, s15
 1009 0278 C2ED007A 		vstr.32	s15, [r2]
 1010              		.loc 1 273 0
 1011 027c 67EE877A 		vmul.f32	s15, s15, s14
 1012              		.loc 1 271 0
 1013 0280 93ED007A 		vldr.32	s14, [r3]
 1014              		.loc 1 275 0
 1015 0284 83ED000A 		vstr.32	s0, [r3]
 1016              		.loc 1 273 0
 1017 0288 E0EE067A 		vfma.f32	s15, s0, s12
 1018 028c 3A4B     		ldr	r3, .L170+92
 1019              		.loc 1 271 0
 1020 028e 30EE470A 		vsub.f32	s0, s0, s14
 1021              		.loc 1 273 0
 1022 0292 E0EE267A 		vfma.f32	s15, s0, s13
 1023              		.loc 1 278 0
 1024 0296 F5EEC07A 		vcmpe.f32	s15, #0
 1025 029a F1EE10FA 		vmrs	APSR_nzcv, FPSCR
 1026              		.loc 1 273 0
ARM GAS  /tmp/ccDtuH3m.s 			page 19


 1027 029e C3ED007A 		vstr.32	s15, [r3]
 1028              		.loc 1 278 0
 1029 02a2 40F3A080 		ble	.L158
 1030              		.loc 1 279 0
 1031 02a6 94ED117A 		vldr.32	s14, [r4, #68]
 1032 02aa 77EE877A 		vadd.f32	s15, s15, s14
 1033 02ae C3ED007A 		vstr.32	s15, [r3]
 1034              	.L117:
 1035              		.loc 1 285 0
 1036 02b2 FFF7FEFF 		bl	timeout_reset
 1037              	.LVL34:
 1038              		.loc 1 288 0
 1039 02b6 304B     		ldr	r3, .L170+92
 1040 02b8 93ED000A 		vldr.32	s0, [r3]
 1041 02bc B5EE400A 		vcmp.f32	s0, #0
 1042 02c0 F1EE10FA 		vmrs	APSR_nzcv, FPSCR
 1043 02c4 7FF431AF 		bne	.L161
 1044              		.loc 1 289 0
 1045 02c8 FFF7FEFF 		bl	mc_interface_release_motor
 1046              	.LVL35:
 1047 02cc 2FE7     		b	.L74
 1048              	.L71:
 1049              		.loc 1 204 0
 1050 02ce 2B4B     		ldr	r3, .L170+96
 1051 02d0 1B69     		ldr	r3, [r3, #16]
 1052 02d2 9906     		lsls	r1, r3, #26
 1053              		.loc 1 205 0
 1054 02d4 48BF     		it	mi
 1055 02d6 0123     		movmi	r3, #1
 1056              		.loc 1 202 0
 1057 02d8 4FF00002 		mov	r2, #0
 1058 02dc 3A80     		strh	r2, [r7]	@ movhi
 1059              		.loc 1 205 0
 1060 02de 48BF     		it	mi
 1061 02e0 3B80     		strhmi	r3, [r7]	@ movhi
 1062              		.loc 1 207 0
 1063 02e2 264B     		ldr	r3, .L170+96
 1064 02e4 1B69     		ldr	r3, [r3, #16]
 1065 02e6 5A06     		lsls	r2, r3, #25
 1066 02e8 7FF5EFAE 		bpl	.L72
 1067              		.loc 1 208 0
 1068 02ec 3B88     		ldrh	r3, [r7]
 1069 02ee 0133     		adds	r3, r3, #1
 1070 02f0 3B80     		strh	r3, [r7]	@ movhi
 1071 02f2 EAE6     		b	.L72
 1072              	.L163:
 1073              	.LBB40:
 1074              	.LBB41:
 1075              		.loc 1 144 0
 1076 02f4 3B88     		ldrh	r3, [r7]
 1077              	.LBE41:
 1078              	.LBE40:
 1079              		.loc 1 232 0
 1080 02f6 002B     		cmp	r3, #0
 1081 02f8 3FF467AF 		beq	.L86
 1082              		.loc 1 233 0
 1083 02fc 012B     		cmp	r3, #1
ARM GAS  /tmp/ccDtuH3m.s 			page 20


 1084 02fe 7FF467AF 		bne	.L85
 1085              		.loc 1 234 0
 1086 0302 FFF7FEFF 		bl	mc_interface_get_duty_cycle_now
 1087              	.LVL36:
 1088 0306 DFED1E7A 		vldr.32	s15, .L170+100
 1089 030a B0EEC00A 		vabs.f32	s0, s0
 1090 030e B4EEE70A 		vcmpe.f32	s0, s15
 1091 0312 F1EE10FA 		vmrs	APSR_nzcv, FPSCR
 1092 0316 3FF558AF 		bmi	.L86
 1093 031a 59E7     		b	.L85
 1094              	.L171:
 1095              		.align	2
 1096              	.L170:
 1097 031c 00000000 		.word	.LANCHOR0
 1098 0320 00000000 		.word	ch
 1099 0324 00000000 		.word	.LC0
 1100 0328 00000000 		.word	.LANCHOR11
 1101 032c 00000000 		.word	.LANCHOR12
 1102 0330 00000000 		.word	.LANCHOR13
 1103 0334 00000000 		.word	.LANCHOR14
 1104 0338 00000000 		.word	.LANCHOR5
 1105 033c 00003443 		.word	1127481344
 1106 0340 DB0F4940 		.word	1078530011
 1107 0344 00000000 		.word	0
 1108 0348 CDCC4C3D 		.word	1028443341
 1109 034c C07B523A 		.word	978484160
 1110 0350 00000000 		.word	.LANCHOR15
 1111 0354 00000000 		.word	.LANCHOR18
 1112 0358 00000000 		.word	.LANCHOR19
 1113 035c 00007A44 		.word	1148846080
 1114 0360 00000000 		.word	ADC_Value
 1115 0364 BAE8B241 		.word	1102244026
 1116 0368 00000000 		.word	.LANCHOR10
 1117 036c 00000000 		.word	.LANCHOR9
 1118 0370 00000000 		.word	.LANCHOR6
 1119 0374 00000000 		.word	.LANCHOR7
 1120 0378 00000000 		.word	.LANCHOR8
 1121 037c 00000240 		.word	1073872896
 1122 0380 A69B443B 		.word	994352038
 1123 0384 00000000 		.word	.LANCHOR2
 1124 0388 00000000 		.word	.LANCHOR3
 1125 038c 00000000 		.word	.LANCHOR4
 1126 0390 83DE1B43 		.word	1125899907
 1127              	.L93:
 1128              		.loc 1 242 0 discriminator 1
 1129 0394 FFF7FEFF 		bl	mc_interface_get_duty_cycle_now
 1130              	.LVL37:
 1131 0398 B0EEC00A 		vabs.f32	s0, s0
 1132              		.loc 1 241 0 discriminator 1
 1133 039c B4EEE90A 		vcmpe.f32	s0, s19
 1134 03a0 F1EE10FA 		vmrs	APSR_nzcv, FPSCR
 1135 03a4 42DC     		bgt	.L166
 1136              	.L96:
 1137              		.loc 1 254 0
 1138 03a6 4C4B     		ldr	r3, .L172
 1139              		.loc 1 250 0
 1140 03a8 4C4A     		ldr	r2, .L172+4
ARM GAS  /tmp/ccDtuH3m.s 			page 21


 1141              		.loc 1 254 0
 1142 03aa D3ED006A 		vldr.32	s13, [r3]
 1143              		.loc 1 250 0
 1144 03ae 82ED009A 		vstr.32	s18, [r2]
 1145              		.loc 1 254 0
 1146 03b2 F5EE406A 		vcmp.f32	s13, #0
 1147 03b6 F1EE10FA 		vmrs	APSR_nzcv, FPSCR
 1148 03ba 00F08980 		beq	.L125
 1149              	.LBB42:
 1150              	.LBB43:
 1151              		.loc 1 148 0
 1152 03be 484A     		ldr	r2, .L172+8
 1153              	.LBE43:
 1154              	.LBE42:
 1155              		.loc 1 256 0
 1156 03c0 39EE666A 		vsub.f32	s12, s18, s13
 1157              	.LBB48:
 1158              	.LBB44:
 1159              		.loc 1 148 0
 1160 03c4 1278     		ldrb	r2, [r2]	@ zero_extendqisi2
 1161              	.LBE44:
 1162              	.LBE48:
 1163              		.loc 1 256 0
 1164 03c6 F0EEC65A 		vabs.f32	s11, s12
 1165              	.LBB49:
 1166              	.LBB45:
 1167              		.loc 1 148 0
 1168 03ca F2B9     		cbnz	r2, .L167
 1169              		.loc 1 150 0
 1170 03cc 4549     		ldr	r1, .L172+12
 1171 03ce 91ED005A 		vldr.32	s10, [r1]
 1172              	.LBE45:
 1173              	.LBE49:
 1174              		.loc 1 254 0
 1175 03d2 F0EE497A 		vmov.f32	s15, s18
 1176              	.L104:
 1177              		.loc 1 256 0
 1178 03d6 B4EEE55A 		vcmpe.f32	s10, s11
 1179 03da F1EE10FA 		vmrs	APSR_nzcv, FPSCR
 1180 03de 59DD     		ble	.L155
 1181              	.L160:
 1182              		.loc 1 259 0
 1183 03e0 C3ED007A 		vstr.32	s15, [r3]
 1184 03e4 36E7     		b	.L100
 1185              	.L158:
 1186              		.loc 1 280 0
 1187 03e6 7FF564AF 		bpl	.L117
 1188              		.loc 1 281 0
 1189 03ea 94ED117A 		vldr.32	s14, [r4, #68]
 1190 03ee 3E4B     		ldr	r3, .L172+16
 1191 03f0 77EEC77A 		vsub.f32	s15, s15, s14
 1192 03f4 C3ED007A 		vstr.32	s15, [r3]
 1193 03f8 5BE7     		b	.L117
 1194              	.L164:
 1195              		.loc 1 246 0
 1196 03fa 94ED097A 		vldr.32	s14, [r4, #36]
 1197 03fe 374B     		ldr	r3, .L172+4
ARM GAS  /tmp/ccDtuH3m.s 			page 22


 1198 0400 B1EE477A 		vneg.f32	s14, s14
 1199 0404 83ED007A 		vstr.32	s14, [r3]
 1200 0408 18E7     		b	.L98
 1201              	.L167:
 1202              	.LBB50:
 1203              	.LBB46:
 1204              		.loc 1 148 0
 1205 040a 012A     		cmp	r2, #1
 1206 040c 5BD0     		beq	.L168
 1207              	.LBE46:
 1208              	.LBE50:
 1209              		.loc 1 258 0
 1210 040e B5EEC06A 		vcmpe.f32	s12, #0
 1211 0412 F1EE10FA 		vmrs	APSR_nzcv, FPSCR
 1212 0416 2BDC     		bgt	.L129
 1213              	.L107:
 1214              	.LBB51:
 1215              	.LBB52:
 1216              		.loc 1 148 0
 1217 0418 002A     		cmp	r2, #0
 1218 041a 4ED0     		beq	.L113
 1219 041c 012A     		cmp	r2, #1
 1220 041e 49D1     		bne	.L169
 1221 0420 324A     		ldr	r2, .L172+20
 1222 0422 D2ED007A 		vldr.32	s15, [r2]
 1223 0426 76EEE77A 		vsub.f32	s15, s13, s15
 1224 042a D9E7     		b	.L160
 1225              	.L166:
 1226              	.LBE52:
 1227              	.LBE51:
 1228              		.loc 1 242 0
 1229 042c 304B     		ldr	r3, .L172+24
 1230 042e 9FED317A 		vldr.32	s14, .L172+28
 1231 0432 DB8A     		ldrh	r3, [r3, #22]
 1232 0434 D4ED0C6A 		vldr.32	s13, [r4, #48]
 1233 0438 07EE903A 		vmov	s15, r3	@ int
 1234 043c F8EE677A 		vcvt.f32.u32	s15, s15
 1235 0440 67EE8A7A 		vmul.f32	s15, s15, s20
 1236 0444 67EE877A 		vmul.f32	s15, s15, s14
 1237 0448 F4EEE67A 		vcmpe.f32	s15, s13
 1238 044c F1EE10FA 		vmrs	APSR_nzcv, FPSCR
 1239 0450 3FF5E7AE 		bmi	.L95
 1240 0454 A7E7     		b	.L96
 1241              	.L162:
 1242              		.loc 1 297 0
 1243 0456 204A     		ldr	r2, .L172
 1244              		.loc 1 298 0
 1245 0458 204B     		ldr	r3, .L172+4
 1246              		.loc 1 299 0
 1247 045a 2149     		ldr	r1, .L172+8
 1248              		.loc 1 297 0
 1249 045c 82ED007A 		vstr.32	s14, [r2]
 1250              		.loc 1 298 0
 1251 0460 83ED009A 		vstr.32	s18, [r3]
 1252              		.loc 1 299 0
 1253 0464 0022     		movs	r2, #0
 1254              		.loc 1 300 0
ARM GAS  /tmp/ccDtuH3m.s 			page 23


 1255 0466 0123     		movs	r3, #1
 1256              		.loc 1 299 0
 1257 0468 0A70     		strb	r2, [r1]
 1258              		.loc 1 300 0
 1259 046a 88F80030 		strb	r3, [r8]
 1260              		.loc 1 301 0
 1261 046e 5EE6     		b	.L74
 1262              	.L129:
 1263              	.LBB54:
 1264              	.LBB55:
 1265              		.loc 1 154 0
 1266 0470 F0EE497A 		vmov.f32	s15, s18
 1267              	.L109:
 1268              	.LBE55:
 1269              	.LBE54:
 1270              		.loc 1 259 0
 1271 0474 77EEA67A 		vadd.f32	s15, s15, s13
 1272 0478 B2E7     		b	.L160
 1273              	.L165:
 1274              		.loc 1 256 0
 1275 047a 37EE676A 		vsub.f32	s12, s14, s15
 1276 047e F0EEC65A 		vabs.f32	s11, s12
 1277              	.L103:
 1278              	.LBB57:
 1279              	.LBB47:
 1280              		.loc 1 152 0
 1281 0482 1A4A     		ldr	r2, .L172+20
 1282 0484 F0EE676A 		vmov.f32	s13, s15
 1283 0488 92ED005A 		vldr.32	s10, [r2]
 1284 048c F0EE477A 		vmov.f32	s15, s14
 1285 0490 0122     		movs	r2, #1
 1286 0492 A0E7     		b	.L104
 1287              	.L155:
 1288              	.LBE47:
 1289              	.LBE57:
 1290              		.loc 1 258 0
 1291 0494 B5EEC06A 		vcmpe.f32	s12, #0
 1292 0498 F1EE10FA 		vmrs	APSR_nzcv, FPSCR
 1293 049c BCDD     		ble	.L107
 1294              	.LBB58:
 1295              	.LBB56:
 1296              		.loc 1 148 0
 1297 049e 2AB1     		cbz	r2, .L110
 1298 04a0 012A     		cmp	r2, #1
 1299 04a2 E5D1     		bne	.L129
 1300              		.loc 1 152 0
 1301 04a4 114A     		ldr	r2, .L172+20
 1302 04a6 D2ED007A 		vldr.32	s15, [r2]
 1303 04aa E3E7     		b	.L109
 1304              	.L110:
 1305              		.loc 1 150 0
 1306 04ac 0D4A     		ldr	r2, .L172+12
 1307 04ae D2ED007A 		vldr.32	s15, [r2]
 1308 04b2 DFE7     		b	.L109
 1309              	.L169:
 1310              	.LBE56:
 1311              	.LBE58:
ARM GAS  /tmp/ccDtuH3m.s 			page 24


 1312              	.LBB59:
 1313              	.LBB53:
 1314              		.loc 1 148 0
 1315 04b4 F0EE667A 		vmov.f32	s15, s13
 1316 04b8 92E7     		b	.L160
 1317              	.L113:
 1318 04ba 0A4A     		ldr	r2, .L172+12
 1319 04bc D2ED007A 		vldr.32	s15, [r2]
 1320 04c0 76EEE77A 		vsub.f32	s15, s13, s15
 1321 04c4 8CE7     		b	.L160
 1322              	.L168:
 1323              	.LBE53:
 1324              	.LBE59:
 1325              		.loc 1 254 0
 1326 04c6 F0EE667A 		vmov.f32	s15, s13
 1327 04ca B0EE497A 		vmov.f32	s14, s18
 1328 04ce D8E7     		b	.L103
 1329              	.L125:
 1330 04d0 F0EE667A 		vmov.f32	s15, s13
 1331 04d4 BEE6     		b	.L100
 1332              	.L173:
 1333 04d6 00BF     		.align	2
 1334              	.L172:
 1335 04d8 00000000 		.word	.LANCHOR9
 1336 04dc 00000000 		.word	.LANCHOR10
 1337 04e0 00000000 		.word	.LANCHOR11
 1338 04e4 00000000 		.word	.LANCHOR12
 1339 04e8 00000000 		.word	.LANCHOR8
 1340 04ec 00000000 		.word	.LANCHOR13
 1341 04f0 00000000 		.word	ADC_Value
 1342 04f4 BAE8B241 		.word	1102244026
 1343              		.cfi_endproc
 1344              	.LFE269:
 1345              		.size	balance_thread, .-balance_thread
 1346              		.section	.bss.app_thread,"aw",%nobits
 1347              		.align	2
 1348              		.set	.LANCHOR17,. + 0
 1349              		.type	app_thread, %object
 1350              		.size	app_thread, 4
 1351              	app_thread:
 1352 0000 00000000 		.space	4
 1353              		.section	.bss.balance_conf,"aw",%nobits
 1354              		.align	2
 1355              		.set	.LANCHOR0,. + 0
 1356              		.type	balance_conf, %object
 1357              		.size	balance_conf, 72
 1358              	balance_conf:
 1359 0000 00000000 		.space	72
 1359      00000000 
 1359      00000000 
 1359      00000000 
 1359      00000000 
 1360              		.section	.bss.balance_thread_wa,"aw",%nobits
 1361              		.align	3
 1362              		.set	.LANCHOR16,. + 0
 1363              		.type	balance_thread_wa, %object
 1364              		.size	balance_thread_wa, 2456
ARM GAS  /tmp/ccDtuH3m.s 			page 25


 1365              	balance_thread_wa:
 1366 0000 00000000 		.space	2456
 1366      00000000 
 1366      00000000 
 1366      00000000 
 1366      00000000 
 1367              		.section	.bss.diff_time,"aw",%nobits
 1368              		.align	2
 1369              		.set	.LANCHOR15,. + 0
 1370              		.type	diff_time, %object
 1371              		.size	diff_time, 4
 1372              	diff_time:
 1373 0000 00000000 		.space	4
 1374              		.section	.bss.imu_conf,"aw",%nobits
 1375              		.align	2
 1376              		.set	.LANCHOR1,. + 0
 1377              		.type	imu_conf, %object
 1378              		.size	imu_conf, 76
 1379              	imu_conf:
 1380 0000 00000000 		.space	76
 1380      00000000 
 1380      00000000 
 1380      00000000 
 1380      00000000 
 1381              		.section	.bss.integral,"aw",%nobits
 1382              		.align	2
 1383              		.set	.LANCHOR6,. + 0
 1384              		.type	integral, %object
 1385              		.size	integral, 4
 1386              	integral:
 1387 0000 00000000 		.space	4
 1388              		.section	.bss.last_proportional,"aw",%nobits
 1389              		.align	2
 1390              		.set	.LANCHOR7,. + 0
 1391              		.type	last_proportional, %object
 1392              		.size	last_proportional, 4
 1393              	last_proportional:
 1394 0000 00000000 		.space	4
 1395              		.section	.bss.last_time,"aw",%nobits
 1396              		.align	2
 1397              		.set	.LANCHOR14,. + 0
 1398              		.type	last_time, %object
 1399              		.size	last_time, 4
 1400              	last_time:
 1401 0000 00000000 		.space	4
 1402              		.section	.bss.motor_current,"aw",%nobits
 1403              		.align	2
 1404              		.set	.LANCHOR18,. + 0
 1405              		.type	motor_current, %object
 1406              		.size	motor_current, 4
 1407              	motor_current:
 1408 0000 00000000 		.space	4
 1409              		.section	.bss.motor_position,"aw",%nobits
 1410              		.align	2
 1411              		.set	.LANCHOR19,. + 0
 1412              		.type	motor_position, %object
 1413              		.size	motor_position, 4
ARM GAS  /tmp/ccDtuH3m.s 			page 26


 1414              	motor_position:
 1415 0000 00000000 		.space	4
 1416              		.section	.bss.pid_value,"aw",%nobits
 1417              		.align	2
 1418              		.set	.LANCHOR8,. + 0
 1419              		.type	pid_value, %object
 1420              		.size	pid_value, 4
 1421              	pid_value:
 1422 0000 00000000 		.space	4
 1423              		.section	.bss.pitch_angle,"aw",%nobits
 1424              		.align	2
 1425              		.set	.LANCHOR3,. + 0
 1426              		.type	pitch_angle, %object
 1427              		.size	pitch_angle, 4
 1428              	pitch_angle:
 1429 0000 00000000 		.space	4
 1430              		.section	.bss.roll_angle,"aw",%nobits
 1431              		.align	2
 1432              		.set	.LANCHOR4,. + 0
 1433              		.type	roll_angle, %object
 1434              		.size	roll_angle, 4
 1435              	roll_angle:
 1436 0000 00000000 		.space	4
 1437              		.section	.bss.setpoint,"aw",%nobits
 1438              		.align	2
 1439              		.set	.LANCHOR9,. + 0
 1440              		.type	setpoint, %object
 1441              		.size	setpoint, 4
 1442              	setpoint:
 1443 0000 00000000 		.space	4
 1444              		.section	.bss.setpointAdjustmentType,"aw",%nobits
 1445              		.set	.LANCHOR11,. + 0
 1446              		.type	setpointAdjustmentType, %object
 1447              		.size	setpointAdjustmentType, 1
 1448              	setpointAdjustmentType:
 1449 0000 00       		.space	1
 1450              		.section	.bss.setpoint_target,"aw",%nobits
 1451              		.align	2
 1452              		.set	.LANCHOR10,. + 0
 1453              		.type	setpoint_target, %object
 1454              		.size	setpoint_target, 4
 1455              	setpoint_target:
 1456 0000 00000000 		.space	4
 1457              		.section	.bss.startup_step_size,"aw",%nobits
 1458              		.align	2
 1459              		.set	.LANCHOR12,. + 0
 1460              		.type	startup_step_size, %object
 1461              		.size	startup_step_size, 4
 1462              	startup_step_size:
 1463 0000 00000000 		.space	4
 1464              		.section	.bss.state,"aw",%nobits
 1465              		.set	.LANCHOR2,. + 0
 1466              		.type	state, %object
 1467              		.size	state, 1
 1468              	state:
 1469 0000 00       		.space	1
 1470              		.section	.bss.switches_value,"aw",%nobits
ARM GAS  /tmp/ccDtuH3m.s 			page 27


 1471              		.align	1
 1472              		.set	.LANCHOR5,. + 0
 1473              		.type	switches_value, %object
 1474              		.size	switches_value, 2
 1475              	switches_value:
 1476 0000 0000     		.space	2
 1477              		.section	.bss.tiltback_step_size,"aw",%nobits
 1478              		.align	2
 1479              		.set	.LANCHOR13,. + 0
 1480              		.type	tiltback_step_size, %object
 1481              		.size	tiltback_step_size, 4
 1482              	tiltback_step_size:
 1483 0000 00000000 		.space	4
 1484              		.section	.rodata.balance_thread.str1.4,"aMS",%progbits,1
 1485              		.align	2
 1486              	.LC0:
 1487 0000 4150505F 		.ascii	"APP_BALANCE\000"
 1487      42414C41 
 1487      4E434500 
 1488              		.text
 1489              	.Letext0:
 1490              		.file 5 "/usr/arm-none-eabi/include/machine/_default_types.h"
 1491              		.file 6 "/usr/arm-none-eabi/include/sys/_stdint.h"
 1492              		.file 7 "/usr/lib/gcc/arm-none-eabi/7.3.1/include/stddef.h"
 1493              		.file 8 "ChibiOS_3.0.2/os/rt/ports/ARMCMx/compilers/GCC/chtypes.h"
 1494              		.file 9 "ChibiOS_3.0.2/os/rt/include/chsystypes.h"
 1495              		.file 10 "ChibiOS_3.0.2/os/rt/include/chschd.h"
 1496              		.file 11 "ChibiOS_3.0.2/os/ext/CMSIS/include/core_cm4.h"
 1497              		.file 12 "ChibiOS_3.0.2/os/ext/CMSIS/ST/system_stm32f4xx.h"
 1498              		.file 13 "ChibiOS_3.0.2/os/ext/CMSIS/ST/stm32f407xx.h"
 1499              		.file 14 "ChibiOS_3.0.2/os/rt/ports/ARMCMx/chcore.h"
 1500              		.file 15 "ChibiOS_3.0.2/os/rt/ports/ARMCMx/chcore_v7m.h"
 1501              		.file 16 "ChibiOS_3.0.2/os/rt/include/chtm.h"
 1502              		.file 17 "ChibiOS_3.0.2/os/rt/include/chsem.h"
 1503              		.file 18 "ChibiOS_3.0.2/os/rt/include/chmtx.h"
 1504              		.file 19 "ChibiOS_3.0.2/os/rt/include/chevents.h"
 1505              		.file 20 "ChibiOS_3.0.2/os/rt/include/chqueues.h"
 1506              		.file 21 "./datatypes.h"
 1507              		.file 22 "./conf_general.h"
 1508              		.file 23 "ChibiOS_3.0.2/os/hal/ports/STM32/STM32F4xx/stm32_dma.h"
 1509              		.file 24 "ChibiOS_3.0.2/os/hal/ports/STM32/LLD/GPIOv2/pal_lld.h"
 1510              		.file 25 "ChibiOS_3.0.2/os/hal/include/can.h"
 1511              		.file 26 "ChibiOS_3.0.2/os/hal/ports/STM32/LLD/can_lld.h"
 1512              		.file 27 "ChibiOS_3.0.2/os/hal/include/i2c.h"
 1513              		.file 28 "ChibiOS_3.0.2/os/hal/ports/STM32/LLD/I2Cv1/i2c_lld.h"
 1514              		.file 29 "ChibiOS_3.0.2/os/hal/include/icu.h"
 1515              		.file 30 "ChibiOS_3.0.2/os/hal/ports/STM32/LLD/TIMv1/icu_lld.h"
 1516              		.file 31 "ChibiOS_3.0.2/os/hal/ports/STM32/LLD/TIMv1/stm32_tim.h"
 1517              		.file 32 "ChibiOS_3.0.2/os/hal/include/serial.h"
 1518              		.file 33 "ChibiOS_3.0.2/os/hal/ports/STM32/LLD/USARTv1/serial_lld.h"
 1519              		.file 34 "ChibiOS_3.0.2/os/hal/include/spi.h"
 1520              		.file 35 "ChibiOS_3.0.2/os/hal/ports/STM32/LLD/SPIv1/spi_lld.h"
 1521              		.file 36 "ChibiOS_3.0.2/os/hal/include/usb.h"
 1522              		.file 37 "ChibiOS_3.0.2/os/hal/ports/STM32/LLD/OTGv1/usb_lld.h"
 1523              		.file 38 "ChibiOS_3.0.2/os/hal/ports/STM32/LLD/OTGv1/stm32_otg.h"
 1524              		.file 39 "./mc_interface.h"
 1525              		.file 40 "/usr/arm-none-eabi/include/sys/lock.h"
ARM GAS  /tmp/ccDtuH3m.s 			page 28


 1526              		.file 41 "/usr/arm-none-eabi/include/sys/_types.h"
 1527              		.file 42 "/usr/arm-none-eabi/include/sys/reent.h"
 1528              		.file 43 "/usr/arm-none-eabi/include/math.h"
 1529              		.file 44 "./imu/imu.h"
 1530              		.file 45 "./timeout.h"
 1531              		.file 46 "<built-in>"