ARM GAS  /tmp/cc3lmtRN.s 			page 1


   1              		.cpu cortex-m4
   2              		.eabi_attribute 27, 1
   3              		.eabi_attribute 28, 1
   4              		.eabi_attribute 20, 1
   5              		.eabi_attribute 21, 1
   6              		.eabi_attribute 23, 3
   7              		.eabi_attribute 24, 1
   8              		.eabi_attribute 25, 1
   9              		.eabi_attribute 26, 1
  10              		.eabi_attribute 30, 2
  11              		.eabi_attribute 34, 1
  12              		.eabi_attribute 18, 4
  13              		.file	"chcore_v7m.c"
  14              		.text
  15              	.Ltext0:
  16              		.cfi_sections	.debug_frame
  17              		.section	.text.PendSV_Handler,"ax",%progbits
  18              		.align	1
  19              		.p2align 4,,15
  20              		.global	PendSV_Handler
  21              		.syntax unified
  22              		.thumb
  23              		.thumb_func
  24              		.fpu fpv4-sp-d16
  25              		.type	PendSV_Handler, %function
  26              	PendSV_Handler:
  27              	.LFB219:
  28              		.file 1 "ChibiOS_3.0.2/os/rt/ports/ARMCMx/chcore_v7m.c"
  29              		.loc 1 94 0
  30              		.cfi_startproc
  31              		@ args = 0, pretend = 0, frame = 0
  32              		@ frame_needed = 1, uses_anonymous_args = 0
  33              		@ link register save eliminated.
  34 0000 80B4     		push	{r7}
  35              		.cfi_def_cfa_offset 4
  36              		.cfi_offset 7, -4
  37              		.loc 1 100 0
  38 0002 074A     		ldr	r2, .L4
  39 0004 5368     		ldr	r3, [r2, #4]
  40 0006 23F00103 		bic	r3, r3, #1
  41              		.loc 1 94 0
  42 000a 00AF     		add	r7, sp, #0
  43              		.cfi_def_cfa_register 7
  44              		.loc 1 100 0
  45 000c 5360     		str	r3, [r2, #4]
  46              	.LBB42:
  47              	.LBB43:
  48              		.file 2 "ChibiOS_3.0.2/os/ext/CMSIS/include/core_cmFunc.h"
  49              		.loc 2 428 0
  50              		.syntax unified
  51              	@ 428 "ChibiOS_3.0.2/os/ext/CMSIS/include/core_cmFunc.h" 1
  52 000e EFF30983 		MRS r3, psp
  53              	
  54              	@ 0 "" 2
  55              	.LVL0:
  56              		.thumb
  57              		.syntax unified
ARM GAS  /tmp/cc3lmtRN.s 			page 2


  58              	.LBE43:
  59              	.LBE42:
  60              		.loc 1 108 0
  61 0012 6833     		adds	r3, r3, #104
  62              	.LVL1:
  63              	.LBB44:
  64              	.LBB45:
  65              		.loc 2 441 0
  66              		.syntax unified
  67              	@ 441 "ChibiOS_3.0.2/os/ext/CMSIS/include/core_cmFunc.h" 1
  68 0014 83F30988 		MSR psp, r3
  69              	
  70              	@ 0 "" 2
  71              	.LVL2:
  72              		.thumb
  73              		.syntax unified
  74              	.LBE45:
  75              	.LBE44:
  76              		.loc 1 112 0
  77 0018 BD46     		mov	sp, r7
  78              		.cfi_def_cfa_register 13
  79              		@ sp needed
  80 001a 5DF8047B 		ldr	r7, [sp], #4
  81              		.cfi_restore 7
  82              		.cfi_def_cfa_offset 0
  83 001e 7047     		bx	lr
  84              	.L5:
  85              		.align	2
  86              	.L4:
  87 0020 30EF00E0 		.word	-536809680
  88              		.cfi_endproc
  89              	.LFE219:
  90              		.size	PendSV_Handler, .-PendSV_Handler
  91              		.section	.text._port_irq_epilogue,"ax",%progbits
  92              		.align	1
  93              		.p2align 4,,15
  94              		.global	_port_irq_epilogue
  95              		.syntax unified
  96              		.thumb
  97              		.thumb_func
  98              		.fpu fpv4-sp-d16
  99              		.type	_port_irq_epilogue, %function
 100              	_port_irq_epilogue:
 101              	.LFB220:
 102              		.loc 1 122 0
 103              		.cfi_startproc
 104              		@ args = 0, pretend = 0, frame = 0
 105              		@ frame_needed = 1, uses_anonymous_args = 0
 106 0000 98B5     		push	{r3, r4, r7, lr}
 107              		.cfi_def_cfa_offset 16
 108              		.cfi_offset 3, -16
 109              		.cfi_offset 4, -12
 110              		.cfi_offset 7, -8
 111              		.cfi_offset 14, -4
 112 0002 00AF     		add	r7, sp, #0
 113              		.cfi_def_cfa_register 7
 114              	.LBB46:
ARM GAS  /tmp/cc3lmtRN.s 			page 3


 115              	.LBB47:
 116              	.LBB48:
 117              	.LBB49:
 118              		.loc 2 342 0
 119              		.syntax unified
 120              	@ 342 "ChibiOS_3.0.2/os/ext/CMSIS/include/core_cmFunc.h" 1
 121 0004 72B6     		cpsid i
 122              	@ 0 "" 2
 123              		.thumb
 124              		.syntax unified
 125              	.LBE49:
 126              	.LBE48:
 127              	.LBE47:
 128              	.LBE46:
 129              		.loc 1 125 0
 130 0006 104B     		ldr	r3, .L12
 131 0008 5B68     		ldr	r3, [r3, #4]
 132 000a 1B05     		lsls	r3, r3, #20
 133 000c 01D4     		bmi	.L11
 134              	.LBB50:
 135              	.LBB51:
 136              	.LBB52:
 137              	.LBB53:
 138              		.loc 2 331 0
 139              		.syntax unified
 140              	@ 331 "ChibiOS_3.0.2/os/ext/CMSIS/include/core_cmFunc.h" 1
 141 000e 62B6     		cpsie i
 142              	@ 0 "" 2
 143              		.thumb
 144              		.syntax unified
 145              	.LBE53:
 146              	.LBE52:
 147              	.LBE51:
 148              	.LBE50:
 149              		.loc 1 166 0
 150 0010 98BD     		pop	{r3, r4, r7, pc}
 151              	.L11:
 152              	.LBB54:
 153              	.LBB55:
 154              	.LBB56:
 155              		.loc 2 593 0
 156              		.loc 2 594 0
 157              		.syntax unified
 158              	@ 594 "ChibiOS_3.0.2/os/ext/CMSIS/include/core_cmFunc.h" 1
 159 0012 F1EE103A 		VMRS r3, fpscr
 160              	@ 0 "" 2
 161              	.LVL3:
 162              		.loc 2 595 0
 163              		.thumb
 164              		.syntax unified
 165              	.LBE56:
 166              	.LBE55:
 167              	.LBB57:
 168              	.LBB58:
 169              		.loc 2 428 0
 170              		.syntax unified
 171              	@ 428 "ChibiOS_3.0.2/os/ext/CMSIS/include/core_cmFunc.h" 1
ARM GAS  /tmp/cc3lmtRN.s 			page 4


 172 0016 EFF30984 		MRS r4, psp
 173              	
 174              	@ 0 "" 2
 175              	.LVL4:
 176              		.thumb
 177              		.syntax unified
 178              	.LBE58:
 179              	.LBE57:
 180              		.loc 1 143 0
 181 001a 0C4B     		ldr	r3, .L12+4
 182              		.loc 1 141 0
 183 001c 4FF08072 		mov	r2, #16777216
 184              		.loc 1 143 0
 185 0020 DB68     		ldr	r3, [r3, #12]
 186 0022 44F8083C 		str	r3, [r4, #-8]
 187              	.LVL5:
 188              		.loc 1 141 0
 189 0026 44F84C2C 		str	r2, [r4, #-76]
 190              		.loc 1 138 0
 191 002a A4F16803 		sub	r3, r4, #104
 192              	.LVL6:
 193              	.LBB59:
 194              	.LBB60:
 195              		.loc 2 441 0
 196              		.syntax unified
 197              	@ 441 "ChibiOS_3.0.2/os/ext/CMSIS/include/core_cmFunc.h" 1
 198 002e 83F30988 		MSR psp, r3
 199              	
 200              	@ 0 "" 2
 201              	.LVL7:
 202              		.thumb
 203              		.syntax unified
 204              	.LBE60:
 205              	.LBE59:
 206              		.loc 1 151 0
 207 0032 FFF7FEFF 		bl	chSchIsPreemptionRequired
 208              	.LVL8:
 209 0036 18B1     		cbz	r0, .L8
 210              		.loc 1 153 0
 211 0038 054B     		ldr	r3, .L12+8
 212 003a 44F8503C 		str	r3, [r4, #-80]
 213              	.LBE54:
 214              		.loc 1 166 0
 215 003e 98BD     		pop	{r3, r4, r7, pc}
 216              	.LVL9:
 217              	.L8:
 218              	.LBB61:
 219              		.loc 1 158 0
 220 0040 044B     		ldr	r3, .L12+12
 221 0042 44F8503C 		str	r3, [r4, #-80]
 222              	.LBE61:
 223              		.loc 1 166 0
 224 0046 98BD     		pop	{r3, r4, r7, pc}
 225              	.LVL10:
 226              	.L13:
 227              		.align	2
 228              	.L12:
ARM GAS  /tmp/cc3lmtRN.s 			page 5


 229 0048 00ED00E0 		.word	-536810240
 230 004c 30EF00E0 		.word	-536809680
 231 0050 00000000 		.word	_port_switch_from_isr
 232 0054 00000000 		.word	_port_exit_from_isr
 233              		.cfi_endproc
 234              	.LFE220:
 235              		.size	_port_irq_epilogue, .-_port_irq_epilogue
 236              		.text
 237              	.Letext0:
 238              		.file 3 "/usr/arm-none-eabi/include/machine/_default_types.h"
 239              		.file 4 "/usr/arm-none-eabi/include/sys/_stdint.h"
 240              		.file 5 "ChibiOS_3.0.2/os/rt/ports/ARMCMx/compilers/GCC/chtypes.h"
 241              		.file 6 "ChibiOS_3.0.2/os/rt/include/chsystypes.h"
 242              		.file 7 "ChibiOS_3.0.2/os/rt/include/chschd.h"
 243              		.file 8 "ChibiOS_3.0.2/os/ext/CMSIS/include/core_cm4.h"
 244              		.file 9 "ChibiOS_3.0.2/os/ext/CMSIS/ST/system_stm32f4xx.h"
 245              		.file 10 "ChibiOS_3.0.2/os/rt/ports/ARMCMx/chcore.h"
 246              		.file 11 "ChibiOS_3.0.2/os/rt/ports/ARMCMx/chcore_v7m.h"
 247              		.file 12 "ChibiOS_3.0.2/os/rt/include/chtm.h"
 248              		.file 13 "ChibiOS_3.0.2/os/rt/include/chsem.h"
 249              		.file 14 "ChibiOS_3.0.2/os/rt/include/chmtx.h"
 250              		.file 15 "ChibiOS_3.0.2/os/rt/include/chregistry.h"