ARM GAS  /tmp/cc3lmtRN.s 			page 1


   1              		.cpu cortex-m4
   2              		.eabi_attribute 27, 1
   3              		.eabi_attribute 28, 1
   4              		.eabi_attribute 20, 1
   5              		.eabi_attribute 21, 1
   6              		.eabi_attribute 23, 3
   7              		.eabi_attribute 24, 1
   8              		.eabi_attribute 25, 1
   9              		.eabi_attribute 26, 1
  10              		.eabi_attribute 30, 2
  11              		.eabi_attribute 34, 1
  12              		.eabi_attribute 18, 4
  13              		.file	"chcore_v7m.c"
  14              		.text
  15              	.Ltext0:
  16              		.cfi_sections	.debug_frame
  17              		.section	.text.PendSV_Handler,"ax",%progbits
  18              		.align	1
  19              		.p2align 4,,15
  20              		.global	PendSV_Handler
  21              		.syntax unified
  22              		.thumb
  23              		.thumb_func
  24              		.fpu fpv4-sp-d16
  25              		.type	PendSV_Handler, %function
  26              	PendSV_Handler:
  27              	.LFB219:
  28              		.file 1 "ChibiOS_3.0.2/os/rt/ports/ARMCMx/chcore_v7m.c"
  29              		.loc 1 94 0
  30              		.cfi_startproc
  31              		@ args = 0, pretend = 0, frame = 0
  32              		@ frame_needed = 1, uses_anonymous_args = 0
  33              		@ link register save eliminated.
  34 0000 80B4     		push	{r7}
  35              		.cfi_def_cfa_offset 4
  36              		.cfi_offset 7, -4
  37              		.loc 1 100 0
  38 0002 074A     		ldr	r2, .L4
  39 0004 5368     		ldr	r3, [r2, #4]
  40 0006 23F00103 		bic	r3, r3, #1
  41              		.loc 1 94 0
  42 000a 00AF     		add	r7, sp, #0
  43              		.cfi_def_cfa_register 7
  44              		.loc 1 100 0
  45 000c 5360     		str	r3, [r2, #4]
  46              	.LBB42:
  47              	.LBB43:
  48              		.file 2 "ChibiOS_3.0.2/os/ext/CMSIS/include/core_cmFunc.h"
  49              		.loc 2 428 0
  50              		.syntax unified
  51              	@ 428 "ChibiOS_3.0.2/os/ext/CMSIS/include/core_cmFunc.h" 1
  52 000e EFF30983 		MRS r3, psp
  53              	
  54              	@ 0 "" 2
  55              	.LVL0:
  56              		.thumb
  57              		.syntax unified
ARM GAS  /tmp/cc3lmtRN.s 			page 2


  58              	.LBE43:
  59              	.LBE42:
  60              		.loc 1 108 0
  61 0012 6833     		adds	r3, r3, #104
  62              	.LVL1:
  63              	.LBB44:
  64              	.LBB45:
  65              		.loc 2 441 0
  66              		.syntax unified
  67              	@ 441 "ChibiOS_3.0.2/os/ext/CMSIS/include/core_cmFunc.h" 1
  68 0014 83F30988 		MSR psp, r3
  69              	
  70              	@ 0 "" 2
  71              	.LVL2:
  72              		.thumb
  73              		.syntax unified
  74              	.LBE45:
  75              	.LBE44:
  76              		.loc 1 112 0
  77 0018 BD46     		mov	sp, r7
  78              		.cfi_def_cfa_register 13
  79              		@ sp needed
  80 001a 5DF8047B 		ldr	r7, [sp], #4
  81              		.cfi_restore 7
  82              		.cfi_def_cfa_offset 0
  83 001e 7047     		bx	lr
  84              	.L5:
  85              		.align	2
  86              	.L4:
  87 0020 30EF00E0 		.word	-536809680
  88              		.cfi_endproc
  89              	.LFE219:
  90              		.size	PendSV_Handler, .-PendSV_Handler
  91              		.section	.text._port_irq_epilogue,"ax",%progbits
  92              		.align	1
  93              		.p2align 4,,15
  94              		.global	_port_irq_epilogue
  95              		.syntax unified
  96              		.thumb
  97              		.thumb_func
  98              		.fpu fpv4-sp-d16
  99              		.type	_port_irq_epilogue, %function
 100              	_port_irq_epilogue:
 101              	.LFB220:
 102              		.loc 1 122 0
 103              		.cfi_startproc
 104              		@ args = 0, pretend = 0, frame = 0
 105              		@ frame_needed = 1, uses_anonymous_args = 0
 106 0000 98B5     		push	{r3, r4, r7, lr}
 107              		.cfi_def_cfa_offset 16
 108              		.cfi_offset 3, -16
 109              		.cfi_offset 4, -12
 110              		.cfi_offset 7, -8
 111              		.cfi_offset 14, -4
 112 0002 00AF     		add	r7, sp, #0
 113              		.cfi_def_cfa_register 7
 114              	.LBB46:
ARM GAS  /tmp/cc3lmtRN.s 			page 3


 115              	.LBB47:
 116              	.LBB48:
 117              	.LBB49:
 118              		.loc 2 342 0
 119              		.syntax unified
 120              	@ 342 "ChibiOS_3.0.2/os/ext/CMSIS/include/core_cmFunc.h" 1
 121 0004 72B6     		cpsid i
 122              	@ 0 "" 2
 123              		.thumb
 124              		.syntax unified
 125              	.LBE49:
 126              	.LBE48:
 127              	.LBE47:
 128              	.LBE46:
 129              		.loc 1 125 0
 130 0006 104B     		ldr	r3, .L12
 131 0008 5B68     		ldr	r3, [r3, #4]
 132 000a 1B05     		lsls	r3, r3, #20
 133 000c 01D4     		bmi	.L11
 134              	.LBB50:
 135              	.LBB51:
 136              	.LBB52:
 137              	.LBB53:
 138              		.loc 2 331 0
 139              		.syntax unified
 140              	@ 331 "ChibiOS_3.0.2/os/ext/CMSIS/include/core_cmFunc.h" 1
 141 000e 62B6     		cpsie i
 142              	@ 0 "" 2
 143              		.thumb
 144              		.syntax unified
 145              	.LBE53:
 146              	.LBE52:
 147              	.LBE51:
 148              	.LBE50:
 149              		.loc 1 166 0
 150 0010 98BD     		pop	{r3, r4, r7, pc}
 151              	.L11:
 152              	.LBB54:
 153              	.LBB55:
 154              	.LBB56:
 155              		.loc 2 593 0
 156              		.loc 2 594 0
 157              		.syntax unified
 158              	@ 594 "ChibiOS_3.0.2/os/ext/CMSIS/include/core_cmFunc.h" 1
 159 0012 F1EE103A 		VMRS r3, fpscr
 160              	@ 0 "" 2
 161              	.LVL3:
 162              		.loc 2 595 0
 163              		.thumb
 164              		.syntax unified
 165              	.LBE56:
 166              	.LBE55:
 167              	.LBB57:
 168              	.LBB58:
 169              		.loc 2 428 0
 170              		.syntax unified
 171              	@ 428 "ChibiOS_3.0.2/os/ext/CMSIS/include/core_cmFunc.h" 1
ARM GAS  /tmp/cc3lmtRN.s 			page 4


 172 0016 EFF30984 		MRS r4, psp
 173              	
 174              	@ 0 "" 2
 175              	.LVL4:
 176              		.thumb
 177              		.syntax unified
 178              	.LBE58:
 179              	.LBE57:
 180              		.loc 1 143 0
 181 001a 0C4B     		ldr	r3, .L12+4
 182              		.loc 1 141 0
 183 001c 4FF08072 		mov	r2, #16777216
 184              		.loc 1 143 0
 185 0020 DB68     		ldr	r3, [r3, #12]
 186 0022 44F8083C 		str	r3, [r4, #-8]
 187              	.LVL5:
 188              		.loc 1 141 0
 189 0026 44F84C2C 		str	r2, [r4, #-76]
 190              		.loc 1 138 0
 191 002a A4F16803 		sub	r3, r4, #104
 192              	.LVL6:
 193              	.LBB59:
 194              	.LBB60:
 195              		.loc 2 441 0
 196              		.syntax unified
 197              	@ 441 "ChibiOS_3.0.2/os/ext/CMSIS/include/core_cmFunc.h" 1
 198 002e 83F30988 		MSR psp, r3
 199              	
 200              	@ 0 "" 2
 201              	.LVL7:
 202              		.thumb
 203              		.syntax unified
 204              	.LBE60:
 205              	.LBE59:
 206              		.loc 1 151 0
 207 0032 FFF7FEFF 		bl	chSchIsPreemptionRequired
 208              	.LVL8:
 209 0036 18B1     		cbz	r0, .L8
 210              		.loc 1 153 0
 211 0038 054B     		ldr	r3, .L12+8
 212 003a 44F8503C 		str	r3, [r4, #-80]
 213              	.LBE54:
 214              		.loc 1 166 0
 215 003e 98BD     		pop	{r3, r4, r7, pc}
 216              	.LVL9:
 217              	.L8:
 218              	.LBB61:
 219              		.loc 1 158 0
 220 0040 044B     		ldr	r3, .L12+12
 221 0042 44F8503C 		str	r3, [r4, #-80]
 222              	.LBE61:
 223              		.loc 1 166 0
 224 0046 98BD     		pop	{r3, r4, r7, pc}
 225              	.LVL10:
 226              	.L13:
 227              		.align	2
 228              	.L12:
ARM GAS  /tmp/cc3lmtRN.s 			page 5


 229 0048 00ED00E0 		.word	-536810240
 230 004c 30EF00E0 		.word	-536809680
 231 0050 00000000 		.word	_port_switch_from_isr
 232 0054 00000000 		.word	_port_exit_from_isr
 233              		.cfi_endproc
 234              	.LFE220:
 235              		.size	_port_irq_epilogue, .-_port_irq_epilogue
 236              		.text
 237              	.Letext0:
 238              		.file 3 "/usr/arm-none-eabi/include/machine/_default_types.h"
 239              		.file 4 "/usr/arm-none-eabi/include/sys/_stdint.h"
 240              		.file 5 "ChibiOS_3.0.2/os/rt/ports/ARMCMx/compilers/GCC/chtypes.h"
 241              		.file 6 "ChibiOS_3.0.2/os/rt/include/chsystypes.h"
 242              		.file 7 "ChibiOS_3.0.2/os/rt/include/chschd.h"
 243              		.file 8 "ChibiOS_3.0.2/os/ext/CMSIS/include/core_cm4.h"
 244              		.file 9 "ChibiOS_3.0.2/os/ext/CMSIS/ST/system_stm32f4xx.h"
 245              		.file 10 "ChibiOS_3.0.2/os/rt/ports/ARMCMx/chcore.h"
 246              		.file 11 "ChibiOS_3.0.2/os/rt/ports/ARMCMx/chcore_v7m.h"
 247              		.file 12 "ChibiOS_3.0.2/os/rt/include/chtm.h"
 248              		.file 13 "ChibiOS_3.0.2/os/rt/include/chsem.h"
 249              		.file 14 "ChibiOS_3.0.2/os/rt/include/chmtx.h"
 250              		.file 15 "ChibiOS_3.0.2/os/rt/include/chregistry.h"
 251              		.section	.debug_info,"",%progbits
 252              	.Ldebug_info0:
 253 0000 960D0000 		.4byte	0xd96
 254 0004 0400     		.2byte	0x4
 255 0006 00000000 		.4byte	.Ldebug_abbrev0
 256 000a 04       		.byte	0x4
 257 000b 01       		.uleb128 0x1
 258 000c 6B000000 		.4byte	.LASF166
 259 0010 0C       		.byte	0xc
 260 0011 8C070000 		.4byte	.LASF167
 261 0015 65050000 		.4byte	.LASF168
 262 0019 18000000 		.4byte	.Ldebug_ranges0+0x18
 263 001d 00000000 		.4byte	0
 264 0021 00000000 		.4byte	.Ldebug_line0
 265 0025 02       		.uleb128 0x2
 266 0026 04       		.byte	0x4
 267 0027 05       		.byte	0x5
 268 0028 696E7400 		.ascii	"int\000"
 269 002c 03       		.uleb128 0x3
 270 002d 04       		.byte	0x4
 271 002e 07       		.byte	0x7
 272 002f 04030000 		.4byte	.LASF0
 273 0033 03       		.uleb128 0x3
 274 0034 01       		.byte	0x1
 275 0035 06       		.byte	0x6
 276 0036 3A000000 		.4byte	.LASF1
 277 003a 04       		.uleb128 0x4
 278 003b 46000000 		.4byte	.LASF4
 279 003f 03       		.byte	0x3
 280 0040 2B       		.byte	0x2b
 281 0041 45000000 		.4byte	0x45
 282 0045 03       		.uleb128 0x3
 283 0046 01       		.byte	0x1
 284 0047 08       		.byte	0x8
 285 0048 57050000 		.4byte	.LASF2
ARM GAS  /tmp/cc3lmtRN.s 			page 6


 286 004c 03       		.uleb128 0x3
 287 004d 02       		.byte	0x2
 288 004e 05       		.byte	0x5
 289 004f CF050000 		.4byte	.LASF3
 290 0053 04       		.uleb128 0x4
 291 0054 E3060000 		.4byte	.LASF5
 292 0058 03       		.byte	0x3
 293 0059 39       		.byte	0x39
 294 005a 5E000000 		.4byte	0x5e
 295 005e 03       		.uleb128 0x3
 296 005f 02       		.byte	0x2
 297 0060 07       		.byte	0x7
 298 0061 24060000 		.4byte	.LASF6
 299 0065 04       		.uleb128 0x4
 300 0066 F8030000 		.4byte	.LASF7
 301 006a 03       		.byte	0x3
 302 006b 4D       		.byte	0x4d
 303 006c 70000000 		.4byte	0x70
 304 0070 03       		.uleb128 0x3
 305 0071 04       		.byte	0x4
 306 0072 05       		.byte	0x5
 307 0073 55020000 		.4byte	.LASF8
 308 0077 04       		.uleb128 0x4
 309 0078 31070000 		.4byte	.LASF9
 310 007c 03       		.byte	0x3
 311 007d 4F       		.byte	0x4f
 312 007e 82000000 		.4byte	0x82
 313 0082 03       		.uleb128 0x3
 314 0083 04       		.byte	0x4
 315 0084 07       		.byte	0x7
 316 0085 C5060000 		.4byte	.LASF10
 317 0089 03       		.uleb128 0x3
 318 008a 08       		.byte	0x8
 319 008b 05       		.byte	0x5
 320 008c D8020000 		.4byte	.LASF11
 321 0090 04       		.uleb128 0x4
 322 0091 D5040000 		.4byte	.LASF12
 323 0095 03       		.byte	0x3
 324 0096 69       		.byte	0x69
 325 0097 9B000000 		.4byte	0x9b
 326 009b 03       		.uleb128 0x3
 327 009c 08       		.byte	0x8
 328 009d 07       		.byte	0x7
 329 009e 0A020000 		.4byte	.LASF13
 330 00a2 04       		.uleb128 0x4
 331 00a3 EC070000 		.4byte	.LASF14
 332 00a7 04       		.byte	0x4
 333 00a8 18       		.byte	0x18
 334 00a9 3A000000 		.4byte	0x3a
 335 00ad 05       		.uleb128 0x5
 336 00ae A2000000 		.4byte	0xa2
 337 00b2 04       		.uleb128 0x4
 338 00b3 23030000 		.4byte	.LASF15
 339 00b7 04       		.byte	0x4
 340 00b8 24       		.byte	0x24
 341 00b9 53000000 		.4byte	0x53
 342 00bd 04       		.uleb128 0x4
ARM GAS  /tmp/cc3lmtRN.s 			page 7


 343 00be 4F050000 		.4byte	.LASF16
 344 00c2 04       		.byte	0x4
 345 00c3 2C       		.byte	0x2c
 346 00c4 65000000 		.4byte	0x65
 347 00c8 05       		.uleb128 0x5
 348 00c9 BD000000 		.4byte	0xbd
 349 00cd 04       		.uleb128 0x4
 350 00ce 90060000 		.4byte	.LASF17
 351 00d2 04       		.byte	0x4
 352 00d3 30       		.byte	0x30
 353 00d4 77000000 		.4byte	0x77
 354 00d8 05       		.uleb128 0x5
 355 00d9 CD000000 		.4byte	0xcd
 356 00dd 06       		.uleb128 0x6
 357 00de D8000000 		.4byte	0xd8
 358 00e2 04       		.uleb128 0x4
 359 00e3 31000000 		.4byte	.LASF18
 360 00e7 04       		.byte	0x4
 361 00e8 3C       		.byte	0x3c
 362 00e9 90000000 		.4byte	0x90
 363 00ed 04       		.uleb128 0x4
 364 00ee 3F040000 		.4byte	.LASF19
 365 00f2 05       		.byte	0x5
 366 00f3 45       		.byte	0x45
 367 00f4 CD000000 		.4byte	0xcd
 368 00f8 04       		.uleb128 0x4
 369 00f9 05060000 		.4byte	.LASF20
 370 00fd 05       		.byte	0x5
 371 00fe 48       		.byte	0x48
 372 00ff A2000000 		.4byte	0xa2
 373 0103 04       		.uleb128 0x4
 374 0104 5E020000 		.4byte	.LASF21
 375 0108 05       		.byte	0x5
 376 0109 49       		.byte	0x49
 377 010a A2000000 		.4byte	0xa2
 378 010e 04       		.uleb128 0x4
 379 010f A0020000 		.4byte	.LASF22
 380 0113 05       		.byte	0x5
 381 0114 4A       		.byte	0x4a
 382 0115 A2000000 		.4byte	0xa2
 383 0119 04       		.uleb128 0x4
 384 011a 41020000 		.4byte	.LASF23
 385 011e 05       		.byte	0x5
 386 011f 4B       		.byte	0x4b
 387 0120 A2000000 		.4byte	0xa2
 388 0124 04       		.uleb128 0x4
 389 0125 2B050000 		.4byte	.LASF24
 390 0129 05       		.byte	0x5
 391 012a 4C       		.byte	0x4c
 392 012b CD000000 		.4byte	0xcd
 393 012f 04       		.uleb128 0x4
 394 0130 99030000 		.4byte	.LASF25
 395 0134 05       		.byte	0x5
 396 0135 4D       		.byte	0x4d
 397 0136 BD000000 		.4byte	0xbd
 398 013a 04       		.uleb128 0x4
 399 013b DD030000 		.4byte	.LASF26
ARM GAS  /tmp/cc3lmtRN.s 			page 8


 400 013f 05       		.byte	0x5
 401 0140 4F       		.byte	0x4f
 402 0141 CD000000 		.4byte	0xcd
 403 0145 04       		.uleb128 0x4
 404 0146 F5020000 		.4byte	.LASF27
 405 014a 05       		.byte	0x5
 406 014b 51       		.byte	0x51
 407 014c BD000000 		.4byte	0xbd
 408 0150 04       		.uleb128 0x4
 409 0151 13070000 		.4byte	.LASF28
 410 0155 06       		.byte	0x6
 411 0156 33       		.byte	0x33
 412 0157 CD000000 		.4byte	0xcd
 413 015b 05       		.uleb128 0x5
 414 015c 50010000 		.4byte	0x150
 415 0160 04       		.uleb128 0x4
 416 0161 03070000 		.4byte	.LASF29
 417 0165 06       		.byte	0x6
 418 0166 3F       		.byte	0x3f
 419 0167 6B010000 		.4byte	0x16b
 420 016b 07       		.uleb128 0x7
 421 016c 8A030000 		.4byte	.LASF51
 422 0170 48       		.byte	0x48
 423 0171 07       		.byte	0x7
 424 0172 C2       		.byte	0xc2
 425 0173 70020000 		.4byte	0x270
 426 0177 08       		.uleb128 0x8
 427 0178 FE050000 		.4byte	.LASF30
 428 017c 07       		.byte	0x7
 429 017d C3       		.byte	0xc3
 430 017e 7B020000 		.4byte	0x27b
 431 0182 00       		.byte	0
 432 0183 08       		.uleb128 0x8
 433 0184 24050000 		.4byte	.LASF31
 434 0188 07       		.byte	0x7
 435 0189 C5       		.byte	0xc5
 436 018a 7B020000 		.4byte	0x27b
 437 018e 04       		.byte	0x4
 438 018f 08       		.uleb128 0x8
 439 0190 EE010000 		.4byte	.LASF32
 440 0194 07       		.byte	0x7
 441 0195 C7       		.byte	0xc7
 442 0196 24010000 		.4byte	0x124
 443 019a 08       		.byte	0x8
 444 019b 08       		.uleb128 0x8
 445 019c 95040000 		.4byte	.LASF33
 446 01a0 07       		.byte	0x7
 447 01a1 C8       		.byte	0xc8
 448 01a2 C9060000 		.4byte	0x6c9
 449 01a6 0C       		.byte	0xc
 450 01a7 08       		.uleb128 0x8
 451 01a8 8B020000 		.4byte	.LASF34
 452 01ac 07       		.byte	0x7
 453 01ad CA       		.byte	0xca
 454 01ae 7B020000 		.4byte	0x27b
 455 01b2 10       		.byte	0x10
 456 01b3 08       		.uleb128 0x8
ARM GAS  /tmp/cc3lmtRN.s 			page 9


 457 01b4 87040000 		.4byte	.LASF35
 458 01b8 07       		.byte	0x7
 459 01b9 CB       		.byte	0xcb
 460 01ba 7B020000 		.4byte	0x27b
 461 01be 14       		.byte	0x14
 462 01bf 08       		.uleb128 0x8
 463 01c0 0E080000 		.4byte	.LASF36
 464 01c4 07       		.byte	0x7
 465 01c5 D2       		.byte	0xd2
 466 01c6 440A0000 		.4byte	0xa44
 467 01ca 18       		.byte	0x18
 468 01cb 08       		.uleb128 0x8
 469 01cc D9050000 		.4byte	.LASF37
 470 01d0 07       		.byte	0x7
 471 01d1 DD       		.byte	0xdd
 472 01d2 03010000 		.4byte	0x103
 473 01d6 1C       		.byte	0x1c
 474 01d7 08       		.uleb128 0x8
 475 01d8 1C060000 		.4byte	.LASF38
 476 01dc 07       		.byte	0x7
 477 01dd E1       		.byte	0xe1
 478 01de F8000000 		.4byte	0xf8
 479 01e2 1D       		.byte	0x1d
 480 01e3 08       		.uleb128 0x8
 481 01e4 CE070000 		.4byte	.LASF39
 482 01e8 07       		.byte	0x7
 483 01e9 E6       		.byte	0xe6
 484 01ea 0E010000 		.4byte	0x10e
 485 01ee 1E       		.byte	0x1e
 486 01ef 08       		.uleb128 0x8
 487 01f0 E1050000 		.4byte	.LASF40
 488 01f4 07       		.byte	0x7
 489 01f5 EC       		.byte	0xec
 490 01f6 19010000 		.4byte	0x119
 491 01fa 1F       		.byte	0x1f
 492 01fb 08       		.uleb128 0x8
 493 01fc 3C030000 		.4byte	.LASF41
 494 0200 07       		.byte	0x7
 495 0201 F3       		.byte	0xf3
 496 0202 5B010000 		.4byte	0x15b
 497 0206 20       		.byte	0x20
 498 0207 09       		.uleb128 0x9
 499 0208 705F7500 		.ascii	"p_u\000"
 500 020c 07       		.byte	0x7
 501 020d 3101     		.2byte	0x131
 502 020f 7F090000 		.4byte	0x97f
 503 0213 24       		.byte	0x24
 504 0214 0A       		.uleb128 0xa
 505 0215 30040000 		.4byte	.LASF42
 506 0219 07       		.byte	0x7
 507 021a 3601     		.2byte	0x136
 508 021c 81020000 		.4byte	0x281
 509 0220 28       		.byte	0x28
 510 0221 0A       		.uleb128 0xa
 511 0222 6B030000 		.4byte	.LASF43
 512 0226 07       		.byte	0x7
 513 0227 3C01     		.2byte	0x13c
ARM GAS  /tmp/cc3lmtRN.s 			page 10


 514 0229 A5020000 		.4byte	0x2a5
 515 022d 2C       		.byte	0x2c
 516 022e 0A       		.uleb128 0xa
 517 022f 62070000 		.4byte	.LASF44
 518 0233 07       		.byte	0x7
 519 0234 4001     		.2byte	0x140
 520 0236 2F010000 		.4byte	0x12f
 521 023a 34       		.byte	0x34
 522 023b 0A       		.uleb128 0xa
 523 023c 85060000 		.4byte	.LASF45
 524 0240 07       		.byte	0x7
 525 0241 4601     		.2byte	0x146
 526 0243 3A010000 		.4byte	0x13a
 527 0247 38       		.byte	0x38
 528 0248 0A       		.uleb128 0xa
 529 0249 C5050000 		.4byte	.LASF46
 530 024d 07       		.byte	0x7
 531 024e 4D01     		.2byte	0x14d
 532 0250 3E0A0000 		.4byte	0xa3e
 533 0254 3C       		.byte	0x3c
 534 0255 0A       		.uleb128 0xa
 535 0256 1D070000 		.4byte	.LASF47
 536 025a 07       		.byte	0x7
 537 025b 5101     		.2byte	0x151
 538 025d 24010000 		.4byte	0x124
 539 0261 40       		.byte	0x40
 540 0262 0A       		.uleb128 0xa
 541 0263 02020000 		.4byte	.LASF48
 542 0267 07       		.byte	0x7
 543 0268 5801     		.2byte	0x158
 544 026a 58030000 		.4byte	0x358
 545 026e 44       		.byte	0x44
 546 026f 00       		.byte	0
 547 0270 04       		.uleb128 0x4
 548 0271 F4070000 		.4byte	.LASF49
 549 0275 06       		.byte	0x6
 550 0276 44       		.byte	0x44
 551 0277 7B020000 		.4byte	0x27b
 552 027b 0B       		.uleb128 0xb
 553 027c 04       		.byte	0x4
 554 027d 60010000 		.4byte	0x160
 555 0281 04       		.uleb128 0x4
 556 0282 0D040000 		.4byte	.LASF50
 557 0286 06       		.byte	0x6
 558 0287 49       		.byte	0x49
 559 0288 8C020000 		.4byte	0x28c
 560 028c 07       		.uleb128 0x7
 561 028d AD060000 		.4byte	.LASF52
 562 0291 04       		.byte	0x4
 563 0292 07       		.byte	0x7
 564 0293 B0       		.byte	0xb0
 565 0294 A5020000 		.4byte	0x2a5
 566 0298 08       		.uleb128 0x8
 567 0299 FE050000 		.4byte	.LASF30
 568 029d 07       		.byte	0x7
 569 029e B1       		.byte	0xb1
 570 029f 7B020000 		.4byte	0x27b
ARM GAS  /tmp/cc3lmtRN.s 			page 11


 571 02a3 00       		.byte	0
 572 02a4 00       		.byte	0
 573 02a5 04       		.uleb128 0x4
 574 02a6 4A060000 		.4byte	.LASF53
 575 02aa 06       		.byte	0x6
 576 02ab 50       		.byte	0x50
 577 02ac B0020000 		.4byte	0x2b0
 578 02b0 07       		.uleb128 0x7
 579 02b1 D7010000 		.4byte	.LASF54
 580 02b5 08       		.byte	0x8
 581 02b6 07       		.byte	0x7
 582 02b7 B7       		.byte	0xb7
 583 02b8 D5020000 		.4byte	0x2d5
 584 02bc 08       		.uleb128 0x8
 585 02bd FE050000 		.4byte	.LASF30
 586 02c1 07       		.byte	0x7
 587 02c2 B8       		.byte	0xb8
 588 02c3 7B020000 		.4byte	0x27b
 589 02c7 00       		.byte	0
 590 02c8 08       		.uleb128 0x8
 591 02c9 24050000 		.4byte	.LASF31
 592 02cd 07       		.byte	0x7
 593 02ce B9       		.byte	0xb9
 594 02cf 7B020000 		.4byte	0x27b
 595 02d3 04       		.byte	0x4
 596 02d4 00       		.byte	0
 597 02d5 04       		.uleb128 0x4
 598 02d6 00000000 		.4byte	.LASF55
 599 02da 06       		.byte	0x6
 600 02db 57       		.byte	0x57
 601 02dc E0020000 		.4byte	0x2e0
 602 02e0 0C       		.uleb128 0xc
 603 02e1 CF030000 		.4byte	.LASF56
 604 02e5 1C       		.byte	0x1c
 605 02e6 07       		.byte	0x7
 606 02e7 9001     		.2byte	0x190
 607 02e9 3C030000 		.4byte	0x33c
 608 02ed 0A       		.uleb128 0xa
 609 02ee A5060000 		.4byte	.LASF57
 610 02f2 07       		.byte	0x7
 611 02f3 9101     		.2byte	0x191
 612 02f5 A5020000 		.4byte	0x2a5
 613 02f9 00       		.byte	0
 614 02fa 0A       		.uleb128 0xa
 615 02fb F0050000 		.4byte	.LASF58
 616 02ff 07       		.byte	0x7
 617 0300 9201     		.2byte	0x192
 618 0302 24010000 		.4byte	0x124
 619 0306 08       		.byte	0x8
 620 0307 0A       		.uleb128 0xa
 621 0308 8F040000 		.4byte	.LASF59
 622 030c 07       		.byte	0x7
 623 030d 9401     		.2byte	0x194
 624 030f C9060000 		.4byte	0x6c9
 625 0313 0C       		.byte	0xc
 626 0314 0A       		.uleb128 0xa
 627 0315 AD020000 		.4byte	.LASF60
ARM GAS  /tmp/cc3lmtRN.s 			page 12


 628 0319 07       		.byte	0x7
 629 031a 9701     		.2byte	0x197
 630 031c 7B020000 		.4byte	0x27b
 631 0320 10       		.byte	0x10
 632 0321 0A       		.uleb128 0xa
 633 0322 C0040000 		.4byte	.LASF61
 634 0326 07       		.byte	0x7
 635 0327 9801     		.2byte	0x198
 636 0329 7B020000 		.4byte	0x27b
 637 032d 14       		.byte	0x14
 638 032e 0A       		.uleb128 0xa
 639 032f B6040000 		.4byte	.LASF62
 640 0333 07       		.byte	0x7
 641 0334 9B01     		.2byte	0x19b
 642 0336 7B020000 		.4byte	0x27b
 643 033a 18       		.byte	0x18
 644 033b 00       		.byte	0
 645 033c 04       		.uleb128 0x4
 646 033d 28070000 		.4byte	.LASF63
 647 0341 06       		.byte	0x6
 648 0342 5C       		.byte	0x5c
 649 0343 47030000 		.4byte	0x347
 650 0347 0B       		.uleb128 0xb
 651 0348 04       		.byte	0x4
 652 0349 4D030000 		.4byte	0x34d
 653 034d 0D       		.uleb128 0xd
 654 034e 58030000 		.4byte	0x358
 655 0352 0E       		.uleb128 0xe
 656 0353 58030000 		.4byte	0x358
 657 0357 00       		.byte	0
 658 0358 0F       		.uleb128 0xf
 659 0359 04       		.byte	0x4
 660 035a 04       		.uleb128 0x4
 661 035b 14050000 		.4byte	.LASF64
 662 035f 06       		.byte	0x6
 663 0360 61       		.byte	0x61
 664 0361 65030000 		.4byte	0x365
 665 0365 0C       		.uleb128 0xc
 666 0366 5A060000 		.4byte	.LASF65
 667 036a 14       		.byte	0x14
 668 036b 07       		.byte	0x7
 669 036c 6B01     		.2byte	0x16b
 670 036e B4030000 		.4byte	0x3b4
 671 0372 0A       		.uleb128 0xa
 672 0373 1B030000 		.4byte	.LASF66
 673 0377 07       		.byte	0x7
 674 0378 6C01     		.2byte	0x16c
 675 037a 5B0A0000 		.4byte	0xa5b
 676 037e 00       		.byte	0
 677 037f 0A       		.uleb128 0xa
 678 0380 BE020000 		.4byte	.LASF67
 679 0384 07       		.byte	0x7
 680 0385 6D01     		.2byte	0x16d
 681 0387 5B0A0000 		.4byte	0xa5b
 682 038b 04       		.byte	0x4
 683 038c 0A       		.uleb128 0xa
 684 038d 62030000 		.4byte	.LASF68
ARM GAS  /tmp/cc3lmtRN.s 			page 13


 685 0391 07       		.byte	0x7
 686 0392 6E01     		.2byte	0x16e
 687 0394 50010000 		.4byte	0x150
 688 0398 08       		.byte	0x8
 689 0399 0A       		.uleb128 0xa
 690 039a 50080000 		.4byte	.LASF69
 691 039e 07       		.byte	0x7
 692 039f 6F01     		.2byte	0x16f
 693 03a1 3C030000 		.4byte	0x33c
 694 03a5 0C       		.byte	0xc
 695 03a6 0A       		.uleb128 0xa
 696 03a7 85070000 		.4byte	.LASF70
 697 03ab 07       		.byte	0x7
 698 03ac 7101     		.2byte	0x171
 699 03ae 58030000 		.4byte	0x358
 700 03b2 10       		.byte	0x10
 701 03b3 00       		.byte	0
 702 03b4 04       		.uleb128 0x4
 703 03b5 BB010000 		.4byte	.LASF71
 704 03b9 06       		.byte	0x6
 705 03ba 66       		.byte	0x66
 706 03bb BF030000 		.4byte	0x3bf
 707 03bf 0C       		.uleb128 0xc
 708 03c0 47040000 		.4byte	.LASF72
 709 03c4 10       		.byte	0x10
 710 03c5 07       		.byte	0x7
 711 03c6 7B01     		.2byte	0x17b
 712 03c8 01040000 		.4byte	0x401
 713 03cc 0A       		.uleb128 0xa
 714 03cd 1B030000 		.4byte	.LASF66
 715 03d1 07       		.byte	0x7
 716 03d2 7C01     		.2byte	0x17c
 717 03d4 5B0A0000 		.4byte	0xa5b
 718 03d8 00       		.byte	0
 719 03d9 0A       		.uleb128 0xa
 720 03da BE020000 		.4byte	.LASF67
 721 03de 07       		.byte	0x7
 722 03df 7E01     		.2byte	0x17e
 723 03e1 5B0A0000 		.4byte	0xa5b
 724 03e5 04       		.byte	0x4
 725 03e6 0A       		.uleb128 0xa
 726 03e7 62030000 		.4byte	.LASF68
 727 03eb 07       		.byte	0x7
 728 03ec 8001     		.2byte	0x180
 729 03ee 50010000 		.4byte	0x150
 730 03f2 08       		.byte	0x8
 731 03f3 0A       		.uleb128 0xa
 732 03f4 4A030000 		.4byte	.LASF73
 733 03f8 07       		.byte	0x7
 734 03f9 8201     		.2byte	0x182
 735 03fb 5B010000 		.4byte	0x15b
 736 03ff 0C       		.byte	0xc
 737 0400 00       		.byte	0
 738 0401 04       		.uleb128 0x4
 739 0402 5C000000 		.4byte	.LASF74
 740 0406 06       		.byte	0x6
 741 0407 6B       		.byte	0x6b
ARM GAS  /tmp/cc3lmtRN.s 			page 14


 742 0408 0C040000 		.4byte	0x40c
 743 040c 0C       		.uleb128 0xc
 744 040d 3F050000 		.4byte	.LASF75
 745 0411 04       		.byte	0x4
 746 0412 07       		.byte	0x7
 747 0413 A201     		.2byte	0x1a2
 748 0415 27040000 		.4byte	0x427
 749 0419 0A       		.uleb128 0xa
 750 041a 3C070000 		.4byte	.LASF76
 751 041e 07       		.byte	0x7
 752 041f AA01     		.2byte	0x1aa
 753 0421 4A0A0000 		.4byte	0xa4a
 754 0425 00       		.byte	0
 755 0426 00       		.byte	0
 756 0427 04       		.uleb128 0x4
 757 0428 D5070000 		.4byte	.LASF77
 758 042c 06       		.byte	0x6
 759 042d 70       		.byte	0x70
 760 042e 32040000 		.4byte	0x432
 761 0432 10       		.uleb128 0x10
 762 0433 4B020000 		.4byte	.LASF78
 763 0437 5802     		.2byte	0x258
 764 0439 07       		.byte	0x7
 765 043a C201     		.2byte	0x1c2
 766 043c 8E040000 		.4byte	0x48e
 767 0440 0A       		.uleb128 0xa
 768 0441 E6070000 		.4byte	.LASF79
 769 0445 07       		.byte	0x7
 770 0446 C601     		.2byte	0x1c6
 771 0448 D5020000 		.4byte	0x2d5
 772 044c 00       		.byte	0
 773 044d 0A       		.uleb128 0xa
 774 044e 2E020000 		.4byte	.LASF80
 775 0452 07       		.byte	0x7
 776 0453 CA01     		.2byte	0x1ca
 777 0455 B4030000 		.4byte	0x3b4
 778 0459 1C       		.byte	0x1c
 779 045a 09       		.uleb128 0x9
 780 045b 64626700 		.ascii	"dbg\000"
 781 045f 07       		.byte	0x7
 782 0460 CE01     		.2byte	0x1ce
 783 0462 01040000 		.4byte	0x401
 784 0466 2C       		.byte	0x2c
 785 0467 0A       		.uleb128 0xa
 786 0468 B0010000 		.4byte	.LASF81
 787 046c 07       		.byte	0x7
 788 046d D201     		.2byte	0x1d2
 789 046f 60010000 		.4byte	0x160
 790 0473 30       		.byte	0x30
 791 0474 09       		.uleb128 0x9
 792 0475 746D00   		.ascii	"tm\000"
 793 0478 07       		.byte	0x7
 794 0479 D701     		.2byte	0x1d7
 795 047b 74090000 		.4byte	0x974
 796 047f 78       		.byte	0x78
 797 0480 0A       		.uleb128 0xa
 798 0481 E6020000 		.4byte	.LASF82
ARM GAS  /tmp/cc3lmtRN.s 			page 15


 799 0485 07       		.byte	0x7
 800 0486 E301     		.2byte	0x1e3
 801 0488 610A0000 		.4byte	0xa61
 802 048c 80       		.byte	0x80
 803 048d 00       		.byte	0
 804 048e 11       		.uleb128 0x11
 805 048f 8C       		.byte	0x8c
 806 0490 08       		.byte	0x8
 807 0491 7001     		.2byte	0x170
 808 0493 A9050000 		.4byte	0x5a9
 809 0497 0A       		.uleb128 0xa
 810 0498 D1010000 		.4byte	.LASF83
 811 049c 08       		.byte	0x8
 812 049d 7201     		.2byte	0x172
 813 049f DD000000 		.4byte	0xdd
 814 04a3 00       		.byte	0
 815 04a4 0A       		.uleb128 0xa
 816 04a5 94030000 		.4byte	.LASF84
 817 04a9 08       		.byte	0x8
 818 04aa 7301     		.2byte	0x173
 819 04ac D8000000 		.4byte	0xd8
 820 04b0 04       		.byte	0x4
 821 04b1 0A       		.uleb128 0xa
 822 04b2 7F030000 		.4byte	.LASF85
 823 04b6 08       		.byte	0x8
 824 04b7 7401     		.2byte	0x174
 825 04b9 D8000000 		.4byte	0xd8
 826 04bd 08       		.byte	0x8
 827 04be 0A       		.uleb128 0xa
 828 04bf 9F030000 		.4byte	.LASF86
 829 04c3 08       		.byte	0x8
 830 04c4 7501     		.2byte	0x175
 831 04c6 D8000000 		.4byte	0xd8
 832 04ca 0C       		.byte	0xc
 833 04cb 09       		.uleb128 0x9
 834 04cc 53435200 		.ascii	"SCR\000"
 835 04d0 08       		.byte	0x8
 836 04d1 7601     		.2byte	0x176
 837 04d3 D8000000 		.4byte	0xd8
 838 04d7 10       		.byte	0x10
 839 04d8 09       		.uleb128 0x9
 840 04d9 43435200 		.ascii	"CCR\000"
 841 04dd 08       		.byte	0x8
 842 04de 7701     		.2byte	0x177
 843 04e0 D8000000 		.4byte	0xd8
 844 04e4 14       		.byte	0x14
 845 04e5 09       		.uleb128 0x9
 846 04e6 53485000 		.ascii	"SHP\000"
 847 04ea 08       		.byte	0x8
 848 04eb 7801     		.2byte	0x178
 849 04ed B9050000 		.4byte	0x5b9
 850 04f1 18       		.byte	0x18
 851 04f2 0A       		.uleb128 0xa
 852 04f3 B2050000 		.4byte	.LASF87
 853 04f7 08       		.byte	0x8
 854 04f8 7901     		.2byte	0x179
 855 04fa D8000000 		.4byte	0xd8
ARM GAS  /tmp/cc3lmtRN.s 			page 16


 856 04fe 24       		.byte	0x24
 857 04ff 0A       		.uleb128 0xa
 858 0500 3A040000 		.4byte	.LASF88
 859 0504 08       		.byte	0x8
 860 0505 7A01     		.2byte	0x17a
 861 0507 D8000000 		.4byte	0xd8
 862 050b 28       		.byte	0x28
 863 050c 0A       		.uleb128 0xa
 864 050d 26080000 		.4byte	.LASF89
 865 0511 08       		.byte	0x8
 866 0512 7B01     		.2byte	0x17b
 867 0514 D8000000 		.4byte	0xd8
 868 0518 2C       		.byte	0x2c
 869 0519 0A       		.uleb128 0xa
 870 051a A5030000 		.4byte	.LASF90
 871 051e 08       		.byte	0x8
 872 051f 7C01     		.2byte	0x17c
 873 0521 D8000000 		.4byte	0xd8
 874 0525 30       		.byte	0x30
 875 0526 0A       		.uleb128 0xa
 876 0527 AA030000 		.4byte	.LASF91
 877 052b 08       		.byte	0x8
 878 052c 7D01     		.2byte	0x17d
 879 052e D8000000 		.4byte	0xd8
 880 0532 34       		.byte	0x34
 881 0533 0A       		.uleb128 0xa
 882 0534 9B020000 		.4byte	.LASF92
 883 0538 08       		.byte	0x8
 884 0539 7E01     		.2byte	0x17e
 885 053b D8000000 		.4byte	0xd8
 886 053f 38       		.byte	0x38
 887 0540 0A       		.uleb128 0xa
 888 0541 A8020000 		.4byte	.LASF93
 889 0545 08       		.byte	0x8
 890 0546 7F01     		.2byte	0x17f
 891 0548 D8000000 		.4byte	0xd8
 892 054c 3C       		.byte	0x3c
 893 054d 09       		.uleb128 0x9
 894 054e 50465200 		.ascii	"PFR\000"
 895 0552 08       		.byte	0x8
 896 0553 8001     		.2byte	0x180
 897 0555 D3050000 		.4byte	0x5d3
 898 0559 40       		.byte	0x40
 899 055a 09       		.uleb128 0x9
 900 055b 44465200 		.ascii	"DFR\000"
 901 055f 08       		.byte	0x8
 902 0560 8101     		.2byte	0x181
 903 0562 DD000000 		.4byte	0xdd
 904 0566 48       		.byte	0x48
 905 0567 09       		.uleb128 0x9
 906 0568 41445200 		.ascii	"ADR\000"
 907 056c 08       		.byte	0x8
 908 056d 8201     		.2byte	0x182
 909 056f DD000000 		.4byte	0xdd
 910 0573 4C       		.byte	0x4c
 911 0574 0A       		.uleb128 0xa
 912 0575 E1070000 		.4byte	.LASF94
ARM GAS  /tmp/cc3lmtRN.s 			page 17


 913 0579 08       		.byte	0x8
 914 057a 8301     		.2byte	0x183
 915 057c ED050000 		.4byte	0x5ed
 916 0580 50       		.byte	0x50
 917 0581 0A       		.uleb128 0xa
 918 0582 29020000 		.4byte	.LASF95
 919 0586 08       		.byte	0x8
 920 0587 8401     		.2byte	0x184
 921 0589 07060000 		.4byte	0x607
 922 058d 60       		.byte	0x60
 923 058e 0A       		.uleb128 0xa
 924 058f FA040000 		.4byte	.LASF96
 925 0593 08       		.byte	0x8
 926 0594 8501     		.2byte	0x185
 927 0596 0C060000 		.4byte	0x60c
 928 059a 74       		.byte	0x74
 929 059b 0A       		.uleb128 0xa
 930 059c 20080000 		.4byte	.LASF97
 931 05a0 08       		.byte	0x8
 932 05a1 8601     		.2byte	0x186
 933 05a3 D8000000 		.4byte	0xd8
 934 05a7 88       		.byte	0x88
 935 05a8 00       		.byte	0
 936 05a9 12       		.uleb128 0x12
 937 05aa AD000000 		.4byte	0xad
 938 05ae B9050000 		.4byte	0x5b9
 939 05b2 13       		.uleb128 0x13
 940 05b3 2C000000 		.4byte	0x2c
 941 05b7 0B       		.byte	0xb
 942 05b8 00       		.byte	0
 943 05b9 05       		.uleb128 0x5
 944 05ba A9050000 		.4byte	0x5a9
 945 05be 12       		.uleb128 0x12
 946 05bf DD000000 		.4byte	0xdd
 947 05c3 CE050000 		.4byte	0x5ce
 948 05c7 13       		.uleb128 0x13
 949 05c8 2C000000 		.4byte	0x2c
 950 05cc 01       		.byte	0x1
 951 05cd 00       		.byte	0
 952 05ce 06       		.uleb128 0x6
 953 05cf BE050000 		.4byte	0x5be
 954 05d3 05       		.uleb128 0x5
 955 05d4 CE050000 		.4byte	0x5ce
 956 05d8 12       		.uleb128 0x12
 957 05d9 DD000000 		.4byte	0xdd
 958 05dd E8050000 		.4byte	0x5e8
 959 05e1 13       		.uleb128 0x13
 960 05e2 2C000000 		.4byte	0x2c
 961 05e6 03       		.byte	0x3
 962 05e7 00       		.byte	0
 963 05e8 06       		.uleb128 0x6
 964 05e9 D8050000 		.4byte	0x5d8
 965 05ed 05       		.uleb128 0x5
 966 05ee E8050000 		.4byte	0x5e8
 967 05f2 12       		.uleb128 0x12
 968 05f3 DD000000 		.4byte	0xdd
 969 05f7 02060000 		.4byte	0x602
ARM GAS  /tmp/cc3lmtRN.s 			page 18


 970 05fb 13       		.uleb128 0x13
 971 05fc 2C000000 		.4byte	0x2c
 972 0600 04       		.byte	0x4
 973 0601 00       		.byte	0
 974 0602 06       		.uleb128 0x6
 975 0603 F2050000 		.4byte	0x5f2
 976 0607 05       		.uleb128 0x5
 977 0608 02060000 		.4byte	0x602
 978 060c 12       		.uleb128 0x12
 979 060d CD000000 		.4byte	0xcd
 980 0611 1C060000 		.4byte	0x61c
 981 0615 13       		.uleb128 0x13
 982 0616 2C000000 		.4byte	0x2c
 983 061a 04       		.byte	0x4
 984 061b 00       		.byte	0
 985 061c 14       		.uleb128 0x14
 986 061d C6020000 		.4byte	.LASF98
 987 0621 08       		.byte	0x8
 988 0622 8701     		.2byte	0x187
 989 0624 8E040000 		.4byte	0x48e
 990 0628 12       		.uleb128 0x12
 991 0629 CD000000 		.4byte	0xcd
 992 062d 38060000 		.4byte	0x638
 993 0631 13       		.uleb128 0x13
 994 0632 2C000000 		.4byte	0x2c
 995 0636 00       		.byte	0
 996 0637 00       		.byte	0
 997 0638 11       		.uleb128 0x11
 998 0639 18       		.byte	0x18
 999 063a 08       		.byte	0x8
 1000 063b 8E04     		.2byte	0x48e
 1001 063d 90060000 		.4byte	0x690
 1002 0641 0A       		.uleb128 0xa
 1003 0642 FA040000 		.4byte	.LASF96
 1004 0646 08       		.byte	0x8
 1005 0647 9004     		.2byte	0x490
 1006 0649 28060000 		.4byte	0x628
 1007 064d 00       		.byte	0
 1008 064e 0A       		.uleb128 0xa
 1009 064f 44060000 		.4byte	.LASF99
 1010 0653 08       		.byte	0x8
 1011 0654 9104     		.2byte	0x491
 1012 0656 D8000000 		.4byte	0xd8
 1013 065a 04       		.byte	0x4
 1014 065b 0A       		.uleb128 0xa
 1015 065c 3E060000 		.4byte	.LASF100
 1016 0660 08       		.byte	0x8
 1017 0661 9204     		.2byte	0x492
 1018 0663 D8000000 		.4byte	0xd8
 1019 0667 08       		.byte	0x8
 1020 0668 0A       		.uleb128 0xa
 1021 0669 1A000000 		.4byte	.LASF101
 1022 066d 08       		.byte	0x8
 1023 066e 9304     		.2byte	0x493
 1024 0670 D8000000 		.4byte	0xd8
 1025 0674 0C       		.byte	0xc
 1026 0675 0A       		.uleb128 0xa
ARM GAS  /tmp/cc3lmtRN.s 			page 19


 1027 0676 E0040000 		.4byte	.LASF102
 1028 067a 08       		.byte	0x8
 1029 067b 9404     		.2byte	0x494
 1030 067d DD000000 		.4byte	0xdd
 1031 0681 10       		.byte	0x10
 1032 0682 0A       		.uleb128 0xa
 1033 0683 E6040000 		.4byte	.LASF103
 1034 0687 08       		.byte	0x8
 1035 0688 9504     		.2byte	0x495
 1036 068a DD000000 		.4byte	0xdd
 1037 068e 14       		.byte	0x14
 1038 068f 00       		.byte	0
 1039 0690 14       		.uleb128 0x14
 1040 0691 FB020000 		.4byte	.LASF104
 1041 0695 08       		.byte	0x8
 1042 0696 9604     		.2byte	0x496
 1043 0698 38060000 		.4byte	0x638
 1044 069c 15       		.uleb128 0x15
 1045 069d B8050000 		.4byte	.LASF105
 1046 06a1 08       		.byte	0x8
 1047 06a2 A706     		.2byte	0x6a7
 1048 06a4 C8000000 		.4byte	0xc8
 1049 06a8 16       		.uleb128 0x16
 1050 06a9 2C030000 		.4byte	.LASF106
 1051 06ad 09       		.byte	0x9
 1052 06ae 4C       		.byte	0x4c
 1053 06af CD000000 		.4byte	0xcd
 1054 06b3 04       		.uleb128 0x4
 1055 06b4 B5020000 		.4byte	.LASF107
 1056 06b8 0A       		.byte	0xa
 1057 06b9 65       		.byte	0x65
 1058 06ba 58030000 		.4byte	0x358
 1059 06be 04       		.uleb128 0x4
 1060 06bf 02040000 		.4byte	.LASF108
 1061 06c3 0A       		.byte	0xa
 1062 06c4 6D       		.byte	0x6d
 1063 06c5 E2000000 		.4byte	0xe2
 1064 06c9 07       		.uleb128 0x7
 1065 06ca 4D070000 		.4byte	.LASF109
 1066 06ce 04       		.byte	0x4
 1067 06cf 0A       		.byte	0xa
 1068 06d0 89       		.byte	0x89
 1069 06d1 E2060000 		.4byte	0x6e2
 1070 06d5 17       		.uleb128 0x17
 1071 06d6 72313300 		.ascii	"r13\000"
 1072 06da 0A       		.byte	0xa
 1073 06db 8A       		.byte	0x8a
 1074 06dc 23080000 		.4byte	0x823
 1075 06e0 00       		.byte	0
 1076 06e1 00       		.byte	0
 1077 06e2 07       		.uleb128 0x7
 1078 06e3 50000000 		.4byte	.LASF110
 1079 06e7 64       		.byte	0x64
 1080 06e8 0B       		.byte	0xb
 1081 06e9 F4       		.byte	0xf4
 1082 06ea 23080000 		.4byte	0x823
 1083 06ee 17       		.uleb128 0x17
ARM GAS  /tmp/cc3lmtRN.s 			page 20


 1084 06ef 73313600 		.ascii	"s16\000"
 1085 06f3 0B       		.byte	0xb
 1086 06f4 F6       		.byte	0xf6
 1087 06f5 B3060000 		.4byte	0x6b3
 1088 06f9 00       		.byte	0
 1089 06fa 17       		.uleb128 0x17
 1090 06fb 73313700 		.ascii	"s17\000"
 1091 06ff 0B       		.byte	0xb
 1092 0700 F7       		.byte	0xf7
 1093 0701 B3060000 		.4byte	0x6b3
 1094 0705 04       		.byte	0x4
 1095 0706 17       		.uleb128 0x17
 1096 0707 73313800 		.ascii	"s18\000"
 1097 070b 0B       		.byte	0xb
 1098 070c F8       		.byte	0xf8
 1099 070d B3060000 		.4byte	0x6b3
 1100 0711 08       		.byte	0x8
 1101 0712 17       		.uleb128 0x17
 1102 0713 73313900 		.ascii	"s19\000"
 1103 0717 0B       		.byte	0xb
 1104 0718 F9       		.byte	0xf9
 1105 0719 B3060000 		.4byte	0x6b3
 1106 071d 0C       		.byte	0xc
 1107 071e 17       		.uleb128 0x17
 1108 071f 73323000 		.ascii	"s20\000"
 1109 0723 0B       		.byte	0xb
 1110 0724 FA       		.byte	0xfa
 1111 0725 B3060000 		.4byte	0x6b3
 1112 0729 10       		.byte	0x10
 1113 072a 17       		.uleb128 0x17
 1114 072b 73323100 		.ascii	"s21\000"
 1115 072f 0B       		.byte	0xb
 1116 0730 FB       		.byte	0xfb
 1117 0731 B3060000 		.4byte	0x6b3
 1118 0735 14       		.byte	0x14
 1119 0736 17       		.uleb128 0x17
 1120 0737 73323200 		.ascii	"s22\000"
 1121 073b 0B       		.byte	0xb
 1122 073c FC       		.byte	0xfc
 1123 073d B3060000 		.4byte	0x6b3
 1124 0741 18       		.byte	0x18
 1125 0742 17       		.uleb128 0x17
 1126 0743 73323300 		.ascii	"s23\000"
 1127 0747 0B       		.byte	0xb
 1128 0748 FD       		.byte	0xfd
 1129 0749 B3060000 		.4byte	0x6b3
 1130 074d 1C       		.byte	0x1c
 1131 074e 17       		.uleb128 0x17
 1132 074f 73323400 		.ascii	"s24\000"
 1133 0753 0B       		.byte	0xb
 1134 0754 FE       		.byte	0xfe
 1135 0755 B3060000 		.4byte	0x6b3
 1136 0759 20       		.byte	0x20
 1137 075a 17       		.uleb128 0x17
 1138 075b 73323500 		.ascii	"s25\000"
 1139 075f 0B       		.byte	0xb
 1140 0760 FF       		.byte	0xff
ARM GAS  /tmp/cc3lmtRN.s 			page 21


 1141 0761 B3060000 		.4byte	0x6b3
 1142 0765 24       		.byte	0x24
 1143 0766 09       		.uleb128 0x9
 1144 0767 73323600 		.ascii	"s26\000"
 1145 076b 0B       		.byte	0xb
 1146 076c 0001     		.2byte	0x100
 1147 076e B3060000 		.4byte	0x6b3
 1148 0772 28       		.byte	0x28
 1149 0773 09       		.uleb128 0x9
 1150 0774 73323700 		.ascii	"s27\000"
 1151 0778 0B       		.byte	0xb
 1152 0779 0101     		.2byte	0x101
 1153 077b B3060000 		.4byte	0x6b3
 1154 077f 2C       		.byte	0x2c
 1155 0780 09       		.uleb128 0x9
 1156 0781 73323800 		.ascii	"s28\000"
 1157 0785 0B       		.byte	0xb
 1158 0786 0201     		.2byte	0x102
 1159 0788 B3060000 		.4byte	0x6b3
 1160 078c 30       		.byte	0x30
 1161 078d 09       		.uleb128 0x9
 1162 078e 73323900 		.ascii	"s29\000"
 1163 0792 0B       		.byte	0xb
 1164 0793 0301     		.2byte	0x103
 1165 0795 B3060000 		.4byte	0x6b3
 1166 0799 34       		.byte	0x34
 1167 079a 09       		.uleb128 0x9
 1168 079b 73333000 		.ascii	"s30\000"
 1169 079f 0B       		.byte	0xb
 1170 07a0 0401     		.2byte	0x104
 1171 07a2 B3060000 		.4byte	0x6b3
 1172 07a6 38       		.byte	0x38
 1173 07a7 09       		.uleb128 0x9
 1174 07a8 73333100 		.ascii	"s31\000"
 1175 07ac 0B       		.byte	0xb
 1176 07ad 0501     		.2byte	0x105
 1177 07af B3060000 		.4byte	0x6b3
 1178 07b3 3C       		.byte	0x3c
 1179 07b4 09       		.uleb128 0x9
 1180 07b5 723400   		.ascii	"r4\000"
 1181 07b8 0B       		.byte	0xb
 1182 07b9 0701     		.2byte	0x107
 1183 07bb B3060000 		.4byte	0x6b3
 1184 07bf 40       		.byte	0x40
 1185 07c0 09       		.uleb128 0x9
 1186 07c1 723500   		.ascii	"r5\000"
 1187 07c4 0B       		.byte	0xb
 1188 07c5 0801     		.2byte	0x108
 1189 07c7 B3060000 		.4byte	0x6b3
 1190 07cb 44       		.byte	0x44
 1191 07cc 09       		.uleb128 0x9
 1192 07cd 723600   		.ascii	"r6\000"
 1193 07d0 0B       		.byte	0xb
 1194 07d1 0901     		.2byte	0x109
 1195 07d3 B3060000 		.4byte	0x6b3
 1196 07d7 48       		.byte	0x48
 1197 07d8 09       		.uleb128 0x9
ARM GAS  /tmp/cc3lmtRN.s 			page 22


 1198 07d9 723700   		.ascii	"r7\000"
 1199 07dc 0B       		.byte	0xb
 1200 07dd 0A01     		.2byte	0x10a
 1201 07df B3060000 		.4byte	0x6b3
 1202 07e3 4C       		.byte	0x4c
 1203 07e4 09       		.uleb128 0x9
 1204 07e5 723800   		.ascii	"r8\000"
 1205 07e8 0B       		.byte	0xb
 1206 07e9 0B01     		.2byte	0x10b
 1207 07eb B3060000 		.4byte	0x6b3
 1208 07ef 50       		.byte	0x50
 1209 07f0 09       		.uleb128 0x9
 1210 07f1 723900   		.ascii	"r9\000"
 1211 07f4 0B       		.byte	0xb
 1212 07f5 0C01     		.2byte	0x10c
 1213 07f7 B3060000 		.4byte	0x6b3
 1214 07fb 54       		.byte	0x54
 1215 07fc 09       		.uleb128 0x9
 1216 07fd 72313000 		.ascii	"r10\000"
 1217 0801 0B       		.byte	0xb
 1218 0802 0D01     		.2byte	0x10d
 1219 0804 B3060000 		.4byte	0x6b3
 1220 0808 58       		.byte	0x58
 1221 0809 09       		.uleb128 0x9
 1222 080a 72313100 		.ascii	"r11\000"
 1223 080e 0B       		.byte	0xb
 1224 080f 0E01     		.2byte	0x10e
 1225 0811 B3060000 		.4byte	0x6b3
 1226 0815 5C       		.byte	0x5c
 1227 0816 09       		.uleb128 0x9
 1228 0817 6C7200   		.ascii	"lr\000"
 1229 081a 0B       		.byte	0xb
 1230 081b 0F01     		.2byte	0x10f
 1231 081d B3060000 		.4byte	0x6b3
 1232 0821 60       		.byte	0x60
 1233 0822 00       		.byte	0
 1234 0823 0B       		.uleb128 0xb
 1235 0824 04       		.byte	0x4
 1236 0825 E2060000 		.4byte	0x6e2
 1237 0829 07       		.uleb128 0x7
 1238 082a 9B040000 		.4byte	.LASF111
 1239 082e 68       		.byte	0x68
 1240 082f 0B       		.byte	0xb
 1241 0830 D5       		.byte	0xd5
 1242 0831 5F090000 		.4byte	0x95f
 1243 0835 17       		.uleb128 0x17
 1244 0836 723000   		.ascii	"r0\000"
 1245 0839 0B       		.byte	0xb
 1246 083a D6       		.byte	0xd6
 1247 083b B3060000 		.4byte	0x6b3
 1248 083f 00       		.byte	0
 1249 0840 17       		.uleb128 0x17
 1250 0841 723100   		.ascii	"r1\000"
 1251 0844 0B       		.byte	0xb
 1252 0845 D7       		.byte	0xd7
 1253 0846 B3060000 		.4byte	0x6b3
 1254 084a 04       		.byte	0x4
ARM GAS  /tmp/cc3lmtRN.s 			page 23


 1255 084b 17       		.uleb128 0x17
 1256 084c 723200   		.ascii	"r2\000"
 1257 084f 0B       		.byte	0xb
 1258 0850 D8       		.byte	0xd8
 1259 0851 B3060000 		.4byte	0x6b3
 1260 0855 08       		.byte	0x8
 1261 0856 17       		.uleb128 0x17
 1262 0857 723300   		.ascii	"r3\000"
 1263 085a 0B       		.byte	0xb
 1264 085b D9       		.byte	0xd9
 1265 085c B3060000 		.4byte	0x6b3
 1266 0860 0C       		.byte	0xc
 1267 0861 17       		.uleb128 0x17
 1268 0862 72313200 		.ascii	"r12\000"
 1269 0866 0B       		.byte	0xb
 1270 0867 DA       		.byte	0xda
 1271 0868 B3060000 		.4byte	0x6b3
 1272 086c 10       		.byte	0x10
 1273 086d 08       		.uleb128 0x8
 1274 086e 37060000 		.4byte	.LASF112
 1275 0872 0B       		.byte	0xb
 1276 0873 DB       		.byte	0xdb
 1277 0874 B3060000 		.4byte	0x6b3
 1278 0878 14       		.byte	0x14
 1279 0879 17       		.uleb128 0x17
 1280 087a 706300   		.ascii	"pc\000"
 1281 087d 0B       		.byte	0xb
 1282 087e DC       		.byte	0xdc
 1283 087f B3060000 		.4byte	0x6b3
 1284 0883 18       		.byte	0x18
 1285 0884 08       		.uleb128 0x8
 1286 0885 EB050000 		.4byte	.LASF113
 1287 0889 0B       		.byte	0xb
 1288 088a DD       		.byte	0xdd
 1289 088b B3060000 		.4byte	0x6b3
 1290 088f 1C       		.byte	0x1c
 1291 0890 17       		.uleb128 0x17
 1292 0891 733000   		.ascii	"s0\000"
 1293 0894 0B       		.byte	0xb
 1294 0895 DF       		.byte	0xdf
 1295 0896 B3060000 		.4byte	0x6b3
 1296 089a 20       		.byte	0x20
 1297 089b 17       		.uleb128 0x17
 1298 089c 733100   		.ascii	"s1\000"
 1299 089f 0B       		.byte	0xb
 1300 08a0 E0       		.byte	0xe0
 1301 08a1 B3060000 		.4byte	0x6b3
 1302 08a5 24       		.byte	0x24
 1303 08a6 17       		.uleb128 0x17
 1304 08a7 733200   		.ascii	"s2\000"
 1305 08aa 0B       		.byte	0xb
 1306 08ab E1       		.byte	0xe1
 1307 08ac B3060000 		.4byte	0x6b3
 1308 08b0 28       		.byte	0x28
 1309 08b1 17       		.uleb128 0x17
 1310 08b2 733300   		.ascii	"s3\000"
 1311 08b5 0B       		.byte	0xb
ARM GAS  /tmp/cc3lmtRN.s 			page 24


 1312 08b6 E2       		.byte	0xe2
 1313 08b7 B3060000 		.4byte	0x6b3
 1314 08bb 2C       		.byte	0x2c
 1315 08bc 17       		.uleb128 0x17
 1316 08bd 733400   		.ascii	"s4\000"
 1317 08c0 0B       		.byte	0xb
 1318 08c1 E3       		.byte	0xe3
 1319 08c2 B3060000 		.4byte	0x6b3
 1320 08c6 30       		.byte	0x30
 1321 08c7 17       		.uleb128 0x17
 1322 08c8 733500   		.ascii	"s5\000"
 1323 08cb 0B       		.byte	0xb
 1324 08cc E4       		.byte	0xe4
 1325 08cd B3060000 		.4byte	0x6b3
 1326 08d1 34       		.byte	0x34
 1327 08d2 17       		.uleb128 0x17
 1328 08d3 733600   		.ascii	"s6\000"
 1329 08d6 0B       		.byte	0xb
 1330 08d7 E5       		.byte	0xe5
 1331 08d8 B3060000 		.4byte	0x6b3
 1332 08dc 38       		.byte	0x38
 1333 08dd 17       		.uleb128 0x17
 1334 08de 733700   		.ascii	"s7\000"
 1335 08e1 0B       		.byte	0xb
 1336 08e2 E6       		.byte	0xe6
 1337 08e3 B3060000 		.4byte	0x6b3
 1338 08e7 3C       		.byte	0x3c
 1339 08e8 17       		.uleb128 0x17
 1340 08e9 733800   		.ascii	"s8\000"
 1341 08ec 0B       		.byte	0xb
 1342 08ed E7       		.byte	0xe7
 1343 08ee B3060000 		.4byte	0x6b3
 1344 08f2 40       		.byte	0x40
 1345 08f3 17       		.uleb128 0x17
 1346 08f4 733900   		.ascii	"s9\000"
 1347 08f7 0B       		.byte	0xb
 1348 08f8 E8       		.byte	0xe8
 1349 08f9 B3060000 		.4byte	0x6b3
 1350 08fd 44       		.byte	0x44
 1351 08fe 17       		.uleb128 0x17
 1352 08ff 73313000 		.ascii	"s10\000"
 1353 0903 0B       		.byte	0xb
 1354 0904 E9       		.byte	0xe9
 1355 0905 B3060000 		.4byte	0x6b3
 1356 0909 48       		.byte	0x48
 1357 090a 17       		.uleb128 0x17
 1358 090b 73313100 		.ascii	"s11\000"
 1359 090f 0B       		.byte	0xb
 1360 0910 EA       		.byte	0xea
 1361 0911 B3060000 		.4byte	0x6b3
 1362 0915 4C       		.byte	0x4c
 1363 0916 17       		.uleb128 0x17
 1364 0917 73313200 		.ascii	"s12\000"
 1365 091b 0B       		.byte	0xb
 1366 091c EB       		.byte	0xeb
 1367 091d B3060000 		.4byte	0x6b3
 1368 0921 50       		.byte	0x50
ARM GAS  /tmp/cc3lmtRN.s 			page 25


 1369 0922 17       		.uleb128 0x17
 1370 0923 73313300 		.ascii	"s13\000"
 1371 0927 0B       		.byte	0xb
 1372 0928 EC       		.byte	0xec
 1373 0929 B3060000 		.4byte	0x6b3
 1374 092d 54       		.byte	0x54
 1375 092e 17       		.uleb128 0x17
 1376 092f 73313400 		.ascii	"s14\000"
 1377 0933 0B       		.byte	0xb
 1378 0934 ED       		.byte	0xed
 1379 0935 B3060000 		.4byte	0x6b3
 1380 0939 58       		.byte	0x58
 1381 093a 17       		.uleb128 0x17
 1382 093b 73313500 		.ascii	"s15\000"
 1383 093f 0B       		.byte	0xb
 1384 0940 EE       		.byte	0xee
 1385 0941 B3060000 		.4byte	0x6b3
 1386 0945 5C       		.byte	0x5c
 1387 0946 08       		.uleb128 0x8
 1388 0947 E8010000 		.4byte	.LASF114
 1389 094b 0B       		.byte	0xb
 1390 094c EF       		.byte	0xef
 1391 094d B3060000 		.4byte	0x6b3
 1392 0951 60       		.byte	0x60
 1393 0952 08       		.uleb128 0x8
 1394 0953 CF020000 		.4byte	.LASF115
 1395 0957 0B       		.byte	0xb
 1396 0958 F0       		.byte	0xf0
 1397 0959 B3060000 		.4byte	0x6b3
 1398 095d 64       		.byte	0x64
 1399 095e 00       		.byte	0
 1400 095f 18       		.uleb128 0x18
 1401 0960 04       		.byte	0x4
 1402 0961 0C       		.byte	0xc
 1403 0962 38       		.byte	0x38
 1404 0963 74090000 		.4byte	0x974
 1405 0967 08       		.uleb128 0x8
 1406 0968 46070000 		.4byte	.LASF116
 1407 096c 0C       		.byte	0xc
 1408 096d 3C       		.byte	0x3c
 1409 096e ED000000 		.4byte	0xed
 1410 0972 00       		.byte	0
 1411 0973 00       		.byte	0
 1412 0974 04       		.uleb128 0x4
 1413 0975 6A040000 		.4byte	.LASF117
 1414 0979 0C       		.byte	0xc
 1415 097a 3D       		.byte	0x3d
 1416 097b 5F090000 		.4byte	0x95f
 1417 097f 19       		.uleb128 0x19
 1418 0980 04       		.byte	0x4
 1419 0981 07       		.byte	0x7
 1420 0982 FA       		.byte	0xfa
 1421 0983 DC090000 		.4byte	0x9dc
 1422 0987 1A       		.uleb128 0x1a
 1423 0988 13000000 		.4byte	.LASF118
 1424 098c 07       		.byte	0x7
 1425 098d 0101     		.2byte	0x101
ARM GAS  /tmp/cc3lmtRN.s 			page 26


 1426 098f 2F010000 		.4byte	0x12f
 1427 0993 1A       		.uleb128 0x1a
 1428 0994 A7010000 		.4byte	.LASF119
 1429 0998 07       		.byte	0x7
 1430 0999 0801     		.2byte	0x108
 1431 099b 2F010000 		.4byte	0x12f
 1432 099f 1A       		.uleb128 0x1a
 1433 09a0 07080000 		.4byte	.LASF120
 1434 09a4 07       		.byte	0x7
 1435 09a5 0F01     		.2byte	0x10f
 1436 09a7 58030000 		.4byte	0x358
 1437 09ab 1A       		.uleb128 0x1a
 1438 09ac 0D000000 		.4byte	.LASF121
 1439 09b0 07       		.byte	0x7
 1440 09b1 1601     		.2byte	0x116
 1441 09b3 DC090000 		.4byte	0x9dc
 1442 09b7 1A       		.uleb128 0x1a
 1443 09b8 43030000 		.4byte	.LASF122
 1444 09bc 07       		.byte	0x7
 1445 09bd 1E01     		.2byte	0x11e
 1446 09bf 070A0000 		.4byte	0xa07
 1447 09c3 1A       		.uleb128 0x1a
 1448 09c4 DC060000 		.4byte	.LASF123
 1449 09c8 07       		.byte	0x7
 1450 09c9 2701     		.2byte	0x127
 1451 09cb 3E0A0000 		.4byte	0xa3e
 1452 09cf 1A       		.uleb128 0x1a
 1453 09d0 F7050000 		.4byte	.LASF124
 1454 09d4 07       		.byte	0x7
 1455 09d5 2F01     		.2byte	0x12f
 1456 09d7 3A010000 		.4byte	0x13a
 1457 09db 00       		.byte	0
 1458 09dc 0B       		.uleb128 0xb
 1459 09dd 04       		.byte	0x4
 1460 09de 70020000 		.4byte	0x270
 1461 09e2 07       		.uleb128 0x7
 1462 09e3 78060000 		.4byte	.LASF125
 1463 09e7 0C       		.byte	0xc
 1464 09e8 0D       		.byte	0xd
 1465 09e9 34       		.byte	0x34
 1466 09ea 070A0000 		.4byte	0xa07
 1467 09ee 08       		.uleb128 0x8
 1468 09ef 93020000 		.4byte	.LASF126
 1469 09f3 0D       		.byte	0xd
 1470 09f4 35       		.byte	0x35
 1471 09f5 A5020000 		.4byte	0x2a5
 1472 09f9 00       		.byte	0
 1473 09fa 08       		.uleb128 0x8
 1474 09fb 84030000 		.4byte	.LASF127
 1475 09ff 0D       		.byte	0xd
 1476 0a00 37       		.byte	0x37
 1477 0a01 45010000 		.4byte	0x145
 1478 0a05 08       		.byte	0x8
 1479 0a06 00       		.byte	0
 1480 0a07 0B       		.uleb128 0xb
 1481 0a08 04       		.byte	0x4
 1482 0a09 E2090000 		.4byte	0x9e2
ARM GAS  /tmp/cc3lmtRN.s 			page 27


 1483 0a0d 07       		.uleb128 0x7
 1484 0a0e C5070000 		.4byte	.LASF128
 1485 0a12 10       		.byte	0x10
 1486 0a13 0E       		.byte	0xe
 1487 0a14 39       		.byte	0x39
 1488 0a15 3E0A0000 		.4byte	0xa3e
 1489 0a19 08       		.uleb128 0x8
 1490 0a1a 21020000 		.4byte	.LASF129
 1491 0a1e 0E       		.byte	0xe
 1492 0a1f 3A       		.byte	0x3a
 1493 0a20 A5020000 		.4byte	0x2a5
 1494 0a24 00       		.byte	0
 1495 0a25 08       		.uleb128 0x8
 1496 0a26 33080000 		.4byte	.LASF130
 1497 0a2a 0E       		.byte	0xe
 1498 0a2b 3C       		.byte	0x3c
 1499 0a2c 7B020000 		.4byte	0x27b
 1500 0a30 08       		.byte	0x8
 1501 0a31 08       		.uleb128 0x8
 1502 0a32 0C070000 		.4byte	.LASF131
 1503 0a36 0E       		.byte	0xe
 1504 0a37 3E       		.byte	0x3e
 1505 0a38 930B0000 		.4byte	0xb93
 1506 0a3c 0C       		.byte	0xc
 1507 0a3d 00       		.byte	0
 1508 0a3e 0B       		.uleb128 0xb
 1509 0a3f 04       		.byte	0x4
 1510 0a40 0D0A0000 		.4byte	0xa0d
 1511 0a44 0B       		.uleb128 0xb
 1512 0a45 04       		.byte	0x4
 1513 0a46 560A0000 		.4byte	0xa56
 1514 0a4a 05       		.uleb128 0x5
 1515 0a4b 440A0000 		.4byte	0xa44
 1516 0a4f 03       		.uleb128 0x3
 1517 0a50 01       		.byte	0x1
 1518 0a51 08       		.byte	0x8
 1519 0a52 D7060000 		.4byte	.LASF132
 1520 0a56 06       		.uleb128 0x6
 1521 0a57 4F0A0000 		.4byte	0xa4f
 1522 0a5b 0B       		.uleb128 0xb
 1523 0a5c 04       		.byte	0x4
 1524 0a5d 5A030000 		.4byte	0x35a
 1525 0a61 12       		.uleb128 0x12
 1526 0a62 BE060000 		.4byte	0x6be
 1527 0a66 710A0000 		.4byte	0xa71
 1528 0a6a 13       		.uleb128 0x13
 1529 0a6b 2C000000 		.4byte	0x2c
 1530 0a6f 3A       		.byte	0x3a
 1531 0a70 00       		.byte	0
 1532 0a71 1B       		.uleb128 0x1b
 1533 0a72 636800   		.ascii	"ch\000"
 1534 0a75 07       		.byte	0x7
 1535 0a76 0902     		.2byte	0x209
 1536 0a78 27040000 		.4byte	0x427
 1537 0a7c 18       		.uleb128 0x18
 1538 0a7d 16       		.byte	0x16
 1539 0a7e 0F       		.byte	0xf
ARM GAS  /tmp/cc3lmtRN.s 			page 28


 1540 0a7f 34       		.byte	0x34
 1541 0a80 5D0B0000 		.4byte	0xb5d
 1542 0a84 08       		.uleb128 0x8
 1543 0a85 42080000 		.4byte	.LASF133
 1544 0a89 0F       		.byte	0xf
 1545 0a8a 35       		.byte	0x35
 1546 0a8b 5D0B0000 		.4byte	0xb5d
 1547 0a8f 00       		.byte	0
 1548 0a90 08       		.uleb128 0x8
 1549 0a91 1C040000 		.4byte	.LASF134
 1550 0a95 0F       		.byte	0xf
 1551 0a96 36       		.byte	0x36
 1552 0a97 A2000000 		.4byte	0xa2
 1553 0a9b 04       		.byte	0x4
 1554 0a9c 08       		.uleb128 0x8
 1555 0a9d BD060000 		.4byte	.LASF135
 1556 0aa1 0F       		.byte	0xf
 1557 0aa2 37       		.byte	0x37
 1558 0aa3 A2000000 		.4byte	0xa2
 1559 0aa7 05       		.byte	0x5
 1560 0aa8 08       		.uleb128 0x8
 1561 0aa9 15080000 		.4byte	.LASF136
 1562 0aad 0F       		.byte	0xf
 1563 0aae 38       		.byte	0x38
 1564 0aaf B2000000 		.4byte	0xb2
 1565 0ab3 06       		.byte	0x6
 1566 0ab4 08       		.uleb128 0x8
 1567 0ab5 04050000 		.4byte	.LASF137
 1568 0ab9 0F       		.byte	0xf
 1569 0aba 39       		.byte	0x39
 1570 0abb A2000000 		.4byte	0xa2
 1571 0abf 08       		.byte	0x8
 1572 0ac0 08       		.uleb128 0x8
 1573 0ac1 5E040000 		.4byte	.LASF138
 1574 0ac5 0F       		.byte	0xf
 1575 0ac6 3A       		.byte	0x3a
 1576 0ac7 A2000000 		.4byte	0xa2
 1577 0acb 09       		.byte	0x9
 1578 0acc 08       		.uleb128 0x8
 1579 0acd 99010000 		.4byte	.LASF139
 1580 0ad1 0F       		.byte	0xf
 1581 0ad2 3B       		.byte	0x3b
 1582 0ad3 A2000000 		.4byte	0xa2
 1583 0ad7 0A       		.byte	0xa
 1584 0ad8 08       		.uleb128 0x8
 1585 0ad9 99060000 		.4byte	.LASF140
 1586 0add 0F       		.byte	0xf
 1587 0ade 3C       		.byte	0x3c
 1588 0adf A2000000 		.4byte	0xa2
 1589 0ae3 0B       		.byte	0xb
 1590 0ae4 08       		.uleb128 0x8
 1591 0ae5 BA070000 		.4byte	.LASF141
 1592 0ae9 0F       		.byte	0xf
 1593 0aea 3D       		.byte	0x3d
 1594 0aeb A2000000 		.4byte	0xa2
 1595 0aef 0C       		.byte	0xc
 1596 0af0 08       		.uleb128 0x8
ARM GAS  /tmp/cc3lmtRN.s 			page 29


 1597 0af1 6B060000 		.4byte	.LASF142
 1598 0af5 0F       		.byte	0xf
 1599 0af6 3E       		.byte	0x3e
 1600 0af7 A2000000 		.4byte	0xa2
 1601 0afb 0D       		.byte	0xd
 1602 0afc 08       		.uleb128 0x8
 1603 0afd 55030000 		.4byte	.LASF143
 1604 0b01 0F       		.byte	0xf
 1605 0b02 3F       		.byte	0x3f
 1606 0b03 A2000000 		.4byte	0xa2
 1607 0b07 0E       		.byte	0xe
 1608 0b08 08       		.uleb128 0x8
 1609 0b09 7B040000 		.4byte	.LASF144
 1610 0b0d 0F       		.byte	0xf
 1611 0b0e 40       		.byte	0x40
 1612 0b0f A2000000 		.4byte	0xa2
 1613 0b13 0F       		.byte	0xf
 1614 0b14 08       		.uleb128 0x8
 1615 0b15 21000000 		.4byte	.LASF145
 1616 0b19 0F       		.byte	0xf
 1617 0b1a 41       		.byte	0x41
 1618 0b1b A2000000 		.4byte	0xa2
 1619 0b1f 10       		.byte	0x10
 1620 0b20 08       		.uleb128 0x8
 1621 0b21 55070000 		.4byte	.LASF146
 1622 0b25 0F       		.byte	0xf
 1623 0b26 43       		.byte	0x43
 1624 0b27 A2000000 		.4byte	0xa2
 1625 0b2b 11       		.byte	0x11
 1626 0b2c 08       		.uleb128 0x8
 1627 0b2d F5010000 		.4byte	.LASF147
 1628 0b31 0F       		.byte	0xf
 1629 0b32 44       		.byte	0x44
 1630 0b33 A2000000 		.4byte	0xa2
 1631 0b37 12       		.byte	0x12
 1632 0b38 08       		.uleb128 0x8
 1633 0b39 24040000 		.4byte	.LASF148
 1634 0b3d 0F       		.byte	0xf
 1635 0b3e 45       		.byte	0x45
 1636 0b3f A2000000 		.4byte	0xa2
 1637 0b43 13       		.byte	0x13
 1638 0b44 08       		.uleb128 0x8
 1639 0b45 0D060000 		.4byte	.LASF149
 1640 0b49 0F       		.byte	0xf
 1641 0b4a 46       		.byte	0x46
 1642 0b4b A2000000 		.4byte	0xa2
 1643 0b4f 14       		.byte	0x14
 1644 0b50 08       		.uleb128 0x8
 1645 0b51 C3030000 		.4byte	.LASF150
 1646 0b55 0F       		.byte	0xf
 1647 0b56 48       		.byte	0x48
 1648 0b57 A2000000 		.4byte	0xa2
 1649 0b5b 15       		.byte	0x15
 1650 0b5c 00       		.byte	0
 1651 0b5d 12       		.uleb128 0x12
 1652 0b5e 4F0A0000 		.4byte	0xa4f
 1653 0b62 6D0B0000 		.4byte	0xb6d
ARM GAS  /tmp/cc3lmtRN.s 			page 30


 1654 0b66 13       		.uleb128 0x13
 1655 0b67 2C000000 		.4byte	0x2c
 1656 0b6b 03       		.byte	0x3
 1657 0b6c 00       		.byte	0
 1658 0b6d 04       		.uleb128 0x4
 1659 0b6e 67020000 		.4byte	.LASF151
 1660 0b72 0F       		.byte	0xf
 1661 0b73 49       		.byte	0x49
 1662 0b74 7C0A0000 		.4byte	0xa7c
 1663 0b78 06       		.uleb128 0x6
 1664 0b79 6D0B0000 		.4byte	0xb6d
 1665 0b7d 16       		.uleb128 0x16
 1666 0b7e 76030000 		.4byte	.LASF152
 1667 0b82 0F       		.byte	0xf
 1668 0b83 6E       		.byte	0x6e
 1669 0b84 780B0000 		.4byte	0xb78
 1670 0b88 04       		.uleb128 0x4
 1671 0b89 2B080000 		.4byte	.LASF153
 1672 0b8d 0E       		.byte	0xe
 1673 0b8e 34       		.byte	0x34
 1674 0b8f 0D0A0000 		.4byte	0xa0d
 1675 0b93 0B       		.uleb128 0xb
 1676 0b94 04       		.byte	0x4
 1677 0b95 880B0000 		.4byte	0xb88
 1678 0b99 1C       		.uleb128 0x1c
 1679 0b9a B0030000 		.4byte	.LASF154
 1680 0b9e 01       		.byte	0x1
 1681 0b9f 7A       		.byte	0x7a
 1682 0ba0 00000000 		.4byte	.LFB220
 1683 0ba4 58000000 		.4byte	.LFE220-.LFB220
 1684 0ba8 01       		.uleb128 0x1
 1685 0ba9 9C       		.byte	0x9c
 1686 0baa 9A0C0000 		.4byte	0xc9a
 1687 0bae 1D       		.uleb128 0x1d
 1688 0baf 00000000 		.4byte	.Ldebug_ranges0+0
 1689 0bb3 330C0000 		.4byte	0xc33
 1690 0bb7 1E       		.uleb128 0x1e
 1691 0bb8 0F050000 		.4byte	.LASF156
 1692 0bbc 01       		.byte	0x1
 1693 0bbd 7E       		.byte	0x7e
 1694 0bbe 9A0C0000 		.4byte	0xc9a
 1695 0bc2 00000000 		.4byte	.LLST2
 1696 0bc6 1F       		.uleb128 0x1f
 1697 0bc7 250D0000 		.4byte	0xd25
 1698 0bcb 12000000 		.4byte	.LBB55
 1699 0bcf 04000000 		.4byte	.LBE55-.LBB55
 1700 0bd3 01       		.byte	0x1
 1701 0bd4 82       		.byte	0x82
 1702 0bd5 E90B0000 		.4byte	0xbe9
 1703 0bd9 20       		.uleb128 0x20
 1704 0bda 12000000 		.4byte	.LBB56
 1705 0bde 04000000 		.4byte	.LBE56-.LBB56
 1706 0be2 21       		.uleb128 0x21
 1707 0be3 360D0000 		.4byte	0xd36
 1708 0be7 00       		.byte	0
 1709 0be8 00       		.byte	0
 1710 0be9 1F       		.uleb128 0x1f
ARM GAS  /tmp/cc3lmtRN.s 			page 31


 1711 0bea 5D0D0000 		.4byte	0xd5d
 1712 0bee 16000000 		.4byte	.LBB57
 1713 0bf2 04000000 		.4byte	.LBE57-.LBB57
 1714 0bf6 01       		.byte	0x1
 1715 0bf7 86       		.byte	0x86
 1716 0bf8 0C0C0000 		.4byte	0xc0c
 1717 0bfc 20       		.uleb128 0x20
 1718 0bfd 16000000 		.4byte	.LBB58
 1719 0c01 04000000 		.4byte	.LBE58-.LBB58
 1720 0c05 21       		.uleb128 0x21
 1721 0c06 6E0D0000 		.4byte	0xd6e
 1722 0c0a 00       		.byte	0
 1723 0c0b 00       		.byte	0
 1724 0c0c 1F       		.uleb128 0x1f
 1725 0c0d 430D0000 		.4byte	0xd43
 1726 0c11 2E000000 		.4byte	.LBB59
 1727 0c15 04000000 		.4byte	.LBE59-.LBB59
 1728 0c19 01       		.byte	0x1
 1729 0c1a 93       		.byte	0x93
 1730 0c1b 290C0000 		.4byte	0xc29
 1731 0c1f 22       		.uleb128 0x22
 1732 0c20 500D0000 		.4byte	0xd50
 1733 0c24 2F000000 		.4byte	.LLST3
 1734 0c28 00       		.byte	0
 1735 0c29 23       		.uleb128 0x23
 1736 0c2a 36000000 		.4byte	.LVL8
 1737 0c2e 8D0D0000 		.4byte	0xd8d
 1738 0c32 00       		.byte	0
 1739 0c33 1F       		.uleb128 0x1f
 1740 0c34 0A0D0000 		.4byte	0xd0a
 1741 0c38 04000000 		.4byte	.LBB46
 1742 0c3c 02000000 		.4byte	.LBE46-.LBB46
 1743 0c40 01       		.byte	0x1
 1744 0c41 7C       		.byte	0x7c
 1745 0c42 680C0000 		.4byte	0xc68
 1746 0c46 24       		.uleb128 0x24
 1747 0c47 1C0D0000 		.4byte	0xd1c
 1748 0c4b 04000000 		.4byte	.LBB47
 1749 0c4f 02000000 		.4byte	.LBE47-.LBB47
 1750 0c53 0B       		.byte	0xb
 1751 0c54 DB01     		.2byte	0x1db
 1752 0c56 25       		.uleb128 0x25
 1753 0c57 7B0D0000 		.4byte	0xd7b
 1754 0c5b 04000000 		.4byte	.LBB48
 1755 0c5f 02000000 		.4byte	.LBE48-.LBB48
 1756 0c63 0B       		.byte	0xb
 1757 0c64 C101     		.2byte	0x1c1
 1758 0c66 00       		.byte	0
 1759 0c67 00       		.byte	0
 1760 0c68 26       		.uleb128 0x26
 1761 0c69 010D0000 		.4byte	0xd01
 1762 0c6d 0E000000 		.4byte	.LBB50
 1763 0c71 02000000 		.4byte	.LBE50-.LBB50
 1764 0c75 01       		.byte	0x1
 1765 0c76 A5       		.byte	0xa5
 1766 0c77 24       		.uleb128 0x24
 1767 0c78 130D0000 		.4byte	0xd13
ARM GAS  /tmp/cc3lmtRN.s 			page 32


 1768 0c7c 0E000000 		.4byte	.LBB51
 1769 0c80 02000000 		.4byte	.LBE51-.LBB51
 1770 0c84 0B       		.byte	0xb
 1771 0c85 E601     		.2byte	0x1e6
 1772 0c87 25       		.uleb128 0x25
 1773 0c88 840D0000 		.4byte	0xd84
 1774 0c8c 0E000000 		.4byte	.LBB52
 1775 0c90 02000000 		.4byte	.LBE52-.LBB52
 1776 0c94 0B       		.byte	0xb
 1777 0c95 CF01     		.2byte	0x1cf
 1778 0c97 00       		.byte	0
 1779 0c98 00       		.byte	0
 1780 0c99 00       		.byte	0
 1781 0c9a 0B       		.uleb128 0xb
 1782 0c9b 04       		.byte	0x4
 1783 0c9c 29080000 		.4byte	0x829
 1784 0ca0 1C       		.uleb128 0x1c
 1785 0ca1 A7040000 		.4byte	.LASF155
 1786 0ca5 01       		.byte	0x1
 1787 0ca6 5E       		.byte	0x5e
 1788 0ca7 00000000 		.4byte	.LFB219
 1789 0cab 24000000 		.4byte	.LFE219-.LFB219
 1790 0caf 01       		.uleb128 0x1
 1791 0cb0 9C       		.byte	0x9c
 1792 0cb1 010D0000 		.4byte	0xd01
 1793 0cb5 1E       		.uleb128 0x1e
 1794 0cb6 0F050000 		.4byte	.LASF156
 1795 0cba 01       		.byte	0x1
 1796 0cbb 60       		.byte	0x60
 1797 0cbc 9A0C0000 		.4byte	0xc9a
 1798 0cc0 50000000 		.4byte	.LLST0
 1799 0cc4 1F       		.uleb128 0x1f
 1800 0cc5 5D0D0000 		.4byte	0xd5d
 1801 0cc9 0E000000 		.4byte	.LBB42
 1802 0ccd 04000000 		.4byte	.LBE42-.LBB42
 1803 0cd1 01       		.byte	0x1
 1804 0cd2 68       		.byte	0x68
 1805 0cd3 E70C0000 		.4byte	0xce7
 1806 0cd7 20       		.uleb128 0x20
 1807 0cd8 0E000000 		.4byte	.LBB43
 1808 0cdc 04000000 		.4byte	.LBE43-.LBB43
 1809 0ce0 21       		.uleb128 0x21
 1810 0ce1 6E0D0000 		.4byte	0xd6e
 1811 0ce5 00       		.byte	0
 1812 0ce6 00       		.byte	0
 1813 0ce7 26       		.uleb128 0x26
 1814 0ce8 430D0000 		.4byte	0xd43
 1815 0cec 14000000 		.4byte	.LBB44
 1816 0cf0 04000000 		.4byte	.LBE44-.LBB44
 1817 0cf4 01       		.byte	0x1
 1818 0cf5 6F       		.byte	0x6f
 1819 0cf6 22       		.uleb128 0x22
 1820 0cf7 500D0000 		.4byte	0xd50
 1821 0cfb 71000000 		.4byte	.LLST1
 1822 0cff 00       		.byte	0
 1823 0d00 00       		.byte	0
 1824 0d01 27       		.uleb128 0x27
ARM GAS  /tmp/cc3lmtRN.s 			page 33


 1825 0d02 EE060000 		.4byte	.LASF157
 1826 0d06 0B       		.byte	0xb
 1827 0d07 E401     		.2byte	0x1e4
 1828 0d09 03       		.byte	0x3
 1829 0d0a 27       		.uleb128 0x27
 1830 0d0b 68070000 		.4byte	.LASF158
 1831 0d0f 0B       		.byte	0xb
 1832 0d10 D901     		.2byte	0x1d9
 1833 0d12 03       		.byte	0x3
 1834 0d13 27       		.uleb128 0x27
 1835 0d14 35020000 		.4byte	.LASF159
 1836 0d18 0B       		.byte	0xb
 1837 0d19 CA01     		.2byte	0x1ca
 1838 0d1b 03       		.byte	0x3
 1839 0d1c 27       		.uleb128 0x27
 1840 0d1d 8F010000 		.4byte	.LASF160
 1841 0d21 0B       		.byte	0xb
 1842 0d22 BC01     		.2byte	0x1bc
 1843 0d24 03       		.byte	0x3
 1844 0d25 28       		.uleb128 0x28
 1845 0d26 33050000 		.4byte	.LASF161
 1846 0d2a 02       		.byte	0x2
 1847 0d2b 4B02     		.2byte	0x24b
 1848 0d2d CD000000 		.4byte	0xcd
 1849 0d31 03       		.byte	0x3
 1850 0d32 430D0000 		.4byte	0xd43
 1851 0d36 29       		.uleb128 0x29
 1852 0d37 3B080000 		.4byte	.LASF163
 1853 0d3b 02       		.byte	0x2
 1854 0d3c 4E02     		.2byte	0x24e
 1855 0d3e CD000000 		.4byte	0xcd
 1856 0d42 00       		.byte	0
 1857 0d43 2A       		.uleb128 0x2a
 1858 0d44 11030000 		.4byte	.LASF169
 1859 0d48 02       		.byte	0x2
 1860 0d49 B701     		.2byte	0x1b7
 1861 0d4b 03       		.byte	0x3
 1862 0d4c 5D0D0000 		.4byte	0xd5d
 1863 0d50 2B       		.uleb128 0x2b
 1864 0d51 E9030000 		.4byte	.LASF170
 1865 0d55 02       		.byte	0x2
 1866 0d56 B701     		.2byte	0x1b7
 1867 0d58 CD000000 		.4byte	0xcd
 1868 0d5c 00       		.byte	0
 1869 0d5d 28       		.uleb128 0x28
 1870 0d5e 7B070000 		.4byte	.LASF162
 1871 0d62 02       		.byte	0x2
 1872 0d63 A801     		.2byte	0x1a8
 1873 0d65 CD000000 		.4byte	0xcd
 1874 0d69 03       		.byte	0x3
 1875 0d6a 7B0D0000 		.4byte	0xd7b
 1876 0d6e 29       		.uleb128 0x29
 1877 0d6f 3B080000 		.4byte	.LASF163
 1878 0d73 02       		.byte	0x2
 1879 0d74 AA01     		.2byte	0x1aa
 1880 0d76 CD000000 		.4byte	0xcd
 1881 0d7a 00       		.byte	0
ARM GAS  /tmp/cc3lmtRN.s 			page 34


 1882 0d7b 27       		.uleb128 0x27
 1883 0d7c EC040000 		.4byte	.LASF164
 1884 0d80 02       		.byte	0x2
 1885 0d81 5401     		.2byte	0x154
 1886 0d83 03       		.byte	0x3
 1887 0d84 27       		.uleb128 0x27
 1888 0d85 C8040000 		.4byte	.LASF165
 1889 0d89 02       		.byte	0x2
 1890 0d8a 4901     		.2byte	0x149
 1891 0d8c 03       		.byte	0x3
 1892 0d8d 2C       		.uleb128 0x2c
 1893 0d8e 71020000 		.4byte	.LASF171
 1894 0d92 71020000 		.4byte	.LASF171
 1895 0d96 07       		.byte	0x7
 1896 0d97 1802     		.2byte	0x218
 1897 0d99 00       		.byte	0
 1898              		.section	.debug_abbrev,"",%progbits
 1899              	.Ldebug_abbrev0:
 1900 0000 01       		.uleb128 0x1
 1901 0001 11       		.uleb128 0x11
 1902 0002 01       		.byte	0x1
 1903 0003 25       		.uleb128 0x25
 1904 0004 0E       		.uleb128 0xe
 1905 0005 13       		.uleb128 0x13
 1906 0006 0B       		.uleb128 0xb
 1907 0007 03       		.uleb128 0x3
 1908 0008 0E       		.uleb128 0xe
 1909 0009 1B       		.uleb128 0x1b
 1910 000a 0E       		.uleb128 0xe
 1911 000b 55       		.uleb128 0x55
 1912 000c 17       		.uleb128 0x17
 1913 000d 11       		.uleb128 0x11
 1914 000e 01       		.uleb128 0x1
 1915 000f 10       		.uleb128 0x10
 1916 0010 17       		.uleb128 0x17
 1917 0011 00       		.byte	0
 1918 0012 00       		.byte	0
 1919 0013 02       		.uleb128 0x2
 1920 0014 24       		.uleb128 0x24
 1921 0015 00       		.byte	0
 1922 0016 0B       		.uleb128 0xb
 1923 0017 0B       		.uleb128 0xb
 1924 0018 3E       		.uleb128 0x3e
 1925 0019 0B       		.uleb128 0xb
 1926 001a 03       		.uleb128 0x3
 1927 001b 08       		.uleb128 0x8
 1928 001c 00       		.byte	0
 1929 001d 00       		.byte	0
 1930 001e 03       		.uleb128 0x3
 1931 001f 24       		.uleb128 0x24
 1932 0020 00       		.byte	0
 1933 0021 0B       		.uleb128 0xb
 1934 0022 0B       		.uleb128 0xb
 1935 0023 3E       		.uleb128 0x3e
 1936 0024 0B       		.uleb128 0xb
 1937 0025 03       		.uleb128 0x3
 1938 0026 0E       		.uleb128 0xe
ARM GAS  /tmp/cc3lmtRN.s 			page 35


 1939 0027 00       		.byte	0
 1940 0028 00       		.byte	0
 1941 0029 04       		.uleb128 0x4
 1942 002a 16       		.uleb128 0x16
 1943 002b 00       		.byte	0
 1944 002c 03       		.uleb128 0x3
 1945 002d 0E       		.uleb128 0xe
 1946 002e 3A       		.uleb128 0x3a
 1947 002f 0B       		.uleb128 0xb
 1948 0030 3B       		.uleb128 0x3b
 1949 0031 0B       		.uleb128 0xb
 1950 0032 49       		.uleb128 0x49
 1951 0033 13       		.uleb128 0x13
 1952 0034 00       		.byte	0
 1953 0035 00       		.byte	0
 1954 0036 05       		.uleb128 0x5
 1955 0037 35       		.uleb128 0x35
 1956 0038 00       		.byte	0
 1957 0039 49       		.uleb128 0x49
 1958 003a 13       		.uleb128 0x13
 1959 003b 00       		.byte	0
 1960 003c 00       		.byte	0
 1961 003d 06       		.uleb128 0x6
 1962 003e 26       		.uleb128 0x26
 1963 003f 00       		.byte	0
 1964 0040 49       		.uleb128 0x49
 1965 0041 13       		.uleb128 0x13
 1966 0042 00       		.byte	0
 1967 0043 00       		.byte	0
 1968 0044 07       		.uleb128 0x7
 1969 0045 13       		.uleb128 0x13
 1970 0046 01       		.byte	0x1
 1971 0047 03       		.uleb128 0x3
 1972 0048 0E       		.uleb128 0xe
 1973 0049 0B       		.uleb128 0xb
 1974 004a 0B       		.uleb128 0xb
 1975 004b 3A       		.uleb128 0x3a
 1976 004c 0B       		.uleb128 0xb
 1977 004d 3B       		.uleb128 0x3b
 1978 004e 0B       		.uleb128 0xb
 1979 004f 01       		.uleb128 0x1
 1980 0050 13       		.uleb128 0x13
 1981 0051 00       		.byte	0
 1982 0052 00       		.byte	0
 1983 0053 08       		.uleb128 0x8
 1984 0054 0D       		.uleb128 0xd
 1985 0055 00       		.byte	0
 1986 0056 03       		.uleb128 0x3
 1987 0057 0E       		.uleb128 0xe
 1988 0058 3A       		.uleb128 0x3a
 1989 0059 0B       		.uleb128 0xb
 1990 005a 3B       		.uleb128 0x3b
 1991 005b 0B       		.uleb128 0xb
 1992 005c 49       		.uleb128 0x49
 1993 005d 13       		.uleb128 0x13
 1994 005e 38       		.uleb128 0x38
 1995 005f 0B       		.uleb128 0xb
ARM GAS  /tmp/cc3lmtRN.s 			page 36


 1996 0060 00       		.byte	0
 1997 0061 00       		.byte	0
 1998 0062 09       		.uleb128 0x9
 1999 0063 0D       		.uleb128 0xd
 2000 0064 00       		.byte	0
 2001 0065 03       		.uleb128 0x3
 2002 0066 08       		.uleb128 0x8
 2003 0067 3A       		.uleb128 0x3a
 2004 0068 0B       		.uleb128 0xb
 2005 0069 3B       		.uleb128 0x3b
 2006 006a 05       		.uleb128 0x5
 2007 006b 49       		.uleb128 0x49
 2008 006c 13       		.uleb128 0x13
 2009 006d 38       		.uleb128 0x38
 2010 006e 0B       		.uleb128 0xb
 2011 006f 00       		.byte	0
 2012 0070 00       		.byte	0
 2013 0071 0A       		.uleb128 0xa
 2014 0072 0D       		.uleb128 0xd
 2015 0073 00       		.byte	0
 2016 0074 03       		.uleb128 0x3
 2017 0075 0E       		.uleb128 0xe
 2018 0076 3A       		.uleb128 0x3a
 2019 0077 0B       		.uleb128 0xb
 2020 0078 3B       		.uleb128 0x3b
 2021 0079 05       		.uleb128 0x5
 2022 007a 49       		.uleb128 0x49
 2023 007b 13       		.uleb128 0x13
 2024 007c 38       		.uleb128 0x38
 2025 007d 0B       		.uleb128 0xb
 2026 007e 00       		.byte	0
 2027 007f 00       		.byte	0
 2028 0080 0B       		.uleb128 0xb
 2029 0081 0F       		.uleb128 0xf
 2030 0082 00       		.byte	0
 2031 0083 0B       		.uleb128 0xb
 2032 0084 0B       		.uleb128 0xb
 2033 0085 49       		.uleb128 0x49
 2034 0086 13       		.uleb128 0x13
 2035 0087 00       		.byte	0
 2036 0088 00       		.byte	0
 2037 0089 0C       		.uleb128 0xc
 2038 008a 13       		.uleb128 0x13
 2039 008b 01       		.byte	0x1
 2040 008c 03       		.uleb128 0x3
 2041 008d 0E       		.uleb128 0xe
 2042 008e 0B       		.uleb128 0xb
 2043 008f 0B       		.uleb128 0xb
 2044 0090 3A       		.uleb128 0x3a
 2045 0091 0B       		.uleb128 0xb
 2046 0092 3B       		.uleb128 0x3b
 2047 0093 05       		.uleb128 0x5
 2048 0094 01       		.uleb128 0x1
 2049 0095 13       		.uleb128 0x13
 2050 0096 00       		.byte	0
 2051 0097 00       		.byte	0
 2052 0098 0D       		.uleb128 0xd
ARM GAS  /tmp/cc3lmtRN.s 			page 37


 2053 0099 15       		.uleb128 0x15
 2054 009a 01       		.byte	0x1
 2055 009b 27       		.uleb128 0x27
 2056 009c 19       		.uleb128 0x19
 2057 009d 01       		.uleb128 0x1
 2058 009e 13       		.uleb128 0x13
 2059 009f 00       		.byte	0
 2060 00a0 00       		.byte	0
 2061 00a1 0E       		.uleb128 0xe
 2062 00a2 05       		.uleb128 0x5
 2063 00a3 00       		.byte	0
 2064 00a4 49       		.uleb128 0x49
 2065 00a5 13       		.uleb128 0x13
 2066 00a6 00       		.byte	0
 2067 00a7 00       		.byte	0
 2068 00a8 0F       		.uleb128 0xf
 2069 00a9 0F       		.uleb128 0xf
 2070 00aa 00       		.byte	0
 2071 00ab 0B       		.uleb128 0xb
 2072 00ac 0B       		.uleb128 0xb
 2073 00ad 00       		.byte	0
 2074 00ae 00       		.byte	0
 2075 00af 10       		.uleb128 0x10
 2076 00b0 13       		.uleb128 0x13
 2077 00b1 01       		.byte	0x1
 2078 00b2 03       		.uleb128 0x3
 2079 00b3 0E       		.uleb128 0xe
 2080 00b4 0B       		.uleb128 0xb
 2081 00b5 05       		.uleb128 0x5
 2082 00b6 3A       		.uleb128 0x3a
 2083 00b7 0B       		.uleb128 0xb
 2084 00b8 3B       		.uleb128 0x3b
 2085 00b9 05       		.uleb128 0x5
 2086 00ba 01       		.uleb128 0x1
 2087 00bb 13       		.uleb128 0x13
 2088 00bc 00       		.byte	0
 2089 00bd 00       		.byte	0
 2090 00be 11       		.uleb128 0x11
 2091 00bf 13       		.uleb128 0x13
 2092 00c0 01       		.byte	0x1
 2093 00c1 0B       		.uleb128 0xb
 2094 00c2 0B       		.uleb128 0xb
 2095 00c3 3A       		.uleb128 0x3a
 2096 00c4 0B       		.uleb128 0xb
 2097 00c5 3B       		.uleb128 0x3b
 2098 00c6 05       		.uleb128 0x5
 2099 00c7 01       		.uleb128 0x1
 2100 00c8 13       		.uleb128 0x13
 2101 00c9 00       		.byte	0
 2102 00ca 00       		.byte	0
 2103 00cb 12       		.uleb128 0x12
 2104 00cc 01       		.uleb128 0x1
 2105 00cd 01       		.byte	0x1
 2106 00ce 49       		.uleb128 0x49
 2107 00cf 13       		.uleb128 0x13
 2108 00d0 01       		.uleb128 0x1
 2109 00d1 13       		.uleb128 0x13
ARM GAS  /tmp/cc3lmtRN.s 			page 38


 2110 00d2 00       		.byte	0
 2111 00d3 00       		.byte	0
 2112 00d4 13       		.uleb128 0x13
 2113 00d5 21       		.uleb128 0x21
 2114 00d6 00       		.byte	0
 2115 00d7 49       		.uleb128 0x49
 2116 00d8 13       		.uleb128 0x13
 2117 00d9 2F       		.uleb128 0x2f
 2118 00da 0B       		.uleb128 0xb
 2119 00db 00       		.byte	0
 2120 00dc 00       		.byte	0
 2121 00dd 14       		.uleb128 0x14
 2122 00de 16       		.uleb128 0x16
 2123 00df 00       		.byte	0
 2124 00e0 03       		.uleb128 0x3
 2125 00e1 0E       		.uleb128 0xe
 2126 00e2 3A       		.uleb128 0x3a
 2127 00e3 0B       		.uleb128 0xb
 2128 00e4 3B       		.uleb128 0x3b
 2129 00e5 05       		.uleb128 0x5
 2130 00e6 49       		.uleb128 0x49
 2131 00e7 13       		.uleb128 0x13
 2132 00e8 00       		.byte	0
 2133 00e9 00       		.byte	0
 2134 00ea 15       		.uleb128 0x15
 2135 00eb 34       		.uleb128 0x34
 2136 00ec 00       		.byte	0
 2137 00ed 03       		.uleb128 0x3
 2138 00ee 0E       		.uleb128 0xe
 2139 00ef 3A       		.uleb128 0x3a
 2140 00f0 0B       		.uleb128 0xb
 2141 00f1 3B       		.uleb128 0x3b
 2142 00f2 05       		.uleb128 0x5
 2143 00f3 49       		.uleb128 0x49
 2144 00f4 13       		.uleb128 0x13
 2145 00f5 3F       		.uleb128 0x3f
 2146 00f6 19       		.uleb128 0x19
 2147 00f7 3C       		.uleb128 0x3c
 2148 00f8 19       		.uleb128 0x19
 2149 00f9 00       		.byte	0
 2150 00fa 00       		.byte	0
 2151 00fb 16       		.uleb128 0x16
 2152 00fc 34       		.uleb128 0x34
 2153 00fd 00       		.byte	0
 2154 00fe 03       		.uleb128 0x3
 2155 00ff 0E       		.uleb128 0xe
 2156 0100 3A       		.uleb128 0x3a
 2157 0101 0B       		.uleb128 0xb
 2158 0102 3B       		.uleb128 0x3b
 2159 0103 0B       		.uleb128 0xb
 2160 0104 49       		.uleb128 0x49
 2161 0105 13       		.uleb128 0x13
 2162 0106 3F       		.uleb128 0x3f
 2163 0107 19       		.uleb128 0x19
 2164 0108 3C       		.uleb128 0x3c
 2165 0109 19       		.uleb128 0x19
 2166 010a 00       		.byte	0
ARM GAS  /tmp/cc3lmtRN.s 			page 39


 2167 010b 00       		.byte	0
 2168 010c 17       		.uleb128 0x17
 2169 010d 0D       		.uleb128 0xd
 2170 010e 00       		.byte	0
 2171 010f 03       		.uleb128 0x3
 2172 0110 08       		.uleb128 0x8
 2173 0111 3A       		.uleb128 0x3a
 2174 0112 0B       		.uleb128 0xb
 2175 0113 3B       		.uleb128 0x3b
 2176 0114 0B       		.uleb128 0xb
 2177 0115 49       		.uleb128 0x49
 2178 0116 13       		.uleb128 0x13
 2179 0117 38       		.uleb128 0x38
 2180 0118 0B       		.uleb128 0xb
 2181 0119 00       		.byte	0
 2182 011a 00       		.byte	0
 2183 011b 18       		.uleb128 0x18
 2184 011c 13       		.uleb128 0x13
 2185 011d 01       		.byte	0x1
 2186 011e 0B       		.uleb128 0xb
 2187 011f 0B       		.uleb128 0xb
 2188 0120 3A       		.uleb128 0x3a
 2189 0121 0B       		.uleb128 0xb
 2190 0122 3B       		.uleb128 0x3b
 2191 0123 0B       		.uleb128 0xb
 2192 0124 01       		.uleb128 0x1
 2193 0125 13       		.uleb128 0x13
 2194 0126 00       		.byte	0
 2195 0127 00       		.byte	0
 2196 0128 19       		.uleb128 0x19
 2197 0129 17       		.uleb128 0x17
 2198 012a 01       		.byte	0x1
 2199 012b 0B       		.uleb128 0xb
 2200 012c 0B       		.uleb128 0xb
 2201 012d 3A       		.uleb128 0x3a
 2202 012e 0B       		.uleb128 0xb
 2203 012f 3B       		.uleb128 0x3b
 2204 0130 0B       		.uleb128 0xb
 2205 0131 01       		.uleb128 0x1
 2206 0132 13       		.uleb128 0x13
 2207 0133 00       		.byte	0
 2208 0134 00       		.byte	0
 2209 0135 1A       		.uleb128 0x1a
 2210 0136 0D       		.uleb128 0xd
 2211 0137 00       		.byte	0
 2212 0138 03       		.uleb128 0x3
 2213 0139 0E       		.uleb128 0xe
 2214 013a 3A       		.uleb128 0x3a
 2215 013b 0B       		.uleb128 0xb
 2216 013c 3B       		.uleb128 0x3b
 2217 013d 05       		.uleb128 0x5
 2218 013e 49       		.uleb128 0x49
 2219 013f 13       		.uleb128 0x13
 2220 0140 00       		.byte	0
 2221 0141 00       		.byte	0
 2222 0142 1B       		.uleb128 0x1b
 2223 0143 34       		.uleb128 0x34
ARM GAS  /tmp/cc3lmtRN.s 			page 40


 2224 0144 00       		.byte	0
 2225 0145 03       		.uleb128 0x3
 2226 0146 08       		.uleb128 0x8
 2227 0147 3A       		.uleb128 0x3a
 2228 0148 0B       		.uleb128 0xb
 2229 0149 3B       		.uleb128 0x3b
 2230 014a 05       		.uleb128 0x5
 2231 014b 49       		.uleb128 0x49
 2232 014c 13       		.uleb128 0x13
 2233 014d 3F       		.uleb128 0x3f
 2234 014e 19       		.uleb128 0x19
 2235 014f 3C       		.uleb128 0x3c
 2236 0150 19       		.uleb128 0x19
 2237 0151 00       		.byte	0
 2238 0152 00       		.byte	0
 2239 0153 1C       		.uleb128 0x1c
 2240 0154 2E       		.uleb128 0x2e
 2241 0155 01       		.byte	0x1
 2242 0156 3F       		.uleb128 0x3f
 2243 0157 19       		.uleb128 0x19
 2244 0158 03       		.uleb128 0x3
 2245 0159 0E       		.uleb128 0xe
 2246 015a 3A       		.uleb128 0x3a
 2247 015b 0B       		.uleb128 0xb
 2248 015c 3B       		.uleb128 0x3b
 2249 015d 0B       		.uleb128 0xb
 2250 015e 27       		.uleb128 0x27
 2251 015f 19       		.uleb128 0x19
 2252 0160 11       		.uleb128 0x11
 2253 0161 01       		.uleb128 0x1
 2254 0162 12       		.uleb128 0x12
 2255 0163 06       		.uleb128 0x6
 2256 0164 40       		.uleb128 0x40
 2257 0165 18       		.uleb128 0x18
 2258 0166 9742     		.uleb128 0x2117
 2259 0168 19       		.uleb128 0x19
 2260 0169 01       		.uleb128 0x1
 2261 016a 13       		.uleb128 0x13
 2262 016b 00       		.byte	0
 2263 016c 00       		.byte	0
 2264 016d 1D       		.uleb128 0x1d
 2265 016e 0B       		.uleb128 0xb
 2266 016f 01       		.byte	0x1
 2267 0170 55       		.uleb128 0x55
 2268 0171 17       		.uleb128 0x17
 2269 0172 01       		.uleb128 0x1
 2270 0173 13       		.uleb128 0x13
 2271 0174 00       		.byte	0
 2272 0175 00       		.byte	0
 2273 0176 1E       		.uleb128 0x1e
 2274 0177 34       		.uleb128 0x34
 2275 0178 00       		.byte	0
 2276 0179 03       		.uleb128 0x3
 2277 017a 0E       		.uleb128 0xe
 2278 017b 3A       		.uleb128 0x3a
 2279 017c 0B       		.uleb128 0xb
 2280 017d 3B       		.uleb128 0x3b
ARM GAS  /tmp/cc3lmtRN.s 			page 41


 2281 017e 0B       		.uleb128 0xb
 2282 017f 49       		.uleb128 0x49
 2283 0180 13       		.uleb128 0x13
 2284 0181 02       		.uleb128 0x2
 2285 0182 17       		.uleb128 0x17
 2286 0183 00       		.byte	0
 2287 0184 00       		.byte	0
 2288 0185 1F       		.uleb128 0x1f
 2289 0186 1D       		.uleb128 0x1d
 2290 0187 01       		.byte	0x1
 2291 0188 31       		.uleb128 0x31
 2292 0189 13       		.uleb128 0x13
 2293 018a 11       		.uleb128 0x11
 2294 018b 01       		.uleb128 0x1
 2295 018c 12       		.uleb128 0x12
 2296 018d 06       		.uleb128 0x6
 2297 018e 58       		.uleb128 0x58
 2298 018f 0B       		.uleb128 0xb
 2299 0190 59       		.uleb128 0x59
 2300 0191 0B       		.uleb128 0xb
 2301 0192 01       		.uleb128 0x1
 2302 0193 13       		.uleb128 0x13
 2303 0194 00       		.byte	0
 2304 0195 00       		.byte	0
 2305 0196 20       		.uleb128 0x20
 2306 0197 0B       		.uleb128 0xb
 2307 0198 01       		.byte	0x1
 2308 0199 11       		.uleb128 0x11
 2309 019a 01       		.uleb128 0x1
 2310 019b 12       		.uleb128 0x12
 2311 019c 06       		.uleb128 0x6
 2312 019d 00       		.byte	0
 2313 019e 00       		.byte	0
 2314 019f 21       		.uleb128 0x21
 2315 01a0 34       		.uleb128 0x34
 2316 01a1 00       		.byte	0
 2317 01a2 31       		.uleb128 0x31
 2318 01a3 13       		.uleb128 0x13
 2319 01a4 00       		.byte	0
 2320 01a5 00       		.byte	0
 2321 01a6 22       		.uleb128 0x22
 2322 01a7 05       		.uleb128 0x5
 2323 01a8 00       		.byte	0
 2324 01a9 31       		.uleb128 0x31
 2325 01aa 13       		.uleb128 0x13
 2326 01ab 02       		.uleb128 0x2
 2327 01ac 17       		.uleb128 0x17
 2328 01ad 00       		.byte	0
 2329 01ae 00       		.byte	0
 2330 01af 23       		.uleb128 0x23
 2331 01b0 898201   		.uleb128 0x4109
 2332 01b3 00       		.byte	0
 2333 01b4 11       		.uleb128 0x11
 2334 01b5 01       		.uleb128 0x1
 2335 01b6 31       		.uleb128 0x31
 2336 01b7 13       		.uleb128 0x13
 2337 01b8 00       		.byte	0
ARM GAS  /tmp/cc3lmtRN.s 			page 42


 2338 01b9 00       		.byte	0
 2339 01ba 24       		.uleb128 0x24
 2340 01bb 1D       		.uleb128 0x1d
 2341 01bc 01       		.byte	0x1
 2342 01bd 31       		.uleb128 0x31
 2343 01be 13       		.uleb128 0x13
 2344 01bf 11       		.uleb128 0x11
 2345 01c0 01       		.uleb128 0x1
 2346 01c1 12       		.uleb128 0x12
 2347 01c2 06       		.uleb128 0x6
 2348 01c3 58       		.uleb128 0x58
 2349 01c4 0B       		.uleb128 0xb
 2350 01c5 59       		.uleb128 0x59
 2351 01c6 05       		.uleb128 0x5
 2352 01c7 00       		.byte	0
 2353 01c8 00       		.byte	0
 2354 01c9 25       		.uleb128 0x25
 2355 01ca 1D       		.uleb128 0x1d
 2356 01cb 00       		.byte	0
 2357 01cc 31       		.uleb128 0x31
 2358 01cd 13       		.uleb128 0x13
 2359 01ce 11       		.uleb128 0x11
 2360 01cf 01       		.uleb128 0x1
 2361 01d0 12       		.uleb128 0x12
 2362 01d1 06       		.uleb128 0x6
 2363 01d2 58       		.uleb128 0x58
 2364 01d3 0B       		.uleb128 0xb
 2365 01d4 59       		.uleb128 0x59
 2366 01d5 05       		.uleb128 0x5
 2367 01d6 00       		.byte	0
 2368 01d7 00       		.byte	0
 2369 01d8 26       		.uleb128 0x26
 2370 01d9 1D       		.uleb128 0x1d
 2371 01da 01       		.byte	0x1
 2372 01db 31       		.uleb128 0x31
 2373 01dc 13       		.uleb128 0x13
 2374 01dd 11       		.uleb128 0x11
 2375 01de 01       		.uleb128 0x1
 2376 01df 12       		.uleb128 0x12
 2377 01e0 06       		.uleb128 0x6
 2378 01e1 58       		.uleb128 0x58
 2379 01e2 0B       		.uleb128 0xb
 2380 01e3 59       		.uleb128 0x59
 2381 01e4 0B       		.uleb128 0xb
 2382 01e5 00       		.byte	0
 2383 01e6 00       		.byte	0
 2384 01e7 27       		.uleb128 0x27
 2385 01e8 2E       		.uleb128 0x2e
 2386 01e9 00       		.byte	0
 2387 01ea 03       		.uleb128 0x3
 2388 01eb 0E       		.uleb128 0xe
 2389 01ec 3A       		.uleb128 0x3a
 2390 01ed 0B       		.uleb128 0xb
 2391 01ee 3B       		.uleb128 0x3b
 2392 01ef 05       		.uleb128 0x5
 2393 01f0 27       		.uleb128 0x27
 2394 01f1 19       		.uleb128 0x19
ARM GAS  /tmp/cc3lmtRN.s 			page 43


 2395 01f2 20       		.uleb128 0x20
 2396 01f3 0B       		.uleb128 0xb
 2397 01f4 00       		.byte	0
 2398 01f5 00       		.byte	0
 2399 01f6 28       		.uleb128 0x28
 2400 01f7 2E       		.uleb128 0x2e
 2401 01f8 01       		.byte	0x1
 2402 01f9 03       		.uleb128 0x3
 2403 01fa 0E       		.uleb128 0xe
 2404 01fb 3A       		.uleb128 0x3a
 2405 01fc 0B       		.uleb128 0xb
 2406 01fd 3B       		.uleb128 0x3b
 2407 01fe 05       		.uleb128 0x5
 2408 01ff 27       		.uleb128 0x27
 2409 0200 19       		.uleb128 0x19
 2410 0201 49       		.uleb128 0x49
 2411 0202 13       		.uleb128 0x13
 2412 0203 20       		.uleb128 0x20
 2413 0204 0B       		.uleb128 0xb
 2414 0205 01       		.uleb128 0x1
 2415 0206 13       		.uleb128 0x13
 2416 0207 00       		.byte	0
 2417 0208 00       		.byte	0
 2418 0209 29       		.uleb128 0x29
 2419 020a 34       		.uleb128 0x34
 2420 020b 00       		.byte	0
 2421 020c 03       		.uleb128 0x3
 2422 020d 0E       		.uleb128 0xe
 2423 020e 3A       		.uleb128 0x3a
 2424 020f 0B       		.uleb128 0xb
 2425 0210 3B       		.uleb128 0x3b
 2426 0211 05       		.uleb128 0x5
 2427 0212 49       		.uleb128 0x49
 2428 0213 13       		.uleb128 0x13
 2429 0214 00       		.byte	0
 2430 0215 00       		.byte	0
 2431 0216 2A       		.uleb128 0x2a
 2432 0217 2E       		.uleb128 0x2e
 2433 0218 01       		.byte	0x1
 2434 0219 03       		.uleb128 0x3
 2435 021a 0E       		.uleb128 0xe
 2436 021b 3A       		.uleb128 0x3a
 2437 021c 0B       		.uleb128 0xb
 2438 021d 3B       		.uleb128 0x3b
 2439 021e 05       		.uleb128 0x5
 2440 021f 27       		.uleb128 0x27
 2441 0220 19       		.uleb128 0x19
 2442 0221 20       		.uleb128 0x20
 2443 0222 0B       		.uleb128 0xb
 2444 0223 01       		.uleb128 0x1
 2445 0224 13       		.uleb128 0x13
 2446 0225 00       		.byte	0
 2447 0226 00       		.byte	0
 2448 0227 2B       		.uleb128 0x2b
 2449 0228 05       		.uleb128 0x5
 2450 0229 00       		.byte	0
 2451 022a 03       		.uleb128 0x3
ARM GAS  /tmp/cc3lmtRN.s 			page 44


 2452 022b 0E       		.uleb128 0xe
 2453 022c 3A       		.uleb128 0x3a
 2454 022d 0B       		.uleb128 0xb
 2455 022e 3B       		.uleb128 0x3b
 2456 022f 05       		.uleb128 0x5
 2457 0230 49       		.uleb128 0x49
 2458 0231 13       		.uleb128 0x13
 2459 0232 00       		.byte	0
 2460 0233 00       		.byte	0
 2461 0234 2C       		.uleb128 0x2c
 2462 0235 2E       		.uleb128 0x2e
 2463 0236 00       		.byte	0
 2464 0237 3F       		.uleb128 0x3f
 2465 0238 19       		.uleb128 0x19
 2466 0239 3C       		.uleb128 0x3c
 2467 023a 19       		.uleb128 0x19
 2468 023b 6E       		.uleb128 0x6e
 2469 023c 0E       		.uleb128 0xe
 2470 023d 03       		.uleb128 0x3
 2471 023e 0E       		.uleb128 0xe
 2472 023f 3A       		.uleb128 0x3a
 2473 0240 0B       		.uleb128 0xb
 2474 0241 3B       		.uleb128 0x3b
 2475 0242 05       		.uleb128 0x5
 2476 0243 00       		.byte	0
 2477 0244 00       		.byte	0
 2478 0245 00       		.byte	0
 2479              		.section	.debug_loc,"",%progbits
 2480              	.Ldebug_loc0:
 2481              	.LLST2:
 2482 0000 1A000000 		.4byte	.LVL4
 2483 0004 2E000000 		.4byte	.LVL6
 2484 0008 0400     		.2byte	0x4
 2485 000a 74       		.byte	0x74
 2486 000b 987F     		.sleb128 -104
 2487 000d 9F       		.byte	0x9f
 2488 000e 2E000000 		.4byte	.LVL6
 2489 0012 35000000 		.4byte	.LVL8-1
 2490 0016 0100     		.2byte	0x1
 2491 0018 53       		.byte	0x53
 2492 0019 35000000 		.4byte	.LVL8-1
 2493 001d 48000000 		.4byte	.LVL10
 2494 0021 0400     		.2byte	0x4
 2495 0023 74       		.byte	0x74
 2496 0024 987F     		.sleb128 -104
 2497 0026 9F       		.byte	0x9f
 2498 0027 00000000 		.4byte	0
 2499 002b 00000000 		.4byte	0
 2500              	.LLST3:
 2501 002f 26000000 		.4byte	.LVL5
 2502 0033 2E000000 		.4byte	.LVL6
 2503 0037 0400     		.2byte	0x4
 2504 0039 74       		.byte	0x74
 2505 003a 987F     		.sleb128 -104
 2506 003c 9F       		.byte	0x9f
 2507 003d 2E000000 		.4byte	.LVL6
 2508 0041 32000000 		.4byte	.LVL7
ARM GAS  /tmp/cc3lmtRN.s 			page 45


 2509 0045 0100     		.2byte	0x1
 2510 0047 53       		.byte	0x53
 2511 0048 00000000 		.4byte	0
 2512 004c 00000000 		.4byte	0
 2513              	.LLST0:
 2514 0050 12000000 		.4byte	.LVL0
 2515 0054 14000000 		.4byte	.LVL1
 2516 0058 0400     		.2byte	0x4
 2517 005a 73       		.byte	0x73
 2518 005b E800     		.sleb128 104
 2519 005d 9F       		.byte	0x9f
 2520 005e 14000000 		.4byte	.LVL1
 2521 0062 24000000 		.4byte	.LFE219
 2522 0066 0100     		.2byte	0x1
 2523 0068 53       		.byte	0x53
 2524 0069 00000000 		.4byte	0
 2525 006d 00000000 		.4byte	0
 2526              	.LLST1:
 2527 0071 12000000 		.4byte	.LVL0
 2528 0075 14000000 		.4byte	.LVL1
 2529 0079 0400     		.2byte	0x4
 2530 007b 73       		.byte	0x73
 2531 007c E800     		.sleb128 104
 2532 007e 9F       		.byte	0x9f
 2533 007f 14000000 		.4byte	.LVL1
 2534 0083 18000000 		.4byte	.LVL2
 2535 0087 0100     		.2byte	0x1
 2536 0089 53       		.byte	0x53
 2537 008a 00000000 		.4byte	0
 2538 008e 00000000 		.4byte	0
 2539              		.section	.debug_aranges,"",%progbits
 2540 0000 24000000 		.4byte	0x24
 2541 0004 0200     		.2byte	0x2
 2542 0006 00000000 		.4byte	.Ldebug_info0
 2543 000a 04       		.byte	0x4
 2544 000b 00       		.byte	0
 2545 000c 0000     		.2byte	0
 2546 000e 0000     		.2byte	0
 2547 0010 00000000 		.4byte	.LFB219
 2548 0014 24000000 		.4byte	.LFE219-.LFB219
 2549 0018 00000000 		.4byte	.LFB220
 2550 001c 58000000 		.4byte	.LFE220-.LFB220
 2551 0020 00000000 		.4byte	0
 2552 0024 00000000 		.4byte	0
 2553              		.section	.debug_ranges,"",%progbits
 2554              	.Ldebug_ranges0:
 2555 0000 12000000 		.4byte	.LBB54
 2556 0004 3E000000 		.4byte	.LBE54
 2557 0008 40000000 		.4byte	.LBB61
 2558 000c 46000000 		.4byte	.LBE61
 2559 0010 00000000 		.4byte	0
 2560 0014 00000000 		.4byte	0
 2561 0018 00000000 		.4byte	.LFB219
 2562 001c 24000000 		.4byte	.LFE219
 2563 0020 00000000 		.4byte	.LFB220
 2564 0024 58000000 		.4byte	.LFE220
 2565 0028 00000000 		.4byte	0
ARM GAS  /tmp/cc3lmtRN.s 			page 46


 2566 002c 00000000 		.4byte	0
 2567              		.section	.debug_line,"",%progbits
 2568              	.Ldebug_line0:
 2569 0000 62020000 		.section	.debug_str,"MS",%progbits,1
 2569      0200DD01 
 2569      00000201 
 2569      FB0E0D00 
 2569      01010101 
 2570              	.LASF55:
 2571 0000 72656164 		.ascii	"ready_list_t\000"
 2571      795F6C69 
 2571      73745F74 
 2571      00
 2572              	.LASF121:
 2573 000d 77747472 		.ascii	"wttrp\000"
 2573      7000
 2574              	.LASF118:
 2575 0013 7264796D 		.ascii	"rdymsg\000"
 2575      736700
 2576              	.LASF101:
 2577 001a 46504453 		.ascii	"FPDSCR\000"
 2577      435200
 2578              	.LASF145:
 2579 0021 63665F6F 		.ascii	"cf_off_stklimit\000"
 2579      66665F73 
 2579      746B6C69 
 2579      6D697400 
 2580              	.LASF18:
 2581 0031 75696E74 		.ascii	"uint64_t\000"
 2581      36345F74 
 2581      00
 2582              	.LASF1:
 2583 003a 7369676E 		.ascii	"signed char\000"
 2583      65642063 
 2583      68617200 
 2584              	.LASF4:
 2585 0046 5F5F7569 		.ascii	"__uint8_t\000"
 2585      6E74385F 
 2585      7400
 2586              	.LASF110:
 2587 0050 706F7274 		.ascii	"port_intctx\000"
 2587      5F696E74 
 2587      63747800 
 2588              	.LASF74:
 2589 005c 73797374 		.ascii	"system_debug_t\000"
 2589      656D5F64 
 2589      65627567 
 2589      5F7400
 2590              	.LASF166:
 2591 006b 474E5520 		.ascii	"GNU C99 7.3.1 20180622 (release) [ARM/embedded-7-br"
 2591      43393920 
 2591      372E332E 
 2591      31203230 
 2591      31383036 
 2592 009e 616E6368 		.ascii	"anch revision 261907] -mcpu=cortex-m4 -mfloat-abi=h"
 2592      20726576 
 2592      6973696F 
ARM GAS  /tmp/cc3lmtRN.s 			page 47


 2592      6E203236 
 2592      31393037 
 2593 00d1 61726420 		.ascii	"ard -mfpu=fpv4-sp-d16 -mno-thumb-interwork -mthumb "
 2593      2D6D6670 
 2593      753D6670 
 2593      76342D73 
 2593      702D6431 
 2594 0104 2D676764 		.ascii	"-ggdb -O2 -std=gnu99 -fomit-frame-pointer -falign-f"
 2594      62202D4F 
 2594      32202D73 
 2594      74643D67 
 2594      6E753939 
 2595 0137 756E6374 		.ascii	"unctions=16 -ffunction-sections -fdata-sections -fn"
 2595      696F6E73 
 2595      3D313620 
 2595      2D666675 
 2595      6E637469 
 2596 016a 6F2D636F 		.ascii	"o-common -fsingle-precision-constant\000"
 2596      6D6D6F6E 
 2596      202D6673 
 2596      696E676C 
 2596      652D7072 
 2597              	.LASF160:
 2598 018f 706F7274 		.ascii	"port_lock\000"
 2598      5F6C6F63 
 2598      6B00
 2599              	.LASF139:
 2600 0199 63685F74 		.ascii	"ch_threadsize\000"
 2600      68726561 
 2600      6473697A 
 2600      6500
 2601              	.LASF119:
 2602 01a7 65786974 		.ascii	"exitcode\000"
 2602      636F6465 
 2602      00
 2603              	.LASF81:
 2604 01b0 6D61696E 		.ascii	"mainthread\000"
 2604      74687265 
 2604      616400
 2605              	.LASF71:
 2606 01bb 76697274 		.ascii	"virtual_timers_list_t\000"
 2606      75616C5F 
 2606      74696D65 
 2606      72735F6C 
 2606      6973745F 
 2607              	.LASF83:
 2608 01d1 43505549 		.ascii	"CPUID\000"
 2608      4400
 2609              	.LASF54:
 2610 01d7 63685F74 		.ascii	"ch_threads_queue\000"
 2610      68726561 
 2610      64735F71 
 2610      75657565 
 2610      00
 2611              	.LASF114:
 2612 01e8 66707363 		.ascii	"fpscr\000"
 2612      7200
ARM GAS  /tmp/cc3lmtRN.s 			page 48


 2613              	.LASF32:
 2614 01ee 705F7072 		.ascii	"p_prio\000"
 2614      696F00
 2615              	.LASF147:
 2616 01f5 63665F6F 		.ascii	"cf_off_flags\000"
 2616      66665F66 
 2616      6C616773 
 2616      00
 2617              	.LASF48:
 2618 0202 705F6D70 		.ascii	"p_mpool\000"
 2618      6F6F6C00 
 2619              	.LASF13:
 2620 020a 6C6F6E67 		.ascii	"long long unsigned int\000"
 2620      206C6F6E 
 2620      6720756E 
 2620      7369676E 
 2620      65642069 
 2621              	.LASF129:
 2622 0221 6D5F7175 		.ascii	"m_queue\000"
 2622      65756500 
 2623              	.LASF95:
 2624 0229 49534152 		.ascii	"ISAR\000"
 2624      00
 2625              	.LASF80:
 2626 022e 76746C69 		.ascii	"vtlist\000"
 2626      737400
 2627              	.LASF159:
 2628 0235 706F7274 		.ascii	"port_unlock\000"
 2628      5F756E6C 
 2628      6F636B00 
 2629              	.LASF23:
 2630 0241 74736C69 		.ascii	"tslices_t\000"
 2630      6365735F 
 2630      7400
 2631              	.LASF78:
 2632 024b 63685F73 		.ascii	"ch_system\000"
 2632      79737465 
 2632      6D00
 2633              	.LASF8:
 2634 0255 6C6F6E67 		.ascii	"long int\000"
 2634      20696E74 
 2634      00
 2635              	.LASF21:
 2636 025e 74737461 		.ascii	"tstate_t\000"
 2636      74655F74 
 2636      00
 2637              	.LASF151:
 2638 0267 63686465 		.ascii	"chdebug_t\000"
 2638      6275675F 
 2638      7400
 2639              	.LASF171:
 2640 0271 63685363 		.ascii	"chSchIsPreemptionRequired\000"
 2640      68497350 
 2640      7265656D 
 2640      7074696F 
 2640      6E526571 
 2641              	.LASF34:
ARM GAS  /tmp/cc3lmtRN.s 			page 49


 2642 028b 705F6E65 		.ascii	"p_newer\000"
 2642      77657200 
 2643              	.LASF126:
 2644 0293 735F7175 		.ascii	"s_queue\000"
 2644      65756500 
 2645              	.LASF92:
 2646 029b 42464152 		.ascii	"BFAR\000"
 2646      00
 2647              	.LASF22:
 2648 02a0 74726566 		.ascii	"trefs_t\000"
 2648      735F7400 
 2649              	.LASF93:
 2650 02a8 41465352 		.ascii	"AFSR\000"
 2650      00
 2651              	.LASF60:
 2652 02ad 725F6E65 		.ascii	"r_newer\000"
 2652      77657200 
 2653              	.LASF107:
 2654 02b5 72656761 		.ascii	"regarm_t\000"
 2654      726D5F74 
 2654      00
 2655              	.LASF67:
 2656 02be 76745F70 		.ascii	"vt_prev\000"
 2656      72657600 
 2657              	.LASF98:
 2658 02c6 5343425F 		.ascii	"SCB_Type\000"
 2658      54797065 
 2658      00
 2659              	.LASF115:
 2660 02cf 72657365 		.ascii	"reserved\000"
 2660      72766564 
 2660      00
 2661              	.LASF11:
 2662 02d8 6C6F6E67 		.ascii	"long long int\000"
 2662      206C6F6E 
 2662      6720696E 
 2662      7400
 2663              	.LASF82:
 2664 02e6 69646C65 		.ascii	"idle_thread_wa\000"
 2664      5F746872 
 2664      6561645F 
 2664      776100
 2665              	.LASF27:
 2666 02f5 636E745F 		.ascii	"cnt_t\000"
 2666      7400
 2667              	.LASF104:
 2668 02fb 4650555F 		.ascii	"FPU_Type\000"
 2668      54797065 
 2668      00
 2669              	.LASF0:
 2670 0304 756E7369 		.ascii	"unsigned int\000"
 2670      676E6564 
 2670      20696E74 
 2670      00
 2671              	.LASF169:
 2672 0311 5F5F7365 		.ascii	"__set_PSP\000"
 2672      745F5053 
ARM GAS  /tmp/cc3lmtRN.s 			page 50


 2672      5000
 2673              	.LASF66:
 2674 031b 76745F6E 		.ascii	"vt_next\000"
 2674      65787400 
 2675              	.LASF15:
 2676 0323 75696E74 		.ascii	"uint16_t\000"
 2676      31365F74 
 2676      00
 2677              	.LASF106:
 2678 032c 53797374 		.ascii	"SystemCoreClock\000"
 2678      656D436F 
 2678      7265436C 
 2678      6F636B00 
 2679              	.LASF41:
 2680 033c 705F7469 		.ascii	"p_time\000"
 2680      6D6500
 2681              	.LASF122:
 2682 0343 77747365 		.ascii	"wtsemp\000"
 2682      6D7000
 2683              	.LASF73:
 2684 034a 76745F73 		.ascii	"vt_systime\000"
 2684      79737469 
 2684      6D6500
 2685              	.LASF143:
 2686 0355 63665F6F 		.ascii	"cf_off_older\000"
 2686      66665F6F 
 2686      6C646572 
 2686      00
 2687              	.LASF68:
 2688 0362 76745F64 		.ascii	"vt_delta\000"
 2688      656C7461 
 2688      00
 2689              	.LASF43:
 2690 036b 705F6D73 		.ascii	"p_msgqueue\000"
 2690      67717565 
 2690      756500
 2691              	.LASF152:
 2692 0376 63685F64 		.ascii	"ch_debug\000"
 2692      65627567 
 2692      00
 2693              	.LASF85:
 2694 037f 56544F52 		.ascii	"VTOR\000"
 2694      00
 2695              	.LASF127:
 2696 0384 735F636E 		.ascii	"s_cnt\000"
 2696      7400
 2697              	.LASF51:
 2698 038a 63685F74 		.ascii	"ch_thread\000"
 2698      68726561 
 2698      6400
 2699              	.LASF84:
 2700 0394 49435352 		.ascii	"ICSR\000"
 2700      00
 2701              	.LASF25:
 2702 0399 6D73675F 		.ascii	"msg_t\000"
 2702      7400
 2703              	.LASF86:
ARM GAS  /tmp/cc3lmtRN.s 			page 51


 2704 039f 41495243 		.ascii	"AIRCR\000"
 2704      5200
 2705              	.LASF90:
 2706 03a5 44465352 		.ascii	"DFSR\000"
 2706      00
 2707              	.LASF91:
 2708 03aa 4D4D4641 		.ascii	"MMFAR\000"
 2708      5200
 2709              	.LASF154:
 2710 03b0 5F706F72 		.ascii	"_port_irq_epilogue\000"
 2710      745F6972 
 2710      715F6570 
 2710      696C6F67 
 2710      756500
 2711              	.LASF150:
 2712 03c3 63665F6F 		.ascii	"cf_off_time\000"
 2712      66665F74 
 2712      696D6500 
 2713              	.LASF56:
 2714 03cf 63685F72 		.ascii	"ch_ready_list\000"
 2714      65616479 
 2714      5F6C6973 
 2714      7400
 2715              	.LASF26:
 2716 03dd 6576656E 		.ascii	"eventmask_t\000"
 2716      746D6173 
 2716      6B5F7400 
 2717              	.LASF170:
 2718 03e9 746F704F 		.ascii	"topOfProcStack\000"
 2718      6650726F 
 2718      63537461 
 2718      636B00
 2719              	.LASF7:
 2720 03f8 5F5F696E 		.ascii	"__int32_t\000"
 2720      7433325F 
 2720      7400
 2721              	.LASF108:
 2722 0402 73746B61 		.ascii	"stkalign_t\000"
 2722      6C69676E 
 2722      5F7400
 2723              	.LASF50:
 2724 040d 74687265 		.ascii	"threads_list_t\000"
 2724      6164735F 
 2724      6C697374 
 2724      5F7400
 2725              	.LASF134:
 2726 041c 63685F7A 		.ascii	"ch_zero\000"
 2726      65726F00 
 2727              	.LASF148:
 2728 0424 63665F6F 		.ascii	"cf_off_refs\000"
 2728      66665F72 
 2728      65667300 
 2729              	.LASF42:
 2730 0430 705F7761 		.ascii	"p_waiting\000"
 2730      6974696E 
 2730      6700
 2731              	.LASF88:
ARM GAS  /tmp/cc3lmtRN.s 			page 52


 2732 043a 43465352 		.ascii	"CFSR\000"
 2732      00
 2733              	.LASF19:
 2734 043f 7274636E 		.ascii	"rtcnt_t\000"
 2734      745F7400 
 2735              	.LASF72:
 2736 0447 63685F76 		.ascii	"ch_virtual_timers_list\000"
 2736      69727475 
 2736      616C5F74 
 2736      696D6572 
 2736      735F6C69 
 2737              	.LASF138:
 2738 045e 63685F74 		.ascii	"ch_timesize\000"
 2738      696D6573 
 2738      697A6500 
 2739              	.LASF117:
 2740 046a 746D5F63 		.ascii	"tm_calibration_t\000"
 2740      616C6962 
 2740      72617469 
 2740      6F6E5F74 
 2740      00
 2741              	.LASF144:
 2742 047b 63665F6F 		.ascii	"cf_off_name\000"
 2742      66665F6E 
 2742      616D6500 
 2743              	.LASF35:
 2744 0487 705F6F6C 		.ascii	"p_older\000"
 2744      64657200 
 2745              	.LASF59:
 2746 048f 725F6374 		.ascii	"r_ctx\000"
 2746      7800
 2747              	.LASF33:
 2748 0495 705F6374 		.ascii	"p_ctx\000"
 2748      7800
 2749              	.LASF111:
 2750 049b 706F7274 		.ascii	"port_extctx\000"
 2750      5F657874 
 2750      63747800 
 2751              	.LASF155:
 2752 04a7 50656E64 		.ascii	"PendSV_Handler\000"
 2752      53565F48 
 2752      616E646C 
 2752      657200
 2753              	.LASF62:
 2754 04b6 725F6375 		.ascii	"r_current\000"
 2754      7272656E 
 2754      7400
 2755              	.LASF61:
 2756 04c0 725F6F6C 		.ascii	"r_older\000"
 2756      64657200 
 2757              	.LASF165:
 2758 04c8 5F5F656E 		.ascii	"__enable_irq\000"
 2758      61626C65 
 2758      5F697271 
 2758      00
 2759              	.LASF12:
 2760 04d5 5F5F7569 		.ascii	"__uint64_t\000"
ARM GAS  /tmp/cc3lmtRN.s 			page 53


 2760      6E743634 
 2760      5F7400
 2761              	.LASF102:
 2762 04e0 4D564652 		.ascii	"MVFR0\000"
 2762      3000
 2763              	.LASF103:
 2764 04e6 4D564652 		.ascii	"MVFR1\000"
 2764      3100
 2765              	.LASF164:
 2766 04ec 5F5F6469 		.ascii	"__disable_irq\000"
 2766      7361626C 
 2766      655F6972 
 2766      7100
 2767              	.LASF96:
 2768 04fa 52455345 		.ascii	"RESERVED0\000"
 2768      52564544 
 2768      3000
 2769              	.LASF137:
 2770 0504 63685F70 		.ascii	"ch_ptrsize\000"
 2770      74727369 
 2770      7A6500
 2771              	.LASF156:
 2772 050f 63747870 		.ascii	"ctxp\000"
 2772      00
 2773              	.LASF64:
 2774 0514 76697274 		.ascii	"virtual_timer_t\000"
 2774      75616C5F 
 2774      74696D65 
 2774      725F7400 
 2775              	.LASF31:
 2776 0524 705F7072 		.ascii	"p_prev\000"
 2776      657600
 2777              	.LASF24:
 2778 052b 74707269 		.ascii	"tprio_t\000"
 2778      6F5F7400 
 2779              	.LASF161:
 2780 0533 5F5F6765 		.ascii	"__get_FPSCR\000"
 2780      745F4650 
 2780      53435200 
 2781              	.LASF75:
 2782 053f 63685F73 		.ascii	"ch_system_debug\000"
 2782      79737465 
 2782      6D5F6465 
 2782      62756700 
 2783              	.LASF16:
 2784 054f 696E7433 		.ascii	"int32_t\000"
 2784      325F7400 
 2785              	.LASF2:
 2786 0557 756E7369 		.ascii	"unsigned char\000"
 2786      676E6564 
 2786      20636861 
 2786      7200
 2787              	.LASF168:
 2788 0565 2F6D6564 		.ascii	"/media/sf_Dropbox/ScuddyE_Tech/Software/Motorcontro"
 2788      69612F73 
 2788      665F4472 
 2788      6F70626F 
ARM GAS  /tmp/cc3lmtRN.s 			page 54


 2788      782F5363 
 2789 0598 6C6C6572 		.ascii	"ller/SPV2/scuddy_spv2 104\000"
 2789      2F535056 
 2789      322F7363 
 2789      75646479 
 2789      5F737076 
 2790              	.LASF87:
 2791 05b2 53484353 		.ascii	"SHCSR\000"
 2791      5200
 2792              	.LASF105:
 2793 05b8 49544D5F 		.ascii	"ITM_RxBuffer\000"
 2793      52784275 
 2793      66666572 
 2793      00
 2794              	.LASF46:
 2795 05c5 705F6D74 		.ascii	"p_mtxlist\000"
 2795      786C6973 
 2795      7400
 2796              	.LASF3:
 2797 05cf 73686F72 		.ascii	"short int\000"
 2797      7420696E 
 2797      7400
 2798              	.LASF37:
 2799 05d9 705F7374 		.ascii	"p_state\000"
 2799      61746500 
 2800              	.LASF40:
 2801 05e1 705F7072 		.ascii	"p_preempt\000"
 2801      65656D70 
 2801      7400
 2802              	.LASF113:
 2803 05eb 78707372 		.ascii	"xpsr\000"
 2803      00
 2804              	.LASF58:
 2805 05f0 725F7072 		.ascii	"r_prio\000"
 2805      696F00
 2806              	.LASF124:
 2807 05f7 65776D61 		.ascii	"ewmask\000"
 2807      736B00
 2808              	.LASF30:
 2809 05fe 705F6E65 		.ascii	"p_next\000"
 2809      787400
 2810              	.LASF20:
 2811 0605 746D6F64 		.ascii	"tmode_t\000"
 2811      655F7400 
 2812              	.LASF149:
 2813 060d 63665F6F 		.ascii	"cf_off_preempt\000"
 2813      66665F70 
 2813      7265656D 
 2813      707400
 2814              	.LASF38:
 2815 061c 705F666C 		.ascii	"p_flags\000"
 2815      61677300 
 2816              	.LASF6:
 2817 0624 73686F72 		.ascii	"short unsigned int\000"
 2817      7420756E 
 2817      7369676E 
 2817      65642069 
ARM GAS  /tmp/cc3lmtRN.s 			page 55


 2817      6E7400
 2818              	.LASF112:
 2819 0637 6C725F74 		.ascii	"lr_thd\000"
 2819      686400
 2820              	.LASF100:
 2821 063e 46504341 		.ascii	"FPCAR\000"
 2821      5200
 2822              	.LASF99:
 2823 0644 46504343 		.ascii	"FPCCR\000"
 2823      5200
 2824              	.LASF53:
 2825 064a 74687265 		.ascii	"threads_queue_t\000"
 2825      6164735F 
 2825      71756575 
 2825      655F7400 
 2826              	.LASF65:
 2827 065a 63685F76 		.ascii	"ch_virtual_timer\000"
 2827      69727475 
 2827      616C5F74 
 2827      696D6572 
 2827      00
 2828              	.LASF142:
 2829 066b 63665F6F 		.ascii	"cf_off_newer\000"
 2829      66665F6E 
 2829      65776572 
 2829      00
 2830              	.LASF125:
 2831 0678 63685F73 		.ascii	"ch_semaphore\000"
 2831      656D6170 
 2831      686F7265 
 2831      00
 2832              	.LASF45:
 2833 0685 705F6570 		.ascii	"p_epending\000"
 2833      656E6469 
 2833      6E6700
 2834              	.LASF17:
 2835 0690 75696E74 		.ascii	"uint32_t\000"
 2835      33325F74 
 2835      00
 2836              	.LASF140:
 2837 0699 63665F6F 		.ascii	"cf_off_prio\000"
 2837      66665F70 
 2837      72696F00 
 2838              	.LASF57:
 2839 06a5 725F7175 		.ascii	"r_queue\000"
 2839      65756500 
 2840              	.LASF52:
 2841 06ad 63685F74 		.ascii	"ch_threads_list\000"
 2841      68726561 
 2841      64735F6C 
 2841      69737400 
 2842              	.LASF135:
 2843 06bd 63685F73 		.ascii	"ch_size\000"
 2843      697A6500 
 2844              	.LASF10:
 2845 06c5 6C6F6E67 		.ascii	"long unsigned int\000"
 2845      20756E73 
ARM GAS  /tmp/cc3lmtRN.s 			page 56


 2845      69676E65 
 2845      6420696E 
 2845      7400
 2846              	.LASF132:
 2847 06d7 63686172 		.ascii	"char\000"
 2847      00
 2848              	.LASF123:
 2849 06dc 77746D74 		.ascii	"wtmtxp\000"
 2849      787000
 2850              	.LASF5:
 2851 06e3 5F5F7569 		.ascii	"__uint16_t\000"
 2851      6E743136 
 2851      5F7400
 2852              	.LASF157:
 2853 06ee 706F7274 		.ascii	"port_unlock_from_isr\000"
 2853      5F756E6C 
 2853      6F636B5F 
 2853      66726F6D 
 2853      5F697372 
 2854              	.LASF29:
 2855 0703 74687265 		.ascii	"thread_t\000"
 2855      61645F74 
 2855      00
 2856              	.LASF131:
 2857 070c 6D5F6E65 		.ascii	"m_next\000"
 2857      787400
 2858              	.LASF28:
 2859 0713 73797374 		.ascii	"systime_t\000"
 2859      696D655F 
 2859      7400
 2860              	.LASF47:
 2861 071d 705F7265 		.ascii	"p_realprio\000"
 2861      616C7072 
 2861      696F00
 2862              	.LASF63:
 2863 0728 76746675 		.ascii	"vtfunc_t\000"
 2863      6E635F74 
 2863      00
 2864              	.LASF9:
 2865 0731 5F5F7569 		.ascii	"__uint32_t\000"
 2865      6E743332 
 2865      5F7400
 2866              	.LASF76:
 2867 073c 70616E69 		.ascii	"panic_msg\000"
 2867      635F6D73 
 2867      6700
 2868              	.LASF116:
 2869 0746 6F666673 		.ascii	"offset\000"
 2869      657400
 2870              	.LASF109:
 2871 074d 636F6E74 		.ascii	"context\000"
 2871      65787400 
 2872              	.LASF146:
 2873 0755 63665F6F 		.ascii	"cf_off_state\000"
 2873      66665F73 
 2873      74617465 
 2873      00
ARM GAS  /tmp/cc3lmtRN.s 			page 57


 2874              	.LASF44:
 2875 0762 705F6D73 		.ascii	"p_msg\000"
 2875      6700
 2876              	.LASF158:
 2877 0768 706F7274 		.ascii	"port_lock_from_isr\000"
 2877      5F6C6F63 
 2877      6B5F6672 
 2877      6F6D5F69 
 2877      737200
 2878              	.LASF162:
 2879 077b 5F5F6765 		.ascii	"__get_PSP\000"
 2879      745F5053 
 2879      5000
 2880              	.LASF70:
 2881 0785 76745F70 		.ascii	"vt_par\000"
 2881      617200
 2882              	.LASF167:
 2883 078c 43686962 		.ascii	"ChibiOS_3.0.2/os/rt/ports/ARMCMx/chcore_v7m.c\000"
 2883      694F535F 
 2883      332E302E 
 2883      322F6F73 
 2883      2F72742F 
 2884              	.LASF141:
 2885 07ba 63665F6F 		.ascii	"cf_off_ctx\000"
 2885      66665F63 
 2885      747800
 2886              	.LASF128:
 2887 07c5 63685F6D 		.ascii	"ch_mutex\000"
 2887      75746578 
 2887      00
 2888              	.LASF39:
 2889 07ce 705F7265 		.ascii	"p_refs\000"
 2889      667300
 2890              	.LASF77:
 2891 07d5 63685F73 		.ascii	"ch_system_t\000"
 2891      79737465 
 2891      6D5F7400 
 2892              	.LASF94:
 2893 07e1 4D4D4652 		.ascii	"MMFR\000"
 2893      00
 2894              	.LASF79:
 2895 07e6 726C6973 		.ascii	"rlist\000"
 2895      7400
 2896              	.LASF14:
 2897 07ec 75696E74 		.ascii	"uint8_t\000"
 2897      385F7400 
 2898              	.LASF49:
 2899 07f4 74687265 		.ascii	"thread_reference_t\000"
 2899      61645F72 
 2899      65666572 
 2899      656E6365 
 2899      5F7400
 2900              	.LASF120:
 2901 0807 77746F62 		.ascii	"wtobjp\000"
 2901      6A7000
 2902              	.LASF36:
 2903 080e 705F6E61 		.ascii	"p_name\000"
ARM GAS  /tmp/cc3lmtRN.s 			page 58


 2903      6D6500
 2904              	.LASF136:
 2905 0815 63685F76 		.ascii	"ch_version\000"
 2905      65727369 
 2905      6F6E00
 2906              	.LASF97:
 2907 0820 43504143 		.ascii	"CPACR\000"
 2907      5200
 2908              	.LASF89:
 2909 0826 48465352 		.ascii	"HFSR\000"
 2909      00
 2910              	.LASF153:
 2911 082b 6D757465 		.ascii	"mutex_t\000"
 2911      785F7400 
 2912              	.LASF130:
 2913 0833 6D5F6F77 		.ascii	"m_owner\000"
 2913      6E657200 
 2914              	.LASF163:
 2915 083b 72657375 		.ascii	"result\000"
 2915      6C7400
 2916              	.LASF133:
 2917 0842 63685F69 		.ascii	"ch_identifier\000"
 2917      64656E74 
 2917      69666965 
 2917      7200
 2918              	.LASF69:
 2919 0850 76745F66 		.ascii	"vt_func\000"
 2919      756E6300 
 2920              		.ident	"GCC: (GNU Tools for Arm Embedded Processors 7-2018-q3-update) 7.3.1 20180622 (release) [AR
ARM GAS  /tmp/cc3lmtRN.s 			page 59


DEFINED SYMBOLS
                            *ABS*:0000000000000000 chcore_v7m.c
     /tmp/cc3lmtRN.s:18     .text.PendSV_Handler:0000000000000000 $t
     /tmp/cc3lmtRN.s:26     .text.PendSV_Handler:0000000000000000 PendSV_Handler
     /tmp/cc3lmtRN.s:87     .text.PendSV_Handler:0000000000000020 $d
     /tmp/cc3lmtRN.s:92     .text._port_irq_epilogue:0000000000000000 $t
     /tmp/cc3lmtRN.s:100    .text._port_irq_epilogue:0000000000000000 _port_irq_epilogue
     /tmp/cc3lmtRN.s:229    .text._port_irq_epilogue:0000000000000048 $d

UNDEFINED SYMBOLS
chSchIsPreemptionRequired
_port_switch_from_isr
_port_exit_from_isr
