ARM GAS  /tmp/ccrYUAm7.s 			page 1


   1              		.cpu cortex-m4
   2              		.eabi_attribute 27, 1
   3              		.eabi_attribute 28, 1
   4              		.eabi_attribute 20, 1
   5              		.eabi_attribute 21, 1
   6              		.eabi_attribute 23, 3
   7              		.eabi_attribute 24, 1
   8              		.eabi_attribute 25, 1
   9              		.eabi_attribute 26, 1
  10              		.eabi_attribute 30, 2
  11              		.eabi_attribute 34, 1
  12              		.eabi_attribute 18, 4
  13              		.file	"nrf51.c"
  14              		.text
  15              	.Ltext0:
  16              		.cfi_sections	.debug_frame
  17              		.section	.text.nop_function,"ax",%progbits
  18              		.align	1
  19              		.p2align 4,,15
  20              		.syntax unified
  21              		.thumb
  22              		.thumb_func
  23              		.fpu fpv4-sp-d16
  24              		.type	nop_function, %function
  25              	nop_function:
  26              	.LFB274:
  27              		.file 1 "blackmagic/target/nrf51.c"
  28              		.loc 1 356 0
  29              		.cfi_startproc
  30              		@ args = 0, pretend = 0, frame = 0
  31              		@ frame_needed = 0, uses_anonymous_args = 0
  32              		@ link register save eliminated.
  33              		.loc 1 358 0
  34 0000 0120     		movs	r0, #1
  35 0002 7047     		bx	lr
  36              		.cfi_endproc
  37              	.LFE274:
  38              		.size	nop_function, .-nop_function
  39              		.section	.text.nrf51_cmd_read_help,"ax",%progbits
  40              		.align	1
  41              		.p2align 4,,15
  42              		.syntax unified
  43              		.thumb
  44              		.thumb_func
  45              		.fpu fpv4-sp-d16
  46              		.type	nrf51_cmd_read_help, %function
  47              	nrf51_cmd_read_help:
  48              	.LFB272:
  49              		.loc 1 321 0
  50              		.cfi_startproc
  51              		@ args = 0, pretend = 0, frame = 0
  52              		@ frame_needed = 0, uses_anonymous_args = 0
  53              	.LVL0:
  54 0000 70B5     		push	{r4, r5, r6, lr}
  55              		.cfi_def_cfa_offset 16
  56              		.cfi_offset 4, -16
  57              		.cfi_offset 5, -12
ARM GAS  /tmp/ccrYUAm7.s 			page 2


  58              		.cfi_offset 6, -8
  59              		.cfi_offset 14, -4
  60              		.loc 1 324 0
  61 0002 0A49     		ldr	r1, .L8
  62 0004 0A4C     		ldr	r4, .L8+4
  63              		.loc 1 326 0
  64 0006 0B4E     		ldr	r6, .L8+8
  65              		.loc 1 321 0
  66 0008 0546     		mov	r5, r0
  67              		.loc 1 324 0
  68 000a FFF7FEFF 		bl	tc_printf
  69              	.LVL1:
  70 000e 0A4B     		ldr	r3, .L8+12
  71              		.loc 1 325 0
  72 0010 0A4A     		ldr	r2, .L8+16
  73 0012 00E0     		b	.L5
  74              	.LVL2:
  75              	.L7:
  76 0014 A368     		ldr	r3, [r4, #8]
  77              	.LVL3:
  78              	.L5:
  79              		.loc 1 326 0 discriminator 3
  80 0016 3146     		mov	r1, r6
  81 0018 2846     		mov	r0, r5
  82 001a FFF7FEFF 		bl	tc_printf
  83              	.LVL4:
  84              		.loc 1 325 0 discriminator 3
  85 001e 54F80C2F 		ldr	r2, [r4, #12]!
  86              	.LVL5:
  87 0022 002A     		cmp	r2, #0
  88 0024 F6D1     		bne	.L7
  89              		.loc 1 329 0
  90 0026 0120     		movs	r0, #1
  91 0028 70BD     		pop	{r4, r5, r6, pc}
  92              	.LVL6:
  93              	.L9:
  94 002a 00BF     		.align	2
  95              	.L8:
  96 002c 28000000 		.word	.LC2
  97 0030 00000000 		.word	.LANCHOR0
  98 0034 38000000 		.word	.LC3
  99 0038 00000000 		.word	.LC0
 100 003c 20000000 		.word	.LC1
 101              		.cfi_endproc
 102              	.LFE272:
 103              		.size	nrf51_cmd_read_help, .-nrf51_cmd_read_help
 104              		.section	.text.nrf51_cmd_read,"ax",%progbits
 105              		.align	1
 106              		.p2align 4,,15
 107              		.syntax unified
 108              		.thumb
 109              		.thumb_func
 110              		.fpu fpv4-sp-d16
 111              		.type	nrf51_cmd_read, %function
 112              	nrf51_cmd_read:
 113              	.LFB273:
 114              		.loc 1 331 0
ARM GAS  /tmp/ccrYUAm7.s 			page 3


 115              		.cfi_startproc
 116              		@ args = 0, pretend = 0, frame = 0
 117              		@ frame_needed = 0, uses_anonymous_args = 0
 118              	.LVL7:
 119 0000 2DE9F047 		push	{r4, r5, r6, r7, r8, r9, r10, lr}
 120              		.cfi_def_cfa_offset 32
 121              		.cfi_offset 4, -32
 122              		.cfi_offset 5, -28
 123              		.cfi_offset 6, -24
 124              		.cfi_offset 7, -20
 125              		.cfi_offset 8, -16
 126              		.cfi_offset 9, -12
 127              		.cfi_offset 10, -8
 128              		.cfi_offset 14, -4
 129              		.loc 1 338 0
 130 0004 5568     		ldr	r5, [r2, #4]
 131 0006 104C     		ldr	r4, .L16
 132              		.loc 1 331 0
 133 0008 8046     		mov	r8, r0
 134              		.loc 1 338 0
 135 000a 2846     		mov	r0, r5
 136              	.LVL8:
 137              		.loc 1 331 0
 138 000c 8946     		mov	r9, r1
 139 000e 1746     		mov	r7, r2
 140              		.loc 1 338 0
 141 0010 FFF7FEFF 		bl	strlen
 142              	.LVL9:
 143              		.loc 1 334 0
 144 0014 0D49     		ldr	r1, .L16+4
 145              		.loc 1 338 0
 146 0016 0646     		mov	r6, r0
 147 0018 02E0     		b	.L12
 148              	.LVL10:
 149              	.L11:
 150              		.loc 1 334 0 discriminator 2
 151 001a 54F80C1F 		ldr	r1, [r4, #12]!
 152              	.LVL11:
 153 001e 69B1     		cbz	r1, .L15
 154              	.LVL12:
 155              	.L12:
 156              		.loc 1 338 0
 157 0020 3246     		mov	r2, r6
 158 0022 2846     		mov	r0, r5
 159 0024 FFF7FEFF 		bl	strncmp
 160              	.LVL13:
 161 0028 0028     		cmp	r0, #0
 162 002a F6D1     		bne	.L11
 163              		.loc 1 339 0
 164 002c 6368     		ldr	r3, [r4, #4]
 165 002e 3A1D     		adds	r2, r7, #4
 166 0030 09F1FF31 		add	r1, r9, #-1
 167 0034 4046     		mov	r0, r8
 168              		.loc 1 343 0
 169 0036 BDE8F047 		pop	{r4, r5, r6, r7, r8, r9, r10, lr}
 170              		.cfi_remember_state
 171              		.cfi_restore 14
ARM GAS  /tmp/ccrYUAm7.s 			page 4


 172              		.cfi_restore 10
 173              		.cfi_restore 9
 174              		.cfi_restore 8
 175              		.cfi_restore 7
 176              		.cfi_restore 6
 177              		.cfi_restore 5
 178              		.cfi_restore 4
 179              		.cfi_def_cfa_offset 0
 180              	.LVL14:
 181              		.loc 1 339 0
 182 003a 1847     		bx	r3
 183              	.LVL15:
 184              	.L15:
 185              		.cfi_restore_state
 186              		.loc 1 342 0
 187 003c 4046     		mov	r0, r8
 188              		.loc 1 343 0
 189 003e BDE8F047 		pop	{r4, r5, r6, r7, r8, r9, r10, lr}
 190              		.cfi_restore 14
 191              		.cfi_restore 10
 192              		.cfi_restore 9
 193              		.cfi_restore 8
 194              		.cfi_restore 7
 195              		.cfi_restore 6
 196              		.cfi_restore 5
 197              		.cfi_restore 4
 198              		.cfi_def_cfa_offset 0
 199              	.LVL16:
 200              		.loc 1 342 0
 201 0042 FFF7FEBF 		b	nrf51_cmd_read_help
 202              	.LVL17:
 203              	.L17:
 204 0046 00BF     		.align	2
 205              	.L16:
 206 0048 00000000 		.word	.LANCHOR0
 207 004c 20000000 		.word	.LC1
 208              		.cfi_endproc
 209              	.LFE273:
 210              		.size	nrf51_cmd_read, .-nrf51_cmd_read
 211              		.section	.text.nrf51_cmd_read_deviceaddr,"ax",%progbits
 212              		.align	1
 213              		.p2align 4,,15
 214              		.syntax unified
 215              		.thumb
 216              		.thumb_func
 217              		.fpu fpv4-sp-d16
 218              		.type	nrf51_cmd_read_deviceaddr, %function
 219              	nrf51_cmd_read_deviceaddr:
 220              	.LFB271:
 221              		.loc 1 307 0
 222              		.cfi_startproc
 223              		@ args = 0, pretend = 0, frame = 0
 224              		@ frame_needed = 0, uses_anonymous_args = 0
 225              	.LVL18:
 226 0000 70B5     		push	{r4, r5, r6, lr}
 227              		.cfi_def_cfa_offset 16
 228              		.cfi_offset 4, -16
ARM GAS  /tmp/ccrYUAm7.s 			page 5


 229              		.cfi_offset 5, -12
 230              		.cfi_offset 6, -8
 231              		.cfi_offset 14, -4
 232              		.loc 1 308 0
 233 0002 0C49     		ldr	r1, .L22
 234              		.loc 1 307 0
 235 0004 0446     		mov	r4, r0
 236              		.loc 1 308 0
 237 0006 FFF7FEFF 		bl	target_mem_read32
 238              	.LVL19:
 239              		.loc 1 309 0
 240 000a 0B49     		ldr	r1, .L22+4
 241              		.loc 1 308 0
 242 000c 0646     		mov	r6, r0
 243              	.LVL20:
 244              		.loc 1 309 0
 245 000e 2046     		mov	r0, r4
 246              	.LVL21:
 247 0010 FFF7FEFF 		bl	target_mem_read32
 248              	.LVL22:
 249              		.loc 1 310 0
 250 0014 0949     		ldr	r1, .L22+8
 251              		.loc 1 309 0
 252 0016 0546     		mov	r5, r0
 253              	.LVL23:
 254              		.loc 1 310 0
 255 0018 2046     		mov	r0, r4
 256              	.LVL24:
 257 001a FFF7FEFF 		bl	target_mem_read32
 258              	.LVL25:
 259              		.loc 1 312 0
 260 001e F107     		lsls	r1, r6, #31
 261              		.loc 1 310 0
 262 0020 82B2     		uxth	r2, r0
 263              	.LVL26:
 264              		.loc 1 313 0
 265 0022 2B46     		mov	r3, r5
 266 0024 2046     		mov	r0, r4
 267 0026 54BF     		ite	pl
 268 0028 0549     		ldrpl	r1, .L22+12
 269              		.loc 1 315 0
 270 002a 0649     		ldrmi	r1, .L22+16
 271 002c FFF7FEFF 		bl	tc_printf
 272              	.LVL27:
 273              		.loc 1 319 0
 274 0030 0120     		movs	r0, #1
 275 0032 70BD     		pop	{r4, r5, r6, pc}
 276              	.LVL28:
 277              	.L23:
 278              		.align	2
 279              	.L22:
 280 0034 A0000010 		.word	268435616
 281 0038 A4000010 		.word	268435620
 282 003c A8000010 		.word	268435624
 283 0040 00000000 		.word	.LC4
 284 0044 28000000 		.word	.LC5
 285              		.cfi_endproc
ARM GAS  /tmp/ccrYUAm7.s 			page 6


 286              	.LFE271:
 287              		.size	nrf51_cmd_read_deviceaddr, .-nrf51_cmd_read_deviceaddr
 288              		.section	.text.nrf51_cmd_read_deviceid,"ax",%progbits
 289              		.align	1
 290              		.p2align 4,,15
 291              		.syntax unified
 292              		.thumb
 293              		.thumb_func
 294              		.fpu fpv4-sp-d16
 295              		.type	nrf51_cmd_read_deviceid, %function
 296              	nrf51_cmd_read_deviceid:
 297              	.LFB270:
 298              		.loc 1 298 0
 299              		.cfi_startproc
 300              		@ args = 0, pretend = 0, frame = 0
 301              		@ frame_needed = 0, uses_anonymous_args = 0
 302              	.LVL29:
 303 0000 38B5     		push	{r3, r4, r5, lr}
 304              		.cfi_def_cfa_offset 16
 305              		.cfi_offset 3, -16
 306              		.cfi_offset 4, -12
 307              		.cfi_offset 5, -8
 308              		.cfi_offset 14, -4
 309              		.loc 1 299 0
 310 0002 0849     		ldr	r1, .L26
 311              		.loc 1 298 0
 312 0004 0446     		mov	r4, r0
 313              		.loc 1 299 0
 314 0006 FFF7FEFF 		bl	target_mem_read32
 315              	.LVL30:
 316              		.loc 1 300 0
 317 000a 0749     		ldr	r1, .L26+4
 318              		.loc 1 299 0
 319 000c 0546     		mov	r5, r0
 320              	.LVL31:
 321              		.loc 1 300 0
 322 000e 2046     		mov	r0, r4
 323              	.LVL32:
 324 0010 FFF7FEFF 		bl	target_mem_read32
 325              	.LVL33:
 326              		.loc 1 302 0
 327 0014 2B46     		mov	r3, r5
 328 0016 0246     		mov	r2, r0
 329 0018 0449     		ldr	r1, .L26+8
 330 001a 2046     		mov	r0, r4
 331              	.LVL34:
 332 001c FFF7FEFF 		bl	tc_printf
 333              	.LVL35:
 334              		.loc 1 305 0
 335 0020 0120     		movs	r0, #1
 336 0022 38BD     		pop	{r3, r4, r5, pc}
 337              	.LVL36:
 338              	.L27:
 339              		.align	2
 340              	.L26:
 341 0024 60000010 		.word	268435552
 342 0028 64000010 		.word	268435556
ARM GAS  /tmp/ccrYUAm7.s 			page 7


 343 002c 00000000 		.word	.LC6
 344              		.cfi_endproc
 345              	.LFE270:
 346              		.size	nrf51_cmd_read_deviceid, .-nrf51_cmd_read_deviceid
 347              		.section	.text.nrf51_cmd_read_fwid,"ax",%progbits
 348              		.align	1
 349              		.p2align 4,,15
 350              		.syntax unified
 351              		.thumb
 352              		.thumb_func
 353              		.fpu fpv4-sp-d16
 354              		.type	nrf51_cmd_read_fwid, %function
 355              	nrf51_cmd_read_fwid:
 356              	.LFB269:
 357              		.loc 1 291 0
 358              		.cfi_startproc
 359              		@ args = 0, pretend = 0, frame = 0
 360              		@ frame_needed = 0, uses_anonymous_args = 0
 361              	.LVL37:
 362 0000 10B5     		push	{r4, lr}
 363              		.cfi_def_cfa_offset 8
 364              		.cfi_offset 4, -8
 365              		.cfi_offset 14, -4
 366              		.loc 1 292 0
 367 0002 0549     		ldr	r1, .L30
 368              		.loc 1 291 0
 369 0004 0446     		mov	r4, r0
 370              		.loc 1 292 0
 371 0006 FFF7FEFF 		bl	target_mem_read32
 372              	.LVL38:
 373              		.loc 1 293 0
 374 000a 0449     		ldr	r1, .L30+4
 375 000c 020C     		lsrs	r2, r0, #16
 376              	.LVL39:
 377 000e 2046     		mov	r0, r4
 378 0010 FFF7FEFF 		bl	tc_printf
 379              	.LVL40:
 380              		.loc 1 296 0
 381 0014 0120     		movs	r0, #1
 382 0016 10BD     		pop	{r4, pc}
 383              	.LVL41:
 384              	.L31:
 385              		.align	2
 386              	.L30:
 387 0018 5C000010 		.word	268435548
 388 001c 00000000 		.word	.LC7
 389              		.cfi_endproc
 390              	.LFE269:
 391              		.size	nrf51_cmd_read_fwid, .-nrf51_cmd_read_fwid
 392              		.section	.text.nrf51_cmd_read_hwid,"ax",%progbits
 393              		.align	1
 394              		.p2align 4,,15
 395              		.syntax unified
 396              		.thumb
 397              		.thumb_func
 398              		.fpu fpv4-sp-d16
 399              		.type	nrf51_cmd_read_hwid, %function
ARM GAS  /tmp/ccrYUAm7.s 			page 8


 400              	nrf51_cmd_read_hwid:
 401              	.LFB268:
 402              		.loc 1 284 0
 403              		.cfi_startproc
 404              		@ args = 0, pretend = 0, frame = 0
 405              		@ frame_needed = 0, uses_anonymous_args = 0
 406              	.LVL42:
 407 0000 10B5     		push	{r4, lr}
 408              		.cfi_def_cfa_offset 8
 409              		.cfi_offset 4, -8
 410              		.cfi_offset 14, -4
 411              		.loc 1 285 0
 412 0002 0549     		ldr	r1, .L34
 413              		.loc 1 284 0
 414 0004 0446     		mov	r4, r0
 415              		.loc 1 285 0
 416 0006 FFF7FEFF 		bl	target_mem_read32
 417              	.LVL43:
 418              		.loc 1 286 0
 419 000a 0449     		ldr	r1, .L34+4
 420 000c 82B2     		uxth	r2, r0
 421 000e 2046     		mov	r0, r4
 422              	.LVL44:
 423 0010 FFF7FEFF 		bl	tc_printf
 424              	.LVL45:
 425              		.loc 1 289 0
 426 0014 0120     		movs	r0, #1
 427 0016 10BD     		pop	{r4, pc}
 428              	.LVL46:
 429              	.L35:
 430              		.align	2
 431              	.L34:
 432 0018 5C000010 		.word	268435548
 433 001c 00000000 		.word	.LC8
 434              		.cfi_endproc
 435              	.LFE268:
 436              		.size	nrf51_cmd_read_hwid, .-nrf51_cmd_read_hwid
 437              		.section	.text.nrf51_flash_erase,"ax",%progbits
 438              		.align	1
 439              		.p2align 4,,15
 440              		.syntax unified
 441              		.thumb
 442              		.thumb_func
 443              		.fpu fpv4-sp-d16
 444              		.type	nrf51_flash_erase, %function
 445              	nrf51_flash_erase:
 446              	.LFB265:
 447              		.loc 1 195 0
 448              		.cfi_startproc
 449              		@ args = 0, pretend = 0, frame = 0
 450              		@ frame_needed = 0, uses_anonymous_args = 0
 451              	.LVL47:
 452 0000 2DE9F047 		push	{r4, r5, r6, r7, r8, r9, r10, lr}
 453              		.cfi_def_cfa_offset 32
 454              		.cfi_offset 4, -32
 455              		.cfi_offset 5, -28
 456              		.cfi_offset 6, -24
ARM GAS  /tmp/ccrYUAm7.s 			page 9


 457              		.cfi_offset 7, -20
 458              		.cfi_offset 8, -16
 459              		.cfi_offset 9, -12
 460              		.cfi_offset 10, -8
 461              		.cfi_offset 14, -4
 462              		.loc 1 196 0
 463 0004 8469     		ldr	r4, [r0, #24]
 464              	.LVL48:
 465              		.loc 1 201 0
 466 0006 274D     		ldr	r5, .L53
 467              		.loc 1 195 0
 468 0008 0746     		mov	r7, r0
 469 000a 0E46     		mov	r6, r1
 470 000c 9046     		mov	r8, r2
 471              		.loc 1 198 0
 472 000e 2649     		ldr	r1, .L53+4
 473              	.LVL49:
 474 0010 2046     		mov	r0, r4
 475              	.LVL50:
 476 0012 0222     		movs	r2, #2
 477              	.LVL51:
 478 0014 FFF7FEFF 		bl	target_mem_write32
 479              	.LVL52:
 480              		.loc 1 201 0
 481 0018 04E0     		b	.L37
 482              	.L39:
 483              		.loc 1 202 0
 484 001a 2046     		mov	r0, r4
 485 001c FFF7FEFF 		bl	target_check_error
 486              	.LVL53:
 487 0020 0028     		cmp	r0, #0
 488 0022 3BD1     		bne	.L44
 489              	.L37:
 490              		.loc 1 201 0
 491 0024 2946     		mov	r1, r5
 492 0026 2046     		mov	r0, r4
 493 0028 FFF7FEFF 		bl	target_mem_read32
 494              	.LVL54:
 495 002c 0028     		cmp	r0, #0
 496 002e F4D0     		beq	.L39
 497              		.loc 1 205 0
 498 0030 BB68     		ldr	r3, [r7, #8]
 499 0032 9845     		cmp	r8, r3
 500 0034 1FD3     		bcc	.L40
 501              		.loc 1 212 0
 502 0036 DFF87490 		ldr	r9, .L53+8
 503              		.loc 1 208 0
 504 003a DFF874A0 		ldr	r10, .L53+12
 505              		.loc 1 216 0
 506 003e 194D     		ldr	r5, .L53
 507              	.L46:
 508              		.loc 1 206 0
 509 0040 B6F1102F 		cmp	r6, #268439552
 510              		.loc 1 208 0
 511 0044 07BF     		ittee	eq
 512 0046 0122     		moveq	r2, #1
 513 0048 5146     		moveq	r1, r10
ARM GAS  /tmp/ccrYUAm7.s 			page 10


 514              		.loc 1 212 0
 515 004a 3246     		movne	r2, r6
 516 004c 4946     		movne	r1, r9
 517 004e 2046     		mov	r0, r4
 518 0050 FFF7FEFF 		bl	target_mem_write32
 519              	.LVL55:
 520 0054 03E0     		b	.L43
 521              	.L45:
 522              		.loc 1 217 0
 523 0056 2046     		mov	r0, r4
 524 0058 FFF7FEFF 		bl	target_check_error
 525              	.LVL56:
 526 005c F0B9     		cbnz	r0, .L44
 527              	.L43:
 528              		.loc 1 216 0
 529 005e 2946     		mov	r1, r5
 530 0060 2046     		mov	r0, r4
 531 0062 FFF7FEFF 		bl	target_mem_read32
 532              	.LVL57:
 533 0066 0028     		cmp	r0, #0
 534 0068 F5D0     		beq	.L45
 535              		.loc 1 220 0
 536 006a BB68     		ldr	r3, [r7, #8]
 537              		.loc 1 221 0
 538 006c A8EB0308 		sub	r8, r8, r3
 539              	.LVL58:
 540              		.loc 1 205 0
 541 0070 4345     		cmp	r3, r8
 542              		.loc 1 220 0
 543 0072 1E44     		add	r6, r6, r3
 544              	.LVL59:
 545              		.loc 1 205 0
 546 0074 E4D9     		bls	.L46
 547              	.L40:
 548              		.loc 1 225 0
 549 0076 0022     		movs	r2, #0
 550 0078 0B49     		ldr	r1, .L53+4
 551              		.loc 1 228 0
 552 007a 0A4D     		ldr	r5, .L53
 553              		.loc 1 225 0
 554 007c 2046     		mov	r0, r4
 555 007e FFF7FEFF 		bl	target_mem_write32
 556              	.LVL60:
 557              		.loc 1 228 0
 558 0082 03E0     		b	.L47
 559              	.L48:
 560              		.loc 1 229 0
 561 0084 2046     		mov	r0, r4
 562 0086 FFF7FEFF 		bl	target_check_error
 563              	.LVL61:
 564 008a 38B9     		cbnz	r0, .L44
 565              	.L47:
 566              		.loc 1 228 0
 567 008c 2946     		mov	r1, r5
 568 008e 2046     		mov	r0, r4
 569 0090 FFF7FEFF 		bl	target_mem_read32
 570              	.LVL62:
ARM GAS  /tmp/ccrYUAm7.s 			page 11


 571 0094 0028     		cmp	r0, #0
 572 0096 F5D0     		beq	.L48
 573              		.loc 1 232 0
 574 0098 0020     		movs	r0, #0
 575 009a 01E0     		b	.L36
 576              	.L44:
 577              		.loc 1 203 0
 578 009c 4FF0FF30 		mov	r0, #-1
 579              	.L36:
 580              		.loc 1 233 0
 581 00a0 BDE8F087 		pop	{r4, r5, r6, r7, r8, r9, r10, pc}
 582              	.LVL63:
 583              	.L54:
 584              		.align	2
 585              	.L53:
 586 00a4 00E40140 		.word	1073865728
 587 00a8 04E50140 		.word	1073865988
 588 00ac 08E50140 		.word	1073865992
 589 00b0 14E50140 		.word	1073866004
 590              		.cfi_endproc
 591              	.LFE265:
 592              		.size	nrf51_flash_erase, .-nrf51_flash_erase
 593              		.section	.text.nrf51_add_flash,"ax",%progbits
 594              		.align	1
 595              		.p2align 4,,15
 596              		.syntax unified
 597              		.thumb
 598              		.thumb_func
 599              		.fpu fpv4-sp-d16
 600              		.type	nrf51_add_flash, %function
 601              	nrf51_add_flash:
 602              	.LFB263:
 603              		.loc 1 93 0
 604              		.cfi_startproc
 605              		@ args = 0, pretend = 0, frame = 0
 606              		@ frame_needed = 0, uses_anonymous_args = 0
 607              	.LVL64:
 608 0000 2DE9F047 		push	{r4, r5, r6, r7, r8, r9, r10, lr}
 609              		.cfi_def_cfa_offset 32
 610              		.cfi_offset 4, -32
 611              		.cfi_offset 5, -28
 612              		.cfi_offset 6, -24
 613              		.cfi_offset 7, -20
 614              		.cfi_offset 8, -16
 615              		.cfi_offset 9, -12
 616              		.cfi_offset 10, -8
 617              		.cfi_offset 14, -4
 618              		.loc 1 93 0
 619 0004 0546     		mov	r5, r0
 620 0006 8A46     		mov	r10, r1
 621              		.loc 1 94 0
 622 0008 0120     		movs	r0, #1
 623              	.LVL65:
 624 000a 3021     		movs	r1, #48
 625              	.LVL66:
 626              		.loc 1 93 0
 627 000c 9146     		mov	r9, r2
ARM GAS  /tmp/ccrYUAm7.s 			page 12


 628 000e 9846     		mov	r8, r3
 629              		.loc 1 94 0
 630 0010 FFF7FEFF 		bl	calloc
 631              	.LVL67:
 632              		.loc 1 98 0
 633 0014 084F     		ldr	r7, .L57
 634              		.loc 1 95 0
 635 0016 C0F800A0 		str	r10, [r0]
 636              		.loc 1 94 0
 637 001a 0446     		mov	r4, r0
 638              	.LVL68:
 639              		.loc 1 99 0
 640 001c 074E     		ldr	r6, .L57+4
 641              		.loc 1 96 0
 642 001e C4F80490 		str	r9, [r4, #4]
 643              		.loc 1 101 0
 644 0022 2846     		mov	r0, r5
 645              	.LVL69:
 646              		.loc 1 100 0
 647 0024 FF25     		movs	r5, #255
 648              	.LVL70:
 649              		.loc 1 101 0
 650 0026 2146     		mov	r1, r4
 651              		.loc 1 98 0
 652 0028 C4E90287 		strd	r8, r7, [r4, #8]
 653              		.loc 1 99 0
 654 002c 2661     		str	r6, [r4, #16]
 655              		.loc 1 100 0
 656 002e 2577     		strb	r5, [r4, #28]
 657              		.loc 1 102 0
 658 0030 BDE8F047 		pop	{r4, r5, r6, r7, r8, r9, r10, lr}
 659              		.cfi_restore 14
 660              		.cfi_restore 10
 661              		.cfi_restore 9
 662              		.cfi_restore 8
 663              		.cfi_restore 7
 664              		.cfi_restore 6
 665              		.cfi_restore 5
 666              		.cfi_restore 4
 667              		.cfi_def_cfa_offset 0
 668              	.LVL71:
 669              		.loc 1 101 0
 670 0034 FFF7FEBF 		b	target_add_flash
 671              	.LVL72:
 672              	.L58:
 673              		.align	2
 674              	.L57:
 675 0038 00000000 		.word	nrf51_flash_erase
 676 003c 00000000 		.word	nrf51_flash_write
 677              		.cfi_endproc
 678              	.LFE263:
 679              		.size	nrf51_add_flash, .-nrf51_add_flash
 680              		.section	.text.nrf51_flash_write,"ax",%progbits
 681              		.align	1
 682              		.p2align 4,,15
 683              		.syntax unified
 684              		.thumb
ARM GAS  /tmp/ccrYUAm7.s 			page 13


 685              		.thumb_func
 686              		.fpu fpv4-sp-d16
 687              		.type	nrf51_flash_write, %function
 688              	nrf51_flash_write:
 689              	.LFB266:
 690              		.loc 1 237 0
 691              		.cfi_startproc
 692              		@ args = 0, pretend = 0, frame = 0
 693              		@ frame_needed = 0, uses_anonymous_args = 0
 694              	.LVL73:
 695 0000 2DE9F041 		push	{r4, r5, r6, r7, r8, lr}
 696              		.cfi_def_cfa_offset 24
 697              		.cfi_offset 4, -24
 698              		.cfi_offset 5, -20
 699              		.cfi_offset 6, -16
 700              		.cfi_offset 7, -12
 701              		.cfi_offset 8, -8
 702              		.cfi_offset 14, -4
 703              		.loc 1 238 0
 704 0004 8469     		ldr	r4, [r0, #24]
 705              	.LVL74:
 706              		.loc 1 244 0
 707 0006 1E4D     		ldr	r5, .L65
 708              		.loc 1 237 0
 709 0008 8846     		mov	r8, r1
 710 000a 1746     		mov	r7, r2
 711 000c 82B0     		sub	sp, sp, #8
 712              		.cfi_def_cfa_offset 32
 713              		.loc 1 241 0
 714 000e 2046     		mov	r0, r4
 715              	.LVL75:
 716 0010 0122     		movs	r2, #1
 717              	.LVL76:
 718 0012 1C49     		ldr	r1, .L65+4
 719              	.LVL77:
 720              		.loc 1 237 0
 721 0014 1E46     		mov	r6, r3
 722              		.loc 1 241 0
 723 0016 FFF7FEFF 		bl	target_mem_write32
 724              	.LVL78:
 725              		.loc 1 244 0
 726 001a 03E0     		b	.L60
 727              	.L62:
 728              		.loc 1 245 0
 729 001c 2046     		mov	r0, r4
 730 001e FFF7FEFF 		bl	target_check_error
 731              	.LVL79:
 732 0022 30BB     		cbnz	r0, .L63
 733              	.L60:
 734              		.loc 1 244 0
 735 0024 2946     		mov	r1, r5
 736 0026 2046     		mov	r0, r4
 737 0028 FFF7FEFF 		bl	target_mem_read32
 738              	.LVL80:
 739 002c 0028     		cmp	r0, #0
 740 002e F5D0     		beq	.L62
 741              		.loc 1 249 0
ARM GAS  /tmp/ccrYUAm7.s 			page 14


 742 0030 2423     		movs	r3, #36
 743 0032 154A     		ldr	r2, .L65+8
 744 0034 4FF00051 		mov	r1, #536870912
 745 0038 2046     		mov	r0, r4
 746 003a FFF7FEFF 		bl	target_mem_write
 747              	.LVL81:
 748              		.loc 1 251 0
 749 003e 3346     		mov	r3, r6
 750 0040 3A46     		mov	r2, r7
 751 0042 1249     		ldr	r1, .L65+12
 752              		.loc 1 252 0
 753 0044 0027     		movs	r7, #0
 754              	.LVL82:
 755              		.loc 1 251 0
 756 0046 2046     		mov	r0, r4
 757 0048 FFF7FEFF 		bl	target_mem_write
 758              	.LVL83:
 759              		.loc 1 252 0
 760 004c 4246     		mov	r2, r8
 761 004e 0F4B     		ldr	r3, .L65+12
 762 0050 0096     		str	r6, [sp]
 763 0052 0197     		str	r7, [sp, #4]
 764 0054 4FF00051 		mov	r1, #536870912
 765 0058 2046     		mov	r0, r4
 766 005a FFF7FEFF 		bl	cortexm_run_stub
 767              	.LVL84:
 768              		.loc 1 255 0
 769 005e 3A46     		mov	r2, r7
 770              		.loc 1 252 0
 771 0060 0546     		mov	r5, r0
 772              	.LVL85:
 773              		.loc 1 255 0
 774 0062 0849     		ldr	r1, .L65+4
 775 0064 2046     		mov	r0, r4
 776              	.LVL86:
 777 0066 FFF7FEFF 		bl	target_mem_write32
 778              	.LVL87:
 779              		.loc 1 258 0
 780 006a 2846     		mov	r0, r5
 781 006c 02B0     		add	sp, sp, #8
 782              		.cfi_remember_state
 783              		.cfi_def_cfa_offset 24
 784              		@ sp needed
 785 006e BDE8F081 		pop	{r4, r5, r6, r7, r8, pc}
 786              	.LVL88:
 787              	.L63:
 788              		.cfi_restore_state
 789              		.loc 1 246 0
 790 0072 4FF0FF35 		mov	r5, #-1
 791              		.loc 1 258 0
 792 0076 2846     		mov	r0, r5
 793 0078 02B0     		add	sp, sp, #8
 794              		.cfi_def_cfa_offset 24
 795              		@ sp needed
 796 007a BDE8F081 		pop	{r4, r5, r6, r7, r8, pc}
 797              	.LVL89:
 798              	.L66:
ARM GAS  /tmp/ccrYUAm7.s 			page 15


 799 007e 00BF     		.align	2
 800              	.L65:
 801 0080 00E40140 		.word	1073865728
 802 0084 04E50140 		.word	1073865988
 803 0088 00000000 		.word	.LANCHOR1
 804 008c 24000020 		.word	536870948
 805              		.cfi_endproc
 806              	.LFE266:
 807              		.size	nrf51_flash_write, .-nrf51_flash_write
 808              		.section	.text.nrf51_mdm_cmd_erase_mass,"ax",%progbits
 809              		.align	1
 810              		.p2align 4,,15
 811              		.syntax unified
 812              		.thumb
 813              		.thumb_func
 814              		.fpu fpv4-sp-d16
 815              		.type	nrf51_mdm_cmd_erase_mass, %function
 816              	nrf51_mdm_cmd_erase_mass:
 817              	.LFB276:
 818              		.loc 1 399 0
 819              		.cfi_startproc
 820              		@ args = 0, pretend = 0, frame = 0
 821              		@ frame_needed = 0, uses_anonymous_args = 0
 822              	.LVL90:
 823 0000 10B5     		push	{r4, lr}
 824              		.cfi_def_cfa_offset 8
 825              		.cfi_offset 4, -8
 826              		.cfi_offset 14, -4
 827              		.loc 1 400 0
 828 0002 C46E     		ldr	r4, [r0, #108]
 829              	.LVL91:
 830              		.loc 1 402 0
 831 0004 4FF48471 		mov	r1, #264
 832 0008 2046     		mov	r0, r4
 833              	.LVL92:
 834 000a FFF7FEFF 		bl	adiv5_ap_read
 835              	.LVL93:
 836              		.loc 1 404 0
 837 000e 6068     		ldr	r0, [r4, #4]
 838 0010 4FF0A042 		mov	r2, #1342177280
 839 0014 0121     		movs	r1, #1
 840 0016 FFF7FEFF 		bl	adiv5_dp_write
 841              	.LVL94:
 842              		.loc 1 406 0
 843 001a 6068     		ldr	r0, [r4, #4]
 844 001c 4FF08072 		mov	r2, #16777216
 845 0020 0221     		movs	r1, #2
 846 0022 FFF7FEFF 		bl	adiv5_dp_write
 847              	.LVL95:
 848              		.loc 1 408 0
 849 0026 2046     		mov	r0, r4
 850 0028 0122     		movs	r2, #1
 851 002a 4FF48271 		mov	r1, #260
 852 002e FFF7FEFF 		bl	adiv5_ap_write
 853              	.LVL96:
 854              	.L68:
 855              		.loc 1 412 0 discriminator 1
ARM GAS  /tmp/ccrYUAm7.s 			page 16


 856 0032 4FF48471 		mov	r1, #264
 857 0036 2046     		mov	r0, r4
 858 0038 FFF7FEFF 		bl	adiv5_ap_read
 859              	.LVL97:
 860              		.loc 1 413 0 discriminator 1
 861 003c 0028     		cmp	r0, #0
 862 003e F8D1     		bne	.L68
 863              		.loc 1 416 0
 864 0040 4FF48671 		mov	r1, #268
 865 0044 2046     		mov	r0, r4
 866              	.LVL98:
 867 0046 FFF7FEFF 		bl	adiv5_ap_read
 868              	.LVL99:
 869              		.loc 1 417 0
 870 004a 2046     		mov	r0, r4
 871 004c 4FF48671 		mov	r1, #268
 872 0050 FFF7FEFF 		bl	adiv5_ap_read
 873              	.LVL100:
 874              		.loc 1 421 0
 875 0054 0120     		movs	r0, #1
 876 0056 10BD     		pop	{r4, pc}
 877              		.cfi_endproc
 878              	.LFE276:
 879              		.size	nrf51_mdm_cmd_erase_mass, .-nrf51_mdm_cmd_erase_mass
 880              		.section	.text.nrf51_cmd_erase_all,"ax",%progbits
 881              		.align	1
 882              		.p2align 4,,15
 883              		.syntax unified
 884              		.thumb
 885              		.thumb_func
 886              		.fpu fpv4-sp-d16
 887              		.type	nrf51_cmd_erase_all, %function
 888              	nrf51_cmd_erase_all:
 889              	.LFB267:
 890              		.loc 1 261 0
 891              		.cfi_startproc
 892              		@ args = 0, pretend = 0, frame = 0
 893              		@ frame_needed = 0, uses_anonymous_args = 0
 894              	.LVL101:
 895 0000 38B5     		push	{r3, r4, r5, lr}
 896              		.cfi_def_cfa_offset 16
 897              		.cfi_offset 3, -16
 898              		.cfi_offset 4, -12
 899              		.cfi_offset 5, -8
 900              		.cfi_offset 14, -4
 901              		.loc 1 262 0
 902 0002 1549     		ldr	r1, .L81
 903              		.loc 1 268 0
 904 0004 154D     		ldr	r5, .L81+4
 905              		.loc 1 261 0
 906 0006 0446     		mov	r4, r0
 907              		.loc 1 262 0
 908 0008 FFF7FEFF 		bl	tc_printf
 909              	.LVL102:
 910              		.loc 1 265 0
 911 000c 2046     		mov	r0, r4
 912 000e 0222     		movs	r2, #2
ARM GAS  /tmp/ccrYUAm7.s 			page 17


 913 0010 1349     		ldr	r1, .L81+8
 914 0012 FFF7FEFF 		bl	target_mem_write32
 915              	.LVL103:
 916              		.loc 1 268 0
 917 0016 03E0     		b	.L72
 918              	.L74:
 919              		.loc 1 269 0
 920 0018 2046     		mov	r0, r4
 921 001a FFF7FEFF 		bl	target_check_error
 922              	.LVL104:
 923 001e C0B9     		cbnz	r0, .L76
 924              	.L72:
 925              		.loc 1 268 0
 926 0020 2946     		mov	r1, r5
 927 0022 2046     		mov	r0, r4
 928 0024 FFF7FEFF 		bl	target_mem_read32
 929              	.LVL105:
 930 0028 0028     		cmp	r0, #0
 931 002a F5D0     		beq	.L74
 932              	.LVL106:
 933              	.LBB4:
 934              	.LBB5:
 935              		.loc 1 273 0
 936 002c 0122     		movs	r2, #1
 937 002e 0D49     		ldr	r1, .L81+12
 938              		.loc 1 276 0
 939 0030 0A4D     		ldr	r5, .L81+4
 940              		.loc 1 273 0
 941 0032 2046     		mov	r0, r4
 942 0034 FFF7FEFF 		bl	target_mem_write32
 943              	.LVL107:
 944 0038 03E0     		b	.L75
 945              	.L77:
 946              		.loc 1 277 0
 947 003a 2046     		mov	r0, r4
 948 003c FFF7FEFF 		bl	target_check_error
 949              	.LVL108:
 950 0040 38B9     		cbnz	r0, .L76
 951              	.L75:
 952              		.loc 1 276 0
 953 0042 2946     		mov	r1, r5
 954 0044 2046     		mov	r0, r4
 955 0046 FFF7FEFF 		bl	target_mem_read32
 956              	.LVL109:
 957 004a 0028     		cmp	r0, #0
 958 004c F5D0     		beq	.L77
 959              		.loc 1 280 0
 960 004e 0120     		movs	r0, #1
 961              	.LBE5:
 962              	.LBE4:
 963              		.loc 1 281 0
 964 0050 38BD     		pop	{r3, r4, r5, pc}
 965              	.LVL110:
 966              	.L76:
 967              		.loc 1 270 0
 968 0052 0020     		movs	r0, #0
 969              		.loc 1 281 0
ARM GAS  /tmp/ccrYUAm7.s 			page 18


 970 0054 38BD     		pop	{r3, r4, r5, pc}
 971              	.LVL111:
 972              	.L82:
 973 0056 00BF     		.align	2
 974              	.L81:
 975 0058 00000000 		.word	.LC9
 976 005c 00E40140 		.word	1073865728
 977 0060 04E50140 		.word	1073865988
 978 0064 0CE50140 		.word	1073865996
 979              		.cfi_endproc
 980              	.LFE267:
 981              		.size	nrf51_cmd_erase_all, .-nrf51_cmd_erase_all
 982              		.section	.text.nrf51_probe,"ax",%progbits
 983              		.align	1
 984              		.p2align 4,,15
 985              		.global	nrf51_probe
 986              		.syntax unified
 987              		.thumb
 988              		.thumb_func
 989              		.fpu fpv4-sp-d16
 990              		.type	nrf51_probe, %function
 991              	nrf51_probe:
 992              	.LFB264:
 993              		.loc 1 105 0
 994              		.cfi_startproc
 995              		@ args = 0, pretend = 0, frame = 0
 996              		@ frame_needed = 0, uses_anonymous_args = 0
 997              	.LVL112:
 998 0000 10B5     		push	{r4, lr}
 999              		.cfi_def_cfa_offset 8
 1000              		.cfi_offset 4, -8
 1001              		.cfi_offset 14, -4
 1002              		.loc 1 106 0
 1003 0002 0649     		ldr	r1, .L96
 1004              		.loc 1 105 0
 1005 0004 0446     		mov	r4, r0
 1006              		.loc 1 106 0
 1007 0006 FFF7FEFF 		bl	target_mem_read32
 1008              	.LVL113:
 1009 000a 81B2     		uxth	r1, r0
 1010 000c 2165     		str	r1, [r4, #80]
 1011              		.loc 1 108 0
 1012 000e 0448     		ldr	r0, .L96+4
 1013 0010 FFF7FEFF 		bl	commands_printf
 1014              	.LVL114:
 1015              		.loc 1 110 0
 1016 0014 236D     		ldr	r3, [r4, #80]
 1017 0016 1D3B     		subs	r3, r3, #29
 1018 0018 04E0     		b	.L97
 1019              	.L98:
 1020 001a 00BF     		.align	2
 1021              	.L96:
 1022 001c 5C000010 		.word	268435548
 1023 0020 00000000 		.word	.LC10
 1024              	.L97:
 1025 0024 B3F5A67F 		cmp	r3, #332
 1026 0028 00F2B081 		bhi	.L84
ARM GAS  /tmp/ccrYUAm7.s 			page 19


 1027 002c DFE813F0 		tbh	[pc, r3, lsl #1]
 1028              	.L86:
 1029 0030 6D01     		.2byte	(.L85-.L86)/2
 1030 0032 6D01     		.2byte	(.L85-.L86)/2
 1031 0034 AE01     		.2byte	(.L84-.L86)/2
 1032 0036 6D01     		.2byte	(.L85-.L86)/2
 1033 0038 AE01     		.2byte	(.L84-.L86)/2
 1034 003a AE01     		.2byte	(.L84-.L86)/2
 1035 003c AE01     		.2byte	(.L84-.L86)/2
 1036 003e 6D01     		.2byte	(.L85-.L86)/2
 1037 0040 AE01     		.2byte	(.L84-.L86)/2
 1038 0042 8D01     		.2byte	(.L87-.L86)/2
 1039 0044 8D01     		.2byte	(.L87-.L86)/2
 1040 0046 AE01     		.2byte	(.L84-.L86)/2
 1041 0048 AE01     		.2byte	(.L84-.L86)/2
 1042 004a 6D01     		.2byte	(.L85-.L86)/2
 1043 004c AE01     		.2byte	(.L84-.L86)/2
 1044 004e AE01     		.2byte	(.L84-.L86)/2
 1045 0050 6D01     		.2byte	(.L85-.L86)/2
 1046 0052 6D01     		.2byte	(.L85-.L86)/2
 1047 0054 6D01     		.2byte	(.L85-.L86)/2
 1048 0056 AE01     		.2byte	(.L84-.L86)/2
 1049 0058 6D01     		.2byte	(.L85-.L86)/2
 1050 005a AE01     		.2byte	(.L84-.L86)/2
 1051 005c AE01     		.2byte	(.L84-.L86)/2
 1052 005e AE01     		.2byte	(.L84-.L86)/2
 1053 0060 AE01     		.2byte	(.L84-.L86)/2
 1054 0062 AE01     		.2byte	(.L84-.L86)/2
 1055 0064 AE01     		.2byte	(.L84-.L86)/2
 1056 0066 AE01     		.2byte	(.L84-.L86)/2
 1057 0068 AE01     		.2byte	(.L84-.L86)/2
 1058 006a AE01     		.2byte	(.L84-.L86)/2
 1059 006c AE01     		.2byte	(.L84-.L86)/2
 1060 006e 6D01     		.2byte	(.L85-.L86)/2
 1061 0070 AE01     		.2byte	(.L84-.L86)/2
 1062 0072 AE01     		.2byte	(.L84-.L86)/2
 1063 0074 AE01     		.2byte	(.L84-.L86)/2
 1064 0076 6D01     		.2byte	(.L85-.L86)/2
 1065 0078 AE01     		.2byte	(.L84-.L86)/2
 1066 007a AE01     		.2byte	(.L84-.L86)/2
 1067 007c AE01     		.2byte	(.L84-.L86)/2
 1068 007e 6D01     		.2byte	(.L85-.L86)/2
 1069 0080 AE01     		.2byte	(.L84-.L86)/2
 1070 0082 AE01     		.2byte	(.L84-.L86)/2
 1071 0084 6D01     		.2byte	(.L85-.L86)/2
 1072 0086 AE01     		.2byte	(.L84-.L86)/2
 1073 0088 AE01     		.2byte	(.L84-.L86)/2
 1074 008a 6D01     		.2byte	(.L85-.L86)/2
 1075 008c AE01     		.2byte	(.L84-.L86)/2
 1076 008e 8D01     		.2byte	(.L87-.L86)/2
 1077 0090 6D01     		.2byte	(.L85-.L86)/2
 1078 0092 AE01     		.2byte	(.L84-.L86)/2
 1079 0094 AE01     		.2byte	(.L84-.L86)/2
 1080 0096 6D01     		.2byte	(.L85-.L86)/2
 1081 0098 AE01     		.2byte	(.L84-.L86)/2
 1082 009a AE01     		.2byte	(.L84-.L86)/2
 1083 009c AE01     		.2byte	(.L84-.L86)/2
ARM GAS  /tmp/ccrYUAm7.s 			page 20


 1084 009e AE01     		.2byte	(.L84-.L86)/2
 1085 00a0 AE01     		.2byte	(.L84-.L86)/2
 1086 00a2 AE01     		.2byte	(.L84-.L86)/2
 1087 00a4 6D01     		.2byte	(.L85-.L86)/2
 1088 00a6 AE01     		.2byte	(.L84-.L86)/2
 1089 00a8 AE01     		.2byte	(.L84-.L86)/2
 1090 00aa AE01     		.2byte	(.L84-.L86)/2
 1091 00ac AE01     		.2byte	(.L84-.L86)/2
 1092 00ae AE01     		.2byte	(.L84-.L86)/2
 1093 00b0 AE01     		.2byte	(.L84-.L86)/2
 1094 00b2 AE01     		.2byte	(.L84-.L86)/2
 1095 00b4 AE01     		.2byte	(.L84-.L86)/2
 1096 00b6 AE01     		.2byte	(.L84-.L86)/2
 1097 00b8 8D01     		.2byte	(.L87-.L86)/2
 1098 00ba AE01     		.2byte	(.L84-.L86)/2
 1099 00bc AE01     		.2byte	(.L84-.L86)/2
 1100 00be AE01     		.2byte	(.L84-.L86)/2
 1101 00c0 AE01     		.2byte	(.L84-.L86)/2
 1102 00c2 AE01     		.2byte	(.L84-.L86)/2
 1103 00c4 AE01     		.2byte	(.L84-.L86)/2
 1104 00c6 AE01     		.2byte	(.L84-.L86)/2
 1105 00c8 AE01     		.2byte	(.L84-.L86)/2
 1106 00ca AE01     		.2byte	(.L84-.L86)/2
 1107 00cc AE01     		.2byte	(.L84-.L86)/2
 1108 00ce AE01     		.2byte	(.L84-.L86)/2
 1109 00d0 AE01     		.2byte	(.L84-.L86)/2
 1110 00d2 AE01     		.2byte	(.L84-.L86)/2
 1111 00d4 AE01     		.2byte	(.L84-.L86)/2
 1112 00d6 AE01     		.2byte	(.L84-.L86)/2
 1113 00d8 9B01     		.2byte	(.L88-.L86)/2
 1114 00da 6D01     		.2byte	(.L85-.L86)/2
 1115 00dc 6D01     		.2byte	(.L85-.L86)/2
 1116 00de AE01     		.2byte	(.L84-.L86)/2
 1117 00e0 AE01     		.2byte	(.L84-.L86)/2
 1118 00e2 AE01     		.2byte	(.L84-.L86)/2
 1119 00e4 AE01     		.2byte	(.L84-.L86)/2
 1120 00e6 AE01     		.2byte	(.L84-.L86)/2
 1121 00e8 6D01     		.2byte	(.L85-.L86)/2
 1122 00ea 6D01     		.2byte	(.L85-.L86)/2
 1123 00ec 8D01     		.2byte	(.L87-.L86)/2
 1124 00ee 8D01     		.2byte	(.L87-.L86)/2
 1125 00f0 8D01     		.2byte	(.L87-.L86)/2
 1126 00f2 8D01     		.2byte	(.L87-.L86)/2
 1127 00f4 AE01     		.2byte	(.L84-.L86)/2
 1128 00f6 AE01     		.2byte	(.L84-.L86)/2
 1129 00f8 AE01     		.2byte	(.L84-.L86)/2
 1130 00fa AE01     		.2byte	(.L84-.L86)/2
 1131 00fc 9B01     		.2byte	(.L88-.L86)/2
 1132 00fe 9B01     		.2byte	(.L88-.L86)/2
 1133 0100 9B01     		.2byte	(.L88-.L86)/2
 1134 0102 9B01     		.2byte	(.L88-.L86)/2
 1135 0104 9B01     		.2byte	(.L88-.L86)/2
 1136 0106 9B01     		.2byte	(.L88-.L86)/2
 1137 0108 AE01     		.2byte	(.L84-.L86)/2
 1138 010a AE01     		.2byte	(.L84-.L86)/2
 1139 010c AE01     		.2byte	(.L84-.L86)/2
 1140 010e AE01     		.2byte	(.L84-.L86)/2
ARM GAS  /tmp/ccrYUAm7.s 			page 21


 1141 0110 AE01     		.2byte	(.L84-.L86)/2
 1142 0112 AE01     		.2byte	(.L84-.L86)/2
 1143 0114 6D01     		.2byte	(.L85-.L86)/2
 1144 0116 AE01     		.2byte	(.L84-.L86)/2
 1145 0118 AE01     		.2byte	(.L84-.L86)/2
 1146 011a AE01     		.2byte	(.L84-.L86)/2
 1147 011c AE01     		.2byte	(.L84-.L86)/2
 1148 011e AE01     		.2byte	(.L84-.L86)/2
 1149 0120 AE01     		.2byte	(.L84-.L86)/2
 1150 0122 AE01     		.2byte	(.L84-.L86)/2
 1151 0124 AE01     		.2byte	(.L84-.L86)/2
 1152 0126 AE01     		.2byte	(.L84-.L86)/2
 1153 0128 AE01     		.2byte	(.L84-.L86)/2
 1154 012a AE01     		.2byte	(.L84-.L86)/2
 1155 012c AE01     		.2byte	(.L84-.L86)/2
 1156 012e AE01     		.2byte	(.L84-.L86)/2
 1157 0130 AE01     		.2byte	(.L84-.L86)/2
 1158 0132 AE01     		.2byte	(.L84-.L86)/2
 1159 0134 AE01     		.2byte	(.L84-.L86)/2
 1160 0136 AE01     		.2byte	(.L84-.L86)/2
 1161 0138 AE01     		.2byte	(.L84-.L86)/2
 1162 013a AE01     		.2byte	(.L84-.L86)/2
 1163 013c AE01     		.2byte	(.L84-.L86)/2
 1164 013e AE01     		.2byte	(.L84-.L86)/2
 1165 0140 AE01     		.2byte	(.L84-.L86)/2
 1166 0142 AE01     		.2byte	(.L84-.L86)/2
 1167 0144 AE01     		.2byte	(.L84-.L86)/2
 1168 0146 AE01     		.2byte	(.L84-.L86)/2
 1169 0148 AE01     		.2byte	(.L84-.L86)/2
 1170 014a AE01     		.2byte	(.L84-.L86)/2
 1171 014c AE01     		.2byte	(.L84-.L86)/2
 1172 014e A001     		.2byte	(.L89-.L86)/2
 1173 0150 AE01     		.2byte	(.L84-.L86)/2
 1174 0152 AE01     		.2byte	(.L84-.L86)/2
 1175 0154 AE01     		.2byte	(.L84-.L86)/2
 1176 0156 AE01     		.2byte	(.L84-.L86)/2
 1177 0158 AE01     		.2byte	(.L84-.L86)/2
 1178 015a AE01     		.2byte	(.L84-.L86)/2
 1179 015c AE01     		.2byte	(.L84-.L86)/2
 1180 015e AE01     		.2byte	(.L84-.L86)/2
 1181 0160 AE01     		.2byte	(.L84-.L86)/2
 1182 0162 AE01     		.2byte	(.L84-.L86)/2
 1183 0164 AE01     		.2byte	(.L84-.L86)/2
 1184 0166 AE01     		.2byte	(.L84-.L86)/2
 1185 0168 AE01     		.2byte	(.L84-.L86)/2
 1186 016a AE01     		.2byte	(.L84-.L86)/2
 1187 016c AE01     		.2byte	(.L84-.L86)/2
 1188 016e AE01     		.2byte	(.L84-.L86)/2
 1189 0170 AE01     		.2byte	(.L84-.L86)/2
 1190 0172 AE01     		.2byte	(.L84-.L86)/2
 1191 0174 AE01     		.2byte	(.L84-.L86)/2
 1192 0176 AE01     		.2byte	(.L84-.L86)/2
 1193 0178 AE01     		.2byte	(.L84-.L86)/2
 1194 017a AE01     		.2byte	(.L84-.L86)/2
 1195 017c AE01     		.2byte	(.L84-.L86)/2
 1196 017e AE01     		.2byte	(.L84-.L86)/2
 1197 0180 AE01     		.2byte	(.L84-.L86)/2
ARM GAS  /tmp/ccrYUAm7.s 			page 22


 1198 0182 AE01     		.2byte	(.L84-.L86)/2
 1199 0184 A001     		.2byte	(.L89-.L86)/2
 1200 0186 AE01     		.2byte	(.L84-.L86)/2
 1201 0188 AE01     		.2byte	(.L84-.L86)/2
 1202 018a AE01     		.2byte	(.L84-.L86)/2
 1203 018c AE01     		.2byte	(.L84-.L86)/2
 1204 018e AE01     		.2byte	(.L84-.L86)/2
 1205 0190 AE01     		.2byte	(.L84-.L86)/2
 1206 0192 AE01     		.2byte	(.L84-.L86)/2
 1207 0194 AE01     		.2byte	(.L84-.L86)/2
 1208 0196 AE01     		.2byte	(.L84-.L86)/2
 1209 0198 6D01     		.2byte	(.L85-.L86)/2
 1210 019a AE01     		.2byte	(.L84-.L86)/2
 1211 019c AE01     		.2byte	(.L84-.L86)/2
 1212 019e AE01     		.2byte	(.L84-.L86)/2
 1213 01a0 AE01     		.2byte	(.L84-.L86)/2
 1214 01a2 AE01     		.2byte	(.L84-.L86)/2
 1215 01a4 AE01     		.2byte	(.L84-.L86)/2
 1216 01a6 AE01     		.2byte	(.L84-.L86)/2
 1217 01a8 AE01     		.2byte	(.L84-.L86)/2
 1218 01aa AE01     		.2byte	(.L84-.L86)/2
 1219 01ac AE01     		.2byte	(.L84-.L86)/2
 1220 01ae AE01     		.2byte	(.L84-.L86)/2
 1221 01b0 AE01     		.2byte	(.L84-.L86)/2
 1222 01b2 AE01     		.2byte	(.L84-.L86)/2
 1223 01b4 AE01     		.2byte	(.L84-.L86)/2
 1224 01b6 AE01     		.2byte	(.L84-.L86)/2
 1225 01b8 AE01     		.2byte	(.L84-.L86)/2
 1226 01ba AE01     		.2byte	(.L84-.L86)/2
 1227 01bc A001     		.2byte	(.L89-.L86)/2
 1228 01be AE01     		.2byte	(.L84-.L86)/2
 1229 01c0 AE01     		.2byte	(.L84-.L86)/2
 1230 01c2 AE01     		.2byte	(.L84-.L86)/2
 1231 01c4 AE01     		.2byte	(.L84-.L86)/2
 1232 01c6 AE01     		.2byte	(.L84-.L86)/2
 1233 01c8 AE01     		.2byte	(.L84-.L86)/2
 1234 01ca AE01     		.2byte	(.L84-.L86)/2
 1235 01cc 4D01     		.2byte	(.L90-.L86)/2
 1236 01ce AE01     		.2byte	(.L84-.L86)/2
 1237 01d0 AE01     		.2byte	(.L84-.L86)/2
 1238 01d2 AE01     		.2byte	(.L84-.L86)/2
 1239 01d4 AE01     		.2byte	(.L84-.L86)/2
 1240 01d6 AE01     		.2byte	(.L84-.L86)/2
 1241 01d8 AE01     		.2byte	(.L84-.L86)/2
 1242 01da AE01     		.2byte	(.L84-.L86)/2
 1243 01dc AE01     		.2byte	(.L84-.L86)/2
 1244 01de AE01     		.2byte	(.L84-.L86)/2
 1245 01e0 AE01     		.2byte	(.L84-.L86)/2
 1246 01e2 AE01     		.2byte	(.L84-.L86)/2
 1247 01e4 AE01     		.2byte	(.L84-.L86)/2
 1248 01e6 AE01     		.2byte	(.L84-.L86)/2
 1249 01e8 AE01     		.2byte	(.L84-.L86)/2
 1250 01ea AE01     		.2byte	(.L84-.L86)/2
 1251 01ec AE01     		.2byte	(.L84-.L86)/2
 1252 01ee AE01     		.2byte	(.L84-.L86)/2
 1253 01f0 AE01     		.2byte	(.L84-.L86)/2
 1254 01f2 AE01     		.2byte	(.L84-.L86)/2
ARM GAS  /tmp/ccrYUAm7.s 			page 23


 1255 01f4 AE01     		.2byte	(.L84-.L86)/2
 1256 01f6 AE01     		.2byte	(.L84-.L86)/2
 1257 01f8 AE01     		.2byte	(.L84-.L86)/2
 1258 01fa AE01     		.2byte	(.L84-.L86)/2
 1259 01fc AE01     		.2byte	(.L84-.L86)/2
 1260 01fe AE01     		.2byte	(.L84-.L86)/2
 1261 0200 AE01     		.2byte	(.L84-.L86)/2
 1262 0202 AE01     		.2byte	(.L84-.L86)/2
 1263 0204 AE01     		.2byte	(.L84-.L86)/2
 1264 0206 AE01     		.2byte	(.L84-.L86)/2
 1265 0208 AE01     		.2byte	(.L84-.L86)/2
 1266 020a AE01     		.2byte	(.L84-.L86)/2
 1267 020c AE01     		.2byte	(.L84-.L86)/2
 1268 020e AE01     		.2byte	(.L84-.L86)/2
 1269 0210 AE01     		.2byte	(.L84-.L86)/2
 1270 0212 AE01     		.2byte	(.L84-.L86)/2
 1271 0214 AE01     		.2byte	(.L84-.L86)/2
 1272 0216 AE01     		.2byte	(.L84-.L86)/2
 1273 0218 AE01     		.2byte	(.L84-.L86)/2
 1274 021a AE01     		.2byte	(.L84-.L86)/2
 1275 021c AE01     		.2byte	(.L84-.L86)/2
 1276 021e 6D01     		.2byte	(.L85-.L86)/2
 1277 0220 AE01     		.2byte	(.L84-.L86)/2
 1278 0222 AE01     		.2byte	(.L84-.L86)/2
 1279 0224 AE01     		.2byte	(.L84-.L86)/2
 1280 0226 AE01     		.2byte	(.L84-.L86)/2
 1281 0228 AE01     		.2byte	(.L84-.L86)/2
 1282 022a AE01     		.2byte	(.L84-.L86)/2
 1283 022c AE01     		.2byte	(.L84-.L86)/2
 1284 022e AE01     		.2byte	(.L84-.L86)/2
 1285 0230 AE01     		.2byte	(.L84-.L86)/2
 1286 0232 AE01     		.2byte	(.L84-.L86)/2
 1287 0234 AE01     		.2byte	(.L84-.L86)/2
 1288 0236 AE01     		.2byte	(.L84-.L86)/2
 1289 0238 AE01     		.2byte	(.L84-.L86)/2
 1290 023a AE01     		.2byte	(.L84-.L86)/2
 1291 023c AE01     		.2byte	(.L84-.L86)/2
 1292 023e AE01     		.2byte	(.L84-.L86)/2
 1293 0240 AE01     		.2byte	(.L84-.L86)/2
 1294 0242 AE01     		.2byte	(.L84-.L86)/2
 1295 0244 AE01     		.2byte	(.L84-.L86)/2
 1296 0246 AE01     		.2byte	(.L84-.L86)/2
 1297 0248 AE01     		.2byte	(.L84-.L86)/2
 1298 024a AE01     		.2byte	(.L84-.L86)/2
 1299 024c AE01     		.2byte	(.L84-.L86)/2
 1300 024e AE01     		.2byte	(.L84-.L86)/2
 1301 0250 AE01     		.2byte	(.L84-.L86)/2
 1302 0252 AE01     		.2byte	(.L84-.L86)/2
 1303 0254 AE01     		.2byte	(.L84-.L86)/2
 1304 0256 AE01     		.2byte	(.L84-.L86)/2
 1305 0258 AE01     		.2byte	(.L84-.L86)/2
 1306 025a AE01     		.2byte	(.L84-.L86)/2
 1307 025c AE01     		.2byte	(.L84-.L86)/2
 1308 025e AE01     		.2byte	(.L84-.L86)/2
 1309 0260 AE01     		.2byte	(.L84-.L86)/2
 1310 0262 AE01     		.2byte	(.L84-.L86)/2
 1311 0264 AE01     		.2byte	(.L84-.L86)/2
ARM GAS  /tmp/ccrYUAm7.s 			page 24


 1312 0266 AE01     		.2byte	(.L84-.L86)/2
 1313 0268 A001     		.2byte	(.L89-.L86)/2
 1314 026a AE01     		.2byte	(.L84-.L86)/2
 1315 026c AE01     		.2byte	(.L84-.L86)/2
 1316 026e AE01     		.2byte	(.L84-.L86)/2
 1317 0270 AE01     		.2byte	(.L84-.L86)/2
 1318 0272 AE01     		.2byte	(.L84-.L86)/2
 1319 0274 AE01     		.2byte	(.L84-.L86)/2
 1320 0276 AE01     		.2byte	(.L84-.L86)/2
 1321 0278 AE01     		.2byte	(.L84-.L86)/2
 1322 027a AE01     		.2byte	(.L84-.L86)/2
 1323 027c AE01     		.2byte	(.L84-.L86)/2
 1324 027e AE01     		.2byte	(.L84-.L86)/2
 1325 0280 AE01     		.2byte	(.L84-.L86)/2
 1326 0282 AE01     		.2byte	(.L84-.L86)/2
 1327 0284 AE01     		.2byte	(.L84-.L86)/2
 1328 0286 AE01     		.2byte	(.L84-.L86)/2
 1329 0288 AE01     		.2byte	(.L84-.L86)/2
 1330 028a AE01     		.2byte	(.L84-.L86)/2
 1331 028c AE01     		.2byte	(.L84-.L86)/2
 1332 028e AE01     		.2byte	(.L84-.L86)/2
 1333 0290 AE01     		.2byte	(.L84-.L86)/2
 1334 0292 AE01     		.2byte	(.L84-.L86)/2
 1335 0294 A001     		.2byte	(.L89-.L86)/2
 1336 0296 4D01     		.2byte	(.L90-.L86)/2
 1337 0298 AE01     		.2byte	(.L84-.L86)/2
 1338 029a AE01     		.2byte	(.L84-.L86)/2
 1339 029c AE01     		.2byte	(.L84-.L86)/2
 1340 029e AE01     		.2byte	(.L84-.L86)/2
 1341 02a0 AE01     		.2byte	(.L84-.L86)/2
 1342 02a2 AE01     		.2byte	(.L84-.L86)/2
 1343 02a4 AE01     		.2byte	(.L84-.L86)/2
 1344 02a6 AE01     		.2byte	(.L84-.L86)/2
 1345 02a8 AE01     		.2byte	(.L84-.L86)/2
 1346 02aa AE01     		.2byte	(.L84-.L86)/2
 1347 02ac AE01     		.2byte	(.L84-.L86)/2
 1348 02ae AE01     		.2byte	(.L84-.L86)/2
 1349 02b0 AE01     		.2byte	(.L84-.L86)/2
 1350 02b2 AE01     		.2byte	(.L84-.L86)/2
 1351 02b4 AE01     		.2byte	(.L84-.L86)/2
 1352 02b6 AE01     		.2byte	(.L84-.L86)/2
 1353 02b8 AE01     		.2byte	(.L84-.L86)/2
 1354 02ba AE01     		.2byte	(.L84-.L86)/2
 1355 02bc AE01     		.2byte	(.L84-.L86)/2
 1356 02be AE01     		.2byte	(.L84-.L86)/2
 1357 02c0 AE01     		.2byte	(.L84-.L86)/2
 1358 02c2 AE01     		.2byte	(.L84-.L86)/2
 1359 02c4 AE01     		.2byte	(.L84-.L86)/2
 1360 02c6 AE01     		.2byte	(.L84-.L86)/2
 1361 02c8 9B01     		.2byte	(.L88-.L86)/2
 1362              		.p2align 1
 1363              	.L90:
 1364              		.loc 1 182 0
 1365 02ca 334B     		ldr	r3, .L99
 1366 02cc 2366     		str	r3, [r4, #96]
 1367              		.loc 1 183 0
 1368 02ce 4FF48022 		mov	r2, #262144
ARM GAS  /tmp/ccrYUAm7.s 			page 25


 1369 02d2 4FF00051 		mov	r1, #536870912
 1370 02d6 2046     		mov	r0, r4
 1371 02d8 FFF7FEFF 		bl	target_add_ram
 1372              	.LVL115:
 1373              		.loc 1 184 0
 1374 02dc 4FF48053 		mov	r3, #4096
 1375 02e0 4FF48012 		mov	r2, #1048576
 1376              	.L94:
 1377 02e4 2046     		mov	r0, r4
 1378 02e6 0021     		movs	r1, #0
 1379 02e8 FFF7FEFF 		bl	nrf51_add_flash
 1380              	.LVL116:
 1381              		.loc 1 185 0
 1382 02ec 4FF48073 		mov	r3, #256
 1383 02f0 1A46     		mov	r2, r3
 1384 02f2 2046     		mov	r0, r4
 1385 02f4 4FF01021 		mov	r1, #268439552
 1386 02f8 FFF7FEFF 		bl	nrf51_add_flash
 1387              	.LVL117:
 1388              		.loc 1 186 0
 1389 02fc 2046     		mov	r0, r4
 1390 02fe 274A     		ldr	r2, .L99+4
 1391 0300 2749     		ldr	r1, .L99+8
 1392 0302 FFF7FEFF 		bl	target_add_commands
 1393              	.LVL118:
 1394              		.loc 1 187 0
 1395 0306 0120     		movs	r0, #1
 1396              		.loc 1 192 0
 1397 0308 10BD     		pop	{r4, pc}
 1398              	.LVL119:
 1399              	.L85:
 1400              		.loc 1 135 0
 1401 030a 264B     		ldr	r3, .L99+12
 1402 030c 2366     		str	r3, [r4, #96]
 1403              		.loc 1 136 0
 1404 030e 4FF48042 		mov	r2, #16384
 1405              	.L95:
 1406              		.loc 1 164 0
 1407 0312 4FF00051 		mov	r1, #536870912
 1408 0316 2046     		mov	r0, r4
 1409 0318 FFF7FEFF 		bl	target_add_ram
 1410              	.LVL120:
 1411              		.loc 1 165 0
 1412 031c 4FF48063 		mov	r3, #1024
 1413 0320 4FF48022 		mov	r2, #262144
 1414              	.L93:
 1415              		.loc 1 151 0
 1416 0324 2046     		mov	r0, r4
 1417 0326 0021     		movs	r1, #0
 1418 0328 FFF7FEFF 		bl	nrf51_add_flash
 1419              	.LVL121:
 1420              		.loc 1 152 0
 1421 032c 4FF48073 		mov	r3, #256
 1422 0330 1A46     		mov	r2, r3
 1423 0332 2046     		mov	r0, r4
 1424 0334 4FF01021 		mov	r1, #268439552
 1425 0338 FFF7FEFF 		bl	nrf51_add_flash
ARM GAS  /tmp/ccrYUAm7.s 			page 26


 1426              	.LVL122:
 1427              		.loc 1 153 0
 1428 033c 2046     		mov	r0, r4
 1429 033e 1A4A     		ldr	r2, .L99+16
 1430 0340 1749     		ldr	r1, .L99+8
 1431 0342 FFF7FEFF 		bl	target_add_commands
 1432              	.LVL123:
 1433              		.loc 1 154 0
 1434 0346 0120     		movs	r0, #1
 1435              		.loc 1 192 0
 1436 0348 10BD     		pop	{r4, pc}
 1437              	.LVL124:
 1438              	.L87:
 1439              		.loc 1 149 0
 1440 034a 164B     		ldr	r3, .L99+12
 1441 034c 2366     		str	r3, [r4, #96]
 1442              		.loc 1 150 0
 1443 034e 4FF48042 		mov	r2, #16384
 1444 0352 4FF00051 		mov	r1, #536870912
 1445 0356 2046     		mov	r0, r4
 1446 0358 FFF7FEFF 		bl	target_add_ram
 1447              	.LVL125:
 1448              		.loc 1 151 0
 1449 035c 4FF48063 		mov	r3, #1024
 1450 0360 4FF40032 		mov	r2, #131072
 1451 0364 DEE7     		b	.L93
 1452              	.L88:
 1453              		.loc 1 163 0
 1454 0366 0F4B     		ldr	r3, .L99+12
 1455 0368 2366     		str	r3, [r4, #96]
 1456              		.loc 1 164 0
 1457 036a 4FF40042 		mov	r2, #32768
 1458 036e D0E7     		b	.L95
 1459              	.L89:
 1460              		.loc 1 174 0
 1461 0370 094B     		ldr	r3, .L99
 1462 0372 2366     		str	r3, [r4, #96]
 1463              		.loc 1 175 0
 1464 0374 4FF48032 		mov	r2, #65536
 1465 0378 4FF00051 		mov	r1, #536870912
 1466 037c 2046     		mov	r0, r4
 1467 037e FFF7FEFF 		bl	target_add_ram
 1468              	.LVL126:
 1469              		.loc 1 176 0
 1470 0382 4FF48053 		mov	r3, #4096
 1471 0386 4FF40022 		mov	r2, #524288
 1472 038a ABE7     		b	.L94
 1473              	.L84:
 1474              		.loc 1 190 0
 1475 038c 0748     		ldr	r0, .L99+20
 1476 038e FFF7FEFF 		bl	commands_printf
 1477              	.LVL127:
 1478              		.loc 1 191 0
 1479 0392 0020     		movs	r0, #0
 1480              		.loc 1 192 0
 1481 0394 10BD     		pop	{r4, pc}
 1482              	.LVL128:
ARM GAS  /tmp/ccrYUAm7.s 			page 27


 1483              	.L100:
 1484 0396 00BF     		.align	2
 1485              	.L99:
 1486 0398 34000000 		.word	.LC13
 1487 039c 44000000 		.word	.LC14
 1488 03a0 00000000 		.word	.LANCHOR2
 1489 03a4 1C000000 		.word	.LC11
 1490 03a8 2C000000 		.word	.LC12
 1491 03ac 4C000000 		.word	.LC15
 1492              		.cfi_endproc
 1493              	.LFE264:
 1494              		.size	nrf51_probe, .-nrf51_probe
 1495              		.section	.text.nrf51_mdm_probe,"ax",%progbits
 1496              		.align	1
 1497              		.p2align 4,,15
 1498              		.global	nrf51_mdm_probe
 1499              		.syntax unified
 1500              		.thumb
 1501              		.thumb_func
 1502              		.fpu fpv4-sp-d16
 1503              		.type	nrf51_mdm_probe, %function
 1504              	nrf51_mdm_probe:
 1505              	.LFB275:
 1506              		.loc 1 361 0
 1507              		.cfi_startproc
 1508              		@ args = 0, pretend = 0, frame = 0
 1509              		@ frame_needed = 0, uses_anonymous_args = 0
 1510              	.LVL129:
 1511 0000 38B5     		push	{r3, r4, r5, lr}
 1512              		.cfi_def_cfa_offset 16
 1513              		.cfi_offset 3, -16
 1514              		.cfi_offset 4, -12
 1515              		.cfi_offset 5, -8
 1516              		.cfi_offset 14, -4
 1517              		.loc 1 362 0
 1518 0002 C368     		ldr	r3, [r0, #12]
 1519 0004 B3F1227F 		cmp	r3, #42467328
 1520 0008 00D0     		beq	.L106
 1521              		.loc 1 389 0
 1522 000a 38BD     		pop	{r3, r4, r5, pc}
 1523              	.L106:
 1524 000c 0546     		mov	r5, r0
 1525              		.loc 1 369 0
 1526 000e FFF7FEFF 		bl	target_new
 1527              	.LVL130:
 1528 0012 0446     		mov	r4, r0
 1529              	.LVL131:
 1530              		.loc 1 370 0
 1531 0014 2846     		mov	r0, r5
 1532              	.LVL132:
 1533 0016 FFF7FEFF 		bl	adiv5_ap_ref
 1534              	.LVL133:
 1535              		.loc 1 375 0
 1536 001a 0C4B     		ldr	r3, .L107
 1537              		.loc 1 372 0
 1538 001c 0C48     		ldr	r0, .L107+4
 1539              		.loc 1 374 0
ARM GAS  /tmp/ccrYUAm7.s 			page 28


 1540 001e 0D4A     		ldr	r2, .L107+8
 1541              		.loc 1 372 0
 1542 0020 2067     		str	r0, [r4, #112]
 1543              		.loc 1 380 0
 1544 0022 0421     		movs	r1, #4
 1545 0024 E161     		str	r1, [r4, #28]
 1546              		.loc 1 371 0
 1547 0026 E566     		str	r5, [r4, #108]
 1548              		.loc 1 374 0
 1549 0028 2266     		str	r2, [r4, #96]
 1550              		.loc 1 376 0
 1551 002a C4E90233 		strd	r3, r3, [r4, #8]
 1552              		.loc 1 378 0
 1553 002e C4E90433 		strd	r3, r3, [r4, #16]
 1554              		.loc 1 379 0
 1555 0032 A361     		str	r3, [r4, #24]
 1556              		.loc 1 382 0
 1557 0034 C4E90933 		strd	r3, r3, [r4, #36]
 1558              		.loc 1 383 0
 1559 0038 E362     		str	r3, [r4, #44]
 1560              		.loc 1 384 0
 1561 003a 6363     		str	r3, [r4, #52]
 1562              		.loc 1 386 0
 1563 003c E363     		str	r3, [r4, #60]
 1564              		.loc 1 388 0
 1565 003e 2046     		mov	r0, r4
 1566 0040 0549     		ldr	r1, .L107+12
 1567              		.loc 1 389 0
 1568 0042 BDE83840 		pop	{r3, r4, r5, lr}
 1569              		.cfi_restore 14
 1570              		.cfi_restore 5
 1571              		.cfi_restore 4
 1572              		.cfi_restore 3
 1573              		.cfi_def_cfa_offset 0
 1574              	.LVL134:
 1575              		.loc 1 388 0
 1576 0046 FFF7FEBF 		b	target_add_commands
 1577              	.LVL135:
 1578              	.L108:
 1579 004a 00BF     		.align	2
 1580              	.L107:
 1581 004c 00000000 		.word	nop_function
 1582 0050 00000000 		.word	adiv5_ap_unref
 1583 0054 00000000 		.word	.LC16
 1584 0058 00000000 		.word	.LANCHOR3
 1585              		.cfi_endproc
 1586              	.LFE275:
 1587              		.size	nrf51_mdm_probe, .-nrf51_mdm_probe
 1588              		.global	nrf51_mdm_cmd_list
 1589              		.global	nrf51_read_cmd_list
 1590              		.global	nrf51_cmd_list
 1591              		.section	.rodata.nrf51_cmd_erase_all.str1.4,"aMS",%progbits,1
 1592              		.align	2
 1593              	.LC9:
 1594 0000 65726173 		.ascii	"erase..\012\000"
 1594      652E2E0A 
 1594      00
ARM GAS  /tmp/ccrYUAm7.s 			page 29


 1595              		.section	.rodata.nrf51_cmd_list,"a",%progbits
 1596              		.align	2
 1597              		.set	.LANCHOR2,. + 0
 1598              		.type	nrf51_cmd_list, %object
 1599              		.size	nrf51_cmd_list, 36
 1600              	nrf51_cmd_list:
 1601 0000 00000000 		.word	.LC17
 1602 0004 00000000 		.word	nrf51_cmd_erase_all
 1603 0008 0C000000 		.word	.LC18
 1604 000c BC000000 		.word	.LC27
 1605 0010 00000000 		.word	nrf51_cmd_read
 1606 0014 C4000000 		.word	.LC28
 1607 0018 00000000 		.word	0
 1608 001c 00000000 		.word	0
 1609 0020 00000000 		.word	0
 1610              		.section	.rodata.nrf51_cmd_read_deviceaddr.str1.4,"aMS",%progbits,1
 1611              		.align	2
 1612              	.LC4:
 1613 0000 5075626C 		.ascii	"Publicly Listed Address: 0x%04X%08X\012\000"
 1613      69636C79 
 1613      204C6973 
 1613      74656420 
 1613      41646472 
 1614 0025 000000   		.space	3
 1615              	.LC5:
 1616 0028 52616E64 		.ascii	"Randomly Assigned Address: 0x%04X%08X\012\000"
 1616      6F6D6C79 
 1616      20417373 
 1616      69676E65 
 1616      64204164 
 1617              		.section	.rodata.nrf51_cmd_read_deviceid.str1.4,"aMS",%progbits,1
 1618              		.align	2
 1619              	.LC6:
 1620 0000 44657669 		.ascii	"Device ID: 0x%08X%08X\012\000"
 1620      63652049 
 1620      443A2030 
 1620      78253038 
 1620      58253038 
 1621              		.section	.rodata.nrf51_cmd_read_fwid.str1.4,"aMS",%progbits,1
 1622              		.align	2
 1623              	.LC7:
 1624 0000 4669726D 		.ascii	"Firmware ID: 0x%04X\012\000"
 1624      77617265 
 1624      2049443A 
 1624      20307825 
 1624      3034580A 
 1625              		.section	.rodata.nrf51_cmd_read_help.str1.4,"aMS",%progbits,1
 1626              		.align	2
 1627              	.LC0:
 1628 0000 44697370 		.ascii	"Display help for read commands\000"
 1628      6C617920 
 1628      68656C70 
 1628      20666F72 
 1628      20726561 
 1629 001f 00       		.space	1
 1630              	.LC1:
 1631 0020 68656C70 		.ascii	"help\000"
ARM GAS  /tmp/ccrYUAm7.s 			page 30


 1631      00
 1632 0025 000000   		.space	3
 1633              	.LC2:
 1634 0028 52656164 		.ascii	"Read commands:\012\000"
 1634      20636F6D 
 1634      6D616E64 
 1634      733A0A00 
 1635              	.LC3:
 1636 0038 09257320 		.ascii	"\011%s -- %s\012\000"
 1636      2D2D2025 
 1636      730A00
 1637              		.section	.rodata.nrf51_cmd_read_hwid.str1.4,"aMS",%progbits,1
 1638              		.align	2
 1639              	.LC8:
 1640 0000 48617264 		.ascii	"Hardware ID: 0x%04X\012\000"
 1640      77617265 
 1640      2049443A 
 1640      20307825 
 1640      3034580A 
 1641              		.section	.rodata.nrf51_flash_write_stub,"a",%progbits
 1642              		.align	2
 1643              		.set	.LANCHOR1,. + 0
 1644              		.type	nrf51_flash_write_stub, %object
 1645              		.size	nrf51_flash_write_stub, 36
 1646              	nrf51_flash_write_stub:
 1647 0000 0023     		.short	8960
 1648 0002 0126     		.short	9729
 1649 0004 064D     		.short	19718
 1650 0006 C91A     		.short	6857
 1651 0008 C418     		.short	6340
 1652 000a 9A42     		.short	17050
 1653 000c 00D8     		.short	-10240
 1654 000e 00BE     		.short	-16896
 1655 0010 CF58     		.short	22735
 1656 0012 2760     		.short	24615
 1657 0014 2C68     		.short	26668
 1658 0016 3442     		.short	16948
 1659 0018 FCD0     		.short	-12036
 1660 001a 0433     		.short	13060
 1661 001c F4E7     		.short	-6156
 1662 001e C046     		.short	18112
 1663 0020 00E4     		.short	-7168
 1664 0022 0140     		.short	16385
 1665              		.section	.rodata.nrf51_mdm_cmd_list,"a",%progbits
 1666              		.align	2
 1667              		.set	.LANCHOR3,. + 0
 1668              		.type	nrf51_mdm_cmd_list, %object
 1669              		.size	nrf51_mdm_cmd_list, 24
 1670              	nrf51_mdm_cmd_list:
 1671 0000 00000000 		.word	.LC17
 1672 0004 00000000 		.word	nrf51_mdm_cmd_erase_mass
 1673 0008 0C000000 		.word	.LC18
 1674 000c 00000000 		.word	0
 1675 0010 00000000 		.word	0
 1676 0014 00000000 		.word	0
 1677              		.section	.rodata.nrf51_mdm_probe.str1.4,"aMS",%progbits,1
 1678              		.align	2
ARM GAS  /tmp/ccrYUAm7.s 			page 31


 1679              	.LC16:
 1680 0000 4E6F7264 		.ascii	"Nordic nRF52 Access Port\000"
 1680      6963206E 
 1680      52463532 
 1680      20416363 
 1680      65737320 
 1681              		.section	.rodata.nrf51_probe.str1.4,"aMS",%progbits,1
 1682              		.align	2
 1683              	.LC10:
 1684 0000 48617264 		.ascii	"Hardware ID_CODE: 0x%04X\012\000"
 1684      77617265 
 1684      2049445F 
 1684      434F4445 
 1684      3A203078 
 1685 001a 0000     		.space	2
 1686              	.LC11:
 1687 001c 4E6F7264 		.ascii	"Nordic nRF51\000"
 1687      6963206E 
 1687      52463531 
 1687      00
 1688 0029 000000   		.space	3
 1689              	.LC12:
 1690 002c 6E524635 		.ascii	"nRF51\000"
 1690      3100
 1691 0032 0000     		.space	2
 1692              	.LC13:
 1693 0034 4E6F7264 		.ascii	"Nordic nRF52\000"
 1693      6963206E 
 1693      52463532 
 1693      00
 1694 0041 000000   		.space	3
 1695              	.LC14:
 1696 0044 6E524635 		.ascii	"nRF52\000"
 1696      3200
 1697 004a 0000     		.space	2
 1698              	.LC15:
 1699 004c 48617264 		.ascii	"Hardware ID_CODE not in Lib\012\000"
 1699      77617265 
 1699      2049445F 
 1699      434F4445 
 1699      206E6F74 
 1700              		.section	.rodata.nrf51_read_cmd_list,"a",%progbits
 1701              		.align	2
 1702              		.set	.LANCHOR0,. + 0
 1703              		.type	nrf51_read_cmd_list, %object
 1704              		.size	nrf51_read_cmd_list, 72
 1705              	nrf51_read_cmd_list:
 1706 0000 20000000 		.word	.LC1
 1707 0004 00000000 		.word	nrf51_cmd_read_help
 1708 0008 00000000 		.word	.LC0
 1709 000c 28000000 		.word	.LC19
 1710 0010 00000000 		.word	nrf51_cmd_read_hwid
 1711 0014 30000000 		.word	.LC20
 1712 0018 54000000 		.word	.LC21
 1713 001c 00000000 		.word	nrf51_cmd_read_fwid
 1714 0020 5C000000 		.word	.LC22
 1715 0024 78000000 		.word	.LC23
ARM GAS  /tmp/ccrYUAm7.s 			page 32


 1716 0028 00000000 		.word	nrf51_cmd_read_deviceid
 1717 002c 84000000 		.word	.LC24
 1718 0030 9C000000 		.word	.LC25
 1719 0034 00000000 		.word	nrf51_cmd_read_deviceaddr
 1720 0038 A8000000 		.word	.LC26
 1721 003c 00000000 		.word	0
 1722 0040 00000000 		.word	0
 1723 0044 00000000 		.word	0
 1724              		.section	.rodata.str1.4,"aMS",%progbits,1
 1725              		.align	2
 1726              	.LC17:
 1727 0000 65726173 		.ascii	"erase_mass\000"
 1727      655F6D61 
 1727      737300
 1728 000b 00       		.space	1
 1729              	.LC18:
 1730 000c 45726173 		.ascii	"Erase entire flash memory\000"
 1730      6520656E 
 1730      74697265 
 1730      20666C61 
 1730      7368206D 
 1731 0026 0000     		.space	2
 1732              	.LC19:
 1733 0028 68776964 		.ascii	"hwid\000"
 1733      00
 1734 002d 000000   		.space	3
 1735              	.LC20:
 1736 0030 52656164 		.ascii	"Read hardware identification number\000"
 1736      20686172 
 1736      64776172 
 1736      65206964 
 1736      656E7469 
 1737              	.LC21:
 1738 0054 66776964 		.ascii	"fwid\000"
 1738      00
 1739 0059 000000   		.space	3
 1740              	.LC22:
 1741 005c 52656164 		.ascii	"Read pre-loaded firmware ID\000"
 1741      20707265 
 1741      2D6C6F61 
 1741      64656420 
 1741      6669726D 
 1742              	.LC23:
 1743 0078 64657669 		.ascii	"deviceid\000"
 1743      63656964 
 1743      00
 1744 0081 000000   		.space	3
 1745              	.LC24:
 1746 0084 52656164 		.ascii	"Read unique device ID\000"
 1746      20756E69 
 1746      71756520 
 1746      64657669 
 1746      63652049 
 1747 009a 0000     		.space	2
 1748              	.LC25:
 1749 009c 64657669 		.ascii	"deviceaddr\000"
 1749      63656164 
ARM GAS  /tmp/ccrYUAm7.s 			page 33


 1749      647200
 1750 00a7 00       		.space	1
 1751              	.LC26:
 1752 00a8 52656164 		.ascii	"Read device address\000"
 1752      20646576 
 1752      69636520 
 1752      61646472 
 1752      65737300 
 1753              	.LC27:
 1754 00bc 72656164 		.ascii	"read\000"
 1754      00
 1755 00c1 000000   		.space	3
 1756              	.LC28:
 1757 00c4 52656164 		.ascii	"Read device parameters\000"
 1757      20646576 
 1757      69636520 
 1757      70617261 
 1757      6D657465 
 1758              		.text
 1759              	.Letext0:
 1760              		.file 2 "/usr/arm-none-eabi/include/machine/_default_types.h"
 1761              		.file 3 "/usr/arm-none-eabi/include/sys/_stdint.h"
 1762              		.file 4 "/usr/lib/gcc/arm-none-eabi/7.3.1/include/stddef.h"
 1763              		.file 5 "/usr/arm-none-eabi/include/sys/lock.h"
 1764              		.file 6 "/usr/arm-none-eabi/include/sys/_types.h"
 1765              		.file 7 "/usr/arm-none-eabi/include/sys/reent.h"
 1766              		.file 8 "/usr/arm-none-eabi/include/stdlib.h"
 1767              		.file 9 "/usr/lib/gcc/arm-none-eabi/7.3.1/include/stdarg.h"
 1768              		.file 10 "<built-in>"
 1769              		.file 11 "/usr/arm-none-eabi/include/stdio.h"
 1770              		.file 12 "/usr/arm-none-eabi/include/sys/types.h"
 1771              		.file 13 "ChibiOS_3.0.2/os/rt/ports/ARMCMx/compilers/GCC/chtypes.h"
 1772              		.file 14 "ChibiOS_3.0.2/os/rt/include/chsystypes.h"
 1773              		.file 15 "ChibiOS_3.0.2/os/rt/include/chschd.h"
 1774              		.file 16 "ChibiOS_3.0.2/os/ext/CMSIS/include/core_cm4.h"
 1775              		.file 17 "ChibiOS_3.0.2/os/ext/CMSIS/ST/system_stm32f4xx.h"
 1776              		.file 18 "ChibiOS_3.0.2/os/ext/CMSIS/ST/stm32f407xx.h"
 1777              		.file 19 "ChibiOS_3.0.2/os/rt/ports/ARMCMx/chcore.h"
 1778              		.file 20 "ChibiOS_3.0.2/os/rt/ports/ARMCMx/chcore_v7m.h"
 1779              		.file 21 "ChibiOS_3.0.2/os/rt/include/chtm.h"
 1780              		.file 22 "ChibiOS_3.0.2/os/rt/include/chsem.h"
 1781              		.file 23 "ChibiOS_3.0.2/os/rt/include/chmtx.h"
 1782              		.file 24 "ChibiOS_3.0.2/os/rt/include/chregistry.h"
 1783              		.file 25 "ChibiOS_3.0.2/os/rt/include/chevents.h"
 1784              		.file 26 "ChibiOS_3.0.2/os/rt/include/chqueues.h"
 1785              		.file 27 "./conf_general.h"
 1786              		.file 28 "ChibiOS_3.0.2/os/hal/ports/STM32/STM32F4xx/stm32_dma.h"
 1787              		.file 29 "ChibiOS_3.0.2/os/hal/ports/STM32/LLD/GPIOv2/pal_lld.h"
 1788              		.file 30 "ChibiOS_3.0.2/os/hal/include/can.h"
 1789              		.file 31 "ChibiOS_3.0.2/os/hal/ports/STM32/LLD/can_lld.h"
 1790              		.file 32 "ChibiOS_3.0.2/os/hal/include/i2c.h"
 1791              		.file 33 "ChibiOS_3.0.2/os/hal/ports/STM32/LLD/I2Cv1/i2c_lld.h"
 1792              		.file 34 "ChibiOS_3.0.2/os/hal/include/icu.h"
 1793              		.file 35 "ChibiOS_3.0.2/os/hal/ports/STM32/LLD/TIMv1/icu_lld.h"
 1794              		.file 36 "ChibiOS_3.0.2/os/hal/ports/STM32/LLD/TIMv1/stm32_tim.h"
 1795              		.file 37 "ChibiOS_3.0.2/os/hal/include/serial.h"
 1796              		.file 38 "ChibiOS_3.0.2/os/hal/ports/STM32/LLD/USARTv1/serial_lld.h"
ARM GAS  /tmp/ccrYUAm7.s 			page 34


 1797              		.file 39 "ChibiOS_3.0.2/os/hal/include/spi.h"
 1798              		.file 40 "ChibiOS_3.0.2/os/hal/ports/STM32/LLD/SPIv1/spi_lld.h"
 1799              		.file 41 "ChibiOS_3.0.2/os/hal/include/usb.h"
 1800              		.file 42 "ChibiOS_3.0.2/os/hal/ports/STM32/LLD/OTGv1/usb_lld.h"
 1801              		.file 43 "ChibiOS_3.0.2/os/hal/ports/STM32/LLD/OTGv1/stm32_otg.h"
 1802              		.file 44 "blackmagic/platform.h"
 1803              		.file 45 "blackmagic/target.h"
 1804              		.file 46 "blackmagic/target/target_internal.h"
 1805              		.file 47 "blackmagic/target/jtag_scan.h"
 1806              		.file 48 "blackmagic/target/adiv5.h"
 1807              		.file 49 "blackmagic/target/cortexm.h"
 1808              		.file 50 "/usr/arm-none-eabi/include/string.h"
 1809              		.file 51 "./commands.h"