ARM GAS  /tmp/ccZsX5sd.s 			page 1


   1              		.cpu cortex-m4
   2              		.eabi_attribute 27, 1
   3              		.eabi_attribute 28, 1
   4              		.eabi_attribute 20, 1
   5              		.eabi_attribute 21, 1
   6              		.eabi_attribute 23, 3
   7              		.eabi_attribute 24, 1
   8              		.eabi_attribute 25, 1
   9              		.eabi_attribute 26, 1
  10              		.eabi_attribute 30, 2
  11              		.eabi_attribute 34, 1
  12              		.eabi_attribute 18, 4
  13              		.file	"servo_dec.c"
  14              		.text
  15              	.Ltext0:
  16              		.cfi_sections	.debug_frame
  17              		.section	.text.icuperiodcb,"ax",%progbits
  18              		.align	1
  19              		.p2align 4,,15
  20              		.syntax unified
  21              		.thumb
  22              		.thumb_func
  23              		.fpu fpv4-sp-d16
  24              		.type	icuperiodcb, %function
  25              	icuperiodcb:
  26              	.LFB257:
  27              		.file 1 "servo_dec.c"
  28              		.loc 1 89 0
  29              		.cfi_startproc
  30              		@ args = 0, pretend = 0, frame = 0
  31              		@ frame_needed = 0, uses_anonymous_args = 0
  32              		@ link register save eliminated.
  33              	.LVL0:
  34              		.loc 1 91 0
  35 0000 7047     		bx	lr
  36              		.cfi_endproc
  37              	.LFE257:
  38              		.size	icuperiodcb, .-icuperiodcb
  39 0002 00BF     		.section	.text.icuwidthcb,"ax",%progbits
  40              		.align	1
  41              		.p2align 4,,15
  42              		.syntax unified
  43              		.thumb
  44              		.thumb_func
  45              		.fpu fpv4-sp-d16
  46              		.type	icuwidthcb, %function
  47              	icuwidthcb:
  48              	.LFB256:
  49              		.loc 1 45 0
  50              		.cfi_startproc
  51              		@ args = 0, pretend = 0, frame = 0
  52              		@ frame_needed = 0, uses_anonymous_args = 0
  53              	.LVL1:
  54              		.loc 1 46 0
  55 0000 0369     		ldr	r3, [r0, #16]
  56 0002 DFED3E6A 		vldr.32	s13, .L28
  57 0006 1B68     		ldr	r3, [r3]
ARM GAS  /tmp/ccZsX5sd.s 			page 2


  58 0008 3D49     		ldr	r1, .L28+4
  59              		.loc 1 47 0
  60 000a 3E4A     		ldr	r2, .L28+8
  61              		.loc 1 48 0
  62 000c 3E48     		ldr	r0, .L28+12
  63              	.LVL2:
  64              		.loc 1 46 0
  65 000e 0133     		adds	r3, r3, #1
  66 0010 07EE903A 		vmov	s15, r3	@ int
  67 0014 F8EE677A 		vcvt.f32.u32	s15, s15
  68 0018 87EEA67A 		vdiv.f32	s14, s15, s13
  69 001c 81ED007A 		vstr.32	s14, [r1]
  70              		.loc 1 47 0
  71 0020 D1ED007A 		vldr.32	s15, [r1]
  72 0024 92ED006A 		vldr.32	s12, [r2]
  73              		.loc 1 48 0
  74 0028 90ED007A 		vldr.32	s14, [r0]
  75 002c D2ED006A 		vldr.32	s13, [r2]
  76              		.loc 1 47 0
  77 0030 77EEC67A 		vsub.f32	s15, s15, s12
  78              	.LVL3:
  79              		.loc 1 48 0
  80 0034 37EE667A 		vsub.f32	s14, s14, s13
  81              	.LVL4:
  82              		.loc 1 50 0
  83 0038 F4EEC77A 		vcmpe.f32	s15, s14
  84 003c F1EE10FA 		vmrs	APSR_nzcv, FPSCR
  85 0040 2CDD     		ble	.L22
  86              		.loc 1 51 0
  87 0042 F7EE086A 		vmov.f32	s13, #1.5e+0
  88 0046 67EE266A 		vmul.f32	s13, s14, s13
  89 004a F4EEE76A 		vcmpe.f32	s13, s15
  90 004e F1EE10FA 		vmrs	APSR_nzcv, FPSCR
  91 0052 38DD     		ble	.L26
  92              		.loc 1 52 0
  93 0054 F0EE477A 		vmov.f32	s15, s14
  94              	.LVL5:
  95              	.L6:
  96              		.loc 1 66 0
  97 0058 F5EEC07A 		vcmpe.f32	s15, #0
  98 005c F1EE10FA 		vmrs	APSR_nzcv, FPSCR
  99 0060 4ADB     		blt	.L24
 100 0062 77EEA77A 		vadd.f32	s15, s15, s15
 101              	.LVL6:
 102              	.L9:
 103              		.loc 1 45 0
 104 0066 70B5     		push	{r4, r5, r6, lr}
 105              		.cfi_def_cfa_offset 16
 106              		.cfi_offset 4, -16
 107              		.cfi_offset 5, -12
 108              		.cfi_offset 6, -8
 109              		.cfi_offset 14, -4
 110              		.loc 1 67 0
 111 0068 284B     		ldr	r3, .L28+16
 112 006a 77EEC77A 		vsub.f32	s15, s15, s14
 113 006e 1B78     		ldrb	r3, [r3]	@ zero_extendqisi2
 114              		.loc 1 45 0
ARM GAS  /tmp/ccZsX5sd.s 			page 3


 115 0070 2DED028B 		vpush.64	{d8}
 116              		.cfi_def_cfa_offset 24
 117              		.cfi_offset 80, -24
 118              		.cfi_offset 81, -20
 119 0074 87EE878A 		vdiv.f32	s16, s15, s14
 120              		.loc 1 67 0
 121 0078 33BB     		cbnz	r3, .L27
 122              		.loc 1 78 0
 123 007a 254B     		ldr	r3, .L28+20
 124 007c 83ED008A 		vstr.32	s16, [r3]
 125              	.LVL7:
 126              	.L13:
 127              	.LBB46:
 128              	.LBB47:
 129              	.LBB48:
 130              	.LBB49:
 131              	.LBB50:
 132              	.LBB51:
 133              		.file 2 "ChibiOS_3.0.2/os/ext/CMSIS/include/core_cmFunc.h"
 134              		.loc 2 342 0
 135              		.syntax unified
 136              	@ 342 "ChibiOS_3.0.2/os/ext/CMSIS/include/core_cmFunc.h" 1
 137 0080 72B6     		cpsid i
 138              	@ 0 "" 2
 139              		.thumb
 140              		.syntax unified
 141              	.LBE51:
 142              	.LBE50:
 143              	.LBE49:
 144              	.LBE48:
 145              	.LBB52:
 146              	.LBB53:
 147              		.file 3 "ChibiOS_3.0.2/os/rt/include/chvt.h"
 148              		.loc 3 231 0
 149 0082 244B     		ldr	r3, .L28+24
 150 0084 996A     		ldr	r1, [r3, #40]
 151              	.LBE53:
 152              	.LBE52:
 153              	.LBB54:
 154              	.LBB55:
 155              	.LBB56:
 156              	.LBB57:
 157              	.LBB58:
 158              		.loc 2 331 0
 159              		.syntax unified
 160              	@ 331 "ChibiOS_3.0.2/os/ext/CMSIS/include/core_cmFunc.h" 1
 161 0086 62B6     		cpsie i
 162              	@ 0 "" 2
 163              		.thumb
 164              		.syntax unified
 165              	.LBE58:
 166              	.LBE57:
 167              	.LBE56:
 168              	.LBE55:
 169              	.LBE54:
 170              	.LBE47:
 171              	.LBE46:
ARM GAS  /tmp/ccZsX5sd.s 			page 4


 172              		.loc 1 83 0
 173 0088 234B     		ldr	r3, .L28+28
 174              		.loc 1 81 0
 175 008a 244A     		ldr	r2, .L28+32
 176              		.loc 1 83 0
 177 008c 1B68     		ldr	r3, [r3]
 178              		.loc 1 81 0
 179 008e 1160     		str	r1, [r2]
 180              		.loc 1 83 0
 181 0090 63B3     		cbz	r3, .L3
 182              		.loc 1 87 0
 183 0092 BDEC028B 		vldm	sp!, {d8}
 184              		.cfi_restore 80
 185              		.cfi_restore 81
 186              		.cfi_def_cfa_offset 16
 187 0096 BDE87040 		pop	{r4, r5, r6, lr}
 188              		.cfi_restore 14
 189              		.cfi_restore 6
 190              		.cfi_restore 5
 191              		.cfi_restore 4
 192              		.cfi_def_cfa_offset 0
 193              		.loc 1 84 0
 194 009a 1847     		bx	r3	@ indirect register sibling call
 195              	.LVL8:
 196              	.L22:
 197              		.loc 1 57 0
 198 009c F5EEC07A 		vcmpe.f32	s15, #0
 199 00a0 F1EE10FA 		vmrs	APSR_nzcv, FPSCR
 200 00a4 D8D5     		bpl	.L6
 201              		.loc 1 58 0
 202 00a6 92ED006A 		vldr.32	s12, [r2]
 203 00aa DFED1D5A 		vldr.32	s11, .L28+36
 204 00ae D2ED006A 		vldr.32	s13, [r2]
 205 00b2 76EE277A 		vadd.f32	s15, s12, s15
 206              	.LVL9:
 207 00b6 66EEA56A 		vmul.f32	s13, s13, s11
 208 00ba F4EEE67A 		vcmpe.f32	s15, s13
 209 00be F1EE10FA 		vmrs	APSR_nzcv, FPSCR
 210 00c2 16DC     		bgt	.L15
 211 00c4 7047     		bx	lr
 212              	.LVL10:
 213              	.L26:
 214 00c6 7047     		bx	lr
 215              	.LVL11:
 216              	.L27:
 217              		.cfi_def_cfa_offset 24
 218              		.cfi_offset 4, -16
 219              		.cfi_offset 5, -12
 220              		.cfi_offset 6, -8
 221              		.cfi_offset 14, -4
 222              		.cfi_offset 80, -24
 223              		.cfi_offset 81, -20
 224              	.LBB59:
 225              		.loc 1 71 0
 226 00c8 164C     		ldr	r4, .L28+40
 227 00ca 174D     		ldr	r5, .L28+44
 228 00cc D4ED000A 		vldr.32	s1, [r4]
ARM GAS  /tmp/ccZsX5sd.s 			page 5


 229 00d0 95ED001A 		vldr.32	s2, [r5]
 230 00d4 B0EE480A 		vmov.f32	s0, s16
 231 00d8 FFF7FEFF 		bl	utils_middle_of_3
 232              	.LVL12:
 233              		.loc 1 76 0
 234 00dc 0C4B     		ldr	r3, .L28+20
 235              		.loc 1 73 0
 236 00de 2268     		ldr	r2, [r4]	@ float
 237 00e0 2A60     		str	r2, [r5]	@ float
 238              		.loc 1 74 0
 239 00e2 84ED008A 		vstr.32	s16, [r4]
 240              		.loc 1 76 0
 241 00e6 83ED000A 		vstr.32	s0, [r3]
 242              	.LBE59:
 243 00ea C9E7     		b	.L13
 244              	.LVL13:
 245              	.L3:
 246              		.loc 1 87 0
 247 00ec BDEC028B 		vldm	sp!, {d8}
 248              		.cfi_restore 80
 249              		.cfi_restore 81
 250              		.cfi_def_cfa_offset 16
 251 00f0 70BD     		pop	{r4, r5, r6, pc}
 252              	.LVL14:
 253              	.L15:
 254              		.cfi_def_cfa_offset 0
 255              		.cfi_restore 4
 256              		.cfi_restore 5
 257              		.cfi_restore 6
 258              		.cfi_restore 14
 259 00f2 DFED0E7A 		vldr.32	s15, .L28+48
 260 00f6 B6E7     		b	.L9
 261              	.LVL15:
 262              	.L24:
 263 00f8 7047     		bx	lr
 264              	.L29:
 265 00fa 00BF     		.align	2
 266              	.L28:
 267 00fc 00007A44 		.word	1148846080
 268 0100 00000000 		.word	.LANCHOR0
 269 0104 00000000 		.word	.LANCHOR1
 270 0108 00000000 		.word	.LANCHOR2
 271 010c 00000000 		.word	.LANCHOR3
 272 0110 00000000 		.word	.LANCHOR6
 273 0114 00000000 		.word	ch
 274 0118 00000000 		.word	.LANCHOR8
 275 011c 00000000 		.word	.LANCHOR7
 276 0120 CDCC4C3F 		.word	1061997773
 277 0124 00000000 		.word	.LANCHOR5
 278 0128 00000000 		.word	.LANCHOR4
 279 012c 00000000 		.word	0
 280              		.cfi_endproc
 281              	.LFE256:
 282              		.size	icuwidthcb, .-icuwidthcb
 283              		.section	.text.servodec_init,"ax",%progbits
 284              		.align	1
 285              		.p2align 4,,15
ARM GAS  /tmp/ccZsX5sd.s 			page 6


 286              		.global	servodec_init
 287              		.syntax unified
 288              		.thumb
 289              		.thumb_func
 290              		.fpu fpv4-sp-d16
 291              		.type	servodec_init, %function
 292              	servodec_init:
 293              	.LFB258:
 294              		.loc 1 110 0
 295              		.cfi_startproc
 296              		@ args = 0, pretend = 0, frame = 0
 297              		@ frame_needed = 0, uses_anonymous_args = 0
 298              	.LVL16:
 299 0000 38B5     		push	{r3, r4, r5, lr}
 300              		.cfi_def_cfa_offset 16
 301              		.cfi_offset 3, -16
 302              		.cfi_offset 4, -12
 303              		.cfi_offset 5, -8
 304              		.cfi_offset 14, -4
 305              		.loc 1 111 0
 306 0002 0F4C     		ldr	r4, .L32
 307 0004 0F49     		ldr	r1, .L32+4
 308              		.loc 1 110 0
 309 0006 0546     		mov	r5, r0
 310              		.loc 1 111 0
 311 0008 2046     		mov	r0, r4
 312              	.LVL17:
 313 000a FFF7FEFF 		bl	icuStart
 314              	.LVL18:
 315              		.loc 1 112 0
 316 000e 4FF48172 		mov	r2, #258
 317 0012 4FF48051 		mov	r1, #4096
 318 0016 0C48     		ldr	r0, .L32+8
 319 0018 FFF7FEFF 		bl	_pal_lld_setgroupmode
 320              	.LVL19:
 321              		.loc 1 113 0
 322 001c 2046     		mov	r0, r4
 323 001e FFF7FEFF 		bl	icuStartCapture
 324              	.LVL20:
 325              		.loc 1 114 0
 326 0022 2046     		mov	r0, r4
 327 0024 FFF7FEFF 		bl	icuEnableNotifications
 328              	.LVL21:
 329              		.loc 1 122 0
 330 0028 0849     		ldr	r1, .L32+12
 331              	.LBB60:
 332              		.loc 1 117 0
 333 002a 094C     		ldr	r4, .L32+16
 334              		.loc 1 118 0
 335 002c 0948     		ldr	r0, .L32+20
 336              	.LBE60:
 337              		.loc 1 124 0
 338 002e 0A4A     		ldr	r2, .L32+24
 339              		.loc 1 122 0
 340 0030 0D60     		str	r5, [r1]
 341              	.LBB61:
 342              		.loc 1 117 0
ARM GAS  /tmp/ccZsX5sd.s 			page 7


 343 0032 0023     		movs	r3, #0
 344              	.LBE61:
 345              		.loc 1 124 0
 346 0034 0121     		movs	r1, #1
 347              	.LBB62:
 348              		.loc 1 117 0
 349 0036 2360     		str	r3, [r4]	@ float
 350              		.loc 1 118 0
 351 0038 0360     		str	r3, [r0]	@ float
 352              	.LVL22:
 353              	.LBE62:
 354              		.loc 1 124 0
 355 003a 1170     		strb	r1, [r2]
 356              		.loc 1 125 0
 357 003c 38BD     		pop	{r3, r4, r5, pc}
 358              	.LVL23:
 359              	.L33:
 360 003e 00BF     		.align	2
 361              	.L32:
 362 0040 00000000 		.word	ICUD4
 363 0044 00000000 		.word	.LANCHOR9
 364 0048 00040240 		.word	1073873920
 365 004c 00000000 		.word	.LANCHOR8
 366 0050 00000000 		.word	.LANCHOR6
 367 0054 00000000 		.word	.LANCHOR0
 368 0058 00000000 		.word	.LANCHOR10
 369              		.cfi_endproc
 370              	.LFE258:
 371              		.size	servodec_init, .-servodec_init
 372              		.section	.text.servodec_stop,"ax",%progbits
 373              		.align	1
 374              		.p2align 4,,15
 375              		.global	servodec_stop
 376              		.syntax unified
 377              		.thumb
 378              		.thumb_func
 379              		.fpu fpv4-sp-d16
 380              		.type	servodec_stop, %function
 381              	servodec_stop:
 382              	.LFB259:
 383              		.loc 1 130 0
 384              		.cfi_startproc
 385              		@ args = 0, pretend = 0, frame = 0
 386              		@ frame_needed = 0, uses_anonymous_args = 0
 387 0000 38B5     		push	{r3, r4, r5, lr}
 388              		.cfi_def_cfa_offset 16
 389              		.cfi_offset 3, -16
 390              		.cfi_offset 4, -12
 391              		.cfi_offset 5, -8
 392              		.cfi_offset 14, -4
 393              		.loc 1 131 0
 394 0002 0E4C     		ldr	r4, .L40
 395 0004 2378     		ldrb	r3, [r4]	@ zero_extendqisi2
 396 0006 ABB1     		cbz	r3, .L35
 397              		.loc 1 132 0
 398 0008 0D48     		ldr	r0, .L40+4
 399 000a FFF7FEFF 		bl	icuStop
ARM GAS  /tmp/ccZsX5sd.s 			page 8


 400              	.LVL24:
 401              		.loc 1 133 0
 402 000e 0022     		movs	r2, #0
 403 0010 4FF48051 		mov	r1, #4096
 404 0014 0B48     		ldr	r0, .L40+8
 405 0016 FFF7FEFF 		bl	_pal_lld_setgroupmode
 406              	.LVL25:
 407              		.loc 1 134 0
 408 001a 0B4B     		ldr	r3, .L40+12
 409              		.loc 1 135 0
 410 001c 0B48     		ldr	r0, .L40+16
 411              		.loc 1 136 0
 412 001e 0C4A     		ldr	r2, .L40+20
 413              		.loc 1 137 0
 414 0020 0C49     		ldr	r1, .L40+24
 415              		.loc 1 134 0
 416 0022 4FF07E55 		mov	r5, #1065353216
 417 0026 1D60     		str	r5, [r3]	@ float
 418              		.loc 1 136 0
 419 0028 0023     		movs	r3, #0
 420              		.loc 1 135 0
 421 002a 4FF08045 		mov	r5, #1073741824
 422 002e 0560     		str	r5, [r0]	@ float
 423              		.loc 1 137 0
 424 0030 0B60     		str	r3, [r1]
 425              		.loc 1 136 0
 426 0032 1370     		strb	r3, [r2]
 427              	.L35:
 428              		.loc 1 140 0
 429 0034 0023     		movs	r3, #0
 430 0036 2370     		strb	r3, [r4]
 431              		.loc 1 141 0
 432 0038 38BD     		pop	{r3, r4, r5, pc}
 433              	.L41:
 434 003a 00BF     		.align	2
 435              	.L40:
 436 003c 00000000 		.word	.LANCHOR10
 437 0040 00000000 		.word	ICUD4
 438 0044 00040240 		.word	1073873920
 439 0048 00000000 		.word	.LANCHOR1
 440 004c 00000000 		.word	.LANCHOR2
 441 0050 00000000 		.word	.LANCHOR3
 442 0054 00000000 		.word	.LANCHOR8
 443              		.cfi_endproc
 444              	.LFE259:
 445              		.size	servodec_stop, .-servodec_stop
 446              		.section	.text.servodec_set_pulse_options,"ax",%progbits
 447              		.align	1
 448              		.p2align 4,,15
 449              		.global	servodec_set_pulse_options
 450              		.syntax unified
 451              		.thumb
 452              		.thumb_func
 453              		.fpu fpv4-sp-d16
 454              		.type	servodec_set_pulse_options, %function
 455              	servodec_set_pulse_options:
 456              	.LFB260:
ARM GAS  /tmp/ccZsX5sd.s 			page 9


 457              		.loc 1 152 0
 458              		.cfi_startproc
 459              		@ args = 0, pretend = 0, frame = 0
 460              		@ frame_needed = 0, uses_anonymous_args = 0
 461              		@ link register save eliminated.
 462              	.LVL26:
 463              		.loc 1 153 0
 464 0000 0449     		ldr	r1, .L43
 465              		.loc 1 154 0
 466 0002 054A     		ldr	r2, .L43+4
 467              		.loc 1 155 0
 468 0004 054B     		ldr	r3, .L43+8
 469              		.loc 1 153 0
 470 0006 81ED000A 		vstr.32	s0, [r1]
 471              		.loc 1 154 0
 472 000a C2ED000A 		vstr.32	s1, [r2]
 473              		.loc 1 155 0
 474 000e 1870     		strb	r0, [r3]
 475              		.loc 1 156 0
 476 0010 7047     		bx	lr
 477              	.L44:
 478 0012 00BF     		.align	2
 479              	.L43:
 480 0014 00000000 		.word	.LANCHOR1
 481 0018 00000000 		.word	.LANCHOR2
 482 001c 00000000 		.word	.LANCHOR3
 483              		.cfi_endproc
 484              	.LFE260:
 485              		.size	servodec_set_pulse_options, .-servodec_set_pulse_options
 486              		.section	.text.servodec_get_servo,"ax",%progbits
 487              		.align	1
 488              		.p2align 4,,15
 489              		.global	servodec_get_servo
 490              		.syntax unified
 491              		.thumb
 492              		.thumb_func
 493              		.fpu fpv4-sp-d16
 494              		.type	servodec_get_servo, %function
 495              	servodec_get_servo:
 496              	.LFB261:
 497              		.loc 1 167 0
 498              		.cfi_startproc
 499              		@ args = 0, pretend = 0, frame = 0
 500              		@ frame_needed = 0, uses_anonymous_args = 0
 501              		@ link register save eliminated.
 502              	.LVL27:
 503              		.loc 1 168 0
 504 0000 0028     		cmp	r0, #0
 505              		.loc 1 169 0
 506 0002 DDBF     		ittte	le
 507 0004 034B     		ldrle	r3, .L48
 508 0006 03EB8000 		addle	r0, r3, r0, lsl #2
 509              	.LVL28:
 510 000a 90ED000A 		vldrle.32	s0, [r0]
 511              		.loc 1 171 0
 512 000e 9FED020A 		vldrgt.32	s0, .L48+4
 513              		.loc 1 173 0
ARM GAS  /tmp/ccZsX5sd.s 			page 10


 514 0012 7047     		bx	lr
 515              	.L49:
 516              		.align	2
 517              	.L48:
 518 0014 00000000 		.word	.LANCHOR6
 519 0018 00000000 		.word	0
 520              		.cfi_endproc
 521              	.LFE261:
 522              		.size	servodec_get_servo, .-servodec_get_servo
 523              		.section	.text.servodec_get_time_since_update,"ax",%progbits
 524              		.align	1
 525              		.p2align 4,,15
 526              		.global	servodec_get_time_since_update
 527              		.syntax unified
 528              		.thumb
 529              		.thumb_func
 530              		.fpu fpv4-sp-d16
 531              		.type	servodec_get_time_since_update, %function
 532              	servodec_get_time_since_update:
 533              	.LFB262:
 534              		.loc 1 182 0
 535              		.cfi_startproc
 536              		@ args = 0, pretend = 0, frame = 0
 537              		@ frame_needed = 0, uses_anonymous_args = 0
 538              		@ link register save eliminated.
 539              	.LBB63:
 540              	.LBB64:
 541              	.LBB65:
 542              	.LBB66:
 543              		.loc 3 231 0
 544 0000 044B     		ldr	r3, .L51
 545              	.LBE66:
 546              	.LBE65:
 547              	.LBE64:
 548              	.LBE63:
 549              		.loc 1 183 0
 550 0002 054A     		ldr	r2, .L51+4
 551 0004 1268     		ldr	r2, [r2]
 552              	.LVL29:
 553              	.LBB71:
 554              	.LBB69:
 555              	.LBB68:
 556              	.LBB67:
 557              		.loc 3 231 0
 558 0006 986A     		ldr	r0, [r3, #40]
 559              	.LVL30:
 560              	.LBE67:
 561              	.LBE68:
 562              	.LBE69:
 563              	.LBE71:
 564              		.loc 1 183 0
 565 0008 044B     		ldr	r3, .L51+8
 566              	.LBB72:
 567              	.LBB70:
 568              		.loc 3 267 0
 569 000a 801A     		subs	r0, r0, r2
 570              	.LBE70:
ARM GAS  /tmp/ccZsX5sd.s 			page 11


 571              	.LBE72:
 572              		.loc 1 183 0
 573 000c A3FB0030 		umull	r3, r0, r3, r0
 574              		.loc 1 184 0
 575 0010 C008     		lsrs	r0, r0, #3
 576 0012 7047     		bx	lr
 577              	.L52:
 578              		.align	2
 579              	.L51:
 580 0014 00000000 		.word	ch
 581 0018 00000000 		.word	.LANCHOR7
 582 001c CDCCCCCC 		.word	-858993459
 583              		.cfi_endproc
 584              	.LFE262:
 585              		.size	servodec_get_time_since_update, .-servodec_get_time_since_update
 586              		.section	.text.servodec_get_last_pulse_len,"ax",%progbits
 587              		.align	1
 588              		.p2align 4,,15
 589              		.global	servodec_get_last_pulse_len
 590              		.syntax unified
 591              		.thumb
 592              		.thumb_func
 593              		.fpu fpv4-sp-d16
 594              		.type	servodec_get_last_pulse_len, %function
 595              	servodec_get_last_pulse_len:
 596              	.LFB263:
 597              		.loc 1 195 0
 598              		.cfi_startproc
 599              		@ args = 0, pretend = 0, frame = 0
 600              		@ frame_needed = 0, uses_anonymous_args = 0
 601              		@ link register save eliminated.
 602              	.LVL31:
 603              		.loc 1 196 0
 604 0000 0028     		cmp	r0, #0
 605              		.loc 1 197 0
 606 0002 DDBF     		ittte	le
 607 0004 034B     		ldrle	r3, .L56
 608 0006 03EB8000 		addle	r0, r3, r0, lsl #2
 609              	.LVL32:
 610 000a 90ED000A 		vldrle.32	s0, [r0]
 611              		.loc 1 199 0
 612 000e 9FED020A 		vldrgt.32	s0, .L56+4
 613              		.loc 1 201 0
 614 0012 7047     		bx	lr
 615              	.L57:
 616              		.align	2
 617              	.L56:
 618 0014 00000000 		.word	.LANCHOR0
 619 0018 00000000 		.word	0
 620              		.cfi_endproc
 621              	.LFE263:
 622              		.size	servodec_get_last_pulse_len, .-servodec_get_last_pulse_len
 623              		.section	.bss.done_func,"aw",%nobits
 624              		.align	2
 625              		.set	.LANCHOR8,. + 0
 626              		.type	done_func, %object
 627              		.size	done_func, 4
ARM GAS  /tmp/ccZsX5sd.s 			page 12


 628              	done_func:
 629 0000 00000000 		.space	4
 630              		.section	.bss.is_running,"aw",%nobits
 631              		.set	.LANCHOR10,. + 0
 632              		.type	is_running, %object
 633              		.size	is_running, 1
 634              	is_running:
 635 0000 00       		.space	1
 636              		.section	.bss.last_len_received,"aw",%nobits
 637              		.align	2
 638              		.set	.LANCHOR0,. + 0
 639              		.type	last_len_received, %object
 640              		.size	last_len_received, 4
 641              	last_len_received:
 642 0000 00000000 		.space	4
 643              		.section	.bss.last_update_time,"aw",%nobits
 644              		.align	2
 645              		.set	.LANCHOR7,. + 0
 646              		.type	last_update_time, %object
 647              		.size	last_update_time, 4
 648              	last_update_time:
 649 0000 00000000 		.space	4
 650              		.section	.bss.servo_pos,"aw",%nobits
 651              		.align	2
 652              		.set	.LANCHOR6,. + 0
 653              		.type	servo_pos, %object
 654              		.size	servo_pos, 4
 655              	servo_pos:
 656 0000 00000000 		.space	4
 657              		.section	.bss.use_median_filter,"aw",%nobits
 658              		.set	.LANCHOR3,. + 0
 659              		.type	use_median_filter, %object
 660              		.size	use_median_filter, 1
 661              	use_median_filter:
 662 0000 00       		.space	1
 663              		.section	.data.c1.10883,"aw",%progbits
 664              		.align	2
 665              		.set	.LANCHOR5,. + 0
 666              		.type	c1.10883, %object
 667              		.size	c1.10883, 4
 668              	c1.10883:
 669 0000 0000003F 		.word	1056964608
 670              		.section	.data.c2.10884,"aw",%progbits
 671              		.align	2
 672              		.set	.LANCHOR4,. + 0
 673              		.type	c2.10884, %object
 674              		.size	c2.10884, 4
 675              	c2.10884:
 676 0000 0000003F 		.word	1056964608
 677              		.section	.data.icucfg,"aw",%progbits
 678              		.align	2
 679              		.set	.LANCHOR9,. + 0
 680              		.type	icucfg, %object
 681              		.size	icucfg, 28
 682              	icucfg:
 683 0000 00       		.byte	0
 684 0001 000000   		.space	3
ARM GAS  /tmp/ccZsX5sd.s 			page 13


 685 0004 40420F00 		.word	1000000
 686 0008 00000000 		.word	icuwidthcb
 687 000c 00000000 		.word	icuperiodcb
 688 0010 00000000 		.word	0
 689 0014 00       		.byte	0
 690 0015 000000   		.space	3
 691 0018 00000000 		.word	0
 692              		.section	.data.pulse_end,"aw",%progbits
 693              		.align	2
 694              		.set	.LANCHOR2,. + 0
 695              		.type	pulse_end, %object
 696              		.size	pulse_end, 4
 697              	pulse_end:
 698 0000 00000040 		.word	1073741824
 699              		.section	.data.pulse_start,"aw",%progbits
 700              		.align	2
 701              		.set	.LANCHOR1,. + 0
 702              		.type	pulse_start, %object
 703              		.size	pulse_start, 4
 704              	pulse_start:
 705 0000 0000803F 		.word	1065353216
 706              		.text
 707              	.Letext0:
 708              		.file 4 "/usr/arm-none-eabi/include/machine/_default_types.h"
 709              		.file 5 "/usr/arm-none-eabi/include/sys/_stdint.h"
 710              		.file 6 "/usr/lib/gcc/arm-none-eabi/7.3.1/include/stddef.h"
 711              		.file 7 "ChibiOS_3.0.2/os/rt/ports/ARMCMx/compilers/GCC/chtypes.h"
 712              		.file 8 "ChibiOS_3.0.2/os/rt/include/chsystypes.h"
 713              		.file 9 "ChibiOS_3.0.2/os/rt/include/chschd.h"
 714              		.file 10 "ChibiOS_3.0.2/os/ext/CMSIS/include/core_cm4.h"
 715              		.file 11 "ChibiOS_3.0.2/os/ext/CMSIS/ST/system_stm32f4xx.h"
 716              		.file 12 "ChibiOS_3.0.2/os/ext/CMSIS/ST/stm32f407xx.h"
 717              		.file 13 "ChibiOS_3.0.2/os/rt/ports/ARMCMx/chcore.h"
 718              		.file 14 "ChibiOS_3.0.2/os/rt/ports/ARMCMx/chcore_v7m.h"
 719              		.file 15 "ChibiOS_3.0.2/os/rt/include/chtm.h"
 720              		.file 16 "ChibiOS_3.0.2/os/rt/include/chsem.h"
 721              		.file 17 "ChibiOS_3.0.2/os/rt/include/chmtx.h"
 722              		.file 18 "ChibiOS_3.0.2/os/rt/include/chregistry.h"
 723              		.file 19 "ChibiOS_3.0.2/os/rt/include/chevents.h"
 724              		.file 20 "ChibiOS_3.0.2/os/rt/include/chqueues.h"
 725              		.file 21 "./conf_general.h"
 726              		.file 22 "ChibiOS_3.0.2/os/hal/ports/STM32/STM32F4xx/stm32_dma.h"
 727              		.file 23 "ChibiOS_3.0.2/os/hal/ports/STM32/LLD/GPIOv2/pal_lld.h"
 728              		.file 24 "ChibiOS_3.0.2/os/hal/include/can.h"
 729              		.file 25 "ChibiOS_3.0.2/os/hal/ports/STM32/LLD/can_lld.h"
 730              		.file 26 "ChibiOS_3.0.2/os/hal/include/i2c.h"
 731              		.file 27 "ChibiOS_3.0.2/os/hal/ports/STM32/LLD/I2Cv1/i2c_lld.h"
 732              		.file 28 "ChibiOS_3.0.2/os/hal/include/icu.h"
 733              		.file 29 "ChibiOS_3.0.2/os/hal/ports/STM32/LLD/TIMv1/icu_lld.h"
 734              		.file 30 "ChibiOS_3.0.2/os/hal/ports/STM32/LLD/TIMv1/stm32_tim.h"
 735              		.file 31 "ChibiOS_3.0.2/os/hal/include/serial.h"
 736              		.file 32 "ChibiOS_3.0.2/os/hal/ports/STM32/LLD/USARTv1/serial_lld.h"
 737              		.file 33 "ChibiOS_3.0.2/os/hal/include/spi.h"
 738              		.file 34 "ChibiOS_3.0.2/os/hal/ports/STM32/LLD/SPIv1/spi_lld.h"
 739              		.file 35 "ChibiOS_3.0.2/os/hal/include/usb.h"
 740              		.file 36 "ChibiOS_3.0.2/os/hal/ports/STM32/LLD/OTGv1/usb_lld.h"
 741              		.file 37 "ChibiOS_3.0.2/os/hal/ports/STM32/LLD/OTGv1/stm32_otg.h"
ARM GAS  /tmp/ccZsX5sd.s 			page 14


 742              		.file 38 "ChibiOS_3.0.2/os/rt/include/chsys.h"
 743              		.file 39 "utils.h"