ARM GAS  /tmp/ccHCUo6g.s 			page 1


   1              		.cpu cortex-m4
   2              		.eabi_attribute 27, 1
   3              		.eabi_attribute 28, 1
   4              		.eabi_attribute 20, 1
   5              		.eabi_attribute 21, 1
   6              		.eabi_attribute 23, 3
   7              		.eabi_attribute 24, 1
   8              		.eabi_attribute 25, 1
   9              		.eabi_attribute 26, 1
  10              		.eabi_attribute 30, 2
  11              		.eabi_attribute 34, 1
  12              		.eabi_attribute 18, 4
  13              		.file	"terminal.c"
  14              		.text
  15              	.Ltext0:
  16              		.cfi_sections	.debug_frame
  17              		.global	__aeabi_f2d
  18              		.global	__aeabi_dmul
  19              		.section	.text.terminal_process_string,"ax",%progbits
  20              		.align	1
  21              		.p2align 4,,15
  22              		.global	terminal_process_string
  23              		.syntax unified
  24              		.thumb
  25              		.thumb_func
  26              		.fpu fpv4-sp-d16
  27              		.type	terminal_process_string, %function
  28              	terminal_process_string:
  29              	.LFB259:
  30              		.file 1 "terminal.c"
  31              		.loc 1 61 0
  32              		.cfi_startproc
  33              		@ args = 0, pretend = 0, frame = 312
  34              		@ frame_needed = 0, uses_anonymous_args = 0
  35              	.LVL0:
  36 0000 2DE9F04F 		push	{r4, r5, r6, r7, r8, r9, r10, fp, lr}
  37              		.cfi_def_cfa_offset 36
  38              		.cfi_offset 4, -36
  39              		.cfi_offset 5, -32
  40              		.cfi_offset 6, -28
  41              		.cfi_offset 7, -24
  42              		.cfi_offset 8, -20
  43              		.cfi_offset 9, -16
  44              		.cfi_offset 10, -12
  45              		.cfi_offset 11, -8
  46              		.cfi_offset 14, -4
  47 0004 2DED088B 		vpush.64	{d8, d9, d10, d11}
  48              		.cfi_def_cfa_offset 68
  49              		.cfi_offset 80, -68
  50              		.cfi_offset 81, -64
  51              		.cfi_offset 82, -60
  52              		.cfi_offset 83, -56
  53              		.cfi_offset 84, -52
  54              		.cfi_offset 85, -48
  55              		.cfi_offset 86, -44
  56              		.cfi_offset 87, -40
  57              		.loc 1 66 0
ARM GAS  /tmp/ccHCUo6g.s 			page 2


  58 0008 B749     		ldr	r1, .L303
  59              		.loc 1 61 0
  60 000a D9B0     		sub	sp, sp, #356
  61              		.cfi_def_cfa_offset 424
  62              		.loc 1 66 0
  63 000c FFF7FEFF 		bl	strtok
  64              	.LVL1:
  65              		.loc 1 67 0
  66 0010 0028     		cmp	r0, #0
  67 0012 65D0     		beq	.L271
  68 0014 0346     		mov	r3, r0
  69              		.loc 1 69 0
  70 0016 B44E     		ldr	r6, .L303
  71 0018 18AD     		add	r5, sp, #96
  72              		.loc 1 63 0
  73 001a 0024     		movs	r4, #0
  74 001c 01E0     		b	.L5
  75              	.LVL2:
  76              	.L272:
  77              		.loc 1 67 0 discriminator 1
  78 001e 402C     		cmp	r4, #64
  79 0020 09D0     		beq	.L4
  80              	.LVL3:
  81              	.L5:
  82              		.loc 1 68 0
  83 0022 45F8043B 		str	r3, [r5], #4
  84              		.loc 1 69 0
  85 0026 3146     		mov	r1, r6
  86 0028 0020     		movs	r0, #0
  87              	.LVL4:
  88 002a FFF7FEFF 		bl	strtok
  89              	.LVL5:
  90              		.loc 1 68 0
  91 002e 0134     		adds	r4, r4, #1
  92              	.LVL6:
  93              		.loc 1 67 0
  94 0030 0346     		mov	r3, r0
  95 0032 0028     		cmp	r0, #0
  96 0034 F3D1     		bne	.L272
  97              	.L4:
  98              		.loc 1 79 0
  99 0036 FFF7FEFF 		bl	mc_interface_get_configuration
 100              	.LVL7:
 101 003a 4FF4E472 		mov	r2, #456
 102 003e 0146     		mov	r1, r0
 103 0040 AA48     		ldr	r0, .L303+4
 104 0042 FFF7FEFF 		bl	memcpy
 105              	.LVL8:
 106              		.loc 1 80 0
 107 0046 A949     		ldr	r1, .L303+4
 108 0048 A948     		ldr	r0, .L303+8
 109 004a 4FF4E472 		mov	r2, #456
 110 004e FFF7FEFF 		bl	memcpy
 111              	.LVL9:
 112              		.loc 1 82 0
 113 0052 189D     		ldr	r5, [sp, #96]
 114 0054 A749     		ldr	r1, .L303+12
ARM GAS  /tmp/ccHCUo6g.s 			page 3


 115 0056 2846     		mov	r0, r5
 116 0058 FFF7FEFF 		bl	strcmp
 117              	.LVL10:
 118 005c 0028     		cmp	r0, #0
 119 005e 51D0     		beq	.L273
 120              		.loc 1 84 0
 121 0060 A549     		ldr	r1, .L303+16
 122 0062 2846     		mov	r0, r5
 123 0064 FFF7FEFF 		bl	strcmp
 124              	.LVL11:
 125 0068 0028     		cmp	r0, #0
 126 006a 41D0     		beq	.L274
 127              		.loc 1 95 0
 128 006c A349     		ldr	r1, .L303+20
 129 006e 2846     		mov	r0, r5
 130 0070 FFF7FEFF 		bl	strcmp
 131              	.LVL12:
 132 0074 0028     		cmp	r0, #0
 133 0076 64D0     		beq	.L275
 134              		.loc 1 98 0
 135 0078 A149     		ldr	r1, .L303+24
 136 007a 2846     		mov	r0, r5
 137 007c FFF7FEFF 		bl	strcmp
 138              	.LVL13:
 139 0080 0028     		cmp	r0, #0
 140 0082 79D0     		beq	.L276
 141              		.loc 1 102 0
 142 0084 9F49     		ldr	r1, .L303+28
 143 0086 2846     		mov	r0, r5
 144 0088 FFF7FEFF 		bl	strcmp
 145              	.LVL14:
 146 008c 0028     		cmp	r0, #0
 147 008e 00F09D80 		beq	.L277
 148              		.loc 1 104 0
 149 0092 9D49     		ldr	r1, .L303+32
 150 0094 2846     		mov	r0, r5
 151 0096 FFF7FEFF 		bl	strcmp
 152              	.LVL15:
 153 009a 0028     		cmp	r0, #0
 154 009c 59D0     		beq	.L278
 155              		.loc 1 110 0
 156 009e 9B49     		ldr	r1, .L303+36
 157 00a0 2846     		mov	r0, r5
 158 00a2 FFF7FEFF 		bl	strcmp
 159              	.LVL16:
 160 00a6 0028     		cmp	r0, #0
 161 00a8 00F09C80 		beq	.L279
 162              		.loc 1 125 0
 163 00ac 9849     		ldr	r1, .L303+40
 164 00ae 2846     		mov	r0, r5
 165 00b0 FFF7FEFF 		bl	strcmp
 166              	.LVL17:
 167 00b4 0028     		cmp	r0, #0
 168 00b6 00F0D480 		beq	.L280
 169              		.loc 1 127 0
 170 00ba 9649     		ldr	r1, .L303+44
 171 00bc 2846     		mov	r0, r5
ARM GAS  /tmp/ccHCUo6g.s 			page 4


 172 00be FFF7FEFF 		bl	strcmp
 173              	.LVL18:
 174 00c2 0646     		mov	r6, r0
 175 00c4 0028     		cmp	r0, #0
 176 00c6 40F0D580 		bne	.L17
 177              		.loc 1 128 0
 178 00ca DFF8CC82 		ldr	r8, .L303+176
 179 00ce D8F80030 		ldr	r3, [r8]
 180 00d2 002B     		cmp	r3, #0
 181 00d4 40F0F880 		bne	.L18
 182              		.loc 1 129 0
 183 00d8 8F48     		ldr	r0, .L303+48
 184 00da FFF7FEFF 		bl	commands_printf
 185              	.LVL19:
 186 00de 02E0     		b	.L1
 187              	.LVL20:
 188              	.L271:
 189              		.loc 1 73 0
 190 00e0 8E48     		ldr	r0, .L303+52
 191              	.LVL21:
 192 00e2 FFF7FEFF 		bl	commands_printf
 193              	.LVL22:
 194              	.L1:
 195              		.loc 1 891 0
 196 00e6 59B0     		add	sp, sp, #356
 197              		.cfi_remember_state
 198              		.cfi_def_cfa_offset 68
 199              		@ sp needed
 200 00e8 BDEC088B 		vldm	sp!, {d8-d11}
 201              		.cfi_restore 86
 202              		.cfi_restore 87
 203              		.cfi_restore 84
 204              		.cfi_restore 85
 205              		.cfi_restore 82
 206              		.cfi_restore 83
 207              		.cfi_restore 80
 208              		.cfi_restore 81
 209              		.cfi_def_cfa_offset 36
 210 00ec BDE8F08F 		pop	{r4, r5, r6, r7, r8, r9, r10, fp, pc}
 211              	.LVL23:
 212              	.L274:
 213              		.cfi_restore_state
 214              		.loc 1 85 0
 215 00f0 022C     		cmp	r4, #2
 216 00f2 0FD0     		beq	.L281
 217              	.LVL24:
 218              	.L248:
 219              	.LBB81:
 220              		.loc 1 715 0
 221 00f4 8A48     		ldr	r0, .L303+56
 222 00f6 FFF7FEFF 		bl	commands_printf
 223              	.LVL25:
 224              	.LBE81:
 225              		.loc 1 891 0
 226 00fa 59B0     		add	sp, sp, #356
 227              		.cfi_remember_state
 228              		.cfi_def_cfa_offset 68
ARM GAS  /tmp/ccHCUo6g.s 			page 5


 229              		@ sp needed
 230 00fc BDEC088B 		vldm	sp!, {d8-d11}
 231              		.cfi_restore 86
 232              		.cfi_restore 87
 233              		.cfi_restore 84
 234              		.cfi_restore 85
 235              		.cfi_restore 82
 236              		.cfi_restore 83
 237              		.cfi_restore 80
 238              		.cfi_restore 81
 239              		.cfi_def_cfa_offset 36
 240 0100 BDE8F08F 		pop	{r4, r5, r6, r7, r8, r9, r10, fp, pc}
 241              	.LVL26:
 242              	.L273:
 243              		.cfi_restore_state
 244              		.loc 1 83 0
 245 0104 8748     		ldr	r0, .L303+60
 246 0106 FFF7FEFF 		bl	commands_printf
 247              	.LVL27:
 248              		.loc 1 891 0
 249 010a 59B0     		add	sp, sp, #356
 250              		.cfi_remember_state
 251              		.cfi_def_cfa_offset 68
 252              		@ sp needed
 253 010c BDEC088B 		vldm	sp!, {d8-d11}
 254              		.cfi_restore 86
 255              		.cfi_restore 87
 256              		.cfi_restore 84
 257              		.cfi_restore 85
 258              		.cfi_restore 82
 259              		.cfi_restore 83
 260              		.cfi_restore 80
 261              		.cfi_restore 81
 262              		.cfi_def_cfa_offset 36
 263 0110 BDE8F08F 		pop	{r4, r5, r6, r7, r8, r9, r10, fp, pc}
 264              	.LVL28:
 265              	.L281:
 266              		.cfi_restore_state
 267              	.LBB85:
 268              		.loc 1 86 0
 269 0114 844B     		ldr	r3, .L303+64
 270              		.loc 1 87 0
 271 0116 8549     		ldr	r1, .L303+68
 272 0118 1998     		ldr	r0, [sp, #100]
 273              		.loc 1 86 0
 274 011a 1193     		str	r3, [sp, #68]	@ float
 275              		.loc 1 87 0
 276 011c 11AA     		add	r2, sp, #68
 277 011e FFF7FEFF 		bl	sscanf
 278              	.LVL29:
 279              		.loc 1 90 0
 280 0122 DDED117A 		vldr.32	s15, [sp, #68]
 281 0126 9FED827A 		vldr.32	s14, .L303+72
 282 012a 67EE877A 		vmul.f32	s15, s15, s14
 283 012e FCEEE77A 		vcvt.u32.f32	s15, s15
 284 0132 17EE900A 		vmov	r0, s15	@ int
 285 0136 FFF7FEFF 		bl	mc_interface_set_odo_value
ARM GAS  /tmp/ccHCUo6g.s 			page 6


 286              	.LVL30:
 287              		.loc 1 91 0
 288 013a 7E48     		ldr	r0, .L303+76
 289 013c FFF7FEFF 		bl	commands_printf
 290              	.LVL31:
 291              	.LBE85:
 292 0140 D1E7     		b	.L1
 293              	.L275:
 294              		.loc 1 96 0
 295 0142 9FED7D0A 		vldr.32	s0, .L303+80
 296 0146 FFF7FEFF 		bl	mc_interface_set_duty
 297              	.LVL32:
 298              		.loc 1 97 0
 299 014a 7C48     		ldr	r0, .L303+84
 300 014c FFF7FEFF 		bl	commands_printf
 301              	.LVL33:
 302 0150 C9E7     		b	.L1
 303              	.L278:
 304              	.LBB86:
 305              		.loc 1 106 0 discriminator 3
 306 0152 11A9     		add	r1, sp, #68
 307 0154 FFF7FEFF 		bl	chHeapStatus
 308              	.LVL34:
 309 0158 0446     		mov	r4, r0
 310              	.LVL35:
 311              		.loc 1 107 0 discriminator 3
 312 015a FFF7FEFF 		bl	chCoreGetStatusX
 313              	.LVL36:
 314 015e 0146     		mov	r1, r0
 315 0160 7748     		ldr	r0, .L303+88
 316 0162 FFF7FEFF 		bl	commands_printf
 317              	.LVL37:
 318              		.loc 1 108 0 discriminator 3
 319 0166 2146     		mov	r1, r4
 320 0168 7648     		ldr	r0, .L303+92
 321 016a FFF7FEFF 		bl	commands_printf
 322              	.LVL38:
 323              		.loc 1 109 0 discriminator 3
 324 016e 1199     		ldr	r1, [sp, #68]
 325 0170 7548     		ldr	r0, .L303+96
 326 0172 FFF7FEFF 		bl	commands_printf
 327              	.LVL39:
 328              	.LBE86:
 329 0176 B6E7     		b	.L1
 330              	.LVL40:
 331              	.L276:
 332              		.loc 1 99 0
 333 0178 FFF7FEFF 		bl	mcpwm_get_last_adc_isr_duration
 334              	.LVL41:
 335 017c 9FED6C8A 		vldr.32	s16, .L303+72
 336 0180 60EE087A 		vmul.f32	s15, s0, s16
 337 0184 17EE900A 		vmov	r0, s15
 338 0188 FFF7FEFF 		bl	__aeabi_f2d
 339              	.LVL42:
 340 018c 0246     		mov	r2, r0
 341 018e 0B46     		mov	r3, r1
 342 0190 6E48     		ldr	r0, .L303+100
ARM GAS  /tmp/ccHCUo6g.s 			page 7


 343 0192 FFF7FEFF 		bl	commands_printf
 344              	.LVL43:
 345              		.loc 1 100 0
 346 0196 FFF7FEFF 		bl	mc_interface_get_last_inj_adc_isr_duration
 347              	.LVL44:
 348 019a 60EE087A 		vmul.f32	s15, s0, s16
 349 019e 17EE900A 		vmov	r0, s15
 350 01a2 FFF7FEFF 		bl	__aeabi_f2d
 351              	.LVL45:
 352 01a6 0246     		mov	r2, r0
 353 01a8 0B46     		mov	r3, r1
 354 01aa 6948     		ldr	r0, .L303+104
 355 01ac FFF7FEFF 		bl	commands_printf
 356              	.LVL46:
 357              		.loc 1 101 0
 358 01b0 FFF7FEFF 		bl	mc_interface_get_last_sample_adc_isr_duration
 359              	.LVL47:
 360 01b4 60EE087A 		vmul.f32	s15, s0, s16
 361 01b8 17EE900A 		vmov	r0, s15
 362 01bc FFF7FEFF 		bl	__aeabi_f2d
 363              	.LVL48:
 364 01c0 0246     		mov	r2, r0
 365 01c2 0B46     		mov	r3, r1
 366 01c4 6348     		ldr	r0, .L303+108
 367 01c6 FFF7FEFF 		bl	commands_printf
 368              	.LVL49:
 369 01ca 8CE7     		b	.L1
 370              	.L277:
 371              		.loc 1 103 0
 372 01cc FFF7FEFF 		bl	mcpwm_get_kv_filtered
 373              	.LVL50:
 374 01d0 10EE100A 		vmov	r0, s0
 375 01d4 FFF7FEFF 		bl	__aeabi_f2d
 376              	.LVL51:
 377 01d8 0246     		mov	r2, r0
 378 01da 0B46     		mov	r3, r1
 379 01dc 5E48     		ldr	r0, .L303+112
 380 01de FFF7FEFF 		bl	commands_printf
 381              	.LVL52:
 382 01e2 80E7     		b	.L1
 383              	.L279:
 384              	.LBB87:
 385              		.loc 1 113 0
 386 01e4 5D48     		ldr	r0, .L303+116
 387 01e6 5E4F     		ldr	r7, .L303+120
 388 01e8 5E4E     		ldr	r6, .L303+124
 389              		.loc 1 121 0
 390 01ea 9FED5F8A 		vldr.32	s16, .L303+128
 391              		.loc 1 117 0
 392 01ee 5F4D     		ldr	r5, .L303+132
 393              		.loc 1 113 0
 394 01f0 FFF7FEFF 		bl	commands_printf
 395              	.LVL53:
 396              		.loc 1 114 0
 397 01f4 5E48     		ldr	r0, .L303+136
 398 01f6 FFF7FEFF 		bl	commands_printf
 399              	.LVL54:
ARM GAS  /tmp/ccHCUo6g.s 			page 8


 400              		.loc 1 115 0
 401 01fa FFF7FEFF 		bl	chRegFirstThread
 402              	.LVL55:
 403 01fe 0446     		mov	r4, r0
 404              	.LVL56:
 405              	.L15:
 406              		.loc 1 120 0 discriminator 1
 407 0200 D4F820A0 		ldr	r10, [r4, #32]
 408              		.loc 1 121 0 discriminator 1
 409 0204 D4ED087A 		vldr.32	s15, [r4, #32]	@ int
 410              	.LBB88:
 411              	.LBB89:
 412              		.file 2 "ChibiOS_3.0.2/os/rt/include/chvt.h"
 413              		.loc 2 231 0 discriminator 1
 414 0208 97ED0A7A 		vldr.32	s14, [r7, #40]	@ int
 415              	.LBE89:
 416              	.LBE88:
 417              		.loc 1 121 0 discriminator 1
 418 020c F8EE677A 		vcvt.f32.u32	s15, s15
 419 0210 B8EE477A 		vcvt.f32.u32	s14, s14
 420 0214 67EE887A 		vmul.f32	s15, s15, s16
 421              		.loc 1 117 0 discriminator 1
 422 0218 D4E90298 		ldrd	r9, r8, [r4, #8]
 423 021c C7EE877A 		vdiv.f32	s15, s15, s14
 424 0220 17EE900A 		vmov	r0, s15
 425              	.LVL57:
 426 0224 FFF7FEFF 		bl	__aeabi_f2d
 427              	.LVL58:
 428 0228 CDE90401 		strd	r0, [sp, #16]
 429 022c CDF80CA0 		str	r10, [sp, #12]
 430 0230 A369     		ldr	r3, [r4, #24]
 431 0232 0293     		str	r3, [sp, #8]
 432              		.loc 1 120 0 discriminator 1
 433 0234 237F     		ldrb	r3, [r4, #28]	@ zero_extendqisi2
 434              		.loc 1 117 0 discriminator 1
 435 0236 56F82330 		ldr	r3, [r6, r3, lsl #2]
 436 023a 0193     		str	r3, [sp, #4]
 437              		.loc 1 119 0 discriminator 1
 438 023c A17F     		ldrb	r1, [r4, #30]	@ zero_extendqisi2
 439 023e 0139     		subs	r1, r1, #1
 440              		.loc 1 117 0 discriminator 1
 441 0240 4B46     		mov	r3, r9
 442 0242 4246     		mov	r2, r8
 443 0244 0091     		str	r1, [sp]
 444 0246 2846     		mov	r0, r5
 445 0248 2146     		mov	r1, r4
 446 024a FFF7FEFF 		bl	commands_printf
 447              	.LVL59:
 448              		.loc 1 122 0 discriminator 1
 449 024e 2046     		mov	r0, r4
 450 0250 FFF7FEFF 		bl	chRegNextThread
 451              	.LVL60:
 452              		.loc 1 123 0 discriminator 1
 453 0254 0446     		mov	r4, r0
 454 0256 0028     		cmp	r0, #0
 455 0258 D2D1     		bne	.L15
 456              	.LVL61:
ARM GAS  /tmp/ccHCUo6g.s 			page 9


 457              	.L250:
 458              	.LBE87:
 459              		.loc 1 482 0
 460 025a 2348     		ldr	r0, .L303
 461 025c FFF7FEFF 		bl	commands_printf
 462              	.LVL62:
 463 0260 41E7     		b	.L1
 464              	.LVL63:
 465              	.L280:
 466              		.loc 1 126 0
 467 0262 FFF7FEFF 		bl	mc_interface_get_fault
 468              	.LVL64:
 469 0266 FFF7FEFF 		bl	mc_interface_fault_to_string
 470              	.LVL65:
 471 026a 0146     		mov	r1, r0
 472 026c 4148     		ldr	r0, .L303+140
 473 026e FFF7FEFF 		bl	commands_printf
 474              	.LVL66:
 475 0272 38E7     		b	.L1
 476              	.L17:
 477              		.loc 1 176 0
 478 0274 4049     		ldr	r1, .L303+144
 479 0276 2846     		mov	r0, r5
 480 0278 FFF7FEFF 		bl	strcmp
 481              	.LVL67:
 482 027c 0028     		cmp	r0, #0
 483 027e 00F03981 		beq	.L282
 484              		.loc 1 178 0
 485 0282 3E49     		ldr	r1, .L303+148
 486 0284 2846     		mov	r0, r5
 487 0286 FFF7FEFF 		bl	strcmp
 488              	.LVL68:
 489 028a 0028     		cmp	r0, #0
 490 028c 00F02B81 		beq	.L283
 491              		.loc 1 180 0
 492 0290 3B49     		ldr	r1, .L303+152
 493 0292 2846     		mov	r0, r5
 494 0294 FFF7FEFF 		bl	strcmp
 495              	.LVL69:
 496 0298 0028     		cmp	r0, #0
 497 029a 00F06C81 		beq	.L284
 498              		.loc 1 205 0
 499 029e 3949     		ldr	r1, .L303+156
 500 02a0 2846     		mov	r0, r5
 501 02a2 FFF7FEFF 		bl	strcmp
 502              	.LVL70:
 503 02a6 0028     		cmp	r0, #0
 504 02a8 00F04D81 		beq	.L285
 505              		.loc 1 210 0
 506 02ac 3649     		ldr	r1, .L303+160
 507 02ae 2846     		mov	r0, r5
 508 02b0 FFF7FEFF 		bl	strcmp
 509              	.LVL71:
 510 02b4 0028     		cmp	r0, #0
 511 02b6 40F02981 		bne	.L26
 512              		.loc 1 212 0
 513 02ba 042C     		cmp	r4, #4
ARM GAS  /tmp/ccHCUo6g.s 			page 10


 514 02bc 00F0F681 		beq	.L286
 515              	.L27:
 516              		.loc 1 254 0
 517 02c0 3248     		ldr	r0, .L303+164
 518 02c2 FFF7FEFF 		bl	commands_printf
 519              	.LVL72:
 520 02c6 0EE7     		b	.L1
 521              	.L18:
 522              		.loc 1 131 0
 523 02c8 3148     		ldr	r0, .L303+168
 524 02ca FFF7FEFF 		bl	commands_printf
 525              	.LVL73:
 526              	.LBB90:
 527              		.loc 1 132 0
 528 02ce D8F80030 		ldr	r3, [r8]
 529 02d2 002B     		cmp	r3, #0
 530 02d4 7FF707AF 		ble	.L1
 531 02d8 2E4F     		ldr	r7, .L303+172
 532              		.loc 1 133 0
 533 02da DFF8C0B0 		ldr	fp, .L303+180
 534              		.loc 1 134 0
 535 02de DFF8C0A0 		ldr	r10, .L303+184
 536              		.loc 1 135 0
 537 02e2 DFF8C090 		ldr	r9, .L303+188
 538 02e6 68E0     		b	.L19
 539              	.L304:
 540              		.align	2
 541              	.L303:
 542 02e8 18000000 		.word	.LC4
 543 02ec 00000000 		.word	.LANCHOR0
 544 02f0 00000000 		.word	.LANCHOR1
 545 02f4 34000000 		.word	.LC6
 546 02f8 44000000 		.word	.LC8
 547 02fc 74000000 		.word	.LC12
 548 0300 8C000000 		.word	.LC14
 549 0304 10010000 		.word	.LC18
 550 0308 34010000 		.word	.LC20
 551 030c 8C010000 		.word	.LC24
 552 0310 44020000 		.word	.LC28
 553 0314 50020000 		.word	.LC30
 554 0318 58020000 		.word	.LC31
 555 031c 1C000000 		.word	.LC5
 556 0320 5C000000 		.word	.LC11
 557 0324 3C000000 		.word	.LC7
 558 0328 000080BF 		.word	-1082130432
 559 032c 50000000 		.word	.LC9
 560 0330 00007A44 		.word	1148846080
 561 0334 54000000 		.word	.LC10
 562 0338 00000000 		.word	0
 563 033c 7C000000 		.word	.LC13
 564 0340 38010000 		.word	.LC21
 565 0344 54010000 		.word	.LC22
 566 0348 6C010000 		.word	.LC23
 567 034c A0000000 		.word	.LC15
 568 0350 C0000000 		.word	.LC16
 569 0354 E8000000 		.word	.LC17
 570 0358 14010000 		.word	.LC19
ARM GAS  /tmp/ccHCUo6g.s 			page 11


 571 035c 94010000 		.word	.LC25
 572 0360 00000000 		.word	ch
 573 0364 00000000 		.word	.LANCHOR2
 574 0368 0000C842 		.word	1120403456
 575 036c 14020000 		.word	.LC27
 576 0370 D4010000 		.word	.LC26
 577 0374 4C020000 		.word	.LC29
 578 0378 A8040000 		.word	.LC54
 579 037c C8040000 		.word	.LC56
 580 0380 E8040000 		.word	.LC58
 581 0384 A0050000 		.word	.LC70
 582 0388 C0050000 		.word	.LC72
 583 038c FC060000 		.word	.LC81
 584 0390 7C020000 		.word	.LC32
 585 0394 00000000 		.word	.LANCHOR4
 586 0398 00000000 		.word	.LANCHOR3
 587 039c B0020000 		.word	.LC33
 588 03a0 C8020000 		.word	.LC34
 589 03a4 E0020000 		.word	.LC35
 590              	.LVL74:
 591              	.L20:
 592              		.loc 1 173 0 discriminator 2
 593 03a8 9648     		ldr	r0, .L305
 594 03aa FFF7FEFF 		bl	commands_printf
 595              	.LVL75:
 596              		.loc 1 132 0 discriminator 2
 597 03ae D8F80030 		ldr	r3, [r8]
 598 03b2 0136     		adds	r6, r6, #1
 599              	.LVL76:
 600 03b4 B342     		cmp	r3, r6
 601 03b6 7FF796AE 		ble	.L1
 602              	.LVL77:
 603              	.L19:
 604              		.loc 1 134 0
 605 03ba 06EB8605 		add	r5, r6, r6, lsl #2
 606 03be 2D01     		lsls	r5, r5, #4
 607              		.loc 1 133 0
 608 03c0 3146     		mov	r1, r6
 609 03c2 5846     		mov	r0, fp
 610 03c4 FFF7FEFF 		bl	commands_printf
 611              	.LVL78:
 612              		.loc 1 134 0
 613 03c8 785D     		ldrb	r0, [r7, r5]	@ zero_extendqisi2
 614 03ca FFF7FEFF 		bl	mc_interface_fault_to_string
 615              	.LVL79:
 616 03ce 7C19     		adds	r4, r7, r5
 617 03d0 0146     		mov	r1, r0
 618 03d2 5046     		mov	r0, r10
 619 03d4 FFF7FEFF 		bl	commands_printf
 620              	.LVL80:
 621              		.loc 1 135 0
 622 03d8 6068     		ldr	r0, [r4, #4]	@ float
 623 03da FFF7FEFF 		bl	__aeabi_f2d
 624              	.LVL81:
 625 03de 0246     		mov	r2, r0
 626 03e0 0B46     		mov	r3, r1
 627 03e2 4846     		mov	r0, r9
ARM GAS  /tmp/ccHCUo6g.s 			page 12


 628 03e4 FFF7FEFF 		bl	commands_printf
 629              	.LVL82:
 630              		.loc 1 136 0
 631 03e8 A068     		ldr	r0, [r4, #8]	@ float
 632 03ea FFF7FEFF 		bl	__aeabi_f2d
 633              	.LVL83:
 634 03ee 0246     		mov	r2, r0
 635 03f0 0B46     		mov	r3, r1
 636 03f2 8548     		ldr	r0, .L305+4
 637 03f4 FFF7FEFF 		bl	commands_printf
 638              	.LVL84:
 639              		.loc 1 137 0
 640 03f8 E068     		ldr	r0, [r4, #12]	@ float
 641 03fa FFF7FEFF 		bl	__aeabi_f2d
 642              	.LVL85:
 643 03fe 0246     		mov	r2, r0
 644 0400 0B46     		mov	r3, r1
 645 0402 8248     		ldr	r0, .L305+8
 646 0404 FFF7FEFF 		bl	commands_printf
 647              	.LVL86:
 648              		.loc 1 138 0
 649 0408 2069     		ldr	r0, [r4, #16]	@ float
 650 040a FFF7FEFF 		bl	__aeabi_f2d
 651              	.LVL87:
 652 040e 0246     		mov	r2, r0
 653 0410 0B46     		mov	r3, r1
 654 0412 7F48     		ldr	r0, .L305+12
 655 0414 FFF7FEFF 		bl	commands_printf
 656              	.LVL88:
 657              		.loc 1 139 0
 658 0418 6069     		ldr	r0, [r4, #20]	@ float
 659 041a FFF7FEFF 		bl	__aeabi_f2d
 660              	.LVL89:
 661 041e 0246     		mov	r2, r0
 662 0420 0B46     		mov	r3, r1
 663 0422 7C48     		ldr	r0, .L305+16
 664 0424 FFF7FEFF 		bl	commands_printf
 665              	.LVL90:
 666              		.loc 1 140 0
 667 0428 A069     		ldr	r0, [r4, #24]	@ float
 668 042a FFF7FEFF 		bl	__aeabi_f2d
 669              	.LVL91:
 670 042e 0246     		mov	r2, r0
 671 0430 0B46     		mov	r3, r1
 672 0432 7948     		ldr	r0, .L305+20
 673 0434 FFF7FEFF 		bl	commands_printf
 674              	.LVL92:
 675              		.loc 1 141 0
 676 0438 E069     		ldr	r0, [r4, #28]	@ float
 677 043a FFF7FEFF 		bl	__aeabi_f2d
 678              	.LVL93:
 679 043e 0246     		mov	r2, r0
 680 0440 0B46     		mov	r3, r1
 681 0442 7648     		ldr	r0, .L305+24
 682 0444 FFF7FEFF 		bl	commands_printf
 683              	.LVL94:
 684              		.loc 1 142 0
ARM GAS  /tmp/ccHCUo6g.s 			page 13


 685 0448 216A     		ldr	r1, [r4, #32]
 686 044a 7548     		ldr	r0, .L305+28
 687 044c FFF7FEFF 		bl	commands_printf
 688              	.LVL95:
 689              		.loc 1 146 0
 690 0450 A06A     		ldr	r0, [r4, #40]	@ float
 691 0452 FFF7FEFF 		bl	__aeabi_f2d
 692              	.LVL96:
 693 0456 0246     		mov	r2, r0
 694 0458 0B46     		mov	r3, r1
 695 045a 7248     		ldr	r0, .L305+32
 696 045c FFF7FEFF 		bl	commands_printf
 697              	.LVL97:
 698              		.loc 1 147 0
 699 0460 E06A     		ldr	r0, [r4, #44]	@ float
 700 0462 FFF7FEFF 		bl	__aeabi_f2d
 701              	.LVL98:
 702 0466 0246     		mov	r2, r0
 703 0468 0B46     		mov	r3, r1
 704 046a 6F48     		ldr	r0, .L305+36
 705 046c FFF7FEFF 		bl	commands_printf
 706              	.LVL99:
 707              		.loc 1 148 0
 708 0470 216B     		ldr	r1, [r4, #48]
 709 0472 6E48     		ldr	r0, .L305+40
 710 0474 FFF7FEFF 		bl	commands_printf
 711              	.LVL100:
 712              		.loc 1 149 0
 713 0478 616B     		ldr	r1, [r4, #52]
 714 047a 6D48     		ldr	r0, .L305+44
 715 047c FFF7FEFF 		bl	commands_printf
 716              	.LVL101:
 717              		.loc 1 150 0
 718 0480 D4ED107A 		vldr.32	s15, [r4, #64]	@ int
 719 0484 94ED0A7A 		vldr.32	s14, [r4, #40]
 720 0488 6A48     		ldr	r0, .L305+48
 721 048a F8EEE77A 		vcvt.f32.s32	s15, s15
 722 048e 67EE877A 		vmul.f32	s15, s15, s14
 723 0492 FDEEE77A 		vcvt.s32.f32	s15, s15
 724 0496 17EE901A 		vmov	r1, s15	@ int
 725 049a FFF7FEFF 		bl	commands_printf
 726              	.LVL102:
 727              		.loc 1 151 0
 728 049e A16B     		ldr	r1, [r4, #56]
 729 04a0 6548     		ldr	r0, .L305+52
 730 04a2 FFF7FEFF 		bl	commands_printf
 731              	.LVL103:
 732              		.loc 1 152 0
 733 04a6 E16B     		ldr	r1, [r4, #60]
 734 04a8 6448     		ldr	r0, .L305+56
 735 04aa FFF7FEFF 		bl	commands_printf
 736              	.LVL104:
 737              		.loc 1 153 0
 738 04ae 216C     		ldr	r1, [r4, #64]
 739 04b0 6348     		ldr	r0, .L305+60
 740 04b2 FFF7FEFF 		bl	commands_printf
 741              	.LVL105:
ARM GAS  /tmp/ccHCUo6g.s 			page 14


 742              		.loc 1 154 0
 743 04b6 616C     		ldr	r1, [r4, #68]
 744 04b8 6248     		ldr	r0, .L305+64
 745 04ba FFF7FEFF 		bl	commands_printf
 746              	.LVL106:
 747              		.loc 1 155 0
 748 04be A06C     		ldr	r0, [r4, #72]	@ float
 749 04c0 FFF7FEFF 		bl	__aeabi_f2d
 750              	.LVL107:
 751 04c4 0246     		mov	r2, r0
 752 04c6 0B46     		mov	r3, r1
 753 04c8 5F48     		ldr	r0, .L305+68
 754 04ca FFF7FEFF 		bl	commands_printf
 755              	.LVL108:
 756              		.loc 1 169 0
 757 04ce 7B5D     		ldrb	r3, [r7, r5]	@ zero_extendqisi2
 758 04d0 032B     		cmp	r3, #3
 759 04d2 7FF469AF 		bne	.L20
 760              		.loc 1 170 0
 761 04d6 E06C     		ldr	r0, [r4, #76]
 762 04d8 FFF7FEFF 		bl	drv8350_faults_to_string
 763              	.LVL109:
 764 04dc 0146     		mov	r1, r0
 765 04de 5B48     		ldr	r0, .L305+72
 766 04e0 FFF7FEFF 		bl	commands_printf
 767              	.LVL110:
 768 04e4 60E7     		b	.L20
 769              	.LVL111:
 770              	.L283:
 771              	.LBE90:
 772              		.loc 1 179 0
 773 04e6 FFF7FEFF 		bl	mc_interface_get_tachometer_value
 774              	.LVL112:
 775 04ea 0146     		mov	r1, r0
 776 04ec 5848     		ldr	r0, .L305+76
 777 04ee FFF7FEFF 		bl	commands_printf
 778              	.LVL113:
 779 04f2 F8E5     		b	.L1
 780              	.L282:
 781              		.loc 1 177 0
 782 04f4 FFF7FEFF 		bl	mc_interface_get_rpm
 783              	.LVL114:
 784 04f8 10EE100A 		vmov	r0, s0
 785 04fc FFF7FEFF 		bl	__aeabi_f2d
 786              	.LVL115:
 787 0500 0246     		mov	r2, r0
 788 0502 0B46     		mov	r3, r1
 789 0504 5348     		ldr	r0, .L305+80
 790 0506 FFF7FEFF 		bl	commands_printf
 791              	.LVL116:
 792 050a ECE5     		b	.L1
 793              	.L26:
 794              		.loc 1 256 0
 795 050c 5249     		ldr	r1, .L305+84
 796 050e 2846     		mov	r0, r5
 797 0510 FFF7FEFF 		bl	strcmp
 798              	.LVL117:
ARM GAS  /tmp/ccHCUo6g.s 			page 15


 799 0514 0028     		cmp	r0, #0
 800 0516 00F09D82 		beq	.L287
 801              		.loc 1 261 0
 802 051a 5049     		ldr	r1, .L305+88
 803 051c 2846     		mov	r0, r5
 804 051e FFF7FEFF 		bl	strcmp
 805              	.LVL118:
 806 0522 0646     		mov	r6, r0
 807 0524 0028     		cmp	r0, #0
 808 0526 00F00782 		beq	.L288
 809              		.loc 1 275 0
 810 052a 4D49     		ldr	r1, .L305+92
 811 052c 2846     		mov	r0, r5
 812 052e FFF7FEFF 		bl	strcmp
 813              	.LVL119:
 814 0532 0028     		cmp	r0, #0
 815 0534 40F07D81 		bne	.L46
 816              		.loc 1 276 0
 817 0538 022C     		cmp	r4, #2
 818 053a 00F02981 		beq	.L289
 819              	.L47:
 820              		.loc 1 304 0
 821 053e 4948     		ldr	r0, .L305+96
 822 0540 FFF7FEFF 		bl	commands_printf
 823              	.LVL120:
 824 0544 CFE5     		b	.L1
 825              	.L285:
 826              		.loc 1 206 0
 827 0546 484B     		ldr	r3, .L305+100
 828 0548 DFED486A 		vldr.32	s13, .L305+104
 829 054c DB8A     		ldrh	r3, [r3, #22]
 830 054e 9FED487A 		vldr.32	s14, .L305+108
 831 0552 07EE903A 		vmov	s15, r3	@ int
 832 0556 F8EE677A 		vcvt.f32.u32	s15, s15
 833 055a 67EEA67A 		vmul.f32	s15, s15, s13
 834 055e 67EE877A 		vmul.f32	s15, s15, s14
 835 0562 17EE900A 		vmov	r0, s15
 836 0566 FFF7FEFF 		bl	__aeabi_f2d
 837              	.LVL121:
 838 056a 0246     		mov	r2, r0
 839 056c 0B46     		mov	r3, r1
 840 056e 4148     		ldr	r0, .L305+112
 841 0570 FFF7FEFF 		bl	commands_printf
 842              	.LVL122:
 843 0574 B7E5     		b	.L1
 844              	.L284:
 845              	.LBB91:
 846              	.LBB92:
 847              	.LBB93:
 848              	.LBB94:
 849              	.LBB95:
 850              		.file 3 "ChibiOS_3.0.2/os/ext/CMSIS/include/core_cmFunc.h"
 851              		.loc 3 342 0
 852              		.syntax unified
 853              	@ 342 "ChibiOS_3.0.2/os/ext/CMSIS/include/core_cmFunc.h" 1
 854 0576 72B6     		cpsid i
 855              	@ 0 "" 2
ARM GAS  /tmp/ccHCUo6g.s 			page 16


 856              		.thumb
 857              		.syntax unified
 858              	.LBE95:
 859              	.LBE94:
 860              	.LBE93:
 861              	.LBE92:
 862              		.loc 1 182 0
 863 0578 3F4B     		ldr	r3, .L305+116
 864              		.loc 1 183 0
 865 057a 404A     		ldr	r2, .L305+120
 866              		.loc 1 182 0
 867 057c 596A     		ldr	r1, [r3, #36]
 868 057e 0E91     		str	r1, [sp, #56]
 869              		.loc 1 183 0
 870 0580 516A     		ldr	r1, [r2, #36]
 871 0582 0F91     		str	r1, [sp, #60]
 872              		.loc 1 184 0
 873 0584 1968     		ldr	r1, [r3]
 874 0586 C1F30011 		ubfx	r1, r1, #4, #1
 875 058a 1091     		str	r1, [sp, #64]
 876              		.loc 1 185 0
 877 058c 1168     		ldr	r1, [r2]
 878 058e C1F30011 		ubfx	r1, r1, #4, #1
 879 0592 1191     		str	r1, [sp, #68]
 880              	.LBB96:
 881              	.LBB97:
 882              	.LBB98:
 883              	.LBB99:
 884              	.LBB100:
 885              		.loc 3 331 0
 886              		.syntax unified
 887              	@ 331 "ChibiOS_3.0.2/os/ext/CMSIS/include/core_cmFunc.h" 1
 888 0594 62B6     		cpsie i
 889              	@ 0 "" 2
 890              		.thumb
 891              		.syntax unified
 892              	.LBE100:
 893              	.LBE99:
 894              	.LBE98:
 895              	.LBE97:
 896              	.LBE96:
 897              		.loc 1 194 0
 898 0596 3A48     		ldr	r0, .L305+124
 899              		.loc 1 187 0
 900 0598 D3F834A0 		ldr	r10, [r3, #52]
 901              	.LVL123:
 902              		.loc 1 188 0
 903 059c D3F83890 		ldr	r9, [r3, #56]
 904              	.LVL124:
 905              		.loc 1 189 0
 906 05a0 D3F83C80 		ldr	r8, [r3, #60]
 907              	.LVL125:
 908              		.loc 1 190 0
 909 05a4 DF6A     		ldr	r7, [r3, #44]
 910              	.LVL126:
 911              		.loc 1 191 0
 912 05a6 566B     		ldr	r6, [r2, #52]
ARM GAS  /tmp/ccHCUo6g.s 			page 17


 913              	.LVL127:
 914              		.loc 1 192 0
 915 05a8 1D6C     		ldr	r5, [r3, #64]
 916              	.LVL128:
 917              		.loc 1 193 0
 918 05aa 946B     		ldr	r4, [r2, #56]
 919              	.LVL129:
 920              		.loc 1 194 0
 921 05ac 0E99     		ldr	r1, [sp, #56]
 922 05ae FFF7FEFF 		bl	commands_printf
 923              	.LVL130:
 924              		.loc 1 195 0
 925 05b2 0F99     		ldr	r1, [sp, #60]
 926 05b4 3348     		ldr	r0, .L305+128
 927 05b6 FFF7FEFF 		bl	commands_printf
 928              	.LVL131:
 929              		.loc 1 196 0
 930 05ba 5146     		mov	r1, r10
 931 05bc 3248     		ldr	r0, .L305+132
 932 05be FFF7FEFF 		bl	commands_printf
 933              	.LVL132:
 934              		.loc 1 197 0
 935 05c2 4946     		mov	r1, r9
 936 05c4 3148     		ldr	r0, .L305+136
 937 05c6 FFF7FEFF 		bl	commands_printf
 938              	.LVL133:
 939              		.loc 1 198 0
 940 05ca 4146     		mov	r1, r8
 941 05cc 3048     		ldr	r0, .L305+140
 942 05ce FFF7FEFF 		bl	commands_printf
 943              	.LVL134:
 944              		.loc 1 199 0
 945 05d2 3946     		mov	r1, r7
 946 05d4 2F48     		ldr	r0, .L305+144
 947 05d6 FFF7FEFF 		bl	commands_printf
 948              	.LVL135:
 949              		.loc 1 200 0
 950 05da 1099     		ldr	r1, [sp, #64]
 951 05dc 2E48     		ldr	r0, .L305+148
 952 05de FFF7FEFF 		bl	commands_printf
 953              	.LVL136:
 954              		.loc 1 201 0
 955 05e2 1199     		ldr	r1, [sp, #68]
 956 05e4 2D48     		ldr	r0, .L305+152
 957 05e6 FFF7FEFF 		bl	commands_printf
 958              	.LVL137:
 959              		.loc 1 202 0
 960 05ea 3146     		mov	r1, r6
 961 05ec 2C48     		ldr	r0, .L305+156
 962 05ee FFF7FEFF 		bl	commands_printf
 963              	.LVL138:
 964              		.loc 1 203 0
 965 05f2 2946     		mov	r1, r5
 966 05f4 2B48     		ldr	r0, .L305+160
 967 05f6 FFF7FEFF 		bl	commands_printf
 968              	.LVL139:
 969              		.loc 1 204 0
ARM GAS  /tmp/ccHCUo6g.s 			page 18


 970 05fa 2146     		mov	r1, r4
 971 05fc 2A48     		ldr	r0, .L305+164
 972 05fe FFF7FEFF 		bl	commands_printf
 973              	.LVL140:
 974              	.LBE91:
 975 0602 70E5     		b	.L1
 976              	.L306:
 977              		.align	2
 978              	.L305:
 979 0604 18000000 		.word	.LC4
 980 0608 F8020000 		.word	.LC36
 981 060c 10030000 		.word	.LC37
 982 0610 28030000 		.word	.LC38
 983 0614 40030000 		.word	.LC39
 984 0618 58030000 		.word	.LC40
 985 061c 70030000 		.word	.LC41
 986 0620 88030000 		.word	.LC42
 987 0624 A0030000 		.word	.LC43
 988 0628 B8030000 		.word	.LC44
 989 062c D0030000 		.word	.LC45
 990 0630 E8030000 		.word	.LC46
 991 0634 00040000 		.word	.LC47
 992 0638 18040000 		.word	.LC48
 993 063c 30040000 		.word	.LC49
 994 0640 48040000 		.word	.LC50
 995 0644 60040000 		.word	.LC51
 996 0648 78040000 		.word	.LC52
 997 064c 90040000 		.word	.LC53
 998 0650 D0040000 		.word	.LC57
 999 0654 AC040000 		.word	.LC55
 1000 0658 24070000 		.word	.LC82
 1001 065c 80070000 		.word	.LC86
 1002 0660 5C080000 		.word	.LC94
 1003 0664 B8080000 		.word	.LC99
 1004 0668 00000000 		.word	ADC_Value
 1005 066c C07B523A 		.word	978484160
 1006 0670 BAE8B241 		.word	1102244026
 1007 0674 A8050000 		.word	.LC71
 1008 0678 00000140 		.word	1073807360
 1009 067c 00040140 		.word	1073808384
 1010 0680 EC040000 		.word	.LC59
 1011 0684 FC040000 		.word	.LC60
 1012 0688 0C050000 		.word	.LC61
 1013 068c 1C050000 		.word	.LC62
 1014 0690 2C050000 		.word	.LC63
 1015 0694 3C050000 		.word	.LC64
 1016 0698 44050000 		.word	.LC65
 1017 069c 50050000 		.word	.LC66
 1018 06a0 5C050000 		.word	.LC67
 1019 06a4 70050000 		.word	.LC68
 1020 06a8 88050000 		.word	.LC69
 1021              	.LVL141:
 1022              	.L286:
 1023              	.LBB101:
 1024              		.loc 1 213 0
 1025 06ac A64B     		ldr	r3, .L307
 1026              		.loc 1 216 0
ARM GAS  /tmp/ccHCUo6g.s 			page 19


 1027 06ae A749     		ldr	r1, .L307+4
 1028 06b0 1998     		ldr	r0, [sp, #100]
 1029              		.loc 1 213 0
 1030 06b2 0B93     		str	r3, [sp, #44]	@ float
 1031              		.loc 1 216 0
 1032 06b4 0BAA     		add	r2, sp, #44
 1033              		.loc 1 214 0
 1034 06b6 0C93     		str	r3, [sp, #48]	@ float
 1035              		.loc 1 215 0
 1036 06b8 0D93     		str	r3, [sp, #52]	@ float
 1037              		.loc 1 216 0
 1038 06ba FFF7FEFF 		bl	sscanf
 1039              	.LVL142:
 1040              		.loc 1 217 0
 1041 06be 0CAA     		add	r2, sp, #48
 1042 06c0 A249     		ldr	r1, .L307+4
 1043 06c2 1A98     		ldr	r0, [sp, #104]
 1044 06c4 FFF7FEFF 		bl	sscanf
 1045              	.LVL143:
 1046              		.loc 1 218 0
 1047 06c8 0DAA     		add	r2, sp, #52
 1048 06ca 1B98     		ldr	r0, [sp, #108]
 1049 06cc 9F49     		ldr	r1, .L307+4
 1050 06ce FFF7FEFF 		bl	sscanf
 1051              	.LVL144:
 1052              		.loc 1 220 0
 1053 06d2 9DED0B0A 		vldr.32	s0, [sp, #44]
 1054 06d6 B5EEC00A 		vcmpe.f32	s0, #0
 1055 06da F1EE10FA 		vmrs	APSR_nzcv, FPSCR
 1056 06de 7FF709AD 		ble	.L248
 1057              		.loc 1 220 0 is_stmt 0 discriminator 1
 1058 06e2 9B4B     		ldr	r3, .L307+8
 1059 06e4 D3ED017A 		vldr.32	s15, [r3, #4]
 1060 06e8 B4EEE70A 		vcmpe.f32	s0, s15
 1061 06ec F1EE10FA 		vmrs	APSR_nzcv, FPSCR
 1062 06f0 7FF500AD 		bpl	.L248
 1063              		.loc 1 221 0 is_stmt 1 discriminator 2
 1064 06f4 DDED0C0A 		vldr.32	s1, [sp, #48]
 1065              		.loc 1 220 0 discriminator 2
 1066 06f8 F2EE047A 		vmov.f32	s15, #1.0e+1
 1067 06fc F4EEE70A 		vcmpe.f32	s1, s15
 1068 0700 F1EE10FA 		vmrs	APSR_nzcv, FPSCR
 1069 0704 7FF7F6AC 		ble	.L248
 1070              		.loc 1 221 0
 1071 0708 DFED927A 		vldr.32	s15, .L307+12
 1072 070c F4EEE70A 		vcmpe.f32	s1, s15
 1073 0710 F1EE10FA 		vmrs	APSR_nzcv, FPSCR
 1074 0714 7FF5EEAC 		bpl	.L248
 1075              		.loc 1 222 0 discriminator 1
 1076 0718 9DED0D1A 		vldr.32	s2, [sp, #52]
 1077              		.loc 1 221 0 discriminator 1
 1078 071c DFED8E7A 		vldr.32	s15, .L307+16
 1079 0720 B4EEE71A 		vcmpe.f32	s2, s15
 1080 0724 F1EE10FA 		vmrs	APSR_nzcv, FPSCR
 1081 0728 7FF7E4AC 		ble	.L248
 1082              		.loc 1 222 0
 1083 072c DFED8B7A 		vldr.32	s15, .L307+20
ARM GAS  /tmp/ccHCUo6g.s 			page 20


 1084 0730 B4EEE71A 		vcmpe.f32	s2, s15
 1085 0734 F1EE10FA 		vmrs	APSR_nzcv, FPSCR
 1086 0738 7FF5DCAC 		bpl	.L248
 1087              	.LBB102:
 1088              		.loc 1 228 0
 1089 073c 10AB     		add	r3, sp, #64
 1090 073e 11AA     		add	r2, sp, #68
 1091 0740 0FA9     		add	r1, sp, #60
 1092 0742 0EA8     		add	r0, sp, #56
 1093 0744 FFF7FEFF 		bl	conf_general_detect_motor_param
 1094              	.LVL145:
 1095 0748 0028     		cmp	r0, #0
 1096 074a 00F03E82 		beq	.L35
 1097              		.loc 1 229 0
 1098 074e 0E98     		ldr	r0, [sp, #56]	@ float
 1099 0750 FFF7FEFF 		bl	__aeabi_f2d
 1100              	.LVL146:
 1101 0754 0246     		mov	r2, r0
 1102 0756 0B46     		mov	r3, r1
 1103 0758 8148     		ldr	r0, .L307+24
 1104 075a FFF7FEFF 		bl	commands_printf
 1105              	.LVL147:
 1106              		.loc 1 230 0
 1107 075e 0F98     		ldr	r0, [sp, #60]	@ float
 1108 0760 FFF7FEFF 		bl	__aeabi_f2d
 1109              	.LVL148:
 1110 0764 0246     		mov	r2, r0
 1111 0766 0B46     		mov	r3, r1
 1112 0768 7E48     		ldr	r0, .L307+28
 1113 076a FFF7FEFF 		bl	commands_printf
 1114              	.LVL149:
 1115              		.loc 1 232 0
 1116 076e 109B     		ldr	r3, [sp, #64]
 1117 0770 002B     		cmp	r3, #0
 1118 0772 00F00D82 		beq	.L290
 1119              		.loc 1 237 0
 1120 0776 591C     		adds	r1, r3, #1
 1121 0778 00F02C82 		beq	.L291
 1122              		.loc 1 242 0
 1123 077c 9A1C     		adds	r2, r3, #2
 1124 077e 00F00282 		beq	.L292
 1125              		.loc 1 244 0
 1126 0782 0333     		adds	r3, r3, #3
 1127 0784 7FF4AFAC 		bne	.L1
 1128              		.loc 1 245 0
 1129 0788 7748     		ldr	r0, .L307+32
 1130 078a FFF7FEFF 		bl	commands_printf
 1131              	.LVL150:
 1132 078e AAE4     		b	.L1
 1133              	.L289:
 1134              	.LBE102:
 1135              	.LBE101:
 1136              	.LBB105:
 1137              		.loc 1 277 0
 1138 0790 0FAE     		add	r6, sp, #60
 1139 0792 6D4B     		ldr	r3, .L307
 1140              		.loc 1 278 0
ARM GAS  /tmp/ccHCUo6g.s 			page 21


 1141 0794 1998     		ldr	r0, [sp, #100]
 1142 0796 6D49     		ldr	r1, .L307+4
 1143              		.loc 1 277 0
 1144 0798 0F93     		str	r3, [sp, #60]	@ float
 1145              		.loc 1 278 0
 1146 079a 3246     		mov	r2, r6
 1147 079c FFF7FEFF 		bl	sscanf
 1148              	.LVL151:
 1149              		.loc 1 280 0
 1150 07a0 D6ED007A 		vldr.32	s15, [r6]
 1151 07a4 F5EEC07A 		vcmpe.f32	s15, #0
 1152 07a8 F1EE10FA 		vmrs	APSR_nzcv, FPSCR
 1153 07ac 7FF7A2AC 		ble	.L248
 1154              		.loc 1 280 0 is_stmt 0 discriminator 1
 1155 07b0 674C     		ldr	r4, .L307+8
 1156              	.LVL152:
 1157 07b2 94ED017A 		vldr.32	s14, [r4, #4]
 1158 07b6 F4EEC77A 		vcmpe.f32	s15, s14
 1159 07ba F1EE10FA 		vmrs	APSR_nzcv, FPSCR
 1160 07be 3FF699AC 		bhi	.L248
 1161              		.loc 1 281 0 is_stmt 1
 1162 07c2 FFF7FEFF 		bl	encoder_is_configured
 1163              	.LVL153:
 1164 07c6 0028     		cmp	r0, #0
 1165 07c8 6DD0     		beq	.L51
 1166              	.LBB106:
 1167              		.loc 1 283 0
 1168 07ca 0223     		movs	r3, #2
 1169              		.loc 1 284 0
 1170 07cc 2046     		mov	r0, r4
 1171              		.loc 1 282 0
 1172 07ce A778     		ldrb	r7, [r4, #2]	@ zero_extendqisi2
 1173              	.LVL154:
 1174              		.loc 1 283 0
 1175 07d0 A370     		strb	r3, [r4, #2]
 1176              		.loc 1 286 0
 1177 07d2 0025     		movs	r5, #0
 1178              		.loc 1 284 0
 1179 07d4 FFF7FEFF 		bl	mc_interface_set_configuration
 1180              	.LVL155:
 1181              		.loc 1 289 0
 1182 07d8 96ED000A 		vldr.32	s0, [r6]
 1183              		.loc 1 286 0
 1184 07dc 1095     		str	r5, [sp, #64]	@ float
 1185              		.loc 1 289 0
 1186 07de 11AA     		add	r2, sp, #68
 1187 07e0 0EAB     		add	r3, sp, #56
 1188 07e2 10A9     		add	r1, sp, #64
 1189              		.loc 1 288 0
 1190 07e4 0026     		movs	r6, #0
 1191              		.loc 1 289 0
 1192 07e6 0120     		movs	r0, #1
 1193              		.loc 1 287 0
 1194 07e8 1195     		str	r5, [sp, #68]	@ float
 1195              		.loc 1 288 0
 1196 07ea 8DF83860 		strb	r6, [sp, #56]
 1197              		.loc 1 289 0
ARM GAS  /tmp/ccHCUo6g.s 			page 22


 1198 07ee FFF7FEFF 		bl	mcpwm_foc_encoder_detect
 1199              	.LVL156:
 1200              		.loc 1 292 0
 1201 07f2 2046     		mov	r0, r4
 1202              		.loc 1 291 0
 1203 07f4 A770     		strb	r7, [r4, #2]
 1204              		.loc 1 292 0
 1205 07f6 FFF7FEFF 		bl	mc_interface_set_configuration
 1206              	.LVL157:
 1207              		.loc 1 294 0
 1208 07fa 1098     		ldr	r0, [sp, #64]	@ float
 1209 07fc FFF7FEFF 		bl	__aeabi_f2d
 1210              	.LVL158:
 1211 0800 0246     		mov	r2, r0
 1212 0802 0B46     		mov	r3, r1
 1213 0804 5948     		ldr	r0, .L307+36
 1214 0806 FFF7FEFF 		bl	commands_printf
 1215              	.LVL159:
 1216              		.loc 1 295 0
 1217 080a 1198     		ldr	r0, [sp, #68]	@ float
 1218 080c FFF7FEFF 		bl	__aeabi_f2d
 1219              	.LVL160:
 1220 0810 0246     		mov	r2, r0
 1221 0812 0B46     		mov	r3, r1
 1222 0814 5648     		ldr	r0, .L307+40
 1223 0816 FFF7FEFF 		bl	commands_printf
 1224              	.LVL161:
 1225              		.loc 1 296 0
 1226 081a 9DF83810 		ldrb	r1, [sp, #56]	@ zero_extendqisi2
 1227 081e 554A     		ldr	r2, .L307+44
 1228 0820 554B     		ldr	r3, .L307+48
 1229 0822 5648     		ldr	r0, .L307+52
 1230 0824 B142     		cmp	r1, r6
 1231 0826 0CBF     		ite	eq
 1232 0828 1146     		moveq	r1, r2
 1233 082a 1946     		movne	r1, r3
 1234 082c FFF7FEFF 		bl	commands_printf
 1235              	.LVL162:
 1236              	.LBE106:
 1237 0830 59E4     		b	.L1
 1238              	.LVL163:
 1239              	.L46:
 1240              	.LBE105:
 1241              		.loc 1 306 0
 1242 0832 5349     		ldr	r1, .L307+56
 1243 0834 2846     		mov	r0, r5
 1244 0836 FFF7FEFF 		bl	strcmp
 1245              	.LVL164:
 1246 083a 0028     		cmp	r0, #0
 1247 083c 37D1     		bne	.L54
 1248              		.loc 1 307 0
 1249 083e 022C     		cmp	r4, #2
 1250 0840 7FF47DAE 		bne	.L47
 1251              	.LBB107:
 1252              		.loc 1 308 0
 1253 0844 11AD     		add	r5, sp, #68
 1254 0846 404B     		ldr	r3, .L307
ARM GAS  /tmp/ccHCUo6g.s 			page 23


 1255              		.loc 1 309 0
 1256 0848 1998     		ldr	r0, [sp, #100]
 1257 084a 4049     		ldr	r1, .L307+4
 1258              		.loc 1 308 0
 1259 084c 1193     		str	r3, [sp, #68]	@ float
 1260              		.loc 1 309 0
 1261 084e 2A46     		mov	r2, r5
 1262 0850 FFF7FEFF 		bl	sscanf
 1263              	.LVL165:
 1264              		.loc 1 311 0
 1265 0854 D5ED007A 		vldr.32	s15, [r5]
 1266 0858 F5EEC07A 		vcmpe.f32	s15, #0
 1267 085c F1EE10FA 		vmrs	APSR_nzcv, FPSCR
 1268 0860 7FF748AC 		ble	.L248
 1269              		.loc 1 311 0 is_stmt 0 discriminator 1
 1270 0864 3A4B     		ldr	r3, .L307+8
 1271 0866 93ED017A 		vldr.32	s14, [r3, #4]
 1272 086a F4EEC77A 		vcmpe.f32	s15, s14
 1273 086e F1EE10FA 		vmrs	APSR_nzcv, FPSCR
 1274 0872 3FF63FAC 		bhi	.L248
 1275              		.loc 1 312 0 is_stmt 1
 1276 0876 0222     		movs	r2, #2
 1277              		.loc 1 313 0
 1278 0878 1846     		mov	r0, r3
 1279              		.loc 1 312 0
 1280 087a 9A70     		strb	r2, [r3, #2]
 1281              		.loc 1 313 0
 1282 087c FFF7FEFF 		bl	mc_interface_set_configuration
 1283              	.LVL166:
 1284              		.loc 1 315 0
 1285 0880 4FF4FA60 		mov	r0, #2000
 1286 0884 95ED000A 		vldr.32	s0, [r5]
 1287 0888 FFF7FEFF 		bl	mcpwm_foc_measure_resistance
 1288              	.LVL167:
 1289 088c 10EE100A 		vmov	r0, s0
 1290 0890 FFF7FEFF 		bl	__aeabi_f2d
 1291              	.LVL168:
 1292 0894 0246     		mov	r2, r0
 1293 0896 0B46     		mov	r3, r1
 1294 0898 3A48     		ldr	r0, .L307+60
 1295 089a FFF7FEFF 		bl	commands_printf
 1296              	.LVL169:
 1297              		.loc 1 317 0
 1298 089e 3A48     		ldr	r0, .L307+64
 1299 08a0 FFF7FEFF 		bl	mc_interface_set_configuration
 1300              	.LVL170:
 1301 08a4 1FE4     		b	.L1
 1302              	.LVL171:
 1303              	.L51:
 1304              	.LBE107:
 1305              	.LBB108:
 1306              		.loc 1 298 0
 1307 08a6 3948     		ldr	r0, .L307+68
 1308 08a8 FFF7FEFF 		bl	commands_printf
 1309              	.LVL172:
 1310 08ac 1BE4     		b	.L1
 1311              	.LVL173:
ARM GAS  /tmp/ccHCUo6g.s 			page 24


 1312              	.L54:
 1313              	.LBE108:
 1314              		.loc 1 324 0
 1315 08ae 3849     		ldr	r1, .L307+72
 1316 08b0 2846     		mov	r0, r5
 1317 08b2 FFF7FEFF 		bl	strcmp
 1318              	.LVL174:
 1319 08b6 0028     		cmp	r0, #0
 1320 08b8 40F0E980 		bne	.L59
 1321              		.loc 1 325 0
 1322 08bc 022C     		cmp	r4, #2
 1323 08be 7FF43EAE 		bne	.L47
 1324              	.LBB109:
 1325              		.loc 1 326 0
 1326 08c2 214B     		ldr	r3, .L307
 1327              		.loc 1 327 0
 1328 08c4 1998     		ldr	r0, [sp, #100]
 1329 08c6 2149     		ldr	r1, .L307+4
 1330              		.loc 1 326 0
 1331 08c8 1093     		str	r3, [sp, #64]	@ float
 1332              		.loc 1 327 0
 1333 08ca 10AA     		add	r2, sp, #64
 1334 08cc FFF7FEFF 		bl	sscanf
 1335              	.LVL175:
 1336              		.loc 1 329 0
 1337 08d0 DDED107A 		vldr.32	s15, [sp, #64]
 1338 08d4 F5EEC07A 		vcmpe.f32	s15, #0
 1339 08d8 F1EE10FA 		vmrs	APSR_nzcv, FPSCR
 1340 08dc 7FF70AAC 		ble	.L248
 1341              		.loc 1 329 0 is_stmt 0 discriminator 1
 1342 08e0 9FED2C7A 		vldr.32	s14, .L307+76
 1343 08e4 F4EEC77A 		vcmpe.f32	s15, s14
 1344 08e8 F1EE10FA 		vmrs	APSR_nzcv, FPSCR
 1345 08ec 7FF502AC 		bpl	.L248
 1346              	.LBB110:
 1347              		.loc 1 330 0 is_stmt 1
 1348 08f0 174B     		ldr	r3, .L307+8
 1349              		.loc 1 331 0
 1350 08f2 294A     		ldr	r2, .L307+80
 1351 08f4 C3F8B420 		str	r2, [r3, #180]	@ float
 1352              		.loc 1 332 0
 1353 08f8 1846     		mov	r0, r3
 1354              		.loc 1 330 0
 1355 08fa 0221     		movs	r1, #2
 1356 08fc 9970     		strb	r1, [r3, #2]
 1357              		.loc 1 332 0
 1358 08fe FFF7FEFF 		bl	mc_interface_set_configuration
 1359              	.LVL176:
 1360              		.loc 1 335 0
 1361 0902 11A9     		add	r1, sp, #68
 1362 0904 C820     		movs	r0, #200
 1363 0906 9DED100A 		vldr.32	s0, [sp, #64]
 1364 090a FFF7FEFF 		bl	mcpwm_foc_measure_inductance
 1365              	.LVL177:
 1366              		.loc 1 336 0
 1367 090e 10EE100A 		vmov	r0, s0
 1368 0912 FFF7FEFF 		bl	__aeabi_f2d
ARM GAS  /tmp/ccHCUo6g.s 			page 25


 1369              	.LVL178:
 1370 0916 0446     		mov	r4, r0
 1371              	.LVL179:
 1372 0918 1198     		ldr	r0, [sp, #68]	@ float
 1373 091a 0D46     		mov	r5, r1
 1374 091c FFF7FEFF 		bl	__aeabi_f2d
 1375              	.LVL180:
 1376 0920 2246     		mov	r2, r4
 1377 0922 CDE90001 		strd	r0, [sp]
 1378 0926 2B46     		mov	r3, r5
 1379 0928 1C48     		ldr	r0, .L307+84
 1380 092a FFF7FEFF 		bl	commands_printf
 1381              	.LVL181:
 1382              		.loc 1 338 0
 1383 092e 1648     		ldr	r0, .L307+64
 1384 0930 FFF7FEFF 		bl	mc_interface_set_configuration
 1385              	.LVL182:
 1386              	.LBE110:
 1387              		.loc 1 329 0
 1388 0934 FFF7D7BB 		b	.L1
 1389              	.LVL183:
 1390              	.L288:
 1391              	.LBE109:
 1392              		.loc 1 262 0
 1393 0938 1948     		ldr	r0, .L307+88
 1394              	.LBB111:
 1395              	.LBB112:
 1396              	.LBB113:
 1397              	.LBB114:
 1398              	.LBB115:
 1399              	.LBB116:
 1400              		.loc 2 231 0
 1401 093a 1A4D     		ldr	r5, .L307+92
 1402              	.LBE116:
 1403              	.LBE115:
 1404              	.LBE114:
 1405              	.LBE113:
 1406              		.loc 1 266 0
 1407 093c 9FED1A8A 		vldr.32	s16, .L307+96
 1408              		.loc 1 267 0
 1409 0940 1A4F     		ldr	r7, .L307+100
 1410              	.LBE112:
 1411              	.LBE111:
 1412              		.loc 1 262 0
 1413 0942 FFF7FEFF 		bl	commands_printf
 1414              	.LVL184:
 1415 0946 36E0     		b	.L45
 1416              	.L308:
 1417              		.align	2
 1418              	.L307:
 1419 0948 000080BF 		.word	-1082130432
 1420 094c 50000000 		.word	.LC9
 1421 0950 00000000 		.word	.LANCHOR0
 1422 0954 00803B45 		.word	1161527296
 1423 0958 0AD7A33C 		.word	1017370378
 1424 095c CDCC4C3F 		.word	1061997773
 1425 0960 D0050000 		.word	.LC73
ARM GAS  /tmp/ccHCUo6g.s 			page 26


 1426 0964 F0050000 		.word	.LC74
 1427 0968 94060000 		.word	.LC79
 1428 096c 70080000 		.word	.LC95
 1429 0970 80080000 		.word	.LC96
 1430 0974 08000000 		.word	.LC1
 1431 0978 00000000 		.word	.LC0
 1432 097c 90080000 		.word	.LC97
 1433 0980 E0080000 		.word	.LC100
 1434 0984 EC080000 		.word	.LC101
 1435 0988 00000000 		.word	.LANCHOR1
 1436 098c A0080000 		.word	.LC98
 1437 0990 04090000 		.word	.LC102
 1438 0994 6666663F 		.word	1063675494
 1439 0998 00803B45 		.word	1161527296
 1440 099c 10090000 		.word	.LC103
 1441 09a0 8C070000 		.word	.LC87
 1442 09a4 00000000 		.word	ch
 1443 09a8 00401C46 		.word	1176256512
 1444 09ac BC070000 		.word	.LC88
 1445              	.LVL185:
 1446              	.L43:
 1447              	.LBB129:
 1448              		.loc 1 263 0 discriminator 2
 1449 09b0 0A2E     		cmp	r6, #10
 1450 09b2 3FF498AB 		beq	.L1
 1451              	.LVL186:
 1452              	.L45:
 1453              	.LBB127:
 1454              		.loc 1 264 0
 1455 09b6 3046     		mov	r0, r6
 1456 09b8 FFF7FEFF 		bl	comm_can_get_status_msg_index
 1457              	.LVL187:
 1458              		.loc 1 266 0
 1459 09bc 0168     		ldr	r1, [r0]
 1460 09be 0029     		cmp	r1, #0
 1461              		.loc 1 264 0
 1462 09c0 0446     		mov	r4, r0
 1463              	.LVL188:
 1464              		.loc 1 266 0
 1465 09c2 B7EE007A 		vmov.f32	s14, #1.0e+0
 1466              	.LBE127:
 1467              		.loc 1 263 0
 1468 09c6 06F10106 		add	r6, r6, #1
 1469              	.LVL189:
 1470              	.LBB128:
 1471              		.loc 1 266 0
 1472 09ca F1DB     		blt	.L43
 1473              	.LBB120:
 1474              	.LBB119:
 1475              	.LBB118:
 1476              	.LBB117:
 1477              		.loc 2 231 0 discriminator 1
 1478 09cc AB6A     		ldr	r3, [r5, #40]
 1479              	.LVL190:
 1480              	.LBE117:
 1481              	.LBE118:
 1482              		.loc 2 267 0 discriminator 1
ARM GAS  /tmp/ccHCUo6g.s 			page 27


 1483 09ce 4268     		ldr	r2, [r0, #4]
 1484 09d0 9B1A     		subs	r3, r3, r2
 1485              	.LBE119:
 1486              	.LBE120:
 1487              		.loc 1 266 0 discriminator 1
 1488 09d2 07EE903A 		vmov	s15, r3	@ int
 1489 09d6 F8EE677A 		vcvt.f32.u32	s15, s15
 1490 09da C7EE886A 		vdiv.f32	s13, s15, s16
 1491 09de F4EEC76A 		vcmpe.f32	s13, s14
 1492 09e2 F1EE10FA 		vmrs	APSR_nzcv, FPSCR
 1493 09e6 E3D5     		bpl	.L43
 1494              		.loc 1 267 0
 1495 09e8 3846     		mov	r0, r7
 1496              	.LVL191:
 1497 09ea FFF7FEFF 		bl	commands_printf
 1498              	.LVL192:
 1499              		.loc 1 268 0
 1500 09ee 6168     		ldr	r1, [r4, #4]
 1501 09f0 C748     		ldr	r0, .L309+8
 1502 09f2 FFF7FEFF 		bl	commands_printf
 1503              	.LVL193:
 1504              	.LBB121:
 1505              	.LBB122:
 1506              		.loc 2 267 0
 1507 09f6 6268     		ldr	r2, [r4, #4]
 1508              	.LBB123:
 1509              	.LBB124:
 1510              		.loc 2 231 0
 1511 09f8 AB6A     		ldr	r3, [r5, #40]
 1512              	.LVL194:
 1513              	.LBE124:
 1514              	.LBE123:
 1515              	.LBE122:
 1516              	.LBE121:
 1517              		.loc 1 269 0
 1518 09fa 9FEDC67A 		vldr.32	s14, .L309+12
 1519              	.LBB126:
 1520              	.LBB125:
 1521              		.loc 2 267 0
 1522 09fe 9B1A     		subs	r3, r3, r2
 1523              	.LBE125:
 1524              	.LBE126:
 1525              		.loc 1 269 0
 1526 0a00 07EE903A 		vmov	s15, r3	@ int
 1527 0a04 F8EE677A 		vcvt.f32.u32	s15, s15
 1528 0a08 C7EE886A 		vdiv.f32	s13, s15, s16
 1529 0a0c 66EE877A 		vmul.f32	s15, s13, s14
 1530 0a10 17EE900A 		vmov	r0, s15
 1531 0a14 FFF7FEFF 		bl	__aeabi_f2d
 1532              	.LVL195:
 1533 0a18 0246     		mov	r2, r0
 1534 0a1a 0B46     		mov	r3, r1
 1535 0a1c BE48     		ldr	r0, .L309+16
 1536 0a1e FFF7FEFF 		bl	commands_printf
 1537              	.LVL196:
 1538              		.loc 1 270 0
 1539 0a22 A068     		ldr	r0, [r4, #8]	@ float
ARM GAS  /tmp/ccHCUo6g.s 			page 28


 1540 0a24 FFF7FEFF 		bl	__aeabi_f2d
 1541              	.LVL197:
 1542 0a28 0246     		mov	r2, r0
 1543 0a2a 0B46     		mov	r3, r1
 1544 0a2c BB48     		ldr	r0, .L309+20
 1545 0a2e FFF7FEFF 		bl	commands_printf
 1546              	.LVL198:
 1547              		.loc 1 271 0
 1548 0a32 E068     		ldr	r0, [r4, #12]	@ float
 1549 0a34 FFF7FEFF 		bl	__aeabi_f2d
 1550              	.LVL199:
 1551 0a38 0246     		mov	r2, r0
 1552 0a3a 0B46     		mov	r3, r1
 1553 0a3c B848     		ldr	r0, .L309+24
 1554 0a3e FFF7FEFF 		bl	commands_printf
 1555              	.LVL200:
 1556              		.loc 1 272 0
 1557 0a42 2069     		ldr	r0, [r4, #16]	@ float
 1558 0a44 FFF7FEFF 		bl	__aeabi_f2d
 1559              	.LVL201:
 1560 0a48 0246     		mov	r2, r0
 1561 0a4a 0B46     		mov	r3, r1
 1562 0a4c B548     		ldr	r0, .L309+28
 1563 0a4e FFF7FEFF 		bl	commands_printf
 1564              	.LVL202:
 1565 0a52 ADE7     		b	.L43
 1566              	.LVL203:
 1567              	.L287:
 1568              	.LBE128:
 1569              	.LBE129:
 1570              	.LBB130:
 1571              		.loc 1 257 0 discriminator 9
 1572 0a54 11A8     		add	r0, sp, #68
 1573 0a56 FFF7FEFF 		bl	mcpwm_get_rpm_dep
 1574              	.LVL204:
 1575              		.loc 1 258 0 discriminator 9
 1576 0a5a 1198     		ldr	r0, [sp, #68]	@ float
 1577 0a5c FFF7FEFF 		bl	__aeabi_f2d
 1578              	.LVL205:
 1579 0a60 0246     		mov	r2, r0
 1580 0a62 0B46     		mov	r3, r1
 1581 0a64 B048     		ldr	r0, .L309+32
 1582 0a66 FFF7FEFF 		bl	commands_printf
 1583              	.LVL206:
 1584              		.loc 1 259 0 discriminator 9
 1585 0a6a 1298     		ldr	r0, [sp, #72]	@ float
 1586 0a6c FFF7FEFF 		bl	__aeabi_f2d
 1587              	.LVL207:
 1588 0a70 0246     		mov	r2, r0
 1589 0a72 0B46     		mov	r3, r1
 1590 0a74 AD48     		ldr	r0, .L309+36
 1591 0a76 FFF7FEFF 		bl	commands_printf
 1592              	.LVL208:
 1593              		.loc 1 260 0 discriminator 9
 1594 0a7a 1398     		ldr	r0, [sp, #76]	@ float
 1595 0a7c FFF7FEFF 		bl	__aeabi_f2d
 1596              	.LVL209:
ARM GAS  /tmp/ccHCUo6g.s 			page 29


 1597 0a80 0246     		mov	r2, r0
 1598 0a82 0B46     		mov	r3, r1
 1599 0a84 AA48     		ldr	r0, .L309+40
 1600 0a86 FFF7FEFF 		bl	commands_printf
 1601              	.LVL210:
 1602              	.LBE130:
 1603 0a8a FFF72CBB 		b	.L1
 1604              	.L59:
 1605              		.loc 1 345 0
 1606 0a8e A949     		ldr	r1, .L309+44
 1607 0a90 2846     		mov	r0, r5
 1608 0a92 FFF7FEFF 		bl	strcmp
 1609              	.LVL211:
 1610 0a96 0028     		cmp	r0, #0
 1611 0a98 40F09E80 		bne	.L64
 1612              		.loc 1 346 0
 1613 0a9c 042C     		cmp	r4, #4
 1614 0a9e 7FF44EAD 		bne	.L47
 1615              	.LBB131:
 1616              		.loc 1 347 0
 1617 0aa2 A54B     		ldr	r3, .L309+48
 1618              		.loc 1 350 0
 1619 0aa4 A549     		ldr	r1, .L309+52
 1620 0aa6 1998     		ldr	r0, [sp, #100]
 1621              		.loc 1 347 0
 1622 0aa8 0C93     		str	r3, [sp, #48]	@ float
 1623              		.loc 1 350 0
 1624 0aaa 0CAA     		add	r2, sp, #48
 1625              		.loc 1 348 0
 1626 0aac 0D93     		str	r3, [sp, #52]	@ float
 1627              		.loc 1 349 0
 1628 0aae 0E93     		str	r3, [sp, #56]	@ float
 1629              		.loc 1 350 0
 1630 0ab0 FFF7FEFF 		bl	sscanf
 1631              	.LVL212:
 1632              		.loc 1 351 0
 1633 0ab4 0DAA     		add	r2, sp, #52
 1634 0ab6 A149     		ldr	r1, .L309+52
 1635 0ab8 1A98     		ldr	r0, [sp, #104]
 1636 0aba FFF7FEFF 		bl	sscanf
 1637              	.LVL213:
 1638              		.loc 1 352 0
 1639 0abe 0EAA     		add	r2, sp, #56
 1640 0ac0 1B98     		ldr	r0, [sp, #108]
 1641 0ac2 9E49     		ldr	r1, .L309+52
 1642 0ac4 FFF7FEFF 		bl	sscanf
 1643              	.LVL214:
 1644              		.loc 1 354 0
 1645 0ac8 DDED0C7A 		vldr.32	s15, [sp, #48]
 1646 0acc F5EEC07A 		vcmpe.f32	s15, #0
 1647 0ad0 F1EE10FA 		vmrs	APSR_nzcv, FPSCR
 1648 0ad4 7FF70EAB 		ble	.L248
 1649              		.loc 1 354 0 is_stmt 0 discriminator 1
 1650 0ad8 9FED997A 		vldr.32	s14, .L309+56
 1651 0adc F4EEC77A 		vcmpe.f32	s15, s14
 1652 0ae0 F1EE10FA 		vmrs	APSR_nzcv, FPSCR
 1653 0ae4 7FF506AB 		bpl	.L248
ARM GAS  /tmp/ccHCUo6g.s 			page 30


 1654              		.loc 1 354 0 discriminator 2
 1655 0ae8 DDED0D7A 		vldr.32	s15, [sp, #52]
 1656 0aec F5EEC07A 		vcmpe.f32	s15, #0
 1657 0af0 F1EE10FA 		vmrs	APSR_nzcv, FPSCR
 1658 0af4 FFF6FEAA 		blt	.L248
 1659              		.loc 1 354 0 discriminator 3
 1660 0af8 DDED0E7A 		vldr.32	s15, [sp, #56]
 1661 0afc F5EEC07A 		vcmpe.f32	s15, #0
 1662 0b00 F1EE10FA 		vmrs	APSR_nzcv, FPSCR
 1663 0b04 FFF6F6AA 		blt	.L248
 1664              	.LBB132:
 1665              		.loc 1 355 0 is_stmt 1
 1666 0b08 8E4B     		ldr	r3, .L309+60
 1667 0b0a 0222     		movs	r2, #2
 1668              		.loc 1 359 0
 1669 0b0c 1846     		mov	r0, r3
 1670              		.loc 1 355 0
 1671 0b0e 9A70     		strb	r2, [r3, #2]
 1672              		.loc 1 359 0
 1673 0b10 FFF7FEFF 		bl	mc_interface_set_configuration
 1674              	.LVL215:
 1675              		.loc 1 364 0
 1676 0b14 DDED0D7A 		vldr.32	s15, [sp, #52]
 1677 0b18 DDED0C0A 		vldr.32	s1, [sp, #48]
 1678 0b1c 9DED0E0A 		vldr.32	s0, [sp, #56]
 1679 0b20 FDEEE77A 		vcvt.s32.f32	s15, s15
 1680 0b24 11AB     		add	r3, sp, #68
 1681 0b26 17EE900A 		vmov	r0, s15	@ int
 1682 0b2a 10AA     		add	r2, sp, #64
 1683 0b2c 0FA9     		add	r1, sp, #60
 1684 0b2e FFF7FEFF 		bl	mcpwm_foc_measure_inductance2
 1685              	.LVL216:
 1686              		.loc 1 365 0
 1687 0b32 10EE100A 		vmov	r0, s0
 1688 0b36 FFF7FEFF 		bl	__aeabi_f2d
 1689              	.LVL217:
 1690 0b3a 0446     		mov	r4, r0
 1691              	.LVL218:
 1692 0b3c 1198     		ldr	r0, [sp, #68]	@ float
 1693 0b3e 0D46     		mov	r5, r1
 1694 0b40 FFF7FEFF 		bl	__aeabi_f2d
 1695              	.LVL219:
 1696 0b44 70A3     		adr	r3, .L309
 1697 0b46 D3E90023 		ldrd	r2, [r3]
 1698 0b4a FFF7FEFF 		bl	__aeabi_dmul
 1699              	.LVL220:
 1700 0b4e CDE90601 		strd	r0, [sp, #24]
 1701 0b52 1098     		ldr	r0, [sp, #64]	@ float
 1702 0b54 FFF7FEFF 		bl	__aeabi_f2d
 1703              	.LVL221:
 1704 0b58 CDE90401 		strd	r0, [sp, #16]
 1705 0b5c 0F98     		ldr	r0, [sp, #60]	@ float
 1706 0b5e FFF7FEFF 		bl	__aeabi_f2d
 1707              	.LVL222:
 1708 0b62 CDE90201 		strd	r0, [sp, #8]
 1709 0b66 0C98     		ldr	r0, [sp, #48]	@ float
 1710 0b68 FFF7FEFF 		bl	__aeabi_f2d
ARM GAS  /tmp/ccHCUo6g.s 			page 31


 1711              	.LVL223:
 1712 0b6c 0022     		movs	r2, #0
 1713 0b6e 764B     		ldr	r3, .L309+64
 1714 0b70 FFF7FEFF 		bl	__aeabi_dmul
 1715              	.LVL224:
 1716 0b74 2246     		mov	r2, r4
 1717 0b76 CDE90001 		strd	r0, [sp]
 1718 0b7a 2B46     		mov	r3, r5
 1719 0b7c 7348     		ldr	r0, .L309+68
 1720 0b7e FFF7FEFF 		bl	commands_printf
 1721              	.LVL225:
 1722              	.LBE132:
 1723              		.loc 1 354 0
 1724 0b82 FFF7B0BA 		b	.L1
 1725              	.LVL226:
 1726              	.L292:
 1727              	.LBE131:
 1728              	.LBB133:
 1729              	.LBB103:
 1730              		.loc 1 243 0
 1731 0b86 7248     		ldr	r0, .L309+72
 1732 0b88 FFF7FEFF 		bl	commands_printf
 1733              	.LVL227:
 1734 0b8c FFF7ABBA 		b	.L1
 1735              	.L290:
 1736              		.loc 1 233 0
 1737 0b90 7048     		ldr	r0, .L309+76
 1738              	.L251:
 1739              		.loc 1 238 0
 1740 0b92 FFF7FEFF 		bl	commands_printf
 1741              	.LVL228:
 1742              		.loc 1 239 0
 1743 0b96 9DF94B40 		ldrsb	r4, [sp, #75]
 1744              	.LVL229:
 1745 0b9a 9DF94A00 		ldrsb	r0, [sp, #74]
 1746 0b9e 0494     		str	r4, [sp, #16]
 1747 0ba0 9DF94950 		ldrsb	r5, [sp, #73]
 1748 0ba4 9DF94840 		ldrsb	r4, [sp, #72]
 1749 0ba8 0390     		str	r0, [sp, #12]
 1750 0baa 9DF94700 		ldrsb	r0, [sp, #71]
 1751 0bae 0090     		str	r0, [sp]
 1752 0bb0 9DF94630 		ldrsb	r3, [sp, #70]
 1753 0bb4 9DF94520 		ldrsb	r2, [sp, #69]
 1754 0bb8 9DF94410 		ldrsb	r1, [sp, #68]
 1755 0bbc 6648     		ldr	r0, .L309+80
 1756 0bbe CDE90145 		strd	r4, r5, [sp, #4]
 1757 0bc2 FFF7FEFF 		bl	commands_printf
 1758              	.LVL230:
 1759 0bc6 FFF78EBA 		b	.L1
 1760              	.LVL231:
 1761              	.L35:
 1762              		.loc 1 248 0
 1763 0bca 6448     		ldr	r0, .L309+84
 1764 0bcc FFF7FEFF 		bl	commands_printf
 1765              	.LVL232:
 1766              	.LBE103:
 1767              		.loc 1 222 0
ARM GAS  /tmp/ccHCUo6g.s 			page 32


 1768 0bd0 FFF789BA 		b	.L1
 1769              	.L291:
 1770              	.LBB104:
 1771              		.loc 1 238 0
 1772 0bd4 6248     		ldr	r0, .L309+88
 1773 0bd6 DCE7     		b	.L251
 1774              	.L64:
 1775              	.LBE104:
 1776              	.LBE133:
 1777              		.loc 1 375 0
 1778 0bd8 6249     		ldr	r1, .L309+92
 1779 0bda 2846     		mov	r0, r5
 1780 0bdc FFF7FEFF 		bl	strcmp
 1781              	.LVL233:
 1782 0be0 38B9     		cbnz	r0, .L71
 1783              		.loc 1 376 0
 1784 0be2 052C     		cmp	r4, #5
 1785 0be4 00F0CE80 		beq	.L293
 1786              	.L72:
 1787              		.loc 1 394 0
 1788 0be8 5F48     		ldr	r0, .L309+96
 1789 0bea FFF7FEFF 		bl	commands_printf
 1790              	.LVL234:
 1791 0bee FFF77ABA 		b	.L1
 1792              	.L71:
 1793              		.loc 1 396 0
 1794 0bf2 5E49     		ldr	r1, .L309+100
 1795 0bf4 2846     		mov	r0, r5
 1796 0bf6 FFF7FEFF 		bl	strcmp
 1797              	.LVL235:
 1798 0bfa 0028     		cmp	r0, #0
 1799 0bfc 00F06581 		beq	.L294
 1800              		.loc 1 407 0
 1801 0c00 5B49     		ldr	r1, .L309+104
 1802 0c02 2846     		mov	r0, r5
 1803 0c04 FFF7FEFF 		bl	strcmp
 1804              	.LVL236:
 1805 0c08 0646     		mov	r6, r0
 1806 0c0a 0028     		cmp	r0, #0
 1807 0c0c 40F00B81 		bne	.L81
 1808              		.loc 1 408 0
 1809 0c10 022C     		cmp	r4, #2
 1810 0c12 7FF494AC 		bne	.L47
 1811              	.LBB134:
 1812              		.loc 1 409 0
 1813 0c16 11AD     		add	r5, sp, #68
 1814 0c18 474B     		ldr	r3, .L309+48
 1815              		.loc 1 410 0
 1816 0c1a 1998     		ldr	r0, [sp, #100]
 1817 0c1c 4749     		ldr	r1, .L309+52
 1818              		.loc 1 409 0
 1819 0c1e 2B60     		str	r3, [r5]	@ float
 1820              		.loc 1 410 0
 1821 0c20 2A46     		mov	r2, r5
 1822 0c22 FFF7FEFF 		bl	sscanf
 1823              	.LVL237:
 1824              		.loc 1 412 0
ARM GAS  /tmp/ccHCUo6g.s 			page 33


 1825 0c26 D5ED007A 		vldr.32	s15, [r5]
 1826 0c2a F5EEC07A 		vcmpe.f32	s15, #0
 1827 0c2e F1EE10FA 		vmrs	APSR_nzcv, FPSCR
 1828 0c32 7FF75FAA 		ble	.L248
 1829              	.LBB135:
 1830              		.loc 1 413 0
 1831 0c36 434F     		ldr	r7, .L309+60
 1832              	.LBB136:
 1833              		.loc 1 424 0
 1834 0c38 9FED4E8A 		vldr.32	s16, .L309+108
 1835              	.LBE136:
 1836              		.loc 1 413 0
 1837 0c3c BC70     		strb	r4, [r7, #2]
 1838              		.loc 1 414 0
 1839 0c3e 3846     		mov	r0, r7
 1840 0c40 FFF7FEFF 		bl	mc_interface_set_configuration
 1841              	.LVL238:
 1842              		.loc 1 415 0
 1843 0c44 97ED389A 		vldr.32	s18, [r7, #224]
 1844 0c48 F7EE087A 		vmov.f32	s15, #1.5e+0
 1845 0c4c 29EE279A 		vmul.f32	s18, s18, s15
 1846              	.LVL239:
 1847              		.loc 1 418 0
 1848 0c50 FFF7FEFF 		bl	timeout_get_timeout_msec
 1849              	.LVL240:
 1850 0c54 0746     		mov	r7, r0
 1851              	.LVL241:
 1852              		.loc 1 419 0
 1853 0c56 FFF7FEFF 		bl	timeout_get_brake_current
 1854              	.LVL242:
 1855 0c5a F0EE40AA 		vmov.f32	s21, s0
 1856              	.LVL243:
 1857              		.loc 1 420 0
 1858 0c5e FFF7FEFF 		bl	timeout_reset
 1859              	.LVL244:
 1860              		.loc 1 421 0
 1861 0c62 9FED450A 		vldr.32	s0, .L309+112
 1862 0c66 4EF66020 		movw	r0, #60000
 1863 0c6a FFF7FEFF 		bl	timeout_configure
 1864              	.LVL245:
 1865              	.L84:
 1866              	.LBB137:
 1867              		.loc 1 424 0 discriminator 3
 1868 0c6e 07EE906A 		vmov	s15, r6	@ int
 1869 0c72 B8EEE77A 		vcvt.f32.s32	s14, s15
 1870 0c76 D5ED007A 		vldr.32	s15, [r5]
 1871 0c7a 87EE080A 		vdiv.f32	s0, s14, s16
 1872              		.loc 1 423 0 discriminator 3
 1873 0c7e 0136     		adds	r6, r6, #1
 1874              	.LVL246:
 1875              		.loc 1 424 0 discriminator 3
 1876 0c80 20EE270A 		vmul.f32	s0, s0, s15
 1877 0c84 FFF7FEFF 		bl	mc_interface_set_duty
 1878              	.LVL247:
 1879              		.loc 1 425 0 discriminator 3
 1880 0c88 C820     		movs	r0, #200
 1881 0c8a FFF7FEFF 		bl	chThdSleep
ARM GAS  /tmp/ccHCUo6g.s 			page 34


 1882              	.LVL248:
 1883              		.loc 1 423 0 discriminator 3
 1884 0c8e 642E     		cmp	r6, #100
 1885 0c90 EDD1     		bne	.L84
 1886              	.LBE137:
 1887              		.loc 1 431 0
 1888 0c92 9FED398A 		vldr.32	s16, .L309+112
 1889              	.LBB138:
 1890 0c96 4FF47A74 		mov	r4, #1000
 1891              	.LVL249:
 1892              	.LBE138:
 1893              		.loc 1 430 0
 1894 0c9a F0EE488A 		vmov.f32	s17, s16
 1895              		.loc 1 429 0
 1896 0c9e F0EE489A 		vmov.f32	s19, s16
 1897              		.loc 1 428 0
 1898 0ca2 B0EE48AA 		vmov.f32	s20, s16
 1899              	.LBB139:
 1900              		.loc 1 436 0
 1901 0ca6 B7EE00BA 		vmov.f32	s22, #1.0e+0
 1902              	.L85:
 1903              	.LVL250:
 1904              		.loc 1 433 0 discriminator 3
 1905 0caa FFF7FEFF 		bl	mcpwm_foc_get_vq
 1906              	.LVL251:
 1907 0cae 3AEE00AA 		vadd.f32	s20, s20, s0
 1908              	.LVL252:
 1909              		.loc 1 434 0 discriminator 3
 1910 0cb2 FFF7FEFF 		bl	mc_interface_get_rpm
 1911              	.LVL253:
 1912 0cb6 79EE809A 		vadd.f32	s19, s19, s0
 1913              	.LVL254:
 1914              		.loc 1 435 0 discriminator 3
 1915 0cba FFF7FEFF 		bl	mc_interface_get_tot_current_directional
 1916              	.LVL255:
 1917              		.loc 1 437 0 discriminator 3
 1918 0cbe 0A20     		movs	r0, #10
 1919              		.loc 1 435 0 discriminator 3
 1920 0cc0 38EE008A 		vadd.f32	s16, s16, s0
 1921              	.LVL256:
 1922              		.loc 1 437 0 discriminator 3
 1923 0cc4 FFF7FEFF 		bl	chThdSleep
 1924              	.LVL257:
 1925              		.loc 1 432 0 discriminator 3
 1926 0cc8 013C     		subs	r4, r4, #1
 1927              	.LVL258:
 1928              		.loc 1 436 0 discriminator 3
 1929 0cca 78EE8B8A 		vadd.f32	s17, s17, s22
 1930              	.LVL259:
 1931              		.loc 1 432 0 discriminator 3
 1932 0cce ECD1     		bne	.L85
 1933              	.LBE139:
 1934              		.loc 1 440 0
 1935 0cd0 FFF7FEFF 		bl	mc_interface_release_motor
 1936              	.LVL260:
 1937              		.loc 1 441 0
 1938 0cd4 2948     		ldr	r0, .L309+116
ARM GAS  /tmp/ccHCUo6g.s 			page 35


 1939 0cd6 FFF7FEFF 		bl	mc_interface_set_configuration
 1940              	.LVL261:
 1941              		.loc 1 444 0
 1942 0cda 3846     		mov	r0, r7
 1943 0cdc B0EE6A0A 		vmov.f32	s0, s21
 1944 0ce0 FFF7FEFF 		bl	timeout_configure
 1945              	.LVL262:
 1946              		.loc 1 448 0
 1947 0ce4 C8EE286A 		vdiv.f32	s13, s16, s17
 1948              	.LVL263:
 1949              		.loc 1 446 0
 1950 0ce8 8AEE287A 		vdiv.f32	s14, s20, s17
 1951              	.LVL264:
 1952              		.loc 1 447 0
 1953 0cec C9EEA87A 		vdiv.f32	s15, s19, s17
 1954              	.LVL265:
 1955              		.loc 1 450 0
 1956 0cf0 A9EE667A 		vfms.f32	s14, s18, s13
 1957              	.LVL266:
 1958 0cf4 DFED226A 		vldr.32	s13, .L309+120
 1959              	.LVL267:
 1960 0cf8 67EEA67A 		vmul.f32	s15, s15, s13
 1961              	.LVL268:
 1962              		.loc 1 452 0
 1963 0cfc C7EE277A 		vdiv.f32	s15, s14, s15
 1964 0d00 17EE900A 		vmov	r0, s15
 1965 0d04 86E0     		b	.L252
 1966              	.L310:
 1967 0d06 00BF     		.align	3
 1968              	.L309:
 1969 0d08 00000000 		.word	0
 1970 0d0c 80842E41 		.word	1093567616
 1971 0d10 D4070000 		.word	.LC89
 1972 0d14 00007A44 		.word	1148846080
 1973 0d18 EC070000 		.word	.LC90
 1974 0d1c 08080000 		.word	.LC91
 1975 0d20 24080000 		.word	.LC92
 1976 0d24 40080000 		.word	.LC93
 1977 0d28 2C070000 		.word	.LC83
 1978 0d2c 44070000 		.word	.LC84
 1979 0d30 64070000 		.word	.LC85
 1980 0d34 38090000 		.word	.LC104
 1981 0d38 000080BF 		.word	-1082130432
 1982 0d3c 50000000 		.word	.LC9
 1983 0d40 6666663F 		.word	1063675494
 1984 0d44 00000000 		.word	.LANCHOR0
 1985 0d48 00005940 		.word	1079574528
 1986 0d4c 48090000 		.word	.LC105
 1987 0d50 64060000 		.word	.LC78
 1988 0d54 08060000 		.word	.LC75
 1989 0d58 24060000 		.word	.LC76
 1990 0d5c C4060000 		.word	.LC80
 1991 0d60 44060000 		.word	.LC77
 1992 0d64 84090000 		.word	.LC106
 1993 0d68 A8090000 		.word	.LC108
 1994 0d6c D0090000 		.word	.LC109
 1995 0d70 180A0000 		.word	.LC112
ARM GAS  /tmp/ccHCUo6g.s 			page 36


 1996 0d74 0000C842 		.word	1120403456
 1997 0d78 00000000 		.word	0
 1998 0d7c 00000000 		.word	.LANCHOR1
 1999 0d80 5077D63D 		.word	1037465424
 2000              	.LVL269:
 2001              	.L293:
 2002              	.LBE135:
 2003              	.LBE134:
 2004              	.LBB141:
 2005              		.loc 1 377 0
 2006 0d84 9D4B     		ldr	r3, .L311
 2007              		.loc 1 381 0
 2008 0d86 9E49     		ldr	r1, .L311+4
 2009 0d88 1998     		ldr	r0, [sp, #100]
 2010              		.loc 1 377 0
 2011 0d8a 0D93     		str	r3, [sp, #52]	@ float
 2012              		.loc 1 381 0
 2013 0d8c 0DAA     		add	r2, sp, #52
 2014              		.loc 1 378 0
 2015 0d8e 0E93     		str	r3, [sp, #56]	@ float
 2016              		.loc 1 379 0
 2017 0d90 0F93     		str	r3, [sp, #60]	@ float
 2018              		.loc 1 380 0
 2019 0d92 1093     		str	r3, [sp, #64]	@ float
 2020              		.loc 1 381 0
 2021 0d94 FFF7FEFF 		bl	sscanf
 2022              	.LVL270:
 2023              		.loc 1 382 0
 2024 0d98 0EAA     		add	r2, sp, #56
 2025 0d9a 9949     		ldr	r1, .L311+4
 2026 0d9c 1A98     		ldr	r0, [sp, #104]
 2027 0d9e FFF7FEFF 		bl	sscanf
 2028              	.LVL271:
 2029              		.loc 1 383 0
 2030 0da2 0FAA     		add	r2, sp, #60
 2031 0da4 9649     		ldr	r1, .L311+4
 2032 0da6 1B98     		ldr	r0, [sp, #108]
 2033 0da8 FFF7FEFF 		bl	sscanf
 2034              	.LVL272:
 2035              		.loc 1 384 0
 2036 0dac 10AA     		add	r2, sp, #64
 2037 0dae 1C98     		ldr	r0, [sp, #112]
 2038 0db0 9349     		ldr	r1, .L311+4
 2039 0db2 FFF7FEFF 		bl	sscanf
 2040              	.LVL273:
 2041              		.loc 1 386 0
 2042 0db6 9DED0D0A 		vldr.32	s0, [sp, #52]
 2043 0dba B5EEC00A 		vcmpe.f32	s0, #0
 2044 0dbe F1EE10FA 		vmrs	APSR_nzcv, FPSCR
 2045 0dc2 7FF797A9 		ble	.L248
 2046              		.loc 1 386 0 is_stmt 0 discriminator 1
 2047 0dc6 8F4B     		ldr	r3, .L311+8
 2048 0dc8 D3ED017A 		vldr.32	s15, [r3, #4]
 2049 0dcc B4EEE70A 		vcmpe.f32	s0, s15
 2050 0dd0 F1EE10FA 		vmrs	APSR_nzcv, FPSCR
 2051 0dd4 3FF68EA9 		bhi	.L248
 2052              		.loc 1 386 0 discriminator 2
ARM GAS  /tmp/ccHCUo6g.s 			page 37


 2053 0dd8 9DED0F1A 		vldr.32	s2, [sp, #60]
 2054 0ddc B5EEC01A 		vcmpe.f32	s2, #0
 2055 0de0 F1EE10FA 		vmrs	APSR_nzcv, FPSCR
 2056 0de4 7FF786A9 		ble	.L248
 2057              		.loc 1 386 0 discriminator 3
 2058 0de8 DDED0E0A 		vldr.32	s1, [sp, #56]
 2059 0dec DFED867A 		vldr.32	s15, .L311+12
 2060 0df0 F4EEE70A 		vcmpe.f32	s1, s15
 2061 0df4 F1EE10FA 		vmrs	APSR_nzcv, FPSCR
 2062 0df8 7FF77CA9 		ble	.L248
 2063              		.loc 1 386 0 discriminator 4
 2064 0dfc DDED101A 		vldr.32	s3, [sp, #64]
 2065 0e00 F5EEC01A 		vcmpe.f32	s3, #0
 2066 0e04 F1EE10FA 		vmrs	APSR_nzcv, FPSCR
 2067 0e08 FFF674A9 		blt	.L248
 2068              	.LBB142:
 2069              		.loc 1 388 0 is_stmt 1
 2070 0e0c 11A8     		add	r0, sp, #68
 2071 0e0e FFF7FEFF 		bl	conf_general_measure_flux_linkage
 2072              	.LVL274:
 2073              		.loc 1 389 0
 2074 0e12 1198     		ldr	r0, [sp, #68]	@ float
 2075              	.LVL275:
 2076              	.L252:
 2077              	.LBE142:
 2078              	.LBE141:
 2079              	.LBB143:
 2080              	.LBB140:
 2081              		.loc 1 452 0
 2082 0e14 FFF7FEFF 		bl	__aeabi_f2d
 2083              	.LVL276:
 2084 0e18 0246     		mov	r2, r0
 2085 0e1a 0B46     		mov	r3, r1
 2086 0e1c 7B48     		ldr	r0, .L311+16
 2087 0e1e FFF7FEFF 		bl	commands_printf
 2088              	.LVL277:
 2089              	.LBE140:
 2090 0e22 FFF760B9 		b	.L1
 2091              	.LVL278:
 2092              	.L81:
 2093              	.LBE143:
 2094              		.loc 1 459 0
 2095 0e26 7A49     		ldr	r1, .L311+20
 2096 0e28 2846     		mov	r0, r5
 2097 0e2a FFF7FEFF 		bl	strcmp
 2098              	.LVL279:
 2099 0e2e 0028     		cmp	r0, #0
 2100 0e30 6DD1     		bne	.L87
 2101              		.loc 1 460 0
 2102 0e32 052C     		cmp	r4, #5
 2103 0e34 7FF4D8AE 		bne	.L72
 2104              	.LBB144:
 2105              		.loc 1 461 0
 2106 0e38 704B     		ldr	r3, .L311
 2107              		.loc 1 465 0
 2108 0e3a 7149     		ldr	r1, .L311+4
 2109 0e3c 1998     		ldr	r0, [sp, #100]
ARM GAS  /tmp/ccHCUo6g.s 			page 38


 2110              		.loc 1 461 0
 2111 0e3e 0D93     		str	r3, [sp, #52]	@ float
 2112              		.loc 1 465 0
 2113 0e40 0DAA     		add	r2, sp, #52
 2114              		.loc 1 462 0
 2115 0e42 0E93     		str	r3, [sp, #56]	@ float
 2116              		.loc 1 463 0
 2117 0e44 0F93     		str	r3, [sp, #60]	@ float
 2118              		.loc 1 464 0
 2119 0e46 1093     		str	r3, [sp, #64]	@ float
 2120              		.loc 1 465 0
 2121 0e48 FFF7FEFF 		bl	sscanf
 2122              	.LVL280:
 2123              		.loc 1 466 0
 2124 0e4c 0EAA     		add	r2, sp, #56
 2125 0e4e 6C49     		ldr	r1, .L311+4
 2126 0e50 1A98     		ldr	r0, [sp, #104]
 2127 0e52 FFF7FEFF 		bl	sscanf
 2128              	.LVL281:
 2129              		.loc 1 467 0
 2130 0e56 0FAA     		add	r2, sp, #60
 2131 0e58 6949     		ldr	r1, .L311+4
 2132 0e5a 1B98     		ldr	r0, [sp, #108]
 2133 0e5c FFF7FEFF 		bl	sscanf
 2134              	.LVL282:
 2135              		.loc 1 468 0
 2136 0e60 10AA     		add	r2, sp, #64
 2137 0e62 1C98     		ldr	r0, [sp, #112]
 2138 0e64 6649     		ldr	r1, .L311+4
 2139 0e66 FFF7FEFF 		bl	sscanf
 2140              	.LVL283:
 2141              		.loc 1 470 0
 2142 0e6a 9DED0D0A 		vldr.32	s0, [sp, #52]
 2143 0e6e B5EEC00A 		vcmpe.f32	s0, #0
 2144 0e72 F1EE10FA 		vmrs	APSR_nzcv, FPSCR
 2145 0e76 7FF73DA9 		ble	.L248
 2146              		.loc 1 470 0 is_stmt 0 discriminator 1
 2147 0e7a 624B     		ldr	r3, .L311+8
 2148 0e7c D3ED017A 		vldr.32	s15, [r3, #4]
 2149 0e80 B4EEE70A 		vcmpe.f32	s0, s15
 2150 0e84 F1EE10FA 		vmrs	APSR_nzcv, FPSCR
 2151 0e88 3FF634A9 		bhi	.L248
 2152              		.loc 1 470 0 discriminator 2
 2153 0e8c 9DED0F1A 		vldr.32	s2, [sp, #60]
 2154 0e90 B5EEC01A 		vcmpe.f32	s2, #0
 2155 0e94 F1EE10FA 		vmrs	APSR_nzcv, FPSCR
 2156 0e98 7FF72CA9 		ble	.L248
 2157              		.loc 1 470 0 discriminator 3
 2158 0e9c DDED0E0A 		vldr.32	s1, [sp, #56]
 2159 0ea0 DFED597A 		vldr.32	s15, .L311+12
 2160 0ea4 F4EEE70A 		vcmpe.f32	s1, s15
 2161 0ea8 F1EE10FA 		vmrs	APSR_nzcv, FPSCR
 2162 0eac 7FF722A9 		ble	.L248
 2163              		.loc 1 470 0 discriminator 4
 2164 0eb0 DDED101A 		vldr.32	s3, [sp, #64]
 2165 0eb4 F5EEC01A 		vcmpe.f32	s3, #0
 2166 0eb8 F1EE10FA 		vmrs	APSR_nzcv, FPSCR
ARM GAS  /tmp/ccHCUo6g.s 			page 39


 2167 0ebc FFF61AA9 		blt	.L248
 2168              	.LBB145:
 2169              		.loc 1 472 0 is_stmt 1
 2170 0ec0 11A8     		add	r0, sp, #68
 2171 0ec2 FFF7FEFF 		bl	conf_general_measure_flux_linkage_openloop
 2172              	.LVL284:
 2173              		.loc 1 473 0
 2174 0ec6 1198     		ldr	r0, [sp, #68]	@ float
 2175 0ec8 A4E7     		b	.L252
 2176              	.L294:
 2177              	.LBE145:
 2178              	.LBE144:
 2179              	.LBB146:
 2180              		.loc 1 397 0 discriminator 26
 2181 0eca 4E4B     		ldr	r3, .L311+8
 2182 0ecc 0222     		movs	r2, #2
 2183              		.loc 1 398 0 discriminator 26
 2184 0ece 1846     		mov	r0, r3
 2185              		.loc 1 397 0 discriminator 26
 2186 0ed0 9A70     		strb	r2, [r3, #2]
 2187              		.loc 1 398 0 discriminator 26
 2188 0ed2 FFF7FEFF 		bl	mc_interface_set_configuration
 2189              	.LVL285:
 2190              		.loc 1 400 0 discriminator 26
 2191 0ed6 0023     		movs	r3, #0
 2192              		.loc 1 402 0 discriminator 26
 2193 0ed8 11A9     		add	r1, sp, #68
 2194 0eda 10A8     		add	r0, sp, #64
 2195              		.loc 1 400 0 discriminator 26
 2196 0edc 1093     		str	r3, [sp, #64]	@ float
 2197              		.loc 1 401 0 discriminator 26
 2198 0ede 1193     		str	r3, [sp, #68]	@ float
 2199              		.loc 1 402 0 discriminator 26
 2200 0ee0 FFF7FEFF 		bl	mcpwm_foc_measure_res_ind
 2201              	.LVL286:
 2202              		.loc 1 403 0 discriminator 26
 2203 0ee4 1098     		ldr	r0, [sp, #64]	@ float
 2204 0ee6 FFF7FEFF 		bl	__aeabi_f2d
 2205              	.LVL287:
 2206 0eea 0246     		mov	r2, r0
 2207 0eec 0B46     		mov	r3, r1
 2208 0eee 4948     		ldr	r0, .L311+24
 2209 0ef0 FFF7FEFF 		bl	commands_printf
 2210              	.LVL288:
 2211              		.loc 1 404 0 discriminator 26
 2212 0ef4 1198     		ldr	r0, [sp, #68]	@ float
 2213 0ef6 FFF7FEFF 		bl	__aeabi_f2d
 2214              	.LVL289:
 2215 0efa 0246     		mov	r2, r0
 2216 0efc 0B46     		mov	r3, r1
 2217 0efe 4648     		ldr	r0, .L311+28
 2218 0f00 FFF7FEFF 		bl	commands_printf
 2219              	.LVL290:
 2220              		.loc 1 406 0 discriminator 26
 2221 0f04 4548     		ldr	r0, .L311+32
 2222 0f06 FFF7FEFF 		bl	mc_interface_set_configuration
 2223              	.LVL291:
ARM GAS  /tmp/ccHCUo6g.s 			page 40


 2224              	.LBE146:
 2225 0f0a FFF7ECB8 		b	.L1
 2226              	.L87:
 2227              		.loc 1 480 0
 2228 0f0e 4449     		ldr	r1, .L311+36
 2229 0f10 2846     		mov	r0, r5
 2230 0f12 FFF7FEFF 		bl	strcmp
 2231              	.LVL292:
 2232 0f16 90B1     		cbz	r0, .L295
 2233              		.loc 1 483 0
 2234 0f18 4249     		ldr	r1, .L311+40
 2235 0f1a 2846     		mov	r0, r5
 2236 0f1c FFF7FEFF 		bl	strcmp
 2237              	.LVL293:
 2238 0f20 0028     		cmp	r0, #0
 2239 0f22 00F08780 		beq	.L296
 2240              		.loc 1 504 0
 2241 0f26 4049     		ldr	r1, .L311+44
 2242 0f28 2846     		mov	r0, r5
 2243 0f2a FFF7FEFF 		bl	strcmp
 2244              	.LVL294:
 2245 0f2e 98BB     		cbnz	r0, .L98
 2246              		.loc 1 505 0
 2247 0f30 032C     		cmp	r4, #3
 2248 0f32 08D0     		beq	.L297
 2249              	.L99:
 2250              		.loc 1 518 0
 2251 0f34 3D48     		ldr	r0, .L311+48
 2252 0f36 FFF7FEFF 		bl	commands_printf
 2253              	.LVL295:
 2254 0f3a FFF7D4B8 		b	.L1
 2255              	.L295:
 2256              		.loc 1 481 0
 2257 0f3e FFF7FEFF 		bl	mcpwm_foc_print_state
 2258              	.LVL296:
 2259 0f42 FFF78AB9 		b	.L250
 2260              	.L297:
 2261              	.LBB147:
 2262              		.loc 1 506 0
 2263 0f46 10AC     		add	r4, sp, #64
 2264              	.LVL297:
 2265 0f48 2C4B     		ldr	r3, .L311
 2266              		.loc 1 508 0
 2267 0f4a 2D49     		ldr	r1, .L311+4
 2268 0f4c 1998     		ldr	r0, [sp, #100]
 2269              		.loc 1 506 0
 2270 0f4e 1093     		str	r3, [sp, #64]	@ float
 2271              		.loc 1 508 0
 2272 0f50 2246     		mov	r2, r4
 2273              		.loc 1 507 0
 2274 0f52 11AD     		add	r5, sp, #68
 2275 0f54 1193     		str	r3, [sp, #68]	@ float
 2276              		.loc 1 508 0
 2277 0f56 FFF7FEFF 		bl	sscanf
 2278              	.LVL298:
 2279              		.loc 1 509 0
 2280 0f5a 2A46     		mov	r2, r5
ARM GAS  /tmp/ccHCUo6g.s 			page 41


 2281 0f5c 1A98     		ldr	r0, [sp, #104]
 2282 0f5e 2849     		ldr	r1, .L311+4
 2283 0f60 FFF7FEFF 		bl	sscanf
 2284              	.LVL299:
 2285              		.loc 1 511 0
 2286 0f64 D4ED007A 		vldr.32	s15, [r4]
 2287 0f68 F5EEC07A 		vcmpe.f32	s15, #0
 2288 0f6c F1EE10FA 		vmrs	APSR_nzcv, FPSCR
 2289 0f70 FFF6C0A8 		blt	.L248
 2290              		.loc 1 511 0 is_stmt 0 discriminator 1
 2291 0f74 D5ED007A 		vldr.32	s15, [r5]
 2292 0f78 F5EEC07A 		vcmpe.f32	s15, #0
 2293 0f7c F1EE10FA 		vmrs	APSR_nzcv, FPSCR
 2294 0f80 FFF6B8A8 		blt	.L248
 2295              		.loc 1 512 0 is_stmt 1
 2296 0f84 FFF7FEFF 		bl	timeout_reset
 2297              	.LVL300:
 2298              		.loc 1 513 0
 2299 0f88 D5ED000A 		vldr.32	s1, [r5]
 2300 0f8c 94ED000A 		vldr.32	s0, [r4]
 2301 0f90 FFF7FEFF 		bl	mcpwm_foc_set_openloop
 2302              	.LVL301:
 2303 0f94 FFF7A7B8 		b	.L1
 2304              	.LVL302:
 2305              	.L98:
 2306              	.LBE147:
 2307              		.loc 1 520 0
 2308 0f98 2549     		ldr	r1, .L311+52
 2309 0f9a 2846     		mov	r0, r5
 2310 0f9c FFF7FEFF 		bl	strcmp
 2311              	.LVL303:
 2312 0fa0 0028     		cmp	r0, #0
 2313 0fa2 40F08F80 		bne	.L104
 2314              		.loc 1 521 0
 2315 0fa6 032C     		cmp	r4, #3
 2316 0fa8 C4D1     		bne	.L99
 2317              	.LBB148:
 2318              		.loc 1 522 0
 2319 0faa 10AC     		add	r4, sp, #64
 2320              	.LVL304:
 2321 0fac 134B     		ldr	r3, .L311
 2322              		.loc 1 524 0
 2323 0fae 1449     		ldr	r1, .L311+4
 2324 0fb0 1998     		ldr	r0, [sp, #100]
 2325              		.loc 1 522 0
 2326 0fb2 1093     		str	r3, [sp, #64]	@ float
 2327              		.loc 1 524 0
 2328 0fb4 2246     		mov	r2, r4
 2329              		.loc 1 523 0
 2330 0fb6 11AD     		add	r5, sp, #68
 2331 0fb8 1193     		str	r3, [sp, #68]	@ float
 2332              		.loc 1 524 0
 2333 0fba FFF7FEFF 		bl	sscanf
 2334              	.LVL305:
 2335              		.loc 1 525 0
 2336 0fbe 2A46     		mov	r2, r5
 2337 0fc0 1A98     		ldr	r0, [sp, #104]
ARM GAS  /tmp/ccHCUo6g.s 			page 42


 2338 0fc2 0F49     		ldr	r1, .L311+4
 2339 0fc4 FFF7FEFF 		bl	sscanf
 2340              	.LVL306:
 2341              		.loc 1 527 0
 2342 0fc8 D4ED007A 		vldr.32	s15, [r4]
 2343 0fcc F5EEC07A 		vcmpe.f32	s15, #0
 2344 0fd0 F1EE10FA 		vmrs	APSR_nzcv, FPSCR
 2345 0fd4 FFF68EA8 		blt	.L248
 2346              		.loc 1 527 0 is_stmt 0 discriminator 1
 2347 0fd8 D5ED007A 		vldr.32	s15, [r5]
 2348 0fdc F5EEC07A 		vcmpe.f32	s15, #0
 2349 0fe0 F1EE10FA 		vmrs	APSR_nzcv, FPSCR
 2350 0fe4 FFF686A8 		blt	.L248
 2351              		.loc 1 528 0 is_stmt 1
 2352 0fe8 FFF7FEFF 		bl	timeout_reset
 2353              	.LVL307:
 2354              		.loc 1 529 0
 2355 0fec D5ED000A 		vldr.32	s1, [r5]
 2356 0ff0 94ED000A 		vldr.32	s0, [r4]
 2357 0ff4 FFF7FEFF 		bl	mcpwm_foc_set_openloop_duty
 2358              	.LVL308:
 2359 0ff8 FFF775B8 		b	.L1
 2360              	.L312:
 2361              		.align	2
 2362              	.L311:
 2363 0ffc 000080BF 		.word	-1082130432
 2364 1000 50000000 		.word	.LC9
 2365 1004 00000000 		.word	.LANCHOR0
 2366 1008 0AD7A33C 		.word	1017370378
 2367 100c 94090000 		.word	.LC107
 2368 1010 2C0A0000 		.word	.LC113
 2369 1014 E0090000 		.word	.LC110
 2370 1018 F8090000 		.word	.LC111
 2371 101c 00000000 		.word	.LANCHOR1
 2372 1020 480A0000 		.word	.LC114
 2373 1024 540A0000 		.word	.LC115
 2374 1028 040B0000 		.word	.LC122
 2375 102c 140B0000 		.word	.LC123
 2376 1030 3C0B0000 		.word	.LC124
 2377              	.LVL309:
 2378              	.L296:
 2379              	.LBE148:
 2380              	.LBB149:
 2381              		.loc 1 484 0
 2382 1034 3F22     		movs	r2, #63
 2383 1036 0321     		movs	r1, #3
 2384 1038 AD48     		ldr	r0, .L313
 2385 103a FFF7FEFF 		bl	commands_printf
 2386              	.LVL310:
 2387              		.loc 1 486 0
 2388 103e AD49     		ldr	r1, .L313+4
 2389 1040 AD48     		ldr	r0, .L313+8
 2390 1042 FFF7FEFF 		bl	commands_printf
 2391              	.LVL311:
 2392              		.loc 1 491 0
 2393 1046 AD48     		ldr	r0, .L313+12
 2394              		.loc 1 489 0
ARM GAS  /tmp/ccHCUo6g.s 			page 43


 2395 1048 AD4B     		ldr	r3, .L313+16
 2396 104a AE4A     		ldr	r2, .L313+20
 2397 104c AE49     		ldr	r1, .L313+24
 2398              		.loc 1 488 0
 2399 104e 0478     		ldrb	r4, [r0]	@ zero_extendqisi2
 2400              	.LVL312:
 2401 1050 1B78     		ldrb	r3, [r3]	@ zero_extendqisi2
 2402 1052 1278     		ldrb	r2, [r2]	@ zero_extendqisi2
 2403 1054 0978     		ldrb	r1, [r1]	@ zero_extendqisi2
 2404 1056 0894     		str	r4, [sp, #32]
 2405 1058 10F8014C 		ldrb	r4, [r0, #-1]	@ zero_extendqisi2
 2406 105c 0794     		str	r4, [sp, #28]
 2407 105e 10F8024C 		ldrb	r4, [r0, #-2]	@ zero_extendqisi2
 2408 1062 0694     		str	r4, [sp, #24]
 2409 1064 10F8034C 		ldrb	r4, [r0, #-3]	@ zero_extendqisi2
 2410 1068 0594     		str	r4, [sp, #20]
 2411 106a 10F8044C 		ldrb	r4, [r0, #-4]	@ zero_extendqisi2
 2412 106e 0494     		str	r4, [sp, #16]
 2413 1070 10F8054C 		ldrb	r4, [r0, #-5]	@ zero_extendqisi2
 2414 1074 0394     		str	r4, [sp, #12]
 2415 1076 10F8064C 		ldrb	r4, [r0, #-6]	@ zero_extendqisi2
 2416 107a 0294     		str	r4, [sp, #8]
 2417 107c 10F8074C 		ldrb	r4, [r0, #-7]	@ zero_extendqisi2
 2418 1080 0194     		str	r4, [sp, #4]
 2419              		.loc 1 489 0
 2420 1082 0838     		subs	r0, r0, #8
 2421              		.loc 1 488 0
 2422 1084 0078     		ldrb	r0, [r0]	@ zero_extendqisi2
 2423 1086 0090     		str	r0, [sp]
 2424 1088 A048     		ldr	r0, .L313+28
 2425 108a FFF7FEFF 		bl	commands_printf
 2426              	.LVL313:
 2427              		.loc 1 492 0
 2428 108e A04B     		ldr	r3, .L313+32
 2429 1090 A04A     		ldr	r2, .L313+36
 2430 1092 1978     		ldrb	r1, [r3]	@ zero_extendqisi2
 2431 1094 A04B     		ldr	r3, .L313+40
 2432 1096 A148     		ldr	r0, .L313+44
 2433 1098 0029     		cmp	r1, #0
 2434 109a 0CBF     		ite	eq
 2435 109c 1146     		moveq	r1, r2
 2436 109e 1946     		movne	r1, r3
 2437 10a0 FFF7FEFF 		bl	commands_printf
 2438              	.LVL314:
 2439              		.loc 1 498 0
 2440 10a4 11AA     		add	r2, sp, #68
 2441 10a6 10A9     		add	r1, sp, #64
 2442 10a8 0FA8     		add	r0, sp, #60
 2443 10aa FFF7FEFF 		bl	mcpwm_foc_get_current_offsets
 2444              	.LVL315:
 2445              		.loc 1 500 0
 2446 10ae DDE91023 		ldrd	r2, r3, [sp, #64]
 2447 10b2 0F99     		ldr	r1, [sp, #60]
 2448 10b4 9A48     		ldr	r0, .L313+48
 2449 10b6 FFF7FEFF 		bl	commands_printf
 2450              	.LVL316:
 2451              		.loc 1 503 0
ARM GAS  /tmp/ccHCUo6g.s 			page 44


 2452 10ba 9A48     		ldr	r0, .L313+52
 2453 10bc FFF7FEFF 		bl	commands_printf
 2454              	.LVL317:
 2455              	.LBE149:
 2456 10c0 FFF711B8 		b	.L1
 2457              	.LVL318:
 2458              	.L104:
 2459              		.loc 1 536 0
 2460 10c4 9849     		ldr	r1, .L313+56
 2461 10c6 2846     		mov	r0, r5
 2462 10c8 FFF7FEFF 		bl	strcmp
 2463              	.LVL319:
 2464 10cc C8B9     		cbnz	r0, .L109
 2465              		.loc 1 537 0
 2466 10ce 022C     		cmp	r4, #2
 2467 10d0 7FF435AA 		bne	.L47
 2468              	.LBB150:
 2469              		.loc 1 538 0
 2470 10d4 4FF0FF33 		mov	r3, #-1
 2471              		.loc 1 539 0
 2472 10d8 1998     		ldr	r0, [sp, #100]
 2473 10da 9449     		ldr	r1, .L313+60
 2474              		.loc 1 538 0
 2475 10dc 1193     		str	r3, [sp, #68]
 2476              		.loc 1 539 0
 2477 10de 11AA     		add	r2, sp, #68
 2478 10e0 FFF7FEFF 		bl	sscanf
 2479              	.LVL320:
 2480              		.loc 1 541 0
 2481 10e4 119B     		ldr	r3, [sp, #68]
 2482 10e6 002B     		cmp	r3, #0
 2483 10e8 FFF604A8 		blt	.L248
 2484              	.LBB151:
 2485              		.loc 1 543 0
 2486 10ec 3822     		movs	r2, #56
 2487              		.loc 1 545 0
 2488 10ee 10A8     		add	r0, sp, #64
 2489 10f0 0221     		movs	r1, #2
 2490              		.loc 1 544 0
 2491 10f2 8DF84130 		strb	r3, [sp, #65]
 2492              		.loc 1 543 0
 2493 10f6 8DF84020 		strb	r2, [sp, #64]
 2494              		.loc 1 545 0
 2495 10fa FFF7FEFF 		bl	commands_send_packet_nrf
 2496              	.LVL321:
 2497              	.LBE151:
 2498 10fe FEF7F2BF 		b	.L1
 2499              	.L109:
 2500              	.LBE150:
 2501              		.loc 1 552 0
 2502 1102 8B49     		ldr	r1, .L313+64
 2503 1104 2846     		mov	r0, r5
 2504 1106 FFF7FEFF 		bl	strcmp
 2505              	.LVL322:
 2506 110a 68BB     		cbnz	r0, .L112
 2507              		.loc 1 553 0
 2508 110c 022C     		cmp	r4, #2
ARM GAS  /tmp/ccHCUo6g.s 			page 45


 2509 110e 7FF416AA 		bne	.L47
 2510              	.LBB152:
 2511              		.loc 1 554 0
 2512 1112 884B     		ldr	r3, .L313+68
 2513              		.loc 1 555 0
 2514 1114 1998     		ldr	r0, [sp, #100]
 2515 1116 8849     		ldr	r1, .L313+72
 2516              		.loc 1 554 0
 2517 1118 1193     		str	r3, [sp, #68]	@ float
 2518              		.loc 1 555 0
 2519 111a 11AA     		add	r2, sp, #68
 2520 111c FFF7FEFF 		bl	sscanf
 2521              	.LVL323:
 2522              		.loc 1 557 0
 2523 1120 9DED110A 		vldr.32	s0, [sp, #68]
 2524 1124 B5EEC00A 		vcmpe.f32	s0, #0
 2525 1128 F1EE10FA 		vmrs	APSR_nzcv, FPSCR
 2526 112c 7EF7E2AF 		ble	.L248
 2527              		.loc 1 557 0 is_stmt 0 discriminator 1
 2528 1130 824B     		ldr	r3, .L313+76
 2529 1132 D3ED017A 		vldr.32	s15, [r3, #4]
 2530 1136 B4EEE70A 		vcmpe.f32	s0, s15
 2531 113a F1EE10FA 		vmrs	APSR_nzcv, FPSCR
 2532 113e 3EF6D9AF 		bhi	.L248
 2533              	.LBB153:
 2534              		.loc 1 558 0 is_stmt 1
 2535 1142 0121     		movs	r1, #1
 2536 1144 0846     		mov	r0, r1
 2537 1146 FFF7FEFF 		bl	conf_general_autodetect_apply_sensors_foc
 2538              	.LVL324:
 2539              		.loc 1 560 0
 2540 114a 0146     		mov	r1, r0
 2541 114c 0028     		cmp	r0, #0
 2542 114e 00F0C281 		beq	.L255
 2543              		.loc 1 562 0
 2544 1152 0128     		cmp	r0, #1
 2545 1154 00F0B581 		beq	.L254
 2546              		.loc 1 564 0
 2547 1158 0228     		cmp	r0, #2
 2548 115a 00F0B781 		beq	.L253
 2549              	.LVL325:
 2550              	.L257:
 2551              	.LBE153:
 2552              	.LBE152:
 2553              	.LBB154:
 2554              	.LBB82:
 2555              		.loc 1 703 0
 2556 115e 7848     		ldr	r0, .L313+80
 2557 1160 FFF7FEFF 		bl	commands_printf
 2558              	.LVL326:
 2559 1164 FEF7BFBF 		b	.L1
 2560              	.LVL327:
 2561              	.L112:
 2562              	.LBE82:
 2563              	.LBE154:
 2564              		.loc 1 575 0
 2565 1168 7649     		ldr	r1, .L313+84
ARM GAS  /tmp/ccHCUo6g.s 			page 46


 2566 116a 2846     		mov	r0, r5
 2567 116c FFF7FEFF 		bl	strcmp
 2568              	.LVL328:
 2569 1170 0746     		mov	r7, r0
 2570 1172 0028     		cmp	r0, #0
 2571 1174 40F08280 		bne	.L120
 2572              		.loc 1 576 0
 2573 1178 042C     		cmp	r4, #4
 2574 117a 7FF4A1A8 		bne	.L27
 2575              	.LBB155:
 2576              		.loc 1 577 0
 2577 117e 0FAE     		add	r6, sp, #60
 2578              		.loc 1 578 0
 2579 1180 10AC     		add	r4, sp, #64
 2580              	.LVL329:
 2581              		.loc 1 579 0
 2582 1182 11AD     		add	r5, sp, #68
 2583              		.loc 1 577 0
 2584 1184 6B4B     		ldr	r3, .L313+68
 2585              		.loc 1 580 0
 2586 1186 6C49     		ldr	r1, .L313+72
 2587 1188 1998     		ldr	r0, [sp, #100]
 2588              		.loc 1 577 0
 2589 118a 3360     		str	r3, [r6]	@ float
 2590              		.loc 1 580 0
 2591 118c 3246     		mov	r2, r6
 2592              		.loc 1 578 0
 2593 118e 2360     		str	r3, [r4]	@ float
 2594              		.loc 1 579 0
 2595 1190 2B60     		str	r3, [r5]	@ float
 2596              		.loc 1 580 0
 2597 1192 FFF7FEFF 		bl	sscanf
 2598              	.LVL330:
 2599              		.loc 1 581 0
 2600 1196 2246     		mov	r2, r4
 2601 1198 6749     		ldr	r1, .L313+72
 2602 119a 1A98     		ldr	r0, [sp, #104]
 2603 119c FFF7FEFF 		bl	sscanf
 2604              	.LVL331:
 2605              		.loc 1 582 0
 2606 11a0 2A46     		mov	r2, r5
 2607 11a2 1B98     		ldr	r0, [sp, #108]
 2608 11a4 6449     		ldr	r1, .L313+72
 2609 11a6 FFF7FEFF 		bl	sscanf
 2610              	.LVL332:
 2611              		.loc 1 584 0
 2612 11aa D6ED007A 		vldr.32	s15, [r6]
 2613 11ae F5EEC07A 		vcmpe.f32	s15, #0
 2614 11b2 F1EE10FA 		vmrs	APSR_nzcv, FPSCR
 2615 11b6 7EF79DAF 		ble	.L248
 2616              		.loc 1 584 0 is_stmt 0 discriminator 1
 2617 11ba 604B     		ldr	r3, .L313+76
 2618 11bc 93ED017A 		vldr.32	s14, [r3, #4]
 2619 11c0 F4EEC77A 		vcmpe.f32	s15, s14
 2620 11c4 F1EE10FA 		vmrs	APSR_nzcv, FPSCR
 2621 11c8 3EF694AF 		bhi	.L248
 2622              		.loc 1 585 0 is_stmt 1 discriminator 2
ARM GAS  /tmp/ccHCUo6g.s 			page 47


 2623 11cc D5ED007A 		vldr.32	s15, [r5]
 2624              		.loc 1 584 0 discriminator 2
 2625 11d0 F5EEC07A 		vcmpe.f32	s15, #0
 2626 11d4 F1EE10FA 		vmrs	APSR_nzcv, FPSCR
 2627 11d8 FEF68CAF 		blt	.L248
 2628              		.loc 1 585 0
 2629 11dc 9FED5A7A 		vldr.32	s14, .L313+88
 2630 11e0 F4EEC77A 		vcmpe.f32	s15, s14
 2631 11e4 F1EE10FA 		vmrs	APSR_nzcv, FPSCR
 2632 11e8 3EF684AF 		bhi	.L248
 2633              		.loc 1 586 0
 2634 11ec DFED577A 		vldr.32	s15, .L313+92
 2635 11f0 94ED007A 		vldr.32	s14, [r4]
 2636 11f4 B4EEE77A 		vcmpe.f32	s14, s15
 2637 11f8 F1EE10FA 		vmrs	APSR_nzcv, FPSCR
 2638 11fc 31D9     		bls	.L298
 2639              	.LBB156:
 2640              	.LBB157:
 2641              		.loc 1 592 0
 2642 11fe 9FED548A 		vldr.32	s16, .L313+96
 2643              		.loc 1 600 0
 2644 1202 DFF87481 		ldr	r8, .L313+136
 2645              		.loc 1 592 0
 2646 1206 DFED538A 		vldr.32	s17, .L313+100
 2647              	.L126:
 2648              	.LVL333:
 2649              		.loc 1 592 0 is_stmt 0 discriminator 1
 2650 120a D4ED007A 		vldr.32	s15, [r4]
 2651 120e F4EEC87A 		vcmpe.f32	s15, s16
 2652 1212 F1EE10FA 		vmrs	APSR_nzcv, FPSCR
 2653              		.loc 1 597 0 is_stmt 1 discriminator 1
 2654 1216 07F10107 		add	r7, r7, #1
 2655              	.LVL334:
 2656              		.loc 1 592 0 discriminator 1
 2657 121a 1DDD     		ble	.L256
 2658              		.loc 1 593 0
 2659 121c FFF7FEFF 		bl	timeout_reset
 2660              	.LVL335:
 2661              		.loc 1 594 0
 2662 1220 D5ED000A 		vldr.32	s1, [r5]
 2663 1224 96ED000A 		vldr.32	s0, [r6]
 2664 1228 FFF7FEFF 		bl	mcpwm_foc_set_openloop_phase
 2665              	.LVL336:
 2666              		.loc 1 595 0
 2667 122c 1420     		movs	r0, #20
 2668 122e FFF7FEFF 		bl	chThdSleep
 2669              	.LVL337:
 2670              		.loc 1 598 0
 2671 1232 C72F     		cmp	r7, #199
 2672 1234 0DDD     		ble	.L129
 2673              	.LVL338:
 2674              		.loc 1 600 0
 2675 1236 D4ED007A 		vldr.32	s15, [r4]
 2676 123a 77EEC87A 		vsub.f32	s15, s15, s16
 2677              		.loc 1 599 0
 2678 123e 0027     		movs	r7, #0
 2679              		.loc 1 600 0
ARM GAS  /tmp/ccHCUo6g.s 			page 48


 2680 1240 17EE900A 		vmov	r0, s15
 2681 1244 FFF7FEFF 		bl	__aeabi_f2d
 2682              	.LVL339:
 2683 1248 0246     		mov	r2, r0
 2684 124a 0B46     		mov	r3, r1
 2685 124c 4046     		mov	r0, r8
 2686 124e FFF7FEFF 		bl	commands_printf
 2687              	.LVL340:
 2688              	.L129:
 2689              		.loc 1 592 0 discriminator 2
 2690 1252 38EE288A 		vadd.f32	s16, s16, s17
 2691              	.LVL341:
 2692 1256 D8E7     		b	.L126
 2693              	.LVL342:
 2694              	.L256:
 2695              	.LBE157:
 2696              	.LBE156:
 2697              	.LBE155:
 2698              	.LBB158:
 2699              		.loc 1 669 0
 2700 1258 3F48     		ldr	r0, .L313+104
 2701 125a FFF7FEFF 		bl	commands_printf
 2702              	.LVL343:
 2703 125e FEF742BF 		b	.L1
 2704              	.L298:
 2705              	.LBE158:
 2706              	.LBB161:
 2707              		.loc 1 587 0
 2708 1262 FFF7FEFF 		bl	timeout_reset
 2709              	.LVL344:
 2710              		.loc 1 588 0
 2711 1266 D5ED000A 		vldr.32	s1, [r5]
 2712 126a 96ED000A 		vldr.32	s0, [r6]
 2713 126e FFF7FEFF 		bl	mcpwm_foc_set_openloop_phase
 2714              	.LVL345:
 2715              		.loc 1 589 0
 2716 1272 3A48     		ldr	r0, .L313+108
 2717 1274 FFF7FEFF 		bl	commands_printf
 2718              	.LVL346:
 2719 1278 FEF735BF 		b	.L1
 2720              	.LVL347:
 2721              	.L120:
 2722              	.LBE161:
 2723              		.loc 1 612 0
 2724 127c 3849     		ldr	r1, .L313+112
 2725 127e 2846     		mov	r0, r5
 2726 1280 FFF7FEFF 		bl	strcmp
 2727              	.LVL348:
 2728 1284 0028     		cmp	r0, #0
 2729 1286 40F0D780 		bne	.L131
 2730              		.loc 1 613 0
 2731 128a 022C     		cmp	r4, #2
 2732 128c 7FF457A9 		bne	.L47
 2733              	.LBB162:
 2734              		.loc 1 614 0
 2735 1290 284B     		ldr	r3, .L313+68
 2736              		.loc 1 615 0
ARM GAS  /tmp/ccHCUo6g.s 			page 49


 2737 1292 1998     		ldr	r0, [sp, #100]
 2738 1294 2849     		ldr	r1, .L313+72
 2739              		.loc 1 614 0
 2740 1296 1193     		str	r3, [sp, #68]	@ float
 2741              		.loc 1 615 0
 2742 1298 11AA     		add	r2, sp, #68
 2743 129a FFF7FEFF 		bl	sscanf
 2744              	.LVL349:
 2745              		.loc 1 617 0
 2746 129e DDED117A 		vldr.32	s15, [sp, #68]
 2747 12a2 F5EEC07A 		vcmpe.f32	s15, #0
 2748 12a6 F1EE10FA 		vmrs	APSR_nzcv, FPSCR
 2749 12aa 7EF723AF 		ble	.L248
 2750              	.LBB163:
 2751              		.loc 1 618 0
 2752 12ae 2D48     		ldr	r0, .L313+116
 2753 12b0 FFF7FEFF 		bl	commands_printf
 2754              	.LVL350:
 2755              		.loc 1 619 0
 2756 12b4 0121     		movs	r1, #1
 2757 12b6 0846     		mov	r0, r1
 2758 12b8 9DED110A 		vldr.32	s0, [sp, #68]
 2759 12bc FFF7FEFF 		bl	conf_general_detect_apply_all_foc
 2760              	.LVL351:
 2761              	.L269:
 2762              	.LBE163:
 2763              	.LBE162:
 2764              	.LBB164:
 2765              	.LBB83:
 2766              		.loc 1 680 0
 2767 12c0 0546     		mov	r5, r0
 2768              	.LVL352:
 2769              		.loc 1 682 0
 2770 12c2 0146     		mov	r1, r0
 2771 12c4 2848     		ldr	r0, .L313+120
 2772              	.LVL353:
 2773 12c6 FFF7FEFF 		bl	commands_printf
 2774              	.LVL354:
 2775              		.loc 1 684 0
 2776 12ca 002D     		cmp	r5, #0
 2777 12cc 56DA     		bge	.L299
 2778              		.loc 1 706 0
 2779 12ce 15F10A0F 		cmn	r5, #10
 2780 12d2 09D0     		beq	.L300
 2781              		.loc 1 708 0
 2782 12d4 0B35     		adds	r5, r5, #11
 2783              	.LVL355:
 2784 12d6 02D1     		bne	.L158
 2785              		.loc 1 709 0
 2786 12d8 2448     		ldr	r0, .L313+124
 2787 12da FFF7FEFF 		bl	commands_printf
 2788              	.LVL356:
 2789              	.L158:
 2790              		.loc 1 712 0
 2791 12de 2448     		ldr	r0, .L313+128
 2792 12e0 FFF7FEFF 		bl	commands_printf
 2793              	.LVL357:
ARM GAS  /tmp/ccHCUo6g.s 			page 50


 2794 12e4 FEF7FFBE 		b	.L1
 2795              	.LVL358:
 2796              	.L300:
 2797              		.loc 1 707 0
 2798 12e8 2248     		ldr	r0, .L313+132
 2799 12ea FFF7FEFF 		bl	commands_printf
 2800              	.LVL359:
 2801 12ee F6E7     		b	.L158
 2802              	.L314:
 2803              		.align	2
 2804              	.L313:
 2805 12f0 600A0000 		.word	.LC116
 2806 12f4 700A0000 		.word	.LC117
 2807 12f8 780A0000 		.word	.LC118
 2808 12fc 1B7AFF1F 		.word	536836635
 2809 1300 127AFF1F 		.word	536836626
 2810 1304 117AFF1F 		.word	536836625
 2811 1308 107AFF1F 		.word	536836624
 2812 130c 880A0000 		.word	.LC119
 2813 1310 00000000 		.word	conf_general_permanent_nrf_found
 2814 1314 14000000 		.word	.LC3
 2815 1318 10000000 		.word	.LC2
 2816 131c CC0A0000 		.word	.LC120
 2817 1320 E40A0000 		.word	.LC121
 2818 1324 18000000 		.word	.LC4
 2819 1328 500B0000 		.word	.LC125
 2820 132c 640B0000 		.word	.LC126
 2821 1330 680B0000 		.word	.LC127
 2822 1334 000080BF 		.word	-1082130432
 2823 1338 50000000 		.word	.LC9
 2824 133c 00000000 		.word	.LANCHOR0
 2825 1340 F80B0000 		.word	.LC131
 2826 1344 100C0000 		.word	.LC132
 2827 1348 0000B443 		.word	1135869952
 2828 134c BD378635 		.word	897988541
 2829 1350 00000000 		.word	0
 2830 1354 6F12033B 		.word	990057071
 2831 1358 380C0000 		.word	.LC135
 2832 135c 240C0000 		.word	.LC133
 2833 1360 400C0000 		.word	.LC136
 2834 1364 580C0000 		.word	.LC137
 2835 1368 700C0000 		.word	.LC138
 2836 136c 840D0000 		.word	.LC147
 2837 1370 AC0D0000 		.word	.LC148
 2838 1374 640D0000 		.word	.LC146
 2839 1378 280C0000 		.word	.LC134
 2840              	.L299:
 2841              		.loc 1 685 0
 2842 137c 8848     		ldr	r0, .L315
 2843              		.loc 1 686 0
 2844 137e 894C     		ldr	r4, .L315+4
 2845              	.LVL360:
 2846              		.loc 1 688 0
 2847 1380 9FED898A 		vldr.32	s16, .L315+8
 2848              		.loc 1 685 0
 2849 1384 FFF7FEFF 		bl	commands_printf
 2850              	.LVL361:
ARM GAS  /tmp/ccHCUo6g.s 			page 51


 2851              		.loc 1 686 0
 2852 1388 FFF7FEFF 		bl	mc_interface_get_configuration
 2853              	.LVL362:
 2854 138c 4FF4E472 		mov	r2, #456
 2855 1390 0146     		mov	r1, r0
 2856 1392 2046     		mov	r0, r4
 2857 1394 FFF7FEFF 		bl	memcpy
 2858              	.LVL363:
 2859              		.loc 1 687 0
 2860 1398 6068     		ldr	r0, [r4, #4]	@ float
 2861 139a FFF7FEFF 		bl	__aeabi_f2d
 2862              	.LVL364:
 2863 139e 0246     		mov	r2, r0
 2864 13a0 0B46     		mov	r3, r1
 2865 13a2 8248     		ldr	r0, .L315+12
 2866 13a4 FFF7FEFF 		bl	commands_printf
 2867              	.LVL365:
 2868              		.loc 1 688 0
 2869 13a8 D4ED387A 		vldr.32	s15, [r4, #224]
 2870 13ac 67EE887A 		vmul.f32	s15, s15, s16
 2871 13b0 17EE900A 		vmov	r0, s15
 2872 13b4 FFF7FEFF 		bl	__aeabi_f2d
 2873              	.LVL366:
 2874 13b8 0246     		mov	r2, r0
 2875 13ba 0B46     		mov	r3, r1
 2876 13bc 7C48     		ldr	r0, .L315+16
 2877 13be FFF7FEFF 		bl	commands_printf
 2878              	.LVL367:
 2879              		.loc 1 689 0
 2880 13c2 94ED377A 		vldr.32	s14, [r4, #220]
 2881 13c6 DFED7B7A 		vldr.32	s15, .L315+20
 2882 13ca 67EE277A 		vmul.f32	s15, s14, s15
 2883 13ce 17EE900A 		vmov	r0, s15
 2884 13d2 FFF7FEFF 		bl	__aeabi_f2d
 2885              	.LVL368:
 2886 13d6 0246     		mov	r2, r0
 2887 13d8 0B46     		mov	r3, r1
 2888 13da 7748     		ldr	r0, .L315+24
 2889 13dc FFF7FEFF 		bl	commands_printf
 2890              	.LVL369:
 2891              		.loc 1 690 0
 2892 13e0 D4ED397A 		vldr.32	s15, [r4, #228]
 2893 13e4 67EE887A 		vmul.f32	s15, s15, s16
 2894 13e8 17EE900A 		vmov	r0, s15
 2895 13ec FFF7FEFF 		bl	__aeabi_f2d
 2896              	.LVL370:
 2897 13f0 0246     		mov	r2, r0
 2898 13f2 0B46     		mov	r3, r1
 2899 13f4 7148     		ldr	r0, .L315+28
 2900 13f6 FFF7FEFF 		bl	commands_printf
 2901              	.LVL371:
 2902              		.loc 1 691 0
 2903 13fa 714B     		ldr	r3, .L315+32
 2904 13fc 94F82C11 		ldrb	r1, [r4, #300]	@ zero_extendqisi2
 2905 1400 704A     		ldr	r2, .L315+36
 2906 1402 7148     		ldr	r0, .L315+40
 2907 1404 0029     		cmp	r1, #0
ARM GAS  /tmp/ccHCUo6g.s 			page 52


 2908 1406 0CBF     		ite	eq
 2909 1408 1146     		moveq	r1, r2
 2910 140a 1946     		movne	r1, r3
 2911 140c FFF7FEFF 		bl	commands_printf
 2912              	.LVL372:
 2913              		.loc 1 692 0
 2914 1410 94F82C31 		ldrb	r3, [r4, #300]	@ zero_extendqisi2
 2915 1414 43B1     		cbz	r3, .L152
 2916              		.loc 1 693 0
 2917 1416 D4F83001 		ldr	r0, [r4, #304]	@ float
 2918 141a FFF7FEFF 		bl	__aeabi_f2d
 2919              	.LVL373:
 2920 141e 0246     		mov	r2, r0
 2921 1420 0B46     		mov	r3, r1
 2922 1422 6A48     		ldr	r0, .L315+44
 2923 1424 FFF7FEFF 		bl	commands_printf
 2924              	.LVL374:
 2925              	.L152:
 2926              		.loc 1 696 0
 2927 1428 002D     		cmp	r5, #0
 2928 142a 54D0     		beq	.L255
 2929              		.loc 1 698 0
 2930 142c 012D     		cmp	r5, #1
 2931 142e 48D0     		beq	.L254
 2932              		.loc 1 700 0
 2933 1430 022D     		cmp	r5, #2
 2934 1432 4BD0     		beq	.L253
 2935              		.loc 1 703 0
 2936 1434 2946     		mov	r1, r5
 2937 1436 92E6     		b	.L257
 2938              	.LVL375:
 2939              	.L131:
 2940              	.LBE83:
 2941              	.LBE164:
 2942              		.loc 1 659 0
 2943 1438 6549     		ldr	r1, .L315+48
 2944 143a 2846     		mov	r0, r5
 2945 143c FFF7FEFF 		bl	strcmp
 2946              	.LVL376:
 2947 1440 0646     		mov	r6, r0
 2948 1442 B0B9     		cbnz	r0, .L143
 2949              	.LBB165:
 2950              	.LBB159:
 2951              		.loc 1 663 0
 2952 1444 634F     		ldr	r7, .L315+52
 2953              	.LBE159:
 2954              		.loc 1 660 0
 2955 1446 0446     		mov	r4, r0
 2956              	.LVL377:
 2957              	.L145:
 2958              	.LBB160:
 2959              		.loc 1 662 0
 2960 1448 F0B2     		uxtb	r0, r6
 2961 144a FFF7FEFF 		bl	comm_can_ping
 2962              	.LVL378:
 2963 144e 0546     		mov	r5, r0
 2964 1450 20B1     		cbz	r0, .L144
ARM GAS  /tmp/ccHCUo6g.s 			page 53


 2965              		.loc 1 663 0
 2966 1452 3146     		mov	r1, r6
 2967 1454 3846     		mov	r0, r7
 2968 1456 FFF7FEFF 		bl	commands_printf
 2969              	.LVL379:
 2970              		.loc 1 664 0
 2971 145a 2C46     		mov	r4, r5
 2972              	.LVL380:
 2973              	.L144:
 2974              		.loc 1 661 0 discriminator 2
 2975 145c 0136     		adds	r6, r6, #1
 2976              	.LVL381:
 2977 145e FE2E     		cmp	r6, #254
 2978 1460 F2D1     		bne	.L145
 2979              	.LBE160:
 2980              		.loc 1 668 0
 2981 1462 002C     		cmp	r4, #0
 2982 1464 7FF4F8AE 		bne	.L256
 2983              		.loc 1 671 0
 2984 1468 5B48     		ldr	r0, .L315+56
 2985 146a FFF7FEFF 		bl	commands_printf
 2986              	.LVL382:
 2987 146e FEF73ABE 		b	.L1
 2988              	.LVL383:
 2989              	.L143:
 2990              	.LBE165:
 2991              		.loc 1 673 0
 2992 1472 5A49     		ldr	r1, .L315+60
 2993 1474 2846     		mov	r0, r5
 2994 1476 FFF7FEFF 		bl	strcmp
 2995              	.LVL384:
 2996 147a 88BB     		cbnz	r0, .L147
 2997              		.loc 1 674 0
 2998 147c 022C     		cmp	r4, #2
 2999 147e 7FF45EA8 		bne	.L47
 3000              	.LBB166:
 3001              		.loc 1 675 0
 3002 1482 574B     		ldr	r3, .L315+64
 3003              		.loc 1 676 0
 3004 1484 1998     		ldr	r0, [sp, #100]
 3005 1486 5749     		ldr	r1, .L315+68
 3006              		.loc 1 675 0
 3007 1488 1193     		str	r3, [sp, #68]	@ float
 3008              		.loc 1 676 0
 3009 148a 11AA     		add	r2, sp, #68
 3010 148c FFF7FEFF 		bl	sscanf
 3011              	.LVL385:
 3012              		.loc 1 678 0
 3013 1490 DDED117A 		vldr.32	s15, [sp, #68]
 3014 1494 F5EEC07A 		vcmpe.f32	s15, #0
 3015 1498 F1EE10FA 		vmrs	APSR_nzcv, FPSCR
 3016 149c 7EF72AAE 		ble	.L248
 3017              	.LBB84:
 3018              		.loc 1 679 0
 3019 14a0 5148     		ldr	r0, .L315+72
 3020 14a2 FFF7FEFF 		bl	commands_printf
 3021              	.LVL386:
ARM GAS  /tmp/ccHCUo6g.s 			page 54


 3022              		.loc 1 680 0
 3023 14a6 9FED512A 		vldr.32	s4, .L315+76
 3024 14aa 9DED110A 		vldr.32	s0, [sp, #68]
 3025 14ae F0EE421A 		vmov.f32	s3, s4
 3026 14b2 B0EE421A 		vmov.f32	s2, s4
 3027 14b6 F0EE420A 		vmov.f32	s1, s4
 3028 14ba 0120     		movs	r0, #1
 3029 14bc FFF7FEFF 		bl	conf_general_detect_apply_all_foc_can
 3030              	.LVL387:
 3031 14c0 FEE6     		b	.L269
 3032              	.LVL388:
 3033              	.L254:
 3034              		.loc 1 699 0
 3035 14c2 4B48     		ldr	r0, .L315+80
 3036 14c4 FFF7FEFF 		bl	commands_printf
 3037              	.LVL389:
 3038 14c8 FEF70DBE 		b	.L1
 3039              	.L253:
 3040              		.loc 1 701 0
 3041 14cc 4948     		ldr	r0, .L315+84
 3042 14ce FFF7FEFF 		bl	commands_printf
 3043              	.LVL390:
 3044 14d2 FEF708BE 		b	.L1
 3045              	.L255:
 3046              		.loc 1 697 0
 3047 14d6 4848     		ldr	r0, .L315+88
 3048 14d8 FFF7FEFF 		bl	commands_printf
 3049              	.LVL391:
 3050 14dc FEF703BE 		b	.L1
 3051              	.LVL392:
 3052              	.L147:
 3053              	.LBE84:
 3054              	.LBE166:
 3055              		.loc 1 720 0
 3056 14e0 4649     		ldr	r1, .L315+92
 3057 14e2 2846     		mov	r0, r5
 3058 14e4 FFF7FEFF 		bl	strcmp
 3059              	.LVL393:
 3060 14e8 B0BB     		cbnz	r0, .L159
 3061              		.loc 1 721 0
 3062 14ea 2E4C     		ldr	r4, .L315+4
 3063              	.LVL394:
 3064 14ec 94F89831 		ldrb	r3, [r4, #408]	@ zero_extendqisi2
 3065 14f0 9A1E     		subs	r2, r3, #2
 3066 14f2 012A     		cmp	r2, #1
 3067 14f4 40F2A181 		bls	.L160
 3068              		.loc 1 722 0
 3069 14f8 052B     		cmp	r3, #5
 3070 14fa 00F09E81 		beq	.L160
 3071              	.L161:
 3072              		.loc 1 730 0
 3073 14fe 94F89831 		ldrb	r3, [r4, #408]	@ zero_extendqisi2
 3074 1502 042B     		cmp	r3, #4
 3075 1504 7EF4EFAD 		bne	.L1
 3076              		.loc 1 731 0
 3077 1508 FFF7FEFF 		bl	encoder_sincos_get_signal_below_min_error_cnt
 3078              	.LVL395:
ARM GAS  /tmp/ccHCUo6g.s 			page 55


 3079 150c 0446     		mov	r4, r0
 3080              		.loc 1 733 0
 3081 150e FFF7FEFF 		bl	encoder_sincos_get_signal_below_min_error_rate
 3082              	.LVL396:
 3083 1512 10EE100A 		vmov	r0, s0
 3084 1516 FFF7FEFF 		bl	__aeabi_f2d
 3085              	.LVL397:
 3086              		.loc 1 731 0
 3087 151a 0022     		movs	r2, #0
 3088 151c 384B     		ldr	r3, .L315+96
 3089 151e FFF7FEFF 		bl	__aeabi_dmul
 3090              	.LVL398:
 3091 1522 0246     		mov	r2, r0
 3092 1524 0B46     		mov	r3, r1
 3093 1526 3748     		ldr	r0, .L315+100
 3094 1528 2146     		mov	r1, r4
 3095 152a FFF7FEFF 		bl	commands_printf
 3096              	.LVL399:
 3097              		.loc 1 735 0
 3098 152e FFF7FEFF 		bl	encoder_sincos_get_signal_above_max_error_cnt
 3099              	.LVL400:
 3100 1532 0446     		mov	r4, r0
 3101              		.loc 1 737 0
 3102 1534 FFF7FEFF 		bl	encoder_sincos_get_signal_above_max_error_rate
 3103              	.LVL401:
 3104 1538 10EE100A 		vmov	r0, s0
 3105 153c FFF7FEFF 		bl	__aeabi_f2d
 3106              	.LVL402:
 3107              		.loc 1 735 0
 3108 1540 0022     		movs	r2, #0
 3109 1542 2F4B     		ldr	r3, .L315+96
 3110 1544 FFF7FEFF 		bl	__aeabi_dmul
 3111              	.LVL403:
 3112 1548 0246     		mov	r2, r0
 3113 154a 0B46     		mov	r3, r1
 3114 154c 2E48     		ldr	r0, .L315+104
 3115 154e 2146     		mov	r1, r4
 3116 1550 FFF7FEFF 		bl	commands_printf
 3117              	.LVL404:
 3118 1554 FEF7C7BD 		b	.L1
 3119              	.LVL405:
 3120              	.L159:
 3121              		.loc 1 742 0
 3122 1558 2C49     		ldr	r1, .L315+108
 3123 155a 2846     		mov	r0, r5
 3124 155c FFF7FEFF 		bl	strcmp
 3125              	.LVL406:
 3126 1560 0646     		mov	r6, r0
 3127 1562 0028     		cmp	r0, #0
 3128 1564 5AD0     		beq	.L162
 3129              	.LBB167:
 3130              	.LBB168:
 3131              		.loc 1 878 0
 3132 1566 2A4B     		ldr	r3, .L315+112
 3133              		.loc 1 879 0
 3134 1568 DFF8AC80 		ldr	r8, .L315+120
 3135              		.loc 1 878 0
ARM GAS  /tmp/ccHCUo6g.s 			page 56


 3136 156c D3F80090 		ldr	r9, [r3]
 3137 1570 0026     		movs	r6, #0
 3138              	.L163:
 3139              	.LVL407:
 3140 1572 3301     		lsls	r3, r6, #4
 3141              		.loc 1 878 0 is_stmt 0 discriminator 1
 3142 1574 B145     		cmp	r9, r6
 3143              		.loc 1 879 0 is_stmt 1 discriminator 1
 3144 1576 08EB0302 		add	r2, r8, r3
 3145 157a 2846     		mov	r0, r5
 3146              		.loc 1 878 0 discriminator 1
 3147 157c 0ADD     		ble	.L301
 3148              		.loc 1 879 0
 3149 157e D768     		ldr	r7, [r2, #12]
 3150 1580 37B1     		cbz	r7, .L171
 3151              		.loc 1 879 0 is_stmt 0 discriminator 1
 3152 1582 53F80810 		ldr	r1, [r3, r8]
 3153 1586 FFF7FEFF 		bl	strcmp
 3154              	.LVL408:
 3155 158a 0028     		cmp	r0, #0
 3156 158c 00F06D81 		beq	.L302
 3157              	.L171:
 3158              		.loc 1 878 0 is_stmt 1 discriminator 2
 3159 1590 0136     		adds	r6, r6, #1
 3160              	.LVL409:
 3161 1592 EEE7     		b	.L163
 3162              	.L301:
 3163              	.LVL410:
 3164              	.LBE168:
 3165              		.loc 1 887 0
 3166 1594 2946     		mov	r1, r5
 3167 1596 1F48     		ldr	r0, .L315+116
 3168 1598 FFF7FEFF 		bl	commands_printf
 3169              	.LVL411:
 3170 159c FEF7A3BD 		b	.L1
 3171              	.L316:
 3172              		.align	2
 3173              	.L315:
 3174 15a0 780C0000 		.word	.LC139
 3175 15a4 00000000 		.word	.LANCHOR0
 3176 15a8 00007A44 		.word	1148846080
 3177 15ac A40C0000 		.word	.LC140
 3178 15b0 C40C0000 		.word	.LC141
 3179 15b4 00247449 		.word	1232348160
 3180 15b8 E40C0000 		.word	.LC142
 3181 15bc 080D0000 		.word	.LC143
 3182 15c0 00000000 		.word	.LC0
 3183 15c4 08000000 		.word	.LC1
 3184 15c8 280D0000 		.word	.LC144
 3185 15cc 440D0000 		.word	.LC145
 3186 15d0 C00D0000 		.word	.LC149
 3187 15d4 CC0D0000 		.word	.LC150
 3188 15d8 E40D0000 		.word	.LC151
 3189 15dc FC0D0000 		.word	.LC152
 3190 15e0 000080BF 		.word	-1082130432
 3191 15e4 50000000 		.word	.LC9
 3192 15e8 580C0000 		.word	.LC137
ARM GAS  /tmp/ccHCUo6g.s 			page 57


 3193 15ec 00000000 		.word	0
 3194 15f0 B00B0000 		.word	.LC129
 3195 15f4 D40B0000 		.word	.LC130
 3196 15f8 840B0000 		.word	.LC128
 3197 15fc 180E0000 		.word	.LC153
 3198 1600 00005940 		.word	1079574528
 3199 1604 580E0000 		.word	.LC155
 3200 1608 A80E0000 		.word	.LC156
 3201 160c F80E0000 		.word	.LC157
 3202 1610 00000000 		.word	.LANCHOR5
 3203 1614 181A0000 		.word	.LC219
 3204 1618 00000000 		.word	.LANCHOR6
 3205              	.LVL412:
 3206              	.L162:
 3207              	.LBE167:
 3208              		.loc 1 743 0
 3209 161c 9948     		ldr	r0, .L317
 3210 161e 9A4C     		ldr	r4, .L317+4
 3211              	.LVL413:
 3212 1620 DFF8AC93 		ldr	r9, .L317+332
 3213              	.LBB170:
 3214              		.loc 1 871 0
 3215 1624 DFF8AC83 		ldr	r8, .L317+336
 3216              		.loc 1 869 0
 3217 1628 984F     		ldr	r7, .L317+8
 3218              		.loc 1 863 0
 3219 162a 994D     		ldr	r5, .L317+12
 3220              	.LBE170:
 3221              		.loc 1 743 0
 3222 162c FFF7FEFF 		bl	commands_printf
 3223              	.LVL414:
 3224              		.loc 1 744 0
 3225 1630 9848     		ldr	r0, .L317+16
 3226 1632 FFF7FEFF 		bl	commands_printf
 3227              	.LVL415:
 3228              		.loc 1 745 0
 3229 1636 9848     		ldr	r0, .L317+20
 3230 1638 FFF7FEFF 		bl	commands_printf
 3231              	.LVL416:
 3232              		.loc 1 747 0
 3233 163c 9748     		ldr	r0, .L317+24
 3234 163e FFF7FEFF 		bl	commands_printf
 3235              	.LVL417:
 3236              		.loc 1 748 0
 3237 1642 9748     		ldr	r0, .L317+28
 3238 1644 FFF7FEFF 		bl	commands_printf
 3239              	.LVL418:
 3240              		.loc 1 750 0
 3241 1648 9648     		ldr	r0, .L317+32
 3242 164a FFF7FEFF 		bl	commands_printf
 3243              	.LVL419:
 3244              		.loc 1 751 0
 3245 164e 9648     		ldr	r0, .L317+36
 3246 1650 FFF7FEFF 		bl	commands_printf
 3247              	.LVL420:
 3248              		.loc 1 753 0
 3249 1654 9548     		ldr	r0, .L317+40
ARM GAS  /tmp/ccHCUo6g.s 			page 58


 3250 1656 FFF7FEFF 		bl	commands_printf
 3251              	.LVL421:
 3252              		.loc 1 754 0
 3253 165a 9548     		ldr	r0, .L317+44
 3254 165c FFF7FEFF 		bl	commands_printf
 3255              	.LVL422:
 3256              		.loc 1 756 0
 3257 1660 9448     		ldr	r0, .L317+48
 3258 1662 FFF7FEFF 		bl	commands_printf
 3259              	.LVL423:
 3260              		.loc 1 757 0
 3261 1666 9448     		ldr	r0, .L317+52
 3262 1668 FFF7FEFF 		bl	commands_printf
 3263              	.LVL424:
 3264              		.loc 1 759 0
 3265 166c 9348     		ldr	r0, .L317+56
 3266 166e FFF7FEFF 		bl	commands_printf
 3267              	.LVL425:
 3268              		.loc 1 760 0
 3269 1672 9348     		ldr	r0, .L317+60
 3270 1674 FFF7FEFF 		bl	commands_printf
 3271              	.LVL426:
 3272              		.loc 1 762 0
 3273 1678 9248     		ldr	r0, .L317+64
 3274 167a FFF7FEFF 		bl	commands_printf
 3275              	.LVL427:
 3276              		.loc 1 763 0
 3277 167e 9248     		ldr	r0, .L317+68
 3278 1680 FFF7FEFF 		bl	commands_printf
 3279              	.LVL428:
 3280              		.loc 1 765 0
 3281 1684 9148     		ldr	r0, .L317+72
 3282 1686 FFF7FEFF 		bl	commands_printf
 3283              	.LVL429:
 3284              		.loc 1 766 0
 3285 168a 9148     		ldr	r0, .L317+76
 3286 168c FFF7FEFF 		bl	commands_printf
 3287              	.LVL430:
 3288              		.loc 1 768 0
 3289 1690 9048     		ldr	r0, .L317+80
 3290 1692 FFF7FEFF 		bl	commands_printf
 3291              	.LVL431:
 3292              		.loc 1 769 0
 3293 1696 9048     		ldr	r0, .L317+84
 3294 1698 FFF7FEFF 		bl	commands_printf
 3295              	.LVL432:
 3296              		.loc 1 771 0
 3297 169c 8F48     		ldr	r0, .L317+88
 3298 169e FFF7FEFF 		bl	commands_printf
 3299              	.LVL433:
 3300              		.loc 1 772 0
 3301 16a2 8F48     		ldr	r0, .L317+92
 3302 16a4 FFF7FEFF 		bl	commands_printf
 3303              	.LVL434:
 3304              		.loc 1 774 0
 3305 16a8 8E48     		ldr	r0, .L317+96
 3306 16aa FFF7FEFF 		bl	commands_printf
ARM GAS  /tmp/ccHCUo6g.s 			page 59


 3307              	.LVL435:
 3308              		.loc 1 775 0
 3309 16ae 8E48     		ldr	r0, .L317+100
 3310 16b0 FFF7FEFF 		bl	commands_printf
 3311              	.LVL436:
 3312              		.loc 1 777 0
 3313 16b4 8D48     		ldr	r0, .L317+104
 3314 16b6 FFF7FEFF 		bl	commands_printf
 3315              	.LVL437:
 3316              		.loc 1 778 0
 3317 16ba 8D48     		ldr	r0, .L317+108
 3318 16bc FFF7FEFF 		bl	commands_printf
 3319              	.LVL438:
 3320              		.loc 1 780 0
 3321 16c0 8C48     		ldr	r0, .L317+112
 3322 16c2 FFF7FEFF 		bl	commands_printf
 3323              	.LVL439:
 3324              		.loc 1 781 0
 3325 16c6 8C48     		ldr	r0, .L317+116
 3326 16c8 FFF7FEFF 		bl	commands_printf
 3327              	.LVL440:
 3328              		.loc 1 783 0
 3329 16cc 8B48     		ldr	r0, .L317+120
 3330 16ce FFF7FEFF 		bl	commands_printf
 3331              	.LVL441:
 3332              		.loc 1 784 0
 3333 16d2 8B48     		ldr	r0, .L317+124
 3334 16d4 FFF7FEFF 		bl	commands_printf
 3335              	.LVL442:
 3336              		.loc 1 785 0
 3337 16d8 8A48     		ldr	r0, .L317+128
 3338 16da FFF7FEFF 		bl	commands_printf
 3339              	.LVL443:
 3340              		.loc 1 786 0
 3341 16de 8A48     		ldr	r0, .L317+132
 3342 16e0 FFF7FEFF 		bl	commands_printf
 3343              	.LVL444:
 3344              		.loc 1 788 0
 3345 16e4 8948     		ldr	r0, .L317+136
 3346 16e6 FFF7FEFF 		bl	commands_printf
 3347              	.LVL445:
 3348              		.loc 1 789 0
 3349 16ea 8948     		ldr	r0, .L317+140
 3350 16ec FFF7FEFF 		bl	commands_printf
 3351              	.LVL446:
 3352              		.loc 1 791 0
 3353 16f0 8848     		ldr	r0, .L317+144
 3354 16f2 FFF7FEFF 		bl	commands_printf
 3355              	.LVL447:
 3356              		.loc 1 792 0
 3357 16f6 8848     		ldr	r0, .L317+148
 3358 16f8 FFF7FEFF 		bl	commands_printf
 3359              	.LVL448:
 3360              		.loc 1 794 0
 3361 16fc 8748     		ldr	r0, .L317+152
 3362 16fe FFF7FEFF 		bl	commands_printf
 3363              	.LVL449:
ARM GAS  /tmp/ccHCUo6g.s 			page 60


 3364              		.loc 1 795 0
 3365 1702 8748     		ldr	r0, .L317+156
 3366 1704 FFF7FEFF 		bl	commands_printf
 3367              	.LVL450:
 3368              		.loc 1 797 0
 3369 1708 8648     		ldr	r0, .L317+160
 3370 170a FFF7FEFF 		bl	commands_printf
 3371              	.LVL451:
 3372              		.loc 1 798 0
 3373 170e 8648     		ldr	r0, .L317+164
 3374 1710 FFF7FEFF 		bl	commands_printf
 3375              	.LVL452:
 3376              		.loc 1 800 0
 3377 1714 8548     		ldr	r0, .L317+168
 3378 1716 FFF7FEFF 		bl	commands_printf
 3379              	.LVL453:
 3380              		.loc 1 801 0
 3381 171a 8548     		ldr	r0, .L317+172
 3382 171c FFF7FEFF 		bl	commands_printf
 3383              	.LVL454:
 3384              		.loc 1 803 0
 3385 1720 8448     		ldr	r0, .L317+176
 3386 1722 FFF7FEFF 		bl	commands_printf
 3387              	.LVL455:
 3388              		.loc 1 804 0
 3389 1726 8448     		ldr	r0, .L317+180
 3390 1728 FFF7FEFF 		bl	commands_printf
 3391              	.LVL456:
 3392              		.loc 1 806 0
 3393 172c 8348     		ldr	r0, .L317+184
 3394 172e FFF7FEFF 		bl	commands_printf
 3395              	.LVL457:
 3396              		.loc 1 807 0
 3397 1732 8348     		ldr	r0, .L317+188
 3398 1734 FFF7FEFF 		bl	commands_printf
 3399              	.LVL458:
 3400              		.loc 1 808 0
 3401 1738 8248     		ldr	r0, .L317+192
 3402 173a FFF7FEFF 		bl	commands_printf
 3403              	.LVL459:
 3404              		.loc 1 809 0
 3405 173e 8248     		ldr	r0, .L317+196
 3406 1740 FFF7FEFF 		bl	commands_printf
 3407              	.LVL460:
 3408              		.loc 1 811 0
 3409 1744 8148     		ldr	r0, .L317+200
 3410 1746 FFF7FEFF 		bl	commands_printf
 3411              	.LVL461:
 3412              		.loc 1 812 0
 3413 174a 8148     		ldr	r0, .L317+204
 3414 174c FFF7FEFF 		bl	commands_printf
 3415              	.LVL462:
 3416              		.loc 1 814 0
 3417 1750 8048     		ldr	r0, .L317+208
 3418 1752 FFF7FEFF 		bl	commands_printf
 3419              	.LVL463:
 3420              		.loc 1 815 0
ARM GAS  /tmp/ccHCUo6g.s 			page 61


 3421 1756 8048     		ldr	r0, .L317+212
 3422 1758 FFF7FEFF 		bl	commands_printf
 3423              	.LVL464:
 3424              		.loc 1 817 0
 3425 175c 7F48     		ldr	r0, .L317+216
 3426 175e FFF7FEFF 		bl	commands_printf
 3427              	.LVL465:
 3428              		.loc 1 818 0
 3429 1762 7F48     		ldr	r0, .L317+220
 3430 1764 FFF7FEFF 		bl	commands_printf
 3431              	.LVL466:
 3432              		.loc 1 819 0
 3433 1768 7E48     		ldr	r0, .L317+224
 3434 176a FFF7FEFF 		bl	commands_printf
 3435              	.LVL467:
 3436              		.loc 1 820 0
 3437 176e 7648     		ldr	r0, .L317+196
 3438 1770 FFF7FEFF 		bl	commands_printf
 3439              	.LVL468:
 3440              		.loc 1 822 0
 3441 1774 7C48     		ldr	r0, .L317+228
 3442 1776 FFF7FEFF 		bl	commands_printf
 3443              	.LVL469:
 3444              		.loc 1 823 0
 3445 177a 7C48     		ldr	r0, .L317+232
 3446 177c FFF7FEFF 		bl	commands_printf
 3447              	.LVL470:
 3448              		.loc 1 825 0
 3449 1780 7B48     		ldr	r0, .L317+236
 3450 1782 FFF7FEFF 		bl	commands_printf
 3451              	.LVL471:
 3452              		.loc 1 826 0
 3453 1786 7B48     		ldr	r0, .L317+240
 3454 1788 FFF7FEFF 		bl	commands_printf
 3455              	.LVL472:
 3456              		.loc 1 828 0
 3457 178c 7A48     		ldr	r0, .L317+244
 3458 178e FFF7FEFF 		bl	commands_printf
 3459              	.LVL473:
 3460              		.loc 1 829 0
 3461 1792 7A48     		ldr	r0, .L317+248
 3462 1794 FFF7FEFF 		bl	commands_printf
 3463              	.LVL474:
 3464              		.loc 1 831 0
 3465 1798 7948     		ldr	r0, .L317+252
 3466 179a FFF7FEFF 		bl	commands_printf
 3467              	.LVL475:
 3468              		.loc 1 832 0
 3469 179e 7948     		ldr	r0, .L317+256
 3470 17a0 FFF7FEFF 		bl	commands_printf
 3471              	.LVL476:
 3472              		.loc 1 834 0
 3473 17a4 7848     		ldr	r0, .L317+260
 3474 17a6 FFF7FEFF 		bl	commands_printf
 3475              	.LVL477:
 3476              		.loc 1 835 0
 3477 17aa 7848     		ldr	r0, .L317+264
ARM GAS  /tmp/ccHCUo6g.s 			page 62


 3478 17ac FFF7FEFF 		bl	commands_printf
 3479              	.LVL478:
 3480              		.loc 1 837 0
 3481 17b0 7748     		ldr	r0, .L317+268
 3482 17b2 FFF7FEFF 		bl	commands_printf
 3483              	.LVL479:
 3484              		.loc 1 838 0
 3485 17b6 7748     		ldr	r0, .L317+272
 3486 17b8 FFF7FEFF 		bl	commands_printf
 3487              	.LVL480:
 3488              		.loc 1 840 0
 3489 17bc 7648     		ldr	r0, .L317+276
 3490 17be FFF7FEFF 		bl	commands_printf
 3491              	.LVL481:
 3492              		.loc 1 841 0
 3493 17c2 7648     		ldr	r0, .L317+280
 3494 17c4 FFF7FEFF 		bl	commands_printf
 3495              	.LVL482:
 3496              		.loc 1 842 0
 3497 17c8 7548     		ldr	r0, .L317+284
 3498 17ca FFF7FEFF 		bl	commands_printf
 3499              	.LVL483:
 3500              		.loc 1 844 0
 3501 17ce 7548     		ldr	r0, .L317+288
 3502 17d0 FFF7FEFF 		bl	commands_printf
 3503              	.LVL484:
 3504              		.loc 1 845 0
 3505 17d4 7448     		ldr	r0, .L317+292
 3506 17d6 FFF7FEFF 		bl	commands_printf
 3507              	.LVL485:
 3508              		.loc 1 847 0
 3509 17da 7448     		ldr	r0, .L317+296
 3510 17dc FFF7FEFF 		bl	commands_printf
 3511              	.LVL486:
 3512              		.loc 1 848 0
 3513 17e0 7348     		ldr	r0, .L317+300
 3514 17e2 FFF7FEFF 		bl	commands_printf
 3515              	.LVL487:
 3516              		.loc 1 850 0
 3517 17e6 7348     		ldr	r0, .L317+304
 3518 17e8 FFF7FEFF 		bl	commands_printf
 3519              	.LVL488:
 3520              		.loc 1 851 0
 3521 17ec 7248     		ldr	r0, .L317+308
 3522 17ee FFF7FEFF 		bl	commands_printf
 3523              	.LVL489:
 3524              		.loc 1 852 0
 3525 17f2 7248     		ldr	r0, .L317+312
 3526 17f4 FFF7FEFF 		bl	commands_printf
 3527              	.LVL490:
 3528              		.loc 1 854 0
 3529 17f8 7148     		ldr	r0, .L317+316
 3530 17fa FFF7FEFF 		bl	commands_printf
 3531              	.LVL491:
 3532              		.loc 1 855 0
 3533 17fe 7148     		ldr	r0, .L317+320
 3534 1800 FFF7FEFF 		bl	commands_printf
ARM GAS  /tmp/ccHCUo6g.s 			page 63


 3535              	.LVL492:
 3536              	.L164:
 3537              	.LBB171:
 3538              		.loc 1 857 0 discriminator 1
 3539 1804 D9F80030 		ldr	r3, [r9]
 3540 1808 B342     		cmp	r3, r6
 3541              		.loc 1 863 0 discriminator 1
 3542 180a 2846     		mov	r0, r5
 3543              		.loc 1 857 0 discriminator 1
 3544 180c 7EF725AD 		ble	.L250
 3545              		.loc 1 858 0
 3546 1810 E368     		ldr	r3, [r4, #12]
 3547 1812 7BB1     		cbz	r3, .L165
 3548              		.loc 1 862 0
 3549 1814 D4F808C0 		ldr	ip, [r4, #8]
 3550 1818 2368     		ldr	r3, [r4]
 3551              		.loc 1 863 0
 3552 181a 6246     		mov	r2, ip
 3553 181c 1946     		mov	r1, r3
 3554              		.loc 1 862 0
 3555 181e BCF1000F 		cmp	ip, #0
 3556 1822 2BD0     		beq	.L166
 3557              		.loc 1 863 0
 3558 1824 FFF7FEFF 		bl	commands_printf
 3559              	.LVL493:
 3560              	.L167:
 3561              		.loc 1 868 0
 3562 1828 6368     		ldr	r3, [r4, #4]
 3563              		.loc 1 869 0
 3564 182a 3846     		mov	r0, r7
 3565 182c 1946     		mov	r1, r3
 3566              		.loc 1 868 0
 3567 182e 0BB3     		cbz	r3, .L168
 3568              		.loc 1 869 0
 3569 1830 FFF7FEFF 		bl	commands_printf
 3570              	.LVL494:
 3571              	.L165:
 3572              		.loc 1 857 0 discriminator 2
 3573 1834 0136     		adds	r6, r6, #1
 3574              	.LVL495:
 3575 1836 1034     		adds	r4, r4, #16
 3576 1838 E4E7     		b	.L164
 3577              	.LVL496:
 3578              	.L160:
 3579              	.LBE171:
 3580              		.loc 1 725 0
 3581 183a FFF7FEFF 		bl	encoder_spi_get_val
 3582              	.LVL497:
 3583 183e 0546     		mov	r5, r0
 3584              		.loc 1 724 0
 3585 1840 FFF7FEFF 		bl	encoder_spi_get_error_cnt
 3586              	.LVL498:
 3587 1844 0646     		mov	r6, r0
 3588              		.loc 1 727 0
 3589 1846 FFF7FEFF 		bl	encoder_spi_get_error_rate
 3590              	.LVL499:
 3591 184a 10EE100A 		vmov	r0, s0
ARM GAS  /tmp/ccHCUo6g.s 			page 64


 3592 184e FFF7FEFF 		bl	__aeabi_f2d
 3593              	.LVL500:
 3594              		.loc 1 724 0
 3595 1852 0022     		movs	r2, #0
 3596 1854 5C4B     		ldr	r3, .L317+324
 3597 1856 FFF7FEFF 		bl	__aeabi_dmul
 3598              	.LVL501:
 3599 185a 3246     		mov	r2, r6
 3600 185c CDE90001 		strd	r0, [sp]
 3601 1860 2946     		mov	r1, r5
 3602 1862 5A48     		ldr	r0, .L317+328
 3603 1864 FFF7FEFF 		bl	commands_printf
 3604              	.LVL502:
 3605 1868 49E6     		b	.L161
 3606              	.LVL503:
 3607              	.L302:
 3608              	.LBB172:
 3609              	.LBB169:
 3610              		.loc 1 880 0
 3611 186a 18A9     		add	r1, sp, #96
 3612 186c 2046     		mov	r0, r4
 3613 186e B847     		blx	r7
 3614              	.LVL504:
 3615 1870 FEF739BC 		b	.L1
 3616              	.LVL505:
 3617              	.L168:
 3618              	.LBE169:
 3619              	.LBE172:
 3620              	.LBB173:
 3621              		.loc 1 871 0
 3622 1874 4046     		mov	r0, r8
 3623 1876 FFF7FEFF 		bl	commands_printf
 3624              	.LVL506:
 3625 187a DBE7     		b	.L165
 3626              	.L166:
 3627              		.loc 1 865 0
 3628 187c 1846     		mov	r0, r3
 3629 187e FFF7FEFF 		bl	commands_printf
 3630              	.LVL507:
 3631 1882 D1E7     		b	.L167
 3632              	.L318:
 3633              		.align	2
 3634              	.L317:
 3635 1884 000F0000 		.word	.LC158
 3636 1888 00000000 		.word	.LANCHOR6
 3637 188c E0190000 		.word	.LC217
 3638 1890 D8190000 		.word	.LC216
 3639 1894 F80E0000 		.word	.LC157
 3640 1898 140F0000 		.word	.LC159
 3641 189c 34000000 		.word	.LC6
 3642 18a0 280F0000 		.word	.LC160
 3643 18a4 74000000 		.word	.LC12
 3644 18a8 540F0000 		.word	.LC161
 3645 18ac 8C000000 		.word	.LC14
 3646 18b0 680F0000 		.word	.LC162
 3647 18b4 10010000 		.word	.LC18
 3648 18b8 980F0000 		.word	.LC163
ARM GAS  /tmp/ccHCUo6g.s 			page 65


 3649 18bc 34010000 		.word	.LC20
 3650 18c0 BC0F0000 		.word	.LC164
 3651 18c4 8C010000 		.word	.LC24
 3652 18c8 D00F0000 		.word	.LC165
 3653 18cc 44020000 		.word	.LC28
 3654 18d0 E40F0000 		.word	.LC166
 3655 18d4 50020000 		.word	.LC30
 3656 18d8 04100000 		.word	.LC167
 3657 18dc A8040000 		.word	.LC54
 3658 18e0 48100000 		.word	.LC168
 3659 18e4 C8040000 		.word	.LC56
 3660 18e8 6C100000 		.word	.LC169
 3661 18ec E8040000 		.word	.LC58
 3662 18f0 88100000 		.word	.LC170
 3663 18f4 A0050000 		.word	.LC70
 3664 18f8 A8100000 		.word	.LC171
 3665 18fc C4100000 		.word	.LC172
 3666 1900 F0100000 		.word	.LC173
 3667 1904 34110000 		.word	.LC174
 3668 1908 70110000 		.word	.LC175
 3669 190c 24070000 		.word	.LC82
 3670 1910 98110000 		.word	.LC176
 3671 1914 80070000 		.word	.LC86
 3672 1918 B8110000 		.word	.LC177
 3673 191c F4110000 		.word	.LC178
 3674 1920 14120000 		.word	.LC179
 3675 1924 58120000 		.word	.LC180
 3676 1928 70120000 		.word	.LC181
 3677 192c B0120000 		.word	.LC182
 3678 1930 C4120000 		.word	.LC183
 3679 1934 18130000 		.word	.LC184
 3680 1938 44130000 		.word	.LC185
 3681 193c 78130000 		.word	.LC186
 3682 1940 B0130000 		.word	.LC187
 3683 1944 F0130000 		.word	.LC188
 3684 1948 1C140000 		.word	.LC189
 3685 194c D0090000 		.word	.LC109
 3686 1950 54140000 		.word	.LC190
 3687 1954 AC140000 		.word	.LC191
 3688 1958 C8140000 		.word	.LC192
 3689 195c 00150000 		.word	.LC193
 3690 1960 48150000 		.word	.LC194
 3691 1964 88150000 		.word	.LC195
 3692 1968 480A0000 		.word	.LC114
 3693 196c B4150000 		.word	.LC196
 3694 1970 540A0000 		.word	.LC115
 3695 1974 D8150000 		.word	.LC197
 3696 1978 04160000 		.word	.LC198
 3697 197c 24160000 		.word	.LC199
 3698 1980 54160000 		.word	.LC200
 3699 1984 74160000 		.word	.LC201
 3700 1988 A4160000 		.word	.LC202
 3701 198c C4160000 		.word	.LC203
 3702 1990 EC160000 		.word	.LC204
 3703 1994 10170000 		.word	.LC205
 3704 1998 54170000 		.word	.LC206
 3705 199c 8C170000 		.word	.LC207
ARM GAS  /tmp/ccHCUo6g.s 			page 66


 3706 19a0 D8170000 		.word	.LC208
 3707 19a4 00180000 		.word	.LC209
 3708 19a8 28180000 		.word	.LC210
 3709 19ac C00D0000 		.word	.LC149
 3710 19b0 80180000 		.word	.LC211
 3711 19b4 CC180000 		.word	.LC212
 3712 19b8 F8180000 		.word	.LC213
 3713 19bc 54190000 		.word	.LC214
 3714 19c0 180E0000 		.word	.LC153
 3715 19c4 90190000 		.word	.LC215
 3716 19c8 00005940 		.word	1079574528
 3717 19cc 200E0000 		.word	.LC154
 3718 19d0 00000000 		.word	.LANCHOR5
 3719 19d4 E8190000 		.word	.LC218
 3720              	.LBE173:
 3721              		.cfi_endproc
 3722              	.LFE259:
 3723              		.size	terminal_process_string, .-terminal_process_string
 3724              		.section	.text.terminal_add_fault_data,"ax",%progbits
 3725              		.align	1
 3726              		.p2align 4,,15
 3727              		.global	terminal_add_fault_data
 3728              		.syntax unified
 3729              		.thumb
 3730              		.thumb_func
 3731              		.fpu fpv4-sp-d16
 3732              		.type	terminal_add_fault_data, %function
 3733              	terminal_add_fault_data:
 3734              	.LFB260:
 3735              		.loc 1 893 0
 3736              		.cfi_startproc
 3737              		@ args = 0, pretend = 0, frame = 0
 3738              		@ frame_needed = 0, uses_anonymous_args = 0
 3739              	.LVL508:
 3740 0000 38B5     		push	{r3, r4, r5, lr}
 3741              		.cfi_def_cfa_offset 16
 3742              		.cfi_offset 3, -16
 3743              		.cfi_offset 4, -12
 3744              		.cfi_offset 5, -8
 3745              		.cfi_offset 14, -4
 3746              		.loc 1 894 0
 3747 0002 094C     		ldr	r4, .L322
 3748 0004 094A     		ldr	r2, .L322+4
 3749 0006 2368     		ldr	r3, [r4]
 3750 0008 03EB8305 		add	r5, r3, r3, lsl #2
 3751 000c 0146     		mov	r1, r0
 3752 000e 0133     		adds	r3, r3, #1
 3753 0010 02EB0510 		add	r0, r2, r5, lsl #4
 3754              	.LVL509:
 3755 0014 5022     		movs	r2, #80
 3756 0016 2360     		str	r3, [r4]
 3757 0018 FFF7FEFF 		bl	memcpy
 3758              	.LVL510:
 3759              		.loc 1 895 0
 3760 001c 2368     		ldr	r3, [r4]
 3761 001e 182B     		cmp	r3, #24
 3762              		.loc 1 896 0
ARM GAS  /tmp/ccHCUo6g.s 			page 67


 3763 0020 C4BF     		itt	gt
 3764 0022 1823     		movgt	r3, #24
 3765 0024 2360     		strgt	r3, [r4]
 3766              		.loc 1 898 0
 3767 0026 38BD     		pop	{r3, r4, r5, pc}
 3768              	.L323:
 3769              		.align	2
 3770              	.L322:
 3771 0028 00000000 		.word	.LANCHOR3
 3772 002c 00000000 		.word	.LANCHOR4
 3773              		.cfi_endproc
 3774              	.LFE260:
 3775              		.size	terminal_add_fault_data, .-terminal_add_fault_data
 3776              		.section	.text.terminal_get_fault_vec_write,"ax",%progbits
 3777              		.align	1
 3778              		.p2align 4,,15
 3779              		.global	terminal_get_fault_vec_write
 3780              		.syntax unified
 3781              		.thumb
 3782              		.thumb_func
 3783              		.fpu fpv4-sp-d16
 3784              		.type	terminal_get_fault_vec_write, %function
 3785              	terminal_get_fault_vec_write:
 3786              	.LFB261:
 3787              		.loc 1 900 0
 3788              		.cfi_startproc
 3789              		@ args = 0, pretend = 0, frame = 0
 3790              		@ frame_needed = 0, uses_anonymous_args = 0
 3791              		@ link register save eliminated.
 3792              		.loc 1 901 0
 3793 0000 014B     		ldr	r3, .L325
 3794 0002 1868     		ldr	r0, [r3]
 3795              		.loc 1 902 0
 3796 0004 7047     		bx	lr
 3797              	.L326:
 3798 0006 00BF     		.align	2
 3799              	.L325:
 3800 0008 00000000 		.word	.LANCHOR3
 3801              		.cfi_endproc
 3802              	.LFE261:
 3803              		.size	terminal_get_fault_vec_write, .-terminal_get_fault_vec_write
 3804              		.section	.text.terminal_register_command_callback,"ax",%progbits
 3805              		.align	1
 3806              		.p2align 4,,15
 3807              		.global	terminal_register_command_callback
 3808              		.syntax unified
 3809              		.thumb
 3810              		.thumb_func
 3811              		.fpu fpv4-sp-d16
 3812              		.type	terminal_register_command_callback, %function
 3813              	terminal_register_command_callback:
 3814              	.LFB262:
 3815              		.loc 1 925 0
 3816              		.cfi_startproc
 3817              		@ args = 0, pretend = 0, frame = 8
 3818              		@ frame_needed = 0, uses_anonymous_args = 0
 3819              	.LVL511:
ARM GAS  /tmp/ccHCUo6g.s 			page 68


 3820 0000 2DE9F04F 		push	{r4, r5, r6, r7, r8, r9, r10, fp, lr}
 3821              		.cfi_def_cfa_offset 36
 3822              		.cfi_offset 4, -36
 3823              		.cfi_offset 5, -32
 3824              		.cfi_offset 6, -28
 3825              		.cfi_offset 7, -24
 3826              		.cfi_offset 8, -20
 3827              		.cfi_offset 9, -16
 3828              		.cfi_offset 10, -12
 3829              		.cfi_offset 11, -8
 3830              		.cfi_offset 14, -4
 3831              		.loc 1 927 0
 3832 0004 DFF884B0 		ldr	fp, .L346+4
 3833              	.LBB174:
 3834              		.loc 1 931 0
 3835 0008 1F4F     		ldr	r7, .L346
 3836              	.LBE174:
 3837              		.loc 1 927 0
 3838 000a DBF80060 		ldr	r6, [fp]
 3839              	.LVL512:
 3840              		.loc 1 925 0
 3841 000e 83B0     		sub	sp, sp, #12
 3842              		.cfi_def_cfa_offset 48
 3843              	.LBB175:
 3844              		.loc 1 929 0
 3845 0010 002E     		cmp	r6, #0
 3846              	.LBE175:
 3847              		.loc 1 925 0
 3848 0012 0546     		mov	r5, r0
 3849 0014 8A46     		mov	r10, r1
 3850 0016 9146     		mov	r9, r2
 3851 0018 0193     		str	r3, [sp, #4]
 3852              	.LBB176:
 3853              		.loc 1 929 0
 3854 001a 1EDD     		ble	.L328
 3855              		.loc 1 931 0
 3856 001c 3868     		ldr	r0, [r7]
 3857              	.LVL513:
 3858 001e 8542     		cmp	r5, r0
 3859 0020 30D0     		beq	.L334
 3860 0022 B846     		mov	r8, r7
 3861              		.loc 1 929 0
 3862 0024 0024     		movs	r4, #0
 3863 0026 09E0     		b	.L330
 3864              	.LVL514:
 3865              	.L344:
 3866              		.loc 1 943 0
 3867 0028 D8F80C20 		ldr	r2, [r8, #12]
 3868 002c 5AB1     		cbz	r2, .L329
 3869              		.loc 1 929 0 discriminator 2
 3870 002e 0134     		adds	r4, r4, #1
 3871              	.LVL515:
 3872 0030 A642     		cmp	r6, r4
 3873 0032 12D0     		beq	.L328
 3874              		.loc 1 931 0
 3875 0034 58F8100F 		ldr	r0, [r8, #16]!
 3876 0038 A842     		cmp	r0, r5
ARM GAS  /tmp/ccHCUo6g.s 			page 69


 3877 003a 04D0     		beq	.L329
 3878              	.LVL516:
 3879              	.L330:
 3880              		.loc 1 937 0
 3881 003c 2946     		mov	r1, r5
 3882 003e FFF7FEFF 		bl	strcmp
 3883              	.LVL517:
 3884 0042 0028     		cmp	r0, #0
 3885 0044 F0D1     		bne	.L344
 3886              	.LVL518:
 3887              	.L329:
 3888              	.LBE176:
 3889              		.loc 1 949 0
 3890 0046 2401     		lsls	r4, r4, #4
 3891              	.LVL519:
 3892 0048 3B19     		adds	r3, r7, r4
 3893              		.loc 1 952 0
 3894 004a 019A     		ldr	r2, [sp, #4]
 3895              		.loc 1 949 0
 3896 004c 3D51     		str	r5, [r7, r4]
 3897              		.loc 1 951 0
 3898 004e C3E901A9 		strd	r10, r9, [r3, #4]
 3899              		.loc 1 952 0
 3900 0052 DA60     		str	r2, [r3, #12]
 3901              		.loc 1 960 0
 3902 0054 03B0     		add	sp, sp, #12
 3903              		.cfi_remember_state
 3904              		.cfi_def_cfa_offset 36
 3905              		@ sp needed
 3906 0056 BDE8F08F 		pop	{r4, r5, r6, r7, r8, r9, r10, fp, pc}
 3907              	.LVL520:
 3908              	.L328:
 3909              		.cfi_restore_state
 3910              		.loc 1 949 0
 3911 005a 3201     		lsls	r2, r6, #4
 3912 005c BB18     		adds	r3, r7, r2
 3913              		.loc 1 955 0
 3914 005e 0136     		adds	r6, r6, #1
 3915              	.LVL521:
 3916              		.loc 1 949 0
 3917 0060 BD50     		str	r5, [r7, r2]
 3918              		.loc 1 956 0
 3919 0062 272E     		cmp	r6, #39
 3920              		.loc 1 952 0
 3921 0064 019A     		ldr	r2, [sp, #4]
 3922 0066 DA60     		str	r2, [r3, #12]
 3923              		.loc 1 951 0
 3924 0068 C3E901A9 		strd	r10, r9, [r3, #4]
 3925              		.loc 1 956 0
 3926 006c 05DD     		ble	.L345
 3927              		.loc 1 957 0
 3928 006e 0023     		movs	r3, #0
 3929 0070 CBF80030 		str	r3, [fp]
 3930              		.loc 1 960 0
 3931 0074 03B0     		add	sp, sp, #12
 3932              		.cfi_remember_state
 3933              		.cfi_def_cfa_offset 36
ARM GAS  /tmp/ccHCUo6g.s 			page 70


 3934              		@ sp needed
 3935 0076 BDE8F08F 		pop	{r4, r5, r6, r7, r8, r9, r10, fp, pc}
 3936              	.LVL522:
 3937              	.L345:
 3938              		.cfi_restore_state
 3939              		.loc 1 955 0
 3940 007a CBF80060 		str	r6, [fp]
 3941              		.loc 1 960 0
 3942 007e 03B0     		add	sp, sp, #12
 3943              		.cfi_remember_state
 3944              		.cfi_def_cfa_offset 36
 3945              		@ sp needed
 3946 0080 BDE8F08F 		pop	{r4, r5, r6, r7, r8, r9, r10, fp, pc}
 3947              	.LVL523:
 3948              	.L334:
 3949              		.cfi_restore_state
 3950              	.LBB177:
 3951              		.loc 1 929 0
 3952 0084 0024     		movs	r4, #0
 3953 0086 DEE7     		b	.L329
 3954              	.L347:
 3955              		.align	2
 3956              	.L346:
 3957 0088 00000000 		.word	.LANCHOR6
 3958 008c 00000000 		.word	.LANCHOR5
 3959              	.LBE177:
 3960              		.cfi_endproc
 3961              	.LFE262:
 3962              		.size	terminal_register_command_callback, .-terminal_register_command_callback
 3963              		.section	.text.terminal_unregister_callback,"ax",%progbits
 3964              		.align	1
 3965              		.p2align 4,,15
 3966              		.global	terminal_unregister_callback
 3967              		.syntax unified
 3968              		.thumb
 3969              		.thumb_func
 3970              		.fpu fpv4-sp-d16
 3971              		.type	terminal_unregister_callback, %function
 3972              	terminal_unregister_callback:
 3973              	.LFB263:
 3974              		.loc 1 962 0
 3975              		.cfi_startproc
 3976              		@ args = 0, pretend = 0, frame = 0
 3977              		@ frame_needed = 0, uses_anonymous_args = 0
 3978              		@ link register save eliminated.
 3979              	.LVL524:
 3980              	.LBB178:
 3981              		.loc 1 963 0
 3982 0000 094B     		ldr	r3, .L357
 3983 0002 1968     		ldr	r1, [r3]
 3984 0004 0029     		cmp	r1, #0
 3985 0006 0EDD     		ble	.L354
 3986 0008 084B     		ldr	r3, .L357+4
 3987              	.LBE178:
 3988              		.loc 1 962 0
 3989 000a 10B4     		push	{r4}
 3990              		.cfi_def_cfa_offset 4
ARM GAS  /tmp/ccHCUo6g.s 			page 71


 3991              		.cfi_offset 4, -4
 3992 000c 03EB0111 		add	r1, r3, r1, lsl #4
 3993              	.LBB179:
 3994              		.loc 1 965 0
 3995 0010 0024     		movs	r4, #0
 3996              	.LVL525:
 3997              	.L351:
 3998              		.loc 1 964 0
 3999 0012 DA68     		ldr	r2, [r3, #12]
 4000 0014 8242     		cmp	r2, r0
 4001              		.loc 1 965 0
 4002 0016 08BF     		it	eq
 4003 0018 DC60     		streq	r4, [r3, #12]
 4004 001a 1033     		adds	r3, r3, #16
 4005              		.loc 1 963 0
 4006 001c 8B42     		cmp	r3, r1
 4007 001e F8D1     		bne	.L351
 4008              	.LBE179:
 4009              		.loc 1 968 0
 4010 0020 5DF8044B 		ldr	r4, [sp], #4
 4011              		.cfi_restore 4
 4012              		.cfi_def_cfa_offset 0
 4013 0024 7047     		bx	lr
 4014              	.LVL526:
 4015              	.L354:
 4016 0026 7047     		bx	lr
 4017              	.L358:
 4018              		.align	2
 4019              	.L357:
 4020 0028 00000000 		.word	.LANCHOR5
 4021 002c 00000000 		.word	.LANCHOR6
 4022              		.cfi_endproc
 4023              	.LFE263:
 4024              		.size	terminal_unregister_callback, .-terminal_unregister_callback
 4025              		.section	.bss.callback_write,"aw",%nobits
 4026              		.align	2
 4027              		.set	.LANCHOR5,. + 0
 4028              		.type	callback_write, %object
 4029              		.size	callback_write, 4
 4030              	callback_write:
 4031 0000 00000000 		.space	4
 4032              		.section	.bss.callbacks,"aw",%nobits
 4033              		.align	2
 4034              		.set	.LANCHOR6,. + 0
 4035              		.type	callbacks, %object
 4036              		.size	callbacks, 640
 4037              	callbacks:
 4038 0000 00000000 		.space	640
 4038      00000000 
 4038      00000000 
 4038      00000000 
 4038      00000000 
 4039              		.section	.bss.fault_vec,"aw",%nobits
 4040              		.align	2
 4041              		.set	.LANCHOR4,. + 0
 4042              		.type	fault_vec, %object
 4043              		.size	fault_vec, 2000
ARM GAS  /tmp/ccHCUo6g.s 			page 72


 4044              	fault_vec:
 4045 0000 00000000 		.space	2000
 4045      00000000 
 4045      00000000 
 4045      00000000 
 4045      00000000 
 4046              		.section	.bss.fault_vec_write,"aw",%nobits
 4047              		.align	2
 4048              		.set	.LANCHOR3,. + 0
 4049              		.type	fault_vec_write, %object
 4050              		.size	fault_vec_write, 4
 4051              	fault_vec_write:
 4052 0000 00000000 		.space	4
 4053              		.section	.bss.mcconf.13534,"aw",%nobits
 4054              		.align	2
 4055              		.set	.LANCHOR0,. + 0
 4056              		.type	mcconf.13534, %object
 4057              		.size	mcconf.13534, 456
 4058              	mcconf.13534:
 4059 0000 00000000 		.space	456
 4059      00000000 
 4059      00000000 
 4059      00000000 
 4059      00000000 
 4060              		.section	.bss.mcconf_old.13535,"aw",%nobits
 4061              		.align	2
 4062              		.set	.LANCHOR1,. + 0
 4063              		.type	mcconf_old.13535, %object
 4064              		.size	mcconf_old.13535, 456
 4065              	mcconf_old.13535:
 4066 0000 00000000 		.space	456
 4066      00000000 
 4066      00000000 
 4066      00000000 
 4066      00000000 
 4067              		.section	.rodata.states.13540,"a",%progbits
 4068              		.align	2
 4069              		.set	.LANCHOR2,. + 0
 4070              		.type	states.13540, %object
 4071              		.size	states.13540, 64
 4072              	states.13540:
 4073 0000 00000000 		.word	.LC220
 4074 0004 08000000 		.word	.LC221
 4075 0008 10000000 		.word	.LC222
 4076 000c 18000000 		.word	.LC223
 4077 0010 24000000 		.word	.LC224
 4078 0014 2C000000 		.word	.LC225
 4079 0018 34000000 		.word	.LC226
 4080 001c 3C000000 		.word	.LC227
 4081 0020 44000000 		.word	.LC228
 4082 0024 50000000 		.word	.LC229
 4083 0028 58000000 		.word	.LC230
 4084 002c 60000000 		.word	.LC231
 4085 0030 6C000000 		.word	.LC232
 4086 0034 74000000 		.word	.LC233
 4087 0038 7C000000 		.word	.LC234
 4088 003c 84000000 		.word	.LC235
ARM GAS  /tmp/ccHCUo6g.s 			page 73


 4089              		.section	.rodata.str1.4,"aMS",%progbits,1
 4090              		.align	2
 4091              	.LC220:
 4092 0000 52454144 		.ascii	"READY\000"
 4092      5900
 4093 0006 0000     		.space	2
 4094              	.LC221:
 4095 0008 43555252 		.ascii	"CURRENT\000"
 4095      454E5400 
 4096              	.LC222:
 4097 0010 57545354 		.ascii	"WTSTART\000"
 4097      41525400 
 4098              	.LC223:
 4099 0018 53555350 		.ascii	"SUSPENDED\000"
 4099      454E4445 
 4099      4400
 4100 0022 0000     		.space	2
 4101              	.LC224:
 4102 0024 51554555 		.ascii	"QUEUED\000"
 4102      454400
 4103 002b 00       		.space	1
 4104              	.LC225:
 4105 002c 57545345 		.ascii	"WTSEM\000"
 4105      4D00
 4106 0032 0000     		.space	2
 4107              	.LC226:
 4108 0034 57544D54 		.ascii	"WTMTX\000"
 4108      5800
 4109 003a 0000     		.space	2
 4110              	.LC227:
 4111 003c 5754434F 		.ascii	"WTCOND\000"
 4111      4E4400
 4112 0043 00       		.space	1
 4113              	.LC228:
 4114 0044 534C4545 		.ascii	"SLEEPING\000"
 4114      50494E47 
 4114      00
 4115 004d 000000   		.space	3
 4116              	.LC229:
 4117 0050 57544558 		.ascii	"WTEXIT\000"
 4117      495400
 4118 0057 00       		.space	1
 4119              	.LC230:
 4120 0058 57544F52 		.ascii	"WTOREVT\000"
 4120      45565400 
 4121              	.LC231:
 4122 0060 5754414E 		.ascii	"WTANDEVT\000"
 4122      44455654 
 4122      00
 4123 0069 000000   		.space	3
 4124              	.LC232:
 4125 006c 534E444D 		.ascii	"SNDMSGQ\000"
 4125      53475100 
 4126              	.LC233:
 4127 0074 534E444D 		.ascii	"SNDMSG\000"
 4127      534700
 4128 007b 00       		.space	1
ARM GAS  /tmp/ccHCUo6g.s 			page 74


 4129              	.LC234:
 4130 007c 57544D53 		.ascii	"WTMSG\000"
 4130      4700
 4131 0082 0000     		.space	2
 4132              	.LC235:
 4133 0084 46494E41 		.ascii	"FINAL\000"
 4133      4C00
 4134              		.section	.rodata.terminal_process_string.str1.4,"aMS",%progbits,1
 4135              		.align	2
 4136              	.LC0:
 4137 0000 74727565 		.ascii	"true\000"
 4137      00
 4138 0005 000000   		.space	3
 4139              	.LC1:
 4140 0008 66616C73 		.ascii	"false\000"
 4140      6500
 4141 000e 0000     		.space	2
 4142              	.LC2:
 4143 0010 59657300 		.ascii	"Yes\000"
 4144              	.LC3:
 4145 0014 4E6F00   		.ascii	"No\000"
 4146 0017 00       		.space	1
 4147              	.LC4:
 4148 0018 2000     		.ascii	" \000"
 4149 001a 0000     		.space	2
 4150              	.LC5:
 4151 001c 4E6F2063 		.ascii	"No command received\012\000"
 4151      6F6D6D61 
 4151      6E642072 
 4151      65636569 
 4151      7665640A 
 4152 0031 000000   		.space	3
 4153              	.LC6:
 4154 0034 70696E67 		.ascii	"ping\000"
 4154      00
 4155 0039 000000   		.space	3
 4156              	.LC7:
 4157 003c 706F6E67 		.ascii	"pong\012\000"
 4157      0A00
 4158 0042 0000     		.space	2
 4159              	.LC8:
 4160 0044 74616368 		.ascii	"tachoadd\000"
 4160      6F616464 
 4160      00
 4161 004d 000000   		.space	3
 4162              	.LC9:
 4163 0050 256600   		.ascii	"%f\000"
 4164 0053 00       		.space	1
 4165              	.LC10:
 4166 0054 446F6E65 		.ascii	"Done.\012\000"
 4166      2E0A00
 4167 005b 00       		.space	1
 4168              	.LC11:
 4169 005c 496E7661 		.ascii	"Invalid argument(s).\012\000"
 4169      6C696420 
 4169      61726775 
 4169      6D656E74 
ARM GAS  /tmp/ccHCUo6g.s 			page 75


 4169      2873292E 
 4170 0072 0000     		.space	2
 4171              	.LC12:
 4172 0074 73746F70 		.ascii	"stop\000"
 4172      00
 4173 0079 000000   		.space	3
 4174              	.LC13:
 4175 007c 4D6F746F 		.ascii	"Motor stopped\012\000"
 4175      72207374 
 4175      6F707065 
 4175      640A00
 4176 008b 00       		.space	1
 4177              	.LC14:
 4178 008c 6C617374 		.ascii	"last_adc_duration\000"
 4178      5F616463 
 4178      5F647572 
 4178      6174696F 
 4178      6E00
 4179 009e 0000     		.space	2
 4180              	.LC15:
 4181 00a0 4C617465 		.ascii	"Latest ADC duration: %.4f ms\000"
 4181      73742041 
 4181      44432064 
 4181      75726174 
 4181      696F6E3A 
 4182 00bd 000000   		.space	3
 4183              	.LC16:
 4184 00c0 4C617465 		.ascii	"Latest injected ADC duration: %.4f ms\000"
 4184      73742069 
 4184      6E6A6563 
 4184      74656420 
 4184      41444320 
 4185 00e6 0000     		.space	2
 4186              	.LC17:
 4187 00e8 4C617465 		.ascii	"Latest sample ADC duration: %.4f ms\012\000"
 4187      73742073 
 4187      616D706C 
 4187      65204144 
 4187      43206475 
 4188 010d 000000   		.space	3
 4189              	.LC18:
 4190 0110 6B7600   		.ascii	"kv\000"
 4191 0113 00       		.space	1
 4192              	.LC19:
 4193 0114 43616C63 		.ascii	"Calculated KV: %.2f rpm/volt\012\000"
 4193      756C6174 
 4193      6564204B 
 4193      563A2025 
 4193      2E326620 
 4194 0132 0000     		.space	2
 4195              	.LC20:
 4196 0134 6D656D00 		.ascii	"mem\000"
 4197              	.LC21:
 4198 0138 636F7265 		.ascii	"core free memory : %u bytes\000"
 4198      20667265 
 4198      65206D65 
 4198      6D6F7279 
ARM GAS  /tmp/ccHCUo6g.s 			page 76


 4198      203A2025 
 4199              	.LC22:
 4200 0154 68656170 		.ascii	"heap fragments   : %u\000"
 4200      20667261 
 4200      676D656E 
 4200      74732020 
 4200      203A2025 
 4201 016a 0000     		.space	2
 4202              	.LC23:
 4203 016c 68656170 		.ascii	"heap free total  : %u bytes\012\000"
 4203      20667265 
 4203      6520746F 
 4203      74616C20 
 4203      203A2025 
 4204 0189 000000   		.space	3
 4205              	.LC24:
 4206 018c 74687265 		.ascii	"threads\000"
 4206      61647300 
 4207              	.LC25:
 4208 0194 20202020 		.ascii	"    addr    stack prio refs     state           nam"
 4208      61646472 
 4208      20202020 
 4208      73746163 
 4208      6B207072 
 4209 01c7 65207469 		.ascii	"e time    \000"
 4209      6D652020 
 4209      202000
 4210 01d2 0000     		.space	2
 4211              	.LC26:
 4212 01d4 2D2D2D2D 		.ascii	"---------------------------------------------------"
 4212      2D2D2D2D 
 4212      2D2D2D2D 
 4212      2D2D2D2D 
 4212      2D2D2D2D 
 4213 0207 2D2D2D2D 		.ascii	"----------\000"
 4213      2D2D2D2D 
 4213      2D2D00
 4214 0212 0000     		.space	2
 4215              	.LC27:
 4216 0214 252E386C 		.ascii	"%.8lx %.8lx %4lu %4lu %9s %14s %lu (%.1f %%)\000"
 4216      7820252E 
 4216      386C7820 
 4216      25346C75 
 4216      2025346C 
 4217 0241 000000   		.space	3
 4218              	.LC28:
 4219 0244 6661756C 		.ascii	"fault\000"
 4219      7400
 4220 024a 0000     		.space	2
 4221              	.LC29:
 4222 024c 25730A00 		.ascii	"%s\012\000"
 4223              	.LC30:
 4224 0250 6661756C 		.ascii	"faults\000"
 4224      747300
 4225 0257 00       		.space	1
 4226              	.LC31:
 4227 0258 4E6F2066 		.ascii	"No faults registered since startup\012\000"
ARM GAS  /tmp/ccHCUo6g.s 			page 77


 4227      61756C74 
 4227      73207265 
 4227      67697374 
 4227      65726564 
 4228              	.LC32:
 4229 027c 54686520 		.ascii	"The following faults were registered since start:\012"
 4229      666F6C6C 
 4229      6F77696E 
 4229      67206661 
 4229      756C7473 
 4230 02ae 00       		.ascii	"\000"
 4231 02af 00       		.space	1
 4232              	.LC33:
 4233 02b0 4661756C 		.ascii	"Fault#           : %d\000"
 4233      74232020 
 4233      20202020 
 4233      20202020 
 4233      203A2025 
 4234 02c6 0000     		.space	2
 4235              	.LC34:
 4236 02c8 4661756C 		.ascii	"Fault            : %s\000"
 4236      74202020 
 4236      20202020 
 4236      20202020 
 4236      203A2025 
 4237 02de 0000     		.space	2
 4238              	.LC35:
 4239 02e0 43757272 		.ascii	"Current          : %.1f\000"
 4239      656E7420 
 4239      20202020 
 4239      20202020 
 4239      203A2025 
 4240              	.LC36:
 4241 02f8 43757272 		.ascii	"Current filtered : %.1f\000"
 4241      656E7420 
 4241      66696C74 
 4241      65726564 
 4241      203A2025 
 4242              	.LC37:
 4243 0310 566F6C74 		.ascii	"Voltage          : %.2f\000"
 4243      61676520 
 4243      20202020 
 4243      20202020 
 4243      203A2025 
 4244              	.LC38:
 4245 0328 566F6C74 		.ascii	"Voltage Display  : %.2f\000"
 4245      61676520 
 4245      44697370 
 4245      6C617920 
 4245      203A2025 
 4246              	.LC39:
 4247 0340 566F6C74 		.ascii	"Voltage BMS      : %.2f\000"
 4247      61676520 
 4247      424D5320 
 4247      20202020 
 4247      203A2025 
 4248              	.LC40:
ARM GAS  /tmp/ccHCUo6g.s 			page 78


 4249 0358 566F6C74 		.ascii	"Voltage GAS      : %.2f\000"
 4249      61676520 
 4249      47415320 
 4249      20202020 
 4249      203A2025 
 4250              	.LC41:
 4251 0370 566F6C74 		.ascii	"Voltage RECU     : %.2f\000"
 4251      61676520 
 4251      52454355 
 4251      20202020 
 4251      203A2025 
 4252              	.LC42:
 4253 0388 424D5320 		.ascii	"BMS FET Status   : %d\000"
 4253      46455420 
 4253      53746174 
 4253      75732020 
 4253      203A2025 
 4254 039e 0000     		.space	2
 4255              	.LC43:
 4256 03a0 44757479 		.ascii	"Duty             : %.3f\000"
 4256      20202020 
 4256      20202020 
 4256      20202020 
 4256      203A2025 
 4257              	.LC44:
 4258 03b8 52504D20 		.ascii	"RPM              : %.1f\000"
 4258      20202020 
 4258      20202020 
 4258      20202020 
 4258      203A2025 
 4259              	.LC45:
 4260 03d0 54616368 		.ascii	"Tacho            : %d\000"
 4260      6F202020 
 4260      20202020 
 4260      20202020 
 4260      203A2025 
 4261 03e6 0000     		.space	2
 4262              	.LC46:
 4263 03e8 4379636C 		.ascii	"Cycles running   : %d\000"
 4263      65732072 
 4263      756E6E69 
 4263      6E672020 
 4263      203A2025 
 4264 03fe 0000     		.space	2
 4265              	.LC47:
 4266 0400 54494D20 		.ascii	"TIM duty         : %d\000"
 4266      64757479 
 4266      20202020 
 4266      20202020 
 4266      203A2025 
 4267 0416 0000     		.space	2
 4268              	.LC48:
 4269 0418 54494D20 		.ascii	"TIM val samp     : %d\000"
 4269      76616C20 
 4269      73616D70 
 4269      20202020 
 4269      203A2025 
ARM GAS  /tmp/ccHCUo6g.s 			page 79


 4270 042e 0000     		.space	2
 4271              	.LC49:
 4272 0430 54494D20 		.ascii	"TIM current samp : %d\000"
 4272      63757272 
 4272      656E7420 
 4272      73616D70 
 4272      203A2025 
 4273 0446 0000     		.space	2
 4274              	.LC50:
 4275 0448 54494D20 		.ascii	"TIM top          : %d\000"
 4275      746F7020 
 4275      20202020 
 4275      20202020 
 4275      203A2025 
 4276 045e 0000     		.space	2
 4277              	.LC51:
 4278 0460 436F6D6D 		.ascii	"Comm step        : %d\000"
 4278      20737465 
 4278      70202020 
 4278      20202020 
 4278      203A2025 
 4279 0476 0000     		.space	2
 4280              	.LC52:
 4281 0478 54656D70 		.ascii	"Temperature      : %.2f\000"
 4281      65726174 
 4281      75726520 
 4281      20202020 
 4281      203A2025 
 4282              	.LC53:
 4283 0490 44525638 		.ascii	"DRV8350_FAULTS   : %s \000"
 4283      3335305F 
 4283      4641554C 
 4283      54532020 
 4283      203A2025 
 4284 04a7 00       		.space	1
 4285              	.LC54:
 4286 04a8 72706D00 		.ascii	"rpm\000"
 4287              	.LC55:
 4288 04ac 456C6563 		.ascii	"Electrical RPM: %.2f rpm\012\000"
 4288      74726963 
 4288      616C2052 
 4288      504D3A20 
 4288      252E3266 
 4289 04c6 0000     		.space	2
 4290              	.LC56:
 4291 04c8 74616368 		.ascii	"tacho\000"
 4291      6F00
 4292 04ce 0000     		.space	2
 4293              	.LC57:
 4294 04d0 54616368 		.ascii	"Tachometer counts: %i\012\000"
 4294      6F6D6574 
 4294      65722063 
 4294      6F756E74 
 4294      733A2025 
 4295 04e7 00       		.space	1
 4296              	.LC58:
 4297 04e8 74696D00 		.ascii	"tim\000"
ARM GAS  /tmp/ccHCUo6g.s 			page 80


 4298              	.LC59:
 4299 04ec 54696D31 		.ascii	"Tim1 CNT: %i\000"
 4299      20434E54 
 4299      3A202569 
 4299      00
 4300 04f9 000000   		.space	3
 4301              	.LC60:
 4302 04fc 54696D38 		.ascii	"Tim8 CNT: %u\000"
 4302      20434E54 
 4302      3A202575 
 4302      00
 4303 0509 000000   		.space	3
 4304              	.LC61:
 4305 050c 44757479 		.ascii	"Duty cycle1: %u\000"
 4305      20637963 
 4305      6C65313A 
 4305      20257500 
 4306              	.LC62:
 4307 051c 44757479 		.ascii	"Duty cycle2: %u\000"
 4307      20637963 
 4307      6C65323A 
 4307      20257500 
 4308              	.LC63:
 4309 052c 44757479 		.ascii	"Duty cycle3: %u\000"
 4309      20637963 
 4309      6C65333A 
 4309      20257500 
 4310              	.LC64:
 4311 053c 546F703A 		.ascii	"Top: %u\000"
 4311      20257500 
 4312              	.LC65:
 4313 0544 44697231 		.ascii	"Dir1: %u\000"
 4313      3A202575 
 4313      00
 4314 054d 000000   		.space	3
 4315              	.LC66:
 4316 0550 44697238 		.ascii	"Dir8: %u\000"
 4316      3A202575 
 4316      00
 4317 0559 000000   		.space	3
 4318              	.LC67:
 4319 055c 566F6C74 		.ascii	"Voltage sample: %u\000"
 4319      61676520 
 4319      73616D70 
 4319      6C653A20 
 4319      257500
 4320 056f 00       		.space	1
 4321              	.LC68:
 4322 0570 43757272 		.ascii	"Current 1 sample: %u\000"
 4322      656E7420 
 4322      31207361 
 4322      6D706C65 
 4322      3A202575 
 4323 0585 000000   		.space	3
 4324              	.LC69:
 4325 0588 43757272 		.ascii	"Current 2 sample: %u\012\000"
 4325      656E7420 
ARM GAS  /tmp/ccHCUo6g.s 			page 81


 4325      32207361 
 4325      6D706C65 
 4325      3A202575 
 4326 059e 0000     		.space	2
 4327              	.LC70:
 4328 05a0 766F6C74 		.ascii	"volt\000"
 4328      00
 4329 05a5 000000   		.space	3
 4330              	.LC71:
 4331 05a8 496E7075 		.ascii	"Input voltage: %.2f\012\000"
 4331      7420766F 
 4331      6C746167 
 4331      653A2025 
 4331      2E32660A 
 4332 05bd 000000   		.space	3
 4333              	.LC72:
 4334 05c0 70617261 		.ascii	"param_detect\000"
 4334      6D5F6465 
 4334      74656374 
 4334      00
 4335 05cd 000000   		.space	3
 4336              	.LC73:
 4337 05d0 4379636C 		.ascii	"Cycle integrator limit: %.2f\000"
 4337      6520696E 
 4337      74656772 
 4337      61746F72 
 4337      206C696D 
 4338 05ed 000000   		.space	3
 4339              	.LC74:
 4340 05f0 436F7570 		.ascii	"Coupling factor: %.2f\000"
 4340      6C696E67 
 4340      20666163 
 4340      746F723A 
 4340      20252E32 
 4341 0606 0000     		.space	2
 4342              	.LC75:
 4343 0608 44657465 		.ascii	"Detected hall sensor table:\000"
 4343      63746564 
 4343      2068616C 
 4343      6C207365 
 4343      6E736F72 
 4344              	.LC76:
 4345 0624 25692C20 		.ascii	"%i, %i, %i, %i, %i, %i, %i, %i\012\000"
 4345      25692C20 
 4345      25692C20 
 4345      25692C20 
 4345      25692C20 
 4346              	.LC77:
 4347 0644 48616C6C 		.ascii	"Hall sensor detection failed:\000"
 4347      2073656E 
 4347      736F7220 
 4347      64657465 
 4347      6374696F 
 4348 0662 0000     		.space	2
 4349              	.LC78:
 4350 0664 57533238 		.ascii	"WS2811 enabled. Hall sensors cannot be used.\012\000"
 4350      31312065 
ARM GAS  /tmp/ccHCUo6g.s 			page 82


 4350      6E61626C 
 4350      65642E20 
 4350      48616C6C 
 4351 0692 0000     		.space	2
 4352              	.LC79:
 4353 0694 456E636F 		.ascii	"Encoder enabled. Hall sensors cannot be used.\012\000"
 4353      64657220 
 4353      656E6162 
 4353      6C65642E 
 4353      2048616C 
 4354 06c3 00       		.space	1
 4355              	.LC80:
 4356 06c4 44657465 		.ascii	"Detection failed. Try again with different paramete"
 4356      6374696F 
 4356      6E206661 
 4356      696C6564 
 4356      2E205472 
 4357 06f7 72732E0A 		.ascii	"rs.\012\000"
 4357      00
 4358              	.LC81:
 4359 06fc 54686973 		.ascii	"This command requires three arguments.\012\000"
 4359      20636F6D 
 4359      6D616E64 
 4359      20726571 
 4359      75697265 
 4360              	.LC82:
 4361 0724 72706D5F 		.ascii	"rpm_dep\000"
 4361      64657000 
 4362              	.LC83:
 4363 072c 4379636C 		.ascii	"Cycle int limit: %.2f\000"
 4363      6520696E 
 4363      74206C69 
 4363      6D69743A 
 4363      20252E32 
 4364 0742 0000     		.space	2
 4365              	.LC84:
 4366 0744 4379636C 		.ascii	"Cycle int limit running: %.2f\000"
 4366      6520696E 
 4366      74206C69 
 4366      6D697420 
 4366      72756E6E 
 4367 0762 0000     		.space	2
 4368              	.LC85:
 4369 0764 4379636C 		.ascii	"Cycle int limit max: %.2f\012\000"
 4369      6520696E 
 4369      74206C69 
 4369      6D697420 
 4369      6D61783A 
 4370 077f 00       		.space	1
 4371              	.LC86:
 4372 0780 63616E5F 		.ascii	"can_devs\000"
 4372      64657673 
 4372      00
 4373 0789 000000   		.space	3
 4374              	.LC87:
 4375 078c 43414E20 		.ascii	"CAN devices seen on the bus the past second:\012\000"
 4375      64657669 
ARM GAS  /tmp/ccHCUo6g.s 			page 83


 4375      63657320 
 4375      7365656E 
 4375      206F6E20 
 4376 07ba 0000     		.space	2
 4377              	.LC88:
 4378 07bc 49442020 		.ascii	"ID                 : %i\000"
 4378      20202020 
 4378      20202020 
 4378      20202020 
 4378      2020203A 
 4379              	.LC89:
 4380 07d4 52582054 		.ascii	"RX Time            : %i\000"
 4380      696D6520 
 4380      20202020 
 4380      20202020 
 4380      2020203A 
 4381              	.LC90:
 4382 07ec 41676520 		.ascii	"Age (milliseconds) : %.2f\000"
 4382      286D696C 
 4382      6C697365 
 4382      636F6E64 
 4382      7329203A 
 4383 0806 0000     		.space	2
 4384              	.LC91:
 4385 0808 52504D20 		.ascii	"RPM                : %.2f\000"
 4385      20202020 
 4385      20202020 
 4385      20202020 
 4385      2020203A 
 4386 0822 0000     		.space	2
 4387              	.LC92:
 4388 0824 43757272 		.ascii	"Current            : %.2f\000"
 4388      656E7420 
 4388      20202020 
 4388      20202020 
 4388      2020203A 
 4389 083e 0000     		.space	2
 4390              	.LC93:
 4391 0840 44757479 		.ascii	"Duty               : %.2f\012\000"
 4391      20202020 
 4391      20202020 
 4391      20202020 
 4391      2020203A 
 4392 085b 00       		.space	1
 4393              	.LC94:
 4394 085c 666F635F 		.ascii	"foc_encoder_detect\000"
 4394      656E636F 
 4394      6465725F 
 4394      64657465 
 4394      637400
 4395 086f 00       		.space	1
 4396              	.LC95:
 4397 0870 4F666673 		.ascii	"Offset   : %.2f\000"
 4397      65742020 
 4397      203A2025 
 4397      2E326600 
 4398              	.LC96:
ARM GAS  /tmp/ccHCUo6g.s 			page 84


 4399 0880 52617469 		.ascii	"Ratio    : %.2f\000"
 4399      6F202020 
 4399      203A2025 
 4399      2E326600 
 4400              	.LC97:
 4401 0890 496E7665 		.ascii	"Inverted : %s\012\000"
 4401      72746564 
 4401      203A2025 
 4401      730A00
 4402 089f 00       		.space	1
 4403              	.LC98:
 4404 08a0 456E636F 		.ascii	"Encoder not enabled.\012\000"
 4404      64657220 
 4404      6E6F7420 
 4404      656E6162 
 4404      6C65642E 
 4405 08b6 0000     		.space	2
 4406              	.LC99:
 4407 08b8 54686973 		.ascii	"This command requires one argument.\012\000"
 4407      20636F6D 
 4407      6D616E64 
 4407      20726571 
 4407      75697265 
 4408 08dd 000000   		.space	3
 4409              	.LC100:
 4410 08e0 6D656173 		.ascii	"measure_res\000"
 4410      7572655F 
 4410      72657300 
 4411              	.LC101:
 4412 08ec 52657369 		.ascii	"Resistance: %.6f ohm\012\000"
 4412      7374616E 
 4412      63653A20 
 4412      252E3666 
 4412      206F686D 
 4413 0902 0000     		.space	2
 4414              	.LC102:
 4415 0904 6D656173 		.ascii	"measure_ind\000"
 4415      7572655F 
 4415      696E6400 
 4416              	.LC103:
 4417 0910 496E6475 		.ascii	"Inductance: %.2f microhenry (%.2f A)\012\000"
 4417      6374616E 
 4417      63653A20 
 4417      252E3266 
 4417      206D6963 
 4418 0936 0000     		.space	2
 4419              	.LC104:
 4420 0938 6D656173 		.ascii	"measure_ind2\000"
 4420      7572655F 
 4420      696E6432 
 4420      00
 4421 0945 000000   		.space	3
 4422              	.LC105:
 4423 0948 496E6475 		.ascii	"Inductance: %.2f microhenry (%.2f , %.2f A, %.2fV, "
 4423      6374616E 
 4423      63653A20 
 4423      252E3266 
ARM GAS  /tmp/ccHCUo6g.s 			page 85


 4423      206D6963 
 4424 097b 252E3266 		.ascii	"%.2fus)\012\000"
 4424      7573290A 
 4424      00
 4425              	.LC106:
 4426 0984 6D656173 		.ascii	"measure_linkage\000"
 4426      7572655F 
 4426      6C696E6B 
 4426      61676500 
 4427              	.LC107:
 4428 0994 466C7578 		.ascii	"Flux linkage: %.7f\012\000"
 4428      206C696E 
 4428      6B616765 
 4428      3A20252E 
 4428      37660A00 
 4429              	.LC108:
 4430 09a8 54686973 		.ascii	"This command requires four arguments.\012\000"
 4430      20636F6D 
 4430      6D616E64 
 4430      20726571 
 4430      75697265 
 4431 09cf 00       		.space	1
 4432              	.LC109:
 4433 09d0 6D656173 		.ascii	"measure_res_ind\000"
 4433      7572655F 
 4433      7265735F 
 4433      696E6400 
 4434              	.LC110:
 4435 09e0 52657369 		.ascii	"Resistance: %.6f ohm\000"
 4435      7374616E 
 4435      63653A20 
 4435      252E3666 
 4435      206F686D 
 4436 09f5 000000   		.space	3
 4437              	.LC111:
 4438 09f8 496E6475 		.ascii	"Inductance: %.2f microhenry\012\000"
 4438      6374616E 
 4438      63653A20 
 4438      252E3266 
 4438      206D6963 
 4439 0a15 000000   		.space	3
 4440              	.LC112:
 4441 0a18 6D656173 		.ascii	"measure_linkage_foc\000"
 4441      7572655F 
 4441      6C696E6B 
 4441      6167655F 
 4441      666F6300 
 4442              	.LC113:
 4443 0a2c 6D656173 		.ascii	"measure_linkage_openloop\000"
 4443      7572655F 
 4443      6C696E6B 
 4443      6167655F 
 4443      6F70656E 
 4444 0a45 000000   		.space	3
 4445              	.LC114:
 4446 0a48 666F635F 		.ascii	"foc_state\000"
 4446      73746174 
ARM GAS  /tmp/ccHCUo6g.s 			page 86


 4446      6500
 4447 0a52 0000     		.space	2
 4448              	.LC115:
 4449 0a54 68775F73 		.ascii	"hw_status\000"
 4449      74617475 
 4449      7300
 4450 0a5e 0000     		.space	2
 4451              	.LC116:
 4452 0a60 4669726D 		.ascii	"Firmware: %d.%d\000"
 4452      77617265 
 4452      3A202564 
 4452      2E256400 
 4453              	.LC117:
 4454 0a70 53563330 		.ascii	"SV30\000"
 4454      00
 4455 0a75 000000   		.space	3
 4456              	.LC118:
 4457 0a78 48617264 		.ascii	"Hardware: %s\000"
 4457      77617265 
 4457      3A202573 
 4457      00
 4458 0a85 000000   		.space	3
 4459              	.LC119:
 4460 0a88 55554944 		.ascii	"UUID: %02X %02X %02X %02X %02X %02X %02X %02X %02X "
 4460      3A202530 
 4460      32582025 
 4460      30325820 
 4460      25303258 
 4461 0abb 25303258 		.ascii	"%02X %02X %02X\000"
 4461      20253032 
 4461      58202530 
 4461      325800
 4462 0aca 0000     		.space	2
 4463              	.LC120:
 4464 0acc 5065726D 		.ascii	"Permanent NRF found: %s\000"
 4464      616E656E 
 4464      74204E52 
 4464      4620666F 
 4464      756E643A 
 4465              	.LC121:
 4466 0ae4 464F4320 		.ascii	"FOC Current Offsets: %d %d %d\000"
 4466      43757272 
 4466      656E7420 
 4466      4F666673 
 4466      6574733A 
 4467 0b02 0000     		.space	2
 4468              	.LC122:
 4469 0b04 666F635F 		.ascii	"foc_openloop\000"
 4469      6F70656E 
 4469      6C6F6F70 
 4469      00
 4470 0b11 000000   		.space	3
 4471              	.LC123:
 4472 0b14 54686973 		.ascii	"This command requires two arguments.\012\000"
 4472      20636F6D 
 4472      6D616E64 
 4472      20726571 
ARM GAS  /tmp/ccHCUo6g.s 			page 87


 4472      75697265 
 4473 0b3a 0000     		.space	2
 4474              	.LC124:
 4475 0b3c 666F635F 		.ascii	"foc_openloop_duty\000"
 4475      6F70656E 
 4475      6C6F6F70 
 4475      5F647574 
 4475      7900
 4476 0b4e 0000     		.space	2
 4477              	.LC125:
 4478 0b50 6E72665F 		.ascii	"nrf_ext_set_enabled\000"
 4478      6578745F 
 4478      7365745F 
 4478      656E6162 
 4478      6C656400 
 4479              	.LC126:
 4480 0b64 256400   		.ascii	"%d\000"
 4481 0b67 00       		.space	1
 4482              	.LC127:
 4483 0b68 666F635F 		.ascii	"foc_sensors_detect_apply\000"
 4483      73656E73 
 4483      6F72735F 
 4483      64657465 
 4483      63745F61 
 4484 0b81 000000   		.space	3
 4485              	.LC128:
 4486 0b84 4E6F2073 		.ascii	"No sensors found, using sensorless mode.\012\000"
 4486      656E736F 
 4486      72732066 
 4486      6F756E64 
 4486      2C207573 
 4487 0bae 0000     		.space	2
 4488              	.LC129:
 4489 0bb0 466F756E 		.ascii	"Found hall sensors, using them.\012\000"
 4489      64206861 
 4489      6C6C2073 
 4489      656E736F 
 4489      72732C20 
 4490 0bd1 000000   		.space	3
 4491              	.LC130:
 4492 0bd4 466F756E 		.ascii	"Found AS5047 encoder, using it.\012\000"
 4492      64204153 
 4492      35303437 
 4492      20656E63 
 4492      6F646572 
 4493 0bf5 000000   		.space	3
 4494              	.LC131:
 4495 0bf8 44657465 		.ascii	"Detection error: %d\012\000"
 4495      6374696F 
 4495      6E206572 
 4495      726F723A 
 4495      2025640A 
 4496 0c0d 000000   		.space	3
 4497              	.LC132:
 4498 0c10 726F746F 		.ascii	"rotor_lock_openloop\000"
 4498      725F6C6F 
 4498      636B5F6F 
ARM GAS  /tmp/ccHCUo6g.s 			page 88


 4498      70656E6C 
 4498      6F6F7000 
 4499              	.LC133:
 4500 0c24 4F4B0A00 		.ascii	"OK\012\000"
 4501              	.LC134:
 4502 0c28 54206C65 		.ascii	"T left: %.2f s\000"
 4502      66743A20 
 4502      252E3266 
 4502      207300
 4503 0c37 00       		.space	1
 4504              	.LC135:
 4505 0c38 446F6E65 		.ascii	"Done\012\000"
 4505      0A00
 4506 0c3e 0000     		.space	2
 4507              	.LC136:
 4508 0c40 666F635F 		.ascii	"foc_detect_apply_all\000"
 4508      64657465 
 4508      63745F61 
 4508      70706C79 
 4508      5F616C6C 
 4509 0c55 000000   		.space	3
 4510              	.LC137:
 4511 0c58 52756E6E 		.ascii	"Running detection...\000"
 4511      696E6720 
 4511      64657465 
 4511      6374696F 
 4511      6E2E2E2E 
 4512 0c6d 000000   		.space	3
 4513              	.LC138:
 4514 0c70 5265733A 		.ascii	"Res: %d\000"
 4514      20256400 
 4515              	.LC139:
 4516 0c78 44657465 		.ascii	"Detection finished and applied. Results:\000"
 4516      6374696F 
 4516      6E206669 
 4516      6E697368 
 4516      65642061 
 4517 0ca1 000000   		.space	3
 4518              	.LC140:
 4519 0ca4 4D6F746F 		.ascii	"Motor Current       : %.1f A\000"
 4519      72204375 
 4519      7272656E 
 4519      74202020 
 4519      20202020 
 4520 0cc1 000000   		.space	3
 4521              	.LC141:
 4522 0cc4 4D6F746F 		.ascii	"Motor R             : %.2f mOhm\000"
 4522      72205220 
 4522      20202020 
 4522      20202020 
 4522      20202020 
 4523              	.LC142:
 4524 0ce4 4D6F746F 		.ascii	"Motor L             : %.2f microH\000"
 4524      72204C20 
 4524      20202020 
 4524      20202020 
 4524      20202020 
ARM GAS  /tmp/ccHCUo6g.s 			page 89


 4525 0d06 0000     		.space	2
 4526              	.LC143:
 4527 0d08 4D6F746F 		.ascii	"Motor Flux Linkage  : %.3f mWb\000"
 4527      7220466C 
 4527      7578204C 
 4527      696E6B61 
 4527      67652020 
 4528 0d27 00       		.space	1
 4529              	.LC144:
 4530 0d28 54656D70 		.ascii	"Temp Comp           : %s\000"
 4530      20436F6D 
 4530      70202020 
 4530      20202020 
 4530      20202020 
 4531 0d41 000000   		.space	3
 4532              	.LC145:
 4533 0d44 54656D70 		.ascii	"Temp Comp Base Temp : %.1f degC\000"
 4533      20436F6D 
 4533      70204261 
 4533      73652054 
 4533      656D7020 
 4534              	.LC146:
 4535 0d64 436F756C 		.ascii	"Could not measure flux linkage.\000"
 4535      64206E6F 
 4535      74206D65 
 4535      61737572 
 4535      6520666C 
 4536              	.LC147:
 4537 0d84 4661756C 		.ascii	"Fault code occured during detection.\000"
 4537      7420636F 
 4537      6465206F 
 4537      63637572 
 4537      65642064 
 4538 0da9 000000   		.space	3
 4539              	.LC148:
 4540 0dac 44657465 		.ascii	"Detection failed.\012\000"
 4540      6374696F 
 4540      6E206661 
 4540      696C6564 
 4540      2E0A00
 4541 0dbf 00       		.space	1
 4542              	.LC149:
 4543 0dc0 63616E5F 		.ascii	"can_scan\000"
 4543      7363616E 
 4543      00
 4544 0dc9 000000   		.space	3
 4545              	.LC150:
 4546 0dcc 466F756E 		.ascii	"Found VESC with ID: %d\000"
 4546      64205645 
 4546      53432077 
 4546      69746820 
 4546      49443A20 
 4547 0de3 00       		.space	1
 4548              	.LC151:
 4549 0de4 4E6F2043 		.ascii	"No CAN devices found\012\000"
 4549      414E2064 
 4549      65766963 
ARM GAS  /tmp/ccHCUo6g.s 			page 90


 4549      65732066 
 4549      6F756E64 
 4550 0dfa 0000     		.space	2
 4551              	.LC152:
 4552 0dfc 666F635F 		.ascii	"foc_detect_apply_all_can\000"
 4552      64657465 
 4552      63745F61 
 4552      70706C79 
 4552      5F616C6C 
 4553 0e15 000000   		.space	3
 4554              	.LC153:
 4555 0e18 656E636F 		.ascii	"encoder\000"
 4555      64657200 
 4556              	.LC154:
 4557 0e20 53504920 		.ascii	"SPI encoder value: %x, errors: %d, error rate: %.3f"
 4557      656E636F 
 4557      64657220 
 4557      76616C75 
 4557      653A2025 
 4558 0e53 20252500 		.ascii	" %%\000"
 4559 0e57 00       		.space	1
 4560              	.LC155:
 4561 0e58 53696E2F 		.ascii	"Sin/Cos encoder signal below minimum amplitude: err"
 4561      436F7320 
 4561      656E636F 
 4561      64657220 
 4561      7369676E 
 4562 0e8b 6F72733A 		.ascii	"ors: %d, error rate: %.3f %%\000"
 4562      2025642C 
 4562      20657272 
 4562      6F722072 
 4562      6174653A 
 4563              	.LC156:
 4564 0ea8 53696E2F 		.ascii	"Sin/Cos encoder signal above maximum amplitude: err"
 4564      436F7320 
 4564      656E636F 
 4564      64657220 
 4564      7369676E 
 4565 0edb 6F72733A 		.ascii	"ors: %d, error rate: %.3f %%\000"
 4565      2025642C 
 4565      20657272 
 4565      6F722072 
 4565      6174653A 
 4566              	.LC157:
 4567 0ef8 68656C70 		.ascii	"help\000"
 4567      00
 4568 0efd 000000   		.space	3
 4569              	.LC158:
 4570 0f00 56616C69 		.ascii	"Valid commands are:\000"
 4570      6420636F 
 4570      6D6D616E 
 4570      64732061 
 4570      72653A00 
 4571              	.LC159:
 4572 0f14 20205368 		.ascii	"  Show this help\000"
 4572      6F772074 
 4572      68697320 
ARM GAS  /tmp/ccHCUo6g.s 			page 91


 4572      68656C70 
 4572      00
 4573 0f25 000000   		.space	3
 4574              	.LC160:
 4575 0f28 20205072 		.ascii	"  Print pong here to see if the reply works\000"
 4575      696E7420 
 4575      706F6E67 
 4575      20686572 
 4575      6520746F 
 4576              	.LC161:
 4577 0f54 20205374 		.ascii	"  Stop the motor\000"
 4577      6F702074 
 4577      6865206D 
 4577      6F746F72 
 4577      00
 4578 0f65 000000   		.space	3
 4579              	.LC162:
 4580 0f68 20205468 		.ascii	"  The time the latest ADC interrupt consumed\000"
 4580      65207469 
 4580      6D652074 
 4580      6865206C 
 4580      61746573 
 4581 0f95 000000   		.space	3
 4582              	.LC163:
 4583 0f98 20205468 		.ascii	"  The calculated kv of the motor\000"
 4583      65206361 
 4583      6C63756C 
 4583      61746564 
 4583      206B7620 
 4584 0fb9 000000   		.space	3
 4585              	.LC164:
 4586 0fbc 20205368 		.ascii	"  Show memory usage\000"
 4586      6F77206D 
 4586      656D6F72 
 4586      79207573 
 4586      61676500 
 4587              	.LC165:
 4588 0fd0 20204C69 		.ascii	"  List all threads\000"
 4588      73742061 
 4588      6C6C2074 
 4588      68726561 
 4588      647300
 4589 0fe3 00       		.space	1
 4590              	.LC166:
 4591 0fe4 20205072 		.ascii	"  Prints the current fault code\000"
 4591      696E7473 
 4591      20746865 
 4591      20637572 
 4591      72656E74 
 4592              	.LC167:
 4593 1004 20205072 		.ascii	"  Prints all stored fault codes and conditions when"
 4593      696E7473 
 4593      20616C6C 
 4593      2073746F 
 4593      72656420 
 4594 1037 20746865 		.ascii	" they arrived\000"
 4594      79206172 
ARM GAS  /tmp/ccHCUo6g.s 			page 92


 4594      72697665 
 4594      6400
 4595 1045 000000   		.space	3
 4596              	.LC168:
 4597 1048 20205072 		.ascii	"  Prints the current electrical RPM\000"
 4597      696E7473 
 4597      20746865 
 4597      20637572 
 4597      72656E74 
 4598              	.LC169:
 4599 106c 20205072 		.ascii	"  Prints tachometer value\000"
 4599      696E7473 
 4599      20746163 
 4599      686F6D65 
 4599      74657220 
 4600 1086 0000     		.space	2
 4601              	.LC170:
 4602 1088 20205072 		.ascii	"  Prints tim1 and tim8 settings\000"
 4602      696E7473 
 4602      2074696D 
 4602      3120616E 
 4602      64207469 
 4603              	.LC171:
 4604 10a8 20205072 		.ascii	"  Prints different voltages\000"
 4604      696E7473 
 4604      20646966 
 4604      66657265 
 4604      6E742076 
 4605              	.LC172:
 4606 10c4 70617261 		.ascii	"param_detect [current] [min_rpm] [low_duty]\000"
 4606      6D5F6465 
 4606      74656374 
 4606      205B6375 
 4606      7272656E 
 4607              	.LC173:
 4608 10f0 20205370 		.ascii	"  Spin up the motor in COMM_MODE_DELAY and compute "
 4608      696E2075 
 4608      70207468 
 4608      65206D6F 
 4608      746F7220 
 4609 1123 69747320 		.ascii	"its parameters.\000"
 4609      70617261 
 4609      6D657465 
 4609      72732E00 
 4610 1133 00       		.space	1
 4611              	.LC174:
 4612 1134 20205468 		.ascii	"  This test should be performed without load on the"
 4612      69732074 
 4612      65737420 
 4612      73686F75 
 4612      6C642062 
 4613 1167 206D6F74 		.ascii	" motor.\000"
 4613      6F722E00 
 4614 116f 00       		.space	1
 4615              	.LC175:
 4616 1170 20204578 		.ascii	"  Example: param_detect 5.0 600 0.06\000"
 4616      616D706C 
ARM GAS  /tmp/ccHCUo6g.s 			page 93


 4616      653A2070 
 4616      6172616D 
 4616      5F646574 
 4617 1195 000000   		.space	3
 4618              	.LC176:
 4619 1198 20205072 		.ascii	"  Prints some rpm-dep values\000"
 4619      696E7473 
 4619      20736F6D 
 4619      65207270 
 4619      6D2D6465 
 4620 11b5 000000   		.space	3
 4621              	.LC177:
 4622 11b8 20205072 		.ascii	"  Prints all CAN devices seen on the bus the past s"
 4622      696E7473 
 4622      20616C6C 
 4622      2043414E 
 4622      20646576 
 4623 11eb 65636F6E 		.ascii	"econd\000"
 4623      6400
 4624 11f1 000000   		.space	3
 4625              	.LC178:
 4626 11f4 666F635F 		.ascii	"foc_encoder_detect [current]\000"
 4626      656E636F 
 4626      6465725F 
 4626      64657465 
 4626      6374205B 
 4627 1211 000000   		.space	3
 4628              	.LC179:
 4629 1214 20205275 		.ascii	"  Run the motor at 1Hz on open loop and compute enc"
 4629      6E207468 
 4629      65206D6F 
 4629      746F7220 
 4629      61742031 
 4630 1247 6F646572 		.ascii	"oder settings\000"
 4630      20736574 
 4630      74696E67 
 4630      7300
 4631 1255 000000   		.space	3
 4632              	.LC180:
 4633 1258 6D656173 		.ascii	"measure_res [current]\000"
 4633      7572655F 
 4633      72657320 
 4633      5B637572 
 4633      72656E74 
 4634 126e 0000     		.space	2
 4635              	.LC181:
 4636 1270 20204C6F 		.ascii	"  Lock the motor with a current and calculate its r"
 4636      636B2074 
 4636      6865206D 
 4636      6F746F72 
 4636      20776974 
 4637 12a3 65736973 		.ascii	"esistance\000"
 4637      74616E63 
 4637      6500
 4638 12ad 000000   		.space	3
 4639              	.LC182:
 4640 12b0 6D656173 		.ascii	"measure_ind [duty]\000"
ARM GAS  /tmp/ccHCUo6g.s 			page 94


 4640      7572655F 
 4640      696E6420 
 4640      5B647574 
 4640      795D00
 4641 12c3 00       		.space	1
 4642              	.LC183:
 4643 12c4 20205365 		.ascii	"  Send short voltage pulses, measure the current an"
 4643      6E642073 
 4643      686F7274 
 4643      20766F6C 
 4643      74616765 
 4644 12f7 64206361 		.ascii	"d calculate the motor inductance\000"
 4644      6C63756C 
 4644      61746520 
 4644      74686520 
 4644      6D6F746F 
 4645              	.LC184:
 4646 1318 6D656173 		.ascii	"measure_ind2 [duty] [samples] [freqency]\000"
 4646      7572655F 
 4646      696E6432 
 4646      205B6475 
 4646      74795D20 
 4647 1341 000000   		.space	3
 4648              	.LC185:
 4649 1344 20204AC3 		.ascii	"  J\303\266rn spezial :-) calculate the motor induc"
 4649      B6726E20 
 4649      7370657A 
 4649      69616C20 
 4649      3A2D2920 
 4650 1371 74616E63 		.ascii	"tance\000"
 4650      6500
 4651 1377 00       		.space	1
 4652              	.LC186:
 4653 1378 6D656173 		.ascii	"measure_linkage [current] [duty] [min_erpm] [motor_"
 4653      7572655F 
 4653      6C696E6B 
 4653      61676520 
 4653      5B637572 
 4654 13ab 7265735D 		.ascii	"res]\000"
 4654      00
 4655              	.LC187:
 4656 13b0 20205275 		.ascii	"  Run the motor in BLDC delay mode and measure the "
 4656      6E207468 
 4656      65206D6F 
 4656      746F7220 
 4656      696E2042 
 4657 13e3 666C7578 		.ascii	"flux linkage\000"
 4657      206C696E 
 4657      6B616765 
 4657      00
 4658              	.LC188:
 4659 13f0 20206578 		.ascii	"  example measure_linkage 5 0.5 700 0.076\000"
 4659      616D706C 
 4659      65206D65 
 4659      61737572 
 4659      655F6C69 
 4660 141a 0000     		.space	2
ARM GAS  /tmp/ccHCUo6g.s 			page 95


 4661              	.LC189:
 4662 141c 20207469 		.ascii	"  tip: measure the resistance with measure_res firs"
 4662      703A206D 
 4662      65617375 
 4662      72652074 
 4662      68652072 
 4663 144f 7400     		.ascii	"t\000"
 4664 1451 000000   		.space	3
 4665              	.LC190:
 4666 1454 20204D65 		.ascii	"  Measure the motor resistance and inductance with "
 4666      61737572 
 4666      65207468 
 4666      65206D6F 
 4666      746F7220 
 4667 1487 616E2069 		.ascii	"an incremental adaptive algorithm.\000"
 4667      6E637265 
 4667      6D656E74 
 4667      616C2061 
 4667      64617074 
 4668 14aa 0000     		.space	2
 4669              	.LC191:
 4670 14ac 6D656173 		.ascii	"measure_linkage_foc [duty]\000"
 4670      7572655F 
 4670      6C696E6B 
 4670      6167655F 
 4670      666F6320 
 4671 14c7 00       		.space	1
 4672              	.LC192:
 4673 14c8 20205275 		.ascii	"  Run the motor with FOC and measure the flux linka"
 4673      6E207468 
 4673      65206D6F 
 4673      746F7220 
 4673      77697468 
 4674 14fb 67652E00 		.ascii	"ge.\000"
 4675 14ff 00       		.space	1
 4676              	.LC193:
 4677 1500 6D656173 		.ascii	"measure_linkage_openloop [current] [duty] [erpm_per"
 4677      7572655F 
 4677      6C696E6B 
 4677      6167655F 
 4677      6F70656E 
 4678 1533 5F736563 		.ascii	"_sec] [motor_res]\000"
 4678      5D205B6D 
 4678      6F746F72 
 4678      5F726573 
 4678      5D00
 4679 1545 000000   		.space	3
 4680              	.LC194:
 4681 1548 20205275 		.ascii	"  Run the motor in openloop FOC and measure the flu"
 4681      6E207468 
 4681      65206D6F 
 4681      746F7220 
 4681      696E206F 
 4682 157b 78206C69 		.ascii	"x linkage\000"
 4682      6E6B6167 
 4682      6500
 4683 1585 000000   		.space	3
ARM GAS  /tmp/ccHCUo6g.s 			page 96


 4684              	.LC195:
 4685 1588 20206578 		.ascii	"  example measure_linkage 5 0.5 1000 0.076\000"
 4685      616D706C 
 4685      65206D65 
 4685      61737572 
 4685      655F6C69 
 4686 15b3 00       		.space	1
 4687              	.LC196:
 4688 15b4 20205072 		.ascii	"  Print some FOC state variables.\000"
 4688      696E7420 
 4688      736F6D65 
 4688      20464F43 
 4688      20737461 
 4689 15d6 0000     		.space	2
 4690              	.LC197:
 4691 15d8 20205072 		.ascii	"  Print some hardware status information.\000"
 4691      696E7420 
 4691      736F6D65 
 4691      20686172 
 4691      64776172 
 4692 1602 0000     		.space	2
 4693              	.LC198:
 4694 1604 666F635F 		.ascii	"foc_openloop [current] [erpm]\000"
 4694      6F70656E 
 4694      6C6F6F70 
 4694      205B6375 
 4694      7272656E 
 4695 1622 0000     		.space	2
 4696              	.LC199:
 4697 1624 20204372 		.ascii	"  Create an open loop rotating current vector.\000"
 4697      65617465 
 4697      20616E20 
 4697      6F70656E 
 4697      206C6F6F 
 4698 1653 00       		.space	1
 4699              	.LC200:
 4700 1654 666F635F 		.ascii	"foc_openloop_duty [duty] [erpm]\000"
 4700      6F70656E 
 4700      6C6F6F70 
 4700      5F647574 
 4700      79205B64 
 4701              	.LC201:
 4702 1674 20204372 		.ascii	"  Create an open loop rotating voltage vector.\000"
 4702      65617465 
 4702      20616E20 
 4702      6F70656E 
 4702      206C6F6F 
 4703 16a3 00       		.space	1
 4704              	.LC202:
 4705 16a4 6E72665F 		.ascii	"nrf_ext_set_enabled [enabled]\000"
 4705      6578745F 
 4705      7365745F 
 4705      656E6162 
 4705      6C656420 
 4706 16c2 0000     		.space	2
 4707              	.LC203:
 4708 16c4 2020456E 		.ascii	"  Enable or disable external NRF51822.\000"
ARM GAS  /tmp/ccHCUo6g.s 			page 97


 4708      61626C65 
 4708      206F7220 
 4708      64697361 
 4708      626C6520 
 4709 16eb 00       		.space	1
 4710              	.LC204:
 4711 16ec 666F635F 		.ascii	"foc_sensors_detect_apply [current]\000"
 4711      73656E73 
 4711      6F72735F 
 4711      64657465 
 4711      63745F61 
 4712 170f 00       		.space	1
 4713              	.LC205:
 4714 1710 20204175 		.ascii	"  Automatically detect FOC sensors, and apply setti"
 4714      746F6D61 
 4714      74696361 
 4714      6C6C7920 
 4714      64657465 
 4715 1743 6E677320 		.ascii	"ngs on success.\000"
 4715      6F6E2073 
 4715      75636365 
 4715      73732E00 
 4716 1753 00       		.space	1
 4717              	.LC206:
 4718 1754 726F746F 		.ascii	"rotor_lock_openloop [current_A] [time_S] [angle_DEG"
 4718      725F6C6F 
 4718      636B5F6F 
 4718      70656E6C 
 4718      6F6F7020 
 4719 1787 5D00     		.ascii	"]\000"
 4720 1789 000000   		.space	3
 4721              	.LC207:
 4722 178c 20204C6F 		.ascii	"  Lock the motor with a current for a given time. T"
 4722      636B2074 
 4722      6865206D 
 4722      6F746F72 
 4722      20776974 
 4723 17bf 696D6520 		.ascii	"ime 0 means forever, or\000"
 4723      30206D65 
 4723      616E7320 
 4723      666F7265 
 4723      7665722C 
 4724 17d7 00       		.space	1
 4725              	.LC208:
 4726 17d8 20206F72 		.ascii	"  or until the heartbeat packets stop.\000"
 4726      20756E74 
 4726      696C2074 
 4726      68652068 
 4726      65617274 
 4727 17ff 00       		.space	1
 4728              	.LC209:
 4729 1800 666F635F 		.ascii	"foc_detect_apply_all [max_power_loss_W]\000"
 4729      64657465 
 4729      63745F61 
 4729      70706C79 
 4729      5F616C6C 
 4730              	.LC210:
ARM GAS  /tmp/ccHCUo6g.s 			page 98


 4731 1828 20204465 		.ascii	"  Detect and apply all motor settings, based on max"
 4731      74656374 
 4731      20616E64 
 4731      20617070 
 4731      6C792061 
 4732 185b 696D756D 		.ascii	"imum resistive motor power losses.\000"
 4732      20726573 
 4732      69737469 
 4732      7665206D 
 4732      6F746F72 
 4733 187e 0000     		.space	2
 4734              	.LC211:
 4735 1880 20205363 		.ascii	"  Scan CAN-bus using ping commands, and print all d"
 4735      616E2043 
 4735      414E2D62 
 4735      75732075 
 4735      73696E67 
 4736 18b3 65766963 		.ascii	"evices that are found.\000"
 4736      65732074 
 4736      68617420 
 4736      61726520 
 4736      666F756E 
 4737 18ca 0000     		.space	2
 4738              	.LC212:
 4739 18cc 666F635F 		.ascii	"foc_detect_apply_all_can [max_power_loss_W]\000"
 4739      64657465 
 4739      63745F61 
 4739      70706C79 
 4739      5F616C6C 
 4740              	.LC213:
 4741 18f8 20204465 		.ascii	"  Detect and apply all motor settings, based on max"
 4741      74656374 
 4741      20616E64 
 4741      20617070 
 4741      6C792061 
 4742 192b 696D756D 		.ascii	"imum resistive motor power losses. Also\000"
 4742      20726573 
 4742      69737469 
 4742      7665206D 
 4742      6F746F72 
 4743 1953 00       		.space	1
 4744              	.LC214:
 4745 1954 2020696E 		.ascii	"  initiates detection in all VESCs found on the CAN"
 4745      69746961 
 4745      74657320 
 4745      64657465 
 4745      6374696F 
 4746 1987 2D627573 		.ascii	"-bus.\000"
 4746      2E00
 4747 198d 000000   		.space	3
 4748              	.LC215:
 4749 1990 20205072 		.ascii	"  Prints the status of the AS5047, AD2S1205, or TS5"
 4749      696E7473 
 4749      20746865 
 4749      20737461 
 4749      74757320 
 4750 19c3 3730304E 		.ascii	"700N8501 encoder.\000"
ARM GAS  /tmp/ccHCUo6g.s 			page 99


 4750      38353031 
 4750      20656E63 
 4750      6F646572 
 4750      2E00
 4751 19d5 000000   		.space	3
 4752              	.LC216:
 4753 19d8 25732025 		.ascii	"%s %s\000"
 4753      7300
 4754 19de 0000     		.space	2
 4755              	.LC217:
 4756 19e0 20202573 		.ascii	"  %s\000"
 4756      00
 4757 19e5 000000   		.space	3
 4758              	.LC218:
 4759 19e8 20205468 		.ascii	"  There is no help available for this command.\000"
 4759      65726520 
 4759      6973206E 
 4759      6F206865 
 4759      6C702061 
 4760 1a17 00       		.space	1
 4761              	.LC219:
 4762 1a18 496E7661 		.ascii	"Invalid command: %s\012type help to list all availa"
 4762      6C696420 
 4762      636F6D6D 
 4762      616E643A 
 4762      2025730A 
 4763 1a48 626C6520 		.ascii	"ble commands\012\000"
 4763      636F6D6D 
 4763      616E6473 
 4763      0A00
 4764              		.text
 4765              	.Letext0:
 4766              		.file 4 "/usr/lib/gcc/arm-none-eabi/7.3.1/include/stddef.h"
 4767              		.file 5 "/usr/arm-none-eabi/include/machine/_default_types.h"
 4768              		.file 6 "/usr/arm-none-eabi/include/sys/_stdint.h"
 4769              		.file 7 "ChibiOS_3.0.2/os/rt/ports/ARMCMx/compilers/GCC/chtypes.h"
 4770              		.file 8 "ChibiOS_3.0.2/os/rt/include/chsystypes.h"
 4771              		.file 9 "ChibiOS_3.0.2/os/rt/include/chschd.h"
 4772              		.file 10 "ChibiOS_3.0.2/os/ext/CMSIS/include/core_cm4.h"
 4773              		.file 11 "ChibiOS_3.0.2/os/ext/CMSIS/ST/system_stm32f4xx.h"
 4774              		.file 12 "ChibiOS_3.0.2/os/ext/CMSIS/ST/stm32f407xx.h"
 4775              		.file 13 "ChibiOS_3.0.2/os/rt/ports/ARMCMx/chcore.h"
 4776              		.file 14 "ChibiOS_3.0.2/os/rt/ports/ARMCMx/chcore_v7m.h"
 4777              		.file 15 "ChibiOS_3.0.2/os/rt/include/chtm.h"
 4778              		.file 16 "ChibiOS_3.0.2/os/rt/include/chsem.h"
 4779              		.file 17 "ChibiOS_3.0.2/os/rt/include/chmtx.h"
 4780              		.file 18 "ChibiOS_3.0.2/os/rt/include/chregistry.h"
 4781              		.file 19 "ChibiOS_3.0.2/os/rt/include/chevents.h"
 4782              		.file 20 "ChibiOS_3.0.2/os/rt/include/chqueues.h"
 4783              		.file 21 "./datatypes.h"
 4784              		.file 22 "./conf_general.h"
 4785              		.file 23 "ChibiOS_3.0.2/os/hal/ports/STM32/STM32F4xx/stm32_dma.h"
 4786              		.file 24 "ChibiOS_3.0.2/os/hal/ports/STM32/LLD/GPIOv2/pal_lld.h"
 4787              		.file 25 "ChibiOS_3.0.2/os/hal/include/can.h"
 4788              		.file 26 "ChibiOS_3.0.2/os/hal/ports/STM32/LLD/can_lld.h"
 4789              		.file 27 "ChibiOS_3.0.2/os/hal/include/i2c.h"
 4790              		.file 28 "ChibiOS_3.0.2/os/hal/ports/STM32/LLD/I2Cv1/i2c_lld.h"
ARM GAS  /tmp/ccHCUo6g.s 			page 100


 4791              		.file 29 "ChibiOS_3.0.2/os/hal/include/icu.h"
 4792              		.file 30 "ChibiOS_3.0.2/os/hal/ports/STM32/LLD/TIMv1/icu_lld.h"
 4793              		.file 31 "ChibiOS_3.0.2/os/hal/ports/STM32/LLD/TIMv1/stm32_tim.h"
 4794              		.file 32 "ChibiOS_3.0.2/os/hal/include/serial.h"
 4795              		.file 33 "ChibiOS_3.0.2/os/hal/ports/STM32/LLD/USARTv1/serial_lld.h"
 4796              		.file 34 "ChibiOS_3.0.2/os/hal/include/spi.h"
 4797              		.file 35 "ChibiOS_3.0.2/os/hal/ports/STM32/LLD/SPIv1/spi_lld.h"
 4798              		.file 36 "ChibiOS_3.0.2/os/hal/include/usb.h"
 4799              		.file 37 "ChibiOS_3.0.2/os/hal/ports/STM32/LLD/OTGv1/usb_lld.h"
 4800              		.file 38 "ChibiOS_3.0.2/os/hal/ports/STM32/LLD/OTGv1/stm32_otg.h"
 4801              		.file 39 "mcpwm.h"
 4802              		.file 40 "mc_interface.h"
 4803              		.file 41 "/usr/arm-none-eabi/include/sys/lock.h"
 4804              		.file 42 "/usr/arm-none-eabi/include/sys/_types.h"
 4805              		.file 43 "/usr/arm-none-eabi/include/sys/reent.h"
 4806              		.file 44 "/usr/arm-none-eabi/include/math.h"
 4807              		.file 45 "ChibiOS_3.0.2/os/rt/include/chsys.h"
 4808              		.file 46 "/usr/arm-none-eabi/include/string.h"
 4809              		.file 47 "/usr/arm-none-eabi/include/stdio.h"
 4810              		.file 48 "commands.h"
 4811              		.file 49 "ChibiOS_3.0.2/os/rt/include/chheap.h"
 4812              		.file 50 "ChibiOS_3.0.2/os/rt/include/chmemcore.h"
 4813              		.file 51 "hwconf/drv8350.h"
 4814              		.file 52 "comm_can.h"
 4815              		.file 53 "mcpwm_foc.h"
 4816              		.file 54 "encoder.h"
 4817              		.file 55 "ChibiOS_3.0.2/os/rt/include/chthreads.h"
 4818              		.file 56 "timeout.h"
 4819              		.file 57 "<built-in>"
 4820              		.section	.debug_info,"",%progbits
 4821              	.Ldebug_info0:
 4822 0000 88680000 		.4byte	0x6888
 4823 0004 0400     		.2byte	0x4
 4824 0006 00000000 		.4byte	.Ldebug_abbrev0
 4825 000a 04       		.byte	0x4
 4826 000b 01       		.uleb128 0x1
 4827 000c 9D100000 		.4byte	.LASF1062
 4828 0010 0C       		.byte	0xc
 4829 0011 3B0D0000 		.4byte	.LASF1063
 4830 0015 C7290000 		.4byte	.LASF1064
 4831 0019 40020000 		.4byte	.Ldebug_ranges0+0x240
 4832 001d 00000000 		.4byte	0
 4833 0021 00000000 		.4byte	.Ldebug_line0
 4834 0025 02       		.uleb128 0x2
 4835 0026 04       		.byte	0x4
 4836 0027 04       		.byte	0x4
 4837 0028 BA0D0000 		.4byte	.LASF0
 4838 002c 03       		.uleb128 0x3
 4839 002d 04       		.byte	0x4
 4840 002e 05       		.byte	0x5
 4841 002f 696E7400 		.ascii	"int\000"
 4842 0033 04       		.uleb128 0x4
 4843 0034 2C000000 		.4byte	0x2c
 4844 0038 05       		.uleb128 0x5
 4845 0039 95140000 		.4byte	.LASF2
 4846 003d 04       		.byte	0x4
 4847 003e D8       		.byte	0xd8
ARM GAS  /tmp/ccHCUo6g.s 			page 101


 4848 003f 48000000 		.4byte	0x48
 4849 0043 04       		.uleb128 0x4
 4850 0044 38000000 		.4byte	0x38
 4851 0048 02       		.uleb128 0x2
 4852 0049 04       		.byte	0x4
 4853 004a 07       		.byte	0x7
 4854 004b FA370000 		.4byte	.LASF1
 4855 004f 05       		.uleb128 0x5
 4856 0050 1F370000 		.4byte	.LASF3
 4857 0054 05       		.byte	0x5
 4858 0055 29       		.byte	0x29
 4859 0056 5A000000 		.4byte	0x5a
 4860 005a 02       		.uleb128 0x2
 4861 005b 01       		.byte	0x1
 4862 005c 06       		.byte	0x6
 4863 005d 6C1F0000 		.4byte	.LASF4
 4864 0061 05       		.uleb128 0x5
 4865 0062 84010000 		.4byte	.LASF5
 4866 0066 05       		.byte	0x5
 4867 0067 2B       		.byte	0x2b
 4868 0068 6C000000 		.4byte	0x6c
 4869 006c 02       		.uleb128 0x2
 4870 006d 01       		.byte	0x1
 4871 006e 08       		.byte	0x8
 4872 006f 250D0000 		.4byte	.LASF6
 4873 0073 02       		.uleb128 0x2
 4874 0074 02       		.byte	0x2
 4875 0075 05       		.byte	0x5
 4876 0076 74380000 		.4byte	.LASF7
 4877 007a 05       		.uleb128 0x5
 4878 007b 160B0000 		.4byte	.LASF8
 4879 007f 05       		.byte	0x5
 4880 0080 39       		.byte	0x39
 4881 0081 85000000 		.4byte	0x85
 4882 0085 02       		.uleb128 0x2
 4883 0086 02       		.byte	0x2
 4884 0087 07       		.byte	0x7
 4885 0088 591F0000 		.4byte	.LASF9
 4886 008c 05       		.uleb128 0x5
 4887 008d CD2C0000 		.4byte	.LASF10
 4888 0091 05       		.byte	0x5
 4889 0092 4D       		.byte	0x4d
 4890 0093 97000000 		.4byte	0x97
 4891 0097 02       		.uleb128 0x2
 4892 0098 04       		.byte	0x4
 4893 0099 05       		.byte	0x5
 4894 009a 71220000 		.4byte	.LASF11
 4895 009e 05       		.uleb128 0x5
 4896 009f D72C0000 		.4byte	.LASF12
 4897 00a3 05       		.byte	0x5
 4898 00a4 4F       		.byte	0x4f
 4899 00a5 A9000000 		.4byte	0xa9
 4900 00a9 02       		.uleb128 0x2
 4901 00aa 04       		.byte	0x4
 4902 00ab 07       		.byte	0x7
 4903 00ac 2D250000 		.4byte	.LASF13
 4904 00b0 02       		.uleb128 0x2
ARM GAS  /tmp/ccHCUo6g.s 			page 102


 4905 00b1 08       		.byte	0x8
 4906 00b2 05       		.byte	0x5
 4907 00b3 16340000 		.4byte	.LASF14
 4908 00b7 05       		.uleb128 0x5
 4909 00b8 DA190000 		.4byte	.LASF15
 4910 00bc 05       		.byte	0x5
 4911 00bd 69       		.byte	0x69
 4912 00be C2000000 		.4byte	0xc2
 4913 00c2 02       		.uleb128 0x2
 4914 00c3 08       		.byte	0x8
 4915 00c4 07       		.byte	0x7
 4916 00c5 EF2F0000 		.4byte	.LASF16
 4917 00c9 05       		.uleb128 0x5
 4918 00ca 911D0000 		.4byte	.LASF17
 4919 00ce 06       		.byte	0x6
 4920 00cf 14       		.byte	0x14
 4921 00d0 4F000000 		.4byte	0x4f
 4922 00d4 05       		.uleb128 0x5
 4923 00d5 CF140000 		.4byte	.LASF18
 4924 00d9 06       		.byte	0x6
 4925 00da 18       		.byte	0x18
 4926 00db 61000000 		.4byte	0x61
 4927 00df 06       		.uleb128 0x6
 4928 00e0 D4000000 		.4byte	0xd4
 4929 00e4 05       		.uleb128 0x5
 4930 00e5 62030000 		.4byte	.LASF19
 4931 00e9 06       		.byte	0x6
 4932 00ea 24       		.byte	0x24
 4933 00eb 7A000000 		.4byte	0x7a
 4934 00ef 04       		.uleb128 0x4
 4935 00f0 E4000000 		.4byte	0xe4
 4936 00f4 05       		.uleb128 0x5
 4937 00f5 EB050000 		.4byte	.LASF20
 4938 00f9 06       		.byte	0x6
 4939 00fa 2C       		.byte	0x2c
 4940 00fb 8C000000 		.4byte	0x8c
 4941 00ff 04       		.uleb128 0x4
 4942 0100 F4000000 		.4byte	0xf4
 4943 0104 05       		.uleb128 0x5
 4944 0105 0B240000 		.4byte	.LASF21
 4945 0109 06       		.byte	0x6
 4946 010a 30       		.byte	0x30
 4947 010b 9E000000 		.4byte	0x9e
 4948 010f 04       		.uleb128 0x4
 4949 0110 04010000 		.4byte	0x104
 4950 0114 05       		.uleb128 0x5
 4951 0115 340F0000 		.4byte	.LASF22
 4952 0119 06       		.byte	0x6
 4953 011a 3C       		.byte	0x3c
 4954 011b B7000000 		.4byte	0xb7
 4955 011f 05       		.uleb128 0x5
 4956 0120 82130000 		.4byte	.LASF23
 4957 0124 07       		.byte	0x7
 4958 0125 45       		.byte	0x45
 4959 0126 04010000 		.4byte	0x104
 4960 012a 05       		.uleb128 0x5
 4961 012b F81B0000 		.4byte	.LASF24
ARM GAS  /tmp/ccHCUo6g.s 			page 103


 4962 012f 07       		.byte	0x7
 4963 0130 48       		.byte	0x48
 4964 0131 D4000000 		.4byte	0xd4
 4965 0135 05       		.uleb128 0x5
 4966 0136 B7310000 		.4byte	.LASF25
 4967 013a 07       		.byte	0x7
 4968 013b 49       		.byte	0x49
 4969 013c D4000000 		.4byte	0xd4
 4970 0140 05       		.uleb128 0x5
 4971 0141 5A1B0000 		.4byte	.LASF26
 4972 0145 07       		.byte	0x7
 4973 0146 4A       		.byte	0x4a
 4974 0147 D4000000 		.4byte	0xd4
 4975 014b 05       		.uleb128 0x5
 4976 014c 8D1E0000 		.4byte	.LASF27
 4977 0150 07       		.byte	0x7
 4978 0151 4B       		.byte	0x4b
 4979 0152 D4000000 		.4byte	0xd4
 4980 0156 05       		.uleb128 0x5
 4981 0157 81090000 		.4byte	.LASF28
 4982 015b 07       		.byte	0x7
 4983 015c 4C       		.byte	0x4c
 4984 015d 04010000 		.4byte	0x104
 4985 0161 05       		.uleb128 0x5
 4986 0162 A3000000 		.4byte	.LASF29
 4987 0166 07       		.byte	0x7
 4988 0167 4D       		.byte	0x4d
 4989 0168 F4000000 		.4byte	0xf4
 4990 016c 05       		.uleb128 0x5
 4991 016d BD240000 		.4byte	.LASF30
 4992 0171 07       		.byte	0x7
 4993 0172 4F       		.byte	0x4f
 4994 0173 04010000 		.4byte	0x104
 4995 0177 05       		.uleb128 0x5
 4996 0178 04350000 		.4byte	.LASF31
 4997 017c 07       		.byte	0x7
 4998 017d 50       		.byte	0x50
 4999 017e 04010000 		.4byte	0x104
 5000 0182 05       		.uleb128 0x5
 5001 0183 ED280000 		.4byte	.LASF32
 5002 0187 07       		.byte	0x7
 5003 0188 51       		.byte	0x51
 5004 0189 F4000000 		.4byte	0xf4
 5005 018d 05       		.uleb128 0x5
 5006 018e 0D060000 		.4byte	.LASF33
 5007 0192 08       		.byte	0x8
 5008 0193 33       		.byte	0x33
 5009 0194 04010000 		.4byte	0x104
 5010 0198 04       		.uleb128 0x4
 5011 0199 8D010000 		.4byte	0x18d
 5012 019d 05       		.uleb128 0x5
 5013 019e 9A050000 		.4byte	.LASF34
 5014 01a2 08       		.byte	0x8
 5015 01a3 3F       		.byte	0x3f
 5016 01a4 A8010000 		.4byte	0x1a8
 5017 01a8 07       		.uleb128 0x7
 5018 01a9 7F0D0000 		.4byte	.LASF56
ARM GAS  /tmp/ccHCUo6g.s 			page 104


 5019 01ad 48       		.byte	0x48
 5020 01ae 09       		.byte	0x9
 5021 01af C2       		.byte	0xc2
 5022 01b0 AD020000 		.4byte	0x2ad
 5023 01b4 08       		.uleb128 0x8
 5024 01b5 8F1A0000 		.4byte	.LASF35
 5025 01b9 09       		.byte	0x9
 5026 01ba C3       		.byte	0xc3
 5027 01bb B8020000 		.4byte	0x2b8
 5028 01bf 00       		.byte	0
 5029 01c0 08       		.uleb128 0x8
 5030 01c1 28150000 		.4byte	.LASF36
 5031 01c5 09       		.byte	0x9
 5032 01c6 C5       		.byte	0xc5
 5033 01c7 B8020000 		.4byte	0x2b8
 5034 01cb 04       		.byte	0x4
 5035 01cc 08       		.uleb128 0x8
 5036 01cd 91190000 		.4byte	.LASF37
 5037 01d1 09       		.byte	0x9
 5038 01d2 C7       		.byte	0xc7
 5039 01d3 56010000 		.4byte	0x156
 5040 01d7 08       		.byte	0x8
 5041 01d8 08       		.uleb128 0x8
 5042 01d9 3F0E0000 		.4byte	.LASF38
 5043 01dd 09       		.byte	0x9
 5044 01de C8       		.byte	0xc8
 5045 01df A80A0000 		.4byte	0xaa8
 5046 01e3 0C       		.byte	0xc
 5047 01e4 08       		.uleb128 0x8
 5048 01e5 0C040000 		.4byte	.LASF39
 5049 01e9 09       		.byte	0x9
 5050 01ea CA       		.byte	0xca
 5051 01eb B8020000 		.4byte	0x2b8
 5052 01ef 10       		.byte	0x10
 5053 01f0 08       		.uleb128 0x8
 5054 01f1 0E360000 		.4byte	.LASF40
 5055 01f5 09       		.byte	0x9
 5056 01f6 CB       		.byte	0xcb
 5057 01f7 B8020000 		.4byte	0x2b8
 5058 01fb 14       		.byte	0x14
 5059 01fc 08       		.uleb128 0x8
 5060 01fd 4E320000 		.4byte	.LASF41
 5061 0201 09       		.byte	0x9
 5062 0202 D2       		.byte	0xd2
 5063 0203 ED0C0000 		.4byte	0xced
 5064 0207 18       		.byte	0x18
 5065 0208 08       		.uleb128 0x8
 5066 0209 52390000 		.4byte	.LASF42
 5067 020d 09       		.byte	0x9
 5068 020e DD       		.byte	0xdd
 5069 020f 35010000 		.4byte	0x135
 5070 0213 1C       		.byte	0x1c
 5071 0214 08       		.uleb128 0x8
 5072 0215 FA300000 		.4byte	.LASF43
 5073 0219 09       		.byte	0x9
 5074 021a E1       		.byte	0xe1
 5075 021b 2A010000 		.4byte	0x12a
ARM GAS  /tmp/ccHCUo6g.s 			page 105


 5076 021f 1D       		.byte	0x1d
 5077 0220 08       		.uleb128 0x8
 5078 0221 3B220000 		.4byte	.LASF44
 5079 0225 09       		.byte	0x9
 5080 0226 E6       		.byte	0xe6
 5081 0227 40010000 		.4byte	0x140
 5082 022b 1E       		.byte	0x1e
 5083 022c 08       		.uleb128 0x8
 5084 022d C61F0000 		.4byte	.LASF45
 5085 0231 09       		.byte	0x9
 5086 0232 EC       		.byte	0xec
 5087 0233 4B010000 		.4byte	0x14b
 5088 0237 1F       		.byte	0x1f
 5089 0238 08       		.uleb128 0x8
 5090 0239 DB1F0000 		.4byte	.LASF46
 5091 023d 09       		.byte	0x9
 5092 023e F3       		.byte	0xf3
 5093 023f 98010000 		.4byte	0x198
 5094 0243 20       		.byte	0x20
 5095 0244 09       		.uleb128 0x9
 5096 0245 705F7500 		.ascii	"p_u\000"
 5097 0249 09       		.byte	0x9
 5098 024a 3101     		.2byte	0x131
 5099 024c 280C0000 		.4byte	0xc28
 5100 0250 24       		.byte	0x24
 5101 0251 0A       		.uleb128 0xa
 5102 0252 CA070000 		.4byte	.LASF47
 5103 0256 09       		.byte	0x9
 5104 0257 3601     		.2byte	0x136
 5105 0259 BE020000 		.4byte	0x2be
 5106 025d 28       		.byte	0x28
 5107 025e 0A       		.uleb128 0xa
 5108 025f 6D200000 		.4byte	.LASF48
 5109 0263 09       		.byte	0x9
 5110 0264 3C01     		.2byte	0x13c
 5111 0266 E2020000 		.4byte	0x2e2
 5112 026a 2C       		.byte	0x2c
 5113 026b 0A       		.uleb128 0xa
 5114 026c 3C0B0000 		.4byte	.LASF49
 5115 0270 09       		.byte	0x9
 5116 0271 4001     		.2byte	0x140
 5117 0273 61010000 		.4byte	0x161
 5118 0277 34       		.byte	0x34
 5119 0278 0A       		.uleb128 0xa
 5120 0279 D02D0000 		.4byte	.LASF50
 5121 027d 09       		.byte	0x9
 5122 027e 4601     		.2byte	0x146
 5123 0280 6C010000 		.4byte	0x16c
 5124 0284 38       		.byte	0x38
 5125 0285 0A       		.uleb128 0xa
 5126 0286 8E310000 		.4byte	.LASF51
 5127 028a 09       		.byte	0x9
 5128 028b 4D01     		.2byte	0x14d
 5129 028d E70C0000 		.4byte	0xce7
 5130 0291 3C       		.byte	0x3c
 5131 0292 0A       		.uleb128 0xa
 5132 0293 502B0000 		.4byte	.LASF52
ARM GAS  /tmp/ccHCUo6g.s 			page 106


 5133 0297 09       		.byte	0x9
 5134 0298 5101     		.2byte	0x151
 5135 029a 56010000 		.4byte	0x156
 5136 029e 40       		.byte	0x40
 5137 029f 0A       		.uleb128 0xa
 5138 02a0 6F1B0000 		.4byte	.LASF53
 5139 02a4 09       		.byte	0x9
 5140 02a5 5801     		.2byte	0x158
 5141 02a7 95030000 		.4byte	0x395
 5142 02ab 44       		.byte	0x44
 5143 02ac 00       		.byte	0
 5144 02ad 05       		.uleb128 0x5
 5145 02ae 5A360000 		.4byte	.LASF54
 5146 02b2 08       		.byte	0x8
 5147 02b3 44       		.byte	0x44
 5148 02b4 B8020000 		.4byte	0x2b8
 5149 02b8 0B       		.uleb128 0xb
 5150 02b9 04       		.byte	0x4
 5151 02ba 9D010000 		.4byte	0x19d
 5152 02be 05       		.uleb128 0x5
 5153 02bf 05080000 		.4byte	.LASF55
 5154 02c3 08       		.byte	0x8
 5155 02c4 49       		.byte	0x49
 5156 02c5 C9020000 		.4byte	0x2c9
 5157 02c9 07       		.uleb128 0x7
 5158 02ca 77390000 		.4byte	.LASF57
 5159 02ce 04       		.byte	0x4
 5160 02cf 09       		.byte	0x9
 5161 02d0 B0       		.byte	0xb0
 5162 02d1 E2020000 		.4byte	0x2e2
 5163 02d5 08       		.uleb128 0x8
 5164 02d6 8F1A0000 		.4byte	.LASF35
 5165 02da 09       		.byte	0x9
 5166 02db B1       		.byte	0xb1
 5167 02dc B8020000 		.4byte	0x2b8
 5168 02e0 00       		.byte	0
 5169 02e1 00       		.byte	0
 5170 02e2 05       		.uleb128 0x5
 5171 02e3 DF210000 		.4byte	.LASF58
 5172 02e7 08       		.byte	0x8
 5173 02e8 50       		.byte	0x50
 5174 02e9 ED020000 		.4byte	0x2ed
 5175 02ed 07       		.uleb128 0x7
 5176 02ee E2030000 		.4byte	.LASF59
 5177 02f2 08       		.byte	0x8
 5178 02f3 09       		.byte	0x9
 5179 02f4 B7       		.byte	0xb7
 5180 02f5 12030000 		.4byte	0x312
 5181 02f9 08       		.uleb128 0x8
 5182 02fa 8F1A0000 		.4byte	.LASF35
 5183 02fe 09       		.byte	0x9
 5184 02ff B8       		.byte	0xb8
 5185 0300 B8020000 		.4byte	0x2b8
 5186 0304 00       		.byte	0
 5187 0305 08       		.uleb128 0x8
 5188 0306 28150000 		.4byte	.LASF36
 5189 030a 09       		.byte	0x9
ARM GAS  /tmp/ccHCUo6g.s 			page 107


 5190 030b B9       		.byte	0xb9
 5191 030c B8020000 		.4byte	0x2b8
 5192 0310 04       		.byte	0x4
 5193 0311 00       		.byte	0
 5194 0312 05       		.uleb128 0x5
 5195 0313 720D0000 		.4byte	.LASF60
 5196 0317 08       		.byte	0x8
 5197 0318 57       		.byte	0x57
 5198 0319 1D030000 		.4byte	0x31d
 5199 031d 0C       		.uleb128 0xc
 5200 031e A32C0000 		.4byte	.LASF61
 5201 0322 1C       		.byte	0x1c
 5202 0323 09       		.byte	0x9
 5203 0324 9001     		.2byte	0x190
 5204 0326 79030000 		.4byte	0x379
 5205 032a 0A       		.uleb128 0xa
 5206 032b 86260000 		.4byte	.LASF62
 5207 032f 09       		.byte	0x9
 5208 0330 9101     		.2byte	0x191
 5209 0332 E2020000 		.4byte	0x2e2
 5210 0336 00       		.byte	0
 5211 0337 0A       		.uleb128 0xa
 5212 0338 862F0000 		.4byte	.LASF63
 5213 033c 09       		.byte	0x9
 5214 033d 9201     		.2byte	0x192
 5215 033f 56010000 		.4byte	0x156
 5216 0343 08       		.byte	0x8
 5217 0344 0A       		.uleb128 0xa
 5218 0345 11130000 		.4byte	.LASF64
 5219 0349 09       		.byte	0x9
 5220 034a 9401     		.2byte	0x194
 5221 034c A80A0000 		.4byte	0xaa8
 5222 0350 0C       		.byte	0xc
 5223 0351 0A       		.uleb128 0xa
 5224 0352 CA1D0000 		.4byte	.LASF65
 5225 0356 09       		.byte	0x9
 5226 0357 9701     		.2byte	0x197
 5227 0359 B8020000 		.4byte	0x2b8
 5228 035d 10       		.byte	0x10
 5229 035e 0A       		.uleb128 0xa
 5230 035f 11150000 		.4byte	.LASF66
 5231 0363 09       		.byte	0x9
 5232 0364 9801     		.2byte	0x198
 5233 0366 B8020000 		.4byte	0x2b8
 5234 036a 14       		.byte	0x14
 5235 036b 0A       		.uleb128 0xa
 5236 036c 6D0E0000 		.4byte	.LASF67
 5237 0370 09       		.byte	0x9
 5238 0371 9B01     		.2byte	0x19b
 5239 0373 B8020000 		.4byte	0x2b8
 5240 0377 18       		.byte	0x18
 5241 0378 00       		.byte	0
 5242 0379 05       		.uleb128 0x5
 5243 037a FA2A0000 		.4byte	.LASF68
 5244 037e 08       		.byte	0x8
 5245 037f 5C       		.byte	0x5c
 5246 0380 84030000 		.4byte	0x384
ARM GAS  /tmp/ccHCUo6g.s 			page 108


 5247 0384 0B       		.uleb128 0xb
 5248 0385 04       		.byte	0x4
 5249 0386 8A030000 		.4byte	0x38a
 5250 038a 0D       		.uleb128 0xd
 5251 038b 95030000 		.4byte	0x395
 5252 038f 0E       		.uleb128 0xe
 5253 0390 95030000 		.4byte	0x395
 5254 0394 00       		.byte	0
 5255 0395 0F       		.uleb128 0xf
 5256 0396 04       		.byte	0x4
 5257 0397 05       		.uleb128 0x5
 5258 0398 01130000 		.4byte	.LASF69
 5259 039c 08       		.byte	0x8
 5260 039d 61       		.byte	0x61
 5261 039e A2030000 		.4byte	0x3a2
 5262 03a2 0C       		.uleb128 0xc
 5263 03a3 E9300000 		.4byte	.LASF70
 5264 03a7 14       		.byte	0x14
 5265 03a8 09       		.byte	0x9
 5266 03a9 6B01     		.2byte	0x16b
 5267 03ab F1030000 		.4byte	0x3f1
 5268 03af 0A       		.uleb128 0xa
 5269 03b0 17130000 		.4byte	.LASF71
 5270 03b4 09       		.byte	0x9
 5271 03b5 6C01     		.2byte	0x16c
 5272 03b7 040D0000 		.4byte	0xd04
 5273 03bb 00       		.byte	0
 5274 03bc 0A       		.uleb128 0xa
 5275 03bd 0D0D0000 		.4byte	.LASF72
 5276 03c1 09       		.byte	0x9
 5277 03c2 6D01     		.2byte	0x16d
 5278 03c4 040D0000 		.4byte	0xd04
 5279 03c8 04       		.byte	0x4
 5280 03c9 0A       		.uleb128 0xa
 5281 03ca F71E0000 		.4byte	.LASF73
 5282 03ce 09       		.byte	0x9
 5283 03cf 6E01     		.2byte	0x16e
 5284 03d1 8D010000 		.4byte	0x18d
 5285 03d5 08       		.byte	0x8
 5286 03d6 0A       		.uleb128 0xa
 5287 03d7 B1300000 		.4byte	.LASF74
 5288 03db 09       		.byte	0x9
 5289 03dc 6F01     		.2byte	0x16f
 5290 03de 79030000 		.4byte	0x379
 5291 03e2 0C       		.byte	0xc
 5292 03e3 0A       		.uleb128 0xa
 5293 03e4 450E0000 		.4byte	.LASF75
 5294 03e8 09       		.byte	0x9
 5295 03e9 7101     		.2byte	0x171
 5296 03eb 95030000 		.4byte	0x395
 5297 03ef 10       		.byte	0x10
 5298 03f0 00       		.byte	0
 5299 03f1 05       		.uleb128 0x5
 5300 03f2 C8320000 		.4byte	.LASF76
 5301 03f6 08       		.byte	0x8
 5302 03f7 66       		.byte	0x66
 5303 03f8 FC030000 		.4byte	0x3fc
ARM GAS  /tmp/ccHCUo6g.s 			page 109


 5304 03fc 0C       		.uleb128 0xc
 5305 03fd B9050000 		.4byte	.LASF77
 5306 0401 10       		.byte	0x10
 5307 0402 09       		.byte	0x9
 5308 0403 7B01     		.2byte	0x17b
 5309 0405 3E040000 		.4byte	0x43e
 5310 0409 0A       		.uleb128 0xa
 5311 040a 17130000 		.4byte	.LASF71
 5312 040e 09       		.byte	0x9
 5313 040f 7C01     		.2byte	0x17c
 5314 0411 040D0000 		.4byte	0xd04
 5315 0415 00       		.byte	0
 5316 0416 0A       		.uleb128 0xa
 5317 0417 0D0D0000 		.4byte	.LASF72
 5318 041b 09       		.byte	0x9
 5319 041c 7E01     		.2byte	0x17e
 5320 041e 040D0000 		.4byte	0xd04
 5321 0422 04       		.byte	0x4
 5322 0423 0A       		.uleb128 0xa
 5323 0424 F71E0000 		.4byte	.LASF73
 5324 0428 09       		.byte	0x9
 5325 0429 8001     		.2byte	0x180
 5326 042b 8D010000 		.4byte	0x18d
 5327 042f 08       		.byte	0x8
 5328 0430 0A       		.uleb128 0xa
 5329 0431 23020000 		.4byte	.LASF78
 5330 0435 09       		.byte	0x9
 5331 0436 8201     		.2byte	0x182
 5332 0438 98010000 		.4byte	0x198
 5333 043c 0C       		.byte	0xc
 5334 043d 00       		.byte	0
 5335 043e 05       		.uleb128 0x5
 5336 043f 1A0E0000 		.4byte	.LASF79
 5337 0443 08       		.byte	0x8
 5338 0444 6B       		.byte	0x6b
 5339 0445 49040000 		.4byte	0x449
 5340 0449 0C       		.uleb128 0xc
 5341 044a E82C0000 		.4byte	.LASF80
 5342 044e 04       		.byte	0x4
 5343 044f 09       		.byte	0x9
 5344 0450 A201     		.2byte	0x1a2
 5345 0452 64040000 		.4byte	0x464
 5346 0456 0A       		.uleb128 0xa
 5347 0457 A01D0000 		.4byte	.LASF81
 5348 045b 09       		.byte	0x9
 5349 045c AA01     		.2byte	0x1aa
 5350 045e F30C0000 		.4byte	0xcf3
 5351 0462 00       		.byte	0
 5352 0463 00       		.byte	0
 5353 0464 05       		.uleb128 0x5
 5354 0465 78010000 		.4byte	.LASF82
 5355 0469 08       		.byte	0x8
 5356 046a 70       		.byte	0x70
 5357 046b 6F040000 		.4byte	0x46f
 5358 046f 10       		.uleb128 0x10
 5359 0470 1C210000 		.4byte	.LASF83
 5360 0474 5802     		.2byte	0x258
ARM GAS  /tmp/ccHCUo6g.s 			page 110


 5361 0476 09       		.byte	0x9
 5362 0477 C201     		.2byte	0x1c2
 5363 0479 CB040000 		.4byte	0x4cb
 5364 047d 0A       		.uleb128 0xa
 5365 047e FF070000 		.4byte	.LASF84
 5366 0482 09       		.byte	0x9
 5367 0483 C601     		.2byte	0x1c6
 5368 0485 12030000 		.4byte	0x312
 5369 0489 00       		.byte	0
 5370 048a 0A       		.uleb128 0xa
 5371 048b AA070000 		.4byte	.LASF85
 5372 048f 09       		.byte	0x9
 5373 0490 CA01     		.2byte	0x1ca
 5374 0492 F1030000 		.4byte	0x3f1
 5375 0496 1C       		.byte	0x1c
 5376 0497 09       		.uleb128 0x9
 5377 0498 64626700 		.ascii	"dbg\000"
 5378 049c 09       		.byte	0x9
 5379 049d CE01     		.2byte	0x1ce
 5380 049f 3E040000 		.4byte	0x43e
 5381 04a3 2C       		.byte	0x2c
 5382 04a4 0A       		.uleb128 0xa
 5383 04a5 7A220000 		.4byte	.LASF86
 5384 04a9 09       		.byte	0x9
 5385 04aa D201     		.2byte	0x1d2
 5386 04ac 9D010000 		.4byte	0x19d
 5387 04b0 30       		.byte	0x30
 5388 04b1 09       		.uleb128 0x9
 5389 04b2 746D00   		.ascii	"tm\000"
 5390 04b5 09       		.byte	0x9
 5391 04b6 D701     		.2byte	0x1d7
 5392 04b8 1D0C0000 		.4byte	0xc1d
 5393 04bc 78       		.byte	0x78
 5394 04bd 0A       		.uleb128 0xa
 5395 04be 83300000 		.4byte	.LASF87
 5396 04c2 09       		.byte	0x9
 5397 04c3 E301     		.2byte	0x1e3
 5398 04c5 0A0D0000 		.4byte	0xd0a
 5399 04c9 80       		.byte	0x80
 5400 04ca 00       		.byte	0
 5401 04cb 11       		.uleb128 0x11
 5402 04cc 04010000 		.4byte	0x104
 5403 04d0 DB040000 		.4byte	0x4db
 5404 04d4 12       		.uleb128 0x12
 5405 04d5 48000000 		.4byte	0x48
 5406 04d9 07       		.byte	0x7
 5407 04da 00       		.byte	0
 5408 04db 13       		.uleb128 0x13
 5409 04dc BF2F0000 		.4byte	.LASF88
 5410 04e0 0A       		.byte	0xa
 5411 04e1 A706     		.2byte	0x6a7
 5412 04e3 FF000000 		.4byte	0xff
 5413 04e7 14       		.uleb128 0x14
 5414 04e8 BE200000 		.4byte	.LASF89
 5415 04ec 0B       		.byte	0xb
 5416 04ed 4C       		.byte	0x4c
 5417 04ee 04010000 		.4byte	0x104
ARM GAS  /tmp/ccHCUo6g.s 			page 111


 5418 04f2 15       		.uleb128 0x15
 5419 04f3 10       		.byte	0x10
 5420 04f4 0C       		.byte	0xc
 5421 04f5 E9       		.byte	0xe9
 5422 04f6 2B050000 		.4byte	0x52b
 5423 04fa 16       		.uleb128 0x16
 5424 04fb 54495200 		.ascii	"TIR\000"
 5425 04ff 0C       		.byte	0xc
 5426 0500 EB       		.byte	0xeb
 5427 0501 0F010000 		.4byte	0x10f
 5428 0505 00       		.byte	0
 5429 0506 08       		.uleb128 0x8
 5430 0507 34190000 		.4byte	.LASF90
 5431 050b 0C       		.byte	0xc
 5432 050c EC       		.byte	0xec
 5433 050d 0F010000 		.4byte	0x10f
 5434 0511 04       		.byte	0x4
 5435 0512 08       		.uleb128 0x8
 5436 0513 6C220000 		.4byte	.LASF91
 5437 0517 0C       		.byte	0xc
 5438 0518 ED       		.byte	0xed
 5439 0519 0F010000 		.4byte	0x10f
 5440 051d 08       		.byte	0x8
 5441 051e 08       		.uleb128 0x8
 5442 051f E21F0000 		.4byte	.LASF92
 5443 0523 0C       		.byte	0xc
 5444 0524 EE       		.byte	0xee
 5445 0525 0F010000 		.4byte	0x10f
 5446 0529 0C       		.byte	0xc
 5447 052a 00       		.byte	0
 5448 052b 05       		.uleb128 0x5
 5449 052c E9070000 		.4byte	.LASF93
 5450 0530 0C       		.byte	0xc
 5451 0531 EF       		.byte	0xef
 5452 0532 F2040000 		.4byte	0x4f2
 5453 0536 15       		.uleb128 0x15
 5454 0537 10       		.byte	0x10
 5455 0538 0C       		.byte	0xc
 5456 0539 F5       		.byte	0xf5
 5457 053a 6F050000 		.4byte	0x56f
 5458 053e 16       		.uleb128 0x16
 5459 053f 52495200 		.ascii	"RIR\000"
 5460 0543 0C       		.byte	0xc
 5461 0544 F7       		.byte	0xf7
 5462 0545 0F010000 		.4byte	0x10f
 5463 0549 00       		.byte	0
 5464 054a 08       		.uleb128 0x8
 5465 054b 702C0000 		.4byte	.LASF94
 5466 054f 0C       		.byte	0xc
 5467 0550 F8       		.byte	0xf8
 5468 0551 0F010000 		.4byte	0x10f
 5469 0555 04       		.byte	0x4
 5470 0556 08       		.uleb128 0x8
 5471 0557 63240000 		.4byte	.LASF95
 5472 055b 0C       		.byte	0xc
 5473 055c F9       		.byte	0xf9
 5474 055d 0F010000 		.4byte	0x10f
ARM GAS  /tmp/ccHCUo6g.s 			page 112


 5475 0561 08       		.byte	0x8
 5476 0562 08       		.uleb128 0x8
 5477 0563 06210000 		.4byte	.LASF96
 5478 0567 0C       		.byte	0xc
 5479 0568 FA       		.byte	0xfa
 5480 0569 0F010000 		.4byte	0x10f
 5481 056d 0C       		.byte	0xc
 5482 056e 00       		.byte	0
 5483 056f 05       		.uleb128 0x5
 5484 0570 032B0000 		.4byte	.LASF97
 5485 0574 0C       		.byte	0xc
 5486 0575 FB       		.byte	0xfb
 5487 0576 36050000 		.4byte	0x536
 5488 057a 17       		.uleb128 0x17
 5489 057b 08       		.byte	0x8
 5490 057c 0C       		.byte	0xc
 5491 057d 0101     		.2byte	0x101
 5492 057f 9E050000 		.4byte	0x59e
 5493 0583 09       		.uleb128 0x9
 5494 0584 46523100 		.ascii	"FR1\000"
 5495 0588 0C       		.byte	0xc
 5496 0589 0301     		.2byte	0x103
 5497 058b 0F010000 		.4byte	0x10f
 5498 058f 00       		.byte	0
 5499 0590 09       		.uleb128 0x9
 5500 0591 46523200 		.ascii	"FR2\000"
 5501 0595 0C       		.byte	0xc
 5502 0596 0401     		.2byte	0x104
 5503 0598 0F010000 		.4byte	0x10f
 5504 059c 04       		.byte	0x4
 5505 059d 00       		.byte	0
 5506 059e 18       		.uleb128 0x18
 5507 059f 44190000 		.4byte	.LASF98
 5508 05a3 0C       		.byte	0xc
 5509 05a4 0501     		.2byte	0x105
 5510 05a6 7A050000 		.4byte	0x57a
 5511 05aa 19       		.uleb128 0x19
 5512 05ab 2003     		.2byte	0x320
 5513 05ad 0C       		.byte	0xc
 5514 05ae 0B01     		.2byte	0x10b
 5515 05b0 E0060000 		.4byte	0x6e0
 5516 05b4 09       		.uleb128 0x9
 5517 05b5 4D435200 		.ascii	"MCR\000"
 5518 05b9 0C       		.byte	0xc
 5519 05ba 0D01     		.2byte	0x10d
 5520 05bc 0F010000 		.4byte	0x10f
 5521 05c0 00       		.byte	0
 5522 05c1 09       		.uleb128 0x9
 5523 05c2 4D535200 		.ascii	"MSR\000"
 5524 05c6 0C       		.byte	0xc
 5525 05c7 0E01     		.2byte	0x10e
 5526 05c9 0F010000 		.4byte	0x10f
 5527 05cd 04       		.byte	0x4
 5528 05ce 09       		.uleb128 0x9
 5529 05cf 54535200 		.ascii	"TSR\000"
 5530 05d3 0C       		.byte	0xc
 5531 05d4 0F01     		.2byte	0x10f
ARM GAS  /tmp/ccHCUo6g.s 			page 113


 5532 05d6 0F010000 		.4byte	0x10f
 5533 05da 08       		.byte	0x8
 5534 05db 0A       		.uleb128 0xa
 5535 05dc 20160000 		.4byte	.LASF99
 5536 05e0 0C       		.byte	0xc
 5537 05e1 1001     		.2byte	0x110
 5538 05e3 0F010000 		.4byte	0x10f
 5539 05e7 0C       		.byte	0xc
 5540 05e8 0A       		.uleb128 0xa
 5541 05e9 92170000 		.4byte	.LASF100
 5542 05ed 0C       		.byte	0xc
 5543 05ee 1101     		.2byte	0x111
 5544 05f0 0F010000 		.4byte	0x10f
 5545 05f4 10       		.byte	0x10
 5546 05f5 09       		.uleb128 0x9
 5547 05f6 49455200 		.ascii	"IER\000"
 5548 05fa 0C       		.byte	0xc
 5549 05fb 1201     		.2byte	0x112
 5550 05fd 0F010000 		.4byte	0x10f
 5551 0601 14       		.byte	0x14
 5552 0602 09       		.uleb128 0x9
 5553 0603 45535200 		.ascii	"ESR\000"
 5554 0607 0C       		.byte	0xc
 5555 0608 1301     		.2byte	0x113
 5556 060a 0F010000 		.4byte	0x10f
 5557 060e 18       		.byte	0x18
 5558 060f 09       		.uleb128 0x9
 5559 0610 42545200 		.ascii	"BTR\000"
 5560 0614 0C       		.byte	0xc
 5561 0615 1401     		.2byte	0x114
 5562 0617 0F010000 		.4byte	0x10f
 5563 061b 1C       		.byte	0x1c
 5564 061c 0A       		.uleb128 0xa
 5565 061d 3B2E0000 		.4byte	.LASF101
 5566 0621 0C       		.byte	0xc
 5567 0622 1501     		.2byte	0x115
 5568 0624 E0060000 		.4byte	0x6e0
 5569 0628 20       		.byte	0x20
 5570 0629 1A       		.uleb128 0x1a
 5571 062a 701A0000 		.4byte	.LASF102
 5572 062e 0C       		.byte	0xc
 5573 062f 1601     		.2byte	0x116
 5574 0631 F0060000 		.4byte	0x6f0
 5575 0635 8001     		.2byte	0x180
 5576 0637 1A       		.uleb128 0x1a
 5577 0638 63350000 		.4byte	.LASF103
 5578 063c 0C       		.byte	0xc
 5579 063d 1701     		.2byte	0x117
 5580 063f 00070000 		.4byte	0x700
 5581 0643 B001     		.2byte	0x1b0
 5582 0645 1A       		.uleb128 0x1a
 5583 0646 452E0000 		.4byte	.LASF104
 5584 064a 0C       		.byte	0xc
 5585 064b 1801     		.2byte	0x118
 5586 064d 10070000 		.4byte	0x710
 5587 0651 D001     		.2byte	0x1d0
 5588 0653 1B       		.uleb128 0x1b
ARM GAS  /tmp/ccHCUo6g.s 			page 114


 5589 0654 464D5200 		.ascii	"FMR\000"
 5590 0658 0C       		.byte	0xc
 5591 0659 1901     		.2byte	0x119
 5592 065b 0F010000 		.4byte	0x10f
 5593 065f 0002     		.2byte	0x200
 5594 0661 1A       		.uleb128 0x1a
 5595 0662 630F0000 		.4byte	.LASF105
 5596 0666 0C       		.byte	0xc
 5597 0667 1A01     		.2byte	0x11a
 5598 0669 0F010000 		.4byte	0x10f
 5599 066d 0402     		.2byte	0x204
 5600 066f 1A       		.uleb128 0x1a
 5601 0670 4F2E0000 		.4byte	.LASF106
 5602 0674 0C       		.byte	0xc
 5603 0675 1B01     		.2byte	0x11b
 5604 0677 04010000 		.4byte	0x104
 5605 067b 0802     		.2byte	0x208
 5606 067d 1A       		.uleb128 0x1a
 5607 067e B2310000 		.4byte	.LASF107
 5608 0682 0C       		.byte	0xc
 5609 0683 1C01     		.2byte	0x11c
 5610 0685 0F010000 		.4byte	0x10f
 5611 0689 0C02     		.2byte	0x20c
 5612 068b 1A       		.uleb128 0x1a
 5613 068c 592E0000 		.4byte	.LASF108
 5614 0690 0C       		.byte	0xc
 5615 0691 1D01     		.2byte	0x11d
 5616 0693 04010000 		.4byte	0x104
 5617 0697 1002     		.2byte	0x210
 5618 0699 1A       		.uleb128 0x1a
 5619 069a E0240000 		.4byte	.LASF109
 5620 069e 0C       		.byte	0xc
 5621 069f 1E01     		.2byte	0x11e
 5622 06a1 0F010000 		.4byte	0x10f
 5623 06a5 1402     		.2byte	0x214
 5624 06a7 1A       		.uleb128 0x1a
 5625 06a8 632E0000 		.4byte	.LASF110
 5626 06ac 0C       		.byte	0xc
 5627 06ad 1F01     		.2byte	0x11f
 5628 06af 04010000 		.4byte	0x104
 5629 06b3 1802     		.2byte	0x218
 5630 06b5 1A       		.uleb128 0x1a
 5631 06b6 86060000 		.4byte	.LASF111
 5632 06ba 0C       		.byte	0xc
 5633 06bb 2001     		.2byte	0x120
 5634 06bd 0F010000 		.4byte	0x10f
 5635 06c1 1C02     		.2byte	0x21c
 5636 06c3 1A       		.uleb128 0x1a
 5637 06c4 6D2E0000 		.4byte	.LASF112
 5638 06c8 0C       		.byte	0xc
 5639 06c9 2101     		.2byte	0x121
 5640 06cb CB040000 		.4byte	0x4cb
 5641 06cf 2002     		.2byte	0x220
 5642 06d1 1A       		.uleb128 0x1a
 5643 06d2 A6080000 		.4byte	.LASF113
 5644 06d6 0C       		.byte	0xc
 5645 06d7 2201     		.2byte	0x122
ARM GAS  /tmp/ccHCUo6g.s 			page 115


 5646 06d9 20070000 		.4byte	0x720
 5647 06dd 4002     		.2byte	0x240
 5648 06df 00       		.byte	0
 5649 06e0 11       		.uleb128 0x11
 5650 06e1 04010000 		.4byte	0x104
 5651 06e5 F0060000 		.4byte	0x6f0
 5652 06e9 12       		.uleb128 0x12
 5653 06ea 48000000 		.4byte	0x48
 5654 06ee 57       		.byte	0x57
 5655 06ef 00       		.byte	0
 5656 06f0 11       		.uleb128 0x11
 5657 06f1 2B050000 		.4byte	0x52b
 5658 06f5 00070000 		.4byte	0x700
 5659 06f9 12       		.uleb128 0x12
 5660 06fa 48000000 		.4byte	0x48
 5661 06fe 02       		.byte	0x2
 5662 06ff 00       		.byte	0
 5663 0700 11       		.uleb128 0x11
 5664 0701 6F050000 		.4byte	0x56f
 5665 0705 10070000 		.4byte	0x710
 5666 0709 12       		.uleb128 0x12
 5667 070a 48000000 		.4byte	0x48
 5668 070e 01       		.byte	0x1
 5669 070f 00       		.byte	0
 5670 0710 11       		.uleb128 0x11
 5671 0711 04010000 		.4byte	0x104
 5672 0715 20070000 		.4byte	0x720
 5673 0719 12       		.uleb128 0x12
 5674 071a 48000000 		.4byte	0x48
 5675 071e 0B       		.byte	0xb
 5676 071f 00       		.byte	0
 5677 0720 11       		.uleb128 0x11
 5678 0721 9E050000 		.4byte	0x59e
 5679 0725 30070000 		.4byte	0x730
 5680 0729 12       		.uleb128 0x12
 5681 072a 48000000 		.4byte	0x48
 5682 072e 1B       		.byte	0x1b
 5683 072f 00       		.byte	0
 5684 0730 18       		.uleb128 0x18
 5685 0731 6C140000 		.4byte	.LASF114
 5686 0735 0C       		.byte	0xc
 5687 0736 2301     		.2byte	0x123
 5688 0738 AA050000 		.4byte	0x5aa
 5689 073c 17       		.uleb128 0x17
 5690 073d 18       		.byte	0x18
 5691 073e 0C       		.byte	0xc
 5692 073f 6B01     		.2byte	0x16b
 5693 0741 93070000 		.4byte	0x793
 5694 0745 09       		.uleb128 0x9
 5695 0746 435200   		.ascii	"CR\000"
 5696 0749 0C       		.byte	0xc
 5697 074a 6D01     		.2byte	0x16d
 5698 074c 0F010000 		.4byte	0x10f
 5699 0750 00       		.byte	0
 5700 0751 0A       		.uleb128 0xa
 5701 0752 5F300000 		.4byte	.LASF115
 5702 0756 0C       		.byte	0xc
ARM GAS  /tmp/ccHCUo6g.s 			page 116


 5703 0757 6E01     		.2byte	0x16e
 5704 0759 0F010000 		.4byte	0x10f
 5705 075d 04       		.byte	0x4
 5706 075e 09       		.uleb128 0x9
 5707 075f 50415200 		.ascii	"PAR\000"
 5708 0763 0C       		.byte	0xc
 5709 0764 6F01     		.2byte	0x16f
 5710 0766 0F010000 		.4byte	0x10f
 5711 076a 08       		.byte	0x8
 5712 076b 0A       		.uleb128 0xa
 5713 076c 31060000 		.4byte	.LASF116
 5714 0770 0C       		.byte	0xc
 5715 0771 7001     		.2byte	0x170
 5716 0773 0F010000 		.4byte	0x10f
 5717 0777 0C       		.byte	0xc
 5718 0778 0A       		.uleb128 0xa
 5719 0779 820B0000 		.4byte	.LASF117
 5720 077d 0C       		.byte	0xc
 5721 077e 7101     		.2byte	0x171
 5722 0780 0F010000 		.4byte	0x10f
 5723 0784 10       		.byte	0x10
 5724 0785 09       		.uleb128 0x9
 5725 0786 46435200 		.ascii	"FCR\000"
 5726 078a 0C       		.byte	0xc
 5727 078b 7201     		.2byte	0x172
 5728 078d 0F010000 		.4byte	0x10f
 5729 0791 14       		.byte	0x14
 5730 0792 00       		.byte	0
 5731 0793 18       		.uleb128 0x18
 5732 0794 8C0B0000 		.4byte	.LASF118
 5733 0798 0C       		.byte	0xc
 5734 0799 7301     		.2byte	0x173
 5735 079b 3C070000 		.4byte	0x73c
 5736 079f 11       		.uleb128 0x11
 5737 07a0 0F010000 		.4byte	0x10f
 5738 07a4 AF070000 		.4byte	0x7af
 5739 07a8 12       		.uleb128 0x12
 5740 07a9 48000000 		.4byte	0x48
 5741 07ad 01       		.byte	0x1
 5742 07ae 00       		.byte	0
 5743 07af 04       		.uleb128 0x4
 5744 07b0 9F070000 		.4byte	0x79f
 5745 07b4 11       		.uleb128 0x11
 5746 07b5 0F010000 		.4byte	0x10f
 5747 07b9 C4070000 		.4byte	0x7c4
 5748 07bd 12       		.uleb128 0x12
 5749 07be 48000000 		.4byte	0x48
 5750 07c2 03       		.byte	0x3
 5751 07c3 00       		.byte	0
 5752 07c4 04       		.uleb128 0x4
 5753 07c5 B4070000 		.4byte	0x7b4
 5754 07c9 17       		.uleb128 0x17
 5755 07ca 28       		.byte	0x28
 5756 07cb 0C       		.byte	0xc
 5757 07cc 3F02     		.2byte	0x23f
 5758 07ce 54080000 		.4byte	0x854
 5759 07d2 09       		.uleb128 0x9
ARM GAS  /tmp/ccHCUo6g.s 			page 117


 5760 07d3 43523100 		.ascii	"CR1\000"
 5761 07d7 0C       		.byte	0xc
 5762 07d8 4102     		.2byte	0x241
 5763 07da 0F010000 		.4byte	0x10f
 5764 07de 00       		.byte	0
 5765 07df 09       		.uleb128 0x9
 5766 07e0 43523200 		.ascii	"CR2\000"
 5767 07e4 0C       		.byte	0xc
 5768 07e5 4202     		.2byte	0x242
 5769 07e7 0F010000 		.4byte	0x10f
 5770 07eb 04       		.byte	0x4
 5771 07ec 0A       		.uleb128 0xa
 5772 07ed B3390000 		.4byte	.LASF119
 5773 07f1 0C       		.byte	0xc
 5774 07f2 4302     		.2byte	0x243
 5775 07f4 0F010000 		.4byte	0x10f
 5776 07f8 08       		.byte	0x8
 5777 07f9 0A       		.uleb128 0xa
 5778 07fa B8390000 		.4byte	.LASF120
 5779 07fe 0C       		.byte	0xc
 5780 07ff 4402     		.2byte	0x244
 5781 0801 0F010000 		.4byte	0x10f
 5782 0805 0C       		.byte	0xc
 5783 0806 09       		.uleb128 0x9
 5784 0807 445200   		.ascii	"DR\000"
 5785 080a 0C       		.byte	0xc
 5786 080b 4502     		.2byte	0x245
 5787 080d 0F010000 		.4byte	0x10f
 5788 0811 10       		.byte	0x10
 5789 0812 09       		.uleb128 0x9
 5790 0813 53523100 		.ascii	"SR1\000"
 5791 0817 0C       		.byte	0xc
 5792 0818 4602     		.2byte	0x246
 5793 081a 0F010000 		.4byte	0x10f
 5794 081e 14       		.byte	0x14
 5795 081f 09       		.uleb128 0x9
 5796 0820 53523200 		.ascii	"SR2\000"
 5797 0824 0C       		.byte	0xc
 5798 0825 4702     		.2byte	0x247
 5799 0827 0F010000 		.4byte	0x10f
 5800 082b 18       		.byte	0x18
 5801 082c 09       		.uleb128 0x9
 5802 082d 43435200 		.ascii	"CCR\000"
 5803 0831 0C       		.byte	0xc
 5804 0832 4802     		.2byte	0x248
 5805 0834 0F010000 		.4byte	0x10f
 5806 0838 1C       		.byte	0x1c
 5807 0839 0A       		.uleb128 0xa
 5808 083a BB070000 		.4byte	.LASF121
 5809 083e 0C       		.byte	0xc
 5810 083f 4902     		.2byte	0x249
 5811 0841 0F010000 		.4byte	0x10f
 5812 0845 20       		.byte	0x20
 5813 0846 0A       		.uleb128 0xa
 5814 0847 95370000 		.4byte	.LASF122
 5815 084b 0C       		.byte	0xc
 5816 084c 4A02     		.2byte	0x24a
ARM GAS  /tmp/ccHCUo6g.s 			page 118


 5817 084e 0F010000 		.4byte	0x10f
 5818 0852 24       		.byte	0x24
 5819 0853 00       		.byte	0
 5820 0854 18       		.uleb128 0x18
 5821 0855 FA200000 		.4byte	.LASF123
 5822 0859 0C       		.byte	0xc
 5823 085a 4B02     		.2byte	0x24b
 5824 085c C9070000 		.4byte	0x7c9
 5825 0860 17       		.uleb128 0x17
 5826 0861 24       		.byte	0x24
 5827 0862 0C       		.byte	0xc
 5828 0863 DB02     		.2byte	0x2db
 5829 0865 DD080000 		.4byte	0x8dd
 5830 0869 09       		.uleb128 0x9
 5831 086a 43523100 		.ascii	"CR1\000"
 5832 086e 0C       		.byte	0xc
 5833 086f DD02     		.2byte	0x2dd
 5834 0871 0F010000 		.4byte	0x10f
 5835 0875 00       		.byte	0
 5836 0876 09       		.uleb128 0x9
 5837 0877 43523200 		.ascii	"CR2\000"
 5838 087b 0C       		.byte	0xc
 5839 087c DE02     		.2byte	0x2de
 5840 087e 0F010000 		.4byte	0x10f
 5841 0882 04       		.byte	0x4
 5842 0883 09       		.uleb128 0x9
 5843 0884 535200   		.ascii	"SR\000"
 5844 0887 0C       		.byte	0xc
 5845 0888 DF02     		.2byte	0x2df
 5846 088a 0F010000 		.4byte	0x10f
 5847 088e 08       		.byte	0x8
 5848 088f 09       		.uleb128 0x9
 5849 0890 445200   		.ascii	"DR\000"
 5850 0893 0C       		.byte	0xc
 5851 0894 E002     		.2byte	0x2e0
 5852 0896 0F010000 		.4byte	0x10f
 5853 089a 0C       		.byte	0xc
 5854 089b 0A       		.uleb128 0xa
 5855 089c F90A0000 		.4byte	.LASF124
 5856 08a0 0C       		.byte	0xc
 5857 08a1 E102     		.2byte	0x2e1
 5858 08a3 0F010000 		.4byte	0x10f
 5859 08a7 10       		.byte	0x10
 5860 08a8 0A       		.uleb128 0xa
 5861 08a9 19100000 		.4byte	.LASF125
 5862 08ad 0C       		.byte	0xc
 5863 08ae E202     		.2byte	0x2e2
 5864 08b0 0F010000 		.4byte	0x10f
 5865 08b4 14       		.byte	0x14
 5866 08b5 0A       		.uleb128 0xa
 5867 08b6 9E0E0000 		.4byte	.LASF126
 5868 08ba 0C       		.byte	0xc
 5869 08bb E302     		.2byte	0x2e3
 5870 08bd 0F010000 		.4byte	0x10f
 5871 08c1 18       		.byte	0x18
 5872 08c2 0A       		.uleb128 0xa
 5873 08c3 A8330000 		.4byte	.LASF127
ARM GAS  /tmp/ccHCUo6g.s 			page 119


 5874 08c7 0C       		.byte	0xc
 5875 08c8 E402     		.2byte	0x2e4
 5876 08ca 0F010000 		.4byte	0x10f
 5877 08ce 1C       		.byte	0x1c
 5878 08cf 0A       		.uleb128 0xa
 5879 08d0 960A0000 		.4byte	.LASF128
 5880 08d4 0C       		.byte	0xc
 5881 08d5 E502     		.2byte	0x2e5
 5882 08d7 0F010000 		.4byte	0x10f
 5883 08db 20       		.byte	0x20
 5884 08dc 00       		.byte	0
 5885 08dd 18       		.uleb128 0x18
 5886 08de A5300000 		.4byte	.LASF129
 5887 08e2 0C       		.byte	0xc
 5888 08e3 E602     		.2byte	0x2e6
 5889 08e5 60080000 		.4byte	0x860
 5890 08e9 17       		.uleb128 0x17
 5891 08ea 54       		.byte	0x54
 5892 08eb 0C       		.byte	0xc
 5893 08ec EC02     		.2byte	0x2ec
 5894 08ee 020A0000 		.4byte	0xa02
 5895 08f2 09       		.uleb128 0x9
 5896 08f3 43523100 		.ascii	"CR1\000"
 5897 08f7 0C       		.byte	0xc
 5898 08f8 EE02     		.2byte	0x2ee
 5899 08fa 0F010000 		.4byte	0x10f
 5900 08fe 00       		.byte	0
 5901 08ff 09       		.uleb128 0x9
 5902 0900 43523200 		.ascii	"CR2\000"
 5903 0904 0C       		.byte	0xc
 5904 0905 EF02     		.2byte	0x2ef
 5905 0907 0F010000 		.4byte	0x10f
 5906 090b 04       		.byte	0x4
 5907 090c 0A       		.uleb128 0xa
 5908 090d B9300000 		.4byte	.LASF130
 5909 0911 0C       		.byte	0xc
 5910 0912 F002     		.2byte	0x2f0
 5911 0914 0F010000 		.4byte	0x10f
 5912 0918 08       		.byte	0x8
 5913 0919 0A       		.uleb128 0xa
 5914 091a 3A0E0000 		.4byte	.LASF131
 5915 091e 0C       		.byte	0xc
 5916 091f F102     		.2byte	0x2f1
 5917 0921 0F010000 		.4byte	0x10f
 5918 0925 0C       		.byte	0xc
 5919 0926 09       		.uleb128 0x9
 5920 0927 535200   		.ascii	"SR\000"
 5921 092a 0C       		.byte	0xc
 5922 092b F202     		.2byte	0x2f2
 5923 092d 0F010000 		.4byte	0x10f
 5924 0931 10       		.byte	0x10
 5925 0932 09       		.uleb128 0x9
 5926 0933 45475200 		.ascii	"EGR\000"
 5927 0937 0C       		.byte	0xc
 5928 0938 F302     		.2byte	0x2f3
 5929 093a 0F010000 		.4byte	0x10f
 5930 093e 14       		.byte	0x14
ARM GAS  /tmp/ccHCUo6g.s 			page 120


 5931 093f 0A       		.uleb128 0xa
 5932 0940 D5370000 		.4byte	.LASF132
 5933 0944 0C       		.byte	0xc
 5934 0945 F402     		.2byte	0x2f4
 5935 0947 0F010000 		.4byte	0x10f
 5936 094b 18       		.byte	0x18
 5937 094c 0A       		.uleb128 0xa
 5938 094d DB370000 		.4byte	.LASF133
 5939 0951 0C       		.byte	0xc
 5940 0952 F502     		.2byte	0x2f5
 5941 0954 0F010000 		.4byte	0x10f
 5942 0958 1C       		.byte	0x1c
 5943 0959 0A       		.uleb128 0xa
 5944 095a 910A0000 		.4byte	.LASF134
 5945 095e 0C       		.byte	0xc
 5946 095f F602     		.2byte	0x2f6
 5947 0961 0F010000 		.4byte	0x10f
 5948 0965 20       		.byte	0x20
 5949 0966 09       		.uleb128 0x9
 5950 0967 434E5400 		.ascii	"CNT\000"
 5951 096b 0C       		.byte	0xc
 5952 096c F702     		.2byte	0x2f7
 5953 096e 0F010000 		.4byte	0x10f
 5954 0972 24       		.byte	0x24
 5955 0973 09       		.uleb128 0x9
 5956 0974 50534300 		.ascii	"PSC\000"
 5957 0978 0C       		.byte	0xc
 5958 0979 F802     		.2byte	0x2f8
 5959 097b 0F010000 		.4byte	0x10f
 5960 097f 28       		.byte	0x28
 5961 0980 09       		.uleb128 0x9
 5962 0981 41525200 		.ascii	"ARR\000"
 5963 0985 0C       		.byte	0xc
 5964 0986 F902     		.2byte	0x2f9
 5965 0988 0F010000 		.4byte	0x10f
 5966 098c 2C       		.byte	0x2c
 5967 098d 09       		.uleb128 0x9
 5968 098e 52435200 		.ascii	"RCR\000"
 5969 0992 0C       		.byte	0xc
 5970 0993 FA02     		.2byte	0x2fa
 5971 0995 0F010000 		.4byte	0x10f
 5972 0999 30       		.byte	0x30
 5973 099a 0A       		.uleb128 0xa
 5974 099b 45180000 		.4byte	.LASF135
 5975 099f 0C       		.byte	0xc
 5976 09a0 FB02     		.2byte	0x2fb
 5977 09a2 0F010000 		.4byte	0x10f
 5978 09a6 34       		.byte	0x34
 5979 09a7 0A       		.uleb128 0xa
 5980 09a8 4A180000 		.4byte	.LASF136
 5981 09ac 0C       		.byte	0xc
 5982 09ad FC02     		.2byte	0x2fc
 5983 09af 0F010000 		.4byte	0x10f
 5984 09b3 38       		.byte	0x38
 5985 09b4 0A       		.uleb128 0xa
 5986 09b5 4F180000 		.4byte	.LASF137
 5987 09b9 0C       		.byte	0xc
ARM GAS  /tmp/ccHCUo6g.s 			page 121


 5988 09ba FD02     		.2byte	0x2fd
 5989 09bc 0F010000 		.4byte	0x10f
 5990 09c0 3C       		.byte	0x3c
 5991 09c1 0A       		.uleb128 0xa
 5992 09c2 54180000 		.4byte	.LASF138
 5993 09c6 0C       		.byte	0xc
 5994 09c7 FE02     		.2byte	0x2fe
 5995 09c9 0F010000 		.4byte	0x10f
 5996 09cd 40       		.byte	0x40
 5997 09ce 0A       		.uleb128 0xa
 5998 09cf 30030000 		.4byte	.LASF139
 5999 09d3 0C       		.byte	0xc
 6000 09d4 FF02     		.2byte	0x2ff
 6001 09d6 0F010000 		.4byte	0x10f
 6002 09da 44       		.byte	0x44
 6003 09db 09       		.uleb128 0x9
 6004 09dc 44435200 		.ascii	"DCR\000"
 6005 09e0 0C       		.byte	0xc
 6006 09e1 0003     		.2byte	0x300
 6007 09e3 0F010000 		.4byte	0x10f
 6008 09e7 48       		.byte	0x48
 6009 09e8 0A       		.uleb128 0xa
 6010 09e9 17210000 		.4byte	.LASF140
 6011 09ed 0C       		.byte	0xc
 6012 09ee 0103     		.2byte	0x301
 6013 09f0 0F010000 		.4byte	0x10f
 6014 09f4 4C       		.byte	0x4c
 6015 09f5 09       		.uleb128 0x9
 6016 09f6 4F5200   		.ascii	"OR\000"
 6017 09f9 0C       		.byte	0xc
 6018 09fa 0203     		.2byte	0x302
 6019 09fc 0F010000 		.4byte	0x10f
 6020 0a00 50       		.byte	0x50
 6021 0a01 00       		.byte	0
 6022 0a02 18       		.uleb128 0x18
 6023 0a03 4E1C0000 		.4byte	.LASF141
 6024 0a07 0C       		.byte	0xc
 6025 0a08 0303     		.2byte	0x303
 6026 0a0a E9080000 		.4byte	0x8e9
 6027 0a0e 17       		.uleb128 0x17
 6028 0a0f 1C       		.byte	0x1c
 6029 0a10 0C       		.byte	0xc
 6030 0a11 0903     		.2byte	0x309
 6031 0a13 710A0000 		.4byte	0xa71
 6032 0a17 09       		.uleb128 0x9
 6033 0a18 535200   		.ascii	"SR\000"
 6034 0a1b 0C       		.byte	0xc
 6035 0a1c 0B03     		.2byte	0x30b
 6036 0a1e 0F010000 		.4byte	0x10f
 6037 0a22 00       		.byte	0
 6038 0a23 09       		.uleb128 0x9
 6039 0a24 445200   		.ascii	"DR\000"
 6040 0a27 0C       		.byte	0xc
 6041 0a28 0C03     		.2byte	0x30c
 6042 0a2a 0F010000 		.4byte	0x10f
 6043 0a2e 04       		.byte	0x4
 6044 0a2f 09       		.uleb128 0x9
ARM GAS  /tmp/ccHCUo6g.s 			page 122


 6045 0a30 42525200 		.ascii	"BRR\000"
 6046 0a34 0C       		.byte	0xc
 6047 0a35 0D03     		.2byte	0x30d
 6048 0a37 0F010000 		.4byte	0x10f
 6049 0a3b 08       		.byte	0x8
 6050 0a3c 09       		.uleb128 0x9
 6051 0a3d 43523100 		.ascii	"CR1\000"
 6052 0a41 0C       		.byte	0xc
 6053 0a42 0E03     		.2byte	0x30e
 6054 0a44 0F010000 		.4byte	0x10f
 6055 0a48 0C       		.byte	0xc
 6056 0a49 09       		.uleb128 0x9
 6057 0a4a 43523200 		.ascii	"CR2\000"
 6058 0a4e 0C       		.byte	0xc
 6059 0a4f 0F03     		.2byte	0x30f
 6060 0a51 0F010000 		.4byte	0x10f
 6061 0a55 10       		.byte	0x10
 6062 0a56 09       		.uleb128 0x9
 6063 0a57 43523300 		.ascii	"CR3\000"
 6064 0a5b 0C       		.byte	0xc
 6065 0a5c 1003     		.2byte	0x310
 6066 0a5e 0F010000 		.4byte	0x10f
 6067 0a62 14       		.byte	0x14
 6068 0a63 0A       		.uleb128 0xa
 6069 0a64 4B370000 		.4byte	.LASF142
 6070 0a68 0C       		.byte	0xc
 6071 0a69 1103     		.2byte	0x311
 6072 0a6b 0F010000 		.4byte	0x10f
 6073 0a6f 18       		.byte	0x18
 6074 0a70 00       		.byte	0
 6075 0a71 18       		.uleb128 0x18
 6076 0a72 C0380000 		.4byte	.LASF143
 6077 0a76 0C       		.byte	0xc
 6078 0a77 1203     		.2byte	0x312
 6079 0a79 0E0A0000 		.4byte	0xa0e
 6080 0a7d 11       		.uleb128 0x11
 6081 0a7e 0F010000 		.4byte	0x10f
 6082 0a82 8D0A0000 		.4byte	0xa8d
 6083 0a86 12       		.uleb128 0x12
 6084 0a87 48000000 		.4byte	0x48
 6085 0a8b 0E       		.byte	0xe
 6086 0a8c 00       		.byte	0
 6087 0a8d 04       		.uleb128 0x4
 6088 0a8e 7D0A0000 		.4byte	0xa7d
 6089 0a92 05       		.uleb128 0x5
 6090 0a93 B4240000 		.4byte	.LASF144
 6091 0a97 0D       		.byte	0xd
 6092 0a98 65       		.byte	0x65
 6093 0a99 95030000 		.4byte	0x395
 6094 0a9d 05       		.uleb128 0x5
 6095 0a9e CB0C0000 		.4byte	.LASF145
 6096 0aa2 0D       		.byte	0xd
 6097 0aa3 6D       		.byte	0x6d
 6098 0aa4 14010000 		.4byte	0x114
 6099 0aa8 07       		.uleb128 0x7
 6100 0aa9 9D230000 		.4byte	.LASF146
 6101 0aad 04       		.byte	0x4
ARM GAS  /tmp/ccHCUo6g.s 			page 123


 6102 0aae 0D       		.byte	0xd
 6103 0aaf 89       		.byte	0x89
 6104 0ab0 C10A0000 		.4byte	0xac1
 6105 0ab4 16       		.uleb128 0x16
 6106 0ab5 72313300 		.ascii	"r13\000"
 6107 0ab9 0D       		.byte	0xd
 6108 0aba 8A       		.byte	0x8a
 6109 0abb 020C0000 		.4byte	0xc02
 6110 0abf 00       		.byte	0
 6111 0ac0 00       		.byte	0
 6112 0ac1 07       		.uleb128 0x7
 6113 0ac2 18000000 		.4byte	.LASF147
 6114 0ac6 64       		.byte	0x64
 6115 0ac7 0E       		.byte	0xe
 6116 0ac8 F4       		.byte	0xf4
 6117 0ac9 020C0000 		.4byte	0xc02
 6118 0acd 16       		.uleb128 0x16
 6119 0ace 73313600 		.ascii	"s16\000"
 6120 0ad2 0E       		.byte	0xe
 6121 0ad3 F6       		.byte	0xf6
 6122 0ad4 920A0000 		.4byte	0xa92
 6123 0ad8 00       		.byte	0
 6124 0ad9 16       		.uleb128 0x16
 6125 0ada 73313700 		.ascii	"s17\000"
 6126 0ade 0E       		.byte	0xe
 6127 0adf F7       		.byte	0xf7
 6128 0ae0 920A0000 		.4byte	0xa92
 6129 0ae4 04       		.byte	0x4
 6130 0ae5 16       		.uleb128 0x16
 6131 0ae6 73313800 		.ascii	"s18\000"
 6132 0aea 0E       		.byte	0xe
 6133 0aeb F8       		.byte	0xf8
 6134 0aec 920A0000 		.4byte	0xa92
 6135 0af0 08       		.byte	0x8
 6136 0af1 16       		.uleb128 0x16
 6137 0af2 73313900 		.ascii	"s19\000"
 6138 0af6 0E       		.byte	0xe
 6139 0af7 F9       		.byte	0xf9
 6140 0af8 920A0000 		.4byte	0xa92
 6141 0afc 0C       		.byte	0xc
 6142 0afd 16       		.uleb128 0x16
 6143 0afe 73323000 		.ascii	"s20\000"
 6144 0b02 0E       		.byte	0xe
 6145 0b03 FA       		.byte	0xfa
 6146 0b04 920A0000 		.4byte	0xa92
 6147 0b08 10       		.byte	0x10
 6148 0b09 16       		.uleb128 0x16
 6149 0b0a 73323100 		.ascii	"s21\000"
 6150 0b0e 0E       		.byte	0xe
 6151 0b0f FB       		.byte	0xfb
 6152 0b10 920A0000 		.4byte	0xa92
 6153 0b14 14       		.byte	0x14
 6154 0b15 16       		.uleb128 0x16
 6155 0b16 73323200 		.ascii	"s22\000"
 6156 0b1a 0E       		.byte	0xe
 6157 0b1b FC       		.byte	0xfc
 6158 0b1c 920A0000 		.4byte	0xa92
ARM GAS  /tmp/ccHCUo6g.s 			page 124


 6159 0b20 18       		.byte	0x18
 6160 0b21 16       		.uleb128 0x16
 6161 0b22 73323300 		.ascii	"s23\000"
 6162 0b26 0E       		.byte	0xe
 6163 0b27 FD       		.byte	0xfd
 6164 0b28 920A0000 		.4byte	0xa92
 6165 0b2c 1C       		.byte	0x1c
 6166 0b2d 16       		.uleb128 0x16
 6167 0b2e 73323400 		.ascii	"s24\000"
 6168 0b32 0E       		.byte	0xe
 6169 0b33 FE       		.byte	0xfe
 6170 0b34 920A0000 		.4byte	0xa92
 6171 0b38 20       		.byte	0x20
 6172 0b39 16       		.uleb128 0x16
 6173 0b3a 73323500 		.ascii	"s25\000"
 6174 0b3e 0E       		.byte	0xe
 6175 0b3f FF       		.byte	0xff
 6176 0b40 920A0000 		.4byte	0xa92
 6177 0b44 24       		.byte	0x24
 6178 0b45 09       		.uleb128 0x9
 6179 0b46 73323600 		.ascii	"s26\000"
 6180 0b4a 0E       		.byte	0xe
 6181 0b4b 0001     		.2byte	0x100
 6182 0b4d 920A0000 		.4byte	0xa92
 6183 0b51 28       		.byte	0x28
 6184 0b52 09       		.uleb128 0x9
 6185 0b53 73323700 		.ascii	"s27\000"
 6186 0b57 0E       		.byte	0xe
 6187 0b58 0101     		.2byte	0x101
 6188 0b5a 920A0000 		.4byte	0xa92
 6189 0b5e 2C       		.byte	0x2c
 6190 0b5f 09       		.uleb128 0x9
 6191 0b60 73323800 		.ascii	"s28\000"
 6192 0b64 0E       		.byte	0xe
 6193 0b65 0201     		.2byte	0x102
 6194 0b67 920A0000 		.4byte	0xa92
 6195 0b6b 30       		.byte	0x30
 6196 0b6c 09       		.uleb128 0x9
 6197 0b6d 73323900 		.ascii	"s29\000"
 6198 0b71 0E       		.byte	0xe
 6199 0b72 0301     		.2byte	0x103
 6200 0b74 920A0000 		.4byte	0xa92
 6201 0b78 34       		.byte	0x34
 6202 0b79 09       		.uleb128 0x9
 6203 0b7a 73333000 		.ascii	"s30\000"
 6204 0b7e 0E       		.byte	0xe
 6205 0b7f 0401     		.2byte	0x104
 6206 0b81 920A0000 		.4byte	0xa92
 6207 0b85 38       		.byte	0x38
 6208 0b86 09       		.uleb128 0x9
 6209 0b87 73333100 		.ascii	"s31\000"
 6210 0b8b 0E       		.byte	0xe
 6211 0b8c 0501     		.2byte	0x105
 6212 0b8e 920A0000 		.4byte	0xa92
 6213 0b92 3C       		.byte	0x3c
 6214 0b93 09       		.uleb128 0x9
 6215 0b94 723400   		.ascii	"r4\000"
ARM GAS  /tmp/ccHCUo6g.s 			page 125


 6216 0b97 0E       		.byte	0xe
 6217 0b98 0701     		.2byte	0x107
 6218 0b9a 920A0000 		.4byte	0xa92
 6219 0b9e 40       		.byte	0x40
 6220 0b9f 09       		.uleb128 0x9
 6221 0ba0 723500   		.ascii	"r5\000"
 6222 0ba3 0E       		.byte	0xe
 6223 0ba4 0801     		.2byte	0x108
 6224 0ba6 920A0000 		.4byte	0xa92
 6225 0baa 44       		.byte	0x44
 6226 0bab 09       		.uleb128 0x9
 6227 0bac 723600   		.ascii	"r6\000"
 6228 0baf 0E       		.byte	0xe
 6229 0bb0 0901     		.2byte	0x109
 6230 0bb2 920A0000 		.4byte	0xa92
 6231 0bb6 48       		.byte	0x48
 6232 0bb7 09       		.uleb128 0x9
 6233 0bb8 723700   		.ascii	"r7\000"
 6234 0bbb 0E       		.byte	0xe
 6235 0bbc 0A01     		.2byte	0x10a
 6236 0bbe 920A0000 		.4byte	0xa92
 6237 0bc2 4C       		.byte	0x4c
 6238 0bc3 09       		.uleb128 0x9
 6239 0bc4 723800   		.ascii	"r8\000"
 6240 0bc7 0E       		.byte	0xe
 6241 0bc8 0B01     		.2byte	0x10b
 6242 0bca 920A0000 		.4byte	0xa92
 6243 0bce 50       		.byte	0x50
 6244 0bcf 09       		.uleb128 0x9
 6245 0bd0 723900   		.ascii	"r9\000"
 6246 0bd3 0E       		.byte	0xe
 6247 0bd4 0C01     		.2byte	0x10c
 6248 0bd6 920A0000 		.4byte	0xa92
 6249 0bda 54       		.byte	0x54
 6250 0bdb 09       		.uleb128 0x9
 6251 0bdc 72313000 		.ascii	"r10\000"
 6252 0be0 0E       		.byte	0xe
 6253 0be1 0D01     		.2byte	0x10d
 6254 0be3 920A0000 		.4byte	0xa92
 6255 0be7 58       		.byte	0x58
 6256 0be8 09       		.uleb128 0x9
 6257 0be9 72313100 		.ascii	"r11\000"
 6258 0bed 0E       		.byte	0xe
 6259 0bee 0E01     		.2byte	0x10e
 6260 0bf0 920A0000 		.4byte	0xa92
 6261 0bf4 5C       		.byte	0x5c
 6262 0bf5 09       		.uleb128 0x9
 6263 0bf6 6C7200   		.ascii	"lr\000"
 6264 0bf9 0E       		.byte	0xe
 6265 0bfa 0F01     		.2byte	0x10f
 6266 0bfc 920A0000 		.4byte	0xa92
 6267 0c00 60       		.byte	0x60
 6268 0c01 00       		.byte	0
 6269 0c02 0B       		.uleb128 0xb
 6270 0c03 04       		.byte	0x4
 6271 0c04 C10A0000 		.4byte	0xac1
 6272 0c08 15       		.uleb128 0x15
ARM GAS  /tmp/ccHCUo6g.s 			page 126


 6273 0c09 04       		.byte	0x4
 6274 0c0a 0F       		.byte	0xf
 6275 0c0b 38       		.byte	0x38
 6276 0c0c 1D0C0000 		.4byte	0xc1d
 6277 0c10 08       		.uleb128 0x8
 6278 0c11 06300000 		.4byte	.LASF148
 6279 0c15 0F       		.byte	0xf
 6280 0c16 3C       		.byte	0x3c
 6281 0c17 1F010000 		.4byte	0x11f
 6282 0c1b 00       		.byte	0
 6283 0c1c 00       		.byte	0
 6284 0c1d 05       		.uleb128 0x5
 6285 0c1e 0E370000 		.4byte	.LASF149
 6286 0c22 0F       		.byte	0xf
 6287 0c23 3D       		.byte	0x3d
 6288 0c24 080C0000 		.4byte	0xc08
 6289 0c28 1C       		.uleb128 0x1c
 6290 0c29 04       		.byte	0x4
 6291 0c2a 09       		.byte	0x9
 6292 0c2b FA       		.byte	0xfa
 6293 0c2c 850C0000 		.4byte	0xc85
 6294 0c30 1D       		.uleb128 0x1d
 6295 0c31 25190000 		.4byte	.LASF150
 6296 0c35 09       		.byte	0x9
 6297 0c36 0101     		.2byte	0x101
 6298 0c38 61010000 		.4byte	0x161
 6299 0c3c 1D       		.uleb128 0x1d
 6300 0c3d BE150000 		.4byte	.LASF151
 6301 0c41 09       		.byte	0x9
 6302 0c42 0801     		.2byte	0x108
 6303 0c44 61010000 		.4byte	0x161
 6304 0c48 1D       		.uleb128 0x1d
 6305 0c49 1B2B0000 		.4byte	.LASF152
 6306 0c4d 09       		.byte	0x9
 6307 0c4e 0F01     		.2byte	0x10f
 6308 0c50 95030000 		.4byte	0x395
 6309 0c54 1D       		.uleb128 0x1d
 6310 0c55 8F230000 		.4byte	.LASF153
 6311 0c59 09       		.byte	0x9
 6312 0c5a 1601     		.2byte	0x116
 6313 0c5c 850C0000 		.4byte	0xc85
 6314 0c60 1D       		.uleb128 0x1d
 6315 0c61 8E010000 		.4byte	.LASF154
 6316 0c65 09       		.byte	0x9
 6317 0c66 1E01     		.2byte	0x11e
 6318 0c68 B00C0000 		.4byte	0xcb0
 6319 0c6c 1D       		.uleb128 0x1d
 6320 0c6d 7D2B0000 		.4byte	.LASF155
 6321 0c71 09       		.byte	0x9
 6322 0c72 2701     		.2byte	0x127
 6323 0c74 E70C0000 		.4byte	0xce7
 6324 0c78 1D       		.uleb128 0x1d
 6325 0c79 12310000 		.4byte	.LASF156
 6326 0c7d 09       		.byte	0x9
 6327 0c7e 2F01     		.2byte	0x12f
 6328 0c80 6C010000 		.4byte	0x16c
 6329 0c84 00       		.byte	0
ARM GAS  /tmp/ccHCUo6g.s 			page 127


 6330 0c85 0B       		.uleb128 0xb
 6331 0c86 04       		.byte	0x4
 6332 0c87 AD020000 		.4byte	0x2ad
 6333 0c8b 07       		.uleb128 0x7
 6334 0c8c 92210000 		.4byte	.LASF157
 6335 0c90 0C       		.byte	0xc
 6336 0c91 10       		.byte	0x10
 6337 0c92 34       		.byte	0x34
 6338 0c93 B00C0000 		.4byte	0xcb0
 6339 0c97 08       		.uleb128 0x8
 6340 0c98 A0330000 		.4byte	.LASF158
 6341 0c9c 10       		.byte	0x10
 6342 0c9d 35       		.byte	0x35
 6343 0c9e E2020000 		.4byte	0x2e2
 6344 0ca2 00       		.byte	0
 6345 0ca3 08       		.uleb128 0x8
 6346 0ca4 6C0D0000 		.4byte	.LASF159
 6347 0ca8 10       		.byte	0x10
 6348 0ca9 37       		.byte	0x37
 6349 0caa 82010000 		.4byte	0x182
 6350 0cae 08       		.byte	0x8
 6351 0caf 00       		.byte	0
 6352 0cb0 0B       		.uleb128 0xb
 6353 0cb1 04       		.byte	0x4
 6354 0cb2 8B0C0000 		.4byte	0xc8b
 6355 0cb6 07       		.uleb128 0x7
 6356 0cb7 41100000 		.4byte	.LASF160
 6357 0cbb 10       		.byte	0x10
 6358 0cbc 11       		.byte	0x11
 6359 0cbd 39       		.byte	0x39
 6360 0cbe E70C0000 		.4byte	0xce7
 6361 0cc2 08       		.uleb128 0x8
 6362 0cc3 E8220000 		.4byte	.LASF161
 6363 0cc7 11       		.byte	0x11
 6364 0cc8 3A       		.byte	0x3a
 6365 0cc9 E2020000 		.4byte	0x2e2
 6366 0ccd 00       		.byte	0
 6367 0cce 08       		.uleb128 0x8
 6368 0ccf 99200000 		.4byte	.LASF162
 6369 0cd3 11       		.byte	0x11
 6370 0cd4 3C       		.byte	0x3c
 6371 0cd5 B8020000 		.4byte	0x2b8
 6372 0cd9 08       		.byte	0x8
 6373 0cda 08       		.uleb128 0x8
 6374 0cdb A5020000 		.4byte	.LASF163
 6375 0cdf 11       		.byte	0x11
 6376 0ce0 3E       		.byte	0x3e
 6377 0ce1 3C0E0000 		.4byte	0xe3c
 6378 0ce5 0C       		.byte	0xc
 6379 0ce6 00       		.byte	0
 6380 0ce7 0B       		.uleb128 0xb
 6381 0ce8 04       		.byte	0x4
 6382 0ce9 B60C0000 		.4byte	0xcb6
 6383 0ced 0B       		.uleb128 0xb
 6384 0cee 04       		.byte	0x4
 6385 0cef FF0C0000 		.4byte	0xcff
 6386 0cf3 04       		.uleb128 0x4
ARM GAS  /tmp/ccHCUo6g.s 			page 128


 6387 0cf4 ED0C0000 		.4byte	0xced
 6388 0cf8 02       		.uleb128 0x2
 6389 0cf9 01       		.byte	0x1
 6390 0cfa 08       		.byte	0x8
 6391 0cfb 70260000 		.4byte	.LASF164
 6392 0cff 06       		.uleb128 0x6
 6393 0d00 F80C0000 		.4byte	0xcf8
 6394 0d04 0B       		.uleb128 0xb
 6395 0d05 04       		.byte	0x4
 6396 0d06 97030000 		.4byte	0x397
 6397 0d0a 11       		.uleb128 0x11
 6398 0d0b 9D0A0000 		.4byte	0xa9d
 6399 0d0f 1A0D0000 		.4byte	0xd1a
 6400 0d13 12       		.uleb128 0x12
 6401 0d14 48000000 		.4byte	0x48
 6402 0d18 3A       		.byte	0x3a
 6403 0d19 00       		.byte	0
 6404 0d1a 1E       		.uleb128 0x1e
 6405 0d1b 636800   		.ascii	"ch\000"
 6406 0d1e 09       		.byte	0x9
 6407 0d1f 0902     		.2byte	0x209
 6408 0d21 64040000 		.4byte	0x464
 6409 0d25 15       		.uleb128 0x15
 6410 0d26 16       		.byte	0x16
 6411 0d27 12       		.byte	0x12
 6412 0d28 34       		.byte	0x34
 6413 0d29 060E0000 		.4byte	0xe06
 6414 0d2d 08       		.uleb128 0x8
 6415 0d2e E7330000 		.4byte	.LASF165
 6416 0d32 12       		.byte	0x12
 6417 0d33 35       		.byte	0x35
 6418 0d34 060E0000 		.4byte	0xe06
 6419 0d38 00       		.byte	0
 6420 0d39 08       		.uleb128 0x8
 6421 0d3a 62370000 		.4byte	.LASF166
 6422 0d3e 12       		.byte	0x12
 6423 0d3f 36       		.byte	0x36
 6424 0d40 D4000000 		.4byte	0xd4
 6425 0d44 04       		.byte	0x4
 6426 0d45 08       		.uleb128 0x8
 6427 0d46 B4040000 		.4byte	.LASF167
 6428 0d4a 12       		.byte	0x12
 6429 0d4b 37       		.byte	0x37
 6430 0d4c D4000000 		.4byte	0xd4
 6431 0d50 05       		.byte	0x5
 6432 0d51 08       		.uleb128 0x8
 6433 0d52 D4200000 		.4byte	.LASF168
 6434 0d56 12       		.byte	0x12
 6435 0d57 38       		.byte	0x38
 6436 0d58 E4000000 		.4byte	0xe4
 6437 0d5c 06       		.byte	0x6
 6438 0d5d 08       		.uleb128 0x8
 6439 0d5e 36000000 		.4byte	.LASF169
 6440 0d62 12       		.byte	0x12
 6441 0d63 39       		.byte	0x39
 6442 0d64 D4000000 		.4byte	0xd4
 6443 0d68 08       		.byte	0x8
ARM GAS  /tmp/ccHCUo6g.s 			page 129


 6444 0d69 08       		.uleb128 0x8
 6445 0d6a B71E0000 		.4byte	.LASF170
 6446 0d6e 12       		.byte	0x12
 6447 0d6f 3A       		.byte	0x3a
 6448 0d70 D4000000 		.4byte	0xd4
 6449 0d74 09       		.byte	0x9
 6450 0d75 08       		.uleb128 0x8
 6451 0d76 87370000 		.4byte	.LASF171
 6452 0d7a 12       		.byte	0x12
 6453 0d7b 3B       		.byte	0x3b
 6454 0d7c D4000000 		.4byte	0xd4
 6455 0d80 0A       		.byte	0xa
 6456 0d81 08       		.uleb128 0x8
 6457 0d82 2D340000 		.4byte	.LASF172
 6458 0d86 12       		.byte	0x12
 6459 0d87 3C       		.byte	0x3c
 6460 0d88 D4000000 		.4byte	0xd4
 6461 0d8c 0B       		.byte	0xb
 6462 0d8d 08       		.uleb128 0x8
 6463 0d8e 14080000 		.4byte	.LASF173
 6464 0d92 12       		.byte	0x12
 6465 0d93 3D       		.byte	0x3d
 6466 0d94 D4000000 		.4byte	0xd4
 6467 0d98 0C       		.byte	0xc
 6468 0d99 08       		.uleb128 0x8
 6469 0d9a F0110000 		.4byte	.LASF174
 6470 0d9e 12       		.byte	0x12
 6471 0d9f 3E       		.byte	0x3e
 6472 0da0 D4000000 		.4byte	0xd4
 6473 0da4 0D       		.byte	0xd
 6474 0da5 08       		.uleb128 0x8
 6475 0da6 5A080000 		.4byte	.LASF175
 6476 0daa 12       		.byte	0x12
 6477 0dab 3F       		.byte	0x3f
 6478 0dac D4000000 		.4byte	0xd4
 6479 0db0 0E       		.byte	0xe
 6480 0db1 08       		.uleb128 0x8
 6481 0db2 2F150000 		.4byte	.LASF176
 6482 0db6 12       		.byte	0x12
 6483 0db7 40       		.byte	0x40
 6484 0db8 D4000000 		.4byte	0xd4
 6485 0dbc 0F       		.byte	0xf
 6486 0dbd 08       		.uleb128 0x8
 6487 0dbe 21060000 		.4byte	.LASF177
 6488 0dc2 12       		.byte	0x12
 6489 0dc3 41       		.byte	0x41
 6490 0dc4 D4000000 		.4byte	0xd4
 6491 0dc8 10       		.byte	0x10
 6492 0dc9 08       		.uleb128 0x8
 6493 0dca 510C0000 		.4byte	.LASF178
 6494 0dce 12       		.byte	0x12
 6495 0dcf 43       		.byte	0x43
 6496 0dd0 D4000000 		.4byte	0xd4
 6497 0dd4 11       		.byte	0x11
 6498 0dd5 08       		.uleb128 0x8
 6499 0dd6 39040000 		.4byte	.LASF179
 6500 0dda 12       		.byte	0x12
ARM GAS  /tmp/ccHCUo6g.s 			page 130


 6501 0ddb 44       		.byte	0x44
 6502 0ddc D4000000 		.4byte	0xd4
 6503 0de0 12       		.byte	0x12
 6504 0de1 08       		.uleb128 0x8
 6505 0de2 78200000 		.4byte	.LASF180
 6506 0de6 12       		.byte	0x12
 6507 0de7 45       		.byte	0x45
 6508 0de8 D4000000 		.4byte	0xd4
 6509 0dec 13       		.byte	0x13
 6510 0ded 08       		.uleb128 0x8
 6511 0dee B8290000 		.4byte	.LASF181
 6512 0df2 12       		.byte	0x12
 6513 0df3 46       		.byte	0x46
 6514 0df4 D4000000 		.4byte	0xd4
 6515 0df8 14       		.byte	0x14
 6516 0df9 08       		.uleb128 0x8
 6517 0dfa 6C010000 		.4byte	.LASF182
 6518 0dfe 12       		.byte	0x12
 6519 0dff 48       		.byte	0x48
 6520 0e00 D4000000 		.4byte	0xd4
 6521 0e04 15       		.byte	0x15
 6522 0e05 00       		.byte	0
 6523 0e06 11       		.uleb128 0x11
 6524 0e07 F80C0000 		.4byte	0xcf8
 6525 0e0b 160E0000 		.4byte	0xe16
 6526 0e0f 12       		.uleb128 0x12
 6527 0e10 48000000 		.4byte	0x48
 6528 0e14 03       		.byte	0x3
 6529 0e15 00       		.byte	0
 6530 0e16 05       		.uleb128 0x5
 6531 0e17 191E0000 		.4byte	.LASF183
 6532 0e1b 12       		.byte	0x12
 6533 0e1c 49       		.byte	0x49
 6534 0e1d 250D0000 		.4byte	0xd25
 6535 0e21 06       		.uleb128 0x6
 6536 0e22 160E0000 		.4byte	0xe16
 6537 0e26 14       		.uleb128 0x14
 6538 0e27 5A0F0000 		.4byte	.LASF184
 6539 0e2b 12       		.byte	0x12
 6540 0e2c 6E       		.byte	0x6e
 6541 0e2d 210E0000 		.4byte	0xe21
 6542 0e31 05       		.uleb128 0x5
 6543 0e32 AE2D0000 		.4byte	.LASF185
 6544 0e36 11       		.byte	0x11
 6545 0e37 34       		.byte	0x34
 6546 0e38 B60C0000 		.4byte	0xcb6
 6547 0e3c 0B       		.uleb128 0xb
 6548 0e3d 04       		.byte	0x4
 6549 0e3e 310E0000 		.4byte	0xe31
 6550 0e42 05       		.uleb128 0x5
 6551 0e43 D60F0000 		.4byte	.LASF186
 6552 0e47 13       		.byte	0x13
 6553 0e48 34       		.byte	0x34
 6554 0e49 4D0E0000 		.4byte	0xe4d
 6555 0e4d 07       		.uleb128 0x7
 6556 0e4e 460D0000 		.4byte	.LASF187
 6557 0e52 14       		.byte	0x14
ARM GAS  /tmp/ccHCUo6g.s 			page 131


 6558 0e53 13       		.byte	0x13
 6559 0e54 39       		.byte	0x39
 6560 0e55 960E0000 		.4byte	0xe96
 6561 0e59 08       		.uleb128 0x8
 6562 0e5a BC030000 		.4byte	.LASF188
 6563 0e5e 13       		.byte	0x13
 6564 0e5f 3A       		.byte	0x3a
 6565 0e60 960E0000 		.4byte	0xe96
 6566 0e64 00       		.byte	0
 6567 0e65 08       		.uleb128 0x8
 6568 0e66 EC2E0000 		.4byte	.LASF189
 6569 0e6a 13       		.byte	0x13
 6570 0e6b 3D       		.byte	0x3d
 6571 0e6c B8020000 		.4byte	0x2b8
 6572 0e70 04       		.byte	0x4
 6573 0e71 08       		.uleb128 0x8
 6574 0e72 A3050000 		.4byte	.LASF190
 6575 0e76 13       		.byte	0x13
 6576 0e77 3F       		.byte	0x3f
 6577 0e78 6C010000 		.4byte	0x16c
 6578 0e7c 08       		.byte	0x8
 6579 0e7d 08       		.uleb128 0x8
 6580 0e7e 61310000 		.4byte	.LASF191
 6581 0e82 13       		.byte	0x13
 6582 0e83 41       		.byte	0x41
 6583 0e84 77010000 		.4byte	0x177
 6584 0e88 0C       		.byte	0xc
 6585 0e89 08       		.uleb128 0x8
 6586 0e8a A1150000 		.4byte	.LASF192
 6587 0e8e 13       		.byte	0x13
 6588 0e8f 43       		.byte	0x43
 6589 0e90 77010000 		.4byte	0x177
 6590 0e94 10       		.byte	0x10
 6591 0e95 00       		.byte	0
 6592 0e96 0B       		.uleb128 0xb
 6593 0e97 04       		.byte	0x4
 6594 0e98 420E0000 		.4byte	0xe42
 6595 0e9c 07       		.uleb128 0x7
 6596 0e9d 6A310000 		.4byte	.LASF193
 6597 0ea1 04       		.byte	0x4
 6598 0ea2 13       		.byte	0x13
 6599 0ea3 4A       		.byte	0x4a
 6600 0ea4 B50E0000 		.4byte	0xeb5
 6601 0ea8 08       		.uleb128 0x8
 6602 0ea9 64300000 		.4byte	.LASF194
 6603 0ead 13       		.byte	0x13
 6604 0eae 4B       		.byte	0x4b
 6605 0eaf 960E0000 		.4byte	0xe96
 6606 0eb3 00       		.byte	0
 6607 0eb4 00       		.byte	0
 6608 0eb5 05       		.uleb128 0x5
 6609 0eb6 DF1E0000 		.4byte	.LASF195
 6610 0eba 13       		.byte	0x13
 6611 0ebb 4E       		.byte	0x4e
 6612 0ebc 9C0E0000 		.4byte	0xe9c
 6613 0ec0 05       		.uleb128 0x5
 6614 0ec1 F0150000 		.4byte	.LASF196
ARM GAS  /tmp/ccHCUo6g.s 			page 132


 6615 0ec5 14       		.byte	0x14
 6616 0ec6 3F       		.byte	0x3f
 6617 0ec7 CB0E0000 		.4byte	0xecb
 6618 0ecb 07       		.uleb128 0x7
 6619 0ecc B3190000 		.4byte	.LASF197
 6620 0ed0 24       		.byte	0x24
 6621 0ed1 14       		.byte	0x14
 6622 0ed2 4D       		.byte	0x4d
 6623 0ed3 380F0000 		.4byte	0xf38
 6624 0ed7 08       		.uleb128 0x8
 6625 0ed8 DF070000 		.4byte	.LASF198
 6626 0edc 14       		.byte	0x14
 6627 0edd 4E       		.byte	0x4e
 6628 0ede E2020000 		.4byte	0x2e2
 6629 0ee2 00       		.byte	0
 6630 0ee3 08       		.uleb128 0x8
 6631 0ee4 0E2D0000 		.4byte	.LASF199
 6632 0ee8 14       		.byte	0x14
 6633 0ee9 4F       		.byte	0x4f
 6634 0eea 43000000 		.4byte	0x43
 6635 0eee 08       		.byte	0x8
 6636 0eef 08       		.uleb128 0x8
 6637 0ef0 861A0000 		.4byte	.LASF200
 6638 0ef4 14       		.byte	0x14
 6639 0ef5 50       		.byte	0x50
 6640 0ef6 5A0F0000 		.4byte	0xf5a
 6641 0efa 0C       		.byte	0xc
 6642 0efb 08       		.uleb128 0x8
 6643 0efc 0F070000 		.4byte	.LASF201
 6644 0f00 14       		.byte	0x14
 6645 0f01 51       		.byte	0x51
 6646 0f02 5A0F0000 		.4byte	0xf5a
 6647 0f06 10       		.byte	0x10
 6648 0f07 08       		.uleb128 0x8
 6649 0f08 78250000 		.4byte	.LASF202
 6650 0f0c 14       		.byte	0x14
 6651 0f0d 53       		.byte	0x53
 6652 0f0e 5A0F0000 		.4byte	0xf5a
 6653 0f12 14       		.byte	0x14
 6654 0f13 08       		.uleb128 0x8
 6655 0f14 95230000 		.4byte	.LASF203
 6656 0f18 14       		.byte	0x14
 6657 0f19 54       		.byte	0x54
 6658 0f1a 5A0F0000 		.4byte	0xf5a
 6659 0f1e 18       		.byte	0x18
 6660 0f1f 08       		.uleb128 0x8
 6661 0f20 742B0000 		.4byte	.LASF204
 6662 0f24 14       		.byte	0x14
 6663 0f25 55       		.byte	0x55
 6664 0f26 380F0000 		.4byte	0xf38
 6665 0f2a 1C       		.byte	0x1c
 6666 0f2b 08       		.uleb128 0x8
 6667 0f2c 0C270000 		.4byte	.LASF205
 6668 0f30 14       		.byte	0x14
 6669 0f31 56       		.byte	0x56
 6670 0f32 95030000 		.4byte	0x395
 6671 0f36 20       		.byte	0x20
ARM GAS  /tmp/ccHCUo6g.s 			page 133


 6672 0f37 00       		.byte	0
 6673 0f38 05       		.uleb128 0x5
 6674 0f39 DC060000 		.4byte	.LASF206
 6675 0f3d 14       		.byte	0x14
 6676 0f3e 42       		.byte	0x42
 6677 0f3f 430F0000 		.4byte	0xf43
 6678 0f43 0B       		.uleb128 0xb
 6679 0f44 04       		.byte	0x4
 6680 0f45 490F0000 		.4byte	0xf49
 6681 0f49 0D       		.uleb128 0xd
 6682 0f4a 540F0000 		.4byte	0xf54
 6683 0f4e 0E       		.uleb128 0xe
 6684 0f4f 540F0000 		.4byte	0xf54
 6685 0f53 00       		.byte	0
 6686 0f54 0B       		.uleb128 0xb
 6687 0f55 04       		.byte	0x4
 6688 0f56 C00E0000 		.4byte	0xec0
 6689 0f5a 0B       		.uleb128 0xb
 6690 0f5b 04       		.byte	0x4
 6691 0f5c D4000000 		.4byte	0xd4
 6692 0f60 05       		.uleb128 0x5
 6693 0f61 1F080000 		.4byte	.LASF207
 6694 0f65 14       		.byte	0x14
 6695 0f66 64       		.byte	0x64
 6696 0f67 C00E0000 		.4byte	0xec0
 6697 0f6b 05       		.uleb128 0x5
 6698 0f6c D9380000 		.4byte	.LASF208
 6699 0f70 14       		.byte	0x14
 6700 0f71 71       		.byte	0x71
 6701 0f72 C00E0000 		.4byte	0xec0
 6702 0f76 1F       		.uleb128 0x1f
 6703 0f77 38000000 		.4byte	0x38
 6704 0f7b 8F0F0000 		.4byte	0xf8f
 6705 0f7f 0E       		.uleb128 0xe
 6706 0f80 95030000 		.4byte	0x395
 6707 0f84 0E       		.uleb128 0xe
 6708 0f85 8F0F0000 		.4byte	0xf8f
 6709 0f89 0E       		.uleb128 0xe
 6710 0f8a 38000000 		.4byte	0x38
 6711 0f8e 00       		.byte	0
 6712 0f8f 0B       		.uleb128 0xb
 6713 0f90 04       		.byte	0x4
 6714 0f91 DF000000 		.4byte	0xdf
 6715 0f95 0B       		.uleb128 0xb
 6716 0f96 04       		.byte	0x4
 6717 0f97 760F0000 		.4byte	0xf76
 6718 0f9b 1F       		.uleb128 0x1f
 6719 0f9c 38000000 		.4byte	0x38
 6720 0fa0 B40F0000 		.4byte	0xfb4
 6721 0fa4 0E       		.uleb128 0xe
 6722 0fa5 95030000 		.4byte	0x395
 6723 0fa9 0E       		.uleb128 0xe
 6724 0faa 5A0F0000 		.4byte	0xf5a
 6725 0fae 0E       		.uleb128 0xe
 6726 0faf 38000000 		.4byte	0x38
 6727 0fb3 00       		.byte	0
 6728 0fb4 0B       		.uleb128 0xb
ARM GAS  /tmp/ccHCUo6g.s 			page 134


 6729 0fb5 04       		.byte	0x4
 6730 0fb6 9B0F0000 		.4byte	0xf9b
 6731 0fba 1F       		.uleb128 0x1f
 6732 0fbb 61010000 		.4byte	0x161
 6733 0fbf CE0F0000 		.4byte	0xfce
 6734 0fc3 0E       		.uleb128 0xe
 6735 0fc4 95030000 		.4byte	0x395
 6736 0fc8 0E       		.uleb128 0xe
 6737 0fc9 D4000000 		.4byte	0xd4
 6738 0fcd 00       		.byte	0
 6739 0fce 0B       		.uleb128 0xb
 6740 0fcf 04       		.byte	0x4
 6741 0fd0 BA0F0000 		.4byte	0xfba
 6742 0fd4 1F       		.uleb128 0x1f
 6743 0fd5 61010000 		.4byte	0x161
 6744 0fd9 E30F0000 		.4byte	0xfe3
 6745 0fdd 0E       		.uleb128 0xe
 6746 0fde 95030000 		.4byte	0x395
 6747 0fe2 00       		.byte	0
 6748 0fe3 0B       		.uleb128 0xb
 6749 0fe4 04       		.byte	0x4
 6750 0fe5 D40F0000 		.4byte	0xfd4
 6751 0fe9 20       		.uleb128 0x20
 6752 0fea 07       		.byte	0x7
 6753 0feb 01       		.byte	0x1
 6754 0fec 6C000000 		.4byte	0x6c
 6755 0ff0 15       		.byte	0x15
 6756 0ff1 23       		.byte	0x23
 6757 0ff2 09100000 		.4byte	0x1009
 6758 0ff6 21       		.uleb128 0x21
 6759 0ff7 0D330000 		.4byte	.LASF209
 6760 0ffb 00       		.byte	0
 6761 0ffc 21       		.uleb128 0x21
 6762 0ffd EF250000 		.4byte	.LASF210
 6763 1001 01       		.byte	0x1
 6764 1002 21       		.uleb128 0x21
 6765 1003 8B060000 		.4byte	.LASF211
 6766 1007 02       		.byte	0x2
 6767 1008 00       		.byte	0
 6768 1009 05       		.uleb128 0x5
 6769 100a 9C060000 		.4byte	.LASF212
 6770 100e 15       		.byte	0x15
 6771 100f 27       		.byte	0x27
 6772 1010 E90F0000 		.4byte	0xfe9
 6773 1014 20       		.uleb128 0x20
 6774 1015 07       		.byte	0x7
 6775 1016 01       		.byte	0x1
 6776 1017 6C000000 		.4byte	0x6c
 6777 101b 15       		.byte	0x15
 6778 101c 29       		.byte	0x29
 6779 101d 2E100000 		.4byte	0x102e
 6780 1021 21       		.uleb128 0x21
 6781 1022 2A230000 		.4byte	.LASF213
 6782 1026 00       		.byte	0
 6783 1027 21       		.uleb128 0x21
 6784 1028 87390000 		.4byte	.LASF214
 6785 102c 01       		.byte	0x1
ARM GAS  /tmp/ccHCUo6g.s 			page 135


 6786 102d 00       		.byte	0
 6787 102e 05       		.uleb128 0x5
 6788 102f 30320000 		.4byte	.LASF215
 6789 1033 15       		.byte	0x15
 6790 1034 2C       		.byte	0x2c
 6791 1035 14100000 		.4byte	0x1014
 6792 1039 20       		.uleb128 0x20
 6793 103a 07       		.byte	0x7
 6794 103b 01       		.byte	0x1
 6795 103c 6C000000 		.4byte	0x6c
 6796 1040 15       		.byte	0x15
 6797 1041 2E       		.byte	0x2e
 6798 1042 59100000 		.4byte	0x1059
 6799 1046 21       		.uleb128 0x21
 6800 1047 8C2C0000 		.4byte	.LASF216
 6801 104b 00       		.byte	0
 6802 104c 21       		.uleb128 0x21
 6803 104d DB110000 		.4byte	.LASF217
 6804 1051 01       		.byte	0x1
 6805 1052 21       		.uleb128 0x21
 6806 1053 90130000 		.4byte	.LASF218
 6807 1057 02       		.byte	0x2
 6808 1058 00       		.byte	0
 6809 1059 05       		.uleb128 0x5
 6810 105a 5D220000 		.4byte	.LASF219
 6811 105e 15       		.byte	0x15
 6812 105f 32       		.byte	0x32
 6813 1060 39100000 		.4byte	0x1039
 6814 1064 20       		.uleb128 0x20
 6815 1065 07       		.byte	0x7
 6816 1066 01       		.byte	0x1
 6817 1067 6C000000 		.4byte	0x6c
 6818 106b 15       		.byte	0x15
 6819 106c 34       		.byte	0x34
 6820 106d 84100000 		.4byte	0x1084
 6821 1071 21       		.uleb128 0x21
 6822 1072 20220000 		.4byte	.LASF220
 6823 1076 00       		.byte	0
 6824 1077 21       		.uleb128 0x21
 6825 1078 9C0A0000 		.4byte	.LASF221
 6826 107c 01       		.byte	0x1
 6827 107d 21       		.uleb128 0x21
 6828 107e DA2F0000 		.4byte	.LASF222
 6829 1082 02       		.byte	0x2
 6830 1083 00       		.byte	0
 6831 1084 05       		.uleb128 0x5
 6832 1085 E7370000 		.4byte	.LASF223
 6833 1089 15       		.byte	0x15
 6834 108a 38       		.byte	0x38
 6835 108b 64100000 		.4byte	0x1064
 6836 108f 20       		.uleb128 0x20
 6837 1090 07       		.byte	0x7
 6838 1091 01       		.byte	0x1
 6839 1092 6C000000 		.4byte	0x6c
 6840 1096 15       		.byte	0x15
 6841 1097 3B       		.byte	0x3b
 6842 1098 B5100000 		.4byte	0x10b5
ARM GAS  /tmp/ccHCUo6g.s 			page 136


 6843 109c 21       		.uleb128 0x21
 6844 109d 58070000 		.4byte	.LASF224
 6845 10a1 00       		.byte	0
 6846 10a2 21       		.uleb128 0x21
 6847 10a3 87330000 		.4byte	.LASF225
 6848 10a7 01       		.byte	0x1
 6849 10a8 21       		.uleb128 0x21
 6850 10a9 7B360000 		.4byte	.LASF226
 6851 10ad 02       		.byte	0x2
 6852 10ae 21       		.uleb128 0x21
 6853 10af 89090000 		.4byte	.LASF227
 6854 10b3 03       		.byte	0x3
 6855 10b4 00       		.byte	0
 6856 10b5 05       		.uleb128 0x5
 6857 10b6 60200000 		.4byte	.LASF228
 6858 10ba 15       		.byte	0x15
 6859 10bb 40       		.byte	0x40
 6860 10bc 8F100000 		.4byte	0x108f
 6861 10c0 20       		.uleb128 0x20
 6862 10c1 07       		.byte	0x7
 6863 10c2 01       		.byte	0x1
 6864 10c3 6C000000 		.4byte	0x6c
 6865 10c7 15       		.byte	0x15
 6866 10c8 4A       		.byte	0x4a
 6867 10c9 E6100000 		.4byte	0x10e6
 6868 10cd 21       		.uleb128 0x21
 6869 10ce F3380000 		.4byte	.LASF229
 6870 10d2 00       		.byte	0
 6871 10d3 21       		.uleb128 0x21
 6872 10d4 EF1C0000 		.4byte	.LASF230
 6873 10d8 01       		.byte	0x1
 6874 10d9 21       		.uleb128 0x21
 6875 10da 0B180000 		.4byte	.LASF231
 6876 10de 02       		.byte	0x2
 6877 10df 21       		.uleb128 0x21
 6878 10e0 BD360000 		.4byte	.LASF232
 6879 10e4 03       		.byte	0x3
 6880 10e5 00       		.byte	0
 6881 10e6 05       		.uleb128 0x5
 6882 10e7 842B0000 		.4byte	.LASF233
 6883 10eb 15       		.byte	0x15
 6884 10ec 4F       		.byte	0x4f
 6885 10ed C0100000 		.4byte	0x10c0
 6886 10f1 20       		.uleb128 0x20
 6887 10f2 07       		.byte	0x7
 6888 10f3 01       		.byte	0x1
 6889 10f4 6C000000 		.4byte	0x6c
 6890 10f8 15       		.byte	0x15
 6891 10f9 51       		.byte	0x51
 6892 10fa 8F110000 		.4byte	0x118f
 6893 10fe 21       		.uleb128 0x21
 6894 10ff 2D290000 		.4byte	.LASF234
 6895 1103 00       		.byte	0
 6896 1104 21       		.uleb128 0x21
 6897 1105 AA180000 		.4byte	.LASF235
 6898 1109 01       		.byte	0x1
 6899 110a 21       		.uleb128 0x21
ARM GAS  /tmp/ccHCUo6g.s 			page 137


 6900 110b 45280000 		.4byte	.LASF236
 6901 110f 02       		.byte	0x2
 6902 1110 21       		.uleb128 0x21
 6903 1111 B10C0000 		.4byte	.LASF237
 6904 1115 03       		.byte	0x3
 6905 1116 21       		.uleb128 0x21
 6906 1117 BE0E0000 		.4byte	.LASF238
 6907 111b 04       		.byte	0x4
 6908 111c 21       		.uleb128 0x21
 6909 111d 58060000 		.4byte	.LASF239
 6910 1121 05       		.byte	0x5
 6911 1122 21       		.uleb128 0x21
 6912 1123 3D200000 		.4byte	.LASF240
 6913 1127 06       		.byte	0x6
 6914 1128 21       		.uleb128 0x21
 6915 1129 F51D0000 		.4byte	.LASF241
 6916 112d 07       		.byte	0x7
 6917 112e 21       		.uleb128 0x21
 6918 112f DB2D0000 		.4byte	.LASF242
 6919 1133 08       		.byte	0x8
 6920 1134 21       		.uleb128 0x21
 6921 1135 E30C0000 		.4byte	.LASF243
 6922 1139 09       		.byte	0x9
 6923 113a 21       		.uleb128 0x21
 6924 113b E4160000 		.4byte	.LASF244
 6925 113f 0A       		.byte	0xa
 6926 1140 21       		.uleb128 0x21
 6927 1141 1A180000 		.4byte	.LASF245
 6928 1145 0B       		.byte	0xb
 6929 1146 21       		.uleb128 0x21
 6930 1147 89250000 		.4byte	.LASF246
 6931 114b 0C       		.byte	0xc
 6932 114c 21       		.uleb128 0x21
 6933 114d 4F0A0000 		.4byte	.LASF247
 6934 1151 0D       		.byte	0xd
 6935 1152 21       		.uleb128 0x21
 6936 1153 1F130000 		.4byte	.LASF248
 6937 1157 0E       		.byte	0xe
 6938 1158 21       		.uleb128 0x21
 6939 1159 CB040000 		.4byte	.LASF249
 6940 115d 0F       		.byte	0xf
 6941 115e 21       		.uleb128 0x21
 6942 115f F3040000 		.4byte	.LASF250
 6943 1163 10       		.byte	0x10
 6944 1164 21       		.uleb128 0x21
 6945 1165 1B050000 		.4byte	.LASF251
 6946 1169 11       		.byte	0x11
 6947 116a 21       		.uleb128 0x21
 6948 116b 34300000 		.4byte	.LASF252
 6949 116f 12       		.byte	0x12
 6950 1170 21       		.uleb128 0x21
 6951 1171 11010000 		.4byte	.LASF253
 6952 1175 13       		.byte	0x13
 6953 1176 21       		.uleb128 0x21
 6954 1177 D6010000 		.4byte	.LASF254
 6955 117b 14       		.byte	0x14
 6956 117c 21       		.uleb128 0x21
ARM GAS  /tmp/ccHCUo6g.s 			page 138


 6957 117d 652F0000 		.4byte	.LASF255
 6958 1181 15       		.byte	0x15
 6959 1182 21       		.uleb128 0x21
 6960 1183 7F0C0000 		.4byte	.LASF256
 6961 1187 16       		.byte	0x16
 6962 1188 21       		.uleb128 0x21
 6963 1189 80100000 		.4byte	.LASF257
 6964 118d 17       		.byte	0x17
 6965 118e 00       		.byte	0
 6966 118f 05       		.uleb128 0x5
 6967 1190 B0330000 		.4byte	.LASF258
 6968 1194 15       		.byte	0x15
 6969 1195 6D       		.byte	0x6d
 6970 1196 F1100000 		.4byte	0x10f1
 6971 119a 20       		.uleb128 0x20
 6972 119b 07       		.byte	0x7
 6973 119c 01       		.byte	0x1
 6974 119d 6C000000 		.4byte	0x6c
 6975 11a1 15       		.byte	0x15
 6976 11a2 87       		.byte	0x87
 6977 11a3 CC110000 		.4byte	0x11cc
 6978 11a7 21       		.uleb128 0x21
 6979 11a8 EF210000 		.4byte	.LASF259
 6980 11ac 00       		.byte	0
 6981 11ad 21       		.uleb128 0x21
 6982 11ae 2B140000 		.4byte	.LASF260
 6983 11b2 01       		.byte	0x1
 6984 11b3 21       		.uleb128 0x21
 6985 11b4 AB140000 		.4byte	.LASF261
 6986 11b8 02       		.byte	0x2
 6987 11b9 21       		.uleb128 0x21
 6988 11ba 9A370000 		.4byte	.LASF262
 6989 11be 03       		.byte	0x3
 6990 11bf 21       		.uleb128 0x21
 6991 11c0 E3270000 		.4byte	.LASF263
 6992 11c4 04       		.byte	0x4
 6993 11c5 21       		.uleb128 0x21
 6994 11c6 A9000000 		.4byte	.LASF264
 6995 11ca 05       		.byte	0x5
 6996 11cb 00       		.byte	0
 6997 11cc 05       		.uleb128 0x5
 6998 11cd B4370000 		.4byte	.LASF265
 6999 11d1 15       		.byte	0x15
 7000 11d2 8E       		.byte	0x8e
 7001 11d3 9A110000 		.4byte	0x119a
 7002 11d7 15       		.uleb128 0x15
 7003 11d8 1C       		.byte	0x1c
 7004 11d9 15       		.byte	0x15
 7005 11da 90       		.byte	0x90
 7006 11db 34120000 		.4byte	0x1234
 7007 11df 08       		.uleb128 0x8
 7008 11e0 CE150000 		.4byte	.LASF266
 7009 11e4 15       		.byte	0x15
 7010 11e5 91       		.byte	0x91
 7011 11e6 25000000 		.4byte	0x25
 7012 11ea 00       		.byte	0
 7013 11eb 08       		.uleb128 0x8
ARM GAS  /tmp/ccHCUo6g.s 			page 139


 7014 11ec 4F140000 		.4byte	.LASF267
 7015 11f0 15       		.byte	0x15
 7016 11f1 92       		.byte	0x92
 7017 11f2 25000000 		.4byte	0x25
 7018 11f6 04       		.byte	0x4
 7019 11f7 08       		.uleb128 0x8
 7020 11f8 361E0000 		.4byte	.LASF268
 7021 11fc 15       		.byte	0x15
 7022 11fd 93       		.byte	0x93
 7023 11fe 25000000 		.4byte	0x25
 7024 1202 08       		.byte	0x8
 7025 1203 08       		.uleb128 0x8
 7026 1204 35030000 		.4byte	.LASF269
 7027 1208 15       		.byte	0x15
 7028 1209 94       		.byte	0x94
 7029 120a 25000000 		.4byte	0x25
 7030 120e 0C       		.byte	0xc
 7031 120f 08       		.uleb128 0x8
 7032 1210 AA170000 		.4byte	.LASF270
 7033 1214 15       		.byte	0x15
 7034 1215 95       		.byte	0x95
 7035 1216 25000000 		.4byte	0x25
 7036 121a 10       		.byte	0x10
 7037 121b 08       		.uleb128 0x8
 7038 121c 302B0000 		.4byte	.LASF271
 7039 1220 15       		.byte	0x15
 7040 1221 96       		.byte	0x96
 7041 1222 F4000000 		.4byte	0xf4
 7042 1226 14       		.byte	0x14
 7043 1227 08       		.uleb128 0x8
 7044 1228 5E340000 		.4byte	.LASF272
 7045 122c 15       		.byte	0x15
 7046 122d 97       		.byte	0x97
 7047 122e 25000000 		.4byte	0x25
 7048 1232 18       		.byte	0x18
 7049 1233 00       		.byte	0
 7050 1234 04       		.uleb128 0x4
 7051 1235 25000000 		.4byte	0x25
 7052 1239 06       		.uleb128 0x6
 7053 123a 25000000 		.4byte	0x25
 7054 123e 05       		.uleb128 0x5
 7055 123f D6220000 		.4byte	.LASF273
 7056 1243 15       		.byte	0x15
 7057 1244 98       		.byte	0x98
 7058 1245 D7110000 		.4byte	0x11d7
 7059 1249 20       		.uleb128 0x20
 7060 124a 07       		.byte	0x7
 7061 124b 01       		.byte	0x1
 7062 124c 6C000000 		.4byte	0x6c
 7063 1250 15       		.byte	0x15
 7064 1251 9A       		.byte	0x9a
 7065 1252 6F120000 		.4byte	0x126f
 7066 1256 21       		.uleb128 0x21
 7067 1257 36060000 		.4byte	.LASF274
 7068 125b 00       		.byte	0
 7069 125c 21       		.uleb128 0x21
 7070 125d 362B0000 		.4byte	.LASF275
ARM GAS  /tmp/ccHCUo6g.s 			page 140


 7071 1261 01       		.byte	0x1
 7072 1262 21       		.uleb128 0x21
 7073 1263 FF0A0000 		.4byte	.LASF276
 7074 1267 02       		.byte	0x2
 7075 1268 21       		.uleb128 0x21
 7076 1269 2A330000 		.4byte	.LASF277
 7077 126d 03       		.byte	0x3
 7078 126e 00       		.byte	0
 7079 126f 05       		.uleb128 0x5
 7080 1270 2D260000 		.4byte	.LASF278
 7081 1274 15       		.byte	0x15
 7082 1275 9F       		.byte	0x9f
 7083 1276 49120000 		.4byte	0x1249
 7084 127a 20       		.uleb128 0x20
 7085 127b 07       		.byte	0x7
 7086 127c 01       		.byte	0x1
 7087 127d 6C000000 		.4byte	0x6c
 7088 1281 15       		.byte	0x15
 7089 1282 B3       		.byte	0xb3
 7090 1283 9A120000 		.4byte	0x129a
 7091 1287 21       		.uleb128 0x21
 7092 1288 38310000 		.4byte	.LASF279
 7093 128c 00       		.byte	0
 7094 128d 21       		.uleb128 0x21
 7095 128e 3C1F0000 		.4byte	.LASF280
 7096 1292 01       		.byte	0x1
 7097 1293 21       		.uleb128 0x21
 7098 1294 0D1F0000 		.4byte	.LASF281
 7099 1298 02       		.byte	0x2
 7100 1299 00       		.byte	0
 7101 129a 05       		.uleb128 0x5
 7102 129b 0A1C0000 		.4byte	.LASF282
 7103 129f 15       		.byte	0x15
 7104 12a0 B7       		.byte	0xb7
 7105 12a1 7A120000 		.4byte	0x127a
 7106 12a5 22       		.uleb128 0x22
 7107 12a6 C801     		.2byte	0x1c8
 7108 12a8 15       		.byte	0x15
 7109 12a9 B9       		.byte	0xb9
 7110 12aa AF180000 		.4byte	0x18af
 7111 12ae 08       		.uleb128 0x8
 7112 12af 771B0000 		.4byte	.LASF283
 7113 12b3 15       		.byte	0x15
 7114 12b4 BB       		.byte	0xbb
 7115 12b5 09100000 		.4byte	0x1009
 7116 12b9 00       		.byte	0
 7117 12ba 08       		.uleb128 0x8
 7118 12bb A50E0000 		.4byte	.LASF284
 7119 12bf 15       		.byte	0x15
 7120 12c0 BC       		.byte	0xbc
 7121 12c1 2E100000 		.4byte	0x102e
 7122 12c5 01       		.byte	0x1
 7123 12c6 08       		.uleb128 0x8
 7124 12c7 9E1B0000 		.4byte	.LASF285
 7125 12cb 15       		.byte	0x15
 7126 12cc BD       		.byte	0xbd
 7127 12cd E6100000 		.4byte	0x10e6
ARM GAS  /tmp/ccHCUo6g.s 			page 141


 7128 12d1 02       		.byte	0x2
 7129 12d2 08       		.uleb128 0x8
 7130 12d3 7B2C0000 		.4byte	.LASF286
 7131 12d7 15       		.byte	0x15
 7132 12d8 BE       		.byte	0xbe
 7133 12d9 59100000 		.4byte	0x1059
 7134 12dd 03       		.byte	0x3
 7135 12de 08       		.uleb128 0x8
 7136 12df 2D210000 		.4byte	.LASF287
 7137 12e3 15       		.byte	0x15
 7138 12e4 C0       		.byte	0xc0
 7139 12e5 25000000 		.4byte	0x25
 7140 12e9 04       		.byte	0x4
 7141 12ea 08       		.uleb128 0x8
 7142 12eb FB270000 		.4byte	.LASF288
 7143 12ef 15       		.byte	0x15
 7144 12f0 C1       		.byte	0xc1
 7145 12f1 25000000 		.4byte	0x25
 7146 12f5 08       		.byte	0x8
 7147 12f6 08       		.uleb128 0x8
 7148 12f7 FD350000 		.4byte	.LASF289
 7149 12fb 15       		.byte	0x15
 7150 12fc C2       		.byte	0xc2
 7151 12fd 25000000 		.4byte	0x25
 7152 1301 0C       		.byte	0xc
 7153 1302 08       		.uleb128 0x8
 7154 1303 06030000 		.4byte	.LASF290
 7155 1307 15       		.byte	0x15
 7156 1308 C3       		.byte	0xc3
 7157 1309 25000000 		.4byte	0x25
 7158 130d 10       		.byte	0x10
 7159 130e 08       		.uleb128 0x8
 7160 130f 41000000 		.4byte	.LASF291
 7161 1313 15       		.byte	0x15
 7162 1314 C4       		.byte	0xc4
 7163 1315 25000000 		.4byte	0x25
 7164 1319 14       		.byte	0x14
 7165 131a 08       		.uleb128 0x8
 7166 131b 01040000 		.4byte	.LASF292
 7167 131f 15       		.byte	0x15
 7168 1320 C5       		.byte	0xc5
 7169 1321 25000000 		.4byte	0x25
 7170 1325 18       		.byte	0x18
 7171 1326 08       		.uleb128 0x8
 7172 1327 D01F0000 		.4byte	.LASF293
 7173 132b 15       		.byte	0x15
 7174 132c C6       		.byte	0xc6
 7175 132d 25000000 		.4byte	0x25
 7176 1331 1C       		.byte	0x1c
 7177 1332 08       		.uleb128 0x8
 7178 1333 020E0000 		.4byte	.LASF294
 7179 1337 15       		.byte	0x15
 7180 1338 C7       		.byte	0xc7
 7181 1339 25000000 		.4byte	0x25
 7182 133d 20       		.byte	0x20
 7183 133e 08       		.uleb128 0x8
 7184 133f 24000000 		.4byte	.LASF295
ARM GAS  /tmp/ccHCUo6g.s 			page 142


 7185 1343 15       		.byte	0x15
 7186 1344 C8       		.byte	0xc8
 7187 1345 25000000 		.4byte	0x25
 7188 1349 24       		.byte	0x24
 7189 134a 08       		.uleb128 0x8
 7190 134b E7340000 		.4byte	.LASF296
 7191 134f 15       		.byte	0x15
 7192 1350 C9       		.byte	0xc9
 7193 1351 25000000 		.4byte	0x25
 7194 1355 28       		.byte	0x28
 7195 1356 08       		.uleb128 0x8
 7196 1357 DA160000 		.4byte	.LASF297
 7197 135b 15       		.byte	0x15
 7198 135c CA       		.byte	0xca
 7199 135d 25000000 		.4byte	0x25
 7200 1361 2C       		.byte	0x2c
 7201 1362 08       		.uleb128 0x8
 7202 1363 97150000 		.4byte	.LASF298
 7203 1367 15       		.byte	0x15
 7204 1368 CB       		.byte	0xcb
 7205 1369 25000000 		.4byte	0x25
 7206 136d 30       		.byte	0x30
 7207 136e 08       		.uleb128 0x8
 7208 136f 90160000 		.4byte	.LASF299
 7209 1373 15       		.byte	0x15
 7210 1374 CC       		.byte	0xcc
 7211 1375 25000000 		.4byte	0x25
 7212 1379 34       		.byte	0x34
 7213 137a 08       		.uleb128 0x8
 7214 137b BC160000 		.4byte	.LASF300
 7215 137f 15       		.byte	0x15
 7216 1380 CD       		.byte	0xcd
 7217 1381 25000000 		.4byte	0x25
 7218 1385 38       		.byte	0x38
 7219 1386 08       		.uleb128 0x8
 7220 1387 B3020000 		.4byte	.LASF301
 7221 138b 15       		.byte	0x15
 7222 138c CE       		.byte	0xce
 7223 138d AF180000 		.4byte	0x18af
 7224 1391 3C       		.byte	0x3c
 7225 1392 08       		.uleb128 0x8
 7226 1393 290E0000 		.4byte	.LASF302
 7227 1397 15       		.byte	0x15
 7228 1398 CF       		.byte	0xcf
 7229 1399 25000000 		.4byte	0x25
 7230 139d 40       		.byte	0x40
 7231 139e 08       		.uleb128 0x8
 7232 139f 43050000 		.4byte	.LASF303
 7233 13a3 15       		.byte	0x15
 7234 13a4 D0       		.byte	0xd0
 7235 13a5 25000000 		.4byte	0x25
 7236 13a9 44       		.byte	0x44
 7237 13aa 08       		.uleb128 0x8
 7238 13ab 31270000 		.4byte	.LASF304
 7239 13af 15       		.byte	0x15
 7240 13b0 D1       		.byte	0xd1
 7241 13b1 25000000 		.4byte	0x25
ARM GAS  /tmp/ccHCUo6g.s 			page 143


 7242 13b5 48       		.byte	0x48
 7243 13b6 08       		.uleb128 0x8
 7244 13b7 332C0000 		.4byte	.LASF305
 7245 13bb 15       		.byte	0x15
 7246 13bc D2       		.byte	0xd2
 7247 13bd 25000000 		.4byte	0x25
 7248 13c1 4C       		.byte	0x4c
 7249 13c2 08       		.uleb128 0x8
 7250 13c3 C3260000 		.4byte	.LASF306
 7251 13c7 15       		.byte	0x15
 7252 13c8 D3       		.byte	0xd3
 7253 13c9 25000000 		.4byte	0x25
 7254 13cd 50       		.byte	0x50
 7255 13ce 08       		.uleb128 0x8
 7256 13cf 6A370000 		.4byte	.LASF307
 7257 13d3 15       		.byte	0x15
 7258 13d4 D4       		.byte	0xd4
 7259 13d5 25000000 		.4byte	0x25
 7260 13d9 54       		.byte	0x54
 7261 13da 08       		.uleb128 0x8
 7262 13db 39190000 		.4byte	.LASF308
 7263 13df 15       		.byte	0x15
 7264 13e0 D5       		.byte	0xd5
 7265 13e1 25000000 		.4byte	0x25
 7266 13e5 58       		.byte	0x58
 7267 13e6 08       		.uleb128 0x8
 7268 13e7 E40D0000 		.4byte	.LASF309
 7269 13eb 15       		.byte	0x15
 7270 13ec D6       		.byte	0xd6
 7271 13ed 25000000 		.4byte	0x25
 7272 13f1 5C       		.byte	0x5c
 7273 13f2 08       		.uleb128 0x8
 7274 13f3 7D340000 		.4byte	.LASF310
 7275 13f7 15       		.byte	0x15
 7276 13f8 D7       		.byte	0xd7
 7277 13f9 25000000 		.4byte	0x25
 7278 13fd 60       		.byte	0x60
 7279 13fe 08       		.uleb128 0x8
 7280 13ff B21F0000 		.4byte	.LASF311
 7281 1403 15       		.byte	0x15
 7282 1404 D8       		.byte	0xd8
 7283 1405 25000000 		.4byte	0x25
 7284 1409 64       		.byte	0x64
 7285 140a 08       		.uleb128 0x8
 7286 140b 54210000 		.4byte	.LASF312
 7287 140f 15       		.byte	0x15
 7288 1410 D9       		.byte	0xd9
 7289 1411 25000000 		.4byte	0x25
 7290 1415 68       		.byte	0x68
 7291 1416 08       		.uleb128 0x8
 7292 1417 B5130000 		.4byte	.LASF313
 7293 141b 15       		.byte	0x15
 7294 141c DB       		.byte	0xdb
 7295 141d 25000000 		.4byte	0x25
 7296 1421 6C       		.byte	0x6c
 7297 1422 08       		.uleb128 0x8
 7298 1423 A91B0000 		.4byte	.LASF314
ARM GAS  /tmp/ccHCUo6g.s 			page 144


 7299 1427 15       		.byte	0x15
 7300 1428 DC       		.byte	0xdc
 7301 1429 25000000 		.4byte	0x25
 7302 142d 70       		.byte	0x70
 7303 142e 08       		.uleb128 0x8
 7304 142f 072F0000 		.4byte	.LASF315
 7305 1433 15       		.byte	0x15
 7306 1434 DD       		.byte	0xdd
 7307 1435 25000000 		.4byte	0x25
 7308 1439 74       		.byte	0x74
 7309 143a 08       		.uleb128 0x8
 7310 143b 28370000 		.4byte	.LASF316
 7311 143f 15       		.byte	0x15
 7312 1440 DE       		.byte	0xde
 7313 1441 25000000 		.4byte	0x25
 7314 1445 78       		.byte	0x78
 7315 1446 08       		.uleb128 0x8
 7316 1447 81290000 		.4byte	.LASF317
 7317 144b 15       		.byte	0x15
 7318 144c DF       		.byte	0xdf
 7319 144d 25000000 		.4byte	0x25
 7320 1451 7C       		.byte	0x7c
 7321 1452 08       		.uleb128 0x8
 7322 1453 76150000 		.4byte	.LASF318
 7323 1457 15       		.byte	0x15
 7324 1458 E0       		.byte	0xe0
 7325 1459 25000000 		.4byte	0x25
 7326 145d 80       		.byte	0x80
 7327 145e 08       		.uleb128 0x8
 7328 145f 31180000 		.4byte	.LASF319
 7329 1463 15       		.byte	0x15
 7330 1464 E2       		.byte	0xe2
 7331 1465 25000000 		.4byte	0x25
 7332 1469 84       		.byte	0x84
 7333 146a 08       		.uleb128 0x8
 7334 146b 34080000 		.4byte	.LASF320
 7335 146f 15       		.byte	0x15
 7336 1470 E3       		.byte	0xe3
 7337 1471 25000000 		.4byte	0x25
 7338 1475 88       		.byte	0x88
 7339 1476 08       		.uleb128 0x8
 7340 1477 C61B0000 		.4byte	.LASF321
 7341 147b 15       		.byte	0x15
 7342 147c E4       		.byte	0xe4
 7343 147d 25000000 		.4byte	0x25
 7344 1481 8C       		.byte	0x8c
 7345 1482 08       		.uleb128 0x8
 7346 1483 7E1D0000 		.4byte	.LASF322
 7347 1487 15       		.byte	0x15
 7348 1488 E5       		.byte	0xe5
 7349 1489 25000000 		.4byte	0x25
 7350 148d 90       		.byte	0x90
 7351 148e 08       		.uleb128 0x8
 7352 148f 4B1A0000 		.4byte	.LASF323
 7353 1493 15       		.byte	0x15
 7354 1494 E6       		.byte	0xe6
 7355 1495 25000000 		.4byte	0x25
ARM GAS  /tmp/ccHCUo6g.s 			page 145


 7356 1499 94       		.byte	0x94
 7357 149a 08       		.uleb128 0x8
 7358 149b 98310000 		.4byte	.LASF324
 7359 149f 15       		.byte	0x15
 7360 14a0 E7       		.byte	0xe7
 7361 14a1 25000000 		.4byte	0x25
 7362 14a5 98       		.byte	0x98
 7363 14a6 08       		.uleb128 0x8
 7364 14a7 94260000 		.4byte	.LASF325
 7365 14ab 15       		.byte	0x15
 7366 14ac E8       		.byte	0xe8
 7367 14ad 25000000 		.4byte	0x25
 7368 14b1 9C       		.byte	0x9c
 7369 14b2 08       		.uleb128 0x8
 7370 14b3 881C0000 		.4byte	.LASF326
 7371 14b7 15       		.byte	0x15
 7372 14b8 EA       		.byte	0xea
 7373 14b9 B6180000 		.4byte	0x18b6
 7374 14bd A0       		.byte	0xa0
 7375 14be 08       		.uleb128 0x8
 7376 14bf 5B290000 		.4byte	.LASF327
 7377 14c3 15       		.byte	0x15
 7378 14c4 EB       		.byte	0xeb
 7379 14c5 25000000 		.4byte	0x25
 7380 14c9 A8       		.byte	0xa8
 7381 14ca 08       		.uleb128 0x8
 7382 14cb 7F080000 		.4byte	.LASF328
 7383 14cf 15       		.byte	0x15
 7384 14d0 ED       		.byte	0xed
 7385 14d1 25000000 		.4byte	0x25
 7386 14d5 AC       		.byte	0xac
 7387 14d6 08       		.uleb128 0x8
 7388 14d7 67080000 		.4byte	.LASF329
 7389 14db 15       		.byte	0x15
 7390 14dc EE       		.byte	0xee
 7391 14dd 25000000 		.4byte	0x25
 7392 14e1 B0       		.byte	0xb0
 7393 14e2 08       		.uleb128 0x8
 7394 14e3 F90D0000 		.4byte	.LASF330
 7395 14e7 15       		.byte	0x15
 7396 14e8 EF       		.byte	0xef
 7397 14e9 25000000 		.4byte	0x25
 7398 14ed B4       		.byte	0xb4
 7399 14ee 08       		.uleb128 0x8
 7400 14ef 1D300000 		.4byte	.LASF331
 7401 14f3 15       		.byte	0x15
 7402 14f4 F0       		.byte	0xf0
 7403 14f5 25000000 		.4byte	0x25
 7404 14f9 B8       		.byte	0xb8
 7405 14fa 08       		.uleb128 0x8
 7406 14fb 19040000 		.4byte	.LASF332
 7407 14ff 15       		.byte	0x15
 7408 1500 F1       		.byte	0xf1
 7409 1501 25000000 		.4byte	0x25
 7410 1505 BC       		.byte	0xbc
 7411 1506 08       		.uleb128 0x8
 7412 1507 C4130000 		.4byte	.LASF333
ARM GAS  /tmp/ccHCUo6g.s 			page 146


 7413 150b 15       		.byte	0x15
 7414 150c F2       		.byte	0xf2
 7415 150d AF180000 		.4byte	0x18af
 7416 1511 C0       		.byte	0xc0
 7417 1512 08       		.uleb128 0x8
 7418 1513 EF230000 		.4byte	.LASF334
 7419 1517 15       		.byte	0x15
 7420 1518 F3       		.byte	0xf3
 7421 1519 25000000 		.4byte	0x25
 7422 151d C4       		.byte	0xc4
 7423 151e 08       		.uleb128 0x8
 7424 151f EC0E0000 		.4byte	.LASF335
 7425 1523 15       		.byte	0x15
 7426 1524 F4       		.byte	0xf4
 7427 1525 25000000 		.4byte	0x25
 7428 1529 C8       		.byte	0xc8
 7429 152a 08       		.uleb128 0x8
 7430 152b AA0B0000 		.4byte	.LASF336
 7431 152f 15       		.byte	0x15
 7432 1530 F5       		.byte	0xf5
 7433 1531 25000000 		.4byte	0x25
 7434 1535 CC       		.byte	0xcc
 7435 1536 08       		.uleb128 0x8
 7436 1537 F4170000 		.4byte	.LASF337
 7437 153b 15       		.byte	0x15
 7438 153c F6       		.byte	0xf6
 7439 153d 25000000 		.4byte	0x25
 7440 1541 D0       		.byte	0xd0
 7441 1542 08       		.uleb128 0x8
 7442 1543 78030000 		.4byte	.LASF338
 7443 1547 15       		.byte	0x15
 7444 1548 F7       		.byte	0xf7
 7445 1549 25000000 		.4byte	0x25
 7446 154d D4       		.byte	0xd4
 7447 154e 08       		.uleb128 0x8
 7448 154f 6F170000 		.4byte	.LASF339
 7449 1553 15       		.byte	0x15
 7450 1554 F8       		.byte	0xf8
 7451 1555 25000000 		.4byte	0x25
 7452 1559 D8       		.byte	0xd8
 7453 155a 08       		.uleb128 0x8
 7454 155b 730C0000 		.4byte	.LASF340
 7455 155f 15       		.byte	0x15
 7456 1560 F9       		.byte	0xf9
 7457 1561 25000000 		.4byte	0x25
 7458 1565 DC       		.byte	0xdc
 7459 1566 08       		.uleb128 0x8
 7460 1567 9B0C0000 		.4byte	.LASF341
 7461 156b 15       		.byte	0x15
 7462 156c FA       		.byte	0xfa
 7463 156d 25000000 		.4byte	0x25
 7464 1571 E0       		.byte	0xe0
 7465 1572 08       		.uleb128 0x8
 7466 1573 3B1D0000 		.4byte	.LASF342
 7467 1577 15       		.byte	0x15
 7468 1578 FB       		.byte	0xfb
 7469 1579 25000000 		.4byte	0x25
ARM GAS  /tmp/ccHCUo6g.s 			page 147


 7470 157d E4       		.byte	0xe4
 7471 157e 08       		.uleb128 0x8
 7472 157f DA0E0000 		.4byte	.LASF343
 7473 1583 15       		.byte	0x15
 7474 1584 FC       		.byte	0xfc
 7475 1585 25000000 		.4byte	0x25
 7476 1589 E8       		.byte	0xe8
 7477 158a 08       		.uleb128 0x8
 7478 158b 2E010000 		.4byte	.LASF344
 7479 158f 15       		.byte	0x15
 7480 1590 FD       		.byte	0xfd
 7481 1591 25000000 		.4byte	0x25
 7482 1595 EC       		.byte	0xec
 7483 1596 08       		.uleb128 0x8
 7484 1597 8C2A0000 		.4byte	.LASF345
 7485 159b 15       		.byte	0x15
 7486 159c FE       		.byte	0xfe
 7487 159d 25000000 		.4byte	0x25
 7488 15a1 F0       		.byte	0xf0
 7489 15a2 08       		.uleb128 0x8
 7490 15a3 812A0000 		.4byte	.LASF346
 7491 15a7 15       		.byte	0x15
 7492 15a8 FF       		.byte	0xff
 7493 15a9 25000000 		.4byte	0x25
 7494 15ad F4       		.byte	0xf4
 7495 15ae 0A       		.uleb128 0xa
 7496 15af A1200000 		.4byte	.LASF347
 7497 15b3 15       		.byte	0x15
 7498 15b4 0001     		.2byte	0x100
 7499 15b6 25000000 		.4byte	0x25
 7500 15ba F8       		.byte	0xf8
 7501 15bb 0A       		.uleb128 0xa
 7502 15bc 84200000 		.4byte	.LASF348
 7503 15c0 15       		.byte	0x15
 7504 15c1 0101     		.2byte	0x101
 7505 15c3 25000000 		.4byte	0x25
 7506 15c7 FC       		.byte	0xfc
 7507 15c8 1A       		.uleb128 0x1a
 7508 15c9 382A0000 		.4byte	.LASF349
 7509 15cd 15       		.byte	0x15
 7510 15ce 0201     		.2byte	0x102
 7511 15d0 25000000 		.4byte	0x25
 7512 15d4 0001     		.2byte	0x100
 7513 15d6 1A       		.uleb128 0x1a
 7514 15d7 262E0000 		.4byte	.LASF350
 7515 15db 15       		.byte	0x15
 7516 15dc 0301     		.2byte	0x103
 7517 15de 25000000 		.4byte	0x25
 7518 15e2 0401     		.2byte	0x104
 7519 15e4 1A       		.uleb128 0x1a
 7520 15e5 F9360000 		.4byte	.LASF351
 7521 15e9 15       		.byte	0x15
 7522 15ea 0401     		.2byte	0x104
 7523 15ec 25000000 		.4byte	0x25
 7524 15f0 0801     		.2byte	0x108
 7525 15f2 1A       		.uleb128 0x1a
 7526 15f3 331C0000 		.4byte	.LASF352
ARM GAS  /tmp/ccHCUo6g.s 			page 148


 7527 15f7 15       		.byte	0x15
 7528 15f8 0501     		.2byte	0x105
 7529 15fa 25000000 		.4byte	0x25
 7530 15fe 0C01     		.2byte	0x10c
 7531 1600 1A       		.uleb128 0x1a
 7532 1601 492A0000 		.4byte	.LASF353
 7533 1605 15       		.byte	0x15
 7534 1606 0601     		.2byte	0x106
 7535 1608 25000000 		.4byte	0x25
 7536 160c 1001     		.2byte	0x110
 7537 160e 1A       		.uleb128 0x1a
 7538 160f 942F0000 		.4byte	.LASF354
 7539 1613 15       		.byte	0x15
 7540 1614 0701     		.2byte	0x107
 7541 1616 84100000 		.4byte	0x1084
 7542 161a 1401     		.2byte	0x114
 7543 161c 1A       		.uleb128 0x1a
 7544 161d A4360000 		.4byte	.LASF355
 7545 1621 15       		.byte	0x15
 7546 1622 0801     		.2byte	0x108
 7547 1624 C6180000 		.4byte	0x18c6
 7548 1628 1501     		.2byte	0x115
 7549 162a 1A       		.uleb128 0x1a
 7550 162b E5190000 		.4byte	.LASF356
 7551 162f 15       		.byte	0x15
 7552 1630 0901     		.2byte	0x109
 7553 1632 25000000 		.4byte	0x25
 7554 1636 2001     		.2byte	0x120
 7555 1638 1A       		.uleb128 0x1a
 7556 1639 7E380000 		.4byte	.LASF357
 7557 163d 15       		.byte	0x15
 7558 163e 0A01     		.2byte	0x10a
 7559 1640 AF180000 		.4byte	0x18af
 7560 1644 2401     		.2byte	0x124
 7561 1646 1A       		.uleb128 0x1a
 7562 1647 03320000 		.4byte	.LASF358
 7563 164b 15       		.byte	0x15
 7564 164c 0B01     		.2byte	0x10b
 7565 164e AF180000 		.4byte	0x18af
 7566 1652 2501     		.2byte	0x125
 7567 1654 1A       		.uleb128 0x1a
 7568 1655 27300000 		.4byte	.LASF359
 7569 1659 15       		.byte	0x15
 7570 165a 0C01     		.2byte	0x10c
 7571 165c 25000000 		.4byte	0x25
 7572 1660 2801     		.2byte	0x128
 7573 1662 1A       		.uleb128 0x1a
 7574 1663 3D260000 		.4byte	.LASF360
 7575 1667 15       		.byte	0x15
 7576 1668 0D01     		.2byte	0x10d
 7577 166a AF180000 		.4byte	0x18af
 7578 166e 2C01     		.2byte	0x12c
 7579 1670 1A       		.uleb128 0x1a
 7580 1671 582C0000 		.4byte	.LASF361
 7581 1675 15       		.byte	0x15
 7582 1676 0E01     		.2byte	0x10e
 7583 1678 25000000 		.4byte	0x25
ARM GAS  /tmp/ccHCUo6g.s 			page 149


 7584 167c 3001     		.2byte	0x130
 7585 167e 1A       		.uleb128 0x1a
 7586 167f 36360000 		.4byte	.LASF362
 7587 1683 15       		.byte	0x15
 7588 1684 0F01     		.2byte	0x10f
 7589 1686 25000000 		.4byte	0x25
 7590 168a 3401     		.2byte	0x134
 7591 168c 1A       		.uleb128 0x1a
 7592 168d 01090000 		.4byte	.LASF363
 7593 1691 15       		.byte	0x15
 7594 1692 1101     		.2byte	0x111
 7595 1694 2C000000 		.4byte	0x2c
 7596 1698 3801     		.2byte	0x138
 7597 169a 1A       		.uleb128 0x1a
 7598 169b 521D0000 		.4byte	.LASF364
 7599 169f 15       		.byte	0x15
 7600 16a0 1201     		.2byte	0x112
 7601 16a2 2C000000 		.4byte	0x2c
 7602 16a6 3C01     		.2byte	0x13c
 7603 16a8 1A       		.uleb128 0x1a
 7604 16a9 85120000 		.4byte	.LASF365
 7605 16ad 15       		.byte	0x15
 7606 16ae 1301     		.2byte	0x113
 7607 16b0 25000000 		.4byte	0x25
 7608 16b4 4001     		.2byte	0x140
 7609 16b6 1A       		.uleb128 0x1a
 7610 16b7 BF0B0000 		.4byte	.LASF366
 7611 16bb 15       		.byte	0x15
 7612 16bc 1401     		.2byte	0x114
 7613 16be 25000000 		.4byte	0x25
 7614 16c2 4401     		.2byte	0x144
 7615 16c4 1A       		.uleb128 0x1a
 7616 16c5 5D010000 		.4byte	.LASF367
 7617 16c9 15       		.byte	0x15
 7618 16ca 1501     		.2byte	0x115
 7619 16cc 25000000 		.4byte	0x25
 7620 16d0 4801     		.2byte	0x148
 7621 16d2 1A       		.uleb128 0x1a
 7622 16d3 68290000 		.4byte	.LASF368
 7623 16d7 15       		.byte	0x15
 7624 16d8 1701     		.2byte	0x117
 7625 16da 25000000 		.4byte	0x25
 7626 16de 4C01     		.2byte	0x14c
 7627 16e0 1A       		.uleb128 0x1a
 7628 16e1 3D290000 		.4byte	.LASF369
 7629 16e5 15       		.byte	0x15
 7630 16e6 1801     		.2byte	0x118
 7631 16e8 25000000 		.4byte	0x25
 7632 16ec 5001     		.2byte	0x150
 7633 16ee 1A       		.uleb128 0x1a
 7634 16ef CE0B0000 		.4byte	.LASF370
 7635 16f3 15       		.byte	0x15
 7636 16f4 1901     		.2byte	0x119
 7637 16f6 25000000 		.4byte	0x25
 7638 16fa 5401     		.2byte	0x154
 7639 16fc 1A       		.uleb128 0x1a
 7640 16fd 30120000 		.4byte	.LASF371
ARM GAS  /tmp/ccHCUo6g.s 			page 150


 7641 1701 15       		.byte	0x15
 7642 1702 1A01     		.2byte	0x11a
 7643 1704 25000000 		.4byte	0x25
 7644 1708 5801     		.2byte	0x158
 7645 170a 1A       		.uleb128 0x1a
 7646 170b 550D0000 		.4byte	.LASF372
 7647 170f 15       		.byte	0x15
 7648 1710 1B01     		.2byte	0x11b
 7649 1712 25000000 		.4byte	0x25
 7650 1716 5C01     		.2byte	0x15c
 7651 1718 1A       		.uleb128 0x1a
 7652 1719 65100000 		.4byte	.LASF373
 7653 171d 15       		.byte	0x15
 7654 171e 1C01     		.2byte	0x11c
 7655 1720 AF180000 		.4byte	0x18af
 7656 1724 6001     		.2byte	0x160
 7657 1726 1A       		.uleb128 0x1a
 7658 1727 80250000 		.4byte	.LASF374
 7659 172b 15       		.byte	0x15
 7660 172c 1E01     		.2byte	0x11e
 7661 172e 25000000 		.4byte	0x25
 7662 1732 6401     		.2byte	0x164
 7663 1734 1A       		.uleb128 0x1a
 7664 1735 6F250000 		.4byte	.LASF375
 7665 1739 15       		.byte	0x15
 7666 173a 1F01     		.2byte	0x11f
 7667 173c 25000000 		.4byte	0x25
 7668 1740 6801     		.2byte	0x168
 7669 1742 1A       		.uleb128 0x1a
 7670 1743 66250000 		.4byte	.LASF376
 7671 1747 15       		.byte	0x15
 7672 1748 2001     		.2byte	0x120
 7673 174a 25000000 		.4byte	0x25
 7674 174e 6C01     		.2byte	0x16c
 7675 1750 1A       		.uleb128 0x1a
 7676 1751 0D300000 		.4byte	.LASF377
 7677 1755 15       		.byte	0x15
 7678 1756 2101     		.2byte	0x121
 7679 1758 25000000 		.4byte	0x25
 7680 175c 7001     		.2byte	0x170
 7681 175e 1A       		.uleb128 0x1a
 7682 175f 6D360000 		.4byte	.LASF378
 7683 1763 15       		.byte	0x15
 7684 1764 2201     		.2byte	0x122
 7685 1766 25000000 		.4byte	0x25
 7686 176a 7401     		.2byte	0x174
 7687 176c 1A       		.uleb128 0x1a
 7688 176d C4030000 		.4byte	.LASF379
 7689 1771 15       		.byte	0x15
 7690 1772 2401     		.2byte	0x124
 7691 1774 25000000 		.4byte	0x25
 7692 1778 7801     		.2byte	0x178
 7693 177a 1A       		.uleb128 0x1a
 7694 177b D9130000 		.4byte	.LASF380
 7695 177f 15       		.byte	0x15
 7696 1780 2501     		.2byte	0x125
 7697 1782 25000000 		.4byte	0x25
ARM GAS  /tmp/ccHCUo6g.s 			page 151


 7698 1786 7C01     		.2byte	0x17c
 7699 1788 1A       		.uleb128 0x1a
 7700 1789 011B0000 		.4byte	.LASF381
 7701 178d 15       		.byte	0x15
 7702 178e 2601     		.2byte	0x126
 7703 1790 25000000 		.4byte	0x25
 7704 1794 8001     		.2byte	0x180
 7705 1796 1A       		.uleb128 0x1a
 7706 1797 3F250000 		.4byte	.LASF382
 7707 179b 15       		.byte	0x15
 7708 179c 2701     		.2byte	0x127
 7709 179e 25000000 		.4byte	0x25
 7710 17a2 8401     		.2byte	0x184
 7711 17a4 1A       		.uleb128 0x1a
 7712 17a5 4F0B0000 		.4byte	.LASF383
 7713 17a9 15       		.byte	0x15
 7714 17aa 2901     		.2byte	0x129
 7715 17ac F4000000 		.4byte	0xf4
 7716 17b0 8801     		.2byte	0x188
 7717 17b2 1A       		.uleb128 0x1a
 7718 17b3 BE330000 		.4byte	.LASF384
 7719 17b7 15       		.byte	0x15
 7720 17b8 2A01     		.2byte	0x12a
 7721 17ba 25000000 		.4byte	0x25
 7722 17be 8C01     		.2byte	0x18c
 7723 17c0 1A       		.uleb128 0x1a
 7724 17c1 C2180000 		.4byte	.LASF385
 7725 17c5 15       		.byte	0x15
 7726 17c6 2B01     		.2byte	0x12b
 7727 17c8 25000000 		.4byte	0x25
 7728 17cc 9001     		.2byte	0x190
 7729 17ce 1A       		.uleb128 0x1a
 7730 17cf C6390000 		.4byte	.LASF386
 7731 17d3 15       		.byte	0x15
 7732 17d4 2C01     		.2byte	0x12c
 7733 17d6 04010000 		.4byte	0x104
 7734 17da 9401     		.2byte	0x194
 7735 17dc 1A       		.uleb128 0x1a
 7736 17dd 8C180000 		.4byte	.LASF387
 7737 17e1 15       		.byte	0x15
 7738 17e2 2D01     		.2byte	0x12d
 7739 17e4 CC110000 		.4byte	0x11cc
 7740 17e8 9801     		.2byte	0x198
 7741 17ea 1A       		.uleb128 0x1a
 7742 17eb E3180000 		.4byte	.LASF388
 7743 17ef 15       		.byte	0x15
 7744 17f0 2E01     		.2byte	0x12e
 7745 17f2 AF180000 		.4byte	0x18af
 7746 17f6 9901     		.2byte	0x199
 7747 17f8 1A       		.uleb128 0x1a
 7748 17f9 A3130000 		.4byte	.LASF389
 7749 17fd 15       		.byte	0x15
 7750 17fe 2F01     		.2byte	0x12f
 7751 1800 6F120000 		.4byte	0x126f
 7752 1804 9A01     		.2byte	0x19a
 7753 1806 1A       		.uleb128 0x1a
 7754 1807 2E020000 		.4byte	.LASF390
ARM GAS  /tmp/ccHCUo6g.s 			page 152


 7755 180b 15       		.byte	0x15
 7756 180c 3001     		.2byte	0x130
 7757 180e 2C000000 		.4byte	0x2c
 7758 1812 9C01     		.2byte	0x19c
 7759 1814 1A       		.uleb128 0x1a
 7760 1815 7C2D0000 		.4byte	.LASF391
 7761 1819 15       		.byte	0x15
 7762 181a 3101     		.2byte	0x131
 7763 181c 25000000 		.4byte	0x25
 7764 1820 A001     		.2byte	0x1a0
 7765 1822 1A       		.uleb128 0x1a
 7766 1823 04260000 		.4byte	.LASF392
 7767 1827 15       		.byte	0x15
 7768 1828 3201     		.2byte	0x132
 7769 182a 25000000 		.4byte	0x25
 7770 182e A401     		.2byte	0x1a4
 7771 1830 1A       		.uleb128 0x1a
 7772 1831 F9310000 		.4byte	.LASF393
 7773 1835 15       		.byte	0x15
 7774 1836 3301     		.2byte	0x133
 7775 1838 25000000 		.4byte	0x25
 7776 183c A801     		.2byte	0x1a8
 7777 183e 1A       		.uleb128 0x1a
 7778 183f 18090000 		.4byte	.LASF394
 7779 1843 15       		.byte	0x15
 7780 1844 3401     		.2byte	0x134
 7781 1846 25000000 		.4byte	0x25
 7782 184a AC01     		.2byte	0x1ac
 7783 184c 1A       		.uleb128 0x1a
 7784 184d A4390000 		.4byte	.LASF395
 7785 1851 15       		.byte	0x15
 7786 1852 3501     		.2byte	0x135
 7787 1854 B5100000 		.4byte	0x10b5
 7788 1858 B001     		.2byte	0x1b0
 7789 185a 1A       		.uleb128 0x1a
 7790 185b D3230000 		.4byte	.LASF396
 7791 185f 15       		.byte	0x15
 7792 1860 3701     		.2byte	0x137
 7793 1862 D4000000 		.4byte	0xd4
 7794 1866 B101     		.2byte	0x1b1
 7795 1868 1A       		.uleb128 0x1a
 7796 1869 89040000 		.4byte	.LASF397
 7797 186d 15       		.byte	0x15
 7798 186e 3801     		.2byte	0x138
 7799 1870 25000000 		.4byte	0x25
 7800 1874 B401     		.2byte	0x1b4
 7801 1876 1A       		.uleb128 0x1a
 7802 1877 45130000 		.4byte	.LASF398
 7803 187b 15       		.byte	0x15
 7804 187c 3901     		.2byte	0x139
 7805 187e 25000000 		.4byte	0x25
 7806 1882 B801     		.2byte	0x1b8
 7807 1884 1A       		.uleb128 0x1a
 7808 1885 F3280000 		.4byte	.LASF399
 7809 1889 15       		.byte	0x15
 7810 188a 3A01     		.2byte	0x13a
 7811 188c 9A120000 		.4byte	0x129a
ARM GAS  /tmp/ccHCUo6g.s 			page 153


 7812 1890 BC01     		.2byte	0x1bc
 7813 1892 1A       		.uleb128 0x1a
 7814 1893 64270000 		.4byte	.LASF400
 7815 1897 15       		.byte	0x15
 7816 1898 3B01     		.2byte	0x13b
 7817 189a 2C000000 		.4byte	0x2c
 7818 189e C001     		.2byte	0x1c0
 7819 18a0 1A       		.uleb128 0x1a
 7820 18a1 6B050000 		.4byte	.LASF401
 7821 18a5 15       		.byte	0x15
 7822 18a6 3C01     		.2byte	0x13c
 7823 18a8 25000000 		.4byte	0x25
 7824 18ac C401     		.2byte	0x1c4
 7825 18ae 00       		.byte	0
 7826 18af 02       		.uleb128 0x2
 7827 18b0 01       		.byte	0x1
 7828 18b1 02       		.byte	0x2
 7829 18b2 A7010000 		.4byte	.LASF402
 7830 18b6 11       		.uleb128 0x11
 7831 18b7 C9000000 		.4byte	0xc9
 7832 18bb C6180000 		.4byte	0x18c6
 7833 18bf 12       		.uleb128 0x12
 7834 18c0 48000000 		.4byte	0x48
 7835 18c4 07       		.byte	0x7
 7836 18c5 00       		.byte	0
 7837 18c6 11       		.uleb128 0x11
 7838 18c7 D4000000 		.4byte	0xd4
 7839 18cb D6180000 		.4byte	0x18d6
 7840 18cf 12       		.uleb128 0x12
 7841 18d0 48000000 		.4byte	0x48
 7842 18d4 07       		.byte	0x7
 7843 18d5 00       		.byte	0
 7844 18d6 18       		.uleb128 0x18
 7845 18d7 CF330000 		.4byte	.LASF403
 7846 18db 15       		.byte	0x15
 7847 18dc 3D01     		.2byte	0x13d
 7848 18de A5120000 		.4byte	0x12a5
 7849 18e2 11       		.uleb128 0x11
 7850 18e3 6C000000 		.4byte	0x6c
 7851 18e7 F2180000 		.4byte	0x18f2
 7852 18eb 12       		.uleb128 0x12
 7853 18ec 48000000 		.4byte	0x48
 7854 18f0 02       		.byte	0x2
 7855 18f1 00       		.byte	0
 7856 18f2 23       		.uleb128 0x23
 7857 18f3 07       		.byte	0x7
 7858 18f4 01       		.byte	0x1
 7859 18f5 6C000000 		.4byte	0x6c
 7860 18f9 15       		.byte	0x15
 7861 18fa 7302     		.2byte	0x273
 7862 18fc F91A0000 		.4byte	0x1af9
 7863 1900 21       		.uleb128 0x21
 7864 1901 D4260000 		.4byte	.LASF404
 7865 1905 00       		.byte	0
 7866 1906 21       		.uleb128 0x21
 7867 1907 12230000 		.4byte	.LASF405
 7868 190b 01       		.byte	0x1
ARM GAS  /tmp/ccHCUo6g.s 			page 154


 7869 190c 21       		.uleb128 0x21
 7870 190d 6F130000 		.4byte	.LASF406
 7871 1911 02       		.byte	0x2
 7872 1912 21       		.uleb128 0x21
 7873 1913 57130000 		.4byte	.LASF407
 7874 1917 03       		.byte	0x3
 7875 1918 21       		.uleb128 0x21
 7876 1919 DD280000 		.4byte	.LASF408
 7877 191d 04       		.byte	0x4
 7878 191e 21       		.uleb128 0x21
 7879 191f 4E160000 		.4byte	.LASF409
 7880 1923 05       		.byte	0x5
 7881 1924 21       		.uleb128 0x21
 7882 1925 D21D0000 		.4byte	.LASF410
 7883 1929 06       		.byte	0x6
 7884 192a 21       		.uleb128 0x21
 7885 192b D2300000 		.4byte	.LASF411
 7886 192f 07       		.byte	0x7
 7887 1930 21       		.uleb128 0x21
 7888 1931 54310000 		.4byte	.LASF412
 7889 1935 08       		.byte	0x8
 7890 1936 21       		.uleb128 0x21
 7891 1937 A7240000 		.4byte	.LASF413
 7892 193b 09       		.byte	0x9
 7893 193c 21       		.uleb128 0x21
 7894 193d 68240000 		.4byte	.LASF414
 7895 1941 0A       		.byte	0xa
 7896 1942 21       		.uleb128 0x21
 7897 1943 F0220000 		.4byte	.LASF415
 7898 1947 0B       		.byte	0xb
 7899 1948 21       		.uleb128 0x21
 7900 1949 97170000 		.4byte	.LASF416
 7901 194d 0C       		.byte	0xc
 7902 194e 21       		.uleb128 0x21
 7903 194f 02310000 		.4byte	.LASF417
 7904 1953 0D       		.byte	0xd
 7905 1954 21       		.uleb128 0x21
 7906 1955 4A170000 		.4byte	.LASF418
 7907 1959 0E       		.byte	0xe
 7908 195a 21       		.uleb128 0x21
 7909 195b 9D280000 		.4byte	.LASF419
 7910 195f 0F       		.byte	0xf
 7911 1960 21       		.uleb128 0x21
 7912 1961 DB2E0000 		.4byte	.LASF420
 7913 1965 10       		.byte	0x10
 7914 1966 21       		.uleb128 0x21
 7915 1967 F42B0000 		.4byte	.LASF421
 7916 196b 11       		.byte	0x11
 7917 196c 21       		.uleb128 0x21
 7918 196d 1B350000 		.4byte	.LASF422
 7919 1971 12       		.byte	0x12
 7920 1972 21       		.uleb128 0x21
 7921 1973 210B0000 		.4byte	.LASF423
 7922 1977 13       		.byte	0x13
 7923 1978 21       		.uleb128 0x21
 7924 1979 6B340000 		.4byte	.LASF424
 7925 197d 14       		.byte	0x14
ARM GAS  /tmp/ccHCUo6g.s 			page 155


 7926 197e 21       		.uleb128 0x21
 7927 197f 71290000 		.4byte	.LASF425
 7928 1983 15       		.byte	0x15
 7929 1984 21       		.uleb128 0x21
 7930 1985 73330000 		.4byte	.LASF426
 7931 1989 16       		.byte	0x16
 7932 198a 21       		.uleb128 0x21
 7933 198b 5F190000 		.4byte	.LASF427
 7934 198f 17       		.byte	0x17
 7935 1990 21       		.uleb128 0x21
 7936 1991 242F0000 		.4byte	.LASF428
 7937 1995 18       		.byte	0x18
 7938 1996 21       		.uleb128 0x21
 7939 1997 7D0E0000 		.4byte	.LASF429
 7940 199b 19       		.byte	0x19
 7941 199c 21       		.uleb128 0x21
 7942 199d 3B150000 		.4byte	.LASF430
 7943 19a1 1A       		.byte	0x1a
 7944 19a2 21       		.uleb128 0x21
 7945 19a3 84280000 		.4byte	.LASF431
 7946 19a7 1B       		.byte	0x1b
 7947 19a8 21       		.uleb128 0x21
 7948 19a9 FC000000 		.4byte	.LASF432
 7949 19ad 1C       		.byte	0x1c
 7950 19ae 21       		.uleb128 0x21
 7951 19af 22390000 		.4byte	.LASF433
 7952 19b3 1D       		.byte	0x1d
 7953 19b4 21       		.uleb128 0x21
 7954 19b5 930E0000 		.4byte	.LASF434
 7955 19b9 1E       		.byte	0x1e
 7956 19ba 21       		.uleb128 0x21
 7957 19bb D7170000 		.4byte	.LASF435
 7958 19bf 1F       		.byte	0x1f
 7959 19c0 21       		.uleb128 0x21
 7960 19c1 C62E0000 		.4byte	.LASF436
 7961 19c5 20       		.byte	0x20
 7962 19c6 21       		.uleb128 0x21
 7963 19c7 35240000 		.4byte	.LASF437
 7964 19cb 21       		.byte	0x21
 7965 19cc 21       		.uleb128 0x21
 7966 19cd 14190000 		.4byte	.LASF438
 7967 19d1 22       		.byte	0x22
 7968 19d2 21       		.uleb128 0x21
 7969 19d3 5B2B0000 		.4byte	.LASF439
 7970 19d7 23       		.byte	0x23
 7971 19d8 21       		.uleb128 0x21
 7972 19d9 5E330000 		.4byte	.LASF440
 7973 19dd 24       		.byte	0x24
 7974 19de 21       		.uleb128 0x21
 7975 19df 77310000 		.4byte	.LASF441
 7976 19e3 25       		.byte	0x25
 7977 19e4 21       		.uleb128 0x21
 7978 19e5 65150000 		.4byte	.LASF442
 7979 19e9 26       		.byte	0x26
 7980 19ea 21       		.uleb128 0x21
 7981 19eb B5280000 		.4byte	.LASF443
 7982 19ef 27       		.byte	0x27
ARM GAS  /tmp/ccHCUo6g.s 			page 156


 7983 19f0 21       		.uleb128 0x21
 7984 19f1 B0210000 		.4byte	.LASF444
 7985 19f5 28       		.byte	0x28
 7986 19f6 21       		.uleb128 0x21
 7987 19f7 B62D0000 		.4byte	.LASF445
 7988 19fb 29       		.byte	0x29
 7989 19fc 21       		.uleb128 0x21
 7990 19fd 122A0000 		.4byte	.LASF446
 7991 1a01 2A       		.byte	0x2a
 7992 1a02 21       		.uleb128 0x21
 7993 1a03 50370000 		.4byte	.LASF447
 7994 1a07 2B       		.byte	0x2b
 7995 1a08 21       		.uleb128 0x21
 7996 1a09 3E330000 		.4byte	.LASF448
 7997 1a0d 2C       		.byte	0x2c
 7998 1a0e 21       		.uleb128 0x21
 7999 1a0f 971E0000 		.4byte	.LASF449
 8000 1a13 2D       		.byte	0x2d
 8001 1a14 21       		.uleb128 0x21
 8002 1a15 C1120000 		.4byte	.LASF450
 8003 1a19 2E       		.byte	0x2e
 8004 1a1a 21       		.uleb128 0x21
 8005 1a1b F6090000 		.4byte	.LASF451
 8006 1a1f 2F       		.byte	0x2f
 8007 1a20 21       		.uleb128 0x21
 8008 1a21 71060000 		.4byte	.LASF452
 8009 1a25 30       		.byte	0x30
 8010 1a26 21       		.uleb128 0x21
 8011 1a27 98190000 		.4byte	.LASF453
 8012 1a2b 31       		.byte	0x31
 8013 1a2c 21       		.uleb128 0x21
 8014 1a2d 97350000 		.4byte	.LASF454
 8015 1a31 32       		.byte	0x32
 8016 1a32 21       		.uleb128 0x21
 8017 1a33 6F230000 		.4byte	.LASF455
 8018 1a37 33       		.byte	0x33
 8019 1a38 21       		.uleb128 0x21
 8020 1a39 43030000 		.4byte	.LASF456
 8021 1a3d 34       		.byte	0x34
 8022 1a3e 21       		.uleb128 0x21
 8023 1a3f 25160000 		.4byte	.LASF457
 8024 1a43 35       		.byte	0x35
 8025 1a44 21       		.uleb128 0x21
 8026 1a45 62000000 		.4byte	.LASF458
 8027 1a49 36       		.byte	0x36
 8028 1a4a 21       		.uleb128 0x21
 8029 1a4b 912E0000 		.4byte	.LASF459
 8030 1a4f 37       		.byte	0x37
 8031 1a50 21       		.uleb128 0x21
 8032 1a51 632D0000 		.4byte	.LASF460
 8033 1a55 38       		.byte	0x38
 8034 1a56 21       		.uleb128 0x21
 8035 1a57 65020000 		.4byte	.LASF461
 8036 1a5b 39       		.byte	0x39
 8037 1a5c 21       		.uleb128 0x21
 8038 1a5d FC330000 		.4byte	.LASF462
 8039 1a61 3A       		.byte	0x3a
ARM GAS  /tmp/ccHCUo6g.s 			page 157


 8040 1a62 21       		.uleb128 0x21
 8041 1a63 F1140000 		.4byte	.LASF463
 8042 1a67 3B       		.byte	0x3b
 8043 1a68 21       		.uleb128 0x21
 8044 1a69 DD020000 		.4byte	.LASF464
 8045 1a6d 3C       		.byte	0x3c
 8046 1a6e 21       		.uleb128 0x21
 8047 1a6f 8F0F0000 		.4byte	.LASF465
 8048 1a73 3D       		.byte	0x3d
 8049 1a74 21       		.uleb128 0x21
 8050 1a75 61170000 		.4byte	.LASF466
 8051 1a79 3E       		.byte	0x3e
 8052 1a7a 21       		.uleb128 0x21
 8053 1a7b 44270000 		.4byte	.LASF467
 8054 1a7f 3F       		.byte	0x3f
 8055 1a80 21       		.uleb128 0x21
 8056 1a81 B6230000 		.4byte	.LASF468
 8057 1a85 40       		.byte	0x40
 8058 1a86 21       		.uleb128 0x21
 8059 1a87 95010000 		.4byte	.LASF469
 8060 1a8b 41       		.byte	0x41
 8061 1a8c 21       		.uleb128 0x21
 8062 1a8d 162E0000 		.4byte	.LASF470
 8063 1a91 42       		.byte	0x42
 8064 1a92 21       		.uleb128 0x21
 8065 1a93 56380000 		.4byte	.LASF471
 8066 1a97 43       		.byte	0x43
 8067 1a98 21       		.uleb128 0x21
 8068 1a99 9C1A0000 		.4byte	.LASF472
 8069 1a9d 44       		.byte	0x44
 8070 1a9e 21       		.uleb128 0x21
 8071 1a9f 57250000 		.4byte	.LASF473
 8072 1aa3 45       		.byte	0x45
 8073 1aa4 21       		.uleb128 0x21
 8074 1aa5 2E100000 		.4byte	.LASF474
 8075 1aa9 46       		.byte	0x46
 8076 1aaa 21       		.uleb128 0x21
 8077 1aab 6C180000 		.4byte	.LASF475
 8078 1aaf 47       		.byte	0x47
 8079 1ab0 21       		.uleb128 0x21
 8080 1ab1 171C0000 		.4byte	.LASF476
 8081 1ab5 48       		.byte	0x48
 8082 1ab6 21       		.uleb128 0x21
 8083 1ab7 9E040000 		.4byte	.LASF477
 8084 1abb 49       		.byte	0x49
 8085 1abc 21       		.uleb128 0x21
 8086 1abd 801B0000 		.4byte	.LASF478
 8087 1ac1 4A       		.byte	0x4a
 8088 1ac2 21       		.uleb128 0x21
 8089 1ac3 150A0000 		.4byte	.LASF479
 8090 1ac7 4B       		.byte	0x4b
 8091 1ac8 21       		.uleb128 0x21
 8092 1ac9 A5030000 		.4byte	.LASF480
 8093 1acd 4C       		.byte	0x4c
 8094 1ace 21       		.uleb128 0x21
 8095 1acf 4C0E0000 		.4byte	.LASF481
 8096 1ad3 4D       		.byte	0x4d
ARM GAS  /tmp/ccHCUo6g.s 			page 158


 8097 1ad4 21       		.uleb128 0x21
 8098 1ad5 3E090000 		.4byte	.LASF482
 8099 1ad9 4E       		.byte	0x4e
 8100 1ada 21       		.uleb128 0x21
 8101 1adb 362D0000 		.4byte	.LASF483
 8102 1adf 4F       		.byte	0x4f
 8103 1ae0 21       		.uleb128 0x21
 8104 1ae1 46040000 		.4byte	.LASF484
 8105 1ae5 50       		.byte	0x50
 8106 1ae6 21       		.uleb128 0x21
 8107 1ae7 B5220000 		.4byte	.LASF485
 8108 1aeb 51       		.byte	0x51
 8109 1aec 21       		.uleb128 0x21
 8110 1aed CB250000 		.4byte	.LASF486
 8111 1af1 52       		.byte	0x52
 8112 1af2 21       		.uleb128 0x21
 8113 1af3 9C2A0000 		.4byte	.LASF487
 8114 1af7 53       		.byte	0x53
 8115 1af8 00       		.byte	0
 8116 1af9 17       		.uleb128 0x17
 8117 1afa 50       		.byte	0x50
 8118 1afb 15       		.byte	0x15
 8119 1afc FB02     		.2byte	0x2fb
 8120 1afe 071C0000 		.4byte	0x1c07
 8121 1b02 0A       		.uleb128 0xa
 8122 1b03 9E270000 		.4byte	.LASF488
 8123 1b07 15       		.byte	0x15
 8124 1b08 FC02     		.2byte	0x2fc
 8125 1b0a 8F110000 		.4byte	0x118f
 8126 1b0e 00       		.byte	0
 8127 1b0f 0A       		.uleb128 0xa
 8128 1b10 F21F0000 		.4byte	.LASF489
 8129 1b14 15       		.byte	0x15
 8130 1b15 FD02     		.2byte	0x2fd
 8131 1b17 25000000 		.4byte	0x25
 8132 1b1b 04       		.byte	0x4
 8133 1b1c 0A       		.uleb128 0xa
 8134 1b1d 90320000 		.4byte	.LASF490
 8135 1b21 15       		.byte	0x15
 8136 1b22 FE02     		.2byte	0x2fe
 8137 1b24 25000000 		.4byte	0x25
 8138 1b28 08       		.byte	0x8
 8139 1b29 0A       		.uleb128 0xa
 8140 1b2a FF2E0000 		.4byte	.LASF491
 8141 1b2e 15       		.byte	0x15
 8142 1b2f FF02     		.2byte	0x2ff
 8143 1b31 25000000 		.4byte	0x25
 8144 1b35 0C       		.byte	0xc
 8145 1b36 0A       		.uleb128 0xa
 8146 1b37 6E1D0000 		.4byte	.LASF492
 8147 1b3b 15       		.byte	0x15
 8148 1b3c 0003     		.2byte	0x300
 8149 1b3e 25000000 		.4byte	0x25
 8150 1b42 10       		.byte	0x10
 8151 1b43 0A       		.uleb128 0xa
 8152 1b44 FB150000 		.4byte	.LASF493
 8153 1b48 15       		.byte	0x15
ARM GAS  /tmp/ccHCUo6g.s 			page 159


 8154 1b49 0103     		.2byte	0x301
 8155 1b4b 25000000 		.4byte	0x25
 8156 1b4f 14       		.byte	0x14
 8157 1b50 0A       		.uleb128 0xa
 8158 1b51 F3240000 		.4byte	.LASF494
 8159 1b55 15       		.byte	0x15
 8160 1b56 0203     		.2byte	0x302
 8161 1b58 25000000 		.4byte	0x25
 8162 1b5c 18       		.byte	0x18
 8163 1b5d 0A       		.uleb128 0xa
 8164 1b5e 9F290000 		.4byte	.LASF495
 8165 1b62 15       		.byte	0x15
 8166 1b63 0303     		.2byte	0x303
 8167 1b65 25000000 		.4byte	0x25
 8168 1b69 1C       		.byte	0x1c
 8169 1b6a 0A       		.uleb128 0xa
 8170 1b6b 00000000 		.4byte	.LASF496
 8171 1b6f 15       		.byte	0x15
 8172 1b70 0403     		.2byte	0x304
 8173 1b72 2C000000 		.4byte	0x2c
 8174 1b76 20       		.byte	0x20
 8175 1b77 0A       		.uleb128 0xa
 8176 1b78 D7050000 		.4byte	.LASF497
 8177 1b7c 15       		.byte	0x15
 8178 1b7d 0503     		.2byte	0x305
 8179 1b7f 25000000 		.4byte	0x25
 8180 1b83 24       		.byte	0x24
 8181 1b84 0A       		.uleb128 0xa
 8182 1b85 28290000 		.4byte	.LASF498
 8183 1b89 15       		.byte	0x15
 8184 1b8a 0603     		.2byte	0x306
 8185 1b8c 25000000 		.4byte	0x25
 8186 1b90 28       		.byte	0x28
 8187 1b91 09       		.uleb128 0x9
 8188 1b92 72706D00 		.ascii	"rpm\000"
 8189 1b96 15       		.byte	0x15
 8190 1b97 0703     		.2byte	0x307
 8191 1b99 25000000 		.4byte	0x25
 8192 1b9d 2C       		.byte	0x2c
 8193 1b9e 0A       		.uleb128 0xa
 8194 1b9f 30280000 		.4byte	.LASF499
 8195 1ba3 15       		.byte	0x15
 8196 1ba4 0803     		.2byte	0x308
 8197 1ba6 2C000000 		.4byte	0x2c
 8198 1baa 30       		.byte	0x30
 8199 1bab 0A       		.uleb128 0xa
 8200 1bac C81E0000 		.4byte	.LASF500
 8201 1bb0 15       		.byte	0x15
 8202 1bb1 0903     		.2byte	0x309
 8203 1bb3 2C000000 		.4byte	0x2c
 8204 1bb7 34       		.byte	0x34
 8205 1bb8 0A       		.uleb128 0xa
 8206 1bb9 9E120000 		.4byte	.LASF501
 8207 1bbd 15       		.byte	0x15
 8208 1bbe 0A03     		.2byte	0x30a
 8209 1bc0 2C000000 		.4byte	0x2c
 8210 1bc4 38       		.byte	0x38
ARM GAS  /tmp/ccHCUo6g.s 			page 160


 8211 1bc5 0A       		.uleb128 0xa
 8212 1bc6 3D320000 		.4byte	.LASF502
 8213 1bca 15       		.byte	0x15
 8214 1bcb 0B03     		.2byte	0x30b
 8215 1bcd 2C000000 		.4byte	0x2c
 8216 1bd1 3C       		.byte	0x3c
 8217 1bd2 0A       		.uleb128 0xa
 8218 1bd3 F82C0000 		.4byte	.LASF503
 8219 1bd7 15       		.byte	0x15
 8220 1bd8 0C03     		.2byte	0x30c
 8221 1bda 2C000000 		.4byte	0x2c
 8222 1bde 40       		.byte	0x40
 8223 1bdf 0A       		.uleb128 0xa
 8224 1be0 C1250000 		.4byte	.LASF504
 8225 1be4 15       		.byte	0x15
 8226 1be5 0D03     		.2byte	0x30d
 8227 1be7 2C000000 		.4byte	0x2c
 8228 1beb 44       		.byte	0x44
 8229 1bec 0A       		.uleb128 0xa
 8230 1bed BE300000 		.4byte	.LASF505
 8231 1bf1 15       		.byte	0x15
 8232 1bf2 0E03     		.2byte	0x30e
 8233 1bf4 25000000 		.4byte	0x25
 8234 1bf8 48       		.byte	0x48
 8235 1bf9 0A       		.uleb128 0xa
 8236 1bfa 45210000 		.4byte	.LASF506
 8237 1bfe 15       		.byte	0x15
 8238 1bff 0F03     		.2byte	0x30f
 8239 1c01 2C000000 		.4byte	0x2c
 8240 1c05 4C       		.byte	0x4c
 8241 1c06 00       		.byte	0
 8242 1c07 18       		.uleb128 0x18
 8243 1c08 E8380000 		.4byte	.LASF507
 8244 1c0c 15       		.byte	0x15
 8245 1c0d 1003     		.2byte	0x310
 8246 1c0f F91A0000 		.4byte	0x1af9
 8247 1c13 04       		.uleb128 0x4
 8248 1c14 071C0000 		.4byte	0x1c07
 8249 1c18 17       		.uleb128 0x17
 8250 1c19 14       		.byte	0x14
 8251 1c1a 15       		.byte	0x15
 8252 1c1b 2A03     		.2byte	0x32a
 8253 1c1d 621C0000 		.4byte	0x1c62
 8254 1c21 09       		.uleb128 0x9
 8255 1c22 696400   		.ascii	"id\000"
 8256 1c25 15       		.byte	0x15
 8257 1c26 2B03     		.2byte	0x32b
 8258 1c28 2C000000 		.4byte	0x2c
 8259 1c2c 00       		.byte	0
 8260 1c2d 0A       		.uleb128 0xa
 8261 1c2e 43370000 		.4byte	.LASF508
 8262 1c32 15       		.byte	0x15
 8263 1c33 2C03     		.2byte	0x32c
 8264 1c35 8D010000 		.4byte	0x18d
 8265 1c39 04       		.byte	0x4
 8266 1c3a 09       		.uleb128 0x9
 8267 1c3b 72706D00 		.ascii	"rpm\000"
ARM GAS  /tmp/ccHCUo6g.s 			page 161


 8268 1c3f 15       		.byte	0x15
 8269 1c40 2D03     		.2byte	0x32d
 8270 1c42 25000000 		.4byte	0x25
 8271 1c46 08       		.byte	0x8
 8272 1c47 0A       		.uleb128 0xa
 8273 1c48 F21F0000 		.4byte	.LASF489
 8274 1c4c 15       		.byte	0x15
 8275 1c4d 2E03     		.2byte	0x32e
 8276 1c4f 25000000 		.4byte	0x25
 8277 1c53 0C       		.byte	0xc
 8278 1c54 0A       		.uleb128 0xa
 8279 1c55 28290000 		.4byte	.LASF498
 8280 1c59 15       		.byte	0x15
 8281 1c5a 2F03     		.2byte	0x32f
 8282 1c5c 25000000 		.4byte	0x25
 8283 1c60 10       		.byte	0x10
 8284 1c61 00       		.byte	0
 8285 1c62 18       		.uleb128 0x18
 8286 1c63 C7090000 		.4byte	.LASF509
 8287 1c67 15       		.byte	0x15
 8288 1c68 3003     		.2byte	0x330
 8289 1c6a 181C0000 		.4byte	0x1c18
 8290 1c6e 13       		.uleb128 0x13
 8291 1c6f 14240000 		.4byte	.LASF510
 8292 1c73 16       		.byte	0x16
 8293 1c74 7201     		.2byte	0x172
 8294 1c76 AF180000 		.4byte	0x18af
 8295 1c7a 15       		.uleb128 0x15
 8296 1c7b 0C       		.byte	0xc
 8297 1c7c 17       		.byte	0x17
 8298 1c7d DA       		.byte	0xda
 8299 1c7e BF1C0000 		.4byte	0x1cbf
 8300 1c82 08       		.uleb128 0x8
 8301 1c83 1C380000 		.4byte	.LASF511
 8302 1c87 17       		.byte	0x17
 8303 1c88 DB       		.byte	0xdb
 8304 1c89 BF1C0000 		.4byte	0x1cbf
 8305 1c8d 00       		.byte	0
 8306 1c8e 08       		.uleb128 0x8
 8307 1c8f F6180000 		.4byte	.LASF512
 8308 1c93 17       		.byte	0x17
 8309 1c94 DC       		.byte	0xdc
 8310 1c95 C51C0000 		.4byte	0x1cc5
 8311 1c99 04       		.byte	0x4
 8312 1c9a 08       		.uleb128 0x8
 8313 1c9b 08070000 		.4byte	.LASF513
 8314 1c9f 17       		.byte	0x17
 8315 1ca0 DD       		.byte	0xdd
 8316 1ca1 D4000000 		.4byte	0xd4
 8317 1ca5 08       		.byte	0x8
 8318 1ca6 08       		.uleb128 0x8
 8319 1ca7 9C2D0000 		.4byte	.LASF514
 8320 1cab 17       		.byte	0x17
 8321 1cac DF       		.byte	0xdf
 8322 1cad D4000000 		.4byte	0xd4
 8323 1cb1 09       		.byte	0x9
 8324 1cb2 08       		.uleb128 0x8
ARM GAS  /tmp/ccHCUo6g.s 			page 162


 8325 1cb3 D0050000 		.4byte	.LASF515
 8326 1cb7 17       		.byte	0x17
 8327 1cb8 E0       		.byte	0xe0
 8328 1cb9 D4000000 		.4byte	0xd4
 8329 1cbd 0A       		.byte	0xa
 8330 1cbe 00       		.byte	0
 8331 1cbf 0B       		.uleb128 0xb
 8332 1cc0 04       		.byte	0x4
 8333 1cc1 93070000 		.4byte	0x793
 8334 1cc5 0B       		.uleb128 0xb
 8335 1cc6 04       		.byte	0x4
 8336 1cc7 0F010000 		.4byte	0x10f
 8337 1ccb 05       		.uleb128 0x5
 8338 1ccc 45070000 		.4byte	.LASF516
 8339 1cd0 17       		.byte	0x17
 8340 1cd1 E1       		.byte	0xe1
 8341 1cd2 7A1C0000 		.4byte	0x1c7a
 8342 1cd6 06       		.uleb128 0x6
 8343 1cd7 CB1C0000 		.4byte	0x1ccb
 8344 1cdb 11       		.uleb128 0x11
 8345 1cdc D61C0000 		.4byte	0x1cd6
 8346 1ce0 EB1C0000 		.4byte	0x1ceb
 8347 1ce4 12       		.uleb128 0x12
 8348 1ce5 48000000 		.4byte	0x48
 8349 1ce9 0F       		.byte	0xf
 8350 1cea 00       		.byte	0
 8351 1ceb 06       		.uleb128 0x6
 8352 1cec DB1C0000 		.4byte	0x1cdb
 8353 1cf0 13       		.uleb128 0x13
 8354 1cf1 09280000 		.4byte	.LASF517
 8355 1cf5 17       		.byte	0x17
 8356 1cf6 BB01     		.2byte	0x1bb
 8357 1cf8 EB1C0000 		.4byte	0x1ceb
 8358 1cfc 1F       		.uleb128 0x1f
 8359 1cfd 61010000 		.4byte	0x161
 8360 1d01 151D0000 		.4byte	0x1d15
 8361 1d05 0E       		.uleb128 0xe
 8362 1d06 95030000 		.4byte	0x395
 8363 1d0a 0E       		.uleb128 0xe
 8364 1d0b D4000000 		.4byte	0xd4
 8365 1d0f 0E       		.uleb128 0xe
 8366 1d10 8D010000 		.4byte	0x18d
 8367 1d14 00       		.byte	0
 8368 1d15 0B       		.uleb128 0xb
 8369 1d16 04       		.byte	0x4
 8370 1d17 FC1C0000 		.4byte	0x1cfc
 8371 1d1b 1F       		.uleb128 0x1f
 8372 1d1c 61010000 		.4byte	0x161
 8373 1d20 2F1D0000 		.4byte	0x1d2f
 8374 1d24 0E       		.uleb128 0xe
 8375 1d25 95030000 		.4byte	0x395
 8376 1d29 0E       		.uleb128 0xe
 8377 1d2a 8D010000 		.4byte	0x18d
 8378 1d2e 00       		.byte	0
 8379 1d2f 0B       		.uleb128 0xb
 8380 1d30 04       		.byte	0x4
 8381 1d31 1B1D0000 		.4byte	0x1d1b
ARM GAS  /tmp/ccHCUo6g.s 			page 163


 8382 1d35 1F       		.uleb128 0x1f
 8383 1d36 38000000 		.4byte	0x38
 8384 1d3a 531D0000 		.4byte	0x1d53
 8385 1d3e 0E       		.uleb128 0xe
 8386 1d3f 95030000 		.4byte	0x395
 8387 1d43 0E       		.uleb128 0xe
 8388 1d44 8F0F0000 		.4byte	0xf8f
 8389 1d48 0E       		.uleb128 0xe
 8390 1d49 38000000 		.4byte	0x38
 8391 1d4d 0E       		.uleb128 0xe
 8392 1d4e 8D010000 		.4byte	0x18d
 8393 1d52 00       		.byte	0
 8394 1d53 0B       		.uleb128 0xb
 8395 1d54 04       		.byte	0x4
 8396 1d55 351D0000 		.4byte	0x1d35
 8397 1d59 1F       		.uleb128 0x1f
 8398 1d5a 38000000 		.4byte	0x38
 8399 1d5e 771D0000 		.4byte	0x1d77
 8400 1d62 0E       		.uleb128 0xe
 8401 1d63 95030000 		.4byte	0x395
 8402 1d67 0E       		.uleb128 0xe
 8403 1d68 5A0F0000 		.4byte	0xf5a
 8404 1d6c 0E       		.uleb128 0xe
 8405 1d6d 38000000 		.4byte	0x38
 8406 1d71 0E       		.uleb128 0xe
 8407 1d72 8D010000 		.4byte	0x18d
 8408 1d76 00       		.byte	0
 8409 1d77 0B       		.uleb128 0xb
 8410 1d78 04       		.byte	0x4
 8411 1d79 591D0000 		.4byte	0x1d59
 8412 1d7d 15       		.uleb128 0x15
 8413 1d7e 04       		.byte	0x4
 8414 1d7f 18       		.byte	0x18
 8415 1d80 B3       		.byte	0xb3
 8416 1d81 9E1D0000 		.4byte	0x1d9e
 8417 1d85 16       		.uleb128 0x16
 8418 1d86 73657400 		.ascii	"set\000"
 8419 1d8a 18       		.byte	0x18
 8420 1d8b B4       		.byte	0xb4
 8421 1d8c E4000000 		.4byte	0xe4
 8422 1d90 00       		.byte	0
 8423 1d91 08       		.uleb128 0x8
 8424 1d92 49140000 		.4byte	.LASF518
 8425 1d96 18       		.byte	0x18
 8426 1d97 B5       		.byte	0xb5
 8427 1d98 E4000000 		.4byte	0xe4
 8428 1d9c 02       		.byte	0x2
 8429 1d9d 00       		.byte	0
 8430 1d9e 1C       		.uleb128 0x1c
 8431 1d9f 04       		.byte	0x4
 8432 1da0 18       		.byte	0x18
 8433 1da1 B1       		.byte	0xb1
 8434 1da2 B91D0000 		.4byte	0x1db9
 8435 1da6 24       		.uleb128 0x24
 8436 1da7 5700     		.ascii	"W\000"
 8437 1da9 18       		.byte	0x18
 8438 1daa B2       		.byte	0xb2
ARM GAS  /tmp/ccHCUo6g.s 			page 164


 8439 1dab 04010000 		.4byte	0x104
 8440 1daf 24       		.uleb128 0x24
 8441 1db0 4800     		.ascii	"H\000"
 8442 1db2 18       		.byte	0x18
 8443 1db3 B6       		.byte	0xb6
 8444 1db4 7D1D0000 		.4byte	0x1d7d
 8445 1db8 00       		.byte	0
 8446 1db9 04       		.uleb128 0x4
 8447 1dba 9E1D0000 		.4byte	0x1d9e
 8448 1dbe 15       		.uleb128 0x15
 8449 1dbf 2C       		.byte	0x2c
 8450 1dc0 18       		.byte	0x18
 8451 1dc1 A9       		.byte	0xa9
 8452 1dc2 4B1E0000 		.4byte	0x1e4b
 8453 1dc6 08       		.uleb128 0x8
 8454 1dc7 002E0000 		.4byte	.LASF519
 8455 1dcb 18       		.byte	0x18
 8456 1dcc AB       		.byte	0xab
 8457 1dcd 0F010000 		.4byte	0x10f
 8458 1dd1 00       		.byte	0
 8459 1dd2 08       		.uleb128 0x8
 8460 1dd3 52050000 		.4byte	.LASF520
 8461 1dd7 18       		.byte	0x18
 8462 1dd8 AC       		.byte	0xac
 8463 1dd9 0F010000 		.4byte	0x10f
 8464 1ddd 04       		.byte	0x4
 8465 1dde 08       		.uleb128 0x8
 8466 1ddf 5C160000 		.4byte	.LASF521
 8467 1de3 18       		.byte	0x18
 8468 1de4 AD       		.byte	0xad
 8469 1de5 0F010000 		.4byte	0x10f
 8470 1de9 08       		.byte	0x8
 8471 1dea 08       		.uleb128 0x8
 8472 1deb C72C0000 		.4byte	.LASF522
 8473 1def 18       		.byte	0x18
 8474 1df0 AE       		.byte	0xae
 8475 1df1 0F010000 		.4byte	0x10f
 8476 1df5 0C       		.byte	0xc
 8477 1df6 16       		.uleb128 0x16
 8478 1df7 49445200 		.ascii	"IDR\000"
 8479 1dfb 18       		.byte	0x18
 8480 1dfc AF       		.byte	0xaf
 8481 1dfd 0F010000 		.4byte	0x10f
 8482 1e01 10       		.byte	0x10
 8483 1e02 16       		.uleb128 0x16
 8484 1e03 4F445200 		.ascii	"ODR\000"
 8485 1e07 18       		.byte	0x18
 8486 1e08 B0       		.byte	0xb0
 8487 1e09 0F010000 		.4byte	0x10f
 8488 1e0d 14       		.byte	0x14
 8489 1e0e 08       		.uleb128 0x8
 8490 1e0f 491C0000 		.4byte	.LASF523
 8491 1e13 18       		.byte	0x18
 8492 1e14 B7       		.byte	0xb7
 8493 1e15 B91D0000 		.4byte	0x1db9
 8494 1e19 18       		.byte	0x18
 8495 1e1a 08       		.uleb128 0x8
ARM GAS  /tmp/ccHCUo6g.s 			page 165


 8496 1e1b EA230000 		.4byte	.LASF524
 8497 1e1f 18       		.byte	0x18
 8498 1e20 B8       		.byte	0xb8
 8499 1e21 0F010000 		.4byte	0x10f
 8500 1e25 1C       		.byte	0x1c
 8501 1e26 08       		.uleb128 0x8
 8502 1e27 7C290000 		.4byte	.LASF525
 8503 1e2b 18       		.byte	0x18
 8504 1e2c B9       		.byte	0xb9
 8505 1e2d 0F010000 		.4byte	0x10f
 8506 1e31 20       		.byte	0x20
 8507 1e32 08       		.uleb128 0x8
 8508 1e33 98280000 		.4byte	.LASF526
 8509 1e37 18       		.byte	0x18
 8510 1e38 BA       		.byte	0xba
 8511 1e39 0F010000 		.4byte	0x10f
 8512 1e3d 24       		.byte	0x24
 8513 1e3e 16       		.uleb128 0x16
 8514 1e3f 42525200 		.ascii	"BRR\000"
 8515 1e43 18       		.byte	0x18
 8516 1e44 BB       		.byte	0xbb
 8517 1e45 0F010000 		.4byte	0x10f
 8518 1e49 28       		.byte	0x28
 8519 1e4a 00       		.byte	0
 8520 1e4b 05       		.uleb128 0x5
 8521 1e4c 07190000 		.4byte	.LASF527
 8522 1e50 18       		.byte	0x18
 8523 1e51 BC       		.byte	0xbc
 8524 1e52 BE1D0000 		.4byte	0x1dbe
 8525 1e56 15       		.uleb128 0x15
 8526 1e57 1C       		.byte	0x1c
 8527 1e58 18       		.byte	0x18
 8528 1e59 C1       		.byte	0xc1
 8529 1e5a B31E0000 		.4byte	0x1eb3
 8530 1e5e 08       		.uleb128 0x8
 8531 1e5f 58330000 		.4byte	.LASF528
 8532 1e63 18       		.byte	0x18
 8533 1e64 C3       		.byte	0xc3
 8534 1e65 04010000 		.4byte	0x104
 8535 1e69 00       		.byte	0
 8536 1e6a 08       		.uleb128 0x8
 8537 1e6b C4040000 		.4byte	.LASF529
 8538 1e6f 18       		.byte	0x18
 8539 1e70 C5       		.byte	0xc5
 8540 1e71 04010000 		.4byte	0x104
 8541 1e75 04       		.byte	0x4
 8542 1e76 08       		.uleb128 0x8
 8543 1e77 9D030000 		.4byte	.LASF530
 8544 1e7b 18       		.byte	0x18
 8545 1e7c C7       		.byte	0xc7
 8546 1e7d 04010000 		.4byte	0x104
 8547 1e81 08       		.byte	0x8
 8548 1e82 08       		.uleb128 0x8
 8549 1e83 F3310000 		.4byte	.LASF531
 8550 1e87 18       		.byte	0x18
 8551 1e88 C9       		.byte	0xc9
 8552 1e89 04010000 		.4byte	0x104
ARM GAS  /tmp/ccHCUo6g.s 			page 166


 8553 1e8d 0C       		.byte	0xc
 8554 1e8e 16       		.uleb128 0x16
 8555 1e8f 6F647200 		.ascii	"odr\000"
 8556 1e93 18       		.byte	0x18
 8557 1e94 CB       		.byte	0xcb
 8558 1e95 04010000 		.4byte	0x104
 8559 1e99 10       		.byte	0x10
 8560 1e9a 08       		.uleb128 0x8
 8561 1e9b 582D0000 		.4byte	.LASF532
 8562 1e9f 18       		.byte	0x18
 8563 1ea0 CD       		.byte	0xcd
 8564 1ea1 04010000 		.4byte	0x104
 8565 1ea5 14       		.byte	0x14
 8566 1ea6 08       		.uleb128 0x8
 8567 1ea7 6E0C0000 		.4byte	.LASF533
 8568 1eab 18       		.byte	0x18
 8569 1eac CF       		.byte	0xcf
 8570 1ead 04010000 		.4byte	0x104
 8571 1eb1 18       		.byte	0x18
 8572 1eb2 00       		.byte	0
 8573 1eb3 05       		.uleb128 0x5
 8574 1eb4 BB270000 		.4byte	.LASF534
 8575 1eb8 18       		.byte	0x18
 8576 1eb9 D0       		.byte	0xd0
 8577 1eba 561E0000 		.4byte	0x1e56
 8578 1ebe 15       		.uleb128 0x15
 8579 1ebf FC       		.byte	0xfc
 8580 1ec0 18       		.byte	0x18
 8581 1ec1 D9       		.byte	0xd9
 8582 1ec2 331F0000 		.4byte	0x1f33
 8583 1ec6 08       		.uleb128 0x8
 8584 1ec7 BC190000 		.4byte	.LASF535
 8585 1ecb 18       		.byte	0x18
 8586 1ecc DC       		.byte	0xdc
 8587 1ecd B31E0000 		.4byte	0x1eb3
 8588 1ed1 00       		.byte	0
 8589 1ed2 08       		.uleb128 0x8
 8590 1ed3 97040000 		.4byte	.LASF536
 8591 1ed7 18       		.byte	0x18
 8592 1ed8 E0       		.byte	0xe0
 8593 1ed9 B31E0000 		.4byte	0x1eb3
 8594 1edd 1C       		.byte	0x1c
 8595 1ede 08       		.uleb128 0x8
 8596 1edf AC020000 		.4byte	.LASF537
 8597 1ee3 18       		.byte	0x18
 8598 1ee4 E4       		.byte	0xe4
 8599 1ee5 B31E0000 		.4byte	0x1eb3
 8600 1ee9 38       		.byte	0x38
 8601 1eea 08       		.uleb128 0x8
 8602 1eeb C7150000 		.4byte	.LASF538
 8603 1eef 18       		.byte	0x18
 8604 1ef0 E8       		.byte	0xe8
 8605 1ef1 B31E0000 		.4byte	0x1eb3
 8606 1ef5 54       		.byte	0x54
 8607 1ef6 08       		.uleb128 0x8
 8608 1ef7 7F260000 		.4byte	.LASF539
 8609 1efb 18       		.byte	0x18
ARM GAS  /tmp/ccHCUo6g.s 			page 167


 8610 1efc EC       		.byte	0xec
 8611 1efd B31E0000 		.4byte	0x1eb3
 8612 1f01 70       		.byte	0x70
 8613 1f02 08       		.uleb128 0x8
 8614 1f03 41390000 		.4byte	.LASF540
 8615 1f07 18       		.byte	0x18
 8616 1f08 F0       		.byte	0xf0
 8617 1f09 B31E0000 		.4byte	0x1eb3
 8618 1f0d 8C       		.byte	0x8c
 8619 1f0e 08       		.uleb128 0x8
 8620 1f0f 79100000 		.4byte	.LASF541
 8621 1f13 18       		.byte	0x18
 8622 1f14 F4       		.byte	0xf4
 8623 1f15 B31E0000 		.4byte	0x1eb3
 8624 1f19 A8       		.byte	0xa8
 8625 1f1a 08       		.uleb128 0x8
 8626 1f1b 00230000 		.4byte	.LASF542
 8627 1f1f 18       		.byte	0x18
 8628 1f20 F8       		.byte	0xf8
 8629 1f21 B31E0000 		.4byte	0x1eb3
 8630 1f25 C4       		.byte	0xc4
 8631 1f26 08       		.uleb128 0x8
 8632 1f27 16360000 		.4byte	.LASF543
 8633 1f2b 18       		.byte	0x18
 8634 1f2c FC       		.byte	0xfc
 8635 1f2d B31E0000 		.4byte	0x1eb3
 8636 1f31 E0       		.byte	0xe0
 8637 1f32 00       		.byte	0
 8638 1f33 05       		.uleb128 0x5
 8639 1f34 780F0000 		.4byte	.LASF544
 8640 1f38 18       		.byte	0x18
 8641 1f39 FE       		.byte	0xfe
 8642 1f3a BE1E0000 		.4byte	0x1ebe
 8643 1f3e 06       		.uleb128 0x6
 8644 1f3f 331F0000 		.4byte	0x1f33
 8645 1f43 18       		.uleb128 0x18
 8646 1f44 07230000 		.4byte	.LASF545
 8647 1f48 18       		.byte	0x18
 8648 1f49 1B01     		.2byte	0x11b
 8649 1f4b 4F1F0000 		.4byte	0x1f4f
 8650 1f4f 0B       		.uleb128 0xb
 8651 1f50 04       		.byte	0x4
 8652 1f51 4B1E0000 		.4byte	0x1e4b
 8653 1f55 13       		.uleb128 0x13
 8654 1f56 B32E0000 		.4byte	.LASF546
 8655 1f5a 18       		.byte	0x18
 8656 1f5b DA01     		.2byte	0x1da
 8657 1f5d 3E1F0000 		.4byte	0x1f3e
 8658 1f61 20       		.uleb128 0x20
 8659 1f62 07       		.byte	0x7
 8660 1f63 01       		.byte	0x1
 8661 1f64 6C000000 		.4byte	0x6c
 8662 1f68 19       		.byte	0x19
 8663 1f69 5F       		.byte	0x5f
 8664 1f6a 8D1F0000 		.4byte	0x1f8d
 8665 1f6e 21       		.uleb128 0x21
 8666 1f6f 0F0E0000 		.4byte	.LASF547
ARM GAS  /tmp/ccHCUo6g.s 			page 168


 8667 1f73 00       		.byte	0
 8668 1f74 21       		.uleb128 0x21
 8669 1f75 54010000 		.4byte	.LASF548
 8670 1f79 01       		.byte	0x1
 8671 1f7a 21       		.uleb128 0x21
 8672 1f7b 7D000000 		.4byte	.LASF549
 8673 1f7f 02       		.byte	0x2
 8674 1f80 21       		.uleb128 0x21
 8675 1f81 50080000 		.4byte	.LASF550
 8676 1f85 03       		.byte	0x3
 8677 1f86 21       		.uleb128 0x21
 8678 1f87 EF0D0000 		.4byte	.LASF551
 8679 1f8b 04       		.byte	0x4
 8680 1f8c 00       		.byte	0
 8681 1f8d 05       		.uleb128 0x5
 8682 1f8e 9B080000 		.4byte	.LASF552
 8683 1f92 19       		.byte	0x19
 8684 1f93 65       		.byte	0x65
 8685 1f94 611F0000 		.4byte	0x1f61
 8686 1f98 15       		.uleb128 0x15
 8687 1f99 08       		.byte	0x8
 8688 1f9a 1A       		.byte	0x1a
 8689 1f9b F4       		.byte	0xf4
 8690 1f9c BA1F0000 		.4byte	0x1fba
 8691 1fa0 16       		.uleb128 0x16
 8692 1fa1 6D637200 		.ascii	"mcr\000"
 8693 1fa5 1A       		.byte	0x1a
 8694 1fa6 FA       		.byte	0xfa
 8695 1fa7 04010000 		.4byte	0x104
 8696 1fab 00       		.byte	0
 8697 1fac 09       		.uleb128 0x9
 8698 1fad 62747200 		.ascii	"btr\000"
 8699 1fb1 1A       		.byte	0x1a
 8700 1fb2 0001     		.2byte	0x100
 8701 1fb4 04010000 		.4byte	0x104
 8702 1fb8 04       		.byte	0x4
 8703 1fb9 00       		.byte	0
 8704 1fba 18       		.uleb128 0x18
 8705 1fbb 75260000 		.4byte	.LASF553
 8706 1fbf 1A       		.byte	0x1a
 8707 1fc0 0101     		.2byte	0x101
 8708 1fc2 981F0000 		.4byte	0x1f98
 8709 1fc6 06       		.uleb128 0x6
 8710 1fc7 BA1F0000 		.4byte	0x1fba
 8711 1fcb 17       		.uleb128 0x17
 8712 1fcc 30       		.byte	0x30
 8713 1fcd 1A       		.byte	0x1a
 8714 1fce 0601     		.2byte	0x106
 8715 1fd0 57200000 		.4byte	0x2057
 8716 1fd4 0A       		.uleb128 0xa
 8717 1fd5 CE200000 		.4byte	.LASF554
 8718 1fd9 1A       		.byte	0x1a
 8719 1fda 0A01     		.2byte	0x10a
 8720 1fdc 8D1F0000 		.4byte	0x1f8d
 8721 1fe0 00       		.byte	0
 8722 1fe1 0A       		.uleb128 0xa
 8723 1fe2 E0330000 		.4byte	.LASF555
ARM GAS  /tmp/ccHCUo6g.s 			page 169


 8724 1fe6 1A       		.byte	0x1a
 8725 1fe7 0E01     		.2byte	0x10e
 8726 1fe9 57200000 		.4byte	0x2057
 8727 1fed 04       		.byte	0x4
 8728 1fee 0A       		.uleb128 0xa
 8729 1fef 640D0000 		.4byte	.LASF556
 8730 1ff3 1A       		.byte	0x1a
 8731 1ff4 1201     		.2byte	0x112
 8732 1ff6 E2020000 		.4byte	0x2e2
 8733 1ffa 08       		.byte	0x8
 8734 1ffb 0A       		.uleb128 0xa
 8735 1ffc 892E0000 		.4byte	.LASF557
 8736 2000 1A       		.byte	0x1a
 8737 2001 1601     		.2byte	0x116
 8738 2003 E2020000 		.4byte	0x2e2
 8739 2007 10       		.byte	0x10
 8740 2008 0A       		.uleb128 0xa
 8741 2009 4B260000 		.4byte	.LASF558
 8742 200d 1A       		.byte	0x1a
 8743 200e 2301     		.2byte	0x123
 8744 2010 B50E0000 		.4byte	0xeb5
 8745 2014 18       		.byte	0x18
 8746 2015 0A       		.uleb128 0xa
 8747 2016 57100000 		.4byte	.LASF559
 8748 201a 1A       		.byte	0x1a
 8749 201b 2A01     		.2byte	0x12a
 8750 201d B50E0000 		.4byte	0xeb5
 8751 2021 1C       		.byte	0x1c
 8752 2022 0A       		.uleb128 0xa
 8753 2023 42160000 		.4byte	.LASF560
 8754 2027 1A       		.byte	0x1a
 8755 2028 3001     		.2byte	0x130
 8756 202a B50E0000 		.4byte	0xeb5
 8757 202e 20       		.byte	0x20
 8758 202f 0A       		.uleb128 0xa
 8759 2030 AD050000 		.4byte	.LASF561
 8760 2034 1A       		.byte	0x1a
 8761 2035 3501     		.2byte	0x135
 8762 2037 B50E0000 		.4byte	0xeb5
 8763 203b 24       		.byte	0x24
 8764 203c 0A       		.uleb128 0xa
 8765 203d 000D0000 		.4byte	.LASF562
 8766 2041 1A       		.byte	0x1a
 8767 2042 3901     		.2byte	0x139
 8768 2044 B50E0000 		.4byte	0xeb5
 8769 2048 28       		.byte	0x28
 8770 2049 09       		.uleb128 0x9
 8771 204a 63616E00 		.ascii	"can\000"
 8772 204e 1A       		.byte	0x1a
 8773 204f 3F01     		.2byte	0x13f
 8774 2051 5D200000 		.4byte	0x205d
 8775 2055 2C       		.byte	0x2c
 8776 2056 00       		.byte	0
 8777 2057 0B       		.uleb128 0xb
 8778 2058 04       		.byte	0x4
 8779 2059 C61F0000 		.4byte	0x1fc6
 8780 205d 0B       		.uleb128 0xb
ARM GAS  /tmp/ccHCUo6g.s 			page 170


 8781 205e 04       		.byte	0x4
 8782 205f 30070000 		.4byte	0x730
 8783 2063 18       		.uleb128 0x18
 8784 2064 17060000 		.4byte	.LASF563
 8785 2068 1A       		.byte	0x1a
 8786 2069 4001     		.2byte	0x140
 8787 206b CB1F0000 		.4byte	0x1fcb
 8788 206f 13       		.uleb128 0x13
 8789 2070 AC310000 		.4byte	.LASF564
 8790 2074 1A       		.byte	0x1a
 8791 2075 4B01     		.2byte	0x14b
 8792 2077 63200000 		.4byte	0x2063
 8793 207b 20       		.uleb128 0x20
 8794 207c 07       		.byte	0x7
 8795 207d 01       		.byte	0x1
 8796 207e 6C000000 		.4byte	0x6c
 8797 2082 1B       		.byte	0x1b
 8798 2083 4C       		.byte	0x4c
 8799 2084 AD200000 		.4byte	0x20ad
 8800 2088 21       		.uleb128 0x21
 8801 2089 29090000 		.4byte	.LASF565
 8802 208d 00       		.byte	0
 8803 208e 21       		.uleb128 0x21
 8804 208f 07160000 		.4byte	.LASF566
 8805 2093 01       		.byte	0x1
 8806 2094 21       		.uleb128 0x21
 8807 2095 BD090000 		.4byte	.LASF567
 8808 2099 02       		.byte	0x2
 8809 209a 21       		.uleb128 0x21
 8810 209b 32070000 		.4byte	.LASF568
 8811 209f 03       		.byte	0x3
 8812 20a0 21       		.uleb128 0x21
 8813 20a1 8C050000 		.4byte	.LASF569
 8814 20a5 04       		.byte	0x4
 8815 20a6 21       		.uleb128 0x21
 8816 20a7 DB1C0000 		.4byte	.LASF570
 8817 20ab 05       		.byte	0x5
 8818 20ac 00       		.byte	0
 8819 20ad 05       		.uleb128 0x5
 8820 20ae 381A0000 		.4byte	.LASF571
 8821 20b2 1B       		.byte	0x1b
 8822 20b3 53       		.byte	0x53
 8823 20b4 7B200000 		.4byte	0x207b
 8824 20b8 18       		.uleb128 0x18
 8825 20b9 A0070000 		.4byte	.LASF572
 8826 20bd 1C       		.byte	0x1c
 8827 20be 6A01     		.2byte	0x16a
 8828 20c0 E4000000 		.4byte	0xe4
 8829 20c4 18       		.uleb128 0x18
 8830 20c5 47060000 		.4byte	.LASF573
 8831 20c9 1C       		.byte	0x1c
 8832 20ca 6F01     		.2byte	0x16f
 8833 20cc 04010000 		.4byte	0x104
 8834 20d0 23       		.uleb128 0x23
 8835 20d1 07       		.byte	0x7
 8836 20d2 01       		.byte	0x1
 8837 20d3 6C000000 		.4byte	0x6c
ARM GAS  /tmp/ccHCUo6g.s 			page 171


 8838 20d7 1C       		.byte	0x1c
 8839 20d8 7401     		.2byte	0x174
 8840 20da F1200000 		.4byte	0x20f1
 8841 20de 21       		.uleb128 0x21
 8842 20df 15160000 		.4byte	.LASF574
 8843 20e3 01       		.byte	0x1
 8844 20e4 21       		.uleb128 0x21
 8845 20e5 C6000000 		.4byte	.LASF575
 8846 20e9 02       		.byte	0x2
 8847 20ea 21       		.uleb128 0x21
 8848 20eb 890D0000 		.4byte	.LASF576
 8849 20ef 03       		.byte	0x3
 8850 20f0 00       		.byte	0
 8851 20f1 18       		.uleb128 0x18
 8852 20f2 23380000 		.4byte	.LASF577
 8853 20f6 1C       		.byte	0x1c
 8854 20f7 7801     		.2byte	0x178
 8855 20f9 D0200000 		.4byte	0x20d0
 8856 20fd 23       		.uleb128 0x23
 8857 20fe 07       		.byte	0x7
 8858 20ff 01       		.byte	0x1
 8859 2100 6C000000 		.4byte	0x6c
 8860 2104 1C       		.byte	0x1c
 8861 2105 7D01     		.2byte	0x17d
 8862 2107 1E210000 		.4byte	0x211e
 8863 210b 21       		.uleb128 0x21
 8864 210c 19150000 		.4byte	.LASF578
 8865 2110 01       		.byte	0x1
 8866 2111 21       		.uleb128 0x21
 8867 2112 75370000 		.4byte	.LASF579
 8868 2116 02       		.byte	0x2
 8869 2117 21       		.uleb128 0x21
 8870 2118 030F0000 		.4byte	.LASF580
 8871 211c 03       		.byte	0x3
 8872 211d 00       		.byte	0
 8873 211e 18       		.uleb128 0x18
 8874 211f DF090000 		.4byte	.LASF581
 8875 2123 1C       		.byte	0x1c
 8876 2124 8101     		.2byte	0x181
 8877 2126 FD200000 		.4byte	0x20fd
 8878 212a 17       		.uleb128 0x17
 8879 212b 0C       		.byte	0xc
 8880 212c 1C       		.byte	0x1c
 8881 212d 8601     		.2byte	0x186
 8882 212f 5B210000 		.4byte	0x215b
 8883 2133 0A       		.uleb128 0xa
 8884 2134 EB080000 		.4byte	.LASF582
 8885 2138 1C       		.byte	0x1c
 8886 2139 8801     		.2byte	0x188
 8887 213b F1200000 		.4byte	0x20f1
 8888 213f 00       		.byte	0
 8889 2140 0A       		.uleb128 0xa
 8890 2141 01060000 		.4byte	.LASF583
 8891 2145 1C       		.byte	0x1c
 8892 2146 8901     		.2byte	0x189
 8893 2148 04010000 		.4byte	0x104
 8894 214c 04       		.byte	0x4
ARM GAS  /tmp/ccHCUo6g.s 			page 172


 8895 214d 0A       		.uleb128 0xa
 8896 214e 17390000 		.4byte	.LASF584
 8897 2152 1C       		.byte	0x1c
 8898 2153 8C01     		.2byte	0x18c
 8899 2155 1E210000 		.4byte	0x211e
 8900 2159 08       		.byte	0x8
 8901 215a 00       		.byte	0
 8902 215b 18       		.uleb128 0x18
 8903 215c 58030000 		.4byte	.LASF585
 8904 2160 1C       		.byte	0x1c
 8905 2161 8E01     		.2byte	0x18e
 8906 2163 2A210000 		.4byte	0x212a
 8907 2167 06       		.uleb128 0x6
 8908 2168 5B210000 		.4byte	0x215b
 8909 216c 18       		.uleb128 0x18
 8910 216d 28070000 		.4byte	.LASF586
 8911 2171 1C       		.byte	0x1c
 8912 2172 9301     		.2byte	0x193
 8913 2174 78210000 		.4byte	0x2178
 8914 2178 0C       		.uleb128 0xc
 8915 2179 28070000 		.4byte	.LASF586
 8916 217d 38       		.byte	0x38
 8917 217e 1C       		.byte	0x1c
 8918 217f 9801     		.2byte	0x198
 8919 2181 15220000 		.4byte	0x2215
 8920 2185 0A       		.uleb128 0xa
 8921 2186 CE200000 		.4byte	.LASF554
 8922 218a 1C       		.byte	0x1c
 8923 218b 9C01     		.2byte	0x19c
 8924 218d AD200000 		.4byte	0x20ad
 8925 2191 00       		.byte	0
 8926 2192 0A       		.uleb128 0xa
 8927 2193 E0330000 		.4byte	.LASF555
 8928 2197 1C       		.byte	0x1c
 8929 2198 A001     		.2byte	0x1a0
 8930 219a 15220000 		.4byte	0x2215
 8931 219e 04       		.byte	0x4
 8932 219f 0A       		.uleb128 0xa
 8933 21a0 08020000 		.4byte	.LASF587
 8934 21a4 1C       		.byte	0x1c
 8935 21a5 A401     		.2byte	0x1a4
 8936 21a7 C4200000 		.4byte	0x20c4
 8937 21ab 08       		.byte	0x8
 8938 21ac 0A       		.uleb128 0xa
 8939 21ad 8A130000 		.4byte	.LASF588
 8940 21b1 1C       		.byte	0x1c
 8941 21b2 A901     		.2byte	0x1a9
 8942 21b4 310E0000 		.4byte	0xe31
 8943 21b8 0C       		.byte	0xc
 8944 21b9 0A       		.uleb128 0xa
 8945 21ba 240A0000 		.4byte	.LASF589
 8946 21be 1C       		.byte	0x1c
 8947 21bf B201     		.2byte	0x1b2
 8948 21c1 AD020000 		.4byte	0x2ad
 8949 21c5 1C       		.byte	0x1c
 8950 21c6 0A       		.uleb128 0xa
 8951 21c7 10160000 		.4byte	.LASF590
ARM GAS  /tmp/ccHCUo6g.s 			page 173


 8952 21cb 1C       		.byte	0x1c
 8953 21cc B601     		.2byte	0x1b6
 8954 21ce B8200000 		.4byte	0x20b8
 8955 21d2 20       		.byte	0x20
 8956 21d3 0A       		.uleb128 0xa
 8957 21d4 EF0B0000 		.4byte	.LASF591
 8958 21d8 1C       		.byte	0x1c
 8959 21d9 BA01     		.2byte	0x1ba
 8960 21db 04010000 		.4byte	0x104
 8961 21df 24       		.byte	0x24
 8962 21e0 0A       		.uleb128 0xa
 8963 21e1 640C0000 		.4byte	.LASF592
 8964 21e5 1C       		.byte	0x1c
 8965 21e6 BE01     		.2byte	0x1be
 8966 21e8 04010000 		.4byte	0x104
 8967 21ec 28       		.byte	0x28
 8968 21ed 0A       		.uleb128 0xa
 8969 21ee C7010000 		.4byte	.LASF593
 8970 21f2 1C       		.byte	0x1c
 8971 21f3 C201     		.2byte	0x1c2
 8972 21f5 1B220000 		.4byte	0x221b
 8973 21f9 2C       		.byte	0x2c
 8974 21fa 0A       		.uleb128 0xa
 8975 21fb 6B030000 		.4byte	.LASF594
 8976 21ff 1C       		.byte	0x1c
 8977 2200 C601     		.2byte	0x1c6
 8978 2202 1B220000 		.4byte	0x221b
 8979 2206 30       		.byte	0x30
 8980 2207 09       		.uleb128 0x9
 8981 2208 69326300 		.ascii	"i2c\000"
 8982 220c 1C       		.byte	0x1c
 8983 220d CA01     		.2byte	0x1ca
 8984 220f 21220000 		.4byte	0x2221
 8985 2213 34       		.byte	0x34
 8986 2214 00       		.byte	0
 8987 2215 0B       		.uleb128 0xb
 8988 2216 04       		.byte	0x4
 8989 2217 67210000 		.4byte	0x2167
 8990 221b 0B       		.uleb128 0xb
 8991 221c 04       		.byte	0x4
 8992 221d D61C0000 		.4byte	0x1cd6
 8993 2221 0B       		.uleb128 0xb
 8994 2222 04       		.byte	0x4
 8995 2223 54080000 		.4byte	0x854
 8996 2227 13       		.uleb128 0x13
 8997 2228 961A0000 		.4byte	.LASF595
 8998 222c 1C       		.byte	0x1c
 8999 222d E401     		.2byte	0x1e4
 9000 222f 6C210000 		.4byte	0x216c
 9001 2233 20       		.uleb128 0x20
 9002 2234 07       		.byte	0x7
 9003 2235 01       		.byte	0x1
 9004 2236 6C000000 		.4byte	0x6c
 9005 223a 1D       		.byte	0x1d
 9006 223b 31       		.byte	0x31
 9007 223c 5F220000 		.4byte	0x225f
 9008 2240 21       		.uleb128 0x21
ARM GAS  /tmp/ccHCUo6g.s 			page 174


 9009 2241 4F360000 		.4byte	.LASF596
 9010 2245 00       		.byte	0
 9011 2246 21       		.uleb128 0x21
 9012 2247 4F2D0000 		.4byte	.LASF597
 9013 224b 01       		.byte	0x1
 9014 224c 21       		.uleb128 0x21
 9015 224d B1070000 		.4byte	.LASF598
 9016 2251 02       		.byte	0x2
 9017 2252 21       		.uleb128 0x21
 9018 2253 2A1E0000 		.4byte	.LASF599
 9019 2257 03       		.byte	0x3
 9020 2258 21       		.uleb128 0x21
 9021 2259 CE2A0000 		.4byte	.LASF600
 9022 225d 04       		.byte	0x4
 9023 225e 00       		.byte	0
 9024 225f 05       		.uleb128 0x5
 9025 2260 9A300000 		.4byte	.LASF601
 9026 2264 1D       		.byte	0x1d
 9027 2265 37       		.byte	0x37
 9028 2266 33220000 		.4byte	0x2233
 9029 226a 05       		.uleb128 0x5
 9030 226b B7250000 		.4byte	.LASF602
 9031 226f 1D       		.byte	0x1d
 9032 2270 3C       		.byte	0x3c
 9033 2271 75220000 		.4byte	0x2275
 9034 2275 0C       		.uleb128 0xc
 9035 2276 B7250000 		.4byte	.LASF602
 9036 227a 18       		.byte	0x18
 9037 227b 1E       		.byte	0x1e
 9038 227c 3101     		.2byte	0x131
 9039 227e D1220000 		.4byte	0x22d1
 9040 2282 0A       		.uleb128 0xa
 9041 2283 CE200000 		.4byte	.LASF554
 9042 2287 1E       		.byte	0x1e
 9043 2288 3501     		.2byte	0x135
 9044 228a 5F220000 		.4byte	0x225f
 9045 228e 00       		.byte	0
 9046 228f 0A       		.uleb128 0xa
 9047 2290 E0330000 		.4byte	.LASF555
 9048 2294 1E       		.byte	0x1e
 9049 2295 3901     		.2byte	0x139
 9050 2297 D6240000 		.4byte	0x24d6
 9051 229b 04       		.byte	0x4
 9052 229c 0A       		.uleb128 0xa
 9053 229d 062E0000 		.4byte	.LASF603
 9054 22a1 1E       		.byte	0x1e
 9055 22a2 4101     		.2byte	0x141
 9056 22a4 04010000 		.4byte	0x104
 9057 22a8 08       		.byte	0x8
 9058 22a9 09       		.uleb128 0x9
 9059 22aa 74696D00 		.ascii	"tim\000"
 9060 22ae 1E       		.byte	0x1e
 9061 22af 4501     		.2byte	0x145
 9062 22b1 DC240000 		.4byte	0x24dc
 9063 22b5 0C       		.byte	0xc
 9064 22b6 0A       		.uleb128 0xa
 9065 22b7 E22C0000 		.4byte	.LASF604
ARM GAS  /tmp/ccHCUo6g.s 			page 175


 9066 22bb 1E       		.byte	0x1e
 9067 22bc 4901     		.2byte	0x149
 9068 22be C51C0000 		.4byte	0x1cc5
 9069 22c2 10       		.byte	0x10
 9070 22c3 0A       		.uleb128 0xa
 9071 22c4 D9070000 		.4byte	.LASF605
 9072 22c8 1E       		.byte	0x1e
 9073 22c9 4D01     		.2byte	0x14d
 9074 22cb C51C0000 		.4byte	0x1cc5
 9075 22cf 14       		.byte	0x14
 9076 22d0 00       		.byte	0
 9077 22d1 05       		.uleb128 0x5
 9078 22d2 75270000 		.4byte	.LASF606
 9079 22d6 1D       		.byte	0x1d
 9080 22d7 43       		.byte	0x43
 9081 22d8 DC220000 		.4byte	0x22dc
 9082 22dc 0B       		.uleb128 0xb
 9083 22dd 04       		.byte	0x4
 9084 22de E2220000 		.4byte	0x22e2
 9085 22e2 0D       		.uleb128 0xd
 9086 22e3 ED220000 		.4byte	0x22ed
 9087 22e7 0E       		.uleb128 0xe
 9088 22e8 ED220000 		.4byte	0x22ed
 9089 22ec 00       		.byte	0
 9090 22ed 0B       		.uleb128 0xb
 9091 22ee 04       		.byte	0x4
 9092 22ef 6A220000 		.4byte	0x226a
 9093 22f3 17       		.uleb128 0x17
 9094 22f4 60       		.byte	0x60
 9095 22f5 1F       		.byte	0x1f
 9096 22f6 9E01     		.2byte	0x19e
 9097 22f8 FF230000 		.4byte	0x23ff
 9098 22fc 09       		.uleb128 0x9
 9099 22fd 43523100 		.ascii	"CR1\000"
 9100 2301 1F       		.byte	0x1f
 9101 2302 9F01     		.2byte	0x19f
 9102 2304 0F010000 		.4byte	0x10f
 9103 2308 00       		.byte	0
 9104 2309 09       		.uleb128 0x9
 9105 230a 43523200 		.ascii	"CR2\000"
 9106 230e 1F       		.byte	0x1f
 9107 230f A001     		.2byte	0x1a0
 9108 2311 0F010000 		.4byte	0x10f
 9109 2315 04       		.byte	0x4
 9110 2316 0A       		.uleb128 0xa
 9111 2317 B9300000 		.4byte	.LASF130
 9112 231b 1F       		.byte	0x1f
 9113 231c A101     		.2byte	0x1a1
 9114 231e 0F010000 		.4byte	0x10f
 9115 2322 08       		.byte	0x8
 9116 2323 0A       		.uleb128 0xa
 9117 2324 3A0E0000 		.4byte	.LASF131
 9118 2328 1F       		.byte	0x1f
 9119 2329 A201     		.2byte	0x1a2
 9120 232b 0F010000 		.4byte	0x10f
 9121 232f 0C       		.byte	0xc
 9122 2330 09       		.uleb128 0x9
ARM GAS  /tmp/ccHCUo6g.s 			page 176


 9123 2331 535200   		.ascii	"SR\000"
 9124 2334 1F       		.byte	0x1f
 9125 2335 A301     		.2byte	0x1a3
 9126 2337 0F010000 		.4byte	0x10f
 9127 233b 10       		.byte	0x10
 9128 233c 09       		.uleb128 0x9
 9129 233d 45475200 		.ascii	"EGR\000"
 9130 2341 1F       		.byte	0x1f
 9131 2342 A401     		.2byte	0x1a4
 9132 2344 0F010000 		.4byte	0x10f
 9133 2348 14       		.byte	0x14
 9134 2349 0A       		.uleb128 0xa
 9135 234a D5370000 		.4byte	.LASF132
 9136 234e 1F       		.byte	0x1f
 9137 234f A501     		.2byte	0x1a5
 9138 2351 0F010000 		.4byte	0x10f
 9139 2355 18       		.byte	0x18
 9140 2356 0A       		.uleb128 0xa
 9141 2357 DB370000 		.4byte	.LASF133
 9142 235b 1F       		.byte	0x1f
 9143 235c A601     		.2byte	0x1a6
 9144 235e 0F010000 		.4byte	0x10f
 9145 2362 1C       		.byte	0x1c
 9146 2363 0A       		.uleb128 0xa
 9147 2364 910A0000 		.4byte	.LASF134
 9148 2368 1F       		.byte	0x1f
 9149 2369 A701     		.2byte	0x1a7
 9150 236b 0F010000 		.4byte	0x10f
 9151 236f 20       		.byte	0x20
 9152 2370 09       		.uleb128 0x9
 9153 2371 434E5400 		.ascii	"CNT\000"
 9154 2375 1F       		.byte	0x1f
 9155 2376 A801     		.2byte	0x1a8
 9156 2378 0F010000 		.4byte	0x10f
 9157 237c 24       		.byte	0x24
 9158 237d 09       		.uleb128 0x9
 9159 237e 50534300 		.ascii	"PSC\000"
 9160 2382 1F       		.byte	0x1f
 9161 2383 A901     		.2byte	0x1a9
 9162 2385 0F010000 		.4byte	0x10f
 9163 2389 28       		.byte	0x28
 9164 238a 09       		.uleb128 0x9
 9165 238b 41525200 		.ascii	"ARR\000"
 9166 238f 1F       		.byte	0x1f
 9167 2390 AA01     		.2byte	0x1aa
 9168 2392 0F010000 		.4byte	0x10f
 9169 2396 2C       		.byte	0x2c
 9170 2397 09       		.uleb128 0x9
 9171 2398 52435200 		.ascii	"RCR\000"
 9172 239c 1F       		.byte	0x1f
 9173 239d AB01     		.2byte	0x1ab
 9174 239f 0F010000 		.4byte	0x10f
 9175 23a3 30       		.byte	0x30
 9176 23a4 09       		.uleb128 0x9
 9177 23a5 43435200 		.ascii	"CCR\000"
 9178 23a9 1F       		.byte	0x1f
 9179 23aa AC01     		.2byte	0x1ac
ARM GAS  /tmp/ccHCUo6g.s 			page 177


 9180 23ac C4070000 		.4byte	0x7c4
 9181 23b0 34       		.byte	0x34
 9182 23b1 0A       		.uleb128 0xa
 9183 23b2 30030000 		.4byte	.LASF139
 9184 23b6 1F       		.byte	0x1f
 9185 23b7 AD01     		.2byte	0x1ad
 9186 23b9 0F010000 		.4byte	0x10f
 9187 23bd 44       		.byte	0x44
 9188 23be 09       		.uleb128 0x9
 9189 23bf 44435200 		.ascii	"DCR\000"
 9190 23c3 1F       		.byte	0x1f
 9191 23c4 AE01     		.2byte	0x1ae
 9192 23c6 0F010000 		.4byte	0x10f
 9193 23ca 48       		.byte	0x48
 9194 23cb 0A       		.uleb128 0xa
 9195 23cc 17210000 		.4byte	.LASF140
 9196 23d0 1F       		.byte	0x1f
 9197 23d1 AF01     		.2byte	0x1af
 9198 23d3 0F010000 		.4byte	0x10f
 9199 23d7 4C       		.byte	0x4c
 9200 23d8 09       		.uleb128 0x9
 9201 23d9 4F5200   		.ascii	"OR\000"
 9202 23dc 1F       		.byte	0x1f
 9203 23dd B001     		.2byte	0x1b0
 9204 23df 0F010000 		.4byte	0x10f
 9205 23e3 50       		.byte	0x50
 9206 23e4 0A       		.uleb128 0xa
 9207 23e5 E1370000 		.4byte	.LASF607
 9208 23e9 1F       		.byte	0x1f
 9209 23ea B101     		.2byte	0x1b1
 9210 23ec 0F010000 		.4byte	0x10f
 9211 23f0 54       		.byte	0x54
 9212 23f1 0A       		.uleb128 0xa
 9213 23f2 67140000 		.4byte	.LASF608
 9214 23f6 1F       		.byte	0x1f
 9215 23f7 B201     		.2byte	0x1b2
 9216 23f9 AF070000 		.4byte	0x7af
 9217 23fd 58       		.byte	0x58
 9218 23fe 00       		.byte	0
 9219 23ff 18       		.uleb128 0x18
 9220 2400 4E2F0000 		.4byte	.LASF609
 9221 2404 1F       		.byte	0x1f
 9222 2405 B301     		.2byte	0x1b3
 9223 2407 F3220000 		.4byte	0x22f3
 9224 240b 20       		.uleb128 0x20
 9225 240c 07       		.byte	0x7
 9226 240d 01       		.byte	0x1
 9227 240e 6C000000 		.4byte	0x6c
 9228 2412 1E       		.byte	0x1e
 9229 2413 EE       		.byte	0xee
 9230 2414 25240000 		.4byte	0x2425
 9231 2418 21       		.uleb128 0x21
 9232 2419 180C0000 		.4byte	.LASF610
 9233 241d 00       		.byte	0
 9234 241e 21       		.uleb128 0x21
 9235 241f CE270000 		.4byte	.LASF611
 9236 2423 01       		.byte	0x1
ARM GAS  /tmp/ccHCUo6g.s 			page 178


 9237 2424 00       		.byte	0
 9238 2425 05       		.uleb128 0x5
 9239 2426 88340000 		.4byte	.LASF612
 9240 242a 1E       		.byte	0x1e
 9241 242b F1       		.byte	0xf1
 9242 242c 0B240000 		.4byte	0x240b
 9243 2430 05       		.uleb128 0x5
 9244 2431 36280000 		.4byte	.LASF613
 9245 2435 1E       		.byte	0x1e
 9246 2436 F6       		.byte	0xf6
 9247 2437 04010000 		.4byte	0x104
 9248 243b 20       		.uleb128 0x20
 9249 243c 07       		.byte	0x7
 9250 243d 01       		.byte	0x1
 9251 243e 6C000000 		.4byte	0x6c
 9252 2442 1E       		.byte	0x1e
 9253 2443 FB       		.byte	0xfb
 9254 2444 55240000 		.4byte	0x2455
 9255 2448 21       		.uleb128 0x21
 9256 2449 13270000 		.4byte	.LASF614
 9257 244d 00       		.byte	0
 9258 244e 21       		.uleb128 0x21
 9259 244f CC2F0000 		.4byte	.LASF615
 9260 2453 01       		.byte	0x1
 9261 2454 00       		.byte	0
 9262 2455 05       		.uleb128 0x5
 9263 2456 8E080000 		.4byte	.LASF616
 9264 245a 1E       		.byte	0x1e
 9265 245b FE       		.byte	0xfe
 9266 245c 3B240000 		.4byte	0x243b
 9267 2460 17       		.uleb128 0x17
 9268 2461 1C       		.byte	0x1c
 9269 2462 1E       		.byte	0x1e
 9270 2463 0901     		.2byte	0x109
 9271 2465 C5240000 		.4byte	0x24c5
 9272 2469 0A       		.uleb128 0xa
 9273 246a 030C0000 		.4byte	.LASF617
 9274 246e 1E       		.byte	0x1e
 9275 246f 0D01     		.2byte	0x10d
 9276 2471 25240000 		.4byte	0x2425
 9277 2475 00       		.byte	0
 9278 2476 0A       		.uleb128 0xa
 9279 2477 EF360000 		.4byte	.LASF618
 9280 247b 1E       		.byte	0x1e
 9281 247c 1301     		.2byte	0x113
 9282 247e 30240000 		.4byte	0x2430
 9283 2482 04       		.byte	0x4
 9284 2483 0A       		.uleb128 0xa
 9285 2484 E61C0000 		.4byte	.LASF619
 9286 2488 1E       		.byte	0x1e
 9287 2489 1701     		.2byte	0x117
 9288 248b D1220000 		.4byte	0x22d1
 9289 248f 08       		.byte	0x8
 9290 2490 0A       		.uleb128 0xa
 9291 2491 2E1A0000 		.4byte	.LASF620
 9292 2495 1E       		.byte	0x1e
 9293 2496 1B01     		.2byte	0x11b
ARM GAS  /tmp/ccHCUo6g.s 			page 179


 9294 2498 D1220000 		.4byte	0x22d1
 9295 249c 0C       		.byte	0xc
 9296 249d 0A       		.uleb128 0xa
 9297 249e 280F0000 		.4byte	.LASF621
 9298 24a2 1E       		.byte	0x1e
 9299 24a3 1F01     		.2byte	0x11f
 9300 24a5 D1220000 		.4byte	0x22d1
 9301 24a9 10       		.byte	0x10
 9302 24aa 0A       		.uleb128 0xa
 9303 24ab D41A0000 		.4byte	.LASF622
 9304 24af 1E       		.byte	0x1e
 9305 24b0 2501     		.2byte	0x125
 9306 24b2 55240000 		.4byte	0x2455
 9307 24b6 14       		.byte	0x14
 9308 24b7 0A       		.uleb128 0xa
 9309 24b8 77120000 		.4byte	.LASF623
 9310 24bc 1E       		.byte	0x1e
 9311 24bd 2B01     		.2byte	0x12b
 9312 24bf 04010000 		.4byte	0x104
 9313 24c3 18       		.byte	0x18
 9314 24c4 00       		.byte	0
 9315 24c5 18       		.uleb128 0x18
 9316 24c6 17140000 		.4byte	.LASF624
 9317 24ca 1E       		.byte	0x1e
 9318 24cb 2C01     		.2byte	0x12c
 9319 24cd 60240000 		.4byte	0x2460
 9320 24d1 06       		.uleb128 0x6
 9321 24d2 C5240000 		.4byte	0x24c5
 9322 24d6 0B       		.uleb128 0xb
 9323 24d7 04       		.byte	0x4
 9324 24d8 D1240000 		.4byte	0x24d1
 9325 24dc 0B       		.uleb128 0xb
 9326 24dd 04       		.byte	0x4
 9327 24de FF230000 		.4byte	0x23ff
 9328 24e2 13       		.uleb128 0x13
 9329 24e3 A4160000 		.4byte	.LASF625
 9330 24e7 1E       		.byte	0x1e
 9331 24e8 8A01     		.2byte	0x18a
 9332 24ea 6A220000 		.4byte	0x226a
 9333 24ee 20       		.uleb128 0x20
 9334 24ef 07       		.byte	0x7
 9335 24f0 01       		.byte	0x1
 9336 24f1 6C000000 		.4byte	0x6c
 9337 24f5 20       		.byte	0x20
 9338 24f6 55       		.byte	0x55
 9339 24f7 0E250000 		.4byte	0x250e
 9340 24fb 21       		.uleb128 0x21
 9341 24fc 34090000 		.4byte	.LASF626
 9342 2500 00       		.byte	0
 9343 2501 21       		.uleb128 0x21
 9344 2502 86140000 		.4byte	.LASF627
 9345 2506 01       		.byte	0x1
 9346 2507 21       		.uleb128 0x21
 9347 2508 BD390000 		.4byte	.LASF628
 9348 250c 02       		.byte	0x2
 9349 250d 00       		.byte	0
 9350 250e 05       		.uleb128 0x5
ARM GAS  /tmp/ccHCUo6g.s 			page 180


 9351 250f 01240000 		.4byte	.LASF629
 9352 2513 20       		.byte	0x20
 9353 2514 59       		.byte	0x59
 9354 2515 EE240000 		.4byte	0x24ee
 9355 2519 05       		.uleb128 0x5
 9356 251a 60320000 		.4byte	.LASF630
 9357 251e 20       		.byte	0x20
 9358 251f 5E       		.byte	0x5e
 9359 2520 24250000 		.4byte	0x2524
 9360 2524 25       		.uleb128 0x25
 9361 2525 60320000 		.4byte	.LASF630
 9362 2529 5801     		.2byte	0x158
 9363 252b 20       		.byte	0x20
 9364 252c 78       		.byte	0x78
 9365 252d 91250000 		.4byte	0x2591
 9366 2531 16       		.uleb128 0x16
 9367 2532 766D7400 		.ascii	"vmt\000"
 9368 2536 20       		.byte	0x20
 9369 2537 7A       		.byte	0x7a
 9370 2538 27260000 		.4byte	0x2627
 9371 253c 00       		.byte	0
 9372 253d 08       		.uleb128 0x8
 9373 253e 51100000 		.4byte	.LASF631
 9374 2542 20       		.byte	0x20
 9375 2543 7B       		.byte	0x7b
 9376 2544 B50E0000 		.4byte	0xeb5
 9377 2548 04       		.byte	0x4
 9378 2549 08       		.uleb128 0x8
 9379 254a CE200000 		.4byte	.LASF554
 9380 254e 20       		.byte	0x20
 9381 254f 7B       		.byte	0x7b
 9382 2550 0E250000 		.4byte	0x250e
 9383 2554 08       		.byte	0x8
 9384 2555 08       		.uleb128 0x8
 9385 2556 D4110000 		.4byte	.LASF632
 9386 255a 20       		.byte	0x20
 9387 255b 7B       		.byte	0x7b
 9388 255c 600F0000 		.4byte	0xf60
 9389 2560 0C       		.byte	0xc
 9390 2561 08       		.uleb128 0x8
 9391 2562 531B0000 		.4byte	.LASF633
 9392 2566 20       		.byte	0x20
 9393 2567 7B       		.byte	0x7b
 9394 2568 6B0F0000 		.4byte	0xf6b
 9395 256c 30       		.byte	0x30
 9396 256d 16       		.uleb128 0x16
 9397 256e 696200   		.ascii	"ib\000"
 9398 2571 20       		.byte	0x20
 9399 2572 7B       		.byte	0x7b
 9400 2573 2D260000 		.4byte	0x262d
 9401 2577 54       		.byte	0x54
 9402 2578 16       		.uleb128 0x16
 9403 2579 6F6200   		.ascii	"ob\000"
 9404 257c 20       		.byte	0x20
 9405 257d 7B       		.byte	0x7b
 9406 257e 2D260000 		.4byte	0x262d
 9407 2582 D4       		.byte	0xd4
ARM GAS  /tmp/ccHCUo6g.s 			page 181


 9408 2583 26       		.uleb128 0x26
 9409 2584 E4260000 		.4byte	.LASF634
 9410 2588 20       		.byte	0x20
 9411 2589 7B       		.byte	0x7b
 9412 258a 3D260000 		.4byte	0x263d
 9413 258e 5401     		.2byte	0x154
 9414 2590 00       		.byte	0
 9415 2591 1E       		.uleb128 0x1e
 9416 2592 53443300 		.ascii	"SD3\000"
 9417 2596 21       		.byte	0x21
 9418 2597 1501     		.2byte	0x115
 9419 2599 19250000 		.4byte	0x2519
 9420 259d 1E       		.uleb128 0x1e
 9421 259e 53443400 		.ascii	"SD4\000"
 9422 25a2 21       		.byte	0x21
 9423 25a3 1801     		.2byte	0x118
 9424 25a5 19250000 		.4byte	0x2519
 9425 25a9 1E       		.uleb128 0x1e
 9426 25aa 53443600 		.ascii	"SD6\000"
 9427 25ae 21       		.byte	0x21
 9428 25af 1E01     		.2byte	0x11e
 9429 25b1 19250000 		.4byte	0x2519
 9430 25b5 07       		.uleb128 0x7
 9431 25b6 180F0000 		.4byte	.LASF635
 9432 25ba 20       		.byte	0x20
 9433 25bb 20       		.byte	0x20
 9434 25bc 6D       		.byte	0x6d
 9435 25bd 22260000 		.4byte	0x2622
 9436 25c1 08       		.uleb128 0x8
 9437 25c2 A5230000 		.4byte	.LASF636
 9438 25c6 20       		.byte	0x20
 9439 25c7 6E       		.byte	0x6e
 9440 25c8 950F0000 		.4byte	0xf95
 9441 25cc 00       		.byte	0
 9442 25cd 08       		.uleb128 0x8
 9443 25ce 40070000 		.4byte	.LASF637
 9444 25d2 20       		.byte	0x20
 9445 25d3 6E       		.byte	0x6e
 9446 25d4 B40F0000 		.4byte	0xfb4
 9447 25d8 04       		.byte	0x4
 9448 25d9 16       		.uleb128 0x16
 9449 25da 70757400 		.ascii	"put\000"
 9450 25de 20       		.byte	0x20
 9451 25df 6E       		.byte	0x6e
 9452 25e0 CE0F0000 		.4byte	0xfce
 9453 25e4 08       		.byte	0x8
 9454 25e5 16       		.uleb128 0x16
 9455 25e6 67657400 		.ascii	"get\000"
 9456 25ea 20       		.byte	0x20
 9457 25eb 6E       		.byte	0x6e
 9458 25ec E30F0000 		.4byte	0xfe3
 9459 25f0 0C       		.byte	0xc
 9460 25f1 08       		.uleb128 0x8
 9461 25f2 881E0000 		.4byte	.LASF638
 9462 25f6 20       		.byte	0x20
 9463 25f7 6E       		.byte	0x6e
 9464 25f8 151D0000 		.4byte	0x1d15
ARM GAS  /tmp/ccHCUo6g.s 			page 182


 9465 25fc 10       		.byte	0x10
 9466 25fd 08       		.uleb128 0x8
 9467 25fe 65230000 		.4byte	.LASF639
 9468 2602 20       		.byte	0x20
 9469 2603 6E       		.byte	0x6e
 9470 2604 2F1D0000 		.4byte	0x1d2f
 9471 2608 14       		.byte	0x14
 9472 2609 08       		.uleb128 0x8
 9473 260a F5330000 		.4byte	.LASF640
 9474 260e 20       		.byte	0x20
 9475 260f 6E       		.byte	0x6e
 9476 2610 531D0000 		.4byte	0x1d53
 9477 2614 18       		.byte	0x18
 9478 2615 08       		.uleb128 0x8
 9479 2616 351D0000 		.4byte	.LASF641
 9480 261a 20       		.byte	0x20
 9481 261b 6E       		.byte	0x6e
 9482 261c 771D0000 		.4byte	0x1d77
 9483 2620 1C       		.byte	0x1c
 9484 2621 00       		.byte	0
 9485 2622 06       		.uleb128 0x6
 9486 2623 B5250000 		.4byte	0x25b5
 9487 2627 0B       		.uleb128 0xb
 9488 2628 04       		.byte	0x4
 9489 2629 22260000 		.4byte	0x2622
 9490 262d 11       		.uleb128 0x11
 9491 262e D4000000 		.4byte	0xd4
 9492 2632 3D260000 		.4byte	0x263d
 9493 2636 12       		.uleb128 0x12
 9494 2637 48000000 		.4byte	0x48
 9495 263b 7F       		.byte	0x7f
 9496 263c 00       		.byte	0
 9497 263d 0B       		.uleb128 0xb
 9498 263e 04       		.byte	0x4
 9499 263f 710A0000 		.4byte	0xa71
 9500 2643 20       		.uleb128 0x20
 9501 2644 07       		.byte	0x7
 9502 2645 01       		.byte	0x1
 9503 2646 6C000000 		.4byte	0x6c
 9504 264a 22       		.byte	0x22
 9505 264b 46       		.byte	0x46
 9506 264c 6F260000 		.4byte	0x266f
 9507 2650 21       		.uleb128 0x21
 9508 2651 3C0A0000 		.4byte	.LASF642
 9509 2655 00       		.byte	0
 9510 2656 21       		.uleb128 0x21
 9511 2657 5D040000 		.4byte	.LASF643
 9512 265b 01       		.byte	0x1
 9513 265c 21       		.uleb128 0x21
 9514 265d 11350000 		.4byte	.LASF644
 9515 2661 02       		.byte	0x2
 9516 2662 21       		.uleb128 0x21
 9517 2663 7B1A0000 		.4byte	.LASF645
 9518 2667 03       		.byte	0x3
 9519 2668 21       		.uleb128 0x21
 9520 2669 B71D0000 		.4byte	.LASF646
 9521 266d 04       		.byte	0x4
ARM GAS  /tmp/ccHCUo6g.s 			page 183


 9522 266e 00       		.byte	0
 9523 266f 05       		.uleb128 0x5
 9524 2670 59050000 		.4byte	.LASF647
 9525 2674 22       		.byte	0x22
 9526 2675 4C       		.byte	0x4c
 9527 2676 43260000 		.4byte	0x2643
 9528 267a 18       		.uleb128 0x18
 9529 267b C0310000 		.4byte	.LASF648
 9530 267f 23       		.byte	0x23
 9531 2680 9601     		.2byte	0x196
 9532 2682 86260000 		.4byte	0x2686
 9533 2686 0C       		.uleb128 0xc
 9534 2687 C0310000 		.4byte	.LASF648
 9535 268b 30       		.byte	0x30
 9536 268c 23       		.byte	0x23
 9537 268d BA01     		.2byte	0x1ba
 9538 268f 09270000 		.4byte	0x2709
 9539 2693 0A       		.uleb128 0xa
 9540 2694 CE200000 		.4byte	.LASF554
 9541 2698 23       		.byte	0x23
 9542 2699 BE01     		.2byte	0x1be
 9543 269b 6F260000 		.4byte	0x266f
 9544 269f 00       		.byte	0
 9545 26a0 0A       		.uleb128 0xa
 9546 26a1 E0330000 		.4byte	.LASF555
 9547 26a5 23       		.byte	0x23
 9548 26a6 C201     		.2byte	0x1c2
 9549 26a8 7B270000 		.4byte	0x277b
 9550 26ac 04       		.byte	0x4
 9551 26ad 0A       		.uleb128 0xa
 9552 26ae 240A0000 		.4byte	.LASF589
 9553 26b2 23       		.byte	0x23
 9554 26b3 C701     		.2byte	0x1c7
 9555 26b5 AD020000 		.4byte	0x2ad
 9556 26b9 08       		.byte	0x8
 9557 26ba 0A       		.uleb128 0xa
 9558 26bb 8A130000 		.4byte	.LASF588
 9559 26bf 23       		.byte	0x23
 9560 26c0 CD01     		.2byte	0x1cd
 9561 26c2 310E0000 		.4byte	0xe31
 9562 26c6 0C       		.byte	0xc
 9563 26c7 09       		.uleb128 0x9
 9564 26c8 73706900 		.ascii	"spi\000"
 9565 26cc 23       		.byte	0x23
 9566 26cd D601     		.2byte	0x1d6
 9567 26cf 81270000 		.4byte	0x2781
 9568 26d3 1C       		.byte	0x1c
 9569 26d4 0A       		.uleb128 0xa
 9570 26d5 C7010000 		.4byte	.LASF593
 9571 26d9 23       		.byte	0x23
 9572 26da DA01     		.2byte	0x1da
 9573 26dc 1B220000 		.4byte	0x221b
 9574 26e0 20       		.byte	0x20
 9575 26e1 0A       		.uleb128 0xa
 9576 26e2 6B030000 		.4byte	.LASF594
 9577 26e6 23       		.byte	0x23
 9578 26e7 DE01     		.2byte	0x1de
ARM GAS  /tmp/ccHCUo6g.s 			page 184


 9579 26e9 1B220000 		.4byte	0x221b
 9580 26ed 24       		.byte	0x24
 9581 26ee 0A       		.uleb128 0xa
 9582 26ef EF0B0000 		.4byte	.LASF591
 9583 26f3 23       		.byte	0x23
 9584 26f4 E201     		.2byte	0x1e2
 9585 26f6 04010000 		.4byte	0x104
 9586 26fa 28       		.byte	0x28
 9587 26fb 0A       		.uleb128 0xa
 9588 26fc 640C0000 		.4byte	.LASF592
 9589 2700 23       		.byte	0x23
 9590 2701 E601     		.2byte	0x1e6
 9591 2703 04010000 		.4byte	0x104
 9592 2707 2C       		.byte	0x2c
 9593 2708 00       		.byte	0
 9594 2709 18       		.uleb128 0x18
 9595 270a 15020000 		.4byte	.LASF649
 9596 270e 23       		.byte	0x23
 9597 270f 9E01     		.2byte	0x19e
 9598 2711 15270000 		.4byte	0x2715
 9599 2715 0B       		.uleb128 0xb
 9600 2716 04       		.byte	0x4
 9601 2717 1B270000 		.4byte	0x271b
 9602 271b 0D       		.uleb128 0xd
 9603 271c 26270000 		.4byte	0x2726
 9604 2720 0E       		.uleb128 0xe
 9605 2721 26270000 		.4byte	0x2726
 9606 2725 00       		.byte	0
 9607 2726 0B       		.uleb128 0xb
 9608 2727 04       		.byte	0x4
 9609 2728 7A260000 		.4byte	0x267a
 9610 272c 17       		.uleb128 0x17
 9611 272d 0C       		.byte	0xc
 9612 272e 23       		.byte	0x23
 9613 272f A301     		.2byte	0x1a3
 9614 2731 6A270000 		.4byte	0x276a
 9615 2735 0A       		.uleb128 0xa
 9616 2736 150D0000 		.4byte	.LASF650
 9617 273a 23       		.byte	0x23
 9618 273b A701     		.2byte	0x1a7
 9619 273d 09270000 		.4byte	0x2709
 9620 2741 00       		.byte	0
 9621 2742 0A       		.uleb128 0xa
 9622 2743 27360000 		.4byte	.LASF651
 9623 2747 23       		.byte	0x23
 9624 2748 AC01     		.2byte	0x1ac
 9625 274a 431F0000 		.4byte	0x1f43
 9626 274e 04       		.byte	0x4
 9627 274f 0A       		.uleb128 0xa
 9628 2750 5E0C0000 		.4byte	.LASF652
 9629 2754 23       		.byte	0x23
 9630 2755 B001     		.2byte	0x1b0
 9631 2757 E4000000 		.4byte	0xe4
 9632 275b 08       		.byte	0x8
 9633 275c 09       		.uleb128 0x9
 9634 275d 63723100 		.ascii	"cr1\000"
 9635 2761 23       		.byte	0x23
ARM GAS  /tmp/ccHCUo6g.s 			page 185


 9636 2762 B401     		.2byte	0x1b4
 9637 2764 E4000000 		.4byte	0xe4
 9638 2768 0A       		.byte	0xa
 9639 2769 00       		.byte	0
 9640 276a 18       		.uleb128 0x18
 9641 276b D0310000 		.4byte	.LASF653
 9642 276f 23       		.byte	0x23
 9643 2770 B501     		.2byte	0x1b5
 9644 2772 2C270000 		.4byte	0x272c
 9645 2776 06       		.uleb128 0x6
 9646 2777 6A270000 		.4byte	0x276a
 9647 277b 0B       		.uleb128 0xb
 9648 277c 04       		.byte	0x4
 9649 277d 76270000 		.4byte	0x2776
 9650 2781 0B       		.uleb128 0xb
 9651 2782 04       		.byte	0x4
 9652 2783 DD080000 		.4byte	0x8dd
 9653 2787 13       		.uleb128 0x13
 9654 2788 5F230000 		.4byte	.LASF654
 9655 278c 23       		.byte	0x23
 9656 278d F201     		.2byte	0x1f2
 9657 278f 7A260000 		.4byte	0x267a
 9658 2793 05       		.uleb128 0x5
 9659 2794 B01A0000 		.4byte	.LASF655
 9660 2798 24       		.byte	0x24
 9661 2799 FA       		.byte	0xfa
 9662 279a 9E270000 		.4byte	0x279e
 9663 279e 10       		.uleb128 0x10
 9664 279f B01A0000 		.4byte	.LASF655
 9665 27a3 8002     		.2byte	0x280
 9666 27a5 25       		.byte	0x25
 9667 27a6 7701     		.2byte	0x177
 9668 27a8 CA280000 		.4byte	0x28ca
 9669 27ac 0A       		.uleb128 0xa
 9670 27ad CE200000 		.4byte	.LASF554
 9671 27b1 25       		.byte	0x25
 9672 27b2 7B01     		.2byte	0x17b
 9673 27b4 02290000 		.4byte	0x2902
 9674 27b8 00       		.byte	0
 9675 27b9 0A       		.uleb128 0xa
 9676 27ba E0330000 		.4byte	.LASF555
 9677 27be 25       		.byte	0x25
 9678 27bf 7F01     		.2byte	0x17f
 9679 27c1 25320000 		.4byte	0x3225
 9680 27c5 04       		.byte	0x4
 9681 27c6 0A       		.uleb128 0xa
 9682 27c7 23320000 		.4byte	.LASF656
 9683 27cb 25       		.byte	0x25
 9684 27cc 8301     		.2byte	0x183
 9685 27ce E4000000 		.4byte	0xe4
 9686 27d2 08       		.byte	0x8
 9687 27d3 0A       		.uleb128 0xa
 9688 27d4 B3360000 		.4byte	.LASF657
 9689 27d8 25       		.byte	0x25
 9690 27d9 8701     		.2byte	0x187
 9691 27db E4000000 		.4byte	0xe4
 9692 27df 0A       		.byte	0xa
ARM GAS  /tmp/ccHCUo6g.s 			page 186


 9693 27e0 09       		.uleb128 0x9
 9694 27e1 65706300 		.ascii	"epc\000"
 9695 27e5 25       		.byte	0x25
 9696 27e6 8B01     		.2byte	0x18b
 9697 27e8 2B320000 		.4byte	0x322b
 9698 27ec 0C       		.byte	0xc
 9699 27ed 0A       		.uleb128 0xa
 9700 27ee 870A0000 		.4byte	.LASF658
 9701 27f2 25       		.byte	0x25
 9702 27f3 9201     		.2byte	0x192
 9703 27f5 41320000 		.4byte	0x3241
 9704 27f9 1C       		.byte	0x1c
 9705 27fa 0A       		.uleb128 0xa
 9706 27fb 50120000 		.4byte	.LASF659
 9707 27ff 25       		.byte	0x25
 9708 2800 9901     		.2byte	0x199
 9709 2802 41320000 		.4byte	0x3241
 9710 2806 28       		.byte	0x28
 9711 2807 0A       		.uleb128 0xa
 9712 2808 9B0D0000 		.4byte	.LASF660
 9713 280c 25       		.byte	0x25
 9714 280d 9D01     		.2byte	0x19d
 9715 280f 47290000 		.4byte	0x2947
 9716 2813 34       		.byte	0x34
 9717 2814 0A       		.uleb128 0xa
 9718 2815 88070000 		.4byte	.LASF661
 9719 2819 25       		.byte	0x25
 9720 281a A101     		.2byte	0x1a1
 9721 281c 5A0F0000 		.4byte	0xf5a
 9722 2820 38       		.byte	0x38
 9723 2821 0A       		.uleb128 0xa
 9724 2822 D1220000 		.4byte	.LASF662
 9725 2826 25       		.byte	0x25
 9726 2827 A501     		.2byte	0x1a5
 9727 2829 38000000 		.4byte	0x38
 9728 282d 3C       		.byte	0x3c
 9729 282e 0A       		.uleb128 0xa
 9730 282f 8C2D0000 		.4byte	.LASF663
 9731 2833 25       		.byte	0x25
 9732 2834 A901     		.2byte	0x1a9
 9733 2836 C7290000 		.4byte	0x29c7
 9734 283a 40       		.byte	0x40
 9735 283b 0A       		.uleb128 0xa
 9736 283c 360A0000 		.4byte	.LASF664
 9737 2840 25       		.byte	0x25
 9738 2841 AD01     		.2byte	0x1ad
 9739 2843 C6180000 		.4byte	0x18c6
 9740 2847 44       		.byte	0x44
 9741 2848 0A       		.uleb128 0xa
 9742 2849 08200000 		.4byte	.LASF665
 9743 284d 25       		.byte	0x25
 9744 284e B101     		.2byte	0x1b1
 9745 2850 E4000000 		.4byte	0xe4
 9746 2854 4C       		.byte	0x4c
 9747 2855 0A       		.uleb128 0xa
 9748 2856 58200000 		.4byte	.LASF666
 9749 285a 25       		.byte	0x25
ARM GAS  /tmp/ccHCUo6g.s 			page 187


 9750 285b B501     		.2byte	0x1b5
 9751 285d D4000000 		.4byte	0xd4
 9752 2861 4E       		.byte	0x4e
 9753 2862 0A       		.uleb128 0xa
 9754 2863 A4270000 		.4byte	.LASF667
 9755 2867 25       		.byte	0x25
 9756 2868 B901     		.2byte	0x1b9
 9757 286a D4000000 		.4byte	0xd4
 9758 286e 4F       		.byte	0x4f
 9759 286f 09       		.uleb128 0x9
 9760 2870 6F746700 		.ascii	"otg\000"
 9761 2874 25       		.byte	0x25
 9762 2875 C101     		.2byte	0x1c1
 9763 2877 51320000 		.4byte	0x3251
 9764 287b 50       		.byte	0x50
 9765 287c 0A       		.uleb128 0xa
 9766 287d B4150000 		.4byte	.LASF668
 9767 2881 25       		.byte	0x25
 9768 2882 C501     		.2byte	0x1c5
 9769 2884 57320000 		.4byte	0x3257
 9770 2888 54       		.byte	0x54
 9771 2889 0A       		.uleb128 0xa
 9772 288a 8D2F0000 		.4byte	.LASF669
 9773 288e 25       		.byte	0x25
 9774 288f C901     		.2byte	0x1c9
 9775 2891 04010000 		.4byte	0x104
 9776 2895 58       		.byte	0x58
 9777 2896 0A       		.uleb128 0xa
 9778 2897 21140000 		.4byte	.LASF670
 9779 289b 25       		.byte	0x25
 9780 289c CD01     		.2byte	0x1cd
 9781 289e 04010000 		.4byte	0x104
 9782 28a2 5C       		.byte	0x5c
 9783 28a3 0A       		.uleb128 0xa
 9784 28a4 870B0000 		.4byte	.LASF671
 9785 28a8 25       		.byte	0x25
 9786 28a9 D101     		.2byte	0x1d1
 9787 28ab AD020000 		.4byte	0x2ad
 9788 28af 60       		.byte	0x60
 9789 28b0 09       		.uleb128 0x9
 9790 28b1 747200   		.ascii	"tr\000"
 9791 28b4 25       		.byte	0x25
 9792 28b5 D601     		.2byte	0x1d6
 9793 28b7 AD020000 		.4byte	0x2ad
 9794 28bb 64       		.byte	0x64
 9795 28bc 0A       		.uleb128 0xa
 9796 28bd D71E0000 		.4byte	.LASF672
 9797 28c1 25       		.byte	0x25
 9798 28c2 DA01     		.2byte	0x1da
 9799 28c4 5D320000 		.4byte	0x325d
 9800 28c8 68       		.byte	0x68
 9801 28c9 00       		.byte	0
 9802 28ca 05       		.uleb128 0x5
 9803 28cb 3F020000 		.4byte	.LASF673
 9804 28cf 24       		.byte	0x24
 9805 28d0 FF       		.byte	0xff
 9806 28d1 D4000000 		.4byte	0xd4
ARM GAS  /tmp/ccHCUo6g.s 			page 188


 9807 28d5 23       		.uleb128 0x23
 9808 28d6 07       		.byte	0x7
 9809 28d7 01       		.byte	0x1
 9810 28d8 6C000000 		.4byte	0x6c
 9811 28dc 24       		.byte	0x24
 9812 28dd 0401     		.2byte	0x104
 9813 28df 02290000 		.4byte	0x2902
 9814 28e3 21       		.uleb128 0x21
 9815 28e4 11380000 		.4byte	.LASF674
 9816 28e8 00       		.byte	0
 9817 28e9 21       		.uleb128 0x21
 9818 28ea 0F000000 		.4byte	.LASF675
 9819 28ee 01       		.byte	0x1
 9820 28ef 21       		.uleb128 0x21
 9821 28f0 2B1D0000 		.4byte	.LASF676
 9822 28f4 02       		.byte	0x2
 9823 28f5 21       		.uleb128 0x21
 9824 28f6 E6240000 		.4byte	.LASF677
 9825 28fa 03       		.byte	0x3
 9826 28fb 21       		.uleb128 0x21
 9827 28fc 9F0B0000 		.4byte	.LASF678
 9828 2900 04       		.byte	0x4
 9829 2901 00       		.byte	0
 9830 2902 18       		.uleb128 0x18
 9831 2903 7C320000 		.4byte	.LASF679
 9832 2907 24       		.byte	0x24
 9833 2908 0A01     		.2byte	0x10a
 9834 290a D5280000 		.4byte	0x28d5
 9835 290e 23       		.uleb128 0x23
 9836 290f 07       		.byte	0x7
 9837 2910 01       		.byte	0x1
 9838 2911 6C000000 		.4byte	0x6c
 9839 2915 24       		.byte	0x24
 9840 2916 1801     		.2byte	0x118
 9841 2918 47290000 		.4byte	0x2947
 9842 291c 21       		.uleb128 0x21
 9843 291d 182D0000 		.4byte	.LASF680
 9844 2921 00       		.byte	0
 9845 2922 21       		.uleb128 0x21
 9846 2923 9F180000 		.4byte	.LASF681
 9847 2927 01       		.byte	0x1
 9848 2928 21       		.uleb128 0x21
 9849 2929 14290000 		.4byte	.LASF682
 9850 292d 02       		.byte	0x2
 9851 292e 21       		.uleb128 0x21
 9852 292f E6200000 		.4byte	.LASF683
 9853 2933 03       		.byte	0x3
 9854 2934 21       		.uleb128 0x21
 9855 2935 E71F0000 		.4byte	.LASF684
 9856 2939 04       		.byte	0x4
 9857 293a 21       		.uleb128 0x21
 9858 293b 0E1A0000 		.4byte	.LASF685
 9859 293f 05       		.byte	0x5
 9860 2940 21       		.uleb128 0x21
 9861 2941 0B170000 		.4byte	.LASF686
 9862 2945 06       		.byte	0x6
 9863 2946 00       		.byte	0
ARM GAS  /tmp/ccHCUo6g.s 			page 189


 9864 2947 18       		.uleb128 0x18
 9865 2948 621A0000 		.4byte	.LASF687
 9866 294c 24       		.byte	0x24
 9867 294d 2001     		.2byte	0x120
 9868 294f 0E290000 		.4byte	0x290e
 9869 2953 23       		.uleb128 0x23
 9870 2954 07       		.byte	0x7
 9871 2955 01       		.byte	0x1
 9872 2956 6C000000 		.4byte	0x6c
 9873 295a 24       		.byte	0x24
 9874 295b 2501     		.2byte	0x125
 9875 295d 86290000 		.4byte	0x2986
 9876 2961 21       		.uleb128 0x21
 9877 2962 C9240000 		.4byte	.LASF688
 9878 2966 00       		.byte	0
 9879 2967 21       		.uleb128 0x21
 9880 2968 C3340000 		.4byte	.LASF689
 9881 296c 01       		.byte	0x1
 9882 296d 21       		.uleb128 0x21
 9883 296e 4A1E0000 		.4byte	.LASF690
 9884 2972 02       		.byte	0x2
 9885 2973 21       		.uleb128 0x21
 9886 2974 2A1F0000 		.4byte	.LASF691
 9887 2978 03       		.byte	0x3
 9888 2979 21       		.uleb128 0x21
 9889 297a DA350000 		.4byte	.LASF692
 9890 297e 04       		.byte	0x4
 9891 297f 21       		.uleb128 0x21
 9892 2980 E31D0000 		.4byte	.LASF693
 9893 2984 05       		.byte	0x5
 9894 2985 00       		.byte	0
 9895 2986 18       		.uleb128 0x18
 9896 2987 5E260000 		.4byte	.LASF694
 9897 298b 24       		.byte	0x24
 9898 298c 2C01     		.2byte	0x12c
 9899 298e 53290000 		.4byte	0x2953
 9900 2992 17       		.uleb128 0x17
 9901 2993 08       		.byte	0x8
 9902 2994 24       		.byte	0x24
 9903 2995 3101     		.2byte	0x131
 9904 2997 B6290000 		.4byte	0x29b6
 9905 299b 0A       		.uleb128 0xa
 9906 299c 2E390000 		.4byte	.LASF695
 9907 29a0 24       		.byte	0x24
 9908 29a1 3501     		.2byte	0x135
 9909 29a3 38000000 		.4byte	0x38
 9910 29a7 00       		.byte	0
 9911 29a8 0A       		.uleb128 0xa
 9912 29a9 1E070000 		.4byte	.LASF696
 9913 29ad 24       		.byte	0x24
 9914 29ae 3901     		.2byte	0x139
 9915 29b0 8F0F0000 		.4byte	0xf8f
 9916 29b4 04       		.byte	0x4
 9917 29b5 00       		.byte	0
 9918 29b6 18       		.uleb128 0x18
 9919 29b7 25200000 		.4byte	.LASF697
 9920 29bb 24       		.byte	0x24
ARM GAS  /tmp/ccHCUo6g.s 			page 190


 9921 29bc 3A01     		.2byte	0x13a
 9922 29be 92290000 		.4byte	0x2992
 9923 29c2 06       		.uleb128 0x6
 9924 29c3 B6290000 		.4byte	0x29b6
 9925 29c7 18       		.uleb128 0x18
 9926 29c8 8F380000 		.4byte	.LASF698
 9927 29cc 24       		.byte	0x24
 9928 29cd 4201     		.2byte	0x142
 9929 29cf D3290000 		.4byte	0x29d3
 9930 29d3 0B       		.uleb128 0xb
 9931 29d4 04       		.byte	0x4
 9932 29d5 D9290000 		.4byte	0x29d9
 9933 29d9 0D       		.uleb128 0xd
 9934 29da E4290000 		.4byte	0x29e4
 9935 29de 0E       		.uleb128 0xe
 9936 29df E4290000 		.4byte	0x29e4
 9937 29e3 00       		.byte	0
 9938 29e4 0B       		.uleb128 0xb
 9939 29e5 04       		.byte	0x4
 9940 29e6 93270000 		.4byte	0x2793
 9941 29ea 18       		.uleb128 0x18
 9942 29eb 90070000 		.4byte	.LASF699
 9943 29ef 24       		.byte	0x24
 9944 29f0 4B01     		.2byte	0x14b
 9945 29f2 F6290000 		.4byte	0x29f6
 9946 29f6 0B       		.uleb128 0xb
 9947 29f7 04       		.byte	0x4
 9948 29f8 FC290000 		.4byte	0x29fc
 9949 29fc 0D       		.uleb128 0xd
 9950 29fd 0C2A0000 		.4byte	0x2a0c
 9951 2a01 0E       		.uleb128 0xe
 9952 2a02 E4290000 		.4byte	0x29e4
 9953 2a06 0E       		.uleb128 0xe
 9954 2a07 CA280000 		.4byte	0x28ca
 9955 2a0b 00       		.byte	0
 9956 2a0c 18       		.uleb128 0x18
 9957 2a0d 820F0000 		.4byte	.LASF700
 9958 2a11 24       		.byte	0x24
 9959 2a12 5401     		.2byte	0x154
 9960 2a14 182A0000 		.4byte	0x2a18
 9961 2a18 0B       		.uleb128 0xb
 9962 2a19 04       		.byte	0x4
 9963 2a1a 1E2A0000 		.4byte	0x2a1e
 9964 2a1e 0D       		.uleb128 0xd
 9965 2a1f 2E2A0000 		.4byte	0x2a2e
 9966 2a23 0E       		.uleb128 0xe
 9967 2a24 E4290000 		.4byte	0x29e4
 9968 2a28 0E       		.uleb128 0xe
 9969 2a29 86290000 		.4byte	0x2986
 9970 2a2d 00       		.byte	0
 9971 2a2e 18       		.uleb128 0x18
 9972 2a2f 53240000 		.4byte	.LASF701
 9973 2a33 24       		.byte	0x24
 9974 2a34 6001     		.2byte	0x160
 9975 2a36 3A2A0000 		.4byte	0x2a3a
 9976 2a3a 0B       		.uleb128 0xb
 9977 2a3b 04       		.byte	0x4
ARM GAS  /tmp/ccHCUo6g.s 			page 191


 9978 2a3c 402A0000 		.4byte	0x2a40
 9979 2a40 1F       		.uleb128 0x1f
 9980 2a41 AF180000 		.4byte	0x18af
 9981 2a45 4F2A0000 		.4byte	0x2a4f
 9982 2a49 0E       		.uleb128 0xe
 9983 2a4a E4290000 		.4byte	0x29e4
 9984 2a4e 00       		.byte	0
 9985 2a4f 18       		.uleb128 0x18
 9986 2a50 59180000 		.4byte	.LASF702
 9987 2a54 24       		.byte	0x24
 9988 2a55 6501     		.2byte	0x165
 9989 2a57 5B2A0000 		.4byte	0x2a5b
 9990 2a5b 0B       		.uleb128 0xb
 9991 2a5c 04       		.byte	0x4
 9992 2a5d 612A0000 		.4byte	0x2a61
 9993 2a61 1F       		.uleb128 0x1f
 9994 2a62 7F2A0000 		.4byte	0x2a7f
 9995 2a66 7F2A0000 		.4byte	0x2a7f
 9996 2a6a 0E       		.uleb128 0xe
 9997 2a6b E4290000 		.4byte	0x29e4
 9998 2a6f 0E       		.uleb128 0xe
 9999 2a70 D4000000 		.4byte	0xd4
 10000 2a74 0E       		.uleb128 0xe
 10001 2a75 D4000000 		.4byte	0xd4
 10002 2a79 0E       		.uleb128 0xe
 10003 2a7a E4000000 		.4byte	0xe4
 10004 2a7e 00       		.byte	0
 10005 2a7f 0B       		.uleb128 0xb
 10006 2a80 04       		.byte	0x4
 10007 2a81 C2290000 		.4byte	0x29c2
 10008 2a85 15       		.uleb128 0x15
 10009 2a86 20       		.byte	0x20
 10010 2a87 26       		.byte	0x26
 10011 2a88 35       		.byte	0x35
 10012 2a89 EE2A0000 		.4byte	0x2aee
 10013 2a8d 08       		.uleb128 0x8
 10014 2a8e 64050000 		.4byte	.LASF703
 10015 2a92 26       		.byte	0x26
 10016 2a93 36       		.byte	0x36
 10017 2a94 0F010000 		.4byte	0x10f
 10018 2a98 00       		.byte	0
 10019 2a99 08       		.uleb128 0x8
 10020 2a9a 8E140000 		.4byte	.LASF704
 10021 2a9e 26       		.byte	0x26
 10022 2a9f 38       		.byte	0x38
 10023 2aa0 0F010000 		.4byte	0x10f
 10024 2aa4 04       		.byte	0x4
 10025 2aa5 08       		.uleb128 0x8
 10026 2aa6 33040000 		.4byte	.LASF705
 10027 2aaa 26       		.byte	0x26
 10028 2aab 39       		.byte	0x39
 10029 2aac 0F010000 		.4byte	0x10f
 10030 2ab0 08       		.byte	0x8
 10031 2ab1 08       		.uleb128 0x8
 10032 2ab2 292A0000 		.4byte	.LASF706
 10033 2ab6 26       		.byte	0x26
 10034 2ab7 3A       		.byte	0x3a
ARM GAS  /tmp/ccHCUo6g.s 			page 192


 10035 2ab8 0F010000 		.4byte	0x10f
 10036 2abc 0C       		.byte	0xc
 10037 2abd 08       		.uleb128 0x8
 10038 2abe 001F0000 		.4byte	.LASF707
 10039 2ac2 26       		.byte	0x26
 10040 2ac3 3C       		.byte	0x3c
 10041 2ac4 0F010000 		.4byte	0x10f
 10042 2ac8 10       		.byte	0x10
 10043 2ac9 08       		.uleb128 0x8
 10044 2aca D7140000 		.4byte	.LASF708
 10045 2ace 26       		.byte	0x26
 10046 2acf 3E       		.byte	0x3e
 10047 2ad0 0F010000 		.4byte	0x10f
 10048 2ad4 14       		.byte	0x14
 10049 2ad5 08       		.uleb128 0x8
 10050 2ad6 E9140000 		.4byte	.LASF709
 10051 2ada 26       		.byte	0x26
 10052 2adb 3F       		.byte	0x3f
 10053 2adc 0F010000 		.4byte	0x10f
 10054 2ae0 18       		.byte	0x18
 10055 2ae1 08       		.uleb128 0x8
 10056 2ae2 1B320000 		.4byte	.LASF710
 10057 2ae6 26       		.byte	0x26
 10058 2ae7 40       		.byte	0x40
 10059 2ae8 0F010000 		.4byte	0x10f
 10060 2aec 1C       		.byte	0x1c
 10061 2aed 00       		.byte	0
 10062 2aee 05       		.uleb128 0x5
 10063 2aef 46290000 		.4byte	.LASF711
 10064 2af3 26       		.byte	0x26
 10065 2af4 41       		.byte	0x41
 10066 2af5 852A0000 		.4byte	0x2a85
 10067 2af9 15       		.uleb128 0x15
 10068 2afa 20       		.byte	0x20
 10069 2afb 26       		.byte	0x26
 10070 2afc 46       		.byte	0x46
 10071 2afd 622B0000 		.4byte	0x2b62
 10072 2b01 08       		.uleb128 0x8
 10073 2b02 8F150000 		.4byte	.LASF712
 10074 2b06 26       		.byte	0x26
 10075 2b07 47       		.byte	0x47
 10076 2b08 0F010000 		.4byte	0x10f
 10077 2b0c 00       		.byte	0
 10078 2b0d 08       		.uleb128 0x8
 10079 2b0e 7F140000 		.4byte	.LASF713
 10080 2b12 26       		.byte	0x26
 10081 2b13 49       		.byte	0x49
 10082 2b14 0F010000 		.4byte	0x10f
 10083 2b18 04       		.byte	0x4
 10084 2b19 08       		.uleb128 0x8
 10085 2b1a 92300000 		.4byte	.LASF714
 10086 2b1e 26       		.byte	0x26
 10087 2b1f 4A       		.byte	0x4a
 10088 2b20 0F010000 		.4byte	0x10f
 10089 2b24 08       		.byte	0x8
 10090 2b25 08       		.uleb128 0x8
 10091 2b26 CD1A0000 		.4byte	.LASF715
ARM GAS  /tmp/ccHCUo6g.s 			page 193


 10092 2b2a 26       		.byte	0x26
 10093 2b2b 4C       		.byte	0x4c
 10094 2b2c 0F010000 		.4byte	0x10f
 10095 2b30 0C       		.byte	0xc
 10096 2b31 08       		.uleb128 0x8
 10097 2b32 CA210000 		.4byte	.LASF716
 10098 2b36 26       		.byte	0x26
 10099 2b37 4D       		.byte	0x4d
 10100 2b38 0F010000 		.4byte	0x10f
 10101 2b3c 10       		.byte	0x10
 10102 2b3d 08       		.uleb128 0x8
 10103 2b3e D7140000 		.4byte	.LASF708
 10104 2b42 26       		.byte	0x26
 10105 2b43 4F       		.byte	0x4f
 10106 2b44 0F010000 		.4byte	0x10f
 10107 2b48 14       		.byte	0x14
 10108 2b49 08       		.uleb128 0x8
 10109 2b4a 470A0000 		.4byte	.LASF717
 10110 2b4e 26       		.byte	0x26
 10111 2b4f 50       		.byte	0x50
 10112 2b50 0F010000 		.4byte	0x10f
 10113 2b54 18       		.byte	0x18
 10114 2b55 08       		.uleb128 0x8
 10115 2b56 7B300000 		.4byte	.LASF718
 10116 2b5a 26       		.byte	0x26
 10117 2b5b 52       		.byte	0x52
 10118 2b5c 0F010000 		.4byte	0x10f
 10119 2b60 1C       		.byte	0x1c
 10120 2b61 00       		.byte	0
 10121 2b62 05       		.uleb128 0x5
 10122 2b63 D70B0000 		.4byte	.LASF719
 10123 2b67 26       		.byte	0x26
 10124 2b68 53       		.byte	0x53
 10125 2b69 F92A0000 		.4byte	0x2af9
 10126 2b6d 15       		.uleb128 0x15
 10127 2b6e 20       		.byte	0x20
 10128 2b6f 26       		.byte	0x26
 10129 2b70 58       		.byte	0x58
 10130 2b71 D62B0000 		.4byte	0x2bd6
 10131 2b75 08       		.uleb128 0x8
 10132 2b76 0A2A0000 		.4byte	.LASF720
 10133 2b7a 26       		.byte	0x26
 10134 2b7b 59       		.byte	0x59
 10135 2b7c 0F010000 		.4byte	0x10f
 10136 2b80 00       		.byte	0
 10137 2b81 08       		.uleb128 0x8
 10138 2b82 7F140000 		.4byte	.LASF713
 10139 2b86 26       		.byte	0x26
 10140 2b87 5B       		.byte	0x5b
 10141 2b88 0F010000 		.4byte	0x10f
 10142 2b8c 04       		.byte	0x4
 10143 2b8d 08       		.uleb128 0x8
 10144 2b8e E2230000 		.4byte	.LASF721
 10145 2b92 26       		.byte	0x26
 10146 2b93 5C       		.byte	0x5c
 10147 2b94 0F010000 		.4byte	0x10f
 10148 2b98 08       		.byte	0x8
ARM GAS  /tmp/ccHCUo6g.s 			page 194


 10149 2b99 08       		.uleb128 0x8
 10150 2b9a CD1A0000 		.4byte	.LASF715
 10151 2b9e 26       		.byte	0x26
 10152 2b9f 5E       		.byte	0x5e
 10153 2ba0 0F010000 		.4byte	0x10f
 10154 2ba4 0C       		.byte	0xc
 10155 2ba5 08       		.uleb128 0x8
 10156 2ba6 87320000 		.4byte	.LASF722
 10157 2baa 26       		.byte	0x26
 10158 2bab 5F       		.byte	0x5f
 10159 2bac 0F010000 		.4byte	0x10f
 10160 2bb0 10       		.byte	0x10
 10161 2bb1 08       		.uleb128 0x8
 10162 2bb2 D7140000 		.4byte	.LASF708
 10163 2bb6 26       		.byte	0x26
 10164 2bb7 61       		.byte	0x61
 10165 2bb8 0F010000 		.4byte	0x10f
 10166 2bbc 14       		.byte	0x14
 10167 2bbd 08       		.uleb128 0x8
 10168 2bbe E9140000 		.4byte	.LASF709
 10169 2bc2 26       		.byte	0x26
 10170 2bc3 62       		.byte	0x62
 10171 2bc4 0F010000 		.4byte	0x10f
 10172 2bc8 18       		.byte	0x18
 10173 2bc9 08       		.uleb128 0x8
 10174 2bca 7B300000 		.4byte	.LASF718
 10175 2bce 26       		.byte	0x26
 10176 2bcf 63       		.byte	0x63
 10177 2bd0 0F010000 		.4byte	0x10f
 10178 2bd4 1C       		.byte	0x1c
 10179 2bd5 00       		.byte	0
 10180 2bd6 05       		.uleb128 0x5
 10181 2bd7 4A220000 		.4byte	.LASF723
 10182 2bdb 26       		.byte	0x26
 10183 2bdc 64       		.byte	0x64
 10184 2bdd 6D2B0000 		.4byte	0x2b6d
 10185 2be1 27       		.uleb128 0x27
 10186 2be2 00100100 		.4byte	0x11000
 10187 2be6 26       		.byte	0x26
 10188 2be7 69       		.byte	0x69
 10189 2be8 BE2E0000 		.4byte	0x2ebe
 10190 2bec 08       		.uleb128 0x8
 10191 2bed 80070000 		.4byte	.LASF724
 10192 2bf1 26       		.byte	0x26
 10193 2bf2 6A       		.byte	0x6a
 10194 2bf3 0F010000 		.4byte	0x10f
 10195 2bf7 00       		.byte	0
 10196 2bf8 08       		.uleb128 0x8
 10197 2bf9 28120000 		.4byte	.LASF725
 10198 2bfd 26       		.byte	0x26
 10199 2bfe 6B       		.byte	0x6b
 10200 2bff 0F010000 		.4byte	0x10f
 10201 2c03 04       		.byte	0x4
 10202 2c04 08       		.uleb128 0x8
 10203 2c05 C20A0000 		.4byte	.LASF726
 10204 2c09 26       		.byte	0x26
 10205 2c0a 6C       		.byte	0x6c
ARM GAS  /tmp/ccHCUo6g.s 			page 195


 10206 2c0b 0F010000 		.4byte	0x10f
 10207 2c0f 08       		.byte	0x8
 10208 2c10 08       		.uleb128 0x8
 10209 2c11 B8380000 		.4byte	.LASF727
 10210 2c15 26       		.byte	0x26
 10211 2c16 6D       		.byte	0x6d
 10212 2c17 0F010000 		.4byte	0x10f
 10213 2c1b 0C       		.byte	0xc
 10214 2c1c 08       		.uleb128 0x8
 10215 2c1d 661D0000 		.4byte	.LASF728
 10216 2c21 26       		.byte	0x26
 10217 2c22 6E       		.byte	0x6e
 10218 2c23 0F010000 		.4byte	0x10f
 10219 2c27 10       		.byte	0x10
 10220 2c28 08       		.uleb128 0x8
 10221 2c29 26100000 		.4byte	.LASF729
 10222 2c2d 26       		.byte	0x26
 10223 2c2e 6F       		.byte	0x6f
 10224 2c2f 0F010000 		.4byte	0x10f
 10225 2c33 14       		.byte	0x14
 10226 2c34 08       		.uleb128 0x8
 10227 2c35 5C270000 		.4byte	.LASF730
 10228 2c39 26       		.byte	0x26
 10229 2c3a 70       		.byte	0x70
 10230 2c3b 0F010000 		.4byte	0x10f
 10231 2c3f 18       		.byte	0x18
 10232 2c40 08       		.uleb128 0x8
 10233 2c41 6C0B0000 		.4byte	.LASF731
 10234 2c45 26       		.byte	0x26
 10235 2c46 71       		.byte	0x71
 10236 2c47 0F010000 		.4byte	0x10f
 10237 2c4b 1C       		.byte	0x1c
 10238 2c4c 08       		.uleb128 0x8
 10239 2c4d 640B0000 		.4byte	.LASF732
 10240 2c51 26       		.byte	0x26
 10241 2c52 73       		.byte	0x73
 10242 2c53 0F010000 		.4byte	0x10f
 10243 2c57 20       		.byte	0x20
 10244 2c58 08       		.uleb128 0x8
 10245 2c59 A62D0000 		.4byte	.LASF733
 10246 2c5d 26       		.byte	0x26
 10247 2c5e 75       		.byte	0x75
 10248 2c5f 0F010000 		.4byte	0x10f
 10249 2c63 24       		.byte	0x24
 10250 2c64 08       		.uleb128 0x8
 10251 2c65 45010000 		.4byte	.LASF734
 10252 2c69 26       		.byte	0x26
 10253 2c6a 76       		.byte	0x76
 10254 2c6b 0F010000 		.4byte	0x10f
 10255 2c6f 28       		.byte	0x28
 10256 2c70 08       		.uleb128 0x8
 10257 2c71 83270000 		.4byte	.LASF735
 10258 2c75 26       		.byte	0x26
 10259 2c76 78       		.byte	0x78
 10260 2c77 0F010000 		.4byte	0x10f
 10261 2c7b 2C       		.byte	0x2c
 10262 2c7c 08       		.uleb128 0x8
ARM GAS  /tmp/ccHCUo6g.s 			page 196


 10263 2c7d 71160000 		.4byte	.LASF736
 10264 2c81 26       		.byte	0x26
 10265 2c82 7A       		.byte	0x7a
 10266 2c83 0F010000 		.4byte	0x10f
 10267 2c87 30       		.byte	0x30
 10268 2c88 08       		.uleb128 0x8
 10269 2c89 88160000 		.4byte	.LASF737
 10270 2c8d 26       		.byte	0x26
 10271 2c8e 7B       		.byte	0x7b
 10272 2c8f 0F010000 		.4byte	0x10f
 10273 2c93 34       		.byte	0x34
 10274 2c94 08       		.uleb128 0x8
 10275 2c95 00030000 		.4byte	.LASF738
 10276 2c99 26       		.byte	0x26
 10277 2c9a 7C       		.byte	0x7c
 10278 2c9b 0F010000 		.4byte	0x10f
 10279 2c9f 38       		.byte	0x38
 10280 2ca0 16       		.uleb128 0x16
 10281 2ca1 43494400 		.ascii	"CID\000"
 10282 2ca5 26       		.byte	0x26
 10283 2ca6 7D       		.byte	0x7d
 10284 2ca7 0F010000 		.4byte	0x10f
 10285 2cab 3C       		.byte	0x3c
 10286 2cac 08       		.uleb128 0x8
 10287 2cad 76190000 		.4byte	.LASF739
 10288 2cb1 26       		.byte	0x26
 10289 2cb2 7E       		.byte	0x7e
 10290 2cb3 CE2E0000 		.4byte	0x2ece
 10291 2cb7 40       		.byte	0x40
 10292 2cb8 26       		.uleb128 0x26
 10293 2cb9 24340000 		.4byte	.LASF740
 10294 2cbd 26       		.byte	0x26
 10295 2cbe 7F       		.byte	0x7f
 10296 2cbf 0F010000 		.4byte	0x10f
 10297 2cc3 0001     		.2byte	0x100
 10298 2cc5 26       		.uleb128 0x26
 10299 2cc6 B4030000 		.4byte	.LASF741
 10300 2cca 26       		.byte	0x26
 10301 2ccb 81       		.byte	0x81
 10302 2ccc 8D0A0000 		.4byte	0xa8d
 10303 2cd0 0401     		.2byte	0x104
 10304 2cd2 26       		.uleb128 0x26
 10305 2cd3 EE1E0000 		.4byte	.LASF742
 10306 2cd7 26       		.byte	0x26
 10307 2cd8 83       		.byte	0x83
 10308 2cd9 E32E0000 		.4byte	0x2ee3
 10309 2cdd 4001     		.2byte	0x140
 10310 2cdf 26       		.uleb128 0x26
 10311 2ce0 3E230000 		.4byte	.LASF743
 10312 2ce4 26       		.byte	0x26
 10313 2ce5 84       		.byte	0x84
 10314 2ce6 0F010000 		.4byte	0x10f
 10315 2cea 0004     		.2byte	0x400
 10316 2cec 26       		.uleb128 0x26
 10317 2ced 0C380000 		.4byte	.LASF744
 10318 2cf1 26       		.byte	0x26
 10319 2cf2 85       		.byte	0x85
ARM GAS  /tmp/ccHCUo6g.s 			page 197


 10320 2cf3 0F010000 		.4byte	0x10f
 10321 2cf7 0404     		.2byte	0x404
 10322 2cf9 26       		.uleb128 0x26
 10323 2cfa A8060000 		.4byte	.LASF745
 10324 2cfe 26       		.byte	0x26
 10325 2cff 86       		.byte	0x86
 10326 2d00 0F010000 		.4byte	0x10f
 10327 2d04 0804     		.2byte	0x408
 10328 2d06 26       		.uleb128 0x26
 10329 2d07 7C120000 		.4byte	.LASF746
 10330 2d0b 26       		.byte	0x26
 10331 2d0c 88       		.byte	0x88
 10332 2d0d 0F010000 		.4byte	0x10f
 10333 2d11 0C04     		.2byte	0x40c
 10334 2d13 26       		.uleb128 0x26
 10335 2d14 BC040000 		.4byte	.LASF747
 10336 2d18 26       		.byte	0x26
 10337 2d19 89       		.byte	0x89
 10338 2d1a 0F010000 		.4byte	0x10f
 10339 2d1e 1004     		.2byte	0x410
 10340 2d20 26       		.uleb128 0x26
 10341 2d21 52060000 		.4byte	.LASF748
 10342 2d25 26       		.byte	0x26
 10343 2d26 8B       		.byte	0x8b
 10344 2d27 0F010000 		.4byte	0x10f
 10345 2d2b 1404     		.2byte	0x414
 10346 2d2d 26       		.uleb128 0x26
 10347 2d2e 47120000 		.4byte	.LASF749
 10348 2d32 26       		.byte	0x26
 10349 2d33 8D       		.byte	0x8d
 10350 2d34 0F010000 		.4byte	0x10f
 10351 2d38 1804     		.2byte	0x418
 10352 2d3a 26       		.uleb128 0x26
 10353 2d3b 2A2C0000 		.4byte	.LASF750
 10354 2d3f 26       		.byte	0x26
 10355 2d40 8F       		.byte	0x8f
 10356 2d41 F82E0000 		.4byte	0x2ef8
 10357 2d45 1C04     		.2byte	0x41c
 10358 2d47 26       		.uleb128 0x26
 10359 2d48 14040000 		.4byte	.LASF751
 10360 2d4c 26       		.byte	0x26
 10361 2d4d 90       		.byte	0x90
 10362 2d4e 0F010000 		.4byte	0x10f
 10363 2d52 4004     		.2byte	0x440
 10364 2d54 26       		.uleb128 0x26
 10365 2d55 AA2E0000 		.4byte	.LASF752
 10366 2d59 26       		.byte	0x26
 10367 2d5a 92       		.byte	0x92
 10368 2d5b 0D2F0000 		.4byte	0x2f0d
 10369 2d5f 4404     		.2byte	0x444
 10370 2d61 28       		.uleb128 0x28
 10371 2d62 686300   		.ascii	"hc\000"
 10372 2d65 26       		.byte	0x26
 10373 2d66 93       		.byte	0x93
 10374 2d67 122F0000 		.4byte	0x2f12
 10375 2d6b 0005     		.2byte	0x500
 10376 2d6d 26       		.uleb128 0x26
ARM GAS  /tmp/ccHCUo6g.s 			page 198


 10377 2d6e F6010000 		.4byte	.LASF753
 10378 2d72 26       		.byte	0x26
 10379 2d73 94       		.byte	0x94
 10380 2d74 322F0000 		.4byte	0x2f32
 10381 2d78 0007     		.2byte	0x700
 10382 2d7a 26       		.uleb128 0x26
 10383 2d7b 972A0000 		.4byte	.LASF754
 10384 2d7f 26       		.byte	0x26
 10385 2d80 95       		.byte	0x95
 10386 2d81 0F010000 		.4byte	0x10f
 10387 2d85 0008     		.2byte	0x800
 10388 2d87 26       		.uleb128 0x26
 10389 2d88 C7350000 		.4byte	.LASF755
 10390 2d8c 26       		.byte	0x26
 10391 2d8d 96       		.byte	0x96
 10392 2d8e 0F010000 		.4byte	0x10f
 10393 2d92 0408     		.2byte	0x804
 10394 2d94 26       		.uleb128 0x26
 10395 2d95 2E1C0000 		.4byte	.LASF756
 10396 2d99 26       		.byte	0x26
 10397 2d9a 97       		.byte	0x97
 10398 2d9b 0F010000 		.4byte	0x10f
 10399 2d9f 0808     		.2byte	0x808
 10400 2da1 26       		.uleb128 0x26
 10401 2da2 69070000 		.4byte	.LASF757
 10402 2da6 26       		.byte	0x26
 10403 2da7 98       		.byte	0x98
 10404 2da8 0F010000 		.4byte	0x10f
 10405 2dac 0C08     		.2byte	0x80c
 10406 2dae 26       		.uleb128 0x26
 10407 2daf 20120000 		.4byte	.LASF758
 10408 2db3 26       		.byte	0x26
 10409 2db4 99       		.byte	0x99
 10410 2db5 0F010000 		.4byte	0x10f
 10411 2db9 1008     		.2byte	0x810
 10412 2dbb 26       		.uleb128 0x26
 10413 2dbc CA300000 		.4byte	.LASF759
 10414 2dc0 26       		.byte	0x26
 10415 2dc1 9B       		.byte	0x9b
 10416 2dc2 0F010000 		.4byte	0x10f
 10417 2dc6 1408     		.2byte	0x814
 10418 2dc8 26       		.uleb128 0x26
 10419 2dc9 CA310000 		.4byte	.LASF760
 10420 2dcd 26       		.byte	0x26
 10421 2dce 9D       		.byte	0x9d
 10422 2dcf 0F010000 		.4byte	0x10f
 10423 2dd3 1808     		.2byte	0x818
 10424 2dd5 26       		.uleb128 0x26
 10425 2dd6 052D0000 		.4byte	.LASF761
 10426 2dda 26       		.byte	0x26
 10427 2ddb 9F       		.byte	0x9f
 10428 2ddc 0F010000 		.4byte	0x10f
 10429 2de0 1C08     		.2byte	0x81c
 10430 2de2 26       		.uleb128 0x26
 10431 2de3 BB080000 		.4byte	.LASF762
 10432 2de7 26       		.byte	0x26
 10433 2de8 A1       		.byte	0xa1
ARM GAS  /tmp/ccHCUo6g.s 			page 199


 10434 2de9 0F010000 		.4byte	0x10f
 10435 2ded 2008     		.2byte	0x820
 10436 2def 26       		.uleb128 0x26
 10437 2df0 C1070000 		.4byte	.LASF763
 10438 2df4 26       		.byte	0x26
 10439 2df5 A2       		.byte	0xa2
 10440 2df6 0F010000 		.4byte	0x10f
 10441 2dfa 2408     		.2byte	0x824
 10442 2dfc 26       		.uleb128 0x26
 10443 2dfd FF010000 		.4byte	.LASF764
 10444 2e01 26       		.byte	0x26
 10445 2e02 A3       		.byte	0xa3
 10446 2e03 0F010000 		.4byte	0x10f
 10447 2e07 2808     		.2byte	0x828
 10448 2e09 26       		.uleb128 0x26
 10449 2e0a 2B0A0000 		.4byte	.LASF765
 10450 2e0e 26       		.byte	0x26
 10451 2e0f A5       		.byte	0xa5
 10452 2e10 0F010000 		.4byte	0x10f
 10453 2e14 2C08     		.2byte	0x82c
 10454 2e16 26       		.uleb128 0x26
 10455 2e17 B4090000 		.4byte	.LASF766
 10456 2e1b 26       		.byte	0x26
 10457 2e1c A7       		.byte	0xa7
 10458 2e1d 0F010000 		.4byte	0x10f
 10459 2e21 3008     		.2byte	0x830
 10460 2e23 26       		.uleb128 0x26
 10461 2e24 5A150000 		.4byte	.LASF767
 10462 2e28 26       		.byte	0x26
 10463 2e29 A8       		.byte	0xa8
 10464 2e2a 0F010000 		.4byte	0x10f
 10465 2e2e 3408     		.2byte	0x834
 10466 2e30 26       		.uleb128 0x26
 10467 2e31 D6090000 		.4byte	.LASF768
 10468 2e35 26       		.byte	0x26
 10469 2e36 AA       		.byte	0xaa
 10470 2e37 0F010000 		.4byte	0x10f
 10471 2e3b 3808     		.2byte	0x838
 10472 2e3d 26       		.uleb128 0x26
 10473 2e3e 0C0A0000 		.4byte	.LASF769
 10474 2e42 26       		.byte	0x26
 10475 2e43 AB       		.byte	0xab
 10476 2e44 0F010000 		.4byte	0x10f
 10477 2e48 3C08     		.2byte	0x83c
 10478 2e4a 26       		.uleb128 0x26
 10479 2e4b D20A0000 		.4byte	.LASF770
 10480 2e4f 26       		.byte	0x26
 10481 2e50 AC       		.byte	0xac
 10482 2e51 472F0000 		.4byte	0x2f47
 10483 2e55 4008     		.2byte	0x840
 10484 2e57 26       		.uleb128 0x26
 10485 2e58 051A0000 		.4byte	.LASF771
 10486 2e5c 26       		.byte	0x26
 10487 2e5d AD       		.byte	0xad
 10488 2e5e 472F0000 		.4byte	0x2f47
 10489 2e62 8008     		.2byte	0x880
 10490 2e64 26       		.uleb128 0x26
ARM GAS  /tmp/ccHCUo6g.s 			page 200


 10491 2e65 BA1A0000 		.4byte	.LASF772
 10492 2e69 26       		.byte	0x26
 10493 2e6a AE       		.byte	0xae
 10494 2e6b 472F0000 		.4byte	0x2f47
 10495 2e6f C008     		.2byte	0x8c0
 10496 2e71 28       		.uleb128 0x28
 10497 2e72 696500   		.ascii	"ie\000"
 10498 2e75 26       		.byte	0x26
 10499 2e76 AF       		.byte	0xaf
 10500 2e77 4C2F0000 		.4byte	0x2f4c
 10501 2e7b 0009     		.2byte	0x900
 10502 2e7d 28       		.uleb128 0x28
 10503 2e7e 6F6500   		.ascii	"oe\000"
 10504 2e81 26       		.byte	0x26
 10505 2e82 B0       		.byte	0xb0
 10506 2e83 5C2F0000 		.4byte	0x2f5c
 10507 2e87 000B     		.2byte	0xb00
 10508 2e89 26       		.uleb128 0x26
 10509 2e8a 10100000 		.4byte	.LASF773
 10510 2e8e 26       		.byte	0x26
 10511 2e8f B1       		.byte	0xb1
 10512 2e90 322F0000 		.4byte	0x2f32
 10513 2e94 000D     		.2byte	0xd00
 10514 2e96 26       		.uleb128 0x26
 10515 2e97 D2350000 		.4byte	.LASF774
 10516 2e9b 26       		.byte	0x26
 10517 2e9c B2       		.byte	0xb2
 10518 2e9d 0F010000 		.4byte	0x10f
 10519 2ea1 000E     		.2byte	0xe00
 10520 2ea3 26       		.uleb128 0x26
 10521 2ea4 C0170000 		.4byte	.LASF775
 10522 2ea8 26       		.byte	0x26
 10523 2ea9 B4       		.byte	0xb4
 10524 2eaa 7C2F0000 		.4byte	0x2f7c
 10525 2eae 040E     		.2byte	0xe04
 10526 2eb0 26       		.uleb128 0x26
 10527 2eb1 34350000 		.4byte	.LASF776
 10528 2eb5 26       		.byte	0x26
 10529 2eb6 B5       		.byte	0xb5
 10530 2eb7 982F0000 		.4byte	0x2f98
 10531 2ebb 0010     		.2byte	0x1000
 10532 2ebd 00       		.byte	0
 10533 2ebe 11       		.uleb128 0x11
 10534 2ebf 0F010000 		.4byte	0x10f
 10535 2ec3 CE2E0000 		.4byte	0x2ece
 10536 2ec7 12       		.uleb128 0x12
 10537 2ec8 48000000 		.4byte	0x48
 10538 2ecc 2F       		.byte	0x2f
 10539 2ecd 00       		.byte	0
 10540 2ece 04       		.uleb128 0x4
 10541 2ecf BE2E0000 		.4byte	0x2ebe
 10542 2ed3 11       		.uleb128 0x11
 10543 2ed4 0F010000 		.4byte	0x10f
 10544 2ed8 E32E0000 		.4byte	0x2ee3
 10545 2edc 12       		.uleb128 0x12
 10546 2edd 48000000 		.4byte	0x48
 10547 2ee1 AF       		.byte	0xaf
ARM GAS  /tmp/ccHCUo6g.s 			page 201


 10548 2ee2 00       		.byte	0
 10549 2ee3 04       		.uleb128 0x4
 10550 2ee4 D32E0000 		.4byte	0x2ed3
 10551 2ee8 11       		.uleb128 0x11
 10552 2ee9 0F010000 		.4byte	0x10f
 10553 2eed F82E0000 		.4byte	0x2ef8
 10554 2ef1 12       		.uleb128 0x12
 10555 2ef2 48000000 		.4byte	0x48
 10556 2ef6 08       		.byte	0x8
 10557 2ef7 00       		.byte	0
 10558 2ef8 04       		.uleb128 0x4
 10559 2ef9 E82E0000 		.4byte	0x2ee8
 10560 2efd 11       		.uleb128 0x11
 10561 2efe 0F010000 		.4byte	0x10f
 10562 2f02 0D2F0000 		.4byte	0x2f0d
 10563 2f06 12       		.uleb128 0x12
 10564 2f07 48000000 		.4byte	0x48
 10565 2f0b 2E       		.byte	0x2e
 10566 2f0c 00       		.byte	0
 10567 2f0d 04       		.uleb128 0x4
 10568 2f0e FD2E0000 		.4byte	0x2efd
 10569 2f12 11       		.uleb128 0x11
 10570 2f13 EE2A0000 		.4byte	0x2aee
 10571 2f17 222F0000 		.4byte	0x2f22
 10572 2f1b 12       		.uleb128 0x12
 10573 2f1c 48000000 		.4byte	0x48
 10574 2f20 0F       		.byte	0xf
 10575 2f21 00       		.byte	0
 10576 2f22 11       		.uleb128 0x11
 10577 2f23 0F010000 		.4byte	0x10f
 10578 2f27 322F0000 		.4byte	0x2f32
 10579 2f2b 12       		.uleb128 0x12
 10580 2f2c 48000000 		.4byte	0x48
 10581 2f30 3F       		.byte	0x3f
 10582 2f31 00       		.byte	0
 10583 2f32 04       		.uleb128 0x4
 10584 2f33 222F0000 		.4byte	0x2f22
 10585 2f37 11       		.uleb128 0x11
 10586 2f38 0F010000 		.4byte	0x10f
 10587 2f3c 472F0000 		.4byte	0x2f47
 10588 2f40 12       		.uleb128 0x12
 10589 2f41 48000000 		.4byte	0x48
 10590 2f45 0F       		.byte	0xf
 10591 2f46 00       		.byte	0
 10592 2f47 04       		.uleb128 0x4
 10593 2f48 372F0000 		.4byte	0x2f37
 10594 2f4c 11       		.uleb128 0x11
 10595 2f4d 622B0000 		.4byte	0x2b62
 10596 2f51 5C2F0000 		.4byte	0x2f5c
 10597 2f55 12       		.uleb128 0x12
 10598 2f56 48000000 		.4byte	0x48
 10599 2f5a 0F       		.byte	0xf
 10600 2f5b 00       		.byte	0
 10601 2f5c 11       		.uleb128 0x11
 10602 2f5d D62B0000 		.4byte	0x2bd6
 10603 2f61 6C2F0000 		.4byte	0x2f6c
 10604 2f65 12       		.uleb128 0x12
ARM GAS  /tmp/ccHCUo6g.s 			page 202


 10605 2f66 48000000 		.4byte	0x48
 10606 2f6a 0F       		.byte	0xf
 10607 2f6b 00       		.byte	0
 10608 2f6c 11       		.uleb128 0x11
 10609 2f6d 0F010000 		.4byte	0x10f
 10610 2f71 7C2F0000 		.4byte	0x2f7c
 10611 2f75 12       		.uleb128 0x12
 10612 2f76 48000000 		.4byte	0x48
 10613 2f7a 7E       		.byte	0x7e
 10614 2f7b 00       		.byte	0
 10615 2f7c 04       		.uleb128 0x4
 10616 2f7d 6C2F0000 		.4byte	0x2f6c
 10617 2f81 11       		.uleb128 0x11
 10618 2f82 0F010000 		.4byte	0x10f
 10619 2f86 982F0000 		.4byte	0x2f98
 10620 2f8a 12       		.uleb128 0x12
 10621 2f8b 48000000 		.4byte	0x48
 10622 2f8f 0F       		.byte	0xf
 10623 2f90 29       		.uleb128 0x29
 10624 2f91 48000000 		.4byte	0x48
 10625 2f95 FF03     		.2byte	0x3ff
 10626 2f97 00       		.byte	0
 10627 2f98 04       		.uleb128 0x4
 10628 2f99 812F0000 		.4byte	0x2f81
 10629 2f9d 05       		.uleb128 0x5
 10630 2f9e 0B390000 		.4byte	.LASF777
 10631 2fa2 26       		.byte	0x26
 10632 2fa3 B6       		.byte	0xb6
 10633 2fa4 E12B0000 		.4byte	0x2be1
 10634 2fa8 15       		.uleb128 0x15
 10635 2fa9 0C       		.byte	0xc
 10636 2faa 25       		.byte	0x25
 10637 2fab C6       		.byte	0xc6
 10638 2fac D52F0000 		.4byte	0x2fd5
 10639 2fb0 08       		.uleb128 0x8
 10640 2fb1 D60C0000 		.4byte	.LASF778
 10641 2fb5 25       		.byte	0x25
 10642 2fb6 C7       		.byte	0xc7
 10643 2fb7 04010000 		.4byte	0x104
 10644 2fbb 00       		.byte	0
 10645 2fbc 08       		.uleb128 0x8
 10646 2fbd F00F0000 		.4byte	.LASF779
 10647 2fc1 25       		.byte	0x25
 10648 2fc2 C8       		.byte	0xc8
 10649 2fc3 04010000 		.4byte	0x104
 10650 2fc7 04       		.byte	0x4
 10651 2fc8 08       		.uleb128 0x8
 10652 2fc9 C9170000 		.4byte	.LASF780
 10653 2fcd 25       		.byte	0x25
 10654 2fce C9       		.byte	0xc9
 10655 2fcf 04010000 		.4byte	0x104
 10656 2fd3 08       		.byte	0x8
 10657 2fd4 00       		.byte	0
 10658 2fd5 05       		.uleb128 0x5
 10659 2fd6 FD0F0000 		.4byte	.LASF781
 10660 2fda 25       		.byte	0x25
 10661 2fdb CA       		.byte	0xca
ARM GAS  /tmp/ccHCUo6g.s 			page 203


 10662 2fdc A82F0000 		.4byte	0x2fa8
 10663 2fe0 06       		.uleb128 0x6
 10664 2fe1 D52F0000 		.4byte	0x2fd5
 10665 2fe5 15       		.uleb128 0x15
 10666 2fe6 04       		.byte	0x4
 10667 2fe7 25       		.byte	0x25
 10668 2fe8 DD       		.byte	0xdd
 10669 2fe9 FA2F0000 		.4byte	0x2ffa
 10670 2fed 08       		.uleb128 0x8
 10671 2fee CC350000 		.4byte	.LASF782
 10672 2ff2 25       		.byte	0x25
 10673 2ff3 E1       		.byte	0xe1
 10674 2ff4 8F0F0000 		.4byte	0xf8f
 10675 2ff8 00       		.byte	0
 10676 2ff9 00       		.byte	0
 10677 2ffa 15       		.uleb128 0x15
 10678 2ffb 04       		.byte	0x4
 10679 2ffc 25       		.byte	0x25
 10680 2ffd E3       		.byte	0xe3
 10681 2ffe 0F300000 		.4byte	0x300f
 10682 3002 08       		.uleb128 0x8
 10683 3003 640D0000 		.4byte	.LASF556
 10684 3007 25       		.byte	0x25
 10685 3008 E7       		.byte	0xe7
 10686 3009 0F300000 		.4byte	0x300f
 10687 300d 00       		.byte	0
 10688 300e 00       		.byte	0
 10689 300f 0B       		.uleb128 0xb
 10690 3010 04       		.byte	0x4
 10691 3011 6B0F0000 		.4byte	0xf6b
 10692 3015 1C       		.uleb128 0x1c
 10693 3016 04       		.byte	0x4
 10694 3017 25       		.byte	0x25
 10695 3018 DC       		.byte	0xdc
 10696 3019 34300000 		.4byte	0x3034
 10697 301d 2A       		.uleb128 0x2a
 10698 301e F82E0000 		.4byte	.LASF783
 10699 3022 25       		.byte	0x25
 10700 3023 E2       		.byte	0xe2
 10701 3024 E52F0000 		.4byte	0x2fe5
 10702 3028 2A       		.uleb128 0x2a
 10703 3029 5D2D0000 		.4byte	.LASF784
 10704 302d 25       		.byte	0x25
 10705 302e E8       		.byte	0xe8
 10706 302f FA2F0000 		.4byte	0x2ffa
 10707 3033 00       		.byte	0
 10708 3034 15       		.uleb128 0x15
 10709 3035 14       		.byte	0x14
 10710 3036 25       		.byte	0x25
 10711 3037 CF       		.byte	0xcf
 10712 3038 79300000 		.4byte	0x3079
 10713 303c 08       		.uleb128 0x8
 10714 303d 330B0000 		.4byte	.LASF785
 10715 3041 25       		.byte	0x25
 10716 3042 D3       		.byte	0xd3
 10717 3043 AF180000 		.4byte	0x18af
 10718 3047 00       		.byte	0
ARM GAS  /tmp/ccHCUo6g.s 			page 204


 10719 3048 08       		.uleb128 0x8
 10720 3049 A01C0000 		.4byte	.LASF786
 10721 304d 25       		.byte	0x25
 10722 304e D7       		.byte	0xd7
 10723 304f 38000000 		.4byte	0x38
 10724 3053 04       		.byte	0x4
 10725 3054 08       		.uleb128 0x8
 10726 3055 BD340000 		.4byte	.LASF787
 10727 3059 25       		.byte	0x25
 10728 305a DB       		.byte	0xdb
 10729 305b 38000000 		.4byte	0x38
 10730 305f 08       		.byte	0x8
 10731 3060 08       		.uleb128 0x8
 10732 3061 030C0000 		.4byte	.LASF617
 10733 3065 25       		.byte	0x25
 10734 3066 E9       		.byte	0xe9
 10735 3067 15300000 		.4byte	0x3015
 10736 306b 0C       		.byte	0xc
 10737 306c 08       		.uleb128 0x8
 10738 306d EC170000 		.4byte	.LASF788
 10739 3071 25       		.byte	0x25
 10740 3072 ED       		.byte	0xed
 10741 3073 38000000 		.4byte	0x38
 10742 3077 10       		.byte	0x10
 10743 3078 00       		.byte	0
 10744 3079 05       		.uleb128 0x5
 10745 307a 7E190000 		.4byte	.LASF789
 10746 307e 25       		.byte	0x25
 10747 307f EE       		.byte	0xee
 10748 3080 34300000 		.4byte	0x3034
 10749 3084 17       		.uleb128 0x17
 10750 3085 04       		.byte	0x4
 10751 3086 25       		.byte	0x25
 10752 3087 0101     		.2byte	0x101
 10753 3089 9B300000 		.4byte	0x309b
 10754 308d 0A       		.uleb128 0xa
 10755 308e 20100000 		.4byte	.LASF790
 10756 3092 25       		.byte	0x25
 10757 3093 0501     		.2byte	0x105
 10758 3095 5A0F0000 		.4byte	0xf5a
 10759 3099 00       		.byte	0
 10760 309a 00       		.byte	0
 10761 309b 17       		.uleb128 0x17
 10762 309c 04       		.byte	0x4
 10763 309d 25       		.byte	0x25
 10764 309e 0701     		.2byte	0x107
 10765 30a0 B2300000 		.4byte	0x30b2
 10766 30a4 0A       		.uleb128 0xa
 10767 30a5 892E0000 		.4byte	.LASF557
 10768 30a9 25       		.byte	0x25
 10769 30aa 0B01     		.2byte	0x10b
 10770 30ac B2300000 		.4byte	0x30b2
 10771 30b0 00       		.byte	0
 10772 30b1 00       		.byte	0
 10773 30b2 0B       		.uleb128 0xb
 10774 30b3 04       		.byte	0x4
 10775 30b4 600F0000 		.4byte	0xf60
ARM GAS  /tmp/ccHCUo6g.s 			page 205


 10776 30b8 2B       		.uleb128 0x2b
 10777 30b9 04       		.byte	0x4
 10778 30ba 25       		.byte	0x25
 10779 30bb 0001     		.2byte	0x100
 10780 30bd DA300000 		.4byte	0x30da
 10781 30c1 1D       		.uleb128 0x1d
 10782 30c2 F82E0000 		.4byte	.LASF783
 10783 30c6 25       		.byte	0x25
 10784 30c7 0601     		.2byte	0x106
 10785 30c9 84300000 		.4byte	0x3084
 10786 30cd 1D       		.uleb128 0x1d
 10787 30ce 5D2D0000 		.4byte	.LASF784
 10788 30d2 25       		.byte	0x25
 10789 30d3 0C01     		.2byte	0x10c
 10790 30d5 9B300000 		.4byte	0x309b
 10791 30d9 00       		.byte	0
 10792 30da 15       		.uleb128 0x15
 10793 30db 14       		.byte	0x14
 10794 30dc 25       		.byte	0x25
 10795 30dd F3       		.byte	0xf3
 10796 30de 21310000 		.4byte	0x3121
 10797 30e2 08       		.uleb128 0x8
 10798 30e3 76080000 		.4byte	.LASF791
 10799 30e7 25       		.byte	0x25
 10800 30e8 F7       		.byte	0xf7
 10801 30e9 AF180000 		.4byte	0x18af
 10802 30ed 00       		.byte	0
 10803 30ee 08       		.uleb128 0x8
 10804 30ef 231E0000 		.4byte	.LASF792
 10805 30f3 25       		.byte	0x25
 10806 30f4 FB       		.byte	0xfb
 10807 30f5 38000000 		.4byte	0x38
 10808 30f9 04       		.byte	0x4
 10809 30fa 08       		.uleb128 0x8
 10810 30fb E90B0000 		.4byte	.LASF793
 10811 30ff 25       		.byte	0x25
 10812 3100 FF       		.byte	0xff
 10813 3101 38000000 		.4byte	0x38
 10814 3105 08       		.byte	0x8
 10815 3106 0A       		.uleb128 0xa
 10816 3107 030C0000 		.4byte	.LASF617
 10817 310b 25       		.byte	0x25
 10818 310c 0D01     		.2byte	0x10d
 10819 310e B8300000 		.4byte	0x30b8
 10820 3112 0C       		.byte	0xc
 10821 3113 0A       		.uleb128 0xa
 10822 3114 EC170000 		.4byte	.LASF788
 10823 3118 25       		.byte	0x25
 10824 3119 1101     		.2byte	0x111
 10825 311b 38000000 		.4byte	0x38
 10826 311f 10       		.byte	0x10
 10827 3120 00       		.byte	0
 10828 3121 18       		.uleb128 0x18
 10829 3122 052C0000 		.4byte	.LASF794
 10830 3126 25       		.byte	0x25
 10831 3127 1201     		.2byte	0x112
 10832 3129 DA300000 		.4byte	0x30da
ARM GAS  /tmp/ccHCUo6g.s 			page 206


 10833 312d 17       		.uleb128 0x17
 10834 312e 24       		.byte	0x24
 10835 312f 25       		.byte	0x25
 10836 3130 1801     		.2byte	0x118
 10837 3132 B9310000 		.4byte	0x31b9
 10838 3136 0A       		.uleb128 0xa
 10839 3137 42220000 		.4byte	.LASF795
 10840 313b 25       		.byte	0x25
 10841 313c 1C01     		.2byte	0x11c
 10842 313e 04010000 		.4byte	0x104
 10843 3142 00       		.byte	0
 10844 3143 0A       		.uleb128 0xa
 10845 3144 1C0D0000 		.4byte	.LASF796
 10846 3148 25       		.byte	0x25
 10847 3149 2701     		.2byte	0x127
 10848 314b EA290000 		.4byte	0x29ea
 10849 314f 04       		.byte	0x4
 10850 3150 0A       		.uleb128 0xa
 10851 3151 CD230000 		.4byte	.LASF797
 10852 3155 25       		.byte	0x25
 10853 3156 2D01     		.2byte	0x12d
 10854 3158 EA290000 		.4byte	0x29ea
 10855 315c 08       		.byte	0x8
 10856 315d 0A       		.uleb128 0xa
 10857 315e 40120000 		.4byte	.LASF798
 10858 3162 25       		.byte	0x25
 10859 3163 3301     		.2byte	0x133
 10860 3165 EA290000 		.4byte	0x29ea
 10861 3169 0C       		.byte	0xc
 10862 316a 0A       		.uleb128 0xa
 10863 316b 36390000 		.4byte	.LASF799
 10864 316f 25       		.byte	0x25
 10865 3170 3901     		.2byte	0x139
 10866 3172 E4000000 		.4byte	0xe4
 10867 3176 10       		.byte	0x10
 10868 3177 0A       		.uleb128 0xa
 10869 3178 FB180000 		.4byte	.LASF800
 10870 317c 25       		.byte	0x25
 10871 317d 3F01     		.2byte	0x13f
 10872 317f E4000000 		.4byte	0xe4
 10873 3183 12       		.byte	0x12
 10874 3184 0A       		.uleb128 0xa
 10875 3185 3A370000 		.4byte	.LASF801
 10876 3189 25       		.byte	0x25
 10877 318a 4401     		.2byte	0x144
 10878 318c B9310000 		.4byte	0x31b9
 10879 3190 14       		.byte	0x14
 10880 3191 0A       		.uleb128 0xa
 10881 3192 E6150000 		.4byte	.LASF802
 10882 3196 25       		.byte	0x25
 10883 3197 4901     		.2byte	0x149
 10884 3199 BF310000 		.4byte	0x31bf
 10885 319d 18       		.byte	0x18
 10886 319e 0A       		.uleb128 0xa
 10887 319f B81B0000 		.4byte	.LASF803
 10888 31a3 25       		.byte	0x25
 10889 31a4 5001     		.2byte	0x150
ARM GAS  /tmp/ccHCUo6g.s 			page 207


 10890 31a6 E4000000 		.4byte	0xe4
 10891 31aa 1C       		.byte	0x1c
 10892 31ab 0A       		.uleb128 0xa
 10893 31ac 1D360000 		.4byte	.LASF804
 10894 31b0 25       		.byte	0x25
 10895 31b1 5601     		.2byte	0x156
 10896 31b3 5A0F0000 		.4byte	0xf5a
 10897 31b7 20       		.byte	0x20
 10898 31b8 00       		.byte	0
 10899 31b9 0B       		.uleb128 0xb
 10900 31ba 04       		.byte	0x4
 10901 31bb 79300000 		.4byte	0x3079
 10902 31bf 0B       		.uleb128 0xb
 10903 31c0 04       		.byte	0x4
 10904 31c1 21310000 		.4byte	0x3121
 10905 31c5 18       		.uleb128 0x18
 10906 31c6 772E0000 		.4byte	.LASF805
 10907 31ca 25       		.byte	0x25
 10908 31cb 5701     		.2byte	0x157
 10909 31cd 2D310000 		.4byte	0x312d
 10910 31d1 06       		.uleb128 0x6
 10911 31d2 C5310000 		.4byte	0x31c5
 10912 31d6 17       		.uleb128 0x17
 10913 31d7 10       		.byte	0x10
 10914 31d8 25       		.byte	0x25
 10915 31d9 5C01     		.2byte	0x15c
 10916 31db 14320000 		.4byte	0x3214
 10917 31df 0A       		.uleb128 0xa
 10918 31e0 72070000 		.4byte	.LASF806
 10919 31e4 25       		.byte	0x25
 10920 31e5 6101     		.2byte	0x161
 10921 31e7 0C2A0000 		.4byte	0x2a0c
 10922 31eb 00       		.byte	0
 10923 31ec 0A       		.uleb128 0xa
 10924 31ed D5340000 		.4byte	.LASF807
 10925 31f1 25       		.byte	0x25
 10926 31f2 6601     		.2byte	0x166
 10927 31f4 4F2A0000 		.4byte	0x2a4f
 10928 31f8 04       		.byte	0x4
 10929 31f9 0A       		.uleb128 0xa
 10930 31fa 5A1C0000 		.4byte	.LASF808
 10931 31fe 25       		.byte	0x25
 10932 31ff 6C01     		.2byte	0x16c
 10933 3201 2E2A0000 		.4byte	0x2a2e
 10934 3205 08       		.byte	0x8
 10935 3206 0A       		.uleb128 0xa
 10936 3207 71030000 		.4byte	.LASF809
 10937 320b 25       		.byte	0x25
 10938 320c 7001     		.2byte	0x170
 10939 320e C7290000 		.4byte	0x29c7
 10940 3212 0C       		.byte	0xc
 10941 3213 00       		.byte	0
 10942 3214 18       		.uleb128 0x18
 10943 3215 C31A0000 		.4byte	.LASF810
 10944 3219 25       		.byte	0x25
 10945 321a 7201     		.2byte	0x172
 10946 321c D6310000 		.4byte	0x31d6
ARM GAS  /tmp/ccHCUo6g.s 			page 208


 10947 3220 06       		.uleb128 0x6
 10948 3221 14320000 		.4byte	0x3214
 10949 3225 0B       		.uleb128 0xb
 10950 3226 04       		.byte	0x4
 10951 3227 20320000 		.4byte	0x3220
 10952 322b 11       		.uleb128 0x11
 10953 322c 3B320000 		.4byte	0x323b
 10954 3230 3B320000 		.4byte	0x323b
 10955 3234 12       		.uleb128 0x12
 10956 3235 48000000 		.4byte	0x48
 10957 3239 03       		.byte	0x3
 10958 323a 00       		.byte	0
 10959 323b 0B       		.uleb128 0xb
 10960 323c 04       		.byte	0x4
 10961 323d D1310000 		.4byte	0x31d1
 10962 3241 11       		.uleb128 0x11
 10963 3242 95030000 		.4byte	0x395
 10964 3246 51320000 		.4byte	0x3251
 10965 324a 12       		.uleb128 0x12
 10966 324b 48000000 		.4byte	0x48
 10967 324f 02       		.byte	0x2
 10968 3250 00       		.byte	0
 10969 3251 0B       		.uleb128 0xb
 10970 3252 04       		.byte	0x4
 10971 3253 9D2F0000 		.4byte	0x2f9d
 10972 3257 0B       		.uleb128 0xb
 10973 3258 04       		.byte	0x4
 10974 3259 E02F0000 		.4byte	0x2fe0
 10975 325d 11       		.uleb128 0x11
 10976 325e 9D0A0000 		.4byte	0xa9d
 10977 3262 6D320000 		.4byte	0x326d
 10978 3266 12       		.uleb128 0x12
 10979 3267 48000000 		.4byte	0x48
 10980 326b 42       		.byte	0x42
 10981 326c 00       		.byte	0
 10982 326d 13       		.uleb128 0x13
 10983 326e 4E010000 		.4byte	.LASF811
 10984 3272 25       		.byte	0x25
 10985 3273 0602     		.2byte	0x206
 10986 3275 93270000 		.4byte	0x2793
 10987 3279 11       		.uleb128 0x11
 10988 327a 34120000 		.4byte	0x1234
 10989 327e 84320000 		.4byte	0x3284
 10990 3282 2C       		.uleb128 0x2c
 10991 3283 00       		.byte	0
 10992 3284 04       		.uleb128 0x4
 10993 3285 79320000 		.4byte	0x3279
 10994 3289 14       		.uleb128 0x14
 10995 328a 43230000 		.4byte	.LASF812
 10996 328e 27       		.byte	0x27
 10997 328f 4F       		.byte	0x4f
 10998 3290 84320000 		.4byte	0x3284
 10999 3294 14       		.uleb128 0x14
 11000 3295 0F200000 		.4byte	.LASF813
 11001 3299 27       		.byte	0x27
 11002 329a 50       		.byte	0x50
 11003 329b 84320000 		.4byte	0x3284
ARM GAS  /tmp/ccHCUo6g.s 			page 209


 11004 329f 14       		.uleb128 0x14
 11005 32a0 9D380000 		.4byte	.LASF814
 11006 32a4 27       		.byte	0x27
 11007 32a5 51       		.byte	0x51
 11008 32a6 84320000 		.4byte	0x3284
 11009 32aa 14       		.uleb128 0x14
 11010 32ab CE160000 		.4byte	.LASF815
 11011 32af 27       		.byte	0x27
 11012 32b0 52       		.byte	0x52
 11013 32b1 33000000 		.4byte	0x33
 11014 32b5 11       		.uleb128 0x11
 11015 32b6 EF000000 		.4byte	0xef
 11016 32ba C0320000 		.4byte	0x32c0
 11017 32be 2C       		.uleb128 0x2c
 11018 32bf 00       		.byte	0
 11019 32c0 04       		.uleb128 0x4
 11020 32c1 B5320000 		.4byte	0x32b5
 11021 32c5 14       		.uleb128 0x14
 11022 32c6 16220000 		.4byte	.LASF816
 11023 32ca 28       		.byte	0x28
 11024 32cb 93       		.byte	0x93
 11025 32cc C0320000 		.4byte	0x32c0
 11026 32d0 11       		.uleb128 0x11
 11027 32d1 33000000 		.4byte	0x33
 11028 32d5 DB320000 		.4byte	0x32db
 11029 32d9 2C       		.uleb128 0x2c
 11030 32da 00       		.byte	0
 11031 32db 04       		.uleb128 0x4
 11032 32dc D0320000 		.4byte	0x32d0
 11033 32e0 14       		.uleb128 0x14
 11034 32e1 3F1B0000 		.4byte	.LASF817
 11035 32e5 28       		.byte	0x28
 11036 32e6 94       		.byte	0x94
 11037 32e7 DB320000 		.4byte	0x32db
 11038 32eb 05       		.uleb128 0x5
 11039 32ec CA0A0000 		.4byte	.LASF818
 11040 32f0 29       		.byte	0x29
 11041 32f1 22       		.byte	0x22
 11042 32f2 F6320000 		.4byte	0x32f6
 11043 32f6 0B       		.uleb128 0xb
 11044 32f7 04       		.byte	0x4
 11045 32f8 FC320000 		.4byte	0x32fc
 11046 32fc 2D       		.uleb128 0x2d
 11047 32fd 2D080000 		.4byte	.LASF924
 11048 3301 05       		.uleb128 0x5
 11049 3302 78140000 		.4byte	.LASF819
 11050 3306 2A       		.byte	0x2a
 11051 3307 2C       		.byte	0x2c
 11052 3308 97000000 		.4byte	0x97
 11053 330c 05       		.uleb128 0x5
 11054 330d 222B0000 		.4byte	.LASF820
 11055 3311 2A       		.byte	0x2a
 11056 3312 72       		.byte	0x72
 11057 3313 97000000 		.4byte	0x97
 11058 3317 18       		.uleb128 0x18
 11059 3318 5A170000 		.4byte	.LASF821
 11060 331c 04       		.byte	0x4
ARM GAS  /tmp/ccHCUo6g.s 			page 210


 11061 331d 6501     		.2byte	0x165
 11062 331f 48000000 		.4byte	0x48
 11063 3323 1C       		.uleb128 0x1c
 11064 3324 04       		.byte	0x4
 11065 3325 2A       		.byte	0x2a
 11066 3326 A6       		.byte	0xa6
 11067 3327 42330000 		.4byte	0x3342
 11068 332b 2A       		.uleb128 0x2a
 11069 332c 75210000 		.4byte	.LASF822
 11070 3330 2A       		.byte	0x2a
 11071 3331 A8       		.byte	0xa8
 11072 3332 17330000 		.4byte	0x3317
 11073 3336 2A       		.uleb128 0x2a
 11074 3337 79160000 		.4byte	.LASF823
 11075 333b 2A       		.byte	0x2a
 11076 333c A9       		.byte	0xa9
 11077 333d 42330000 		.4byte	0x3342
 11078 3341 00       		.byte	0
 11079 3342 11       		.uleb128 0x11
 11080 3343 6C000000 		.4byte	0x6c
 11081 3347 52330000 		.4byte	0x3352
 11082 334b 12       		.uleb128 0x12
 11083 334c 48000000 		.4byte	0x48
 11084 3350 03       		.byte	0x3
 11085 3351 00       		.byte	0
 11086 3352 15       		.uleb128 0x15
 11087 3353 08       		.byte	0x8
 11088 3354 2A       		.byte	0x2a
 11089 3355 A3       		.byte	0xa3
 11090 3356 73330000 		.4byte	0x3373
 11091 335a 08       		.uleb128 0x8
 11092 335b C7140000 		.4byte	.LASF824
 11093 335f 2A       		.byte	0x2a
 11094 3360 A5       		.byte	0xa5
 11095 3361 2C000000 		.4byte	0x2c
 11096 3365 00       		.byte	0
 11097 3366 08       		.uleb128 0x8
 11098 3367 8A210000 		.4byte	.LASF825
 11099 336b 2A       		.byte	0x2a
 11100 336c AA       		.byte	0xaa
 11101 336d 23330000 		.4byte	0x3323
 11102 3371 04       		.byte	0x4
 11103 3372 00       		.byte	0
 11104 3373 05       		.uleb128 0x5
 11105 3374 442C0000 		.4byte	.LASF826
 11106 3378 2A       		.byte	0x2a
 11107 3379 AB       		.byte	0xab
 11108 337a 52330000 		.4byte	0x3352
 11109 337e 05       		.uleb128 0x5
 11110 337f BF320000 		.4byte	.LASF827
 11111 3383 2A       		.byte	0x2a
 11112 3384 AF       		.byte	0xaf
 11113 3385 EB320000 		.4byte	0x32eb
 11114 3389 0B       		.uleb128 0xb
 11115 338a 04       		.byte	0x4
 11116 338b F80C0000 		.4byte	0xcf8
 11117 338f 05       		.uleb128 0x5
ARM GAS  /tmp/ccHCUo6g.s 			page 211


 11118 3390 981D0000 		.4byte	.LASF828
 11119 3394 2B       		.byte	0x2b
 11120 3395 16       		.byte	0x16
 11121 3396 A9000000 		.4byte	0xa9
 11122 339a 07       		.uleb128 0x7
 11123 339b 29270000 		.4byte	.LASF829
 11124 339f 18       		.byte	0x18
 11125 33a0 2B       		.byte	0x2b
 11126 33a1 2F       		.byte	0x2f
 11127 33a2 ED330000 		.4byte	0x33ed
 11128 33a6 08       		.uleb128 0x8
 11129 33a7 F1190000 		.4byte	.LASF830
 11130 33ab 2B       		.byte	0x2b
 11131 33ac 31       		.byte	0x31
 11132 33ad ED330000 		.4byte	0x33ed
 11133 33b1 00       		.byte	0
 11134 33b2 16       		.uleb128 0x16
 11135 33b3 5F6B00   		.ascii	"_k\000"
 11136 33b6 2B       		.byte	0x2b
 11137 33b7 32       		.byte	0x32
 11138 33b8 2C000000 		.4byte	0x2c
 11139 33bc 04       		.byte	0x4
 11140 33bd 08       		.uleb128 0x8
 11141 33be 4B240000 		.4byte	.LASF831
 11142 33c2 2B       		.byte	0x2b
 11143 33c3 32       		.byte	0x32
 11144 33c4 2C000000 		.4byte	0x2c
 11145 33c8 08       		.byte	0x8
 11146 33c9 08       		.uleb128 0x8
 11147 33ca 7B240000 		.4byte	.LASF832
 11148 33ce 2B       		.byte	0x2b
 11149 33cf 32       		.byte	0x32
 11150 33d0 2C000000 		.4byte	0x2c
 11151 33d4 0C       		.byte	0xc
 11152 33d5 08       		.uleb128 0x8
 11153 33d6 B50D0000 		.4byte	.LASF833
 11154 33da 2B       		.byte	0x2b
 11155 33db 32       		.byte	0x32
 11156 33dc 2C000000 		.4byte	0x2c
 11157 33e0 10       		.byte	0x10
 11158 33e1 16       		.uleb128 0x16
 11159 33e2 5F7800   		.ascii	"_x\000"
 11160 33e5 2B       		.byte	0x2b
 11161 33e6 33       		.byte	0x33
 11162 33e7 F3330000 		.4byte	0x33f3
 11163 33eb 14       		.byte	0x14
 11164 33ec 00       		.byte	0
 11165 33ed 0B       		.uleb128 0xb
 11166 33ee 04       		.byte	0x4
 11167 33ef 9A330000 		.4byte	0x339a
 11168 33f3 11       		.uleb128 0x11
 11169 33f4 8F330000 		.4byte	0x338f
 11170 33f8 03340000 		.4byte	0x3403
 11171 33fc 12       		.uleb128 0x12
 11172 33fd 48000000 		.4byte	0x48
 11173 3401 00       		.byte	0
 11174 3402 00       		.byte	0
ARM GAS  /tmp/ccHCUo6g.s 			page 212


 11175 3403 07       		.uleb128 0x7
 11176 3404 40280000 		.4byte	.LASF834
 11177 3408 24       		.byte	0x24
 11178 3409 2B       		.byte	0x2b
 11179 340a 37       		.byte	0x37
 11180 340b 7C340000 		.4byte	0x347c
 11181 340f 08       		.uleb128 0x8
 11182 3410 FD110000 		.4byte	.LASF835
 11183 3414 2B       		.byte	0x2b
 11184 3415 39       		.byte	0x39
 11185 3416 2C000000 		.4byte	0x2c
 11186 341a 00       		.byte	0
 11187 341b 08       		.uleb128 0x8
 11188 341c 680F0000 		.4byte	.LASF836
 11189 3420 2B       		.byte	0x2b
 11190 3421 3A       		.byte	0x3a
 11191 3422 2C000000 		.4byte	0x2c
 11192 3426 04       		.byte	0x4
 11193 3427 08       		.uleb128 0x8
 11194 3428 AA160000 		.4byte	.LASF837
 11195 342c 2B       		.byte	0x2b
 11196 342d 3B       		.byte	0x3b
 11197 342e 2C000000 		.4byte	0x2c
 11198 3432 08       		.byte	0x8
 11199 3433 08       		.uleb128 0x8
 11200 3434 D9180000 		.4byte	.LASF838
 11201 3438 2B       		.byte	0x2b
 11202 3439 3C       		.byte	0x3c
 11203 343a 2C000000 		.4byte	0x2c
 11204 343e 0C       		.byte	0xc
 11205 343f 08       		.uleb128 0x8
 11206 3440 8D020000 		.4byte	.LASF839
 11207 3444 2B       		.byte	0x2b
 11208 3445 3D       		.byte	0x3d
 11209 3446 2C000000 		.4byte	0x2c
 11210 344a 10       		.byte	0x10
 11211 344b 08       		.uleb128 0x8
 11212 344c CC0F0000 		.4byte	.LASF840
 11213 3450 2B       		.byte	0x2b
 11214 3451 3E       		.byte	0x3e
 11215 3452 2C000000 		.4byte	0x2c
 11216 3456 14       		.byte	0x14
 11217 3457 08       		.uleb128 0x8
 11218 3458 A70C0000 		.4byte	.LASF841
 11219 345c 2B       		.byte	0x2b
 11220 345d 3F       		.byte	0x3f
 11221 345e 2C000000 		.4byte	0x2c
 11222 3462 18       		.byte	0x18
 11223 3463 08       		.uleb128 0x8
 11224 3464 7D0A0000 		.4byte	.LASF842
 11225 3468 2B       		.byte	0x2b
 11226 3469 40       		.byte	0x40
 11227 346a 2C000000 		.4byte	0x2c
 11228 346e 1C       		.byte	0x1c
 11229 346f 08       		.uleb128 0x8
 11230 3470 C00C0000 		.4byte	.LASF843
 11231 3474 2B       		.byte	0x2b
ARM GAS  /tmp/ccHCUo6g.s 			page 213


 11232 3475 41       		.byte	0x41
 11233 3476 2C000000 		.4byte	0x2c
 11234 347a 20       		.byte	0x20
 11235 347b 00       		.byte	0
 11236 347c 25       		.uleb128 0x25
 11237 347d EA1B0000 		.4byte	.LASF844
 11238 3481 0801     		.2byte	0x108
 11239 3483 2B       		.byte	0x2b
 11240 3484 4A       		.byte	0x4a
 11241 3485 BC340000 		.4byte	0x34bc
 11242 3489 08       		.uleb128 0x8
 11243 348a 2C190000 		.4byte	.LASF845
 11244 348e 2B       		.byte	0x2b
 11245 348f 4B       		.byte	0x4b
 11246 3490 BC340000 		.4byte	0x34bc
 11247 3494 00       		.byte	0
 11248 3495 08       		.uleb128 0x8
 11249 3496 80050000 		.4byte	.LASF846
 11250 349a 2B       		.byte	0x2b
 11251 349b 4C       		.byte	0x4c
 11252 349c BC340000 		.4byte	0x34bc
 11253 34a0 80       		.byte	0x80
 11254 34a1 26       		.uleb128 0x26
 11255 34a2 96020000 		.4byte	.LASF847
 11256 34a6 2B       		.byte	0x2b
 11257 34a7 4E       		.byte	0x4e
 11258 34a8 8F330000 		.4byte	0x338f
 11259 34ac 0001     		.2byte	0x100
 11260 34ae 26       		.uleb128 0x26
 11261 34af 2E2D0000 		.4byte	.LASF848
 11262 34b3 2B       		.byte	0x2b
 11263 34b4 51       		.byte	0x51
 11264 34b5 8F330000 		.4byte	0x338f
 11265 34b9 0401     		.2byte	0x104
 11266 34bb 00       		.byte	0
 11267 34bc 11       		.uleb128 0x11
 11268 34bd 95030000 		.4byte	0x395
 11269 34c1 CC340000 		.4byte	0x34cc
 11270 34c5 12       		.uleb128 0x12
 11271 34c6 48000000 		.4byte	0x48
 11272 34ca 1F       		.byte	0x1f
 11273 34cb 00       		.byte	0
 11274 34cc 25       		.uleb128 0x25
 11275 34cd 2E360000 		.4byte	.LASF849
 11276 34d1 9001     		.2byte	0x190
 11277 34d3 2B       		.byte	0x2b
 11278 34d4 5D       		.byte	0x5d
 11279 34d5 0A350000 		.4byte	0x350a
 11280 34d9 08       		.uleb128 0x8
 11281 34da F1190000 		.4byte	.LASF830
 11282 34de 2B       		.byte	0x2b
 11283 34df 5E       		.byte	0x5e
 11284 34e0 0A350000 		.4byte	0x350a
 11285 34e4 00       		.byte	0
 11286 34e5 08       		.uleb128 0x8
 11287 34e6 CB020000 		.4byte	.LASF850
 11288 34ea 2B       		.byte	0x2b
ARM GAS  /tmp/ccHCUo6g.s 			page 214


 11289 34eb 5F       		.byte	0x5f
 11290 34ec 2C000000 		.4byte	0x2c
 11291 34f0 04       		.byte	0x4
 11292 34f1 08       		.uleb128 0x8
 11293 34f2 BE2B0000 		.4byte	.LASF851
 11294 34f6 2B       		.byte	0x2b
 11295 34f7 61       		.byte	0x61
 11296 34f8 10350000 		.4byte	0x3510
 11297 34fc 08       		.byte	0x8
 11298 34fd 08       		.uleb128 0x8
 11299 34fe EA1B0000 		.4byte	.LASF844
 11300 3502 2B       		.byte	0x2b
 11301 3503 62       		.byte	0x62
 11302 3504 7C340000 		.4byte	0x347c
 11303 3508 88       		.byte	0x88
 11304 3509 00       		.byte	0
 11305 350a 0B       		.uleb128 0xb
 11306 350b 04       		.byte	0x4
 11307 350c CC340000 		.4byte	0x34cc
 11308 3510 11       		.uleb128 0x11
 11309 3511 20350000 		.4byte	0x3520
 11310 3515 20350000 		.4byte	0x3520
 11311 3519 12       		.uleb128 0x12
 11312 351a 48000000 		.4byte	0x48
 11313 351e 1F       		.byte	0x1f
 11314 351f 00       		.byte	0
 11315 3520 0B       		.uleb128 0xb
 11316 3521 04       		.byte	0x4
 11317 3522 26350000 		.4byte	0x3526
 11318 3526 2E       		.uleb128 0x2e
 11319 3527 07       		.uleb128 0x7
 11320 3528 DF200000 		.4byte	.LASF852
 11321 352c 08       		.byte	0x8
 11322 352d 2B       		.byte	0x2b
 11323 352e 75       		.byte	0x75
 11324 352f 4C350000 		.4byte	0x354c
 11325 3533 08       		.uleb128 0x8
 11326 3534 752C0000 		.4byte	.LASF853
 11327 3538 2B       		.byte	0x2b
 11328 3539 76       		.byte	0x76
 11329 353a 4C350000 		.4byte	0x354c
 11330 353e 00       		.byte	0
 11331 353f 08       		.uleb128 0x8
 11332 3540 770E0000 		.4byte	.LASF854
 11333 3544 2B       		.byte	0x2b
 11334 3545 77       		.byte	0x77
 11335 3546 2C000000 		.4byte	0x2c
 11336 354a 04       		.byte	0x4
 11337 354b 00       		.byte	0
 11338 354c 0B       		.uleb128 0xb
 11339 354d 04       		.byte	0x4
 11340 354e 6C000000 		.4byte	0x6c
 11341 3552 07       		.uleb128 0x7
 11342 3553 922B0000 		.4byte	.LASF855
 11343 3557 68       		.byte	0x68
 11344 3558 2B       		.byte	0x2b
 11345 3559 B5       		.byte	0xb5
ARM GAS  /tmp/ccHCUo6g.s 			page 215


 11346 355a 7C360000 		.4byte	0x367c
 11347 355e 16       		.uleb128 0x16
 11348 355f 5F7000   		.ascii	"_p\000"
 11349 3562 2B       		.byte	0x2b
 11350 3563 B6       		.byte	0xb6
 11351 3564 4C350000 		.4byte	0x354c
 11352 3568 00       		.byte	0
 11353 3569 16       		.uleb128 0x16
 11354 356a 5F7200   		.ascii	"_r\000"
 11355 356d 2B       		.byte	0x2b
 11356 356e B7       		.byte	0xb7
 11357 356f 2C000000 		.4byte	0x2c
 11358 3573 04       		.byte	0x4
 11359 3574 16       		.uleb128 0x16
 11360 3575 5F7700   		.ascii	"_w\000"
 11361 3578 2B       		.byte	0x2b
 11362 3579 B8       		.byte	0xb8
 11363 357a 2C000000 		.4byte	0x2c
 11364 357e 08       		.byte	0x8
 11365 357f 08       		.uleb128 0x8
 11366 3580 96030000 		.4byte	.LASF856
 11367 3584 2B       		.byte	0x2b
 11368 3585 B9       		.byte	0xb9
 11369 3586 73000000 		.4byte	0x73
 11370 358a 0C       		.byte	0xc
 11371 358b 08       		.uleb128 0x8
 11372 358c 2A2B0000 		.4byte	.LASF857
 11373 3590 2B       		.byte	0x2b
 11374 3591 BA       		.byte	0xba
 11375 3592 73000000 		.4byte	0x73
 11376 3596 0E       		.byte	0xe
 11377 3597 16       		.uleb128 0x16
 11378 3598 5F626600 		.ascii	"_bf\000"
 11379 359c 2B       		.byte	0x2b
 11380 359d BB       		.byte	0xbb
 11381 359e 27350000 		.4byte	0x3527
 11382 35a2 10       		.byte	0x10
 11383 35a3 08       		.uleb128 0x8
 11384 35a4 15070000 		.4byte	.LASF858
 11385 35a8 2B       		.byte	0x2b
 11386 35a9 BC       		.byte	0xbc
 11387 35aa 2C000000 		.4byte	0x2c
 11388 35ae 18       		.byte	0x18
 11389 35af 08       		.uleb128 0x8
 11390 35b0 431A0000 		.4byte	.LASF859
 11391 35b4 2B       		.byte	0x2b
 11392 35b5 C3       		.byte	0xc3
 11393 35b6 95030000 		.4byte	0x395
 11394 35ba 1C       		.byte	0x1c
 11395 35bb 08       		.uleb128 0x8
 11396 35bc 0F020000 		.4byte	.LASF860
 11397 35c0 2B       		.byte	0x2b
 11398 35c1 C5       		.byte	0xc5
 11399 35c2 D7370000 		.4byte	0x37d7
 11400 35c6 20       		.byte	0x20
 11401 35c7 08       		.uleb128 0x8
 11402 35c8 4A100000 		.4byte	.LASF861
ARM GAS  /tmp/ccHCUo6g.s 			page 216


 11403 35cc 2B       		.byte	0x2b
 11404 35cd C7       		.byte	0xc7
 11405 35ce FB370000 		.4byte	0x37fb
 11406 35d2 24       		.byte	0x24
 11407 35d3 08       		.uleb128 0x8
 11408 35d4 241F0000 		.4byte	.LASF862
 11409 35d8 2B       		.byte	0x2b
 11410 35d9 CA       		.byte	0xca
 11411 35da 1F380000 		.4byte	0x381f
 11412 35de 28       		.byte	0x28
 11413 35df 08       		.uleb128 0x8
 11414 35e0 69260000 		.4byte	.LASF863
 11415 35e4 2B       		.byte	0x2b
 11416 35e5 CB       		.byte	0xcb
 11417 35e6 39380000 		.4byte	0x3839
 11418 35ea 2C       		.byte	0x2c
 11419 35eb 16       		.uleb128 0x16
 11420 35ec 5F756200 		.ascii	"_ub\000"
 11421 35f0 2B       		.byte	0x2b
 11422 35f1 CE       		.byte	0xce
 11423 35f2 27350000 		.4byte	0x3527
 11424 35f6 30       		.byte	0x30
 11425 35f7 16       		.uleb128 0x16
 11426 35f8 5F757000 		.ascii	"_up\000"
 11427 35fc 2B       		.byte	0x2b
 11428 35fd CF       		.byte	0xcf
 11429 35fe 4C350000 		.4byte	0x354c
 11430 3602 38       		.byte	0x38
 11431 3603 16       		.uleb128 0x16
 11432 3604 5F757200 		.ascii	"_ur\000"
 11433 3608 2B       		.byte	0x2b
 11434 3609 D0       		.byte	0xd0
 11435 360a 2C000000 		.4byte	0x2c
 11436 360e 3C       		.byte	0x3c
 11437 360f 08       		.uleb128 0x8
 11438 3610 322A0000 		.4byte	.LASF864
 11439 3614 2B       		.byte	0x2b
 11440 3615 D3       		.byte	0xd3
 11441 3616 E2180000 		.4byte	0x18e2
 11442 361a 40       		.byte	0x40
 11443 361b 08       		.uleb128 0x8
 11444 361c 57040000 		.4byte	.LASF865
 11445 3620 2B       		.byte	0x2b
 11446 3621 D4       		.byte	0xd4
 11447 3622 3F380000 		.4byte	0x383f
 11448 3626 43       		.byte	0x43
 11449 3627 16       		.uleb128 0x16
 11450 3628 5F6C6200 		.ascii	"_lb\000"
 11451 362c 2B       		.byte	0x2b
 11452 362d D7       		.byte	0xd7
 11453 362e 27350000 		.4byte	0x3527
 11454 3632 44       		.byte	0x44
 11455 3633 08       		.uleb128 0x8
 11456 3634 E70F0000 		.4byte	.LASF866
 11457 3638 2B       		.byte	0x2b
 11458 3639 DA       		.byte	0xda
 11459 363a 2C000000 		.4byte	0x2c
ARM GAS  /tmp/ccHCUo6g.s 			page 217


 11460 363e 4C       		.byte	0x4c
 11461 363f 08       		.uleb128 0x8
 11462 3640 B6200000 		.4byte	.LASF867
 11463 3644 2B       		.byte	0x2b
 11464 3645 DB       		.byte	0xdb
 11465 3646 01330000 		.4byte	0x3301
 11466 364a 50       		.byte	0x50
 11467 364b 08       		.uleb128 0x8
 11468 364c C41D0000 		.4byte	.LASF868
 11469 3650 2B       		.byte	0x2b
 11470 3651 DE       		.byte	0xde
 11471 3652 9A360000 		.4byte	0x369a
 11472 3656 54       		.byte	0x54
 11473 3657 08       		.uleb128 0x8
 11474 3658 58260000 		.4byte	.LASF869
 11475 365c 2B       		.byte	0x2b
 11476 365d E2       		.byte	0xe2
 11477 365e 7E330000 		.4byte	0x337e
 11478 3662 58       		.byte	0x58
 11479 3663 08       		.uleb128 0x8
 11480 3664 CD010000 		.4byte	.LASF870
 11481 3668 2B       		.byte	0x2b
 11482 3669 E4       		.byte	0xe4
 11483 366a 73330000 		.4byte	0x3373
 11484 366e 5C       		.byte	0x5c
 11485 366f 08       		.uleb128 0x8
 11486 3670 39340000 		.4byte	.LASF871
 11487 3674 2B       		.byte	0x2b
 11488 3675 E5       		.byte	0xe5
 11489 3676 2C000000 		.4byte	0x2c
 11490 367a 64       		.byte	0x64
 11491 367b 00       		.byte	0
 11492 367c 1F       		.uleb128 0x1f
 11493 367d 2C000000 		.4byte	0x2c
 11494 3681 9A360000 		.4byte	0x369a
 11495 3685 0E       		.uleb128 0xe
 11496 3686 9A360000 		.4byte	0x369a
 11497 368a 0E       		.uleb128 0xe
 11498 368b 95030000 		.4byte	0x395
 11499 368f 0E       		.uleb128 0xe
 11500 3690 89330000 		.4byte	0x3389
 11501 3694 0E       		.uleb128 0xe
 11502 3695 2C000000 		.4byte	0x2c
 11503 3699 00       		.byte	0
 11504 369a 0B       		.uleb128 0xb
 11505 369b 04       		.byte	0x4
 11506 369c A5360000 		.4byte	0x36a5
 11507 36a0 06       		.uleb128 0x6
 11508 36a1 9A360000 		.4byte	0x369a
 11509 36a5 10       		.uleb128 0x10
 11510 36a6 26210000 		.4byte	.LASF872
 11511 36aa 2804     		.2byte	0x428
 11512 36ac 2B       		.byte	0x2b
 11513 36ad 6002     		.2byte	0x260
 11514 36af D7370000 		.4byte	0x37d7
 11515 36b3 0A       		.uleb128 0xa
 11516 36b4 85180000 		.4byte	.LASF873
ARM GAS  /tmp/ccHCUo6g.s 			page 218


 11517 36b8 2B       		.byte	0x2b
 11518 36b9 6202     		.2byte	0x262
 11519 36bb 2C000000 		.4byte	0x2c
 11520 36bf 00       		.byte	0
 11521 36c0 0A       		.uleb128 0xa
 11522 36c1 67120000 		.4byte	.LASF874
 11523 36c5 2B       		.byte	0x2b
 11524 36c6 6702     		.2byte	0x267
 11525 36c8 96380000 		.4byte	0x3896
 11526 36cc 04       		.byte	0x4
 11527 36cd 0A       		.uleb128 0xa
 11528 36ce 330D0000 		.4byte	.LASF875
 11529 36d2 2B       		.byte	0x2b
 11530 36d3 6702     		.2byte	0x267
 11531 36d5 96380000 		.4byte	0x3896
 11532 36d9 08       		.byte	0x8
 11533 36da 0A       		.uleb128 0xa
 11534 36db 080C0000 		.4byte	.LASF876
 11535 36df 2B       		.byte	0x2b
 11536 36e0 6702     		.2byte	0x267
 11537 36e2 96380000 		.4byte	0x3896
 11538 36e6 0C       		.byte	0xc
 11539 36e7 0A       		.uleb128 0xa
 11540 36e8 C6020000 		.4byte	.LASF877
 11541 36ec 2B       		.byte	0x2b
 11542 36ed 6902     		.2byte	0x269
 11543 36ef 2C000000 		.4byte	0x2c
 11544 36f3 10       		.byte	0x10
 11545 36f4 0A       		.uleb128 0xa
 11546 36f5 CE380000 		.4byte	.LASF878
 11547 36f9 2B       		.byte	0x2b
 11548 36fa 6A02     		.2byte	0x26a
 11549 36fc 783A0000 		.4byte	0x3a78
 11550 3700 14       		.byte	0x14
 11551 3701 0A       		.uleb128 0xa
 11552 3702 DA310000 		.4byte	.LASF879
 11553 3706 2B       		.byte	0x2b
 11554 3707 6D02     		.2byte	0x26d
 11555 3709 2C000000 		.4byte	0x2c
 11556 370d 30       		.byte	0x30
 11557 370e 0A       		.uleb128 0xa
 11558 370f FC340000 		.4byte	.LASF880
 11559 3713 2B       		.byte	0x2b
 11560 3714 6E02     		.2byte	0x26e
 11561 3716 8D3A0000 		.4byte	0x3a8d
 11562 371a 34       		.byte	0x34
 11563 371b 0A       		.uleb128 0xa
 11564 371c 55320000 		.4byte	.LASF881
 11565 3720 2B       		.byte	0x2b
 11566 3721 7002     		.2byte	0x270
 11567 3723 2C000000 		.4byte	0x2c
 11568 3727 38       		.byte	0x38
 11569 3728 0A       		.uleb128 0xa
 11570 3729 001C0000 		.4byte	.LASF882
 11571 372d 2B       		.byte	0x2b
 11572 372e 7202     		.2byte	0x272
 11573 3730 9E3A0000 		.4byte	0x3a9e
ARM GAS  /tmp/ccHCUo6g.s 			page 219


 11574 3734 3C       		.byte	0x3c
 11575 3735 0A       		.uleb128 0xa
 11576 3736 100C0000 		.4byte	.LASF883
 11577 373a 2B       		.byte	0x2b
 11578 373b 7502     		.2byte	0x275
 11579 373d ED330000 		.4byte	0x33ed
 11580 3741 40       		.byte	0x40
 11581 3742 0A       		.uleb128 0xa
 11582 3743 F90B0000 		.4byte	.LASF884
 11583 3747 2B       		.byte	0x2b
 11584 3748 7602     		.2byte	0x276
 11585 374a 2C000000 		.4byte	0x2c
 11586 374e 44       		.byte	0x44
 11587 374f 0A       		.uleb128 0xa
 11588 3750 CB2D0000 		.4byte	.LASF885
 11589 3754 2B       		.byte	0x2b
 11590 3755 7702     		.2byte	0x277
 11591 3757 ED330000 		.4byte	0x33ed
 11592 375b 48       		.byte	0x48
 11593 375c 0A       		.uleb128 0xa
 11594 375d 33200000 		.4byte	.LASF886
 11595 3761 2B       		.byte	0x2b
 11596 3762 7802     		.2byte	0x278
 11597 3764 A43A0000 		.4byte	0x3aa4
 11598 3768 4C       		.byte	0x4c
 11599 3769 0A       		.uleb128 0xa
 11600 376a DA030000 		.4byte	.LASF887
 11601 376e 2B       		.byte	0x2b
 11602 376f 7B02     		.2byte	0x27b
 11603 3771 2C000000 		.4byte	0x2c
 11604 3775 50       		.byte	0x50
 11605 3776 0A       		.uleb128 0xa
 11606 3777 DE150000 		.4byte	.LASF888
 11607 377b 2B       		.byte	0x2b
 11608 377c 7C02     		.2byte	0x27c
 11609 377e 89330000 		.4byte	0x3389
 11610 3782 54       		.byte	0x54
 11611 3783 0A       		.uleb128 0xa
 11612 3784 7B070000 		.4byte	.LASF889
 11613 3788 2B       		.byte	0x2b
 11614 3789 9F02     		.2byte	0x29f
 11615 378b 563A0000 		.4byte	0x3a56
 11616 378f 58       		.byte	0x58
 11617 3790 1A       		.uleb128 0x1a
 11618 3791 2E360000 		.4byte	.LASF849
 11619 3795 2B       		.byte	0x2b
 11620 3796 A302     		.2byte	0x2a3
 11621 3798 0A350000 		.4byte	0x350a
 11622 379c 4801     		.2byte	0x148
 11623 379e 1A       		.uleb128 0x1a
 11624 379f B2270000 		.4byte	.LASF890
 11625 37a3 2B       		.byte	0x2b
 11626 37a4 A402     		.2byte	0x2a4
 11627 37a6 CC340000 		.4byte	0x34cc
 11628 37aa 4C01     		.2byte	0x14c
 11629 37ac 1A       		.uleb128 0x1a
 11630 37ad 02270000 		.4byte	.LASF891
ARM GAS  /tmp/ccHCUo6g.s 			page 220


 11631 37b1 2B       		.byte	0x2b
 11632 37b2 A802     		.2byte	0x2a8
 11633 37b4 B53A0000 		.4byte	0x3ab5
 11634 37b8 DC02     		.2byte	0x2dc
 11635 37ba 1A       		.uleb128 0x1a
 11636 37bb 6E2A0000 		.4byte	.LASF892
 11637 37bf 2B       		.byte	0x2b
 11638 37c0 AD02     		.2byte	0x2ad
 11639 37c2 5B380000 		.4byte	0x385b
 11640 37c6 E002     		.2byte	0x2e0
 11641 37c8 1A       		.uleb128 0x1a
 11642 37c9 B6080000 		.4byte	.LASF893
 11643 37cd 2B       		.byte	0x2b
 11644 37ce AF02     		.2byte	0x2af
 11645 37d0 C13A0000 		.4byte	0x3ac1
 11646 37d4 EC02     		.2byte	0x2ec
 11647 37d6 00       		.byte	0
 11648 37d7 0B       		.uleb128 0xb
 11649 37d8 04       		.byte	0x4
 11650 37d9 7C360000 		.4byte	0x367c
 11651 37dd 1F       		.uleb128 0x1f
 11652 37de 2C000000 		.4byte	0x2c
 11653 37e2 FB370000 		.4byte	0x37fb
 11654 37e6 0E       		.uleb128 0xe
 11655 37e7 9A360000 		.4byte	0x369a
 11656 37eb 0E       		.uleb128 0xe
 11657 37ec 95030000 		.4byte	0x395
 11658 37f0 0E       		.uleb128 0xe
 11659 37f1 ED0C0000 		.4byte	0xced
 11660 37f5 0E       		.uleb128 0xe
 11661 37f6 2C000000 		.4byte	0x2c
 11662 37fa 00       		.byte	0
 11663 37fb 0B       		.uleb128 0xb
 11664 37fc 04       		.byte	0x4
 11665 37fd DD370000 		.4byte	0x37dd
 11666 3801 1F       		.uleb128 0x1f
 11667 3802 0C330000 		.4byte	0x330c
 11668 3806 1F380000 		.4byte	0x381f
 11669 380a 0E       		.uleb128 0xe
 11670 380b 9A360000 		.4byte	0x369a
 11671 380f 0E       		.uleb128 0xe
 11672 3810 95030000 		.4byte	0x395
 11673 3814 0E       		.uleb128 0xe
 11674 3815 0C330000 		.4byte	0x330c
 11675 3819 0E       		.uleb128 0xe
 11676 381a 2C000000 		.4byte	0x2c
 11677 381e 00       		.byte	0
 11678 381f 0B       		.uleb128 0xb
 11679 3820 04       		.byte	0x4
 11680 3821 01380000 		.4byte	0x3801
 11681 3825 1F       		.uleb128 0x1f
 11682 3826 2C000000 		.4byte	0x2c
 11683 382a 39380000 		.4byte	0x3839
 11684 382e 0E       		.uleb128 0xe
 11685 382f 9A360000 		.4byte	0x369a
 11686 3833 0E       		.uleb128 0xe
 11687 3834 95030000 		.4byte	0x395
ARM GAS  /tmp/ccHCUo6g.s 			page 221


 11688 3838 00       		.byte	0
 11689 3839 0B       		.uleb128 0xb
 11690 383a 04       		.byte	0x4
 11691 383b 25380000 		.4byte	0x3825
 11692 383f 11       		.uleb128 0x11
 11693 3840 6C000000 		.4byte	0x6c
 11694 3844 4F380000 		.4byte	0x384f
 11695 3848 12       		.uleb128 0x12
 11696 3849 48000000 		.4byte	0x48
 11697 384d 00       		.byte	0
 11698 384e 00       		.byte	0
 11699 384f 18       		.uleb128 0x18
 11700 3850 E8360000 		.4byte	.LASF894
 11701 3854 2B       		.byte	0x2b
 11702 3855 1F01     		.2byte	0x11f
 11703 3857 52350000 		.4byte	0x3552
 11704 385b 0C       		.uleb128 0xc
 11705 385c 8E260000 		.4byte	.LASF895
 11706 3860 0C       		.byte	0xc
 11707 3861 2B       		.byte	0x2b
 11708 3862 2301     		.2byte	0x123
 11709 3864 90380000 		.4byte	0x3890
 11710 3868 0A       		.uleb128 0xa
 11711 3869 F1190000 		.4byte	.LASF830
 11712 386d 2B       		.byte	0x2b
 11713 386e 2501     		.2byte	0x125
 11714 3870 90380000 		.4byte	0x3890
 11715 3874 00       		.byte	0
 11716 3875 0A       		.uleb128 0xa
 11717 3876 0B210000 		.4byte	.LASF896
 11718 387a 2B       		.byte	0x2b
 11719 387b 2601     		.2byte	0x126
 11720 387d 2C000000 		.4byte	0x2c
 11721 3881 04       		.byte	0x4
 11722 3882 0A       		.uleb128 0xa
 11723 3883 59230000 		.4byte	.LASF897
 11724 3887 2B       		.byte	0x2b
 11725 3888 2701     		.2byte	0x127
 11726 388a 96380000 		.4byte	0x3896
 11727 388e 08       		.byte	0x8
 11728 388f 00       		.byte	0
 11729 3890 0B       		.uleb128 0xb
 11730 3891 04       		.byte	0x4
 11731 3892 5B380000 		.4byte	0x385b
 11732 3896 0B       		.uleb128 0xb
 11733 3897 04       		.byte	0x4
 11734 3898 4F380000 		.4byte	0x384f
 11735 389c 0C       		.uleb128 0xc
 11736 389d 03390000 		.4byte	.LASF898
 11737 38a1 0E       		.byte	0xe
 11738 38a2 2B       		.byte	0x2b
 11739 38a3 3F01     		.2byte	0x13f
 11740 38a5 D1380000 		.4byte	0x38d1
 11741 38a9 0A       		.uleb128 0xa
 11742 38aa 071F0000 		.4byte	.LASF899
 11743 38ae 2B       		.byte	0x2b
 11744 38af 4001     		.2byte	0x140
ARM GAS  /tmp/ccHCUo6g.s 			page 222


 11745 38b1 D1380000 		.4byte	0x38d1
 11746 38b5 00       		.byte	0
 11747 38b6 0A       		.uleb128 0xa
 11748 38b7 6E380000 		.4byte	.LASF900
 11749 38bb 2B       		.byte	0x2b
 11750 38bc 4101     		.2byte	0x141
 11751 38be D1380000 		.4byte	0x38d1
 11752 38c2 06       		.byte	0x6
 11753 38c3 0A       		.uleb128 0xa
 11754 38c4 12210000 		.4byte	.LASF901
 11755 38c8 2B       		.byte	0x2b
 11756 38c9 4201     		.2byte	0x142
 11757 38cb 85000000 		.4byte	0x85
 11758 38cf 0C       		.byte	0xc
 11759 38d0 00       		.byte	0
 11760 38d1 11       		.uleb128 0x11
 11761 38d2 85000000 		.4byte	0x85
 11762 38d6 E1380000 		.4byte	0x38e1
 11763 38da 12       		.uleb128 0x12
 11764 38db 48000000 		.4byte	0x48
 11765 38df 02       		.byte	0x2
 11766 38e0 00       		.byte	0
 11767 38e1 17       		.uleb128 0x17
 11768 38e2 D0       		.byte	0xd0
 11769 38e3 2B       		.byte	0x2b
 11770 38e4 8002     		.2byte	0x280
 11771 38e6 E2390000 		.4byte	0x39e2
 11772 38ea 0A       		.uleb128 0xa
 11773 38eb 420B0000 		.4byte	.LASF902
 11774 38ef 2B       		.byte	0x2b
 11775 38f0 8202     		.2byte	0x282
 11776 38f2 48000000 		.4byte	0x48
 11777 38f6 00       		.byte	0
 11778 38f7 0A       		.uleb128 0xa
 11779 38f8 600E0000 		.4byte	.LASF903
 11780 38fc 2B       		.byte	0x2b
 11781 38fd 8302     		.2byte	0x283
 11782 38ff 89330000 		.4byte	0x3389
 11783 3903 04       		.byte	0x4
 11784 3904 0A       		.uleb128 0xa
 11785 3905 68210000 		.4byte	.LASF904
 11786 3909 2B       		.byte	0x2b
 11787 390a 8402     		.2byte	0x284
 11788 390c E2390000 		.4byte	0x39e2
 11789 3910 08       		.byte	0x8
 11790 3911 0A       		.uleb128 0xa
 11791 3912 9C140000 		.4byte	.LASF905
 11792 3916 2B       		.byte	0x2b
 11793 3917 8502     		.2byte	0x285
 11794 3919 03340000 		.4byte	0x3403
 11795 391d 24       		.byte	0x24
 11796 391e 0A       		.uleb128 0xa
 11797 391f 6C300000 		.4byte	.LASF906
 11798 3923 2B       		.byte	0x2b
 11799 3924 8602     		.2byte	0x286
 11800 3926 2C000000 		.4byte	0x2c
 11801 392a 48       		.byte	0x48
ARM GAS  /tmp/ccHCUo6g.s 			page 223


 11802 392b 0A       		.uleb128 0xa
 11803 392c AB230000 		.4byte	.LASF907
 11804 3930 2B       		.byte	0x2b
 11805 3931 8702     		.2byte	0x287
 11806 3933 C2000000 		.4byte	0xc2
 11807 3937 50       		.byte	0x50
 11808 3938 0A       		.uleb128 0xa
 11809 3939 07380000 		.4byte	.LASF908
 11810 393d 2B       		.byte	0x2b
 11811 393e 8802     		.2byte	0x288
 11812 3940 9C380000 		.4byte	0x389c
 11813 3944 58       		.byte	0x58
 11814 3945 0A       		.uleb128 0xa
 11815 3946 612A0000 		.4byte	.LASF909
 11816 394a 2B       		.byte	0x2b
 11817 394b 8902     		.2byte	0x289
 11818 394d 73330000 		.4byte	0x3373
 11819 3951 68       		.byte	0x68
 11820 3952 0A       		.uleb128 0xa
 11821 3953 F3080000 		.4byte	.LASF910
 11822 3957 2B       		.byte	0x2b
 11823 3958 8A02     		.2byte	0x28a
 11824 395a 73330000 		.4byte	0x3373
 11825 395e 70       		.byte	0x70
 11826 395f 0A       		.uleb128 0xa
 11827 3960 F3050000 		.4byte	.LASF911
 11828 3964 2B       		.byte	0x2b
 11829 3965 8B02     		.2byte	0x28b
 11830 3967 73330000 		.4byte	0x3373
 11831 396b 78       		.byte	0x78
 11832 396c 0A       		.uleb128 0xa
 11833 396d 3B210000 		.4byte	.LASF912
 11834 3971 2B       		.byte	0x2b
 11835 3972 8C02     		.2byte	0x28c
 11836 3974 F2390000 		.4byte	0x39f2
 11837 3978 80       		.byte	0x80
 11838 3979 0A       		.uleb128 0xa
 11839 397a 221A0000 		.4byte	.LASF913
 11840 397e 2B       		.byte	0x2b
 11841 397f 8D02     		.2byte	0x28d
 11842 3981 023A0000 		.4byte	0x3a02
 11843 3985 88       		.byte	0x88
 11844 3986 0A       		.uleb128 0xa
 11845 3987 23280000 		.4byte	.LASF914
 11846 398b 2B       		.byte	0x2b
 11847 398c 8E02     		.2byte	0x28e
 11848 398e 2C000000 		.4byte	0x2c
 11849 3992 A0       		.byte	0xa0
 11850 3993 0A       		.uleb128 0xa
 11851 3994 C1110000 		.4byte	.LASF915
 11852 3998 2B       		.byte	0x2b
 11853 3999 8F02     		.2byte	0x28f
 11854 399b 73330000 		.4byte	0x3373
 11855 399f A4       		.byte	0xa4
 11856 39a0 0A       		.uleb128 0xa
 11857 39a1 53000000 		.4byte	.LASF916
 11858 39a5 2B       		.byte	0x2b
ARM GAS  /tmp/ccHCUo6g.s 			page 224


 11859 39a6 9002     		.2byte	0x290
 11860 39a8 73330000 		.4byte	0x3373
 11861 39ac AC       		.byte	0xac
 11862 39ad 0A       		.uleb128 0xa
 11863 39ae A40D0000 		.4byte	.LASF917
 11864 39b2 2B       		.byte	0x2b
 11865 39b3 9102     		.2byte	0x291
 11866 39b5 73330000 		.4byte	0x3373
 11867 39b9 B4       		.byte	0xb4
 11868 39ba 0A       		.uleb128 0xa
 11869 39bb 6B1C0000 		.4byte	.LASF918
 11870 39bf 2B       		.byte	0x2b
 11871 39c0 9202     		.2byte	0x292
 11872 39c2 73330000 		.4byte	0x3373
 11873 39c6 BC       		.byte	0xbc
 11874 39c7 0A       		.uleb128 0xa
 11875 39c8 9F210000 		.4byte	.LASF919
 11876 39cc 2B       		.byte	0x2b
 11877 39cd 9302     		.2byte	0x293
 11878 39cf 73330000 		.4byte	0x3373
 11879 39d3 C4       		.byte	0xc4
 11880 39d4 0A       		.uleb128 0xa
 11881 39d5 4F2C0000 		.4byte	.LASF920
 11882 39d9 2B       		.byte	0x2b
 11883 39da 9402     		.2byte	0x294
 11884 39dc 2C000000 		.4byte	0x2c
 11885 39e0 CC       		.byte	0xcc
 11886 39e1 00       		.byte	0
 11887 39e2 11       		.uleb128 0x11
 11888 39e3 F80C0000 		.4byte	0xcf8
 11889 39e7 F2390000 		.4byte	0x39f2
 11890 39eb 12       		.uleb128 0x12
 11891 39ec 48000000 		.4byte	0x48
 11892 39f0 19       		.byte	0x19
 11893 39f1 00       		.byte	0
 11894 39f2 11       		.uleb128 0x11
 11895 39f3 F80C0000 		.4byte	0xcf8
 11896 39f7 023A0000 		.4byte	0x3a02
 11897 39fb 12       		.uleb128 0x12
 11898 39fc 48000000 		.4byte	0x48
 11899 3a00 07       		.byte	0x7
 11900 3a01 00       		.byte	0
 11901 3a02 11       		.uleb128 0x11
 11902 3a03 F80C0000 		.4byte	0xcf8
 11903 3a07 123A0000 		.4byte	0x3a12
 11904 3a0b 12       		.uleb128 0x12
 11905 3a0c 48000000 		.4byte	0x48
 11906 3a10 17       		.byte	0x17
 11907 3a11 00       		.byte	0
 11908 3a12 17       		.uleb128 0x17
 11909 3a13 F0       		.byte	0xf0
 11910 3a14 2B       		.byte	0x2b
 11911 3a15 9902     		.2byte	0x299
 11912 3a17 363A0000 		.4byte	0x3a36
 11913 3a1b 0A       		.uleb128 0xa
 11914 3a1c 4A340000 		.4byte	.LASF921
 11915 3a20 2B       		.byte	0x2b
ARM GAS  /tmp/ccHCUo6g.s 			page 225


 11916 3a21 9C02     		.2byte	0x29c
 11917 3a23 363A0000 		.4byte	0x3a36
 11918 3a27 00       		.byte	0
 11919 3a28 0A       		.uleb128 0xa
 11920 3a29 6E120000 		.4byte	.LASF922
 11921 3a2d 2B       		.byte	0x2b
 11922 3a2e 9D02     		.2byte	0x29d
 11923 3a30 463A0000 		.4byte	0x3a46
 11924 3a34 78       		.byte	0x78
 11925 3a35 00       		.byte	0
 11926 3a36 11       		.uleb128 0x11
 11927 3a37 4C350000 		.4byte	0x354c
 11928 3a3b 463A0000 		.4byte	0x3a46
 11929 3a3f 12       		.uleb128 0x12
 11930 3a40 48000000 		.4byte	0x48
 11931 3a44 1D       		.byte	0x1d
 11932 3a45 00       		.byte	0
 11933 3a46 11       		.uleb128 0x11
 11934 3a47 48000000 		.4byte	0x48
 11935 3a4b 563A0000 		.4byte	0x3a56
 11936 3a4f 12       		.uleb128 0x12
 11937 3a50 48000000 		.4byte	0x48
 11938 3a54 1D       		.byte	0x1d
 11939 3a55 00       		.byte	0
 11940 3a56 2B       		.uleb128 0x2b
 11941 3a57 F0       		.byte	0xf0
 11942 3a58 2B       		.byte	0x2b
 11943 3a59 7E02     		.2byte	0x27e
 11944 3a5b 783A0000 		.4byte	0x3a78
 11945 3a5f 1D       		.uleb128 0x1d
 11946 3a60 26210000 		.4byte	.LASF872
 11947 3a64 2B       		.byte	0x2b
 11948 3a65 9502     		.2byte	0x295
 11949 3a67 E1380000 		.4byte	0x38e1
 11950 3a6b 1D       		.uleb128 0x1d
 11951 3a6c 81040000 		.4byte	.LASF923
 11952 3a70 2B       		.byte	0x2b
 11953 3a71 9E02     		.2byte	0x29e
 11954 3a73 123A0000 		.4byte	0x3a12
 11955 3a77 00       		.byte	0
 11956 3a78 11       		.uleb128 0x11
 11957 3a79 F80C0000 		.4byte	0xcf8
 11958 3a7d 883A0000 		.4byte	0x3a88
 11959 3a81 12       		.uleb128 0x12
 11960 3a82 48000000 		.4byte	0x48
 11961 3a86 18       		.byte	0x18
 11962 3a87 00       		.byte	0
 11963 3a88 2D       		.uleb128 0x2d
 11964 3a89 762A0000 		.4byte	.LASF925
 11965 3a8d 0B       		.uleb128 0xb
 11966 3a8e 04       		.byte	0x4
 11967 3a8f 883A0000 		.4byte	0x3a88
 11968 3a93 0D       		.uleb128 0xd
 11969 3a94 9E3A0000 		.4byte	0x3a9e
 11970 3a98 0E       		.uleb128 0xe
 11971 3a99 9A360000 		.4byte	0x369a
 11972 3a9d 00       		.byte	0
ARM GAS  /tmp/ccHCUo6g.s 			page 226


 11973 3a9e 0B       		.uleb128 0xb
 11974 3a9f 04       		.byte	0x4
 11975 3aa0 933A0000 		.4byte	0x3a93
 11976 3aa4 0B       		.uleb128 0xb
 11977 3aa5 04       		.byte	0x4
 11978 3aa6 ED330000 		.4byte	0x33ed
 11979 3aaa 0D       		.uleb128 0xd
 11980 3aab B53A0000 		.4byte	0x3ab5
 11981 3aaf 0E       		.uleb128 0xe
 11982 3ab0 2C000000 		.4byte	0x2c
 11983 3ab4 00       		.byte	0
 11984 3ab5 0B       		.uleb128 0xb
 11985 3ab6 04       		.byte	0x4
 11986 3ab7 BB3A0000 		.4byte	0x3abb
 11987 3abb 0B       		.uleb128 0xb
 11988 3abc 04       		.byte	0x4
 11989 3abd AA3A0000 		.4byte	0x3aaa
 11990 3ac1 11       		.uleb128 0x11
 11991 3ac2 4F380000 		.4byte	0x384f
 11992 3ac6 D13A0000 		.4byte	0x3ad1
 11993 3aca 12       		.uleb128 0x12
 11994 3acb 48000000 		.4byte	0x48
 11995 3acf 02       		.byte	0x2
 11996 3ad0 00       		.byte	0
 11997 3ad1 13       		.uleb128 0x13
 11998 3ad2 AC290000 		.4byte	.LASF926
 11999 3ad6 2B       		.byte	0x2b
 12000 3ad7 2E03     		.2byte	0x32e
 12001 3ad9 9A360000 		.4byte	0x369a
 12002 3add 13       		.uleb128 0x13
 12003 3ade CE2B0000 		.4byte	.LASF927
 12004 3ae2 2B       		.byte	0x2b
 12005 3ae3 2F03     		.2byte	0x32f
 12006 3ae5 A0360000 		.4byte	0x36a0
 12007 3ae9 02       		.uleb128 0x2
 12008 3aea 08       		.byte	0x8
 12009 3aeb 04       		.byte	0x4
 12010 3aec B72B0000 		.4byte	.LASF928
 12011 3af0 2F       		.uleb128 0x2f
 12012 3af1 05220000 		.4byte	.LASF1065
 12013 3af5 05       		.byte	0x5
 12014 3af6 01       		.byte	0x1
 12015 3af7 5A000000 		.4byte	0x5a
 12016 3afb 2C       		.byte	0x2c
 12017 3afc 8202     		.2byte	0x282
 12018 3afe 1B3B0000 		.4byte	0x3b1b
 12019 3b02 30       		.uleb128 0x30
 12020 3b03 FA1F0000 		.4byte	.LASF929
 12021 3b07 7F       		.sleb128 -1
 12022 3b08 21       		.uleb128 0x21
 12023 3b09 F3030000 		.4byte	.LASF930
 12024 3b0d 00       		.byte	0
 12025 3b0e 21       		.uleb128 0x21
 12026 3b0f A31F0000 		.4byte	.LASF931
 12027 3b13 01       		.byte	0x1
 12028 3b14 21       		.uleb128 0x21
 12029 3b15 6D320000 		.4byte	.LASF932
ARM GAS  /tmp/ccHCUo6g.s 			page 227


 12030 3b19 02       		.byte	0x2
 12031 3b1a 00       		.byte	0
 12032 3b1b 13       		.uleb128 0x13
 12033 3b1c C5370000 		.4byte	.LASF933
 12034 3b20 2C       		.byte	0x2c
 12035 3b21 8D02     		.2byte	0x28d
 12036 3b23 F03A0000 		.4byte	0x3af0
 12037 3b27 07       		.uleb128 0x7
 12038 3b28 85220000 		.4byte	.LASF934
 12039 3b2c 10       		.byte	0x10
 12040 3b2d 01       		.byte	0x1
 12041 3b2e 30       		.byte	0x30
 12042 3b2f 643B0000 		.4byte	0x3b64
 12043 3b33 08       		.uleb128 0x8
 12044 3b34 B4160000 		.4byte	.LASF935
 12045 3b38 01       		.byte	0x1
 12046 3b39 31       		.byte	0x31
 12047 3b3a ED0C0000 		.4byte	0xced
 12048 3b3e 00       		.byte	0
 12049 3b3f 08       		.uleb128 0x8
 12050 3b40 6A230000 		.4byte	.LASF936
 12051 3b44 01       		.byte	0x1
 12052 3b45 32       		.byte	0x32
 12053 3b46 ED0C0000 		.4byte	0xced
 12054 3b4a 04       		.byte	0x4
 12055 3b4b 08       		.uleb128 0x8
 12056 3b4c 0C2E0000 		.4byte	.LASF937
 12057 3b50 01       		.byte	0x1
 12058 3b51 33       		.byte	0x33
 12059 3b52 ED0C0000 		.4byte	0xced
 12060 3b56 08       		.byte	0x8
 12061 3b57 16       		.uleb128 0x16
 12062 3b58 63626600 		.ascii	"cbf\000"
 12063 3b5c 01       		.byte	0x1
 12064 3b5d 34       		.byte	0x34
 12065 3b5e 7A3B0000 		.4byte	0x3b7a
 12066 3b62 0C       		.byte	0xc
 12067 3b63 00       		.byte	0
 12068 3b64 0D       		.uleb128 0xd
 12069 3b65 743B0000 		.4byte	0x3b74
 12070 3b69 0E       		.uleb128 0xe
 12071 3b6a 2C000000 		.4byte	0x2c
 12072 3b6e 0E       		.uleb128 0xe
 12073 3b6f 743B0000 		.4byte	0x3b74
 12074 3b73 00       		.byte	0
 12075 3b74 0B       		.uleb128 0xb
 12076 3b75 04       		.byte	0x4
 12077 3b76 ED0C0000 		.4byte	0xced
 12078 3b7a 0B       		.uleb128 0xb
 12079 3b7b 04       		.byte	0x4
 12080 3b7c 643B0000 		.4byte	0x3b64
 12081 3b80 05       		.uleb128 0x5
 12082 3b81 091B0000 		.4byte	.LASF938
 12083 3b85 01       		.byte	0x1
 12084 3b86 35       		.byte	0x35
 12085 3b87 273B0000 		.4byte	0x3b27
 12086 3b8b 11       		.uleb128 0x11
ARM GAS  /tmp/ccHCUo6g.s 			page 228


 12087 3b8c 131C0000 		.4byte	0x1c13
 12088 3b90 9B3B0000 		.4byte	0x3b9b
 12089 3b94 12       		.uleb128 0x12
 12090 3b95 48000000 		.4byte	0x48
 12091 3b99 18       		.byte	0x18
 12092 3b9a 00       		.byte	0
 12093 3b9b 04       		.uleb128 0x4
 12094 3b9c 8B3B0000 		.4byte	0x3b8b
 12095 3ba0 31       		.uleb128 0x31
 12096 3ba1 3B130000 		.4byte	.LASF939
 12097 3ba5 01       		.byte	0x1
 12098 3ba6 38       		.byte	0x38
 12099 3ba7 9B3B0000 		.4byte	0x3b9b
 12100 3bab 05       		.uleb128 0x5
 12101 3bac 03       		.byte	0x3
 12102 3bad 00000000 		.4byte	fault_vec
 12103 3bb1 31       		.uleb128 0x31
 12104 3bb2 A1320000 		.4byte	.LASF940
 12105 3bb6 01       		.byte	0x1
 12106 3bb7 39       		.byte	0x39
 12107 3bb8 33000000 		.4byte	0x33
 12108 3bbc 05       		.uleb128 0x5
 12109 3bbd 03       		.byte	0x3
 12110 3bbe 00000000 		.4byte	fault_vec_write
 12111 3bc2 11       		.uleb128 0x11
 12112 3bc3 803B0000 		.4byte	0x3b80
 12113 3bc7 D23B0000 		.4byte	0x3bd2
 12114 3bcb 12       		.uleb128 0x12
 12115 3bcc 48000000 		.4byte	0x48
 12116 3bd0 27       		.byte	0x27
 12117 3bd1 00       		.byte	0
 12118 3bd2 31       		.uleb128 0x31
 12119 3bd3 48390000 		.4byte	.LASF941
 12120 3bd7 01       		.byte	0x1
 12121 3bd8 3A       		.byte	0x3a
 12122 3bd9 C23B0000 		.4byte	0x3bc2
 12123 3bdd 05       		.uleb128 0x5
 12124 3bde 03       		.byte	0x3
 12125 3bdf 00000000 		.4byte	callbacks
 12126 3be3 31       		.uleb128 0x31
 12127 3be4 AF0E0000 		.4byte	.LASF942
 12128 3be8 01       		.byte	0x1
 12129 3be9 3B       		.byte	0x3b
 12130 3bea 2C000000 		.4byte	0x2c
 12131 3bee 05       		.uleb128 0x5
 12132 3bef 03       		.byte	0x3
 12133 3bf0 00000000 		.4byte	callback_write
 12134 3bf4 32       		.uleb128 0x32
 12135 3bf5 221B0000 		.4byte	.LASF943
 12136 3bf9 01       		.byte	0x1
 12137 3bfa C203     		.2byte	0x3c2
 12138 3bfc 00000000 		.4byte	.LFB263
 12139 3c00 30000000 		.4byte	.LFE263-.LFB263
 12140 3c04 01       		.uleb128 0x1
 12141 3c05 9C       		.byte	0x9c
 12142 3c06 2D3C0000 		.4byte	0x3c2d
 12143 3c0a 33       		.uleb128 0x33
ARM GAS  /tmp/ccHCUo6g.s 			page 229


 12144 3c0b 63626600 		.ascii	"cbf\000"
 12145 3c0f 01       		.byte	0x1
 12146 3c10 C203     		.2byte	0x3c2
 12147 3c12 7A3B0000 		.4byte	0x3b7a
 12148 3c16 01       		.uleb128 0x1
 12149 3c17 50       		.byte	0x50
 12150 3c18 34       		.uleb128 0x34
 12151 3c19 28020000 		.4byte	.Ldebug_ranges0+0x228
 12152 3c1d 35       		.uleb128 0x35
 12153 3c1e 6900     		.ascii	"i\000"
 12154 3c20 01       		.byte	0x1
 12155 3c21 C303     		.2byte	0x3c3
 12156 3c23 2C000000 		.4byte	0x2c
 12157 3c27 00000000 		.4byte	.LLST45
 12158 3c2b 00       		.byte	0
 12159 3c2c 00       		.byte	0
 12160 3c2d 32       		.uleb128 0x32
 12161 3c2e 2E0C0000 		.4byte	.LASF944
 12162 3c32 01       		.byte	0x1
 12163 3c33 9903     		.2byte	0x399
 12164 3c35 00000000 		.4byte	.LFB262
 12165 3c39 90000000 		.4byte	.LFE262-.LFB262
 12166 3c3d 01       		.uleb128 0x1
 12167 3c3e 9C       		.byte	0x9c
 12168 3c3f B83C0000 		.4byte	0x3cb8
 12169 3c43 36       		.uleb128 0x36
 12170 3c44 B4160000 		.4byte	.LASF935
 12171 3c48 01       		.byte	0x1
 12172 3c49 9A03     		.2byte	0x39a
 12173 3c4b ED0C0000 		.4byte	0xced
 12174 3c4f 20000000 		.4byte	.LLST39
 12175 3c53 36       		.uleb128 0x36
 12176 3c54 6A230000 		.4byte	.LASF936
 12177 3c58 01       		.byte	0x1
 12178 3c59 9B03     		.2byte	0x39b
 12179 3c5b ED0C0000 		.4byte	0xced
 12180 3c5f 3E000000 		.4byte	.LLST40
 12181 3c63 36       		.uleb128 0x36
 12182 3c64 0C2E0000 		.4byte	.LASF937
 12183 3c68 01       		.byte	0x1
 12184 3c69 9C03     		.2byte	0x39c
 12185 3c6b ED0C0000 		.4byte	0xced
 12186 3c6f 67000000 		.4byte	.LLST41
 12187 3c73 37       		.uleb128 0x37
 12188 3c74 63626600 		.ascii	"cbf\000"
 12189 3c78 01       		.byte	0x1
 12190 3c79 9D03     		.2byte	0x39d
 12191 3c7b 7A3B0000 		.4byte	0x3b7a
 12192 3c7f 90000000 		.4byte	.LLST42
 12193 3c83 38       		.uleb128 0x38
 12194 3c84 51340000 		.4byte	.LASF945
 12195 3c88 01       		.byte	0x1
 12196 3c89 9F03     		.2byte	0x39f
 12197 3c8b 2C000000 		.4byte	0x2c
 12198 3c8f BA000000 		.4byte	.LLST43
 12199 3c93 34       		.uleb128 0x34
 12200 3c94 00020000 		.4byte	.Ldebug_ranges0+0x200
ARM GAS  /tmp/ccHCUo6g.s 			page 230


 12201 3c98 35       		.uleb128 0x35
 12202 3c99 6900     		.ascii	"i\000"
 12203 3c9b 01       		.byte	0x1
 12204 3c9c A103     		.2byte	0x3a1
 12205 3c9e 2C000000 		.4byte	0x2c
 12206 3ca2 FB000000 		.4byte	.LLST44
 12207 3ca6 39       		.uleb128 0x39
 12208 3ca7 42000000 		.4byte	.LVL517
 12209 3cab 03660000 		.4byte	0x6603
 12210 3caf 3A       		.uleb128 0x3a
 12211 3cb0 01       		.uleb128 0x1
 12212 3cb1 51       		.byte	0x51
 12213 3cb2 02       		.uleb128 0x2
 12214 3cb3 75       		.byte	0x75
 12215 3cb4 00       		.sleb128 0
 12216 3cb5 00       		.byte	0
 12217 3cb6 00       		.byte	0
 12218 3cb7 00       		.byte	0
 12219 3cb8 3B       		.uleb128 0x3b
 12220 3cb9 3D0F0000 		.4byte	.LASF1066
 12221 3cbd 01       		.byte	0x1
 12222 3cbe 8403     		.2byte	0x384
 12223 3cc0 2C000000 		.4byte	0x2c
 12224 3cc4 00000000 		.4byte	.LFB261
 12225 3cc8 0C000000 		.4byte	.LFE261-.LFB261
 12226 3ccc 01       		.uleb128 0x1
 12227 3ccd 9C       		.byte	0x9c
 12228 3cce 32       		.uleb128 0x32
 12229 3ccf EA260000 		.4byte	.LASF946
 12230 3cd3 01       		.byte	0x1
 12231 3cd4 7D03     		.2byte	0x37d
 12232 3cd6 00000000 		.4byte	.LFB260
 12233 3cda 30000000 		.4byte	.LFE260-.LFB260
 12234 3cde 01       		.uleb128 0x1
 12235 3cdf 9C       		.byte	0x9c
 12236 3ce0 1A3D0000 		.4byte	0x3d1a
 12237 3ce4 36       		.uleb128 0x36
 12238 3ce5 002D0000 		.4byte	.LASF947
 12239 3ce9 01       		.byte	0x1
 12240 3cea 7D03     		.2byte	0x37d
 12241 3cec 1A3D0000 		.4byte	0x3d1a
 12242 3cf0 26010000 		.4byte	.LLST38
 12243 3cf4 39       		.uleb128 0x39
 12244 3cf5 1C000000 		.4byte	.LVL510
 12245 3cf9 0E660000 		.4byte	0x660e
 12246 3cfd 3A       		.uleb128 0x3a
 12247 3cfe 01       		.uleb128 0x1
 12248 3cff 50       		.byte	0x50
 12249 3d00 0A       		.uleb128 0xa
 12250 3d01 75       		.byte	0x75
 12251 3d02 00       		.sleb128 0
 12252 3d03 34       		.byte	0x34
 12253 3d04 24       		.byte	0x24
 12254 3d05 03       		.byte	0x3
 12255 3d06 00000000 		.4byte	.LANCHOR4
 12256 3d0a 22       		.byte	0x22
 12257 3d0b 3A       		.uleb128 0x3a
ARM GAS  /tmp/ccHCUo6g.s 			page 231


 12258 3d0c 01       		.uleb128 0x1
 12259 3d0d 51       		.byte	0x51
 12260 3d0e 03       		.uleb128 0x3
 12261 3d0f F3       		.byte	0xf3
 12262 3d10 01       		.uleb128 0x1
 12263 3d11 50       		.byte	0x50
 12264 3d12 3A       		.uleb128 0x3a
 12265 3d13 01       		.uleb128 0x1
 12266 3d14 52       		.byte	0x52
 12267 3d15 02       		.uleb128 0x2
 12268 3d16 08       		.byte	0x8
 12269 3d17 50       		.byte	0x50
 12270 3d18 00       		.byte	0
 12271 3d19 00       		.byte	0
 12272 3d1a 0B       		.uleb128 0xb
 12273 3d1b 04       		.byte	0x4
 12274 3d1c 071C0000 		.4byte	0x1c07
 12275 3d20 3C       		.uleb128 0x3c
 12276 3d21 19170000 		.4byte	.LASF948
 12277 3d25 01       		.byte	0x1
 12278 3d26 3D       		.byte	0x3d
 12279 3d27 00000000 		.4byte	.LFB259
 12280 3d2b D8190000 		.4byte	.LFE259-.LFB259
 12281 3d2f 01       		.uleb128 0x1
 12282 3d30 9C       		.byte	0x9c
 12283 3d31 46650000 		.4byte	0x6546
 12284 3d35 3D       		.uleb128 0x3d
 12285 3d36 73747200 		.ascii	"str\000"
 12286 3d3a 01       		.byte	0x1
 12287 3d3b 3D       		.byte	0x3d
 12288 3d3c 89330000 		.4byte	0x3389
 12289 3d40 52010000 		.4byte	.LLST0
 12290 3d44 20       		.uleb128 0x20
 12291 3d45 07       		.byte	0x7
 12292 3d46 01       		.byte	0x1
 12293 3d47 6C000000 		.4byte	0x6c
 12294 3d4b 01       		.byte	0x1
 12295 3d4c 3E       		.byte	0x3e
 12296 3d4d 583D0000 		.4byte	0x3d58
 12297 3d51 21       		.uleb128 0x21
 12298 3d52 41340000 		.4byte	.LASF949
 12299 3d56 40       		.byte	0x40
 12300 3d57 00       		.byte	0
 12301 3d58 3E       		.uleb128 0x3e
 12302 3d59 7C090000 		.4byte	.LASF950
 12303 3d5d 01       		.byte	0x1
 12304 3d5e 3F       		.byte	0x3f
 12305 3d5f 2C000000 		.4byte	0x2c
 12306 3d63 73010000 		.4byte	.LLST1
 12307 3d67 31       		.uleb128 0x31
 12308 3d68 872C0000 		.4byte	.LASF951
 12309 3d6c 01       		.byte	0x1
 12310 3d6d 40       		.byte	0x40
 12311 3d6e 46650000 		.4byte	0x6546
 12312 3d72 03       		.uleb128 0x3
 12313 3d73 91       		.byte	0x91
 12314 3d74 B87D     		.sleb128 -328
ARM GAS  /tmp/ccHCUo6g.s 			page 232


 12315 3d76 3F       		.uleb128 0x3f
 12316 3d77 703200   		.ascii	"p2\000"
 12317 3d7a 01       		.byte	0x1
 12318 3d7b 42       		.byte	0x42
 12319 3d7c 89330000 		.4byte	0x3389
 12320 3d80 A6020000 		.4byte	.LLST2
 12321 3d84 31       		.uleb128 0x31
 12322 3d85 952D0000 		.4byte	.LASF952
 12323 3d89 01       		.byte	0x1
 12324 3d8a 4D       		.byte	0x4d
 12325 3d8b D6180000 		.4byte	0x18d6
 12326 3d8f 05       		.uleb128 0x5
 12327 3d90 03       		.byte	0x3
 12328 3d91 00000000 		.4byte	mcconf.13534
 12329 3d95 31       		.uleb128 0x31
 12330 3d96 5A2F0000 		.4byte	.LASF953
 12331 3d9a 01       		.byte	0x1
 12332 3d9b 4E       		.byte	0x4e
 12333 3d9c D6180000 		.4byte	0x18d6
 12334 3da0 05       		.uleb128 0x5
 12335 3da1 03       		.byte	0x3
 12336 3da2 00000000 		.4byte	mcconf_old.13535
 12337 3da6 40       		.uleb128 0x40
 12338 3da7 14010000 		.4byte	.LBB85
 12339 3dab 2C000000 		.4byte	.LBE85-.LBB85
 12340 3daf FD3D0000 		.4byte	0x3dfd
 12341 3db3 31       		.uleb128 0x31
 12342 3db4 30280000 		.4byte	.LASF499
 12343 3db8 01       		.byte	0x1
 12344 3db9 56       		.byte	0x56
 12345 3dba 25000000 		.4byte	0x25
 12346 3dbe 03       		.uleb128 0x3
 12347 3dbf 91       		.byte	0x91
 12348 3dc0 9C7D     		.sleb128 -356
 12349 3dc2 41       		.uleb128 0x41
 12350 3dc3 22010000 		.4byte	.LVL29
 12351 3dc7 1D660000 		.4byte	0x661d
 12352 3dcb E03D0000 		.4byte	0x3de0
 12353 3dcf 3A       		.uleb128 0x3a
 12354 3dd0 01       		.uleb128 0x1
 12355 3dd1 51       		.byte	0x51
 12356 3dd2 05       		.uleb128 0x5
 12357 3dd3 03       		.byte	0x3
 12358 3dd4 50000000 		.4byte	.LC9
 12359 3dd8 3A       		.uleb128 0x3a
 12360 3dd9 01       		.uleb128 0x1
 12361 3dda 52       		.byte	0x52
 12362 3ddb 03       		.uleb128 0x3
 12363 3ddc 91       		.byte	0x91
 12364 3ddd 9C7D     		.sleb128 -356
 12365 3ddf 00       		.byte	0
 12366 3de0 42       		.uleb128 0x42
 12367 3de1 3A010000 		.4byte	.LVL30
 12368 3de5 28660000 		.4byte	0x6628
 12369 3de9 39       		.uleb128 0x39
 12370 3dea 40010000 		.4byte	.LVL31
 12371 3dee 33660000 		.4byte	0x6633
ARM GAS  /tmp/ccHCUo6g.s 			page 233


 12372 3df2 3A       		.uleb128 0x3a
 12373 3df3 01       		.uleb128 0x1
 12374 3df4 50       		.byte	0x50
 12375 3df5 05       		.uleb128 0x5
 12376 3df6 03       		.byte	0x3
 12377 3df7 54000000 		.4byte	.LC10
 12378 3dfb 00       		.byte	0
 12379 3dfc 00       		.byte	0
 12380 3dfd 40       		.uleb128 0x40
 12381 3dfe 52010000 		.4byte	.LBB86
 12382 3e02 24000000 		.4byte	.LBE86-.LBB86
 12383 3e06 8C3E0000 		.4byte	0x3e8c
 12384 3e0a 3F       		.uleb128 0x3f
 12385 3e0b 6E00     		.ascii	"n\000"
 12386 3e0d 01       		.byte	0x1
 12387 3e0e 69       		.byte	0x69
 12388 3e0f 38000000 		.4byte	0x38
 12389 3e13 DB020000 		.4byte	.LLST4
 12390 3e17 31       		.uleb128 0x31
 12391 3e18 9A290000 		.4byte	.LASF954
 12392 3e1c 01       		.byte	0x1
 12393 3e1d 69       		.byte	0x69
 12394 3e1e 38000000 		.4byte	0x38
 12395 3e22 03       		.uleb128 0x3
 12396 3e23 91       		.byte	0x91
 12397 3e24 9C7D     		.sleb128 -356
 12398 3e26 41       		.uleb128 0x41
 12399 3e27 58010000 		.4byte	.LVL34
 12400 3e2b 3E660000 		.4byte	0x663e
 12401 3e2f 3B3E0000 		.4byte	0x3e3b
 12402 3e33 3A       		.uleb128 0x3a
 12403 3e34 01       		.uleb128 0x1
 12404 3e35 51       		.byte	0x51
 12405 3e36 03       		.uleb128 0x3
 12406 3e37 91       		.byte	0x91
 12407 3e38 9C7D     		.sleb128 -356
 12408 3e3a 00       		.byte	0
 12409 3e3b 42       		.uleb128 0x42
 12410 3e3c 5E010000 		.4byte	.LVL36
 12411 3e40 49660000 		.4byte	0x6649
 12412 3e44 41       		.uleb128 0x41
 12413 3e45 66010000 		.4byte	.LVL37
 12414 3e49 33660000 		.4byte	0x6633
 12415 3e4d 5B3E0000 		.4byte	0x3e5b
 12416 3e51 3A       		.uleb128 0x3a
 12417 3e52 01       		.uleb128 0x1
 12418 3e53 50       		.byte	0x50
 12419 3e54 05       		.uleb128 0x5
 12420 3e55 03       		.byte	0x3
 12421 3e56 38010000 		.4byte	.LC21
 12422 3e5a 00       		.byte	0
 12423 3e5b 41       		.uleb128 0x41
 12424 3e5c 6E010000 		.4byte	.LVL38
 12425 3e60 33660000 		.4byte	0x6633
 12426 3e64 783E0000 		.4byte	0x3e78
 12427 3e68 3A       		.uleb128 0x3a
 12428 3e69 01       		.uleb128 0x1
ARM GAS  /tmp/ccHCUo6g.s 			page 234


 12429 3e6a 50       		.byte	0x50
 12430 3e6b 05       		.uleb128 0x5
 12431 3e6c 03       		.byte	0x3
 12432 3e6d 54010000 		.4byte	.LC22
 12433 3e71 3A       		.uleb128 0x3a
 12434 3e72 01       		.uleb128 0x1
 12435 3e73 51       		.byte	0x51
 12436 3e74 02       		.uleb128 0x2
 12437 3e75 74       		.byte	0x74
 12438 3e76 00       		.sleb128 0
 12439 3e77 00       		.byte	0
 12440 3e78 39       		.uleb128 0x39
 12441 3e79 76010000 		.4byte	.LVL39
 12442 3e7d 33660000 		.4byte	0x6633
 12443 3e81 3A       		.uleb128 0x3a
 12444 3e82 01       		.uleb128 0x1
 12445 3e83 50       		.byte	0x50
 12446 3e84 05       		.uleb128 0x5
 12447 3e85 03       		.byte	0x3
 12448 3e86 6C010000 		.4byte	.LC23
 12449 3e8a 00       		.byte	0
 12450 3e8b 00       		.byte	0
 12451 3e8c 40       		.uleb128 0x40
 12452 3e8d E4010000 		.4byte	.LBB87
 12453 3e91 76000000 		.4byte	.LBE87-.LBB87
 12454 3e95 3C3F0000 		.4byte	0x3f3c
 12455 3e99 3F       		.uleb128 0x3f
 12456 3e9a 747000   		.ascii	"tp\000"
 12457 3e9d 01       		.byte	0x1
 12458 3e9e 6F       		.byte	0x6f
 12459 3e9f B8020000 		.4byte	0x2b8
 12460 3ea3 F9020000 		.4byte	.LLST5
 12461 3ea7 31       		.uleb128 0x31
 12462 3ea8 710F0000 		.4byte	.LASF955
 12463 3eac 01       		.byte	0x1
 12464 3ead 70       		.byte	0x70
 12465 3eae 56650000 		.4byte	0x6556
 12466 3eb2 05       		.uleb128 0x5
 12467 3eb3 03       		.byte	0x3
 12468 3eb4 00000000 		.4byte	states.13540
 12469 3eb8 43       		.uleb128 0x43
 12470 3eb9 9A650000 		.4byte	0x659a
 12471 3ebd 08020000 		.4byte	.LBB88
 12472 3ec1 04000000 		.4byte	.LBE88-.LBB88
 12473 3ec5 01       		.byte	0x1
 12474 3ec6 79       		.byte	0x79
 12475 3ec7 41       		.uleb128 0x41
 12476 3ec8 F4010000 		.4byte	.LVL53
 12477 3ecc 33660000 		.4byte	0x6633
 12478 3ed0 DE3E0000 		.4byte	0x3ede
 12479 3ed4 3A       		.uleb128 0x3a
 12480 3ed5 01       		.uleb128 0x1
 12481 3ed6 50       		.byte	0x50
 12482 3ed7 05       		.uleb128 0x5
 12483 3ed8 03       		.byte	0x3
 12484 3ed9 94010000 		.4byte	.LC25
 12485 3edd 00       		.byte	0
ARM GAS  /tmp/ccHCUo6g.s 			page 235


 12486 3ede 41       		.uleb128 0x41
 12487 3edf FA010000 		.4byte	.LVL54
 12488 3ee3 33660000 		.4byte	0x6633
 12489 3ee7 F53E0000 		.4byte	0x3ef5
 12490 3eeb 3A       		.uleb128 0x3a
 12491 3eec 01       		.uleb128 0x1
 12492 3eed 50       		.byte	0x50
 12493 3eee 05       		.uleb128 0x5
 12494 3eef 03       		.byte	0x3
 12495 3ef0 D4010000 		.4byte	.LC26
 12496 3ef4 00       		.byte	0
 12497 3ef5 42       		.uleb128 0x42
 12498 3ef6 FE010000 		.4byte	.LVL55
 12499 3efa 54660000 		.4byte	0x6654
 12500 3efe 41       		.uleb128 0x41
 12501 3eff 4E020000 		.4byte	.LVL59
 12502 3f03 33660000 		.4byte	0x6633
 12503 3f07 2B3F0000 		.4byte	0x3f2b
 12504 3f0b 3A       		.uleb128 0x3a
 12505 3f0c 01       		.uleb128 0x1
 12506 3f0d 50       		.byte	0x50
 12507 3f0e 02       		.uleb128 0x2
 12508 3f0f 75       		.byte	0x75
 12509 3f10 00       		.sleb128 0
 12510 3f11 3A       		.uleb128 0x3a
 12511 3f12 01       		.uleb128 0x1
 12512 3f13 51       		.byte	0x51
 12513 3f14 02       		.uleb128 0x2
 12514 3f15 74       		.byte	0x74
 12515 3f16 00       		.sleb128 0
 12516 3f17 3A       		.uleb128 0x3a
 12517 3f18 01       		.uleb128 0x1
 12518 3f19 52       		.byte	0x52
 12519 3f1a 02       		.uleb128 0x2
 12520 3f1b 78       		.byte	0x78
 12521 3f1c 00       		.sleb128 0
 12522 3f1d 3A       		.uleb128 0x3a
 12523 3f1e 01       		.uleb128 0x1
 12524 3f1f 53       		.byte	0x53
 12525 3f20 02       		.uleb128 0x2
 12526 3f21 79       		.byte	0x79
 12527 3f22 00       		.sleb128 0
 12528 3f23 3A       		.uleb128 0x3a
 12529 3f24 02       		.uleb128 0x2
 12530 3f25 7D       		.byte	0x7d
 12531 3f26 0C       		.sleb128 12
 12532 3f27 02       		.uleb128 0x2
 12533 3f28 7A       		.byte	0x7a
 12534 3f29 00       		.sleb128 0
 12535 3f2a 00       		.byte	0
 12536 3f2b 39       		.uleb128 0x39
 12537 3f2c 54020000 		.4byte	.LVL60
 12538 3f30 5F660000 		.4byte	0x665f
 12539 3f34 3A       		.uleb128 0x3a
 12540 3f35 01       		.uleb128 0x1
 12541 3f36 50       		.byte	0x50
 12542 3f37 02       		.uleb128 0x2
ARM GAS  /tmp/ccHCUo6g.s 			page 236


 12543 3f38 74       		.byte	0x74
 12544 3f39 00       		.sleb128 0
 12545 3f3a 00       		.byte	0
 12546 3f3b 00       		.byte	0
 12547 3f3c 40       		.uleb128 0x40
 12548 3f3d CE020000 		.4byte	.LBB90
 12549 3f41 18020000 		.4byte	.LBE90-.LBB90
 12550 3f45 5C410000 		.4byte	0x415c
 12551 3f49 3F       		.uleb128 0x3f
 12552 3f4a 6900     		.ascii	"i\000"
 12553 3f4c 01       		.byte	0x1
 12554 3f4d 84       		.byte	0x84
 12555 3f4e 2C000000 		.4byte	0x2c
 12556 3f52 22030000 		.4byte	.LLST6
 12557 3f56 41       		.uleb128 0x41
 12558 3f57 AE030000 		.4byte	.LVL75
 12559 3f5b 33660000 		.4byte	0x6633
 12560 3f5f 6D3F0000 		.4byte	0x3f6d
 12561 3f63 3A       		.uleb128 0x3a
 12562 3f64 01       		.uleb128 0x1
 12563 3f65 50       		.byte	0x50
 12564 3f66 05       		.uleb128 0x5
 12565 3f67 03       		.byte	0x3
 12566 3f68 18000000 		.4byte	.LC4
 12567 3f6c 00       		.byte	0
 12568 3f6d 41       		.uleb128 0x41
 12569 3f6e C8030000 		.4byte	.LVL78
 12570 3f72 33660000 		.4byte	0x6633
 12571 3f76 873F0000 		.4byte	0x3f87
 12572 3f7a 3A       		.uleb128 0x3a
 12573 3f7b 01       		.uleb128 0x1
 12574 3f7c 50       		.byte	0x50
 12575 3f7d 02       		.uleb128 0x2
 12576 3f7e 7B       		.byte	0x7b
 12577 3f7f 00       		.sleb128 0
 12578 3f80 3A       		.uleb128 0x3a
 12579 3f81 01       		.uleb128 0x1
 12580 3f82 51       		.byte	0x51
 12581 3f83 02       		.uleb128 0x2
 12582 3f84 76       		.byte	0x76
 12583 3f85 00       		.sleb128 0
 12584 3f86 00       		.byte	0
 12585 3f87 42       		.uleb128 0x42
 12586 3f88 CE030000 		.4byte	.LVL79
 12587 3f8c 6A660000 		.4byte	0x666a
 12588 3f90 41       		.uleb128 0x41
 12589 3f91 D8030000 		.4byte	.LVL80
 12590 3f95 33660000 		.4byte	0x6633
 12591 3f99 A43F0000 		.4byte	0x3fa4
 12592 3f9d 3A       		.uleb128 0x3a
 12593 3f9e 01       		.uleb128 0x1
 12594 3f9f 50       		.byte	0x50
 12595 3fa0 02       		.uleb128 0x2
 12596 3fa1 7A       		.byte	0x7a
 12597 3fa2 00       		.sleb128 0
 12598 3fa3 00       		.byte	0
 12599 3fa4 41       		.uleb128 0x41
ARM GAS  /tmp/ccHCUo6g.s 			page 237


 12600 3fa5 E8030000 		.4byte	.LVL82
 12601 3fa9 33660000 		.4byte	0x6633
 12602 3fad B83F0000 		.4byte	0x3fb8
 12603 3fb1 3A       		.uleb128 0x3a
 12604 3fb2 01       		.uleb128 0x1
 12605 3fb3 50       		.byte	0x50
 12606 3fb4 02       		.uleb128 0x2
 12607 3fb5 79       		.byte	0x79
 12608 3fb6 00       		.sleb128 0
 12609 3fb7 00       		.byte	0
 12610 3fb8 41       		.uleb128 0x41
 12611 3fb9 F8030000 		.4byte	.LVL84
 12612 3fbd 33660000 		.4byte	0x6633
 12613 3fc1 CF3F0000 		.4byte	0x3fcf
 12614 3fc5 3A       		.uleb128 0x3a
 12615 3fc6 01       		.uleb128 0x1
 12616 3fc7 50       		.byte	0x50
 12617 3fc8 05       		.uleb128 0x5
 12618 3fc9 03       		.byte	0x3
 12619 3fca F8020000 		.4byte	.LC36
 12620 3fce 00       		.byte	0
 12621 3fcf 41       		.uleb128 0x41
 12622 3fd0 08040000 		.4byte	.LVL86
 12623 3fd4 33660000 		.4byte	0x6633
 12624 3fd8 E63F0000 		.4byte	0x3fe6
 12625 3fdc 3A       		.uleb128 0x3a
 12626 3fdd 01       		.uleb128 0x1
 12627 3fde 50       		.byte	0x50
 12628 3fdf 05       		.uleb128 0x5
 12629 3fe0 03       		.byte	0x3
 12630 3fe1 10030000 		.4byte	.LC37
 12631 3fe5 00       		.byte	0
 12632 3fe6 41       		.uleb128 0x41
 12633 3fe7 18040000 		.4byte	.LVL88
 12634 3feb 33660000 		.4byte	0x6633
 12635 3fef FD3F0000 		.4byte	0x3ffd
 12636 3ff3 3A       		.uleb128 0x3a
 12637 3ff4 01       		.uleb128 0x1
 12638 3ff5 50       		.byte	0x50
 12639 3ff6 05       		.uleb128 0x5
 12640 3ff7 03       		.byte	0x3
 12641 3ff8 28030000 		.4byte	.LC38
 12642 3ffc 00       		.byte	0
 12643 3ffd 41       		.uleb128 0x41
 12644 3ffe 28040000 		.4byte	.LVL90
 12645 4002 33660000 		.4byte	0x6633
 12646 4006 14400000 		.4byte	0x4014
 12647 400a 3A       		.uleb128 0x3a
 12648 400b 01       		.uleb128 0x1
 12649 400c 50       		.byte	0x50
 12650 400d 05       		.uleb128 0x5
 12651 400e 03       		.byte	0x3
 12652 400f 40030000 		.4byte	.LC39
 12653 4013 00       		.byte	0
 12654 4014 41       		.uleb128 0x41
 12655 4015 38040000 		.4byte	.LVL92
 12656 4019 33660000 		.4byte	0x6633
ARM GAS  /tmp/ccHCUo6g.s 			page 238


 12657 401d 2B400000 		.4byte	0x402b
 12658 4021 3A       		.uleb128 0x3a
 12659 4022 01       		.uleb128 0x1
 12660 4023 50       		.byte	0x50
 12661 4024 05       		.uleb128 0x5
 12662 4025 03       		.byte	0x3
 12663 4026 58030000 		.4byte	.LC40
 12664 402a 00       		.byte	0
 12665 402b 41       		.uleb128 0x41
 12666 402c 48040000 		.4byte	.LVL94
 12667 4030 33660000 		.4byte	0x6633
 12668 4034 42400000 		.4byte	0x4042
 12669 4038 3A       		.uleb128 0x3a
 12670 4039 01       		.uleb128 0x1
 12671 403a 50       		.byte	0x50
 12672 403b 05       		.uleb128 0x5
 12673 403c 03       		.byte	0x3
 12674 403d 70030000 		.4byte	.LC41
 12675 4041 00       		.byte	0
 12676 4042 41       		.uleb128 0x41
 12677 4043 50040000 		.4byte	.LVL95
 12678 4047 33660000 		.4byte	0x6633
 12679 404b 59400000 		.4byte	0x4059
 12680 404f 3A       		.uleb128 0x3a
 12681 4050 01       		.uleb128 0x1
 12682 4051 50       		.byte	0x50
 12683 4052 05       		.uleb128 0x5
 12684 4053 03       		.byte	0x3
 12685 4054 88030000 		.4byte	.LC42
 12686 4058 00       		.byte	0
 12687 4059 41       		.uleb128 0x41
 12688 405a 60040000 		.4byte	.LVL97
 12689 405e 33660000 		.4byte	0x6633
 12690 4062 70400000 		.4byte	0x4070
 12691 4066 3A       		.uleb128 0x3a
 12692 4067 01       		.uleb128 0x1
 12693 4068 50       		.byte	0x50
 12694 4069 05       		.uleb128 0x5
 12695 406a 03       		.byte	0x3
 12696 406b A0030000 		.4byte	.LC43
 12697 406f 00       		.byte	0
 12698 4070 41       		.uleb128 0x41
 12699 4071 70040000 		.4byte	.LVL99
 12700 4075 33660000 		.4byte	0x6633
 12701 4079 87400000 		.4byte	0x4087
 12702 407d 3A       		.uleb128 0x3a
 12703 407e 01       		.uleb128 0x1
 12704 407f 50       		.byte	0x50
 12705 4080 05       		.uleb128 0x5
 12706 4081 03       		.byte	0x3
 12707 4082 B8030000 		.4byte	.LC44
 12708 4086 00       		.byte	0
 12709 4087 41       		.uleb128 0x41
 12710 4088 78040000 		.4byte	.LVL100
 12711 408c 33660000 		.4byte	0x6633
 12712 4090 9E400000 		.4byte	0x409e
 12713 4094 3A       		.uleb128 0x3a
ARM GAS  /tmp/ccHCUo6g.s 			page 239


 12714 4095 01       		.uleb128 0x1
 12715 4096 50       		.byte	0x50
 12716 4097 05       		.uleb128 0x5
 12717 4098 03       		.byte	0x3
 12718 4099 D0030000 		.4byte	.LC45
 12719 409d 00       		.byte	0
 12720 409e 41       		.uleb128 0x41
 12721 409f 80040000 		.4byte	.LVL101
 12722 40a3 33660000 		.4byte	0x6633
 12723 40a7 B5400000 		.4byte	0x40b5
 12724 40ab 3A       		.uleb128 0x3a
 12725 40ac 01       		.uleb128 0x1
 12726 40ad 50       		.byte	0x50
 12727 40ae 05       		.uleb128 0x5
 12728 40af 03       		.byte	0x3
 12729 40b0 E8030000 		.4byte	.LC46
 12730 40b4 00       		.byte	0
 12731 40b5 41       		.uleb128 0x41
 12732 40b6 9E040000 		.4byte	.LVL102
 12733 40ba 33660000 		.4byte	0x6633
 12734 40be CC400000 		.4byte	0x40cc
 12735 40c2 3A       		.uleb128 0x3a
 12736 40c3 01       		.uleb128 0x1
 12737 40c4 50       		.byte	0x50
 12738 40c5 05       		.uleb128 0x5
 12739 40c6 03       		.byte	0x3
 12740 40c7 00040000 		.4byte	.LC47
 12741 40cb 00       		.byte	0
 12742 40cc 41       		.uleb128 0x41
 12743 40cd A6040000 		.4byte	.LVL103
 12744 40d1 33660000 		.4byte	0x6633
 12745 40d5 E3400000 		.4byte	0x40e3
 12746 40d9 3A       		.uleb128 0x3a
 12747 40da 01       		.uleb128 0x1
 12748 40db 50       		.byte	0x50
 12749 40dc 05       		.uleb128 0x5
 12750 40dd 03       		.byte	0x3
 12751 40de 18040000 		.4byte	.LC48
 12752 40e2 00       		.byte	0
 12753 40e3 41       		.uleb128 0x41
 12754 40e4 AE040000 		.4byte	.LVL104
 12755 40e8 33660000 		.4byte	0x6633
 12756 40ec FA400000 		.4byte	0x40fa
 12757 40f0 3A       		.uleb128 0x3a
 12758 40f1 01       		.uleb128 0x1
 12759 40f2 50       		.byte	0x50
 12760 40f3 05       		.uleb128 0x5
 12761 40f4 03       		.byte	0x3
 12762 40f5 30040000 		.4byte	.LC49
 12763 40f9 00       		.byte	0
 12764 40fa 41       		.uleb128 0x41
 12765 40fb B6040000 		.4byte	.LVL105
 12766 40ff 33660000 		.4byte	0x6633
 12767 4103 11410000 		.4byte	0x4111
 12768 4107 3A       		.uleb128 0x3a
 12769 4108 01       		.uleb128 0x1
 12770 4109 50       		.byte	0x50
ARM GAS  /tmp/ccHCUo6g.s 			page 240


 12771 410a 05       		.uleb128 0x5
 12772 410b 03       		.byte	0x3
 12773 410c 48040000 		.4byte	.LC50
 12774 4110 00       		.byte	0
 12775 4111 41       		.uleb128 0x41
 12776 4112 BE040000 		.4byte	.LVL106
 12777 4116 33660000 		.4byte	0x6633
 12778 411a 28410000 		.4byte	0x4128
 12779 411e 3A       		.uleb128 0x3a
 12780 411f 01       		.uleb128 0x1
 12781 4120 50       		.byte	0x50
 12782 4121 05       		.uleb128 0x5
 12783 4122 03       		.byte	0x3
 12784 4123 60040000 		.4byte	.LC51
 12785 4127 00       		.byte	0
 12786 4128 41       		.uleb128 0x41
 12787 4129 CE040000 		.4byte	.LVL108
 12788 412d 33660000 		.4byte	0x6633
 12789 4131 3F410000 		.4byte	0x413f
 12790 4135 3A       		.uleb128 0x3a
 12791 4136 01       		.uleb128 0x1
 12792 4137 50       		.byte	0x50
 12793 4138 05       		.uleb128 0x5
 12794 4139 03       		.byte	0x3
 12795 413a 78040000 		.4byte	.LC52
 12796 413e 00       		.byte	0
 12797 413f 42       		.uleb128 0x42
 12798 4140 DC040000 		.4byte	.LVL109
 12799 4144 75660000 		.4byte	0x6675
 12800 4148 39       		.uleb128 0x39
 12801 4149 E4040000 		.4byte	.LVL110
 12802 414d 33660000 		.4byte	0x6633
 12803 4151 3A       		.uleb128 0x3a
 12804 4152 01       		.uleb128 0x1
 12805 4153 50       		.byte	0x50
 12806 4154 05       		.uleb128 0x5
 12807 4155 03       		.byte	0x3
 12808 4156 90040000 		.4byte	.LC53
 12809 415a 00       		.byte	0
 12810 415b 00       		.byte	0
 12811 415c 40       		.uleb128 0x40
 12812 415d 76050000 		.4byte	.LBB91
 12813 4161 8C000000 		.4byte	.LBE91-.LBB91
 12814 4165 A6430000 		.4byte	0x43a6
 12815 4169 31       		.uleb128 0x31
 12816 416a 50250000 		.4byte	.LASF956
 12817 416e 01       		.byte	0x1
 12818 416f B6       		.byte	0xb6
 12819 4170 33000000 		.4byte	0x33
 12820 4174 03       		.uleb128 0x3
 12821 4175 91       		.byte	0x91
 12822 4176 907D     		.sleb128 -368
 12823 4178 31       		.uleb128 0x31
 12824 4179 27010000 		.4byte	.LASF957
 12825 417d 01       		.byte	0x1
 12826 417e B7       		.byte	0xb7
 12827 417f 33000000 		.4byte	0x33
ARM GAS  /tmp/ccHCUo6g.s 			page 241


 12828 4183 03       		.uleb128 0x3
 12829 4184 91       		.byte	0x91
 12830 4185 947D     		.sleb128 -364
 12831 4187 31       		.uleb128 0x31
 12832 4188 B21E0000 		.4byte	.LASF958
 12833 418c 01       		.byte	0x1
 12834 418d B8       		.byte	0xb8
 12835 418e 33000000 		.4byte	0x33
 12836 4192 03       		.uleb128 0x3
 12837 4193 91       		.byte	0x91
 12838 4194 987D     		.sleb128 -360
 12839 4196 31       		.uleb128 0x31
 12840 4197 C31E0000 		.4byte	.LASF959
 12841 419b 01       		.byte	0x1
 12842 419c B9       		.byte	0xb9
 12843 419d 33000000 		.4byte	0x33
 12844 41a1 03       		.uleb128 0x3
 12845 41a2 91       		.byte	0x91
 12846 41a3 9C7D     		.sleb128 -356
 12847 41a5 3E       		.uleb128 0x3e
 12848 41a6 3C2F0000 		.4byte	.LASF960
 12849 41aa 01       		.byte	0x1
 12850 41ab BB       		.byte	0xbb
 12851 41ac 2C000000 		.4byte	0x2c
 12852 41b0 41030000 		.4byte	.LLST7
 12853 41b4 3E       		.uleb128 0x3e
 12854 41b5 422F0000 		.4byte	.LASF961
 12855 41b9 01       		.byte	0x1
 12856 41ba BC       		.byte	0xbc
 12857 41bb 2C000000 		.4byte	0x2c
 12858 41bf 54030000 		.4byte	.LLST8
 12859 41c3 3E       		.uleb128 0x3e
 12860 41c4 482F0000 		.4byte	.LASF962
 12861 41c8 01       		.byte	0x1
 12862 41c9 BD       		.byte	0xbd
 12863 41ca 2C000000 		.4byte	0x2c
 12864 41ce 67030000 		.4byte	.LLST9
 12865 41d2 3F       		.uleb128 0x3f
 12866 41d3 746F7000 		.ascii	"top\000"
 12867 41d7 01       		.byte	0x1
 12868 41d8 BE       		.byte	0xbe
 12869 41d9 2C000000 		.4byte	0x2c
 12870 41dd 7A030000 		.4byte	.LLST10
 12871 41e1 3E       		.uleb128 0x3e
 12872 41e2 97390000 		.4byte	.LASF963
 12873 41e6 01       		.byte	0x1
 12874 41e7 BF       		.byte	0xbf
 12875 41e8 2C000000 		.4byte	0x2c
 12876 41ec 8D030000 		.4byte	.LLST11
 12877 41f0 3E       		.uleb128 0x3e
 12878 41f1 FD1C0000 		.4byte	.LASF964
 12879 41f5 01       		.byte	0x1
 12880 41f6 C0       		.byte	0xc0
 12881 41f7 2C000000 		.4byte	0x2c
 12882 41fb A0030000 		.4byte	.LLST12
 12883 41ff 3E       		.uleb128 0x3e
 12884 4200 7A1C0000 		.4byte	.LASF965
ARM GAS  /tmp/ccHCUo6g.s 			page 242


 12885 4204 01       		.byte	0x1
 12886 4205 C1       		.byte	0xc1
 12887 4206 2C000000 		.4byte	0x2c
 12888 420a B3030000 		.4byte	.LLST13
 12889 420e 44       		.uleb128 0x44
 12890 420f D6650000 		.4byte	0x65d6
 12891 4213 76050000 		.4byte	.LBB92
 12892 4217 02000000 		.4byte	.LBE92-.LBB92
 12893 421b 01       		.byte	0x1
 12894 421c B5       		.byte	0xb5
 12895 421d 43420000 		.4byte	0x4243
 12896 4221 45       		.uleb128 0x45
 12897 4222 E8650000 		.4byte	0x65e8
 12898 4226 76050000 		.4byte	.LBB93
 12899 422a 02000000 		.4byte	.LBE93-.LBB93
 12900 422e 2D       		.byte	0x2d
 12901 422f 5C01     		.2byte	0x15c
 12902 4231 46       		.uleb128 0x46
 12903 4232 F1650000 		.4byte	0x65f1
 12904 4236 76050000 		.4byte	.LBB94
 12905 423a 02000000 		.4byte	.LBE94-.LBB94
 12906 423e 0E       		.byte	0xe
 12907 423f C101     		.2byte	0x1c1
 12908 4241 00       		.byte	0
 12909 4242 00       		.byte	0
 12910 4243 44       		.uleb128 0x44
 12911 4244 A6650000 		.4byte	0x65a6
 12912 4248 94050000 		.4byte	.LBB96
 12913 424c 02000000 		.4byte	.LBE96-.LBB96
 12914 4250 01       		.byte	0x1
 12915 4251 BA       		.byte	0xba
 12916 4252 82420000 		.4byte	0x4282
 12917 4256 47       		.uleb128 0x47
 12918 4257 94050000 		.4byte	.LBB97
 12919 425b 02000000 		.4byte	.LBE97-.LBB97
 12920 425f 45       		.uleb128 0x45
 12921 4260 DF650000 		.4byte	0x65df
 12922 4264 94050000 		.4byte	.LBB98
 12923 4268 02000000 		.4byte	.LBE98-.LBB98
 12924 426c 2D       		.byte	0x2d
 12925 426d 7301     		.2byte	0x173
 12926 426f 46       		.uleb128 0x46
 12927 4270 FA650000 		.4byte	0x65fa
 12928 4274 94050000 		.4byte	.LBB99
 12929 4278 02000000 		.4byte	.LBE99-.LBB99
 12930 427c 0E       		.byte	0xe
 12931 427d CF01     		.2byte	0x1cf
 12932 427f 00       		.byte	0
 12933 4280 00       		.byte	0
 12934 4281 00       		.byte	0
 12935 4282 41       		.uleb128 0x41
 12936 4283 B2050000 		.4byte	.LVL130
 12937 4287 33660000 		.4byte	0x6633
 12938 428b 99420000 		.4byte	0x4299
 12939 428f 3A       		.uleb128 0x3a
 12940 4290 01       		.uleb128 0x1
 12941 4291 50       		.byte	0x50
ARM GAS  /tmp/ccHCUo6g.s 			page 243


 12942 4292 05       		.uleb128 0x5
 12943 4293 03       		.byte	0x3
 12944 4294 EC040000 		.4byte	.LC59
 12945 4298 00       		.byte	0
 12946 4299 41       		.uleb128 0x41
 12947 429a BA050000 		.4byte	.LVL131
 12948 429e 33660000 		.4byte	0x6633
 12949 42a2 B0420000 		.4byte	0x42b0
 12950 42a6 3A       		.uleb128 0x3a
 12951 42a7 01       		.uleb128 0x1
 12952 42a8 50       		.byte	0x50
 12953 42a9 05       		.uleb128 0x5
 12954 42aa 03       		.byte	0x3
 12955 42ab FC040000 		.4byte	.LC60
 12956 42af 00       		.byte	0
 12957 42b0 41       		.uleb128 0x41
 12958 42b1 C2050000 		.4byte	.LVL132
 12959 42b5 33660000 		.4byte	0x6633
 12960 42b9 CD420000 		.4byte	0x42cd
 12961 42bd 3A       		.uleb128 0x3a
 12962 42be 01       		.uleb128 0x1
 12963 42bf 50       		.byte	0x50
 12964 42c0 05       		.uleb128 0x5
 12965 42c1 03       		.byte	0x3
 12966 42c2 0C050000 		.4byte	.LC61
 12967 42c6 3A       		.uleb128 0x3a
 12968 42c7 01       		.uleb128 0x1
 12969 42c8 51       		.byte	0x51
 12970 42c9 02       		.uleb128 0x2
 12971 42ca 7A       		.byte	0x7a
 12972 42cb 00       		.sleb128 0
 12973 42cc 00       		.byte	0
 12974 42cd 41       		.uleb128 0x41
 12975 42ce CA050000 		.4byte	.LVL133
 12976 42d2 33660000 		.4byte	0x6633
 12977 42d6 EA420000 		.4byte	0x42ea
 12978 42da 3A       		.uleb128 0x3a
 12979 42db 01       		.uleb128 0x1
 12980 42dc 50       		.byte	0x50
 12981 42dd 05       		.uleb128 0x5
 12982 42de 03       		.byte	0x3
 12983 42df 1C050000 		.4byte	.LC62
 12984 42e3 3A       		.uleb128 0x3a
 12985 42e4 01       		.uleb128 0x1
 12986 42e5 51       		.byte	0x51
 12987 42e6 02       		.uleb128 0x2
 12988 42e7 79       		.byte	0x79
 12989 42e8 00       		.sleb128 0
 12990 42e9 00       		.byte	0
 12991 42ea 41       		.uleb128 0x41
 12992 42eb D2050000 		.4byte	.LVL134
 12993 42ef 33660000 		.4byte	0x6633
 12994 42f3 07430000 		.4byte	0x4307
 12995 42f7 3A       		.uleb128 0x3a
 12996 42f8 01       		.uleb128 0x1
 12997 42f9 50       		.byte	0x50
 12998 42fa 05       		.uleb128 0x5
ARM GAS  /tmp/ccHCUo6g.s 			page 244


 12999 42fb 03       		.byte	0x3
 13000 42fc 2C050000 		.4byte	.LC63
 13001 4300 3A       		.uleb128 0x3a
 13002 4301 01       		.uleb128 0x1
 13003 4302 51       		.byte	0x51
 13004 4303 02       		.uleb128 0x2
 13005 4304 78       		.byte	0x78
 13006 4305 00       		.sleb128 0
 13007 4306 00       		.byte	0
 13008 4307 41       		.uleb128 0x41
 13009 4308 DA050000 		.4byte	.LVL135
 13010 430c 33660000 		.4byte	0x6633
 13011 4310 24430000 		.4byte	0x4324
 13012 4314 3A       		.uleb128 0x3a
 13013 4315 01       		.uleb128 0x1
 13014 4316 50       		.byte	0x50
 13015 4317 05       		.uleb128 0x5
 13016 4318 03       		.byte	0x3
 13017 4319 3C050000 		.4byte	.LC64
 13018 431d 3A       		.uleb128 0x3a
 13019 431e 01       		.uleb128 0x1
 13020 431f 51       		.byte	0x51
 13021 4320 02       		.uleb128 0x2
 13022 4321 77       		.byte	0x77
 13023 4322 00       		.sleb128 0
 13024 4323 00       		.byte	0
 13025 4324 41       		.uleb128 0x41
 13026 4325 E2050000 		.4byte	.LVL136
 13027 4329 33660000 		.4byte	0x6633
 13028 432d 3B430000 		.4byte	0x433b
 13029 4331 3A       		.uleb128 0x3a
 13030 4332 01       		.uleb128 0x1
 13031 4333 50       		.byte	0x50
 13032 4334 05       		.uleb128 0x5
 13033 4335 03       		.byte	0x3
 13034 4336 44050000 		.4byte	.LC65
 13035 433a 00       		.byte	0
 13036 433b 41       		.uleb128 0x41
 13037 433c EA050000 		.4byte	.LVL137
 13038 4340 33660000 		.4byte	0x6633
 13039 4344 52430000 		.4byte	0x4352
 13040 4348 3A       		.uleb128 0x3a
 13041 4349 01       		.uleb128 0x1
 13042 434a 50       		.byte	0x50
 13043 434b 05       		.uleb128 0x5
 13044 434c 03       		.byte	0x3
 13045 434d 50050000 		.4byte	.LC66
 13046 4351 00       		.byte	0
 13047 4352 41       		.uleb128 0x41
 13048 4353 F2050000 		.4byte	.LVL138
 13049 4357 33660000 		.4byte	0x6633
 13050 435b 6F430000 		.4byte	0x436f
 13051 435f 3A       		.uleb128 0x3a
 13052 4360 01       		.uleb128 0x1
 13053 4361 50       		.byte	0x50
 13054 4362 05       		.uleb128 0x5
 13055 4363 03       		.byte	0x3
ARM GAS  /tmp/ccHCUo6g.s 			page 245


 13056 4364 5C050000 		.4byte	.LC67
 13057 4368 3A       		.uleb128 0x3a
 13058 4369 01       		.uleb128 0x1
 13059 436a 51       		.byte	0x51
 13060 436b 02       		.uleb128 0x2
 13061 436c 76       		.byte	0x76
 13062 436d 00       		.sleb128 0
 13063 436e 00       		.byte	0
 13064 436f 41       		.uleb128 0x41
 13065 4370 FA050000 		.4byte	.LVL139
 13066 4374 33660000 		.4byte	0x6633
 13067 4378 8C430000 		.4byte	0x438c
 13068 437c 3A       		.uleb128 0x3a
 13069 437d 01       		.uleb128 0x1
 13070 437e 50       		.byte	0x50
 13071 437f 05       		.uleb128 0x5
 13072 4380 03       		.byte	0x3
 13073 4381 70050000 		.4byte	.LC68
 13074 4385 3A       		.uleb128 0x3a
 13075 4386 01       		.uleb128 0x1
 13076 4387 51       		.byte	0x51
 13077 4388 02       		.uleb128 0x2
 13078 4389 75       		.byte	0x75
 13079 438a 00       		.sleb128 0
 13080 438b 00       		.byte	0
 13081 438c 39       		.uleb128 0x39
 13082 438d 02060000 		.4byte	.LVL140
 13083 4391 33660000 		.4byte	0x6633
 13084 4395 3A       		.uleb128 0x3a
 13085 4396 01       		.uleb128 0x1
 13086 4397 50       		.byte	0x50
 13087 4398 05       		.uleb128 0x5
 13088 4399 03       		.byte	0x3
 13089 439a 88050000 		.4byte	.LC69
 13090 439e 3A       		.uleb128 0x3a
 13091 439f 01       		.uleb128 0x1
 13092 43a0 51       		.byte	0x51
 13093 43a1 02       		.uleb128 0x2
 13094 43a2 74       		.byte	0x74
 13095 43a3 00       		.sleb128 0
 13096 43a4 00       		.byte	0
 13097 43a5 00       		.byte	0
 13098 43a6 48       		.uleb128 0x48
 13099 43a7 48000000 		.4byte	.Ldebug_ranges0+0x48
 13100 43ab 40450000 		.4byte	0x4540
 13101 43af 31       		.uleb128 0x31
 13102 43b0 F21F0000 		.4byte	.LASF489
 13103 43b4 01       		.byte	0x1
 13104 43b5 D5       		.byte	0xd5
 13105 43b6 25000000 		.4byte	0x25
 13106 43ba 03       		.uleb128 0x3
 13107 43bb 91       		.byte	0x91
 13108 43bc 847D     		.sleb128 -380
 13109 43be 31       		.uleb128 0x31
 13110 43bf 21270000 		.4byte	.LASF966
 13111 43c3 01       		.byte	0x1
 13112 43c4 D6       		.byte	0xd6
ARM GAS  /tmp/ccHCUo6g.s 			page 246


 13113 43c5 25000000 		.4byte	0x25
 13114 43c9 03       		.uleb128 0x3
 13115 43ca 91       		.byte	0x91
 13116 43cb 887D     		.sleb128 -376
 13117 43cd 31       		.uleb128 0x31
 13118 43ce 40140000 		.4byte	.LASF967
 13119 43d2 01       		.byte	0x1
 13120 43d3 D7       		.byte	0xd7
 13121 43d4 25000000 		.4byte	0x25
 13122 43d8 03       		.uleb128 0x3
 13123 43d9 91       		.byte	0x91
 13124 43da 8C7D     		.sleb128 -372
 13125 43dc 48       		.uleb128 0x48
 13126 43dd 60000000 		.4byte	.Ldebug_ranges0+0x60
 13127 43e1 E9440000 		.4byte	0x44e9
 13128 43e5 31       		.uleb128 0x31
 13129 43e6 39350000 		.4byte	.LASF968
 13130 43ea 01       		.byte	0x1
 13131 43eb E0       		.byte	0xe0
 13132 43ec 25000000 		.4byte	0x25
 13133 43f0 03       		.uleb128 0x3
 13134 43f1 91       		.byte	0x91
 13135 43f2 907D     		.sleb128 -368
 13136 43f4 31       		.uleb128 0x31
 13137 43f5 C32B0000 		.4byte	.LASF969
 13138 43f9 01       		.byte	0x1
 13139 43fa E1       		.byte	0xe1
 13140 43fb 25000000 		.4byte	0x25
 13141 43ff 03       		.uleb128 0x3
 13142 4400 91       		.byte	0x91
 13143 4401 947D     		.sleb128 -364
 13144 4403 31       		.uleb128 0x31
 13145 4404 881C0000 		.4byte	.LASF326
 13146 4408 01       		.byte	0x1
 13147 4409 E2       		.byte	0xe2
 13148 440a B6180000 		.4byte	0x18b6
 13149 440e 03       		.uleb128 0x3
 13150 440f 91       		.byte	0x91
 13151 4410 9C7D     		.sleb128 -356
 13152 4412 31       		.uleb128 0x31
 13153 4413 AB150000 		.4byte	.LASF970
 13154 4417 01       		.byte	0x1
 13155 4418 E3       		.byte	0xe3
 13156 4419 2C000000 		.4byte	0x2c
 13157 441d 03       		.uleb128 0x3
 13158 441e 91       		.byte	0x91
 13159 441f 987D     		.sleb128 -360
 13160 4421 41       		.uleb128 0x41
 13161 4422 48070000 		.4byte	.LVL145
 13162 4426 80660000 		.4byte	0x6680
 13163 442a 4B440000 		.4byte	0x444b
 13164 442e 3A       		.uleb128 0x3a
 13165 442f 01       		.uleb128 0x1
 13166 4430 50       		.byte	0x50
 13167 4431 03       		.uleb128 0x3
 13168 4432 91       		.byte	0x91
 13169 4433 907D     		.sleb128 -368
ARM GAS  /tmp/ccHCUo6g.s 			page 247


 13170 4435 3A       		.uleb128 0x3a
 13171 4436 01       		.uleb128 0x1
 13172 4437 51       		.byte	0x51
 13173 4438 03       		.uleb128 0x3
 13174 4439 91       		.byte	0x91
 13175 443a 947D     		.sleb128 -364
 13176 443c 3A       		.uleb128 0x3a
 13177 443d 01       		.uleb128 0x1
 13178 443e 52       		.byte	0x52
 13179 443f 03       		.uleb128 0x3
 13180 4440 91       		.byte	0x91
 13181 4441 9C7D     		.sleb128 -356
 13182 4443 3A       		.uleb128 0x3a
 13183 4444 01       		.uleb128 0x1
 13184 4445 53       		.byte	0x53
 13185 4446 03       		.uleb128 0x3
 13186 4447 91       		.byte	0x91
 13187 4448 987D     		.sleb128 -360
 13188 444a 00       		.byte	0
 13189 444b 41       		.uleb128 0x41
 13190 444c 5E070000 		.4byte	.LVL147
 13191 4450 33660000 		.4byte	0x6633
 13192 4454 62440000 		.4byte	0x4462
 13193 4458 3A       		.uleb128 0x3a
 13194 4459 01       		.uleb128 0x1
 13195 445a 50       		.byte	0x50
 13196 445b 05       		.uleb128 0x5
 13197 445c 03       		.byte	0x3
 13198 445d D0050000 		.4byte	.LC73
 13199 4461 00       		.byte	0
 13200 4462 41       		.uleb128 0x41
 13201 4463 6E070000 		.4byte	.LVL149
 13202 4467 33660000 		.4byte	0x6633
 13203 446b 79440000 		.4byte	0x4479
 13204 446f 3A       		.uleb128 0x3a
 13205 4470 01       		.uleb128 0x1
 13206 4471 50       		.byte	0x50
 13207 4472 05       		.uleb128 0x5
 13208 4473 03       		.byte	0x3
 13209 4474 F0050000 		.4byte	.LC74
 13210 4478 00       		.byte	0
 13211 4479 41       		.uleb128 0x41
 13212 447a 8E070000 		.4byte	.LVL150
 13213 447e 33660000 		.4byte	0x6633
 13214 4482 90440000 		.4byte	0x4490
 13215 4486 3A       		.uleb128 0x3a
 13216 4487 01       		.uleb128 0x1
 13217 4488 50       		.byte	0x50
 13218 4489 05       		.uleb128 0x5
 13219 448a 03       		.byte	0x3
 13220 448b 94060000 		.4byte	.LC79
 13221 448f 00       		.byte	0
 13222 4490 41       		.uleb128 0x41
 13223 4491 8C0B0000 		.4byte	.LVL227
 13224 4495 33660000 		.4byte	0x6633
 13225 4499 A7440000 		.4byte	0x44a7
 13226 449d 3A       		.uleb128 0x3a
ARM GAS  /tmp/ccHCUo6g.s 			page 248


 13227 449e 01       		.uleb128 0x1
 13228 449f 50       		.byte	0x50
 13229 44a0 05       		.uleb128 0x5
 13230 44a1 03       		.byte	0x3
 13231 44a2 64060000 		.4byte	.LC78
 13232 44a6 00       		.byte	0
 13233 44a7 42       		.uleb128 0x42
 13234 44a8 960B0000 		.4byte	.LVL228
 13235 44ac 33660000 		.4byte	0x6633
 13236 44b0 41       		.uleb128 0x41
 13237 44b1 C60B0000 		.4byte	.LVL230
 13238 44b5 33660000 		.4byte	0x6633
 13239 44b9 D5440000 		.4byte	0x44d5
 13240 44bd 3A       		.uleb128 0x3a
 13241 44be 01       		.uleb128 0x1
 13242 44bf 50       		.byte	0x50
 13243 44c0 05       		.uleb128 0x5
 13244 44c1 03       		.byte	0x3
 13245 44c2 24060000 		.4byte	.LC76
 13246 44c6 3A       		.uleb128 0x3a
 13247 44c7 02       		.uleb128 0x2
 13248 44c8 7D       		.byte	0x7d
 13249 44c9 04       		.sleb128 4
 13250 44ca 02       		.uleb128 0x2
 13251 44cb 74       		.byte	0x74
 13252 44cc 00       		.sleb128 0
 13253 44cd 3A       		.uleb128 0x3a
 13254 44ce 02       		.uleb128 0x2
 13255 44cf 7D       		.byte	0x7d
 13256 44d0 08       		.sleb128 8
 13257 44d1 02       		.uleb128 0x2
 13258 44d2 75       		.byte	0x75
 13259 44d3 00       		.sleb128 0
 13260 44d4 00       		.byte	0
 13261 44d5 39       		.uleb128 0x39
 13262 44d6 D00B0000 		.4byte	.LVL232
 13263 44da 33660000 		.4byte	0x6633
 13264 44de 3A       		.uleb128 0x3a
 13265 44df 01       		.uleb128 0x1
 13266 44e0 50       		.byte	0x50
 13267 44e1 05       		.uleb128 0x5
 13268 44e2 03       		.byte	0x3
 13269 44e3 C4060000 		.4byte	.LC80
 13270 44e7 00       		.byte	0
 13271 44e8 00       		.byte	0
 13272 44e9 41       		.uleb128 0x41
 13273 44ea BE060000 		.4byte	.LVL142
 13274 44ee 1D660000 		.4byte	0x661d
 13275 44f2 07450000 		.4byte	0x4507
 13276 44f6 3A       		.uleb128 0x3a
 13277 44f7 01       		.uleb128 0x1
 13278 44f8 51       		.byte	0x51
 13279 44f9 05       		.uleb128 0x5
 13280 44fa 03       		.byte	0x3
 13281 44fb 50000000 		.4byte	.LC9
 13282 44ff 3A       		.uleb128 0x3a
 13283 4500 01       		.uleb128 0x1
ARM GAS  /tmp/ccHCUo6g.s 			page 249


 13284 4501 52       		.byte	0x52
 13285 4502 03       		.uleb128 0x3
 13286 4503 91       		.byte	0x91
 13287 4504 847D     		.sleb128 -380
 13288 4506 00       		.byte	0
 13289 4507 41       		.uleb128 0x41
 13290 4508 C8060000 		.4byte	.LVL143
 13291 450c 1D660000 		.4byte	0x661d
 13292 4510 25450000 		.4byte	0x4525
 13293 4514 3A       		.uleb128 0x3a
 13294 4515 01       		.uleb128 0x1
 13295 4516 51       		.byte	0x51
 13296 4517 05       		.uleb128 0x5
 13297 4518 03       		.byte	0x3
 13298 4519 50000000 		.4byte	.LC9
 13299 451d 3A       		.uleb128 0x3a
 13300 451e 01       		.uleb128 0x1
 13301 451f 52       		.byte	0x52
 13302 4520 03       		.uleb128 0x3
 13303 4521 91       		.byte	0x91
 13304 4522 887D     		.sleb128 -376
 13305 4524 00       		.byte	0
 13306 4525 39       		.uleb128 0x39
 13307 4526 D2060000 		.4byte	.LVL144
 13308 452a 1D660000 		.4byte	0x661d
 13309 452e 3A       		.uleb128 0x3a
 13310 452f 01       		.uleb128 0x1
 13311 4530 51       		.byte	0x51
 13312 4531 05       		.uleb128 0x5
 13313 4532 03       		.byte	0x3
 13314 4533 50000000 		.4byte	.LC9
 13315 4537 3A       		.uleb128 0x3a
 13316 4538 01       		.uleb128 0x1
 13317 4539 52       		.byte	0x52
 13318 453a 03       		.uleb128 0x3
 13319 453b 91       		.byte	0x91
 13320 453c 8C7D     		.sleb128 -372
 13321 453e 00       		.byte	0
 13322 453f 00       		.byte	0
 13323 4540 40       		.uleb128 0x40
 13324 4541 540A0000 		.4byte	.LBB130
 13325 4545 36000000 		.4byte	.LBE130-.LBB130
 13326 4549 B4450000 		.4byte	0x45b4
 13327 454d 49       		.uleb128 0x49
 13328 454e 3D180000 		.4byte	.LASF971
 13329 4552 01       		.byte	0x1
 13330 4553 0101     		.2byte	0x101
 13331 4555 3E120000 		.4byte	0x123e
 13332 4559 03       		.uleb128 0x3
 13333 455a 91       		.byte	0x91
 13334 455b 9C7D     		.sleb128 -356
 13335 455d 41       		.uleb128 0x41
 13336 455e 5A0A0000 		.4byte	.LVL204
 13337 4562 8C660000 		.4byte	0x668c
 13338 4566 72450000 		.4byte	0x4572
 13339 456a 3A       		.uleb128 0x3a
 13340 456b 01       		.uleb128 0x1
ARM GAS  /tmp/ccHCUo6g.s 			page 250


 13341 456c 50       		.byte	0x50
 13342 456d 03       		.uleb128 0x3
 13343 456e 91       		.byte	0x91
 13344 456f 9C7D     		.sleb128 -356
 13345 4571 00       		.byte	0
 13346 4572 41       		.uleb128 0x41
 13347 4573 6A0A0000 		.4byte	.LVL206
 13348 4577 33660000 		.4byte	0x6633
 13349 457b 89450000 		.4byte	0x4589
 13350 457f 3A       		.uleb128 0x3a
 13351 4580 01       		.uleb128 0x1
 13352 4581 50       		.byte	0x50
 13353 4582 05       		.uleb128 0x5
 13354 4583 03       		.byte	0x3
 13355 4584 2C070000 		.4byte	.LC83
 13356 4588 00       		.byte	0
 13357 4589 41       		.uleb128 0x41
 13358 458a 7A0A0000 		.4byte	.LVL208
 13359 458e 33660000 		.4byte	0x6633
 13360 4592 A0450000 		.4byte	0x45a0
 13361 4596 3A       		.uleb128 0x3a
 13362 4597 01       		.uleb128 0x1
 13363 4598 50       		.byte	0x50
 13364 4599 05       		.uleb128 0x5
 13365 459a 03       		.byte	0x3
 13366 459b 44070000 		.4byte	.LC84
 13367 459f 00       		.byte	0
 13368 45a0 39       		.uleb128 0x39
 13369 45a1 8A0A0000 		.4byte	.LVL210
 13370 45a5 33660000 		.4byte	0x6633
 13371 45a9 3A       		.uleb128 0x3a
 13372 45aa 01       		.uleb128 0x1
 13373 45ab 50       		.byte	0x50
 13374 45ac 05       		.uleb128 0x5
 13375 45ad 03       		.byte	0x3
 13376 45ae 64070000 		.4byte	.LC85
 13377 45b2 00       		.byte	0
 13378 45b3 00       		.byte	0
 13379 45b4 48       		.uleb128 0x48
 13380 45b5 98000000 		.4byte	.Ldebug_ranges0+0x98
 13381 45b9 D5460000 		.4byte	0x46d5
 13382 45bd 35       		.uleb128 0x35
 13383 45be 6900     		.ascii	"i\000"
 13384 45c0 01       		.byte	0x1
 13385 45c1 0701     		.2byte	0x107
 13386 45c3 2C000000 		.4byte	0x2c
 13387 45c7 C6030000 		.4byte	.LLST16
 13388 45cb 34       		.uleb128 0x34
 13389 45cc B0000000 		.4byte	.Ldebug_ranges0+0xb0
 13390 45d0 35       		.uleb128 0x35
 13391 45d1 6D736700 		.ascii	"msg\000"
 13392 45d5 01       		.byte	0x1
 13393 45d6 0801     		.2byte	0x108
 13394 45d8 66650000 		.4byte	0x6566
 13395 45dc F2030000 		.4byte	.LLST17
 13396 45e0 4A       		.uleb128 0x4a
 13397 45e1 7C650000 		.4byte	0x657c
ARM GAS  /tmp/ccHCUo6g.s 			page 251


 13398 45e5 3A090000 		.4byte	.LBB113
 13399 45e9 D0000000 		.4byte	.Ldebug_ranges0+0xd0
 13400 45ed 01       		.byte	0x1
 13401 45ee 0A01     		.2byte	0x10a
 13402 45f0 0E460000 		.4byte	0x460e
 13403 45f4 4B       		.uleb128 0x4b
 13404 45f5 8D650000 		.4byte	0x658d
 13405 45f9 1B040000 		.4byte	.LLST18
 13406 45fd 4C       		.uleb128 0x4c
 13407 45fe 9A650000 		.4byte	0x659a
 13408 4602 3A090000 		.4byte	.LBB115
 13409 4606 E8000000 		.4byte	.Ldebug_ranges0+0xe8
 13410 460a 02       		.byte	0x2
 13411 460b 0B01     		.2byte	0x10b
 13412 460d 00       		.byte	0
 13413 460e 4A       		.uleb128 0x4a
 13414 460f 7C650000 		.4byte	0x657c
 13415 4613 F6090000 		.4byte	.LBB121
 13416 4617 00010000 		.4byte	.Ldebug_ranges0+0x100
 13417 461b 01       		.byte	0x1
 13418 461c 0D01     		.2byte	0x10d
 13419 461e 3C460000 		.4byte	0x463c
 13420 4622 4B       		.uleb128 0x4b
 13421 4623 8D650000 		.4byte	0x658d
 13422 4627 2F040000 		.4byte	.LLST19
 13423 462b 46       		.uleb128 0x46
 13424 462c 9A650000 		.4byte	0x659a
 13425 4630 F8090000 		.4byte	.LBB123
 13426 4634 02000000 		.4byte	.LBE123-.LBB123
 13427 4638 02       		.byte	0x2
 13428 4639 0B01     		.2byte	0x10b
 13429 463b 00       		.byte	0
 13430 463c 41       		.uleb128 0x41
 13431 463d BC090000 		.4byte	.LVL187
 13432 4641 97660000 		.4byte	0x6697
 13433 4645 50460000 		.4byte	0x4650
 13434 4649 3A       		.uleb128 0x3a
 13435 464a 01       		.uleb128 0x1
 13436 464b 50       		.byte	0x50
 13437 464c 02       		.uleb128 0x2
 13438 464d 76       		.byte	0x76
 13439 464e 00       		.sleb128 0
 13440 464f 00       		.byte	0
 13441 4650 41       		.uleb128 0x41
 13442 4651 EE090000 		.4byte	.LVL192
 13443 4655 33660000 		.4byte	0x6633
 13444 4659 64460000 		.4byte	0x4664
 13445 465d 3A       		.uleb128 0x3a
 13446 465e 01       		.uleb128 0x1
 13447 465f 50       		.byte	0x50
 13448 4660 02       		.uleb128 0x2
 13449 4661 77       		.byte	0x77
 13450 4662 00       		.sleb128 0
 13451 4663 00       		.byte	0
 13452 4664 41       		.uleb128 0x41
 13453 4665 F6090000 		.4byte	.LVL193
 13454 4669 33660000 		.4byte	0x6633
ARM GAS  /tmp/ccHCUo6g.s 			page 252


 13455 466d 7B460000 		.4byte	0x467b
 13456 4671 3A       		.uleb128 0x3a
 13457 4672 01       		.uleb128 0x1
 13458 4673 50       		.byte	0x50
 13459 4674 05       		.uleb128 0x5
 13460 4675 03       		.byte	0x3
 13461 4676 D4070000 		.4byte	.LC89
 13462 467a 00       		.byte	0
 13463 467b 41       		.uleb128 0x41
 13464 467c 220A0000 		.4byte	.LVL196
 13465 4680 33660000 		.4byte	0x6633
 13466 4684 92460000 		.4byte	0x4692
 13467 4688 3A       		.uleb128 0x3a
 13468 4689 01       		.uleb128 0x1
 13469 468a 50       		.byte	0x50
 13470 468b 05       		.uleb128 0x5
 13471 468c 03       		.byte	0x3
 13472 468d EC070000 		.4byte	.LC90
 13473 4691 00       		.byte	0
 13474 4692 41       		.uleb128 0x41
 13475 4693 320A0000 		.4byte	.LVL198
 13476 4697 33660000 		.4byte	0x6633
 13477 469b A9460000 		.4byte	0x46a9
 13478 469f 3A       		.uleb128 0x3a
 13479 46a0 01       		.uleb128 0x1
 13480 46a1 50       		.byte	0x50
 13481 46a2 05       		.uleb128 0x5
 13482 46a3 03       		.byte	0x3
 13483 46a4 08080000 		.4byte	.LC91
 13484 46a8 00       		.byte	0
 13485 46a9 41       		.uleb128 0x41
 13486 46aa 420A0000 		.4byte	.LVL200
 13487 46ae 33660000 		.4byte	0x6633
 13488 46b2 C0460000 		.4byte	0x46c0
 13489 46b6 3A       		.uleb128 0x3a
 13490 46b7 01       		.uleb128 0x1
 13491 46b8 50       		.byte	0x50
 13492 46b9 05       		.uleb128 0x5
 13493 46ba 03       		.byte	0x3
 13494 46bb 24080000 		.4byte	.LC92
 13495 46bf 00       		.byte	0
 13496 46c0 39       		.uleb128 0x39
 13497 46c1 520A0000 		.4byte	.LVL202
 13498 46c5 33660000 		.4byte	0x6633
 13499 46c9 3A       		.uleb128 0x3a
 13500 46ca 01       		.uleb128 0x1
 13501 46cb 50       		.byte	0x50
 13502 46cc 05       		.uleb128 0x5
 13503 46cd 03       		.byte	0x3
 13504 46ce 40080000 		.4byte	.LC93
 13505 46d2 00       		.byte	0
 13506 46d3 00       		.byte	0
 13507 46d4 00       		.byte	0
 13508 46d5 48       		.uleb128 0x48
 13509 46d6 80000000 		.4byte	.Ldebug_ranges0+0x80
 13510 46da 07480000 		.4byte	0x4807
 13511 46de 49       		.uleb128 0x49
ARM GAS  /tmp/ccHCUo6g.s 			page 253


 13512 46df F21F0000 		.4byte	.LASF489
 13513 46e3 01       		.byte	0x1
 13514 46e4 1501     		.2byte	0x115
 13515 46e6 25000000 		.4byte	0x25
 13516 46ea 03       		.uleb128 0x3
 13517 46eb 91       		.byte	0x91
 13518 46ec 947D     		.sleb128 -364
 13519 46ee 40       		.uleb128 0x40
 13520 46ef CA070000 		.4byte	.LBB106
 13521 46f3 66000000 		.4byte	.LBE106-.LBB106
 13522 46f7 CD470000 		.4byte	0x47cd
 13523 46fb 38       		.uleb128 0x38
 13524 46fc 8D030000 		.4byte	.LASF972
 13525 4700 01       		.byte	0x1
 13526 4701 1A01     		.2byte	0x11a
 13527 4703 E6100000 		.4byte	0x10e6
 13528 4707 43040000 		.4byte	.LLST14
 13529 470b 49       		.uleb128 0x49
 13530 470c 06300000 		.4byte	.LASF148
 13531 4710 01       		.byte	0x1
 13532 4711 1E01     		.2byte	0x11e
 13533 4713 25000000 		.4byte	0x25
 13534 4717 03       		.uleb128 0x3
 13535 4718 91       		.byte	0x91
 13536 4719 987D     		.sleb128 -360
 13537 471b 49       		.uleb128 0x49
 13538 471c D92A0000 		.4byte	.LASF973
 13539 4720 01       		.byte	0x1
 13540 4721 1F01     		.2byte	0x11f
 13541 4723 25000000 		.4byte	0x25
 13542 4727 03       		.uleb128 0x3
 13543 4728 91       		.byte	0x91
 13544 4729 9C7D     		.sleb128 -356
 13545 472b 49       		.uleb128 0x49
 13546 472c 8E350000 		.4byte	.LASF974
 13547 4730 01       		.byte	0x1
 13548 4731 2001     		.2byte	0x120
 13549 4733 AF180000 		.4byte	0x18af
 13550 4737 03       		.uleb128 0x3
 13551 4738 91       		.byte	0x91
 13552 4739 907D     		.sleb128 -368
 13553 473b 41       		.uleb128 0x41
 13554 473c D8070000 		.4byte	.LVL155
 13555 4740 A2660000 		.4byte	0x66a2
 13556 4744 4F470000 		.4byte	0x474f
 13557 4748 3A       		.uleb128 0x3a
 13558 4749 01       		.uleb128 0x1
 13559 474a 50       		.byte	0x50
 13560 474b 02       		.uleb128 0x2
 13561 474c 74       		.byte	0x74
 13562 474d 00       		.sleb128 0
 13563 474e 00       		.byte	0
 13564 474f 41       		.uleb128 0x41
 13565 4750 F2070000 		.4byte	.LVL156
 13566 4754 AD660000 		.4byte	0x66ad
 13567 4758 77470000 		.4byte	0x4777
 13568 475c 3A       		.uleb128 0x3a
ARM GAS  /tmp/ccHCUo6g.s 			page 254


 13569 475d 01       		.uleb128 0x1
 13570 475e 50       		.byte	0x50
 13571 475f 01       		.uleb128 0x1
 13572 4760 31       		.byte	0x31
 13573 4761 3A       		.uleb128 0x3a
 13574 4762 01       		.uleb128 0x1
 13575 4763 51       		.byte	0x51
 13576 4764 03       		.uleb128 0x3
 13577 4765 91       		.byte	0x91
 13578 4766 987D     		.sleb128 -360
 13579 4768 3A       		.uleb128 0x3a
 13580 4769 01       		.uleb128 0x1
 13581 476a 52       		.byte	0x52
 13582 476b 03       		.uleb128 0x3
 13583 476c 91       		.byte	0x91
 13584 476d 9C7D     		.sleb128 -356
 13585 476f 3A       		.uleb128 0x3a
 13586 4770 01       		.uleb128 0x1
 13587 4771 53       		.byte	0x53
 13588 4772 03       		.uleb128 0x3
 13589 4773 91       		.byte	0x91
 13590 4774 907D     		.sleb128 -368
 13591 4776 00       		.byte	0
 13592 4777 41       		.uleb128 0x41
 13593 4778 FA070000 		.4byte	.LVL157
 13594 477c A2660000 		.4byte	0x66a2
 13595 4780 8B470000 		.4byte	0x478b
 13596 4784 3A       		.uleb128 0x3a
 13597 4785 01       		.uleb128 0x1
 13598 4786 50       		.byte	0x50
 13599 4787 02       		.uleb128 0x2
 13600 4788 74       		.byte	0x74
 13601 4789 00       		.sleb128 0
 13602 478a 00       		.byte	0
 13603 478b 41       		.uleb128 0x41
 13604 478c 0A080000 		.4byte	.LVL159
 13605 4790 33660000 		.4byte	0x6633
 13606 4794 A2470000 		.4byte	0x47a2
 13607 4798 3A       		.uleb128 0x3a
 13608 4799 01       		.uleb128 0x1
 13609 479a 50       		.byte	0x50
 13610 479b 05       		.uleb128 0x5
 13611 479c 03       		.byte	0x3
 13612 479d 70080000 		.4byte	.LC95
 13613 47a1 00       		.byte	0
 13614 47a2 41       		.uleb128 0x41
 13615 47a3 1A080000 		.4byte	.LVL161
 13616 47a7 33660000 		.4byte	0x6633
 13617 47ab B9470000 		.4byte	0x47b9
 13618 47af 3A       		.uleb128 0x3a
 13619 47b0 01       		.uleb128 0x1
 13620 47b1 50       		.byte	0x50
 13621 47b2 05       		.uleb128 0x5
 13622 47b3 03       		.byte	0x3
 13623 47b4 80080000 		.4byte	.LC96
 13624 47b8 00       		.byte	0
 13625 47b9 39       		.uleb128 0x39
ARM GAS  /tmp/ccHCUo6g.s 			page 255


 13626 47ba 30080000 		.4byte	.LVL162
 13627 47be 33660000 		.4byte	0x6633
 13628 47c2 3A       		.uleb128 0x3a
 13629 47c3 01       		.uleb128 0x1
 13630 47c4 50       		.byte	0x50
 13631 47c5 05       		.uleb128 0x5
 13632 47c6 03       		.byte	0x3
 13633 47c7 90080000 		.4byte	.LC97
 13634 47cb 00       		.byte	0
 13635 47cc 00       		.byte	0
 13636 47cd 41       		.uleb128 0x41
 13637 47ce A0070000 		.4byte	.LVL151
 13638 47d2 1D660000 		.4byte	0x661d
 13639 47d6 EA470000 		.4byte	0x47ea
 13640 47da 3A       		.uleb128 0x3a
 13641 47db 01       		.uleb128 0x1
 13642 47dc 51       		.byte	0x51
 13643 47dd 05       		.uleb128 0x5
 13644 47de 03       		.byte	0x3
 13645 47df 50000000 		.4byte	.LC9
 13646 47e3 3A       		.uleb128 0x3a
 13647 47e4 01       		.uleb128 0x1
 13648 47e5 52       		.byte	0x52
 13649 47e6 02       		.uleb128 0x2
 13650 47e7 76       		.byte	0x76
 13651 47e8 00       		.sleb128 0
 13652 47e9 00       		.byte	0
 13653 47ea 42       		.uleb128 0x42
 13654 47eb C6070000 		.4byte	.LVL153
 13655 47ef B8660000 		.4byte	0x66b8
 13656 47f3 39       		.uleb128 0x39
 13657 47f4 AC080000 		.4byte	.LVL172
 13658 47f8 33660000 		.4byte	0x6633
 13659 47fc 3A       		.uleb128 0x3a
 13660 47fd 01       		.uleb128 0x1
 13661 47fe 50       		.byte	0x50
 13662 47ff 05       		.uleb128 0x5
 13663 4800 03       		.byte	0x3
 13664 4801 A0080000 		.4byte	.LC98
 13665 4805 00       		.byte	0
 13666 4806 00       		.byte	0
 13667 4807 40       		.uleb128 0x40
 13668 4808 44080000 		.4byte	.LBB107
 13669 480c 62000000 		.4byte	.LBE107-.LBB107
 13670 4810 98480000 		.4byte	0x4898
 13671 4814 49       		.uleb128 0x49
 13672 4815 F21F0000 		.4byte	.LASF489
 13673 4819 01       		.byte	0x1
 13674 481a 3401     		.2byte	0x134
 13675 481c 25000000 		.4byte	0x25
 13676 4820 03       		.uleb128 0x3
 13677 4821 91       		.byte	0x91
 13678 4822 9C7D     		.sleb128 -356
 13679 4824 41       		.uleb128 0x41
 13680 4825 54080000 		.4byte	.LVL165
 13681 4829 1D660000 		.4byte	0x661d
 13682 482d 41480000 		.4byte	0x4841
ARM GAS  /tmp/ccHCUo6g.s 			page 256


 13683 4831 3A       		.uleb128 0x3a
 13684 4832 01       		.uleb128 0x1
 13685 4833 51       		.byte	0x51
 13686 4834 05       		.uleb128 0x5
 13687 4835 03       		.byte	0x3
 13688 4836 50000000 		.4byte	.LC9
 13689 483a 3A       		.uleb128 0x3a
 13690 483b 01       		.uleb128 0x1
 13691 483c 52       		.byte	0x52
 13692 483d 02       		.uleb128 0x2
 13693 483e 75       		.byte	0x75
 13694 483f 00       		.sleb128 0
 13695 4840 00       		.byte	0
 13696 4841 41       		.uleb128 0x41
 13697 4842 80080000 		.4byte	.LVL166
 13698 4846 A2660000 		.4byte	0x66a2
 13699 484a 58480000 		.4byte	0x4858
 13700 484e 3A       		.uleb128 0x3a
 13701 484f 01       		.uleb128 0x1
 13702 4850 50       		.byte	0x50
 13703 4851 05       		.uleb128 0x5
 13704 4852 03       		.byte	0x3
 13705 4853 00000000 		.4byte	.LANCHOR0
 13706 4857 00       		.byte	0
 13707 4858 41       		.uleb128 0x41
 13708 4859 8C080000 		.4byte	.LVL167
 13709 485d C3660000 		.4byte	0x66c3
 13710 4861 6D480000 		.4byte	0x486d
 13711 4865 3A       		.uleb128 0x3a
 13712 4866 01       		.uleb128 0x1
 13713 4867 50       		.byte	0x50
 13714 4868 03       		.uleb128 0x3
 13715 4869 0A       		.byte	0xa
 13716 486a D007     		.2byte	0x7d0
 13717 486c 00       		.byte	0
 13718 486d 41       		.uleb128 0x41
 13719 486e 9E080000 		.4byte	.LVL169
 13720 4872 33660000 		.4byte	0x6633
 13721 4876 84480000 		.4byte	0x4884
 13722 487a 3A       		.uleb128 0x3a
 13723 487b 01       		.uleb128 0x1
 13724 487c 50       		.byte	0x50
 13725 487d 05       		.uleb128 0x5
 13726 487e 03       		.byte	0x3
 13727 487f EC080000 		.4byte	.LC101
 13728 4883 00       		.byte	0
 13729 4884 39       		.uleb128 0x39
 13730 4885 A4080000 		.4byte	.LVL170
 13731 4889 A2660000 		.4byte	0x66a2
 13732 488d 3A       		.uleb128 0x3a
 13733 488e 01       		.uleb128 0x1
 13734 488f 50       		.byte	0x50
 13735 4890 05       		.uleb128 0x5
 13736 4891 03       		.byte	0x3
 13737 4892 00000000 		.4byte	.LANCHOR1
 13738 4896 00       		.byte	0
 13739 4897 00       		.byte	0
ARM GAS  /tmp/ccHCUo6g.s 			page 257


 13740 4898 40       		.uleb128 0x40
 13741 4899 C2080000 		.4byte	.LBB109
 13742 489d 76000000 		.4byte	.LBE109-.LBB109
 13743 48a1 5A490000 		.4byte	0x495a
 13744 48a5 49       		.uleb128 0x49
 13745 48a6 28290000 		.4byte	.LASF498
 13746 48aa 01       		.byte	0x1
 13747 48ab 4601     		.2byte	0x146
 13748 48ad 25000000 		.4byte	0x25
 13749 48b1 03       		.uleb128 0x3
 13750 48b2 91       		.byte	0x91
 13751 48b3 987D     		.sleb128 -360
 13752 48b5 40       		.uleb128 0x40
 13753 48b6 F0080000 		.4byte	.LBB110
 13754 48ba 44000000 		.4byte	.LBE110-.LBB110
 13755 48be 3F490000 		.4byte	0x493f
 13756 48c2 49       		.uleb128 0x49
 13757 48c3 7D0B0000 		.4byte	.LASF975
 13758 48c7 01       		.byte	0x1
 13759 48c8 4E01     		.2byte	0x14e
 13760 48ca 25000000 		.4byte	0x25
 13761 48ce 03       		.uleb128 0x3
 13762 48cf 91       		.byte	0x91
 13763 48d0 9C7D     		.sleb128 -356
 13764 48d2 35       		.uleb128 0x35
 13765 48d3 696E6400 		.ascii	"ind\000"
 13766 48d7 01       		.byte	0x1
 13767 48d8 4F01     		.2byte	0x14f
 13768 48da 25000000 		.4byte	0x25
 13769 48de 56040000 		.4byte	.LLST15
 13770 48e2 41       		.uleb128 0x41
 13771 48e3 02090000 		.4byte	.LVL176
 13772 48e7 A2660000 		.4byte	0x66a2
 13773 48eb F9480000 		.4byte	0x48f9
 13774 48ef 3A       		.uleb128 0x3a
 13775 48f0 01       		.uleb128 0x1
 13776 48f1 50       		.byte	0x50
 13777 48f2 05       		.uleb128 0x5
 13778 48f3 03       		.byte	0x3
 13779 48f4 00000000 		.4byte	.LANCHOR0
 13780 48f8 00       		.byte	0
 13781 48f9 41       		.uleb128 0x41
 13782 48fa 0E090000 		.4byte	.LVL177
 13783 48fe CE660000 		.4byte	0x66ce
 13784 4902 14490000 		.4byte	0x4914
 13785 4906 3A       		.uleb128 0x3a
 13786 4907 01       		.uleb128 0x1
 13787 4908 50       		.byte	0x50
 13788 4909 02       		.uleb128 0x2
 13789 490a 08       		.byte	0x8
 13790 490b C8       		.byte	0xc8
 13791 490c 3A       		.uleb128 0x3a
 13792 490d 01       		.uleb128 0x1
 13793 490e 51       		.byte	0x51
 13794 490f 03       		.uleb128 0x3
 13795 4910 91       		.byte	0x91
 13796 4911 9C7D     		.sleb128 -356
ARM GAS  /tmp/ccHCUo6g.s 			page 258


 13797 4913 00       		.byte	0
 13798 4914 41       		.uleb128 0x41
 13799 4915 2E090000 		.4byte	.LVL181
 13800 4919 33660000 		.4byte	0x6633
 13801 491d 2B490000 		.4byte	0x492b
 13802 4921 3A       		.uleb128 0x3a
 13803 4922 01       		.uleb128 0x1
 13804 4923 50       		.byte	0x50
 13805 4924 05       		.uleb128 0x5
 13806 4925 03       		.byte	0x3
 13807 4926 10090000 		.4byte	.LC103
 13808 492a 00       		.byte	0
 13809 492b 39       		.uleb128 0x39
 13810 492c 34090000 		.4byte	.LVL182
 13811 4930 A2660000 		.4byte	0x66a2
 13812 4934 3A       		.uleb128 0x3a
 13813 4935 01       		.uleb128 0x1
 13814 4936 50       		.byte	0x50
 13815 4937 05       		.uleb128 0x5
 13816 4938 03       		.byte	0x3
 13817 4939 00000000 		.4byte	.LANCHOR1
 13818 493d 00       		.byte	0
 13819 493e 00       		.byte	0
 13820 493f 39       		.uleb128 0x39
 13821 4940 D0080000 		.4byte	.LVL175
 13822 4944 1D660000 		.4byte	0x661d
 13823 4948 3A       		.uleb128 0x3a
 13824 4949 01       		.uleb128 0x1
 13825 494a 51       		.byte	0x51
 13826 494b 05       		.uleb128 0x5
 13827 494c 03       		.byte	0x3
 13828 494d 50000000 		.4byte	.LC9
 13829 4951 3A       		.uleb128 0x3a
 13830 4952 01       		.uleb128 0x1
 13831 4953 52       		.byte	0x52
 13832 4954 03       		.uleb128 0x3
 13833 4955 91       		.byte	0x91
 13834 4956 987D     		.sleb128 -360
 13835 4958 00       		.byte	0
 13836 4959 00       		.byte	0
 13837 495a 40       		.uleb128 0x40
 13838 495b A20A0000 		.4byte	.LBB131
 13839 495f E4000000 		.4byte	.LBE131-.LBB131
 13840 4963 894A0000 		.4byte	0x4a89
 13841 4967 49       		.uleb128 0x49
 13842 4968 28290000 		.4byte	.LASF498
 13843 496c 01       		.byte	0x1
 13844 496d 5B01     		.2byte	0x15b
 13845 496f 25000000 		.4byte	0x25
 13846 4973 03       		.uleb128 0x3
 13847 4974 91       		.byte	0x91
 13848 4975 887D     		.sleb128 -376
 13849 4977 49       		.uleb128 0x49
 13850 4978 6F2B0000 		.4byte	.LASF976
 13851 497c 01       		.byte	0x1
 13852 497d 5C01     		.2byte	0x15c
 13853 497f 25000000 		.4byte	0x25
ARM GAS  /tmp/ccHCUo6g.s 			page 259


 13854 4983 03       		.uleb128 0x3
 13855 4984 91       		.byte	0x91
 13856 4985 8C7D     		.sleb128 -372
 13857 4987 49       		.uleb128 0x49
 13858 4988 D4070000 		.4byte	.LASF977
 13859 498c 01       		.byte	0x1
 13860 498d 5D01     		.2byte	0x15d
 13861 498f 25000000 		.4byte	0x25
 13862 4993 03       		.uleb128 0x3
 13863 4994 91       		.byte	0x91
 13864 4995 907D     		.sleb128 -368
 13865 4997 40       		.uleb128 0x40
 13866 4998 080B0000 		.4byte	.LBB132
 13867 499c 7A000000 		.4byte	.LBE132-.LBB132
 13868 49a0 324A0000 		.4byte	0x4a32
 13869 49a4 49       		.uleb128 0x49
 13870 49a5 7D0B0000 		.4byte	.LASF975
 13871 49a9 01       		.byte	0x1
 13872 49aa 6901     		.2byte	0x169
 13873 49ac 25000000 		.4byte	0x25
 13874 49b0 03       		.uleb128 0x3
 13875 49b1 91       		.byte	0x91
 13876 49b2 947D     		.sleb128 -364
 13877 49b4 49       		.uleb128 0x49
 13878 49b5 79050000 		.4byte	.LASF978
 13879 49b9 01       		.byte	0x1
 13880 49ba 6A01     		.2byte	0x16a
 13881 49bc 25000000 		.4byte	0x25
 13882 49c0 03       		.uleb128 0x3
 13883 49c1 91       		.byte	0x91
 13884 49c2 987D     		.sleb128 -360
 13885 49c4 49       		.uleb128 0x49
 13886 49c5 CF110000 		.4byte	.LASF979
 13887 49c9 01       		.byte	0x1
 13888 49ca 6B01     		.2byte	0x16b
 13889 49cc 25000000 		.4byte	0x25
 13890 49d0 03       		.uleb128 0x3
 13891 49d1 91       		.byte	0x91
 13892 49d2 9C7D     		.sleb128 -356
 13893 49d4 35       		.uleb128 0x35
 13894 49d5 696E6400 		.ascii	"ind\000"
 13895 49d9 01       		.byte	0x1
 13896 49da 6C01     		.2byte	0x16c
 13897 49dc 25000000 		.4byte	0x25
 13898 49e0 6A040000 		.4byte	.LLST20
 13899 49e4 41       		.uleb128 0x41
 13900 49e5 140B0000 		.4byte	.LVL215
 13901 49e9 A2660000 		.4byte	0x66a2
 13902 49ed FB490000 		.4byte	0x49fb
 13903 49f1 3A       		.uleb128 0x3a
 13904 49f2 01       		.uleb128 0x1
 13905 49f3 50       		.byte	0x50
 13906 49f4 05       		.uleb128 0x5
 13907 49f5 03       		.byte	0x3
 13908 49f6 00000000 		.4byte	.LANCHOR0
 13909 49fa 00       		.byte	0
 13910 49fb 41       		.uleb128 0x41
ARM GAS  /tmp/ccHCUo6g.s 			page 260


 13911 49fc 320B0000 		.4byte	.LVL216
 13912 4a00 D9660000 		.4byte	0x66d9
 13913 4a04 1E4A0000 		.4byte	0x4a1e
 13914 4a08 3A       		.uleb128 0x3a
 13915 4a09 01       		.uleb128 0x1
 13916 4a0a 51       		.byte	0x51
 13917 4a0b 03       		.uleb128 0x3
 13918 4a0c 91       		.byte	0x91
 13919 4a0d 947D     		.sleb128 -364
 13920 4a0f 3A       		.uleb128 0x3a
 13921 4a10 01       		.uleb128 0x1
 13922 4a11 52       		.byte	0x52
 13923 4a12 03       		.uleb128 0x3
 13924 4a13 91       		.byte	0x91
 13925 4a14 987D     		.sleb128 -360
 13926 4a16 3A       		.uleb128 0x3a
 13927 4a17 01       		.uleb128 0x1
 13928 4a18 53       		.byte	0x53
 13929 4a19 03       		.uleb128 0x3
 13930 4a1a 91       		.byte	0x91
 13931 4a1b 9C7D     		.sleb128 -356
 13932 4a1d 00       		.byte	0
 13933 4a1e 39       		.uleb128 0x39
 13934 4a1f 820B0000 		.4byte	.LVL225
 13935 4a23 33660000 		.4byte	0x6633
 13936 4a27 3A       		.uleb128 0x3a
 13937 4a28 01       		.uleb128 0x1
 13938 4a29 50       		.byte	0x50
 13939 4a2a 05       		.uleb128 0x5
 13940 4a2b 03       		.byte	0x3
 13941 4a2c 48090000 		.4byte	.LC105
 13942 4a30 00       		.byte	0
 13943 4a31 00       		.byte	0
 13944 4a32 41       		.uleb128 0x41
 13945 4a33 B40A0000 		.4byte	.LVL212
 13946 4a37 1D660000 		.4byte	0x661d
 13947 4a3b 504A0000 		.4byte	0x4a50
 13948 4a3f 3A       		.uleb128 0x3a
 13949 4a40 01       		.uleb128 0x1
 13950 4a41 51       		.byte	0x51
 13951 4a42 05       		.uleb128 0x5
 13952 4a43 03       		.byte	0x3
 13953 4a44 50000000 		.4byte	.LC9
 13954 4a48 3A       		.uleb128 0x3a
 13955 4a49 01       		.uleb128 0x1
 13956 4a4a 52       		.byte	0x52
 13957 4a4b 03       		.uleb128 0x3
 13958 4a4c 91       		.byte	0x91
 13959 4a4d 887D     		.sleb128 -376
 13960 4a4f 00       		.byte	0
 13961 4a50 41       		.uleb128 0x41
 13962 4a51 BE0A0000 		.4byte	.LVL213
 13963 4a55 1D660000 		.4byte	0x661d
 13964 4a59 6E4A0000 		.4byte	0x4a6e
 13965 4a5d 3A       		.uleb128 0x3a
 13966 4a5e 01       		.uleb128 0x1
 13967 4a5f 51       		.byte	0x51
ARM GAS  /tmp/ccHCUo6g.s 			page 261


 13968 4a60 05       		.uleb128 0x5
 13969 4a61 03       		.byte	0x3
 13970 4a62 50000000 		.4byte	.LC9
 13971 4a66 3A       		.uleb128 0x3a
 13972 4a67 01       		.uleb128 0x1
 13973 4a68 52       		.byte	0x52
 13974 4a69 03       		.uleb128 0x3
 13975 4a6a 91       		.byte	0x91
 13976 4a6b 8C7D     		.sleb128 -372
 13977 4a6d 00       		.byte	0
 13978 4a6e 39       		.uleb128 0x39
 13979 4a6f C80A0000 		.4byte	.LVL214
 13980 4a73 1D660000 		.4byte	0x661d
 13981 4a77 3A       		.uleb128 0x3a
 13982 4a78 01       		.uleb128 0x1
 13983 4a79 51       		.byte	0x51
 13984 4a7a 05       		.uleb128 0x5
 13985 4a7b 03       		.byte	0x3
 13986 4a7c 50000000 		.4byte	.LC9
 13987 4a80 3A       		.uleb128 0x3a
 13988 4a81 01       		.uleb128 0x1
 13989 4a82 52       		.byte	0x52
 13990 4a83 03       		.uleb128 0x3
 13991 4a84 91       		.byte	0x91
 13992 4a85 907D     		.sleb128 -368
 13993 4a87 00       		.byte	0
 13994 4a88 00       		.byte	0
 13995 4a89 40       		.uleb128 0x40
 13996 4a8a 840D0000 		.4byte	.LBB141
 13997 4a8e 90000000 		.4byte	.LBE141-.LBB141
 13998 4a92 7A4B0000 		.4byte	0x4b7a
 13999 4a96 49       		.uleb128 0x49
 14000 4a97 F21F0000 		.4byte	.LASF489
 14001 4a9b 01       		.byte	0x1
 14002 4a9c 7901     		.2byte	0x179
 14003 4a9e 25000000 		.4byte	0x25
 14004 4aa2 03       		.uleb128 0x3
 14005 4aa3 91       		.byte	0x91
 14006 4aa4 8C7D     		.sleb128 -372
 14007 4aa6 49       		.uleb128 0x49
 14008 4aa7 28290000 		.4byte	.LASF498
 14009 4aab 01       		.byte	0x1
 14010 4aac 7A01     		.2byte	0x17a
 14011 4aae 25000000 		.4byte	0x25
 14012 4ab2 03       		.uleb128 0x3
 14013 4ab3 91       		.byte	0x91
 14014 4ab4 907D     		.sleb128 -368
 14015 4ab6 49       		.uleb128 0x49
 14016 4ab7 740B0000 		.4byte	.LASF980
 14017 4abb 01       		.byte	0x1
 14018 4abc 7B01     		.2byte	0x17b
 14019 4abe 25000000 		.4byte	0x25
 14020 4ac2 03       		.uleb128 0x3
 14021 4ac3 91       		.byte	0x91
 14022 4ac4 947D     		.sleb128 -364
 14023 4ac6 4D       		.uleb128 0x4d
 14024 4ac7 72657300 		.ascii	"res\000"
ARM GAS  /tmp/ccHCUo6g.s 			page 262


 14025 4acb 01       		.byte	0x1
 14026 4acc 7C01     		.2byte	0x17c
 14027 4ace 25000000 		.4byte	0x25
 14028 4ad2 03       		.uleb128 0x3
 14029 4ad3 91       		.byte	0x91
 14030 4ad4 987D     		.sleb128 -360
 14031 4ad6 40       		.uleb128 0x40
 14032 4ad7 0C0E0000 		.4byte	.LBB142
 14033 4adb 08000000 		.4byte	.LBE142-.LBB142
 14034 4adf 054B0000 		.4byte	0x4b05
 14035 4ae3 49       		.uleb128 0x49
 14036 4ae4 EE090000 		.4byte	.LASF981
 14037 4ae8 01       		.byte	0x1
 14038 4ae9 8301     		.2byte	0x183
 14039 4aeb 25000000 		.4byte	0x25
 14040 4aef 03       		.uleb128 0x3
 14041 4af0 91       		.byte	0x91
 14042 4af1 9C7D     		.sleb128 -356
 14043 4af3 39       		.uleb128 0x39
 14044 4af4 120E0000 		.4byte	.LVL274
 14045 4af8 E4660000 		.4byte	0x66e4
 14046 4afc 3A       		.uleb128 0x3a
 14047 4afd 01       		.uleb128 0x1
 14048 4afe 50       		.byte	0x50
 14049 4aff 03       		.uleb128 0x3
 14050 4b00 91       		.byte	0x91
 14051 4b01 9C7D     		.sleb128 -356
 14052 4b03 00       		.byte	0
 14053 4b04 00       		.byte	0
 14054 4b05 41       		.uleb128 0x41
 14055 4b06 980D0000 		.4byte	.LVL270
 14056 4b0a 1D660000 		.4byte	0x661d
 14057 4b0e 234B0000 		.4byte	0x4b23
 14058 4b12 3A       		.uleb128 0x3a
 14059 4b13 01       		.uleb128 0x1
 14060 4b14 51       		.byte	0x51
 14061 4b15 05       		.uleb128 0x5
 14062 4b16 03       		.byte	0x3
 14063 4b17 50000000 		.4byte	.LC9
 14064 4b1b 3A       		.uleb128 0x3a
 14065 4b1c 01       		.uleb128 0x1
 14066 4b1d 52       		.byte	0x52
 14067 4b1e 03       		.uleb128 0x3
 14068 4b1f 91       		.byte	0x91
 14069 4b20 8C7D     		.sleb128 -372
 14070 4b22 00       		.byte	0
 14071 4b23 41       		.uleb128 0x41
 14072 4b24 A20D0000 		.4byte	.LVL271
 14073 4b28 1D660000 		.4byte	0x661d
 14074 4b2c 414B0000 		.4byte	0x4b41
 14075 4b30 3A       		.uleb128 0x3a
 14076 4b31 01       		.uleb128 0x1
 14077 4b32 51       		.byte	0x51
 14078 4b33 05       		.uleb128 0x5
 14079 4b34 03       		.byte	0x3
 14080 4b35 50000000 		.4byte	.LC9
 14081 4b39 3A       		.uleb128 0x3a
ARM GAS  /tmp/ccHCUo6g.s 			page 263


 14082 4b3a 01       		.uleb128 0x1
 14083 4b3b 52       		.byte	0x52
 14084 4b3c 03       		.uleb128 0x3
 14085 4b3d 91       		.byte	0x91
 14086 4b3e 907D     		.sleb128 -368
 14087 4b40 00       		.byte	0
 14088 4b41 41       		.uleb128 0x41
 14089 4b42 AC0D0000 		.4byte	.LVL272
 14090 4b46 1D660000 		.4byte	0x661d
 14091 4b4a 5F4B0000 		.4byte	0x4b5f
 14092 4b4e 3A       		.uleb128 0x3a
 14093 4b4f 01       		.uleb128 0x1
 14094 4b50 51       		.byte	0x51
 14095 4b51 05       		.uleb128 0x5
 14096 4b52 03       		.byte	0x3
 14097 4b53 50000000 		.4byte	.LC9
 14098 4b57 3A       		.uleb128 0x3a
 14099 4b58 01       		.uleb128 0x1
 14100 4b59 52       		.byte	0x52
 14101 4b5a 03       		.uleb128 0x3
 14102 4b5b 91       		.byte	0x91
 14103 4b5c 947D     		.sleb128 -364
 14104 4b5e 00       		.byte	0
 14105 4b5f 39       		.uleb128 0x39
 14106 4b60 B60D0000 		.4byte	.LVL273
 14107 4b64 1D660000 		.4byte	0x661d
 14108 4b68 3A       		.uleb128 0x3a
 14109 4b69 01       		.uleb128 0x1
 14110 4b6a 51       		.byte	0x51
 14111 4b6b 05       		.uleb128 0x5
 14112 4b6c 03       		.byte	0x3
 14113 4b6d 50000000 		.4byte	.LC9
 14114 4b71 3A       		.uleb128 0x3a
 14115 4b72 01       		.uleb128 0x1
 14116 4b73 52       		.byte	0x52
 14117 4b74 03       		.uleb128 0x3
 14118 4b75 91       		.byte	0x91
 14119 4b76 987D     		.sleb128 -360
 14120 4b78 00       		.byte	0
 14121 4b79 00       		.byte	0
 14122 4b7a 40       		.uleb128 0x40
 14123 4b7b CA0E0000 		.4byte	.LBB146
 14124 4b7f 40000000 		.4byte	.LBE146-.LBB146
 14125 4b83 1C4C0000 		.4byte	0x4c1c
 14126 4b87 4D       		.uleb128 0x4d
 14127 4b88 72657300 		.ascii	"res\000"
 14128 4b8c 01       		.byte	0x1
 14129 4b8d 9001     		.2byte	0x190
 14130 4b8f 25000000 		.4byte	0x25
 14131 4b93 03       		.uleb128 0x3
 14132 4b94 91       		.byte	0x91
 14133 4b95 987D     		.sleb128 -360
 14134 4b97 4D       		.uleb128 0x4d
 14135 4b98 696E6400 		.ascii	"ind\000"
 14136 4b9c 01       		.byte	0x1
 14137 4b9d 9101     		.2byte	0x191
 14138 4b9f 25000000 		.4byte	0x25
ARM GAS  /tmp/ccHCUo6g.s 			page 264


 14139 4ba3 03       		.uleb128 0x3
 14140 4ba4 91       		.byte	0x91
 14141 4ba5 9C7D     		.sleb128 -356
 14142 4ba7 41       		.uleb128 0x41
 14143 4ba8 D60E0000 		.4byte	.LVL285
 14144 4bac A2660000 		.4byte	0x66a2
 14145 4bb0 BE4B0000 		.4byte	0x4bbe
 14146 4bb4 3A       		.uleb128 0x3a
 14147 4bb5 01       		.uleb128 0x1
 14148 4bb6 50       		.byte	0x50
 14149 4bb7 05       		.uleb128 0x5
 14150 4bb8 03       		.byte	0x3
 14151 4bb9 00000000 		.4byte	.LANCHOR0
 14152 4bbd 00       		.byte	0
 14153 4bbe 41       		.uleb128 0x41
 14154 4bbf E40E0000 		.4byte	.LVL286
 14155 4bc3 F0660000 		.4byte	0x66f0
 14156 4bc7 DA4B0000 		.4byte	0x4bda
 14157 4bcb 3A       		.uleb128 0x3a
 14158 4bcc 01       		.uleb128 0x1
 14159 4bcd 50       		.byte	0x50
 14160 4bce 03       		.uleb128 0x3
 14161 4bcf 91       		.byte	0x91
 14162 4bd0 987D     		.sleb128 -360
 14163 4bd2 3A       		.uleb128 0x3a
 14164 4bd3 01       		.uleb128 0x1
 14165 4bd4 51       		.byte	0x51
 14166 4bd5 03       		.uleb128 0x3
 14167 4bd6 91       		.byte	0x91
 14168 4bd7 9C7D     		.sleb128 -356
 14169 4bd9 00       		.byte	0
 14170 4bda 41       		.uleb128 0x41
 14171 4bdb F40E0000 		.4byte	.LVL288
 14172 4bdf 33660000 		.4byte	0x6633
 14173 4be3 F14B0000 		.4byte	0x4bf1
 14174 4be7 3A       		.uleb128 0x3a
 14175 4be8 01       		.uleb128 0x1
 14176 4be9 50       		.byte	0x50
 14177 4bea 05       		.uleb128 0x5
 14178 4beb 03       		.byte	0x3
 14179 4bec E0090000 		.4byte	.LC110
 14180 4bf0 00       		.byte	0
 14181 4bf1 41       		.uleb128 0x41
 14182 4bf2 040F0000 		.4byte	.LVL290
 14183 4bf6 33660000 		.4byte	0x6633
 14184 4bfa 084C0000 		.4byte	0x4c08
 14185 4bfe 3A       		.uleb128 0x3a
 14186 4bff 01       		.uleb128 0x1
 14187 4c00 50       		.byte	0x50
 14188 4c01 05       		.uleb128 0x5
 14189 4c02 03       		.byte	0x3
 14190 4c03 F8090000 		.4byte	.LC111
 14191 4c07 00       		.byte	0
 14192 4c08 39       		.uleb128 0x39
 14193 4c09 0A0F0000 		.4byte	.LVL291
 14194 4c0d A2660000 		.4byte	0x66a2
 14195 4c11 3A       		.uleb128 0x3a
ARM GAS  /tmp/ccHCUo6g.s 			page 265


 14196 4c12 01       		.uleb128 0x1
 14197 4c13 50       		.byte	0x50
 14198 4c14 05       		.uleb128 0x5
 14199 4c15 03       		.byte	0x3
 14200 4c16 00000000 		.4byte	.LANCHOR1
 14201 4c1a 00       		.byte	0
 14202 4c1b 00       		.byte	0
 14203 4c1c 48       		.uleb128 0x48
 14204 4c1d 18010000 		.4byte	.Ldebug_ranges0+0x118
 14205 4c21 EB4D0000 		.4byte	0x4deb
 14206 4c25 49       		.uleb128 0x49
 14207 4c26 28290000 		.4byte	.LASF498
 14208 4c2a 01       		.byte	0x1
 14209 4c2b 9901     		.2byte	0x199
 14210 4c2d 25000000 		.4byte	0x25
 14211 4c31 03       		.uleb128 0x3
 14212 4c32 91       		.byte	0x91
 14213 4c33 9C7D     		.sleb128 -356
 14214 4c35 48       		.uleb128 0x48
 14215 4c36 30010000 		.4byte	.Ldebug_ranges0+0x130
 14216 4c3a D14D0000 		.4byte	0x4dd1
 14217 4c3e 35       		.uleb128 0x35
 14218 4c3f 72657300 		.ascii	"res\000"
 14219 4c43 01       		.byte	0x1
 14220 4c44 9F01     		.2byte	0x19f
 14221 4c46 39120000 		.4byte	0x1239
 14222 4c4a 7E040000 		.4byte	.LLST21
 14223 4c4e 38       		.uleb128 0x38
 14224 4c4f 62120000 		.4byte	.LASF982
 14225 4c53 01       		.byte	0x1
 14226 4c54 A201     		.2byte	0x1a2
 14227 4c56 8D010000 		.4byte	0x18d
 14228 4c5a 92040000 		.4byte	.LLST22
 14229 4c5e 38       		.uleb128 0x38
 14230 4c5f C00D0000 		.4byte	.LASF983
 14231 4c63 01       		.byte	0x1
 14232 4c64 A301     		.2byte	0x1a3
 14233 4c66 25000000 		.4byte	0x25
 14234 4c6a B0040000 		.4byte	.LLST23
 14235 4c6e 38       		.uleb128 0x38
 14236 4c6f 2C040000 		.4byte	.LASF984
 14237 4c73 01       		.byte	0x1
 14238 4c74 AC01     		.2byte	0x1ac
 14239 4c76 25000000 		.4byte	0x25
 14240 4c7a D0040000 		.4byte	.LLST24
 14241 4c7e 38       		.uleb128 0x38
 14242 4c7f 80160000 		.4byte	.LASF985
 14243 4c83 01       		.byte	0x1
 14244 4c84 AD01     		.2byte	0x1ad
 14245 4c86 25000000 		.4byte	0x25
 14246 4c8a 14050000 		.4byte	.LLST25
 14247 4c8e 38       		.uleb128 0x38
 14248 4c8f F8020000 		.4byte	.LASF986
 14249 4c93 01       		.byte	0x1
 14250 4c94 AE01     		.2byte	0x1ae
 14251 4c96 25000000 		.4byte	0x25
 14252 4c9a 58050000 		.4byte	.LLST26
ARM GAS  /tmp/ccHCUo6g.s 			page 266


 14253 4c9e 38       		.uleb128 0x38
 14254 4c9f D9240000 		.4byte	.LASF987
 14255 4ca3 01       		.byte	0x1
 14256 4ca4 AF01     		.2byte	0x1af
 14257 4ca6 25000000 		.4byte	0x25
 14258 4caa 6C050000 		.4byte	.LLST27
 14259 4cae 4E       		.uleb128 0x4e
 14260 4caf EE090000 		.4byte	.LASF981
 14261 4cb3 01       		.byte	0x1
 14262 4cb4 C201     		.2byte	0x1c2
 14263 4cb6 25000000 		.4byte	0x25
 14264 4cba 48       		.uleb128 0x48
 14265 4cbb 48010000 		.4byte	.Ldebug_ranges0+0x148
 14266 4cbf EB4C0000 		.4byte	0x4ceb
 14267 4cc3 35       		.uleb128 0x35
 14268 4cc4 6900     		.ascii	"i\000"
 14269 4cc6 01       		.byte	0x1
 14270 4cc7 A701     		.2byte	0x1a7
 14271 4cc9 2C000000 		.4byte	0x2c
 14272 4ccd B0050000 		.4byte	.LLST28
 14273 4cd1 42       		.uleb128 0x42
 14274 4cd2 880C0000 		.4byte	.LVL247
 14275 4cd6 FB660000 		.4byte	0x66fb
 14276 4cda 39       		.uleb128 0x39
 14277 4cdb 8E0C0000 		.4byte	.LVL248
 14278 4cdf 06670000 		.4byte	0x6706
 14279 4ce3 3A       		.uleb128 0x3a
 14280 4ce4 01       		.uleb128 0x1
 14281 4ce5 50       		.byte	0x50
 14282 4ce6 02       		.uleb128 0x2
 14283 4ce7 08       		.byte	0x8
 14284 4ce8 C8       		.byte	0xc8
 14285 4ce9 00       		.byte	0
 14286 4cea 00       		.byte	0
 14287 4ceb 40       		.uleb128 0x40
 14288 4cec A60C0000 		.4byte	.LBB139
 14289 4cf0 2A000000 		.4byte	.LBE139-.LBB139
 14290 4cf4 314D0000 		.4byte	0x4d31
 14291 4cf8 35       		.uleb128 0x35
 14292 4cf9 6900     		.ascii	"i\000"
 14293 4cfb 01       		.byte	0x1
 14294 4cfc B001     		.2byte	0x1b0
 14295 4cfe 2C000000 		.4byte	0x2c
 14296 4d02 DB050000 		.4byte	.LLST29
 14297 4d06 42       		.uleb128 0x42
 14298 4d07 AE0C0000 		.4byte	.LVL251
 14299 4d0b 11670000 		.4byte	0x6711
 14300 4d0f 42       		.uleb128 0x42
 14301 4d10 B60C0000 		.4byte	.LVL253
 14302 4d14 1C670000 		.4byte	0x671c
 14303 4d18 42       		.uleb128 0x42
 14304 4d19 BE0C0000 		.4byte	.LVL255
 14305 4d1d 27670000 		.4byte	0x6727
 14306 4d21 39       		.uleb128 0x39
 14307 4d22 C80C0000 		.4byte	.LVL257
 14308 4d26 06670000 		.4byte	0x6706
 14309 4d2a 3A       		.uleb128 0x3a
ARM GAS  /tmp/ccHCUo6g.s 			page 267


 14310 4d2b 01       		.uleb128 0x1
 14311 4d2c 50       		.byte	0x50
 14312 4d2d 01       		.uleb128 0x1
 14313 4d2e 3A       		.byte	0x3a
 14314 4d2f 00       		.byte	0
 14315 4d30 00       		.byte	0
 14316 4d31 41       		.uleb128 0x41
 14317 4d32 440C0000 		.4byte	.LVL238
 14318 4d36 A2660000 		.4byte	0x66a2
 14319 4d3a 454D0000 		.4byte	0x4d45
 14320 4d3e 3A       		.uleb128 0x3a
 14321 4d3f 01       		.uleb128 0x1
 14322 4d40 50       		.byte	0x50
 14323 4d41 02       		.uleb128 0x2
 14324 4d42 77       		.byte	0x77
 14325 4d43 00       		.sleb128 0
 14326 4d44 00       		.byte	0
 14327 4d45 42       		.uleb128 0x42
 14328 4d46 540C0000 		.4byte	.LVL240
 14329 4d4a 32670000 		.4byte	0x6732
 14330 4d4e 42       		.uleb128 0x42
 14331 4d4f 5A0C0000 		.4byte	.LVL242
 14332 4d53 3D670000 		.4byte	0x673d
 14333 4d57 42       		.uleb128 0x42
 14334 4d58 620C0000 		.4byte	.LVL244
 14335 4d5c 48670000 		.4byte	0x6748
 14336 4d60 41       		.uleb128 0x41
 14337 4d61 6E0C0000 		.4byte	.LVL245
 14338 4d65 53670000 		.4byte	0x6753
 14339 4d69 814D0000 		.4byte	0x4d81
 14340 4d6d 3A       		.uleb128 0x3a
 14341 4d6e 01       		.uleb128 0x1
 14342 4d6f 50       		.byte	0x50
 14343 4d70 03       		.uleb128 0x3
 14344 4d71 0A       		.byte	0xa
 14345 4d72 60EA     		.2byte	0xea60
 14346 4d74 3A       		.uleb128 0x3a
 14347 4d75 02       		.uleb128 0x2
 14348 4d76 90       		.byte	0x90
 14349 4d77 40       		.uleb128 0x40
 14350 4d78 07       		.uleb128 0x7
 14351 4d79 F4       		.byte	0xf4
 14352 4d7a 25       		.uleb128 0x25
 14353 4d7b 04       		.byte	0x4
 14354 4d7c 00000000 		.4byte	0
 14355 4d80 00       		.byte	0
 14356 4d81 42       		.uleb128 0x42
 14357 4d82 D40C0000 		.4byte	.LVL260
 14358 4d86 5E670000 		.4byte	0x675e
 14359 4d8a 41       		.uleb128 0x41
 14360 4d8b DA0C0000 		.4byte	.LVL261
 14361 4d8f A2660000 		.4byte	0x66a2
 14362 4d93 A14D0000 		.4byte	0x4da1
 14363 4d97 3A       		.uleb128 0x3a
 14364 4d98 01       		.uleb128 0x1
 14365 4d99 50       		.byte	0x50
 14366 4d9a 05       		.uleb128 0x5
ARM GAS  /tmp/ccHCUo6g.s 			page 268


 14367 4d9b 03       		.byte	0x3
 14368 4d9c 00000000 		.4byte	.LANCHOR1
 14369 4da0 00       		.byte	0
 14370 4da1 41       		.uleb128 0x41
 14371 4da2 E40C0000 		.4byte	.LVL262
 14372 4da6 53670000 		.4byte	0x6753
 14373 4daa BD4D0000 		.4byte	0x4dbd
 14374 4dae 3A       		.uleb128 0x3a
 14375 4daf 01       		.uleb128 0x1
 14376 4db0 50       		.byte	0x50
 14377 4db1 02       		.uleb128 0x2
 14378 4db2 77       		.byte	0x77
 14379 4db3 00       		.sleb128 0
 14380 4db4 3A       		.uleb128 0x3a
 14381 4db5 02       		.uleb128 0x2
 14382 4db6 90       		.byte	0x90
 14383 4db7 40       		.uleb128 0x40
 14384 4db8 03       		.uleb128 0x3
 14385 4db9 F5       		.byte	0xf5
 14386 4dba 55       		.uleb128 0x55
 14387 4dbb 25       		.uleb128 0x25
 14388 4dbc 00       		.byte	0
 14389 4dbd 39       		.uleb128 0x39
 14390 4dbe 220E0000 		.4byte	.LVL277
 14391 4dc2 33660000 		.4byte	0x6633
 14392 4dc6 3A       		.uleb128 0x3a
 14393 4dc7 01       		.uleb128 0x1
 14394 4dc8 50       		.byte	0x50
 14395 4dc9 05       		.uleb128 0x5
 14396 4dca 03       		.byte	0x3
 14397 4dcb 94090000 		.4byte	.LC107
 14398 4dcf 00       		.byte	0
 14399 4dd0 00       		.byte	0
 14400 4dd1 39       		.uleb128 0x39
 14401 4dd2 260C0000 		.4byte	.LVL237
 14402 4dd6 1D660000 		.4byte	0x661d
 14403 4dda 3A       		.uleb128 0x3a
 14404 4ddb 01       		.uleb128 0x1
 14405 4ddc 51       		.byte	0x51
 14406 4ddd 05       		.uleb128 0x5
 14407 4dde 03       		.byte	0x3
 14408 4ddf 50000000 		.4byte	.LC9
 14409 4de3 3A       		.uleb128 0x3a
 14410 4de4 01       		.uleb128 0x1
 14411 4de5 52       		.byte	0x52
 14412 4de6 02       		.uleb128 0x2
 14413 4de7 75       		.byte	0x75
 14414 4de8 00       		.sleb128 0
 14415 4de9 00       		.byte	0
 14416 4dea 00       		.byte	0
 14417 4deb 40       		.uleb128 0x40
 14418 4dec 380E0000 		.4byte	.LBB144
 14419 4df0 92000000 		.4byte	.LBE144-.LBB144
 14420 4df4 DC4E0000 		.4byte	0x4edc
 14421 4df8 49       		.uleb128 0x49
 14422 4df9 F21F0000 		.4byte	.LASF489
 14423 4dfd 01       		.byte	0x1
ARM GAS  /tmp/ccHCUo6g.s 			page 269


 14424 4dfe CD01     		.2byte	0x1cd
 14425 4e00 25000000 		.4byte	0x25
 14426 4e04 03       		.uleb128 0x3
 14427 4e05 91       		.byte	0x91
 14428 4e06 8C7D     		.sleb128 -372
 14429 4e08 49       		.uleb128 0x49
 14430 4e09 28290000 		.4byte	.LASF498
 14431 4e0d 01       		.byte	0x1
 14432 4e0e CE01     		.2byte	0x1ce
 14433 4e10 25000000 		.4byte	0x25
 14434 4e14 03       		.uleb128 0x3
 14435 4e15 91       		.byte	0x91
 14436 4e16 907D     		.sleb128 -368
 14437 4e18 49       		.uleb128 0x49
 14438 4e19 64160000 		.4byte	.LASF988
 14439 4e1d 01       		.byte	0x1
 14440 4e1e CF01     		.2byte	0x1cf
 14441 4e20 25000000 		.4byte	0x25
 14442 4e24 03       		.uleb128 0x3
 14443 4e25 91       		.byte	0x91
 14444 4e26 947D     		.sleb128 -364
 14445 4e28 4D       		.uleb128 0x4d
 14446 4e29 72657300 		.ascii	"res\000"
 14447 4e2d 01       		.byte	0x1
 14448 4e2e D001     		.2byte	0x1d0
 14449 4e30 25000000 		.4byte	0x25
 14450 4e34 03       		.uleb128 0x3
 14451 4e35 91       		.byte	0x91
 14452 4e36 987D     		.sleb128 -360
 14453 4e38 40       		.uleb128 0x40
 14454 4e39 C00E0000 		.4byte	.LBB145
 14455 4e3d 0A000000 		.4byte	.LBE145-.LBB145
 14456 4e41 674E0000 		.4byte	0x4e67
 14457 4e45 49       		.uleb128 0x49
 14458 4e46 EE090000 		.4byte	.LASF981
 14459 4e4a 01       		.byte	0x1
 14460 4e4b D701     		.2byte	0x1d7
 14461 4e4d 25000000 		.4byte	0x25
 14462 4e51 03       		.uleb128 0x3
 14463 4e52 91       		.byte	0x91
 14464 4e53 9C7D     		.sleb128 -356
 14465 4e55 39       		.uleb128 0x39
 14466 4e56 C60E0000 		.4byte	.LVL284
 14467 4e5a 69670000 		.4byte	0x6769
 14468 4e5e 3A       		.uleb128 0x3a
 14469 4e5f 01       		.uleb128 0x1
 14470 4e60 50       		.byte	0x50
 14471 4e61 03       		.uleb128 0x3
 14472 4e62 91       		.byte	0x91
 14473 4e63 9C7D     		.sleb128 -356
 14474 4e65 00       		.byte	0
 14475 4e66 00       		.byte	0
 14476 4e67 41       		.uleb128 0x41
 14477 4e68 4C0E0000 		.4byte	.LVL280
 14478 4e6c 1D660000 		.4byte	0x661d
 14479 4e70 854E0000 		.4byte	0x4e85
 14480 4e74 3A       		.uleb128 0x3a
ARM GAS  /tmp/ccHCUo6g.s 			page 270


 14481 4e75 01       		.uleb128 0x1
 14482 4e76 51       		.byte	0x51
 14483 4e77 05       		.uleb128 0x5
 14484 4e78 03       		.byte	0x3
 14485 4e79 50000000 		.4byte	.LC9
 14486 4e7d 3A       		.uleb128 0x3a
 14487 4e7e 01       		.uleb128 0x1
 14488 4e7f 52       		.byte	0x52
 14489 4e80 03       		.uleb128 0x3
 14490 4e81 91       		.byte	0x91
 14491 4e82 8C7D     		.sleb128 -372
 14492 4e84 00       		.byte	0
 14493 4e85 41       		.uleb128 0x41
 14494 4e86 560E0000 		.4byte	.LVL281
 14495 4e8a 1D660000 		.4byte	0x661d
 14496 4e8e A34E0000 		.4byte	0x4ea3
 14497 4e92 3A       		.uleb128 0x3a
 14498 4e93 01       		.uleb128 0x1
 14499 4e94 51       		.byte	0x51
 14500 4e95 05       		.uleb128 0x5
 14501 4e96 03       		.byte	0x3
 14502 4e97 50000000 		.4byte	.LC9
 14503 4e9b 3A       		.uleb128 0x3a
 14504 4e9c 01       		.uleb128 0x1
 14505 4e9d 52       		.byte	0x52
 14506 4e9e 03       		.uleb128 0x3
 14507 4e9f 91       		.byte	0x91
 14508 4ea0 907D     		.sleb128 -368
 14509 4ea2 00       		.byte	0
 14510 4ea3 41       		.uleb128 0x41
 14511 4ea4 600E0000 		.4byte	.LVL282
 14512 4ea8 1D660000 		.4byte	0x661d
 14513 4eac C14E0000 		.4byte	0x4ec1
 14514 4eb0 3A       		.uleb128 0x3a
 14515 4eb1 01       		.uleb128 0x1
 14516 4eb2 51       		.byte	0x51
 14517 4eb3 05       		.uleb128 0x5
 14518 4eb4 03       		.byte	0x3
 14519 4eb5 50000000 		.4byte	.LC9
 14520 4eb9 3A       		.uleb128 0x3a
 14521 4eba 01       		.uleb128 0x1
 14522 4ebb 52       		.byte	0x52
 14523 4ebc 03       		.uleb128 0x3
 14524 4ebd 91       		.byte	0x91
 14525 4ebe 947D     		.sleb128 -364
 14526 4ec0 00       		.byte	0
 14527 4ec1 39       		.uleb128 0x39
 14528 4ec2 6A0E0000 		.4byte	.LVL283
 14529 4ec6 1D660000 		.4byte	0x661d
 14530 4eca 3A       		.uleb128 0x3a
 14531 4ecb 01       		.uleb128 0x1
 14532 4ecc 51       		.byte	0x51
 14533 4ecd 05       		.uleb128 0x5
 14534 4ece 03       		.byte	0x3
 14535 4ecf 50000000 		.4byte	.LC9
 14536 4ed3 3A       		.uleb128 0x3a
 14537 4ed4 01       		.uleb128 0x1
ARM GAS  /tmp/ccHCUo6g.s 			page 271


 14538 4ed5 52       		.byte	0x52
 14539 4ed6 03       		.uleb128 0x3
 14540 4ed7 91       		.byte	0x91
 14541 4ed8 987D     		.sleb128 -360
 14542 4eda 00       		.byte	0
 14543 4edb 00       		.byte	0
 14544 4edc 40       		.uleb128 0x40
 14545 4edd 34100000 		.4byte	.LBB149
 14546 4ee1 8C000000 		.4byte	.LBE149-.LBB149
 14547 4ee5 DE4F0000 		.4byte	0x4fde
 14548 4ee9 49       		.uleb128 0x49
 14549 4eea 621B0000 		.4byte	.LASF989
 14550 4eee 01       		.byte	0x1
 14551 4eef EE01     		.2byte	0x1ee
 14552 4ef1 2C000000 		.4byte	0x2c
 14553 4ef5 03       		.uleb128 0x3
 14554 4ef6 91       		.byte	0x91
 14555 4ef7 947D     		.sleb128 -364
 14556 4ef9 49       		.uleb128 0x49
 14557 4efa 931C0000 		.4byte	.LASF990
 14558 4efe 01       		.byte	0x1
 14559 4eff EF01     		.2byte	0x1ef
 14560 4f01 2C000000 		.4byte	0x2c
 14561 4f05 03       		.uleb128 0x3
 14562 4f06 91       		.byte	0x91
 14563 4f07 987D     		.sleb128 -360
 14564 4f09 49       		.uleb128 0x49
 14565 4f0a AA1D0000 		.4byte	.LASF991
 14566 4f0e 01       		.byte	0x1
 14567 4f0f F001     		.2byte	0x1f0
 14568 4f11 2C000000 		.4byte	0x2c
 14569 4f15 03       		.uleb128 0x3
 14570 4f16 91       		.byte	0x91
 14571 4f17 9C7D     		.sleb128 -356
 14572 4f19 41       		.uleb128 0x41
 14573 4f1a 3E100000 		.4byte	.LVL310
 14574 4f1e 33660000 		.4byte	0x6633
 14575 4f22 3B4F0000 		.4byte	0x4f3b
 14576 4f26 3A       		.uleb128 0x3a
 14577 4f27 01       		.uleb128 0x1
 14578 4f28 50       		.byte	0x50
 14579 4f29 05       		.uleb128 0x5
 14580 4f2a 03       		.byte	0x3
 14581 4f2b 600A0000 		.4byte	.LC116
 14582 4f2f 3A       		.uleb128 0x3a
 14583 4f30 01       		.uleb128 0x1
 14584 4f31 51       		.byte	0x51
 14585 4f32 01       		.uleb128 0x1
 14586 4f33 33       		.byte	0x33
 14587 4f34 3A       		.uleb128 0x3a
 14588 4f35 01       		.uleb128 0x1
 14589 4f36 52       		.byte	0x52
 14590 4f37 02       		.uleb128 0x2
 14591 4f38 08       		.byte	0x8
 14592 4f39 3F       		.byte	0x3f
 14593 4f3a 00       		.byte	0
 14594 4f3b 41       		.uleb128 0x41
ARM GAS  /tmp/ccHCUo6g.s 			page 272


 14595 4f3c 46100000 		.4byte	.LVL311
 14596 4f40 33660000 		.4byte	0x6633
 14597 4f44 5B4F0000 		.4byte	0x4f5b
 14598 4f48 3A       		.uleb128 0x3a
 14599 4f49 01       		.uleb128 0x1
 14600 4f4a 50       		.byte	0x50
 14601 4f4b 05       		.uleb128 0x5
 14602 4f4c 03       		.byte	0x3
 14603 4f4d 780A0000 		.4byte	.LC118
 14604 4f51 3A       		.uleb128 0x3a
 14605 4f52 01       		.uleb128 0x1
 14606 4f53 51       		.byte	0x51
 14607 4f54 05       		.uleb128 0x5
 14608 4f55 03       		.byte	0x3
 14609 4f56 700A0000 		.4byte	.LC117
 14610 4f5a 00       		.byte	0
 14611 4f5b 41       		.uleb128 0x41
 14612 4f5c 8E100000 		.4byte	.LVL313
 14613 4f60 33660000 		.4byte	0x6633
 14614 4f64 794F0000 		.4byte	0x4f79
 14615 4f68 3A       		.uleb128 0x3a
 14616 4f69 01       		.uleb128 0x1
 14617 4f6a 50       		.byte	0x50
 14618 4f6b 05       		.uleb128 0x5
 14619 4f6c 03       		.byte	0x3
 14620 4f6d 880A0000 		.4byte	.LC119
 14621 4f71 3A       		.uleb128 0x3a
 14622 4f72 02       		.uleb128 0x2
 14623 4f73 7D       		.byte	0x7d
 14624 4f74 04       		.sleb128 4
 14625 4f75 02       		.uleb128 0x2
 14626 4f76 74       		.byte	0x74
 14627 4f77 00       		.sleb128 0
 14628 4f78 00       		.byte	0
 14629 4f79 41       		.uleb128 0x41
 14630 4f7a A4100000 		.4byte	.LVL314
 14631 4f7e 33660000 		.4byte	0x6633
 14632 4f82 904F0000 		.4byte	0x4f90
 14633 4f86 3A       		.uleb128 0x3a
 14634 4f87 01       		.uleb128 0x1
 14635 4f88 50       		.byte	0x50
 14636 4f89 05       		.uleb128 0x5
 14637 4f8a 03       		.byte	0x3
 14638 4f8b CC0A0000 		.4byte	.LC120
 14639 4f8f 00       		.byte	0
 14640 4f90 41       		.uleb128 0x41
 14641 4f91 AE100000 		.4byte	.LVL315
 14642 4f95 75670000 		.4byte	0x6775
 14643 4f99 B34F0000 		.4byte	0x4fb3
 14644 4f9d 3A       		.uleb128 0x3a
 14645 4f9e 01       		.uleb128 0x1
 14646 4f9f 50       		.byte	0x50
 14647 4fa0 03       		.uleb128 0x3
 14648 4fa1 91       		.byte	0x91
 14649 4fa2 947D     		.sleb128 -364
 14650 4fa4 3A       		.uleb128 0x3a
 14651 4fa5 01       		.uleb128 0x1
ARM GAS  /tmp/ccHCUo6g.s 			page 273


 14652 4fa6 51       		.byte	0x51
 14653 4fa7 03       		.uleb128 0x3
 14654 4fa8 91       		.byte	0x91
 14655 4fa9 987D     		.sleb128 -360
 14656 4fab 3A       		.uleb128 0x3a
 14657 4fac 01       		.uleb128 0x1
 14658 4fad 52       		.byte	0x52
 14659 4fae 03       		.uleb128 0x3
 14660 4faf 91       		.byte	0x91
 14661 4fb0 9C7D     		.sleb128 -356
 14662 4fb2 00       		.byte	0
 14663 4fb3 41       		.uleb128 0x41
 14664 4fb4 BA100000 		.4byte	.LVL316
 14665 4fb8 33660000 		.4byte	0x6633
 14666 4fbc CA4F0000 		.4byte	0x4fca
 14667 4fc0 3A       		.uleb128 0x3a
 14668 4fc1 01       		.uleb128 0x1
 14669 4fc2 50       		.byte	0x50
 14670 4fc3 05       		.uleb128 0x5
 14671 4fc4 03       		.byte	0x3
 14672 4fc5 E40A0000 		.4byte	.LC121
 14673 4fc9 00       		.byte	0
 14674 4fca 39       		.uleb128 0x39
 14675 4fcb C0100000 		.4byte	.LVL317
 14676 4fcf 33660000 		.4byte	0x6633
 14677 4fd3 3A       		.uleb128 0x3a
 14678 4fd4 01       		.uleb128 0x1
 14679 4fd5 50       		.byte	0x50
 14680 4fd6 05       		.uleb128 0x5
 14681 4fd7 03       		.byte	0x3
 14682 4fd8 18000000 		.4byte	.LC4
 14683 4fdc 00       		.byte	0
 14684 4fdd 00       		.byte	0
 14685 4fde 40       		.uleb128 0x40
 14686 4fdf 460F0000 		.4byte	.LBB147
 14687 4fe3 52000000 		.4byte	.LBE147-.LBB147
 14688 4fe7 58500000 		.4byte	0x5058
 14689 4feb 49       		.uleb128 0x49
 14690 4fec F21F0000 		.4byte	.LASF489
 14691 4ff0 01       		.byte	0x1
 14692 4ff1 FA01     		.2byte	0x1fa
 14693 4ff3 25000000 		.4byte	0x25
 14694 4ff7 03       		.uleb128 0x3
 14695 4ff8 91       		.byte	0x91
 14696 4ff9 987D     		.sleb128 -360
 14697 4ffb 49       		.uleb128 0x49
 14698 4ffc 99270000 		.4byte	.LASF992
 14699 5000 01       		.byte	0x1
 14700 5001 FB01     		.2byte	0x1fb
 14701 5003 25000000 		.4byte	0x25
 14702 5007 03       		.uleb128 0x3
 14703 5008 91       		.byte	0x91
 14704 5009 9C7D     		.sleb128 -356
 14705 500b 41       		.uleb128 0x41
 14706 500c 5A0F0000 		.4byte	.LVL298
 14707 5010 1D660000 		.4byte	0x661d
 14708 5014 28500000 		.4byte	0x5028
ARM GAS  /tmp/ccHCUo6g.s 			page 274


 14709 5018 3A       		.uleb128 0x3a
 14710 5019 01       		.uleb128 0x1
 14711 501a 51       		.byte	0x51
 14712 501b 05       		.uleb128 0x5
 14713 501c 03       		.byte	0x3
 14714 501d 50000000 		.4byte	.LC9
 14715 5021 3A       		.uleb128 0x3a
 14716 5022 01       		.uleb128 0x1
 14717 5023 52       		.byte	0x52
 14718 5024 02       		.uleb128 0x2
 14719 5025 74       		.byte	0x74
 14720 5026 00       		.sleb128 0
 14721 5027 00       		.byte	0
 14722 5028 41       		.uleb128 0x41
 14723 5029 640F0000 		.4byte	.LVL299
 14724 502d 1D660000 		.4byte	0x661d
 14725 5031 45500000 		.4byte	0x5045
 14726 5035 3A       		.uleb128 0x3a
 14727 5036 01       		.uleb128 0x1
 14728 5037 51       		.byte	0x51
 14729 5038 05       		.uleb128 0x5
 14730 5039 03       		.byte	0x3
 14731 503a 50000000 		.4byte	.LC9
 14732 503e 3A       		.uleb128 0x3a
 14733 503f 01       		.uleb128 0x1
 14734 5040 52       		.byte	0x52
 14735 5041 02       		.uleb128 0x2
 14736 5042 75       		.byte	0x75
 14737 5043 00       		.sleb128 0
 14738 5044 00       		.byte	0
 14739 5045 42       		.uleb128 0x42
 14740 5046 880F0000 		.4byte	.LVL300
 14741 504a 48670000 		.4byte	0x6748
 14742 504e 42       		.uleb128 0x42
 14743 504f 940F0000 		.4byte	.LVL301
 14744 5053 80670000 		.4byte	0x6780
 14745 5057 00       		.byte	0
 14746 5058 40       		.uleb128 0x40
 14747 5059 AA0F0000 		.4byte	.LBB148
 14748 505d 8A000000 		.4byte	.LBE148-.LBB148
 14749 5061 D2500000 		.4byte	0x50d2
 14750 5065 49       		.uleb128 0x49
 14751 5066 28290000 		.4byte	.LASF498
 14752 506a 01       		.byte	0x1
 14753 506b 0A02     		.2byte	0x20a
 14754 506d 25000000 		.4byte	0x25
 14755 5071 03       		.uleb128 0x3
 14756 5072 91       		.byte	0x91
 14757 5073 987D     		.sleb128 -360
 14758 5075 49       		.uleb128 0x49
 14759 5076 99270000 		.4byte	.LASF992
 14760 507a 01       		.byte	0x1
 14761 507b 0B02     		.2byte	0x20b
 14762 507d 25000000 		.4byte	0x25
 14763 5081 03       		.uleb128 0x3
 14764 5082 91       		.byte	0x91
 14765 5083 9C7D     		.sleb128 -356
ARM GAS  /tmp/ccHCUo6g.s 			page 275


 14766 5085 41       		.uleb128 0x41
 14767 5086 BE0F0000 		.4byte	.LVL305
 14768 508a 1D660000 		.4byte	0x661d
 14769 508e A2500000 		.4byte	0x50a2
 14770 5092 3A       		.uleb128 0x3a
 14771 5093 01       		.uleb128 0x1
 14772 5094 51       		.byte	0x51
 14773 5095 05       		.uleb128 0x5
 14774 5096 03       		.byte	0x3
 14775 5097 50000000 		.4byte	.LC9
 14776 509b 3A       		.uleb128 0x3a
 14777 509c 01       		.uleb128 0x1
 14778 509d 52       		.byte	0x52
 14779 509e 02       		.uleb128 0x2
 14780 509f 74       		.byte	0x74
 14781 50a0 00       		.sleb128 0
 14782 50a1 00       		.byte	0
 14783 50a2 41       		.uleb128 0x41
 14784 50a3 C80F0000 		.4byte	.LVL306
 14785 50a7 1D660000 		.4byte	0x661d
 14786 50ab BF500000 		.4byte	0x50bf
 14787 50af 3A       		.uleb128 0x3a
 14788 50b0 01       		.uleb128 0x1
 14789 50b1 51       		.byte	0x51
 14790 50b2 05       		.uleb128 0x5
 14791 50b3 03       		.byte	0x3
 14792 50b4 50000000 		.4byte	.LC9
 14793 50b8 3A       		.uleb128 0x3a
 14794 50b9 01       		.uleb128 0x1
 14795 50ba 52       		.byte	0x52
 14796 50bb 02       		.uleb128 0x2
 14797 50bc 75       		.byte	0x75
 14798 50bd 00       		.sleb128 0
 14799 50be 00       		.byte	0
 14800 50bf 42       		.uleb128 0x42
 14801 50c0 EC0F0000 		.4byte	.LVL307
 14802 50c4 48670000 		.4byte	0x6748
 14803 50c8 42       		.uleb128 0x42
 14804 50c9 F80F0000 		.4byte	.LVL308
 14805 50cd 8B670000 		.4byte	0x678b
 14806 50d1 00       		.byte	0
 14807 50d2 40       		.uleb128 0x40
 14808 50d3 D4100000 		.4byte	.LBB150
 14809 50d7 2E000000 		.4byte	.LBE150-.LBB150
 14810 50db 3E510000 		.4byte	0x513e
 14811 50df 49       		.uleb128 0x49
 14812 50e0 BB260000 		.4byte	.LASF993
 14813 50e4 01       		.byte	0x1
 14814 50e5 1A02     		.2byte	0x21a
 14815 50e7 2C000000 		.4byte	0x2c
 14816 50eb 03       		.uleb128 0x3
 14817 50ec 91       		.byte	0x91
 14818 50ed 9C7D     		.sleb128 -356
 14819 50ef 40       		.uleb128 0x40
 14820 50f0 EC100000 		.4byte	.LBB151
 14821 50f4 12000000 		.4byte	.LBE151-.LBB151
 14822 50f8 23510000 		.4byte	0x5123
ARM GAS  /tmp/ccHCUo6g.s 			page 276


 14823 50fc 49       		.uleb128 0x49
 14824 50fd 1C280000 		.4byte	.LASF994
 14825 5101 01       		.byte	0x1
 14826 5102 1E02     		.2byte	0x21e
 14827 5104 6C650000 		.4byte	0x656c
 14828 5108 03       		.uleb128 0x3
 14829 5109 91       		.byte	0x91
 14830 510a 987D     		.sleb128 -360
 14831 510c 39       		.uleb128 0x39
 14832 510d FE100000 		.4byte	.LVL321
 14833 5111 96670000 		.4byte	0x6796
 14834 5115 3A       		.uleb128 0x3a
 14835 5116 01       		.uleb128 0x1
 14836 5117 50       		.byte	0x50
 14837 5118 03       		.uleb128 0x3
 14838 5119 91       		.byte	0x91
 14839 511a 987D     		.sleb128 -360
 14840 511c 3A       		.uleb128 0x3a
 14841 511d 01       		.uleb128 0x1
 14842 511e 51       		.byte	0x51
 14843 511f 01       		.uleb128 0x1
 14844 5120 32       		.byte	0x32
 14845 5121 00       		.byte	0
 14846 5122 00       		.byte	0
 14847 5123 39       		.uleb128 0x39
 14848 5124 E4100000 		.4byte	.LVL320
 14849 5128 1D660000 		.4byte	0x661d
 14850 512c 3A       		.uleb128 0x3a
 14851 512d 01       		.uleb128 0x1
 14852 512e 51       		.byte	0x51
 14853 512f 05       		.uleb128 0x5
 14854 5130 03       		.byte	0x3
 14855 5131 640B0000 		.4byte	.LC126
 14856 5135 3A       		.uleb128 0x3a
 14857 5136 01       		.uleb128 0x1
 14858 5137 52       		.byte	0x52
 14859 5138 03       		.uleb128 0x3
 14860 5139 91       		.byte	0x91
 14861 513a 9C7D     		.sleb128 -356
 14862 513c 00       		.byte	0
 14863 513d 00       		.byte	0
 14864 513e 40       		.uleb128 0x40
 14865 513f 12110000 		.4byte	.LBB152
 14866 5143 4C000000 		.4byte	.LBE152-.LBB152
 14867 5147 A8510000 		.4byte	0x51a8
 14868 514b 49       		.uleb128 0x49
 14869 514c F21F0000 		.4byte	.LASF489
 14870 5150 01       		.byte	0x1
 14871 5151 2A02     		.2byte	0x22a
 14872 5153 25000000 		.4byte	0x25
 14873 5157 03       		.uleb128 0x3
 14874 5158 91       		.byte	0x91
 14875 5159 9C7D     		.sleb128 -356
 14876 515b 40       		.uleb128 0x40
 14877 515c 42110000 		.4byte	.LBB153
 14878 5160 1C000000 		.4byte	.LBE153-.LBB153
 14879 5164 8D510000 		.4byte	0x518d
ARM GAS  /tmp/ccHCUo6g.s 			page 277


 14880 5168 35       		.uleb128 0x35
 14881 5169 72657300 		.ascii	"res\000"
 14882 516d 01       		.byte	0x1
 14883 516e 2E02     		.2byte	0x22e
 14884 5170 2C000000 		.4byte	0x2c
 14885 5174 05060000 		.4byte	.LLST30
 14886 5178 39       		.uleb128 0x39
 14887 5179 4A110000 		.4byte	.LVL324
 14888 517d A1670000 		.4byte	0x67a1
 14889 5181 3A       		.uleb128 0x3a
 14890 5182 01       		.uleb128 0x1
 14891 5183 50       		.byte	0x50
 14892 5184 01       		.uleb128 0x1
 14893 5185 31       		.byte	0x31
 14894 5186 3A       		.uleb128 0x3a
 14895 5187 01       		.uleb128 0x1
 14896 5188 51       		.byte	0x51
 14897 5189 01       		.uleb128 0x1
 14898 518a 31       		.byte	0x31
 14899 518b 00       		.byte	0
 14900 518c 00       		.byte	0
 14901 518d 39       		.uleb128 0x39
 14902 518e 20110000 		.4byte	.LVL323
 14903 5192 1D660000 		.4byte	0x661d
 14904 5196 3A       		.uleb128 0x3a
 14905 5197 01       		.uleb128 0x1
 14906 5198 51       		.byte	0x51
 14907 5199 05       		.uleb128 0x5
 14908 519a 03       		.byte	0x3
 14909 519b 50000000 		.4byte	.LC9
 14910 519f 3A       		.uleb128 0x3a
 14911 51a0 01       		.uleb128 0x1
 14912 51a1 52       		.byte	0x52
 14913 51a2 03       		.uleb128 0x3
 14914 51a3 91       		.byte	0x91
 14915 51a4 9C7D     		.sleb128 -356
 14916 51a6 00       		.byte	0
 14917 51a7 00       		.byte	0
 14918 51a8 48       		.uleb128 0x48
 14919 51a9 68010000 		.4byte	.Ldebug_ranges0+0x168
 14920 51ad C9520000 		.4byte	0x52c9
 14921 51b1 49       		.uleb128 0x49
 14922 51b2 F21F0000 		.4byte	.LASF489
 14923 51b6 01       		.byte	0x1
 14924 51b7 4102     		.2byte	0x241
 14925 51b9 25000000 		.4byte	0x25
 14926 51bd 03       		.uleb128 0x3
 14927 51be 91       		.byte	0x91
 14928 51bf 947D     		.sleb128 -364
 14929 51c1 49       		.uleb128 0x49
 14930 51c2 CF110000 		.4byte	.LASF979
 14931 51c6 01       		.byte	0x1
 14932 51c7 4202     		.2byte	0x242
 14933 51c9 25000000 		.4byte	0x25
 14934 51cd 03       		.uleb128 0x3
 14935 51ce 91       		.byte	0x91
 14936 51cf 987D     		.sleb128 -360
ARM GAS  /tmp/ccHCUo6g.s 			page 278


 14937 51d1 49       		.uleb128 0x49
 14938 51d2 9F020000 		.4byte	.LASF995
 14939 51d6 01       		.byte	0x1
 14940 51d7 4302     		.2byte	0x243
 14941 51d9 25000000 		.4byte	0x25
 14942 51dd 03       		.uleb128 0x3
 14943 51de 91       		.byte	0x91
 14944 51df 9C7D     		.sleb128 -356
 14945 51e1 40       		.uleb128 0x40
 14946 51e2 FE110000 		.4byte	.LBB156
 14947 51e6 5A000000 		.4byte	.LBE156-.LBB156
 14948 51ea 4C520000 		.4byte	0x524c
 14949 51ee 38       		.uleb128 0x38
 14950 51ef DF140000 		.4byte	.LASF996
 14951 51f3 01       		.byte	0x1
 14952 51f4 4F02     		.2byte	0x24f
 14953 51f6 2C000000 		.4byte	0x2c
 14954 51fa 18060000 		.4byte	.LLST31
 14955 51fe 47       		.uleb128 0x47
 14956 51ff FE110000 		.4byte	.LBB157
 14957 5203 5A000000 		.4byte	.LBE157-.LBB157
 14958 5207 35       		.uleb128 0x35
 14959 5208 7400     		.ascii	"t\000"
 14960 520a 01       		.byte	0x1
 14961 520b 5002     		.2byte	0x250
 14962 520d 25000000 		.4byte	0x25
 14963 5211 5A060000 		.4byte	.LLST32
 14964 5215 42       		.uleb128 0x42
 14965 5216 20120000 		.4byte	.LVL335
 14966 521a 48670000 		.4byte	0x6748
 14967 521e 42       		.uleb128 0x42
 14968 521f 2C120000 		.4byte	.LVL336
 14969 5223 AD670000 		.4byte	0x67ad
 14970 5227 41       		.uleb128 0x41
 14971 5228 32120000 		.4byte	.LVL337
 14972 522c 06670000 		.4byte	0x6706
 14973 5230 3A520000 		.4byte	0x523a
 14974 5234 3A       		.uleb128 0x3a
 14975 5235 01       		.uleb128 0x1
 14976 5236 50       		.byte	0x50
 14977 5237 01       		.uleb128 0x1
 14978 5238 44       		.byte	0x44
 14979 5239 00       		.byte	0
 14980 523a 39       		.uleb128 0x39
 14981 523b 52120000 		.4byte	.LVL340
 14982 523f 33660000 		.4byte	0x6633
 14983 5243 3A       		.uleb128 0x3a
 14984 5244 01       		.uleb128 0x1
 14985 5245 50       		.byte	0x50
 14986 5246 02       		.uleb128 0x2
 14987 5247 78       		.byte	0x78
 14988 5248 00       		.sleb128 0
 14989 5249 00       		.byte	0
 14990 524a 00       		.byte	0
 14991 524b 00       		.byte	0
 14992 524c 41       		.uleb128 0x41
 14993 524d 96110000 		.4byte	.LVL330
ARM GAS  /tmp/ccHCUo6g.s 			page 279


 14994 5251 1D660000 		.4byte	0x661d
 14995 5255 69520000 		.4byte	0x5269
 14996 5259 3A       		.uleb128 0x3a
 14997 525a 01       		.uleb128 0x1
 14998 525b 51       		.byte	0x51
 14999 525c 05       		.uleb128 0x5
 15000 525d 03       		.byte	0x3
 15001 525e 50000000 		.4byte	.LC9
 15002 5262 3A       		.uleb128 0x3a
 15003 5263 01       		.uleb128 0x1
 15004 5264 52       		.byte	0x52
 15005 5265 02       		.uleb128 0x2
 15006 5266 76       		.byte	0x76
 15007 5267 00       		.sleb128 0
 15008 5268 00       		.byte	0
 15009 5269 41       		.uleb128 0x41
 15010 526a A0110000 		.4byte	.LVL331
 15011 526e 1D660000 		.4byte	0x661d
 15012 5272 86520000 		.4byte	0x5286
 15013 5276 3A       		.uleb128 0x3a
 15014 5277 01       		.uleb128 0x1
 15015 5278 51       		.byte	0x51
 15016 5279 05       		.uleb128 0x5
 15017 527a 03       		.byte	0x3
 15018 527b 50000000 		.4byte	.LC9
 15019 527f 3A       		.uleb128 0x3a
 15020 5280 01       		.uleb128 0x1
 15021 5281 52       		.byte	0x52
 15022 5282 02       		.uleb128 0x2
 15023 5283 74       		.byte	0x74
 15024 5284 00       		.sleb128 0
 15025 5285 00       		.byte	0
 15026 5286 41       		.uleb128 0x41
 15027 5287 AA110000 		.4byte	.LVL332
 15028 528b 1D660000 		.4byte	0x661d
 15029 528f A3520000 		.4byte	0x52a3
 15030 5293 3A       		.uleb128 0x3a
 15031 5294 01       		.uleb128 0x1
 15032 5295 51       		.byte	0x51
 15033 5296 05       		.uleb128 0x5
 15034 5297 03       		.byte	0x3
 15035 5298 50000000 		.4byte	.LC9
 15036 529c 3A       		.uleb128 0x3a
 15037 529d 01       		.uleb128 0x1
 15038 529e 52       		.byte	0x52
 15039 529f 02       		.uleb128 0x2
 15040 52a0 75       		.byte	0x75
 15041 52a1 00       		.sleb128 0
 15042 52a2 00       		.byte	0
 15043 52a3 42       		.uleb128 0x42
 15044 52a4 66120000 		.4byte	.LVL344
 15045 52a8 48670000 		.4byte	0x6748
 15046 52ac 42       		.uleb128 0x42
 15047 52ad 72120000 		.4byte	.LVL345
 15048 52b1 AD670000 		.4byte	0x67ad
 15049 52b5 39       		.uleb128 0x39
 15050 52b6 78120000 		.4byte	.LVL346
ARM GAS  /tmp/ccHCUo6g.s 			page 280


 15051 52ba 33660000 		.4byte	0x6633
 15052 52be 3A       		.uleb128 0x3a
 15053 52bf 01       		.uleb128 0x1
 15054 52c0 50       		.byte	0x50
 15055 52c1 05       		.uleb128 0x5
 15056 52c2 03       		.byte	0x3
 15057 52c3 240C0000 		.4byte	.LC133
 15058 52c7 00       		.byte	0
 15059 52c8 00       		.byte	0
 15060 52c9 40       		.uleb128 0x40
 15061 52ca 90120000 		.4byte	.LBB162
 15062 52ce 30000000 		.4byte	.LBE162-.LBB162
 15063 52d2 48530000 		.4byte	0x5348
 15064 52d6 49       		.uleb128 0x49
 15065 52d7 7B210000 		.4byte	.LASF997
 15066 52db 01       		.byte	0x1
 15067 52dc 6602     		.2byte	0x266
 15068 52de 25000000 		.4byte	0x25
 15069 52e2 03       		.uleb128 0x3
 15070 52e3 91       		.byte	0x91
 15071 52e4 9C7D     		.sleb128 -356
 15072 52e6 40       		.uleb128 0x40
 15073 52e7 AE120000 		.4byte	.LBB163
 15074 52eb 12000000 		.4byte	.LBE163-.LBB163
 15075 52ef 2D530000 		.4byte	0x532d
 15076 52f3 4D       		.uleb128 0x4d
 15077 52f4 72657300 		.ascii	"res\000"
 15078 52f8 01       		.byte	0x1
 15079 52f9 6B02     		.2byte	0x26b
 15080 52fb 2C000000 		.4byte	0x2c
 15081 52ff 01       		.uleb128 0x1
 15082 5300 55       		.byte	0x55
 15083 5301 41       		.uleb128 0x41
 15084 5302 B4120000 		.4byte	.LVL350
 15085 5306 33660000 		.4byte	0x6633
 15086 530a 18530000 		.4byte	0x5318
 15087 530e 3A       		.uleb128 0x3a
 15088 530f 01       		.uleb128 0x1
 15089 5310 50       		.byte	0x50
 15090 5311 05       		.uleb128 0x5
 15091 5312 03       		.byte	0x3
 15092 5313 580C0000 		.4byte	.LC137
 15093 5317 00       		.byte	0
 15094 5318 39       		.uleb128 0x39
 15095 5319 C0120000 		.4byte	.LVL351
 15096 531d B8670000 		.4byte	0x67b8
 15097 5321 3A       		.uleb128 0x3a
 15098 5322 01       		.uleb128 0x1
 15099 5323 50       		.byte	0x50
 15100 5324 01       		.uleb128 0x1
 15101 5325 31       		.byte	0x31
 15102 5326 3A       		.uleb128 0x3a
 15103 5327 01       		.uleb128 0x1
 15104 5328 51       		.byte	0x51
 15105 5329 01       		.uleb128 0x1
 15106 532a 31       		.byte	0x31
 15107 532b 00       		.byte	0
ARM GAS  /tmp/ccHCUo6g.s 			page 281


 15108 532c 00       		.byte	0
 15109 532d 39       		.uleb128 0x39
 15110 532e 9E120000 		.4byte	.LVL349
 15111 5332 1D660000 		.4byte	0x661d
 15112 5336 3A       		.uleb128 0x3a
 15113 5337 01       		.uleb128 0x1
 15114 5338 51       		.byte	0x51
 15115 5339 05       		.uleb128 0x5
 15116 533a 03       		.byte	0x3
 15117 533b 50000000 		.4byte	.LC9
 15118 533f 3A       		.uleb128 0x3a
 15119 5340 01       		.uleb128 0x1
 15120 5341 52       		.byte	0x52
 15121 5342 03       		.uleb128 0x3
 15122 5343 91       		.byte	0x91
 15123 5344 9C7D     		.sleb128 -356
 15124 5346 00       		.byte	0
 15125 5347 00       		.byte	0
 15126 5348 48       		.uleb128 0x48
 15127 5349 80010000 		.4byte	.Ldebug_ranges0+0x180
 15128 534d CE530000 		.4byte	0x53ce
 15129 5351 38       		.uleb128 0x38
 15130 5352 A71C0000 		.4byte	.LASF998
 15131 5356 01       		.byte	0x1
 15132 5357 9402     		.2byte	0x294
 15133 5359 AF180000 		.4byte	0x18af
 15134 535d 6E060000 		.4byte	.LLST33
 15135 5361 48       		.uleb128 0x48
 15136 5362 98010000 		.4byte	.Ldebug_ranges0+0x198
 15137 5366 A3530000 		.4byte	0x53a3
 15138 536a 35       		.uleb128 0x35
 15139 536b 6900     		.ascii	"i\000"
 15140 536d 01       		.byte	0x1
 15141 536e 9502     		.2byte	0x295
 15142 5370 2C000000 		.4byte	0x2c
 15143 5374 82060000 		.4byte	.LLST34
 15144 5378 41       		.uleb128 0x41
 15145 5379 4E140000 		.4byte	.LVL378
 15146 537d C4670000 		.4byte	0x67c4
 15147 5381 8C530000 		.4byte	0x538c
 15148 5385 3A       		.uleb128 0x3a
 15149 5386 01       		.uleb128 0x1
 15150 5387 50       		.byte	0x50
 15151 5388 02       		.uleb128 0x2
 15152 5389 76       		.byte	0x76
 15153 538a 00       		.sleb128 0
 15154 538b 00       		.byte	0
 15155 538c 39       		.uleb128 0x39
 15156 538d 5A140000 		.4byte	.LVL379
 15157 5391 33660000 		.4byte	0x6633
 15158 5395 3A       		.uleb128 0x3a
 15159 5396 01       		.uleb128 0x1
 15160 5397 50       		.byte	0x50
 15161 5398 02       		.uleb128 0x2
 15162 5399 77       		.byte	0x77
 15163 539a 00       		.sleb128 0
 15164 539b 3A       		.uleb128 0x3a
ARM GAS  /tmp/ccHCUo6g.s 			page 282


 15165 539c 01       		.uleb128 0x1
 15166 539d 51       		.byte	0x51
 15167 539e 02       		.uleb128 0x2
 15168 539f 76       		.byte	0x76
 15169 53a0 00       		.sleb128 0
 15170 53a1 00       		.byte	0
 15171 53a2 00       		.byte	0
 15172 53a3 41       		.uleb128 0x41
 15173 53a4 5E120000 		.4byte	.LVL343
 15174 53a8 33660000 		.4byte	0x6633
 15175 53ac BA530000 		.4byte	0x53ba
 15176 53b0 3A       		.uleb128 0x3a
 15177 53b1 01       		.uleb128 0x1
 15178 53b2 50       		.byte	0x50
 15179 53b3 05       		.uleb128 0x5
 15180 53b4 03       		.byte	0x3
 15181 53b5 380C0000 		.4byte	.LC135
 15182 53b9 00       		.byte	0
 15183 53ba 39       		.uleb128 0x39
 15184 53bb 6E140000 		.4byte	.LVL382
 15185 53bf 33660000 		.4byte	0x6633
 15186 53c3 3A       		.uleb128 0x3a
 15187 53c4 01       		.uleb128 0x1
 15188 53c5 50       		.byte	0x50
 15189 53c6 05       		.uleb128 0x5
 15190 53c7 03       		.byte	0x3
 15191 53c8 E40D0000 		.4byte	.LC151
 15192 53cc 00       		.byte	0
 15193 53cd 00       		.byte	0
 15194 53ce 48       		.uleb128 0x48
 15195 53cf 00000000 		.4byte	.Ldebug_ranges0+0
 15196 53d3 0C560000 		.4byte	0x560c
 15197 53d7 49       		.uleb128 0x49
 15198 53d8 7B210000 		.4byte	.LASF997
 15199 53dc 01       		.byte	0x1
 15200 53dd A302     		.2byte	0x2a3
 15201 53df 25000000 		.4byte	0x25
 15202 53e3 03       		.uleb128 0x3
 15203 53e4 91       		.byte	0x91
 15204 53e5 9C7D     		.sleb128 -356
 15205 53e7 48       		.uleb128 0x48
 15206 53e8 28000000 		.4byte	.Ldebug_ranges0+0x28
 15207 53ec DA550000 		.4byte	0x55da
 15208 53f0 35       		.uleb128 0x35
 15209 53f1 72657300 		.ascii	"res\000"
 15210 53f5 01       		.byte	0x1
 15211 53f6 A802     		.2byte	0x2a8
 15212 53f8 2C000000 		.4byte	0x2c
 15213 53fc 95060000 		.4byte	.LLST3
 15214 5400 41       		.uleb128 0x41
 15215 5401 64110000 		.4byte	.LVL326
 15216 5405 33660000 		.4byte	0x6633
 15217 5409 17540000 		.4byte	0x5417
 15218 540d 3A       		.uleb128 0x3a
 15219 540e 01       		.uleb128 0x1
 15220 540f 50       		.byte	0x50
 15221 5410 05       		.uleb128 0x5
ARM GAS  /tmp/ccHCUo6g.s 			page 283


 15222 5411 03       		.byte	0x3
 15223 5412 F80B0000 		.4byte	.LC131
 15224 5416 00       		.byte	0
 15225 5417 41       		.uleb128 0x41
 15226 5418 CA120000 		.4byte	.LVL354
 15227 541c 33660000 		.4byte	0x6633
 15228 5420 34540000 		.4byte	0x5434
 15229 5424 3A       		.uleb128 0x3a
 15230 5425 01       		.uleb128 0x1
 15231 5426 50       		.byte	0x50
 15232 5427 05       		.uleb128 0x5
 15233 5428 03       		.byte	0x3
 15234 5429 700C0000 		.4byte	.LC138
 15235 542d 3A       		.uleb128 0x3a
 15236 542e 01       		.uleb128 0x1
 15237 542f 51       		.byte	0x51
 15238 5430 02       		.uleb128 0x2
 15239 5431 75       		.byte	0x75
 15240 5432 00       		.sleb128 0
 15241 5433 00       		.byte	0
 15242 5434 41       		.uleb128 0x41
 15243 5435 DE120000 		.4byte	.LVL356
 15244 5439 33660000 		.4byte	0x6633
 15245 543d 4B540000 		.4byte	0x544b
 15246 5441 3A       		.uleb128 0x3a
 15247 5442 01       		.uleb128 0x1
 15248 5443 50       		.byte	0x50
 15249 5444 05       		.uleb128 0x5
 15250 5445 03       		.byte	0x3
 15251 5446 840D0000 		.4byte	.LC147
 15252 544a 00       		.byte	0
 15253 544b 41       		.uleb128 0x41
 15254 544c E4120000 		.4byte	.LVL357
 15255 5450 33660000 		.4byte	0x6633
 15256 5454 62540000 		.4byte	0x5462
 15257 5458 3A       		.uleb128 0x3a
 15258 5459 01       		.uleb128 0x1
 15259 545a 50       		.byte	0x50
 15260 545b 05       		.uleb128 0x5
 15261 545c 03       		.byte	0x3
 15262 545d AC0D0000 		.4byte	.LC148
 15263 5461 00       		.byte	0
 15264 5462 41       		.uleb128 0x41
 15265 5463 EE120000 		.4byte	.LVL359
 15266 5467 33660000 		.4byte	0x6633
 15267 546b 79540000 		.4byte	0x5479
 15268 546f 3A       		.uleb128 0x3a
 15269 5470 01       		.uleb128 0x1
 15270 5471 50       		.byte	0x50
 15271 5472 05       		.uleb128 0x5
 15272 5473 03       		.byte	0x3
 15273 5474 640D0000 		.4byte	.LC146
 15274 5478 00       		.byte	0
 15275 5479 41       		.uleb128 0x41
 15276 547a 88130000 		.4byte	.LVL361
 15277 547e 33660000 		.4byte	0x6633
 15278 5482 90540000 		.4byte	0x5490
ARM GAS  /tmp/ccHCUo6g.s 			page 284


 15279 5486 3A       		.uleb128 0x3a
 15280 5487 01       		.uleb128 0x1
 15281 5488 50       		.byte	0x50
 15282 5489 05       		.uleb128 0x5
 15283 548a 03       		.byte	0x3
 15284 548b 780C0000 		.4byte	.LC139
 15285 548f 00       		.byte	0
 15286 5490 42       		.uleb128 0x42
 15287 5491 8C130000 		.4byte	.LVL362
 15288 5495 CF670000 		.4byte	0x67cf
 15289 5499 41       		.uleb128 0x41
 15290 549a 98130000 		.4byte	.LVL363
 15291 549e 0E660000 		.4byte	0x660e
 15292 54a2 B4540000 		.4byte	0x54b4
 15293 54a6 3A       		.uleb128 0x3a
 15294 54a7 01       		.uleb128 0x1
 15295 54a8 50       		.byte	0x50
 15296 54a9 02       		.uleb128 0x2
 15297 54aa 74       		.byte	0x74
 15298 54ab 00       		.sleb128 0
 15299 54ac 3A       		.uleb128 0x3a
 15300 54ad 01       		.uleb128 0x1
 15301 54ae 52       		.byte	0x52
 15302 54af 03       		.uleb128 0x3
 15303 54b0 0A       		.byte	0xa
 15304 54b1 C801     		.2byte	0x1c8
 15305 54b3 00       		.byte	0
 15306 54b4 41       		.uleb128 0x41
 15307 54b5 A8130000 		.4byte	.LVL365
 15308 54b9 33660000 		.4byte	0x6633
 15309 54bd CB540000 		.4byte	0x54cb
 15310 54c1 3A       		.uleb128 0x3a
 15311 54c2 01       		.uleb128 0x1
 15312 54c3 50       		.byte	0x50
 15313 54c4 05       		.uleb128 0x5
 15314 54c5 03       		.byte	0x3
 15315 54c6 A40C0000 		.4byte	.LC140
 15316 54ca 00       		.byte	0
 15317 54cb 41       		.uleb128 0x41
 15318 54cc C2130000 		.4byte	.LVL367
 15319 54d0 33660000 		.4byte	0x6633
 15320 54d4 E2540000 		.4byte	0x54e2
 15321 54d8 3A       		.uleb128 0x3a
 15322 54d9 01       		.uleb128 0x1
 15323 54da 50       		.byte	0x50
 15324 54db 05       		.uleb128 0x5
 15325 54dc 03       		.byte	0x3
 15326 54dd C40C0000 		.4byte	.LC141
 15327 54e1 00       		.byte	0
 15328 54e2 41       		.uleb128 0x41
 15329 54e3 E0130000 		.4byte	.LVL369
 15330 54e7 33660000 		.4byte	0x6633
 15331 54eb F9540000 		.4byte	0x54f9
 15332 54ef 3A       		.uleb128 0x3a
 15333 54f0 01       		.uleb128 0x1
 15334 54f1 50       		.byte	0x50
 15335 54f2 05       		.uleb128 0x5
ARM GAS  /tmp/ccHCUo6g.s 			page 285


 15336 54f3 03       		.byte	0x3
 15337 54f4 E40C0000 		.4byte	.LC142
 15338 54f8 00       		.byte	0
 15339 54f9 41       		.uleb128 0x41
 15340 54fa FA130000 		.4byte	.LVL371
 15341 54fe 33660000 		.4byte	0x6633
 15342 5502 10550000 		.4byte	0x5510
 15343 5506 3A       		.uleb128 0x3a
 15344 5507 01       		.uleb128 0x1
 15345 5508 50       		.byte	0x50
 15346 5509 05       		.uleb128 0x5
 15347 550a 03       		.byte	0x3
 15348 550b 080D0000 		.4byte	.LC143
 15349 550f 00       		.byte	0
 15350 5510 41       		.uleb128 0x41
 15351 5511 10140000 		.4byte	.LVL372
 15352 5515 33660000 		.4byte	0x6633
 15353 5519 27550000 		.4byte	0x5527
 15354 551d 3A       		.uleb128 0x3a
 15355 551e 01       		.uleb128 0x1
 15356 551f 50       		.byte	0x50
 15357 5520 05       		.uleb128 0x5
 15358 5521 03       		.byte	0x3
 15359 5522 280D0000 		.4byte	.LC144
 15360 5526 00       		.byte	0
 15361 5527 41       		.uleb128 0x41
 15362 5528 28140000 		.4byte	.LVL374
 15363 552c 33660000 		.4byte	0x6633
 15364 5530 3E550000 		.4byte	0x553e
 15365 5534 3A       		.uleb128 0x3a
 15366 5535 01       		.uleb128 0x1
 15367 5536 50       		.byte	0x50
 15368 5537 05       		.uleb128 0x5
 15369 5538 03       		.byte	0x3
 15370 5539 440D0000 		.4byte	.LC145
 15371 553d 00       		.byte	0
 15372 553e 41       		.uleb128 0x41
 15373 553f A6140000 		.4byte	.LVL386
 15374 5543 33660000 		.4byte	0x6633
 15375 5547 55550000 		.4byte	0x5555
 15376 554b 3A       		.uleb128 0x3a
 15377 554c 01       		.uleb128 0x1
 15378 554d 50       		.byte	0x50
 15379 554e 05       		.uleb128 0x5
 15380 554f 03       		.byte	0x3
 15381 5550 580C0000 		.4byte	.LC137
 15382 5554 00       		.byte	0
 15383 5555 41       		.uleb128 0x41
 15384 5556 C0140000 		.4byte	.LVL387
 15385 555a DA670000 		.4byte	0x67da
 15386 555e 98550000 		.4byte	0x5598
 15387 5562 3A       		.uleb128 0x3a
 15388 5563 01       		.uleb128 0x1
 15389 5564 50       		.byte	0x50
 15390 5565 01       		.uleb128 0x1
 15391 5566 31       		.byte	0x31
 15392 5567 3A       		.uleb128 0x3a
ARM GAS  /tmp/ccHCUo6g.s 			page 286


 15393 5568 02       		.uleb128 0x2
 15394 5569 90       		.byte	0x90
 15395 556a 41       		.uleb128 0x41
 15396 556b 07       		.uleb128 0x7
 15397 556c F4       		.byte	0xf4
 15398 556d 25       		.uleb128 0x25
 15399 556e 04       		.byte	0x4
 15400 556f 00000000 		.4byte	0
 15401 5573 3A       		.uleb128 0x3a
 15402 5574 02       		.uleb128 0x2
 15403 5575 90       		.byte	0x90
 15404 5576 42       		.uleb128 0x42
 15405 5577 07       		.uleb128 0x7
 15406 5578 F4       		.byte	0xf4
 15407 5579 25       		.uleb128 0x25
 15408 557a 04       		.byte	0x4
 15409 557b 00000000 		.4byte	0
 15410 557f 3A       		.uleb128 0x3a
 15411 5580 02       		.uleb128 0x2
 15412 5581 90       		.byte	0x90
 15413 5582 43       		.uleb128 0x43
 15414 5583 07       		.uleb128 0x7
 15415 5584 F4       		.byte	0xf4
 15416 5585 25       		.uleb128 0x25
 15417 5586 04       		.byte	0x4
 15418 5587 00000000 		.4byte	0
 15419 558b 3A       		.uleb128 0x3a
 15420 558c 02       		.uleb128 0x2
 15421 558d 90       		.byte	0x90
 15422 558e 44       		.uleb128 0x44
 15423 558f 07       		.uleb128 0x7
 15424 5590 F4       		.byte	0xf4
 15425 5591 25       		.uleb128 0x25
 15426 5592 04       		.byte	0x4
 15427 5593 00000000 		.4byte	0
 15428 5597 00       		.byte	0
 15429 5598 41       		.uleb128 0x41
 15430 5599 C8140000 		.4byte	.LVL389
 15431 559d 33660000 		.4byte	0x6633
 15432 55a1 AF550000 		.4byte	0x55af
 15433 55a5 3A       		.uleb128 0x3a
 15434 55a6 01       		.uleb128 0x1
 15435 55a7 50       		.byte	0x50
 15436 55a8 05       		.uleb128 0x5
 15437 55a9 03       		.byte	0x3
 15438 55aa B00B0000 		.4byte	.LC129
 15439 55ae 00       		.byte	0
 15440 55af 41       		.uleb128 0x41
 15441 55b0 D2140000 		.4byte	.LVL390
 15442 55b4 33660000 		.4byte	0x6633
 15443 55b8 C6550000 		.4byte	0x55c6
 15444 55bc 3A       		.uleb128 0x3a
 15445 55bd 01       		.uleb128 0x1
 15446 55be 50       		.byte	0x50
 15447 55bf 05       		.uleb128 0x5
 15448 55c0 03       		.byte	0x3
 15449 55c1 D40B0000 		.4byte	.LC130
ARM GAS  /tmp/ccHCUo6g.s 			page 287


 15450 55c5 00       		.byte	0
 15451 55c6 39       		.uleb128 0x39
 15452 55c7 DC140000 		.4byte	.LVL391
 15453 55cb 33660000 		.4byte	0x6633
 15454 55cf 3A       		.uleb128 0x3a
 15455 55d0 01       		.uleb128 0x1
 15456 55d1 50       		.byte	0x50
 15457 55d2 05       		.uleb128 0x5
 15458 55d3 03       		.byte	0x3
 15459 55d4 840B0000 		.4byte	.LC128
 15460 55d8 00       		.byte	0
 15461 55d9 00       		.byte	0
 15462 55da 41       		.uleb128 0x41
 15463 55db FA000000 		.4byte	.LVL25
 15464 55df 33660000 		.4byte	0x6633
 15465 55e3 F1550000 		.4byte	0x55f1
 15466 55e7 3A       		.uleb128 0x3a
 15467 55e8 01       		.uleb128 0x1
 15468 55e9 50       		.byte	0x50
 15469 55ea 05       		.uleb128 0x5
 15470 55eb 03       		.byte	0x3
 15471 55ec 5C000000 		.4byte	.LC11
 15472 55f0 00       		.byte	0
 15473 55f1 39       		.uleb128 0x39
 15474 55f2 90140000 		.4byte	.LVL385
 15475 55f6 1D660000 		.4byte	0x661d
 15476 55fa 3A       		.uleb128 0x3a
 15477 55fb 01       		.uleb128 0x1
 15478 55fc 51       		.byte	0x51
 15479 55fd 05       		.uleb128 0x5
 15480 55fe 03       		.byte	0x3
 15481 55ff 50000000 		.4byte	.LC9
 15482 5603 3A       		.uleb128 0x3a
 15483 5604 01       		.uleb128 0x1
 15484 5605 52       		.byte	0x52
 15485 5606 03       		.uleb128 0x3
 15486 5607 91       		.byte	0x91
 15487 5608 9C7D     		.sleb128 -356
 15488 560a 00       		.byte	0
 15489 560b 00       		.byte	0
 15490 560c 48       		.uleb128 0x48
 15491 560d E0010000 		.4byte	.Ldebug_ranges0+0x1e0
 15492 5611 69560000 		.4byte	0x5669
 15493 5615 35       		.uleb128 0x35
 15494 5616 6900     		.ascii	"i\000"
 15495 5618 01       		.byte	0x1
 15496 5619 5903     		.2byte	0x359
 15497 561b 2C000000 		.4byte	0x2c
 15498 561f D6060000 		.4byte	.LLST37
 15499 5623 41       		.uleb128 0x41
 15500 5624 28180000 		.4byte	.LVL493
 15501 5628 33660000 		.4byte	0x6633
 15502 562c 37560000 		.4byte	0x5637
 15503 5630 3A       		.uleb128 0x3a
 15504 5631 01       		.uleb128 0x1
 15505 5632 50       		.byte	0x50
 15506 5633 02       		.uleb128 0x2
ARM GAS  /tmp/ccHCUo6g.s 			page 288


 15507 5634 75       		.byte	0x75
 15508 5635 00       		.sleb128 0
 15509 5636 00       		.byte	0
 15510 5637 41       		.uleb128 0x41
 15511 5638 34180000 		.4byte	.LVL494
 15512 563c 33660000 		.4byte	0x6633
 15513 5640 4B560000 		.4byte	0x564b
 15514 5644 3A       		.uleb128 0x3a
 15515 5645 01       		.uleb128 0x1
 15516 5646 50       		.byte	0x50
 15517 5647 02       		.uleb128 0x2
 15518 5648 77       		.byte	0x77
 15519 5649 00       		.sleb128 0
 15520 564a 00       		.byte	0
 15521 564b 41       		.uleb128 0x41
 15522 564c 7A180000 		.4byte	.LVL506
 15523 5650 33660000 		.4byte	0x6633
 15524 5654 5F560000 		.4byte	0x565f
 15525 5658 3A       		.uleb128 0x3a
 15526 5659 01       		.uleb128 0x1
 15527 565a 50       		.byte	0x50
 15528 565b 02       		.uleb128 0x2
 15529 565c 78       		.byte	0x78
 15530 565d 00       		.sleb128 0
 15531 565e 00       		.byte	0
 15532 565f 42       		.uleb128 0x42
 15533 5660 82180000 		.4byte	.LVL507
 15534 5664 33660000 		.4byte	0x6633
 15535 5668 00       		.byte	0
 15536 5669 48       		.uleb128 0x48
 15537 566a B0010000 		.4byte	.Ldebug_ranges0+0x1b0
 15538 566e DB560000 		.4byte	0x56db
 15539 5672 38       		.uleb128 0x38
 15540 5673 A71C0000 		.4byte	.LASF998
 15541 5677 01       		.byte	0x1
 15542 5678 6D03     		.2byte	0x36d
 15543 567a AF180000 		.4byte	0x18af
 15544 567e F4060000 		.4byte	.LLST35
 15545 5682 48       		.uleb128 0x48
 15546 5683 C8010000 		.4byte	.Ldebug_ranges0+0x1c8
 15547 5687 C1560000 		.4byte	0x56c1
 15548 568b 35       		.uleb128 0x35
 15549 568c 6900     		.ascii	"i\000"
 15550 568e 01       		.byte	0x1
 15551 568f 6E03     		.2byte	0x36e
 15552 5691 2C000000 		.4byte	0x2c
 15553 5695 14070000 		.4byte	.LLST36
 15554 5699 41       		.uleb128 0x41
 15555 569a 8A150000 		.4byte	.LVL408
 15556 569e 03660000 		.4byte	0x6603
 15557 56a2 AD560000 		.4byte	0x56ad
 15558 56a6 3A       		.uleb128 0x3a
 15559 56a7 01       		.uleb128 0x1
 15560 56a8 50       		.byte	0x50
 15561 56a9 02       		.uleb128 0x2
 15562 56aa 75       		.byte	0x75
 15563 56ab 00       		.sleb128 0
ARM GAS  /tmp/ccHCUo6g.s 			page 289


 15564 56ac 00       		.byte	0
 15565 56ad 4F       		.uleb128 0x4f
 15566 56ae 70180000 		.4byte	.LVL504
 15567 56b2 3A       		.uleb128 0x3a
 15568 56b3 01       		.uleb128 0x1
 15569 56b4 50       		.byte	0x50
 15570 56b5 02       		.uleb128 0x2
 15571 56b6 74       		.byte	0x74
 15572 56b7 00       		.sleb128 0
 15573 56b8 3A       		.uleb128 0x3a
 15574 56b9 01       		.uleb128 0x1
 15575 56ba 51       		.byte	0x51
 15576 56bb 03       		.uleb128 0x3
 15577 56bc 91       		.byte	0x91
 15578 56bd B87D     		.sleb128 -328
 15579 56bf 00       		.byte	0
 15580 56c0 00       		.byte	0
 15581 56c1 39       		.uleb128 0x39
 15582 56c2 9C150000 		.4byte	.LVL411
 15583 56c6 33660000 		.4byte	0x6633
 15584 56ca 3A       		.uleb128 0x3a
 15585 56cb 01       		.uleb128 0x1
 15586 56cc 50       		.byte	0x50
 15587 56cd 05       		.uleb128 0x5
 15588 56ce 03       		.byte	0x3
 15589 56cf 181A0000 		.4byte	.LC219
 15590 56d3 3A       		.uleb128 0x3a
 15591 56d4 01       		.uleb128 0x1
 15592 56d5 51       		.byte	0x51
 15593 56d6 02       		.uleb128 0x2
 15594 56d7 75       		.byte	0x75
 15595 56d8 00       		.sleb128 0
 15596 56d9 00       		.byte	0
 15597 56da 00       		.byte	0
 15598 56db 41       		.uleb128 0x41
 15599 56dc 10000000 		.4byte	.LVL1
 15600 56e0 E6670000 		.4byte	0x67e6
 15601 56e4 F9560000 		.4byte	0x56f9
 15602 56e8 3A       		.uleb128 0x3a
 15603 56e9 01       		.uleb128 0x1
 15604 56ea 50       		.byte	0x50
 15605 56eb 03       		.uleb128 0x3
 15606 56ec F3       		.byte	0xf3
 15607 56ed 01       		.uleb128 0x1
 15608 56ee 50       		.byte	0x50
 15609 56ef 3A       		.uleb128 0x3a
 15610 56f0 01       		.uleb128 0x1
 15611 56f1 51       		.byte	0x51
 15612 56f2 05       		.uleb128 0x5
 15613 56f3 03       		.byte	0x3
 15614 56f4 18000000 		.4byte	.LC4
 15615 56f8 00       		.byte	0
 15616 56f9 41       		.uleb128 0x41
 15617 56fa 2E000000 		.4byte	.LVL5
 15618 56fe E6670000 		.4byte	0x67e6
 15619 5702 12570000 		.4byte	0x5712
 15620 5706 3A       		.uleb128 0x3a
ARM GAS  /tmp/ccHCUo6g.s 			page 290


 15621 5707 01       		.uleb128 0x1
 15622 5708 50       		.byte	0x50
 15623 5709 01       		.uleb128 0x1
 15624 570a 30       		.byte	0x30
 15625 570b 3A       		.uleb128 0x3a
 15626 570c 01       		.uleb128 0x1
 15627 570d 51       		.byte	0x51
 15628 570e 02       		.uleb128 0x2
 15629 570f 76       		.byte	0x76
 15630 5710 00       		.sleb128 0
 15631 5711 00       		.byte	0
 15632 5712 42       		.uleb128 0x42
 15633 5713 3A000000 		.4byte	.LVL7
 15634 5717 CF670000 		.4byte	0x67cf
 15635 571b 41       		.uleb128 0x41
 15636 571c 46000000 		.4byte	.LVL8
 15637 5720 0E660000 		.4byte	0x660e
 15638 5724 39570000 		.4byte	0x5739
 15639 5728 3A       		.uleb128 0x3a
 15640 5729 01       		.uleb128 0x1
 15641 572a 50       		.byte	0x50
 15642 572b 05       		.uleb128 0x5
 15643 572c 03       		.byte	0x3
 15644 572d 00000000 		.4byte	.LANCHOR0
 15645 5731 3A       		.uleb128 0x3a
 15646 5732 01       		.uleb128 0x1
 15647 5733 52       		.byte	0x52
 15648 5734 03       		.uleb128 0x3
 15649 5735 0A       		.byte	0xa
 15650 5736 C801     		.2byte	0x1c8
 15651 5738 00       		.byte	0
 15652 5739 41       		.uleb128 0x41
 15653 573a 52000000 		.4byte	.LVL9
 15654 573e 0E660000 		.4byte	0x660e
 15655 5742 60570000 		.4byte	0x5760
 15656 5746 3A       		.uleb128 0x3a
 15657 5747 01       		.uleb128 0x1
 15658 5748 50       		.byte	0x50
 15659 5749 05       		.uleb128 0x5
 15660 574a 03       		.byte	0x3
 15661 574b 00000000 		.4byte	.LANCHOR1
 15662 574f 3A       		.uleb128 0x3a
 15663 5750 01       		.uleb128 0x1
 15664 5751 51       		.byte	0x51
 15665 5752 05       		.uleb128 0x5
 15666 5753 03       		.byte	0x3
 15667 5754 00000000 		.4byte	.LANCHOR0
 15668 5758 3A       		.uleb128 0x3a
 15669 5759 01       		.uleb128 0x1
 15670 575a 52       		.byte	0x52
 15671 575b 03       		.uleb128 0x3
 15672 575c 0A       		.byte	0xa
 15673 575d C801     		.2byte	0x1c8
 15674 575f 00       		.byte	0
 15675 5760 41       		.uleb128 0x41
 15676 5761 5C000000 		.4byte	.LVL10
 15677 5765 03660000 		.4byte	0x6603
ARM GAS  /tmp/ccHCUo6g.s 			page 291


 15678 5769 7D570000 		.4byte	0x577d
 15679 576d 3A       		.uleb128 0x3a
 15680 576e 01       		.uleb128 0x1
 15681 576f 50       		.byte	0x50
 15682 5770 02       		.uleb128 0x2
 15683 5771 75       		.byte	0x75
 15684 5772 00       		.sleb128 0
 15685 5773 3A       		.uleb128 0x3a
 15686 5774 01       		.uleb128 0x1
 15687 5775 51       		.byte	0x51
 15688 5776 05       		.uleb128 0x5
 15689 5777 03       		.byte	0x3
 15690 5778 34000000 		.4byte	.LC6
 15691 577c 00       		.byte	0
 15692 577d 41       		.uleb128 0x41
 15693 577e 68000000 		.4byte	.LVL11
 15694 5782 03660000 		.4byte	0x6603
 15695 5786 9A570000 		.4byte	0x579a
 15696 578a 3A       		.uleb128 0x3a
 15697 578b 01       		.uleb128 0x1
 15698 578c 50       		.byte	0x50
 15699 578d 02       		.uleb128 0x2
 15700 578e 75       		.byte	0x75
 15701 578f 00       		.sleb128 0
 15702 5790 3A       		.uleb128 0x3a
 15703 5791 01       		.uleb128 0x1
 15704 5792 51       		.byte	0x51
 15705 5793 05       		.uleb128 0x5
 15706 5794 03       		.byte	0x3
 15707 5795 44000000 		.4byte	.LC8
 15708 5799 00       		.byte	0
 15709 579a 41       		.uleb128 0x41
 15710 579b 74000000 		.4byte	.LVL12
 15711 579f 03660000 		.4byte	0x6603
 15712 57a3 B7570000 		.4byte	0x57b7
 15713 57a7 3A       		.uleb128 0x3a
 15714 57a8 01       		.uleb128 0x1
 15715 57a9 50       		.byte	0x50
 15716 57aa 02       		.uleb128 0x2
 15717 57ab 75       		.byte	0x75
 15718 57ac 00       		.sleb128 0
 15719 57ad 3A       		.uleb128 0x3a
 15720 57ae 01       		.uleb128 0x1
 15721 57af 51       		.byte	0x51
 15722 57b0 05       		.uleb128 0x5
 15723 57b1 03       		.byte	0x3
 15724 57b2 74000000 		.4byte	.LC12
 15725 57b6 00       		.byte	0
 15726 57b7 41       		.uleb128 0x41
 15727 57b8 80000000 		.4byte	.LVL13
 15728 57bc 03660000 		.4byte	0x6603
 15729 57c0 D4570000 		.4byte	0x57d4
 15730 57c4 3A       		.uleb128 0x3a
 15731 57c5 01       		.uleb128 0x1
 15732 57c6 50       		.byte	0x50
 15733 57c7 02       		.uleb128 0x2
 15734 57c8 75       		.byte	0x75
ARM GAS  /tmp/ccHCUo6g.s 			page 292


 15735 57c9 00       		.sleb128 0
 15736 57ca 3A       		.uleb128 0x3a
 15737 57cb 01       		.uleb128 0x1
 15738 57cc 51       		.byte	0x51
 15739 57cd 05       		.uleb128 0x5
 15740 57ce 03       		.byte	0x3
 15741 57cf 8C000000 		.4byte	.LC14
 15742 57d3 00       		.byte	0
 15743 57d4 41       		.uleb128 0x41
 15744 57d5 8C000000 		.4byte	.LVL14
 15745 57d9 03660000 		.4byte	0x6603
 15746 57dd F1570000 		.4byte	0x57f1
 15747 57e1 3A       		.uleb128 0x3a
 15748 57e2 01       		.uleb128 0x1
 15749 57e3 50       		.byte	0x50
 15750 57e4 02       		.uleb128 0x2
 15751 57e5 75       		.byte	0x75
 15752 57e6 00       		.sleb128 0
 15753 57e7 3A       		.uleb128 0x3a
 15754 57e8 01       		.uleb128 0x1
 15755 57e9 51       		.byte	0x51
 15756 57ea 05       		.uleb128 0x5
 15757 57eb 03       		.byte	0x3
 15758 57ec 10010000 		.4byte	.LC18
 15759 57f0 00       		.byte	0
 15760 57f1 41       		.uleb128 0x41
 15761 57f2 9A000000 		.4byte	.LVL15
 15762 57f6 03660000 		.4byte	0x6603
 15763 57fa 0E580000 		.4byte	0x580e
 15764 57fe 3A       		.uleb128 0x3a
 15765 57ff 01       		.uleb128 0x1
 15766 5800 50       		.byte	0x50
 15767 5801 02       		.uleb128 0x2
 15768 5802 75       		.byte	0x75
 15769 5803 00       		.sleb128 0
 15770 5804 3A       		.uleb128 0x3a
 15771 5805 01       		.uleb128 0x1
 15772 5806 51       		.byte	0x51
 15773 5807 05       		.uleb128 0x5
 15774 5808 03       		.byte	0x3
 15775 5809 34010000 		.4byte	.LC20
 15776 580d 00       		.byte	0
 15777 580e 41       		.uleb128 0x41
 15778 580f A6000000 		.4byte	.LVL16
 15779 5813 03660000 		.4byte	0x6603
 15780 5817 2B580000 		.4byte	0x582b
 15781 581b 3A       		.uleb128 0x3a
 15782 581c 01       		.uleb128 0x1
 15783 581d 50       		.byte	0x50
 15784 581e 02       		.uleb128 0x2
 15785 581f 75       		.byte	0x75
 15786 5820 00       		.sleb128 0
 15787 5821 3A       		.uleb128 0x3a
 15788 5822 01       		.uleb128 0x1
 15789 5823 51       		.byte	0x51
 15790 5824 05       		.uleb128 0x5
 15791 5825 03       		.byte	0x3
ARM GAS  /tmp/ccHCUo6g.s 			page 293


 15792 5826 8C010000 		.4byte	.LC24
 15793 582a 00       		.byte	0
 15794 582b 41       		.uleb128 0x41
 15795 582c B4000000 		.4byte	.LVL17
 15796 5830 03660000 		.4byte	0x6603
 15797 5834 48580000 		.4byte	0x5848
 15798 5838 3A       		.uleb128 0x3a
 15799 5839 01       		.uleb128 0x1
 15800 583a 50       		.byte	0x50
 15801 583b 02       		.uleb128 0x2
 15802 583c 75       		.byte	0x75
 15803 583d 00       		.sleb128 0
 15804 583e 3A       		.uleb128 0x3a
 15805 583f 01       		.uleb128 0x1
 15806 5840 51       		.byte	0x51
 15807 5841 05       		.uleb128 0x5
 15808 5842 03       		.byte	0x3
 15809 5843 44020000 		.4byte	.LC28
 15810 5847 00       		.byte	0
 15811 5848 41       		.uleb128 0x41
 15812 5849 C2000000 		.4byte	.LVL18
 15813 584d 03660000 		.4byte	0x6603
 15814 5851 65580000 		.4byte	0x5865
 15815 5855 3A       		.uleb128 0x3a
 15816 5856 01       		.uleb128 0x1
 15817 5857 50       		.byte	0x50
 15818 5858 02       		.uleb128 0x2
 15819 5859 75       		.byte	0x75
 15820 585a 00       		.sleb128 0
 15821 585b 3A       		.uleb128 0x3a
 15822 585c 01       		.uleb128 0x1
 15823 585d 51       		.byte	0x51
 15824 585e 05       		.uleb128 0x5
 15825 585f 03       		.byte	0x3
 15826 5860 50020000 		.4byte	.LC30
 15827 5864 00       		.byte	0
 15828 5865 41       		.uleb128 0x41
 15829 5866 DE000000 		.4byte	.LVL19
 15830 586a 33660000 		.4byte	0x6633
 15831 586e 7C580000 		.4byte	0x587c
 15832 5872 3A       		.uleb128 0x3a
 15833 5873 01       		.uleb128 0x1
 15834 5874 50       		.byte	0x50
 15835 5875 05       		.uleb128 0x5
 15836 5876 03       		.byte	0x3
 15837 5877 58020000 		.4byte	.LC31
 15838 587b 00       		.byte	0
 15839 587c 41       		.uleb128 0x41
 15840 587d E6000000 		.4byte	.LVL22
 15841 5881 33660000 		.4byte	0x6633
 15842 5885 93580000 		.4byte	0x5893
 15843 5889 3A       		.uleb128 0x3a
 15844 588a 01       		.uleb128 0x1
 15845 588b 50       		.byte	0x50
 15846 588c 05       		.uleb128 0x5
 15847 588d 03       		.byte	0x3
 15848 588e 1C000000 		.4byte	.LC5
ARM GAS  /tmp/ccHCUo6g.s 			page 294


 15849 5892 00       		.byte	0
 15850 5893 41       		.uleb128 0x41
 15851 5894 0A010000 		.4byte	.LVL27
 15852 5898 33660000 		.4byte	0x6633
 15853 589c AA580000 		.4byte	0x58aa
 15854 58a0 3A       		.uleb128 0x3a
 15855 58a1 01       		.uleb128 0x1
 15856 58a2 50       		.byte	0x50
 15857 58a3 05       		.uleb128 0x5
 15858 58a4 03       		.byte	0x3
 15859 58a5 3C000000 		.4byte	.LC7
 15860 58a9 00       		.byte	0
 15861 58aa 41       		.uleb128 0x41
 15862 58ab 4A010000 		.4byte	.LVL32
 15863 58af FB660000 		.4byte	0x66fb
 15864 58b3 C4580000 		.4byte	0x58c4
 15865 58b7 3A       		.uleb128 0x3a
 15866 58b8 02       		.uleb128 0x2
 15867 58b9 90       		.byte	0x90
 15868 58ba 40       		.uleb128 0x40
 15869 58bb 07       		.uleb128 0x7
 15870 58bc F4       		.byte	0xf4
 15871 58bd 25       		.uleb128 0x25
 15872 58be 04       		.byte	0x4
 15873 58bf 00000000 		.4byte	0
 15874 58c3 00       		.byte	0
 15875 58c4 41       		.uleb128 0x41
 15876 58c5 50010000 		.4byte	.LVL33
 15877 58c9 33660000 		.4byte	0x6633
 15878 58cd DB580000 		.4byte	0x58db
 15879 58d1 3A       		.uleb128 0x3a
 15880 58d2 01       		.uleb128 0x1
 15881 58d3 50       		.byte	0x50
 15882 58d4 05       		.uleb128 0x5
 15883 58d5 03       		.byte	0x3
 15884 58d6 7C000000 		.4byte	.LC13
 15885 58da 00       		.byte	0
 15886 58db 42       		.uleb128 0x42
 15887 58dc 7C010000 		.4byte	.LVL41
 15888 58e0 F1670000 		.4byte	0x67f1
 15889 58e4 41       		.uleb128 0x41
 15890 58e5 96010000 		.4byte	.LVL43
 15891 58e9 33660000 		.4byte	0x6633
 15892 58ed FB580000 		.4byte	0x58fb
 15893 58f1 3A       		.uleb128 0x3a
 15894 58f2 01       		.uleb128 0x1
 15895 58f3 50       		.byte	0x50
 15896 58f4 05       		.uleb128 0x5
 15897 58f5 03       		.byte	0x3
 15898 58f6 A0000000 		.4byte	.LC15
 15899 58fa 00       		.byte	0
 15900 58fb 42       		.uleb128 0x42
 15901 58fc 9A010000 		.4byte	.LVL44
 15902 5900 FC670000 		.4byte	0x67fc
 15903 5904 41       		.uleb128 0x41
 15904 5905 B0010000 		.4byte	.LVL46
 15905 5909 33660000 		.4byte	0x6633
ARM GAS  /tmp/ccHCUo6g.s 			page 295


 15906 590d 1B590000 		.4byte	0x591b
 15907 5911 3A       		.uleb128 0x3a
 15908 5912 01       		.uleb128 0x1
 15909 5913 50       		.byte	0x50
 15910 5914 05       		.uleb128 0x5
 15911 5915 03       		.byte	0x3
 15912 5916 C0000000 		.4byte	.LC16
 15913 591a 00       		.byte	0
 15914 591b 42       		.uleb128 0x42
 15915 591c B4010000 		.4byte	.LVL47
 15916 5920 07680000 		.4byte	0x6807
 15917 5924 41       		.uleb128 0x41
 15918 5925 CA010000 		.4byte	.LVL49
 15919 5929 33660000 		.4byte	0x6633
 15920 592d 3B590000 		.4byte	0x593b
 15921 5931 3A       		.uleb128 0x3a
 15922 5932 01       		.uleb128 0x1
 15923 5933 50       		.byte	0x50
 15924 5934 05       		.uleb128 0x5
 15925 5935 03       		.byte	0x3
 15926 5936 E8000000 		.4byte	.LC17
 15927 593a 00       		.byte	0
 15928 593b 42       		.uleb128 0x42
 15929 593c D0010000 		.4byte	.LVL50
 15930 5940 12680000 		.4byte	0x6812
 15931 5944 41       		.uleb128 0x41
 15932 5945 E2010000 		.4byte	.LVL52
 15933 5949 33660000 		.4byte	0x6633
 15934 594d 5B590000 		.4byte	0x595b
 15935 5951 3A       		.uleb128 0x3a
 15936 5952 01       		.uleb128 0x1
 15937 5953 50       		.byte	0x50
 15938 5954 05       		.uleb128 0x5
 15939 5955 03       		.byte	0x3
 15940 5956 14010000 		.4byte	.LC19
 15941 595a 00       		.byte	0
 15942 595b 41       		.uleb128 0x41
 15943 595c 60020000 		.4byte	.LVL62
 15944 5960 33660000 		.4byte	0x6633
 15945 5964 72590000 		.4byte	0x5972
 15946 5968 3A       		.uleb128 0x3a
 15947 5969 01       		.uleb128 0x1
 15948 596a 50       		.byte	0x50
 15949 596b 05       		.uleb128 0x5
 15950 596c 03       		.byte	0x3
 15951 596d 18000000 		.4byte	.LC4
 15952 5971 00       		.byte	0
 15953 5972 42       		.uleb128 0x42
 15954 5973 66020000 		.4byte	.LVL64
 15955 5977 1D680000 		.4byte	0x681d
 15956 597b 42       		.uleb128 0x42
 15957 597c 6A020000 		.4byte	.LVL65
 15958 5980 6A660000 		.4byte	0x666a
 15959 5984 41       		.uleb128 0x41
 15960 5985 72020000 		.4byte	.LVL66
 15961 5989 33660000 		.4byte	0x6633
 15962 598d 9B590000 		.4byte	0x599b
ARM GAS  /tmp/ccHCUo6g.s 			page 296


 15963 5991 3A       		.uleb128 0x3a
 15964 5992 01       		.uleb128 0x1
 15965 5993 50       		.byte	0x50
 15966 5994 05       		.uleb128 0x5
 15967 5995 03       		.byte	0x3
 15968 5996 4C020000 		.4byte	.LC29
 15969 599a 00       		.byte	0
 15970 599b 41       		.uleb128 0x41
 15971 599c 7C020000 		.4byte	.LVL67
 15972 59a0 03660000 		.4byte	0x6603
 15973 59a4 B8590000 		.4byte	0x59b8
 15974 59a8 3A       		.uleb128 0x3a
 15975 59a9 01       		.uleb128 0x1
 15976 59aa 50       		.byte	0x50
 15977 59ab 02       		.uleb128 0x2
 15978 59ac 75       		.byte	0x75
 15979 59ad 00       		.sleb128 0
 15980 59ae 3A       		.uleb128 0x3a
 15981 59af 01       		.uleb128 0x1
 15982 59b0 51       		.byte	0x51
 15983 59b1 05       		.uleb128 0x5
 15984 59b2 03       		.byte	0x3
 15985 59b3 A8040000 		.4byte	.LC54
 15986 59b7 00       		.byte	0
 15987 59b8 41       		.uleb128 0x41
 15988 59b9 8A020000 		.4byte	.LVL68
 15989 59bd 03660000 		.4byte	0x6603
 15990 59c1 D5590000 		.4byte	0x59d5
 15991 59c5 3A       		.uleb128 0x3a
 15992 59c6 01       		.uleb128 0x1
 15993 59c7 50       		.byte	0x50
 15994 59c8 02       		.uleb128 0x2
 15995 59c9 75       		.byte	0x75
 15996 59ca 00       		.sleb128 0
 15997 59cb 3A       		.uleb128 0x3a
 15998 59cc 01       		.uleb128 0x1
 15999 59cd 51       		.byte	0x51
 16000 59ce 05       		.uleb128 0x5
 16001 59cf 03       		.byte	0x3
 16002 59d0 C8040000 		.4byte	.LC56
 16003 59d4 00       		.byte	0
 16004 59d5 41       		.uleb128 0x41
 16005 59d6 98020000 		.4byte	.LVL69
 16006 59da 03660000 		.4byte	0x6603
 16007 59de F2590000 		.4byte	0x59f2
 16008 59e2 3A       		.uleb128 0x3a
 16009 59e3 01       		.uleb128 0x1
 16010 59e4 50       		.byte	0x50
 16011 59e5 02       		.uleb128 0x2
 16012 59e6 75       		.byte	0x75
 16013 59e7 00       		.sleb128 0
 16014 59e8 3A       		.uleb128 0x3a
 16015 59e9 01       		.uleb128 0x1
 16016 59ea 51       		.byte	0x51
 16017 59eb 05       		.uleb128 0x5
 16018 59ec 03       		.byte	0x3
 16019 59ed E8040000 		.4byte	.LC58
ARM GAS  /tmp/ccHCUo6g.s 			page 297


 16020 59f1 00       		.byte	0
 16021 59f2 41       		.uleb128 0x41
 16022 59f3 A6020000 		.4byte	.LVL70
 16023 59f7 03660000 		.4byte	0x6603
 16024 59fb 0F5A0000 		.4byte	0x5a0f
 16025 59ff 3A       		.uleb128 0x3a
 16026 5a00 01       		.uleb128 0x1
 16027 5a01 50       		.byte	0x50
 16028 5a02 02       		.uleb128 0x2
 16029 5a03 75       		.byte	0x75
 16030 5a04 00       		.sleb128 0
 16031 5a05 3A       		.uleb128 0x3a
 16032 5a06 01       		.uleb128 0x1
 16033 5a07 51       		.byte	0x51
 16034 5a08 05       		.uleb128 0x5
 16035 5a09 03       		.byte	0x3
 16036 5a0a A0050000 		.4byte	.LC70
 16037 5a0e 00       		.byte	0
 16038 5a0f 41       		.uleb128 0x41
 16039 5a10 B4020000 		.4byte	.LVL71
 16040 5a14 03660000 		.4byte	0x6603
 16041 5a18 2C5A0000 		.4byte	0x5a2c
 16042 5a1c 3A       		.uleb128 0x3a
 16043 5a1d 01       		.uleb128 0x1
 16044 5a1e 50       		.byte	0x50
 16045 5a1f 02       		.uleb128 0x2
 16046 5a20 75       		.byte	0x75
 16047 5a21 00       		.sleb128 0
 16048 5a22 3A       		.uleb128 0x3a
 16049 5a23 01       		.uleb128 0x1
 16050 5a24 51       		.byte	0x51
 16051 5a25 05       		.uleb128 0x5
 16052 5a26 03       		.byte	0x3
 16053 5a27 C0050000 		.4byte	.LC72
 16054 5a2b 00       		.byte	0
 16055 5a2c 41       		.uleb128 0x41
 16056 5a2d C6020000 		.4byte	.LVL72
 16057 5a31 33660000 		.4byte	0x6633
 16058 5a35 435A0000 		.4byte	0x5a43
 16059 5a39 3A       		.uleb128 0x3a
 16060 5a3a 01       		.uleb128 0x1
 16061 5a3b 50       		.byte	0x50
 16062 5a3c 05       		.uleb128 0x5
 16063 5a3d 03       		.byte	0x3
 16064 5a3e FC060000 		.4byte	.LC81
 16065 5a42 00       		.byte	0
 16066 5a43 41       		.uleb128 0x41
 16067 5a44 CE020000 		.4byte	.LVL73
 16068 5a48 33660000 		.4byte	0x6633
 16069 5a4c 5A5A0000 		.4byte	0x5a5a
 16070 5a50 3A       		.uleb128 0x3a
 16071 5a51 01       		.uleb128 0x1
 16072 5a52 50       		.byte	0x50
 16073 5a53 05       		.uleb128 0x5
 16074 5a54 03       		.byte	0x3
 16075 5a55 7C020000 		.4byte	.LC32
 16076 5a59 00       		.byte	0
ARM GAS  /tmp/ccHCUo6g.s 			page 298


 16077 5a5a 42       		.uleb128 0x42
 16078 5a5b EA040000 		.4byte	.LVL112
 16079 5a5f 28680000 		.4byte	0x6828
 16080 5a63 41       		.uleb128 0x41
 16081 5a64 F2040000 		.4byte	.LVL113
 16082 5a68 33660000 		.4byte	0x6633
 16083 5a6c 7A5A0000 		.4byte	0x5a7a
 16084 5a70 3A       		.uleb128 0x3a
 16085 5a71 01       		.uleb128 0x1
 16086 5a72 50       		.byte	0x50
 16087 5a73 05       		.uleb128 0x5
 16088 5a74 03       		.byte	0x3
 16089 5a75 D0040000 		.4byte	.LC57
 16090 5a79 00       		.byte	0
 16091 5a7a 42       		.uleb128 0x42
 16092 5a7b F8040000 		.4byte	.LVL114
 16093 5a7f 1C670000 		.4byte	0x671c
 16094 5a83 41       		.uleb128 0x41
 16095 5a84 0A050000 		.4byte	.LVL116
 16096 5a88 33660000 		.4byte	0x6633
 16097 5a8c 9A5A0000 		.4byte	0x5a9a
 16098 5a90 3A       		.uleb128 0x3a
 16099 5a91 01       		.uleb128 0x1
 16100 5a92 50       		.byte	0x50
 16101 5a93 05       		.uleb128 0x5
 16102 5a94 03       		.byte	0x3
 16103 5a95 AC040000 		.4byte	.LC55
 16104 5a99 00       		.byte	0
 16105 5a9a 41       		.uleb128 0x41
 16106 5a9b 14050000 		.4byte	.LVL117
 16107 5a9f 03660000 		.4byte	0x6603
 16108 5aa3 B75A0000 		.4byte	0x5ab7
 16109 5aa7 3A       		.uleb128 0x3a
 16110 5aa8 01       		.uleb128 0x1
 16111 5aa9 50       		.byte	0x50
 16112 5aaa 02       		.uleb128 0x2
 16113 5aab 75       		.byte	0x75
 16114 5aac 00       		.sleb128 0
 16115 5aad 3A       		.uleb128 0x3a
 16116 5aae 01       		.uleb128 0x1
 16117 5aaf 51       		.byte	0x51
 16118 5ab0 05       		.uleb128 0x5
 16119 5ab1 03       		.byte	0x3
 16120 5ab2 24070000 		.4byte	.LC82
 16121 5ab6 00       		.byte	0
 16122 5ab7 41       		.uleb128 0x41
 16123 5ab8 22050000 		.4byte	.LVL118
 16124 5abc 03660000 		.4byte	0x6603
 16125 5ac0 D45A0000 		.4byte	0x5ad4
 16126 5ac4 3A       		.uleb128 0x3a
 16127 5ac5 01       		.uleb128 0x1
 16128 5ac6 50       		.byte	0x50
 16129 5ac7 02       		.uleb128 0x2
 16130 5ac8 75       		.byte	0x75
 16131 5ac9 00       		.sleb128 0
 16132 5aca 3A       		.uleb128 0x3a
 16133 5acb 01       		.uleb128 0x1
ARM GAS  /tmp/ccHCUo6g.s 			page 299


 16134 5acc 51       		.byte	0x51
 16135 5acd 05       		.uleb128 0x5
 16136 5ace 03       		.byte	0x3
 16137 5acf 80070000 		.4byte	.LC86
 16138 5ad3 00       		.byte	0
 16139 5ad4 41       		.uleb128 0x41
 16140 5ad5 32050000 		.4byte	.LVL119
 16141 5ad9 03660000 		.4byte	0x6603
 16142 5add F15A0000 		.4byte	0x5af1
 16143 5ae1 3A       		.uleb128 0x3a
 16144 5ae2 01       		.uleb128 0x1
 16145 5ae3 50       		.byte	0x50
 16146 5ae4 02       		.uleb128 0x2
 16147 5ae5 75       		.byte	0x75
 16148 5ae6 00       		.sleb128 0
 16149 5ae7 3A       		.uleb128 0x3a
 16150 5ae8 01       		.uleb128 0x1
 16151 5ae9 51       		.byte	0x51
 16152 5aea 05       		.uleb128 0x5
 16153 5aeb 03       		.byte	0x3
 16154 5aec 5C080000 		.4byte	.LC94
 16155 5af0 00       		.byte	0
 16156 5af1 41       		.uleb128 0x41
 16157 5af2 44050000 		.4byte	.LVL120
 16158 5af6 33660000 		.4byte	0x6633
 16159 5afa 085B0000 		.4byte	0x5b08
 16160 5afe 3A       		.uleb128 0x3a
 16161 5aff 01       		.uleb128 0x1
 16162 5b00 50       		.byte	0x50
 16163 5b01 05       		.uleb128 0x5
 16164 5b02 03       		.byte	0x3
 16165 5b03 B8080000 		.4byte	.LC99
 16166 5b07 00       		.byte	0
 16167 5b08 41       		.uleb128 0x41
 16168 5b09 74050000 		.4byte	.LVL122
 16169 5b0d 33660000 		.4byte	0x6633
 16170 5b11 1F5B0000 		.4byte	0x5b1f
 16171 5b15 3A       		.uleb128 0x3a
 16172 5b16 01       		.uleb128 0x1
 16173 5b17 50       		.byte	0x50
 16174 5b18 05       		.uleb128 0x5
 16175 5b19 03       		.byte	0x3
 16176 5b1a A8050000 		.4byte	.LC71
 16177 5b1e 00       		.byte	0
 16178 5b1f 41       		.uleb128 0x41
 16179 5b20 3A080000 		.4byte	.LVL164
 16180 5b24 03660000 		.4byte	0x6603
 16181 5b28 3C5B0000 		.4byte	0x5b3c
 16182 5b2c 3A       		.uleb128 0x3a
 16183 5b2d 01       		.uleb128 0x1
 16184 5b2e 50       		.byte	0x50
 16185 5b2f 02       		.uleb128 0x2
 16186 5b30 75       		.byte	0x75
 16187 5b31 00       		.sleb128 0
 16188 5b32 3A       		.uleb128 0x3a
 16189 5b33 01       		.uleb128 0x1
 16190 5b34 51       		.byte	0x51
ARM GAS  /tmp/ccHCUo6g.s 			page 300


 16191 5b35 05       		.uleb128 0x5
 16192 5b36 03       		.byte	0x3
 16193 5b37 E0080000 		.4byte	.LC100
 16194 5b3b 00       		.byte	0
 16195 5b3c 41       		.uleb128 0x41
 16196 5b3d B6080000 		.4byte	.LVL174
 16197 5b41 03660000 		.4byte	0x6603
 16198 5b45 595B0000 		.4byte	0x5b59
 16199 5b49 3A       		.uleb128 0x3a
 16200 5b4a 01       		.uleb128 0x1
 16201 5b4b 50       		.byte	0x50
 16202 5b4c 02       		.uleb128 0x2
 16203 5b4d 75       		.byte	0x75
 16204 5b4e 00       		.sleb128 0
 16205 5b4f 3A       		.uleb128 0x3a
 16206 5b50 01       		.uleb128 0x1
 16207 5b51 51       		.byte	0x51
 16208 5b52 05       		.uleb128 0x5
 16209 5b53 03       		.byte	0x3
 16210 5b54 04090000 		.4byte	.LC102
 16211 5b58 00       		.byte	0
 16212 5b59 41       		.uleb128 0x41
 16213 5b5a 46090000 		.4byte	.LVL184
 16214 5b5e 33660000 		.4byte	0x6633
 16215 5b62 705B0000 		.4byte	0x5b70
 16216 5b66 3A       		.uleb128 0x3a
 16217 5b67 01       		.uleb128 0x1
 16218 5b68 50       		.byte	0x50
 16219 5b69 05       		.uleb128 0x5
 16220 5b6a 03       		.byte	0x3
 16221 5b6b 8C070000 		.4byte	.LC87
 16222 5b6f 00       		.byte	0
 16223 5b70 41       		.uleb128 0x41
 16224 5b71 960A0000 		.4byte	.LVL211
 16225 5b75 03660000 		.4byte	0x6603
 16226 5b79 8D5B0000 		.4byte	0x5b8d
 16227 5b7d 3A       		.uleb128 0x3a
 16228 5b7e 01       		.uleb128 0x1
 16229 5b7f 50       		.byte	0x50
 16230 5b80 02       		.uleb128 0x2
 16231 5b81 75       		.byte	0x75
 16232 5b82 00       		.sleb128 0
 16233 5b83 3A       		.uleb128 0x3a
 16234 5b84 01       		.uleb128 0x1
 16235 5b85 51       		.byte	0x51
 16236 5b86 05       		.uleb128 0x5
 16237 5b87 03       		.byte	0x3
 16238 5b88 38090000 		.4byte	.LC104
 16239 5b8c 00       		.byte	0
 16240 5b8d 41       		.uleb128 0x41
 16241 5b8e E00B0000 		.4byte	.LVL233
 16242 5b92 03660000 		.4byte	0x6603
 16243 5b96 AA5B0000 		.4byte	0x5baa
 16244 5b9a 3A       		.uleb128 0x3a
 16245 5b9b 01       		.uleb128 0x1
 16246 5b9c 50       		.byte	0x50
 16247 5b9d 02       		.uleb128 0x2
ARM GAS  /tmp/ccHCUo6g.s 			page 301


 16248 5b9e 75       		.byte	0x75
 16249 5b9f 00       		.sleb128 0
 16250 5ba0 3A       		.uleb128 0x3a
 16251 5ba1 01       		.uleb128 0x1
 16252 5ba2 51       		.byte	0x51
 16253 5ba3 05       		.uleb128 0x5
 16254 5ba4 03       		.byte	0x3
 16255 5ba5 84090000 		.4byte	.LC106
 16256 5ba9 00       		.byte	0
 16257 5baa 41       		.uleb128 0x41
 16258 5bab EE0B0000 		.4byte	.LVL234
 16259 5baf 33660000 		.4byte	0x6633
 16260 5bb3 C15B0000 		.4byte	0x5bc1
 16261 5bb7 3A       		.uleb128 0x3a
 16262 5bb8 01       		.uleb128 0x1
 16263 5bb9 50       		.byte	0x50
 16264 5bba 05       		.uleb128 0x5
 16265 5bbb 03       		.byte	0x3
 16266 5bbc A8090000 		.4byte	.LC108
 16267 5bc0 00       		.byte	0
 16268 5bc1 41       		.uleb128 0x41
 16269 5bc2 FA0B0000 		.4byte	.LVL235
 16270 5bc6 03660000 		.4byte	0x6603
 16271 5bca DE5B0000 		.4byte	0x5bde
 16272 5bce 3A       		.uleb128 0x3a
 16273 5bcf 01       		.uleb128 0x1
 16274 5bd0 50       		.byte	0x50
 16275 5bd1 02       		.uleb128 0x2
 16276 5bd2 75       		.byte	0x75
 16277 5bd3 00       		.sleb128 0
 16278 5bd4 3A       		.uleb128 0x3a
 16279 5bd5 01       		.uleb128 0x1
 16280 5bd6 51       		.byte	0x51
 16281 5bd7 05       		.uleb128 0x5
 16282 5bd8 03       		.byte	0x3
 16283 5bd9 D0090000 		.4byte	.LC109
 16284 5bdd 00       		.byte	0
 16285 5bde 41       		.uleb128 0x41
 16286 5bdf 080C0000 		.4byte	.LVL236
 16287 5be3 03660000 		.4byte	0x6603
 16288 5be7 FB5B0000 		.4byte	0x5bfb
 16289 5beb 3A       		.uleb128 0x3a
 16290 5bec 01       		.uleb128 0x1
 16291 5bed 50       		.byte	0x50
 16292 5bee 02       		.uleb128 0x2
 16293 5bef 75       		.byte	0x75
 16294 5bf0 00       		.sleb128 0
 16295 5bf1 3A       		.uleb128 0x3a
 16296 5bf2 01       		.uleb128 0x1
 16297 5bf3 51       		.byte	0x51
 16298 5bf4 05       		.uleb128 0x5
 16299 5bf5 03       		.byte	0x3
 16300 5bf6 180A0000 		.4byte	.LC112
 16301 5bfa 00       		.byte	0
 16302 5bfb 41       		.uleb128 0x41
 16303 5bfc 2E0E0000 		.4byte	.LVL279
 16304 5c00 03660000 		.4byte	0x6603
ARM GAS  /tmp/ccHCUo6g.s 			page 302


 16305 5c04 185C0000 		.4byte	0x5c18
 16306 5c08 3A       		.uleb128 0x3a
 16307 5c09 01       		.uleb128 0x1
 16308 5c0a 50       		.byte	0x50
 16309 5c0b 02       		.uleb128 0x2
 16310 5c0c 75       		.byte	0x75
 16311 5c0d 00       		.sleb128 0
 16312 5c0e 3A       		.uleb128 0x3a
 16313 5c0f 01       		.uleb128 0x1
 16314 5c10 51       		.byte	0x51
 16315 5c11 05       		.uleb128 0x5
 16316 5c12 03       		.byte	0x3
 16317 5c13 2C0A0000 		.4byte	.LC113
 16318 5c17 00       		.byte	0
 16319 5c18 41       		.uleb128 0x41
 16320 5c19 160F0000 		.4byte	.LVL292
 16321 5c1d 03660000 		.4byte	0x6603
 16322 5c21 355C0000 		.4byte	0x5c35
 16323 5c25 3A       		.uleb128 0x3a
 16324 5c26 01       		.uleb128 0x1
 16325 5c27 50       		.byte	0x50
 16326 5c28 02       		.uleb128 0x2
 16327 5c29 75       		.byte	0x75
 16328 5c2a 00       		.sleb128 0
 16329 5c2b 3A       		.uleb128 0x3a
 16330 5c2c 01       		.uleb128 0x1
 16331 5c2d 51       		.byte	0x51
 16332 5c2e 05       		.uleb128 0x5
 16333 5c2f 03       		.byte	0x3
 16334 5c30 480A0000 		.4byte	.LC114
 16335 5c34 00       		.byte	0
 16336 5c35 41       		.uleb128 0x41
 16337 5c36 200F0000 		.4byte	.LVL293
 16338 5c3a 03660000 		.4byte	0x6603
 16339 5c3e 525C0000 		.4byte	0x5c52
 16340 5c42 3A       		.uleb128 0x3a
 16341 5c43 01       		.uleb128 0x1
 16342 5c44 50       		.byte	0x50
 16343 5c45 02       		.uleb128 0x2
 16344 5c46 75       		.byte	0x75
 16345 5c47 00       		.sleb128 0
 16346 5c48 3A       		.uleb128 0x3a
 16347 5c49 01       		.uleb128 0x1
 16348 5c4a 51       		.byte	0x51
 16349 5c4b 05       		.uleb128 0x5
 16350 5c4c 03       		.byte	0x3
 16351 5c4d 540A0000 		.4byte	.LC115
 16352 5c51 00       		.byte	0
 16353 5c52 41       		.uleb128 0x41
 16354 5c53 2E0F0000 		.4byte	.LVL294
 16355 5c57 03660000 		.4byte	0x6603
 16356 5c5b 6F5C0000 		.4byte	0x5c6f
 16357 5c5f 3A       		.uleb128 0x3a
 16358 5c60 01       		.uleb128 0x1
 16359 5c61 50       		.byte	0x50
 16360 5c62 02       		.uleb128 0x2
 16361 5c63 75       		.byte	0x75
ARM GAS  /tmp/ccHCUo6g.s 			page 303


 16362 5c64 00       		.sleb128 0
 16363 5c65 3A       		.uleb128 0x3a
 16364 5c66 01       		.uleb128 0x1
 16365 5c67 51       		.byte	0x51
 16366 5c68 05       		.uleb128 0x5
 16367 5c69 03       		.byte	0x3
 16368 5c6a 040B0000 		.4byte	.LC122
 16369 5c6e 00       		.byte	0
 16370 5c6f 41       		.uleb128 0x41
 16371 5c70 3A0F0000 		.4byte	.LVL295
 16372 5c74 33660000 		.4byte	0x6633
 16373 5c78 865C0000 		.4byte	0x5c86
 16374 5c7c 3A       		.uleb128 0x3a
 16375 5c7d 01       		.uleb128 0x1
 16376 5c7e 50       		.byte	0x50
 16377 5c7f 05       		.uleb128 0x5
 16378 5c80 03       		.byte	0x3
 16379 5c81 140B0000 		.4byte	.LC123
 16380 5c85 00       		.byte	0
 16381 5c86 42       		.uleb128 0x42
 16382 5c87 420F0000 		.4byte	.LVL296
 16383 5c8b 33680000 		.4byte	0x6833
 16384 5c8f 41       		.uleb128 0x41
 16385 5c90 A00F0000 		.4byte	.LVL303
 16386 5c94 03660000 		.4byte	0x6603
 16387 5c98 AC5C0000 		.4byte	0x5cac
 16388 5c9c 3A       		.uleb128 0x3a
 16389 5c9d 01       		.uleb128 0x1
 16390 5c9e 50       		.byte	0x50
 16391 5c9f 02       		.uleb128 0x2
 16392 5ca0 75       		.byte	0x75
 16393 5ca1 00       		.sleb128 0
 16394 5ca2 3A       		.uleb128 0x3a
 16395 5ca3 01       		.uleb128 0x1
 16396 5ca4 51       		.byte	0x51
 16397 5ca5 05       		.uleb128 0x5
 16398 5ca6 03       		.byte	0x3
 16399 5ca7 3C0B0000 		.4byte	.LC124
 16400 5cab 00       		.byte	0
 16401 5cac 41       		.uleb128 0x41
 16402 5cad CC100000 		.4byte	.LVL319
 16403 5cb1 03660000 		.4byte	0x6603
 16404 5cb5 C95C0000 		.4byte	0x5cc9
 16405 5cb9 3A       		.uleb128 0x3a
 16406 5cba 01       		.uleb128 0x1
 16407 5cbb 50       		.byte	0x50
 16408 5cbc 02       		.uleb128 0x2
 16409 5cbd 75       		.byte	0x75
 16410 5cbe 00       		.sleb128 0
 16411 5cbf 3A       		.uleb128 0x3a
 16412 5cc0 01       		.uleb128 0x1
 16413 5cc1 51       		.byte	0x51
 16414 5cc2 05       		.uleb128 0x5
 16415 5cc3 03       		.byte	0x3
 16416 5cc4 500B0000 		.4byte	.LC125
 16417 5cc8 00       		.byte	0
 16418 5cc9 41       		.uleb128 0x41
ARM GAS  /tmp/ccHCUo6g.s 			page 304


 16419 5cca 0A110000 		.4byte	.LVL322
 16420 5cce 03660000 		.4byte	0x6603
 16421 5cd2 E65C0000 		.4byte	0x5ce6
 16422 5cd6 3A       		.uleb128 0x3a
 16423 5cd7 01       		.uleb128 0x1
 16424 5cd8 50       		.byte	0x50
 16425 5cd9 02       		.uleb128 0x2
 16426 5cda 75       		.byte	0x75
 16427 5cdb 00       		.sleb128 0
 16428 5cdc 3A       		.uleb128 0x3a
 16429 5cdd 01       		.uleb128 0x1
 16430 5cde 51       		.byte	0x51
 16431 5cdf 05       		.uleb128 0x5
 16432 5ce0 03       		.byte	0x3
 16433 5ce1 680B0000 		.4byte	.LC127
 16434 5ce5 00       		.byte	0
 16435 5ce6 41       		.uleb128 0x41
 16436 5ce7 70110000 		.4byte	.LVL328
 16437 5ceb 03660000 		.4byte	0x6603
 16438 5cef 035D0000 		.4byte	0x5d03
 16439 5cf3 3A       		.uleb128 0x3a
 16440 5cf4 01       		.uleb128 0x1
 16441 5cf5 50       		.byte	0x50
 16442 5cf6 02       		.uleb128 0x2
 16443 5cf7 75       		.byte	0x75
 16444 5cf8 00       		.sleb128 0
 16445 5cf9 3A       		.uleb128 0x3a
 16446 5cfa 01       		.uleb128 0x1
 16447 5cfb 51       		.byte	0x51
 16448 5cfc 05       		.uleb128 0x5
 16449 5cfd 03       		.byte	0x3
 16450 5cfe 100C0000 		.4byte	.LC132
 16451 5d02 00       		.byte	0
 16452 5d03 41       		.uleb128 0x41
 16453 5d04 84120000 		.4byte	.LVL348
 16454 5d08 03660000 		.4byte	0x6603
 16455 5d0c 205D0000 		.4byte	0x5d20
 16456 5d10 3A       		.uleb128 0x3a
 16457 5d11 01       		.uleb128 0x1
 16458 5d12 50       		.byte	0x50
 16459 5d13 02       		.uleb128 0x2
 16460 5d14 75       		.byte	0x75
 16461 5d15 00       		.sleb128 0
 16462 5d16 3A       		.uleb128 0x3a
 16463 5d17 01       		.uleb128 0x1
 16464 5d18 51       		.byte	0x51
 16465 5d19 05       		.uleb128 0x5
 16466 5d1a 03       		.byte	0x3
 16467 5d1b 400C0000 		.4byte	.LC136
 16468 5d1f 00       		.byte	0
 16469 5d20 41       		.uleb128 0x41
 16470 5d21 40140000 		.4byte	.LVL376
 16471 5d25 03660000 		.4byte	0x6603
 16472 5d29 3D5D0000 		.4byte	0x5d3d
 16473 5d2d 3A       		.uleb128 0x3a
 16474 5d2e 01       		.uleb128 0x1
 16475 5d2f 50       		.byte	0x50
ARM GAS  /tmp/ccHCUo6g.s 			page 305


 16476 5d30 02       		.uleb128 0x2
 16477 5d31 75       		.byte	0x75
 16478 5d32 00       		.sleb128 0
 16479 5d33 3A       		.uleb128 0x3a
 16480 5d34 01       		.uleb128 0x1
 16481 5d35 51       		.byte	0x51
 16482 5d36 05       		.uleb128 0x5
 16483 5d37 03       		.byte	0x3
 16484 5d38 C00D0000 		.4byte	.LC149
 16485 5d3c 00       		.byte	0
 16486 5d3d 41       		.uleb128 0x41
 16487 5d3e 7A140000 		.4byte	.LVL384
 16488 5d42 03660000 		.4byte	0x6603
 16489 5d46 5A5D0000 		.4byte	0x5d5a
 16490 5d4a 3A       		.uleb128 0x3a
 16491 5d4b 01       		.uleb128 0x1
 16492 5d4c 50       		.byte	0x50
 16493 5d4d 02       		.uleb128 0x2
 16494 5d4e 75       		.byte	0x75
 16495 5d4f 00       		.sleb128 0
 16496 5d50 3A       		.uleb128 0x3a
 16497 5d51 01       		.uleb128 0x1
 16498 5d52 51       		.byte	0x51
 16499 5d53 05       		.uleb128 0x5
 16500 5d54 03       		.byte	0x3
 16501 5d55 FC0D0000 		.4byte	.LC152
 16502 5d59 00       		.byte	0
 16503 5d5a 41       		.uleb128 0x41
 16504 5d5b E8140000 		.4byte	.LVL393
 16505 5d5f 03660000 		.4byte	0x6603
 16506 5d63 775D0000 		.4byte	0x5d77
 16507 5d67 3A       		.uleb128 0x3a
 16508 5d68 01       		.uleb128 0x1
 16509 5d69 50       		.byte	0x50
 16510 5d6a 02       		.uleb128 0x2
 16511 5d6b 75       		.byte	0x75
 16512 5d6c 00       		.sleb128 0
 16513 5d6d 3A       		.uleb128 0x3a
 16514 5d6e 01       		.uleb128 0x1
 16515 5d6f 51       		.byte	0x51
 16516 5d70 05       		.uleb128 0x5
 16517 5d71 03       		.byte	0x3
 16518 5d72 180E0000 		.4byte	.LC153
 16519 5d76 00       		.byte	0
 16520 5d77 42       		.uleb128 0x42
 16521 5d78 0C150000 		.4byte	.LVL395
 16522 5d7c 3E680000 		.4byte	0x683e
 16523 5d80 42       		.uleb128 0x42
 16524 5d81 12150000 		.4byte	.LVL396
 16525 5d85 49680000 		.4byte	0x6849
 16526 5d89 41       		.uleb128 0x41
 16527 5d8a 2E150000 		.4byte	.LVL399
 16528 5d8e 33660000 		.4byte	0x6633
 16529 5d92 A65D0000 		.4byte	0x5da6
 16530 5d96 3A       		.uleb128 0x3a
 16531 5d97 01       		.uleb128 0x1
 16532 5d98 50       		.byte	0x50
ARM GAS  /tmp/ccHCUo6g.s 			page 306


 16533 5d99 05       		.uleb128 0x5
 16534 5d9a 03       		.byte	0x3
 16535 5d9b 580E0000 		.4byte	.LC155
 16536 5d9f 3A       		.uleb128 0x3a
 16537 5da0 01       		.uleb128 0x1
 16538 5da1 51       		.byte	0x51
 16539 5da2 02       		.uleb128 0x2
 16540 5da3 74       		.byte	0x74
 16541 5da4 00       		.sleb128 0
 16542 5da5 00       		.byte	0
 16543 5da6 42       		.uleb128 0x42
 16544 5da7 32150000 		.4byte	.LVL400
 16545 5dab 54680000 		.4byte	0x6854
 16546 5daf 42       		.uleb128 0x42
 16547 5db0 38150000 		.4byte	.LVL401
 16548 5db4 5F680000 		.4byte	0x685f
 16549 5db8 41       		.uleb128 0x41
 16550 5db9 54150000 		.4byte	.LVL404
 16551 5dbd 33660000 		.4byte	0x6633
 16552 5dc1 D55D0000 		.4byte	0x5dd5
 16553 5dc5 3A       		.uleb128 0x3a
 16554 5dc6 01       		.uleb128 0x1
 16555 5dc7 50       		.byte	0x50
 16556 5dc8 05       		.uleb128 0x5
 16557 5dc9 03       		.byte	0x3
 16558 5dca A80E0000 		.4byte	.LC156
 16559 5dce 3A       		.uleb128 0x3a
 16560 5dcf 01       		.uleb128 0x1
 16561 5dd0 51       		.byte	0x51
 16562 5dd1 02       		.uleb128 0x2
 16563 5dd2 74       		.byte	0x74
 16564 5dd3 00       		.sleb128 0
 16565 5dd4 00       		.byte	0
 16566 5dd5 41       		.uleb128 0x41
 16567 5dd6 60150000 		.4byte	.LVL406
 16568 5dda 03660000 		.4byte	0x6603
 16569 5dde F25D0000 		.4byte	0x5df2
 16570 5de2 3A       		.uleb128 0x3a
 16571 5de3 01       		.uleb128 0x1
 16572 5de4 50       		.byte	0x50
 16573 5de5 02       		.uleb128 0x2
 16574 5de6 75       		.byte	0x75
 16575 5de7 00       		.sleb128 0
 16576 5de8 3A       		.uleb128 0x3a
 16577 5de9 01       		.uleb128 0x1
 16578 5dea 51       		.byte	0x51
 16579 5deb 05       		.uleb128 0x5
 16580 5dec 03       		.byte	0x3
 16581 5ded F80E0000 		.4byte	.LC157
 16582 5df1 00       		.byte	0
 16583 5df2 41       		.uleb128 0x41
 16584 5df3 30160000 		.4byte	.LVL414
 16585 5df7 33660000 		.4byte	0x6633
 16586 5dfb 095E0000 		.4byte	0x5e09
 16587 5dff 3A       		.uleb128 0x3a
 16588 5e00 01       		.uleb128 0x1
 16589 5e01 50       		.byte	0x50
ARM GAS  /tmp/ccHCUo6g.s 			page 307


 16590 5e02 05       		.uleb128 0x5
 16591 5e03 03       		.byte	0x3
 16592 5e04 000F0000 		.4byte	.LC158
 16593 5e08 00       		.byte	0
 16594 5e09 41       		.uleb128 0x41
 16595 5e0a 36160000 		.4byte	.LVL415
 16596 5e0e 33660000 		.4byte	0x6633
 16597 5e12 205E0000 		.4byte	0x5e20
 16598 5e16 3A       		.uleb128 0x3a
 16599 5e17 01       		.uleb128 0x1
 16600 5e18 50       		.byte	0x50
 16601 5e19 05       		.uleb128 0x5
 16602 5e1a 03       		.byte	0x3
 16603 5e1b F80E0000 		.4byte	.LC157
 16604 5e1f 00       		.byte	0
 16605 5e20 41       		.uleb128 0x41
 16606 5e21 3C160000 		.4byte	.LVL416
 16607 5e25 33660000 		.4byte	0x6633
 16608 5e29 375E0000 		.4byte	0x5e37
 16609 5e2d 3A       		.uleb128 0x3a
 16610 5e2e 01       		.uleb128 0x1
 16611 5e2f 50       		.byte	0x50
 16612 5e30 05       		.uleb128 0x5
 16613 5e31 03       		.byte	0x3
 16614 5e32 140F0000 		.4byte	.LC159
 16615 5e36 00       		.byte	0
 16616 5e37 41       		.uleb128 0x41
 16617 5e38 42160000 		.4byte	.LVL417
 16618 5e3c 33660000 		.4byte	0x6633
 16619 5e40 4E5E0000 		.4byte	0x5e4e
 16620 5e44 3A       		.uleb128 0x3a
 16621 5e45 01       		.uleb128 0x1
 16622 5e46 50       		.byte	0x50
 16623 5e47 05       		.uleb128 0x5
 16624 5e48 03       		.byte	0x3
 16625 5e49 34000000 		.4byte	.LC6
 16626 5e4d 00       		.byte	0
 16627 5e4e 41       		.uleb128 0x41
 16628 5e4f 48160000 		.4byte	.LVL418
 16629 5e53 33660000 		.4byte	0x6633
 16630 5e57 655E0000 		.4byte	0x5e65
 16631 5e5b 3A       		.uleb128 0x3a
 16632 5e5c 01       		.uleb128 0x1
 16633 5e5d 50       		.byte	0x50
 16634 5e5e 05       		.uleb128 0x5
 16635 5e5f 03       		.byte	0x3
 16636 5e60 280F0000 		.4byte	.LC160
 16637 5e64 00       		.byte	0
 16638 5e65 41       		.uleb128 0x41
 16639 5e66 4E160000 		.4byte	.LVL419
 16640 5e6a 33660000 		.4byte	0x6633
 16641 5e6e 7C5E0000 		.4byte	0x5e7c
 16642 5e72 3A       		.uleb128 0x3a
 16643 5e73 01       		.uleb128 0x1
 16644 5e74 50       		.byte	0x50
 16645 5e75 05       		.uleb128 0x5
 16646 5e76 03       		.byte	0x3
ARM GAS  /tmp/ccHCUo6g.s 			page 308


 16647 5e77 74000000 		.4byte	.LC12
 16648 5e7b 00       		.byte	0
 16649 5e7c 41       		.uleb128 0x41
 16650 5e7d 54160000 		.4byte	.LVL420
 16651 5e81 33660000 		.4byte	0x6633
 16652 5e85 935E0000 		.4byte	0x5e93
 16653 5e89 3A       		.uleb128 0x3a
 16654 5e8a 01       		.uleb128 0x1
 16655 5e8b 50       		.byte	0x50
 16656 5e8c 05       		.uleb128 0x5
 16657 5e8d 03       		.byte	0x3
 16658 5e8e 540F0000 		.4byte	.LC161
 16659 5e92 00       		.byte	0
 16660 5e93 41       		.uleb128 0x41
 16661 5e94 5A160000 		.4byte	.LVL421
 16662 5e98 33660000 		.4byte	0x6633
 16663 5e9c AA5E0000 		.4byte	0x5eaa
 16664 5ea0 3A       		.uleb128 0x3a
 16665 5ea1 01       		.uleb128 0x1
 16666 5ea2 50       		.byte	0x50
 16667 5ea3 05       		.uleb128 0x5
 16668 5ea4 03       		.byte	0x3
 16669 5ea5 8C000000 		.4byte	.LC14
 16670 5ea9 00       		.byte	0
 16671 5eaa 41       		.uleb128 0x41
 16672 5eab 60160000 		.4byte	.LVL422
 16673 5eaf 33660000 		.4byte	0x6633
 16674 5eb3 C15E0000 		.4byte	0x5ec1
 16675 5eb7 3A       		.uleb128 0x3a
 16676 5eb8 01       		.uleb128 0x1
 16677 5eb9 50       		.byte	0x50
 16678 5eba 05       		.uleb128 0x5
 16679 5ebb 03       		.byte	0x3
 16680 5ebc 680F0000 		.4byte	.LC162
 16681 5ec0 00       		.byte	0
 16682 5ec1 41       		.uleb128 0x41
 16683 5ec2 66160000 		.4byte	.LVL423
 16684 5ec6 33660000 		.4byte	0x6633
 16685 5eca D85E0000 		.4byte	0x5ed8
 16686 5ece 3A       		.uleb128 0x3a
 16687 5ecf 01       		.uleb128 0x1
 16688 5ed0 50       		.byte	0x50
 16689 5ed1 05       		.uleb128 0x5
 16690 5ed2 03       		.byte	0x3
 16691 5ed3 10010000 		.4byte	.LC18
 16692 5ed7 00       		.byte	0
 16693 5ed8 41       		.uleb128 0x41
 16694 5ed9 6C160000 		.4byte	.LVL424
 16695 5edd 33660000 		.4byte	0x6633
 16696 5ee1 EF5E0000 		.4byte	0x5eef
 16697 5ee5 3A       		.uleb128 0x3a
 16698 5ee6 01       		.uleb128 0x1
 16699 5ee7 50       		.byte	0x50
 16700 5ee8 05       		.uleb128 0x5
 16701 5ee9 03       		.byte	0x3
 16702 5eea 980F0000 		.4byte	.LC163
 16703 5eee 00       		.byte	0
ARM GAS  /tmp/ccHCUo6g.s 			page 309


 16704 5eef 41       		.uleb128 0x41
 16705 5ef0 72160000 		.4byte	.LVL425
 16706 5ef4 33660000 		.4byte	0x6633
 16707 5ef8 065F0000 		.4byte	0x5f06
 16708 5efc 3A       		.uleb128 0x3a
 16709 5efd 01       		.uleb128 0x1
 16710 5efe 50       		.byte	0x50
 16711 5eff 05       		.uleb128 0x5
 16712 5f00 03       		.byte	0x3
 16713 5f01 34010000 		.4byte	.LC20
 16714 5f05 00       		.byte	0
 16715 5f06 41       		.uleb128 0x41
 16716 5f07 78160000 		.4byte	.LVL426
 16717 5f0b 33660000 		.4byte	0x6633
 16718 5f0f 1D5F0000 		.4byte	0x5f1d
 16719 5f13 3A       		.uleb128 0x3a
 16720 5f14 01       		.uleb128 0x1
 16721 5f15 50       		.byte	0x50
 16722 5f16 05       		.uleb128 0x5
 16723 5f17 03       		.byte	0x3
 16724 5f18 BC0F0000 		.4byte	.LC164
 16725 5f1c 00       		.byte	0
 16726 5f1d 41       		.uleb128 0x41
 16727 5f1e 7E160000 		.4byte	.LVL427
 16728 5f22 33660000 		.4byte	0x6633
 16729 5f26 345F0000 		.4byte	0x5f34
 16730 5f2a 3A       		.uleb128 0x3a
 16731 5f2b 01       		.uleb128 0x1
 16732 5f2c 50       		.byte	0x50
 16733 5f2d 05       		.uleb128 0x5
 16734 5f2e 03       		.byte	0x3
 16735 5f2f 8C010000 		.4byte	.LC24
 16736 5f33 00       		.byte	0
 16737 5f34 41       		.uleb128 0x41
 16738 5f35 84160000 		.4byte	.LVL428
 16739 5f39 33660000 		.4byte	0x6633
 16740 5f3d 4B5F0000 		.4byte	0x5f4b
 16741 5f41 3A       		.uleb128 0x3a
 16742 5f42 01       		.uleb128 0x1
 16743 5f43 50       		.byte	0x50
 16744 5f44 05       		.uleb128 0x5
 16745 5f45 03       		.byte	0x3
 16746 5f46 D00F0000 		.4byte	.LC165
 16747 5f4a 00       		.byte	0
 16748 5f4b 41       		.uleb128 0x41
 16749 5f4c 8A160000 		.4byte	.LVL429
 16750 5f50 33660000 		.4byte	0x6633
 16751 5f54 625F0000 		.4byte	0x5f62
 16752 5f58 3A       		.uleb128 0x3a
 16753 5f59 01       		.uleb128 0x1
 16754 5f5a 50       		.byte	0x50
 16755 5f5b 05       		.uleb128 0x5
 16756 5f5c 03       		.byte	0x3
 16757 5f5d 44020000 		.4byte	.LC28
 16758 5f61 00       		.byte	0
 16759 5f62 41       		.uleb128 0x41
 16760 5f63 90160000 		.4byte	.LVL430
ARM GAS  /tmp/ccHCUo6g.s 			page 310


 16761 5f67 33660000 		.4byte	0x6633
 16762 5f6b 795F0000 		.4byte	0x5f79
 16763 5f6f 3A       		.uleb128 0x3a
 16764 5f70 01       		.uleb128 0x1
 16765 5f71 50       		.byte	0x50
 16766 5f72 05       		.uleb128 0x5
 16767 5f73 03       		.byte	0x3
 16768 5f74 E40F0000 		.4byte	.LC166
 16769 5f78 00       		.byte	0
 16770 5f79 41       		.uleb128 0x41
 16771 5f7a 96160000 		.4byte	.LVL431
 16772 5f7e 33660000 		.4byte	0x6633
 16773 5f82 905F0000 		.4byte	0x5f90
 16774 5f86 3A       		.uleb128 0x3a
 16775 5f87 01       		.uleb128 0x1
 16776 5f88 50       		.byte	0x50
 16777 5f89 05       		.uleb128 0x5
 16778 5f8a 03       		.byte	0x3
 16779 5f8b 50020000 		.4byte	.LC30
 16780 5f8f 00       		.byte	0
 16781 5f90 41       		.uleb128 0x41
 16782 5f91 9C160000 		.4byte	.LVL432
 16783 5f95 33660000 		.4byte	0x6633
 16784 5f99 A75F0000 		.4byte	0x5fa7
 16785 5f9d 3A       		.uleb128 0x3a
 16786 5f9e 01       		.uleb128 0x1
 16787 5f9f 50       		.byte	0x50
 16788 5fa0 05       		.uleb128 0x5
 16789 5fa1 03       		.byte	0x3
 16790 5fa2 04100000 		.4byte	.LC167
 16791 5fa6 00       		.byte	0
 16792 5fa7 41       		.uleb128 0x41
 16793 5fa8 A2160000 		.4byte	.LVL433
 16794 5fac 33660000 		.4byte	0x6633
 16795 5fb0 BE5F0000 		.4byte	0x5fbe
 16796 5fb4 3A       		.uleb128 0x3a
 16797 5fb5 01       		.uleb128 0x1
 16798 5fb6 50       		.byte	0x50
 16799 5fb7 05       		.uleb128 0x5
 16800 5fb8 03       		.byte	0x3
 16801 5fb9 A8040000 		.4byte	.LC54
 16802 5fbd 00       		.byte	0
 16803 5fbe 41       		.uleb128 0x41
 16804 5fbf A8160000 		.4byte	.LVL434
 16805 5fc3 33660000 		.4byte	0x6633
 16806 5fc7 D55F0000 		.4byte	0x5fd5
 16807 5fcb 3A       		.uleb128 0x3a
 16808 5fcc 01       		.uleb128 0x1
 16809 5fcd 50       		.byte	0x50
 16810 5fce 05       		.uleb128 0x5
 16811 5fcf 03       		.byte	0x3
 16812 5fd0 48100000 		.4byte	.LC168
 16813 5fd4 00       		.byte	0
 16814 5fd5 41       		.uleb128 0x41
 16815 5fd6 AE160000 		.4byte	.LVL435
 16816 5fda 33660000 		.4byte	0x6633
 16817 5fde EC5F0000 		.4byte	0x5fec
ARM GAS  /tmp/ccHCUo6g.s 			page 311


 16818 5fe2 3A       		.uleb128 0x3a
 16819 5fe3 01       		.uleb128 0x1
 16820 5fe4 50       		.byte	0x50
 16821 5fe5 05       		.uleb128 0x5
 16822 5fe6 03       		.byte	0x3
 16823 5fe7 C8040000 		.4byte	.LC56
 16824 5feb 00       		.byte	0
 16825 5fec 41       		.uleb128 0x41
 16826 5fed B4160000 		.4byte	.LVL436
 16827 5ff1 33660000 		.4byte	0x6633
 16828 5ff5 03600000 		.4byte	0x6003
 16829 5ff9 3A       		.uleb128 0x3a
 16830 5ffa 01       		.uleb128 0x1
 16831 5ffb 50       		.byte	0x50
 16832 5ffc 05       		.uleb128 0x5
 16833 5ffd 03       		.byte	0x3
 16834 5ffe 6C100000 		.4byte	.LC169
 16835 6002 00       		.byte	0
 16836 6003 41       		.uleb128 0x41
 16837 6004 BA160000 		.4byte	.LVL437
 16838 6008 33660000 		.4byte	0x6633
 16839 600c 1A600000 		.4byte	0x601a
 16840 6010 3A       		.uleb128 0x3a
 16841 6011 01       		.uleb128 0x1
 16842 6012 50       		.byte	0x50
 16843 6013 05       		.uleb128 0x5
 16844 6014 03       		.byte	0x3
 16845 6015 E8040000 		.4byte	.LC58
 16846 6019 00       		.byte	0
 16847 601a 41       		.uleb128 0x41
 16848 601b C0160000 		.4byte	.LVL438
 16849 601f 33660000 		.4byte	0x6633
 16850 6023 31600000 		.4byte	0x6031
 16851 6027 3A       		.uleb128 0x3a
 16852 6028 01       		.uleb128 0x1
 16853 6029 50       		.byte	0x50
 16854 602a 05       		.uleb128 0x5
 16855 602b 03       		.byte	0x3
 16856 602c 88100000 		.4byte	.LC170
 16857 6030 00       		.byte	0
 16858 6031 41       		.uleb128 0x41
 16859 6032 C6160000 		.4byte	.LVL439
 16860 6036 33660000 		.4byte	0x6633
 16861 603a 48600000 		.4byte	0x6048
 16862 603e 3A       		.uleb128 0x3a
 16863 603f 01       		.uleb128 0x1
 16864 6040 50       		.byte	0x50
 16865 6041 05       		.uleb128 0x5
 16866 6042 03       		.byte	0x3
 16867 6043 A0050000 		.4byte	.LC70
 16868 6047 00       		.byte	0
 16869 6048 41       		.uleb128 0x41
 16870 6049 CC160000 		.4byte	.LVL440
 16871 604d 33660000 		.4byte	0x6633
 16872 6051 5F600000 		.4byte	0x605f
 16873 6055 3A       		.uleb128 0x3a
 16874 6056 01       		.uleb128 0x1
ARM GAS  /tmp/ccHCUo6g.s 			page 312


 16875 6057 50       		.byte	0x50
 16876 6058 05       		.uleb128 0x5
 16877 6059 03       		.byte	0x3
 16878 605a A8100000 		.4byte	.LC171
 16879 605e 00       		.byte	0
 16880 605f 41       		.uleb128 0x41
 16881 6060 D2160000 		.4byte	.LVL441
 16882 6064 33660000 		.4byte	0x6633
 16883 6068 76600000 		.4byte	0x6076
 16884 606c 3A       		.uleb128 0x3a
 16885 606d 01       		.uleb128 0x1
 16886 606e 50       		.byte	0x50
 16887 606f 05       		.uleb128 0x5
 16888 6070 03       		.byte	0x3
 16889 6071 C4100000 		.4byte	.LC172
 16890 6075 00       		.byte	0
 16891 6076 41       		.uleb128 0x41
 16892 6077 D8160000 		.4byte	.LVL442
 16893 607b 33660000 		.4byte	0x6633
 16894 607f 8D600000 		.4byte	0x608d
 16895 6083 3A       		.uleb128 0x3a
 16896 6084 01       		.uleb128 0x1
 16897 6085 50       		.byte	0x50
 16898 6086 05       		.uleb128 0x5
 16899 6087 03       		.byte	0x3
 16900 6088 F0100000 		.4byte	.LC173
 16901 608c 00       		.byte	0
 16902 608d 41       		.uleb128 0x41
 16903 608e DE160000 		.4byte	.LVL443
 16904 6092 33660000 		.4byte	0x6633
 16905 6096 A4600000 		.4byte	0x60a4
 16906 609a 3A       		.uleb128 0x3a
 16907 609b 01       		.uleb128 0x1
 16908 609c 50       		.byte	0x50
 16909 609d 05       		.uleb128 0x5
 16910 609e 03       		.byte	0x3
 16911 609f 34110000 		.4byte	.LC174
 16912 60a3 00       		.byte	0
 16913 60a4 41       		.uleb128 0x41
 16914 60a5 E4160000 		.4byte	.LVL444
 16915 60a9 33660000 		.4byte	0x6633
 16916 60ad BB600000 		.4byte	0x60bb
 16917 60b1 3A       		.uleb128 0x3a
 16918 60b2 01       		.uleb128 0x1
 16919 60b3 50       		.byte	0x50
 16920 60b4 05       		.uleb128 0x5
 16921 60b5 03       		.byte	0x3
 16922 60b6 70110000 		.4byte	.LC175
 16923 60ba 00       		.byte	0
 16924 60bb 41       		.uleb128 0x41
 16925 60bc EA160000 		.4byte	.LVL445
 16926 60c0 33660000 		.4byte	0x6633
 16927 60c4 D2600000 		.4byte	0x60d2
 16928 60c8 3A       		.uleb128 0x3a
 16929 60c9 01       		.uleb128 0x1
 16930 60ca 50       		.byte	0x50
 16931 60cb 05       		.uleb128 0x5
ARM GAS  /tmp/ccHCUo6g.s 			page 313


 16932 60cc 03       		.byte	0x3
 16933 60cd 24070000 		.4byte	.LC82
 16934 60d1 00       		.byte	0
 16935 60d2 41       		.uleb128 0x41
 16936 60d3 F0160000 		.4byte	.LVL446
 16937 60d7 33660000 		.4byte	0x6633
 16938 60db E9600000 		.4byte	0x60e9
 16939 60df 3A       		.uleb128 0x3a
 16940 60e0 01       		.uleb128 0x1
 16941 60e1 50       		.byte	0x50
 16942 60e2 05       		.uleb128 0x5
 16943 60e3 03       		.byte	0x3
 16944 60e4 98110000 		.4byte	.LC176
 16945 60e8 00       		.byte	0
 16946 60e9 41       		.uleb128 0x41
 16947 60ea F6160000 		.4byte	.LVL447
 16948 60ee 33660000 		.4byte	0x6633
 16949 60f2 00610000 		.4byte	0x6100
 16950 60f6 3A       		.uleb128 0x3a
 16951 60f7 01       		.uleb128 0x1
 16952 60f8 50       		.byte	0x50
 16953 60f9 05       		.uleb128 0x5
 16954 60fa 03       		.byte	0x3
 16955 60fb 80070000 		.4byte	.LC86
 16956 60ff 00       		.byte	0
 16957 6100 41       		.uleb128 0x41
 16958 6101 FC160000 		.4byte	.LVL448
 16959 6105 33660000 		.4byte	0x6633
 16960 6109 17610000 		.4byte	0x6117
 16961 610d 3A       		.uleb128 0x3a
 16962 610e 01       		.uleb128 0x1
 16963 610f 50       		.byte	0x50
 16964 6110 05       		.uleb128 0x5
 16965 6111 03       		.byte	0x3
 16966 6112 B8110000 		.4byte	.LC177
 16967 6116 00       		.byte	0
 16968 6117 41       		.uleb128 0x41
 16969 6118 02170000 		.4byte	.LVL449
 16970 611c 33660000 		.4byte	0x6633
 16971 6120 2E610000 		.4byte	0x612e
 16972 6124 3A       		.uleb128 0x3a
 16973 6125 01       		.uleb128 0x1
 16974 6126 50       		.byte	0x50
 16975 6127 05       		.uleb128 0x5
 16976 6128 03       		.byte	0x3
 16977 6129 F4110000 		.4byte	.LC178
 16978 612d 00       		.byte	0
 16979 612e 41       		.uleb128 0x41
 16980 612f 08170000 		.4byte	.LVL450
 16981 6133 33660000 		.4byte	0x6633
 16982 6137 45610000 		.4byte	0x6145
 16983 613b 3A       		.uleb128 0x3a
 16984 613c 01       		.uleb128 0x1
 16985 613d 50       		.byte	0x50
 16986 613e 05       		.uleb128 0x5
 16987 613f 03       		.byte	0x3
 16988 6140 14120000 		.4byte	.LC179
ARM GAS  /tmp/ccHCUo6g.s 			page 314


 16989 6144 00       		.byte	0
 16990 6145 41       		.uleb128 0x41
 16991 6146 0E170000 		.4byte	.LVL451
 16992 614a 33660000 		.4byte	0x6633
 16993 614e 5C610000 		.4byte	0x615c
 16994 6152 3A       		.uleb128 0x3a
 16995 6153 01       		.uleb128 0x1
 16996 6154 50       		.byte	0x50
 16997 6155 05       		.uleb128 0x5
 16998 6156 03       		.byte	0x3
 16999 6157 58120000 		.4byte	.LC180
 17000 615b 00       		.byte	0
 17001 615c 41       		.uleb128 0x41
 17002 615d 14170000 		.4byte	.LVL452
 17003 6161 33660000 		.4byte	0x6633
 17004 6165 73610000 		.4byte	0x6173
 17005 6169 3A       		.uleb128 0x3a
 17006 616a 01       		.uleb128 0x1
 17007 616b 50       		.byte	0x50
 17008 616c 05       		.uleb128 0x5
 17009 616d 03       		.byte	0x3
 17010 616e 70120000 		.4byte	.LC181
 17011 6172 00       		.byte	0
 17012 6173 41       		.uleb128 0x41
 17013 6174 1A170000 		.4byte	.LVL453
 17014 6178 33660000 		.4byte	0x6633
 17015 617c 8A610000 		.4byte	0x618a
 17016 6180 3A       		.uleb128 0x3a
 17017 6181 01       		.uleb128 0x1
 17018 6182 50       		.byte	0x50
 17019 6183 05       		.uleb128 0x5
 17020 6184 03       		.byte	0x3
 17021 6185 B0120000 		.4byte	.LC182
 17022 6189 00       		.byte	0
 17023 618a 41       		.uleb128 0x41
 17024 618b 20170000 		.4byte	.LVL454
 17025 618f 33660000 		.4byte	0x6633
 17026 6193 A1610000 		.4byte	0x61a1
 17027 6197 3A       		.uleb128 0x3a
 17028 6198 01       		.uleb128 0x1
 17029 6199 50       		.byte	0x50
 17030 619a 05       		.uleb128 0x5
 17031 619b 03       		.byte	0x3
 17032 619c C4120000 		.4byte	.LC183
 17033 61a0 00       		.byte	0
 17034 61a1 41       		.uleb128 0x41
 17035 61a2 26170000 		.4byte	.LVL455
 17036 61a6 33660000 		.4byte	0x6633
 17037 61aa B8610000 		.4byte	0x61b8
 17038 61ae 3A       		.uleb128 0x3a
 17039 61af 01       		.uleb128 0x1
 17040 61b0 50       		.byte	0x50
 17041 61b1 05       		.uleb128 0x5
 17042 61b2 03       		.byte	0x3
 17043 61b3 18130000 		.4byte	.LC184
 17044 61b7 00       		.byte	0
 17045 61b8 41       		.uleb128 0x41
ARM GAS  /tmp/ccHCUo6g.s 			page 315


 17046 61b9 2C170000 		.4byte	.LVL456
 17047 61bd 33660000 		.4byte	0x6633
 17048 61c1 CF610000 		.4byte	0x61cf
 17049 61c5 3A       		.uleb128 0x3a
 17050 61c6 01       		.uleb128 0x1
 17051 61c7 50       		.byte	0x50
 17052 61c8 05       		.uleb128 0x5
 17053 61c9 03       		.byte	0x3
 17054 61ca 44130000 		.4byte	.LC185
 17055 61ce 00       		.byte	0
 17056 61cf 41       		.uleb128 0x41
 17057 61d0 32170000 		.4byte	.LVL457
 17058 61d4 33660000 		.4byte	0x6633
 17059 61d8 E6610000 		.4byte	0x61e6
 17060 61dc 3A       		.uleb128 0x3a
 17061 61dd 01       		.uleb128 0x1
 17062 61de 50       		.byte	0x50
 17063 61df 05       		.uleb128 0x5
 17064 61e0 03       		.byte	0x3
 17065 61e1 78130000 		.4byte	.LC186
 17066 61e5 00       		.byte	0
 17067 61e6 41       		.uleb128 0x41
 17068 61e7 38170000 		.4byte	.LVL458
 17069 61eb 33660000 		.4byte	0x6633
 17070 61ef FD610000 		.4byte	0x61fd
 17071 61f3 3A       		.uleb128 0x3a
 17072 61f4 01       		.uleb128 0x1
 17073 61f5 50       		.byte	0x50
 17074 61f6 05       		.uleb128 0x5
 17075 61f7 03       		.byte	0x3
 17076 61f8 B0130000 		.4byte	.LC187
 17077 61fc 00       		.byte	0
 17078 61fd 41       		.uleb128 0x41
 17079 61fe 3E170000 		.4byte	.LVL459
 17080 6202 33660000 		.4byte	0x6633
 17081 6206 14620000 		.4byte	0x6214
 17082 620a 3A       		.uleb128 0x3a
 17083 620b 01       		.uleb128 0x1
 17084 620c 50       		.byte	0x50
 17085 620d 05       		.uleb128 0x5
 17086 620e 03       		.byte	0x3
 17087 620f F0130000 		.4byte	.LC188
 17088 6213 00       		.byte	0
 17089 6214 41       		.uleb128 0x41
 17090 6215 44170000 		.4byte	.LVL460
 17091 6219 33660000 		.4byte	0x6633
 17092 621d 2B620000 		.4byte	0x622b
 17093 6221 3A       		.uleb128 0x3a
 17094 6222 01       		.uleb128 0x1
 17095 6223 50       		.byte	0x50
 17096 6224 05       		.uleb128 0x5
 17097 6225 03       		.byte	0x3
 17098 6226 1C140000 		.4byte	.LC189
 17099 622a 00       		.byte	0
 17100 622b 41       		.uleb128 0x41
 17101 622c 4A170000 		.4byte	.LVL461
 17102 6230 33660000 		.4byte	0x6633
ARM GAS  /tmp/ccHCUo6g.s 			page 316


 17103 6234 42620000 		.4byte	0x6242
 17104 6238 3A       		.uleb128 0x3a
 17105 6239 01       		.uleb128 0x1
 17106 623a 50       		.byte	0x50
 17107 623b 05       		.uleb128 0x5
 17108 623c 03       		.byte	0x3
 17109 623d D0090000 		.4byte	.LC109
 17110 6241 00       		.byte	0
 17111 6242 41       		.uleb128 0x41
 17112 6243 50170000 		.4byte	.LVL462
 17113 6247 33660000 		.4byte	0x6633
 17114 624b 59620000 		.4byte	0x6259
 17115 624f 3A       		.uleb128 0x3a
 17116 6250 01       		.uleb128 0x1
 17117 6251 50       		.byte	0x50
 17118 6252 05       		.uleb128 0x5
 17119 6253 03       		.byte	0x3
 17120 6254 54140000 		.4byte	.LC190
 17121 6258 00       		.byte	0
 17122 6259 41       		.uleb128 0x41
 17123 625a 56170000 		.4byte	.LVL463
 17124 625e 33660000 		.4byte	0x6633
 17125 6262 70620000 		.4byte	0x6270
 17126 6266 3A       		.uleb128 0x3a
 17127 6267 01       		.uleb128 0x1
 17128 6268 50       		.byte	0x50
 17129 6269 05       		.uleb128 0x5
 17130 626a 03       		.byte	0x3
 17131 626b AC140000 		.4byte	.LC191
 17132 626f 00       		.byte	0
 17133 6270 41       		.uleb128 0x41
 17134 6271 5C170000 		.4byte	.LVL464
 17135 6275 33660000 		.4byte	0x6633
 17136 6279 87620000 		.4byte	0x6287
 17137 627d 3A       		.uleb128 0x3a
 17138 627e 01       		.uleb128 0x1
 17139 627f 50       		.byte	0x50
 17140 6280 05       		.uleb128 0x5
 17141 6281 03       		.byte	0x3
 17142 6282 C8140000 		.4byte	.LC192
 17143 6286 00       		.byte	0
 17144 6287 41       		.uleb128 0x41
 17145 6288 62170000 		.4byte	.LVL465
 17146 628c 33660000 		.4byte	0x6633
 17147 6290 9E620000 		.4byte	0x629e
 17148 6294 3A       		.uleb128 0x3a
 17149 6295 01       		.uleb128 0x1
 17150 6296 50       		.byte	0x50
 17151 6297 05       		.uleb128 0x5
 17152 6298 03       		.byte	0x3
 17153 6299 00150000 		.4byte	.LC193
 17154 629d 00       		.byte	0
 17155 629e 41       		.uleb128 0x41
 17156 629f 68170000 		.4byte	.LVL466
 17157 62a3 33660000 		.4byte	0x6633
 17158 62a7 B5620000 		.4byte	0x62b5
 17159 62ab 3A       		.uleb128 0x3a
ARM GAS  /tmp/ccHCUo6g.s 			page 317


 17160 62ac 01       		.uleb128 0x1
 17161 62ad 50       		.byte	0x50
 17162 62ae 05       		.uleb128 0x5
 17163 62af 03       		.byte	0x3
 17164 62b0 48150000 		.4byte	.LC194
 17165 62b4 00       		.byte	0
 17166 62b5 41       		.uleb128 0x41
 17167 62b6 6E170000 		.4byte	.LVL467
 17168 62ba 33660000 		.4byte	0x6633
 17169 62be CC620000 		.4byte	0x62cc
 17170 62c2 3A       		.uleb128 0x3a
 17171 62c3 01       		.uleb128 0x1
 17172 62c4 50       		.byte	0x50
 17173 62c5 05       		.uleb128 0x5
 17174 62c6 03       		.byte	0x3
 17175 62c7 88150000 		.4byte	.LC195
 17176 62cb 00       		.byte	0
 17177 62cc 41       		.uleb128 0x41
 17178 62cd 74170000 		.4byte	.LVL468
 17179 62d1 33660000 		.4byte	0x6633
 17180 62d5 E3620000 		.4byte	0x62e3
 17181 62d9 3A       		.uleb128 0x3a
 17182 62da 01       		.uleb128 0x1
 17183 62db 50       		.byte	0x50
 17184 62dc 05       		.uleb128 0x5
 17185 62dd 03       		.byte	0x3
 17186 62de 1C140000 		.4byte	.LC189
 17187 62e2 00       		.byte	0
 17188 62e3 41       		.uleb128 0x41
 17189 62e4 7A170000 		.4byte	.LVL469
 17190 62e8 33660000 		.4byte	0x6633
 17191 62ec FA620000 		.4byte	0x62fa
 17192 62f0 3A       		.uleb128 0x3a
 17193 62f1 01       		.uleb128 0x1
 17194 62f2 50       		.byte	0x50
 17195 62f3 05       		.uleb128 0x5
 17196 62f4 03       		.byte	0x3
 17197 62f5 480A0000 		.4byte	.LC114
 17198 62f9 00       		.byte	0
 17199 62fa 41       		.uleb128 0x41
 17200 62fb 80170000 		.4byte	.LVL470
 17201 62ff 33660000 		.4byte	0x6633
 17202 6303 11630000 		.4byte	0x6311
 17203 6307 3A       		.uleb128 0x3a
 17204 6308 01       		.uleb128 0x1
 17205 6309 50       		.byte	0x50
 17206 630a 05       		.uleb128 0x5
 17207 630b 03       		.byte	0x3
 17208 630c B4150000 		.4byte	.LC196
 17209 6310 00       		.byte	0
 17210 6311 41       		.uleb128 0x41
 17211 6312 86170000 		.4byte	.LVL471
 17212 6316 33660000 		.4byte	0x6633
 17213 631a 28630000 		.4byte	0x6328
 17214 631e 3A       		.uleb128 0x3a
 17215 631f 01       		.uleb128 0x1
 17216 6320 50       		.byte	0x50
ARM GAS  /tmp/ccHCUo6g.s 			page 318


 17217 6321 05       		.uleb128 0x5
 17218 6322 03       		.byte	0x3
 17219 6323 540A0000 		.4byte	.LC115
 17220 6327 00       		.byte	0
 17221 6328 41       		.uleb128 0x41
 17222 6329 8C170000 		.4byte	.LVL472
 17223 632d 33660000 		.4byte	0x6633
 17224 6331 3F630000 		.4byte	0x633f
 17225 6335 3A       		.uleb128 0x3a
 17226 6336 01       		.uleb128 0x1
 17227 6337 50       		.byte	0x50
 17228 6338 05       		.uleb128 0x5
 17229 6339 03       		.byte	0x3
 17230 633a D8150000 		.4byte	.LC197
 17231 633e 00       		.byte	0
 17232 633f 41       		.uleb128 0x41
 17233 6340 92170000 		.4byte	.LVL473
 17234 6344 33660000 		.4byte	0x6633
 17235 6348 56630000 		.4byte	0x6356
 17236 634c 3A       		.uleb128 0x3a
 17237 634d 01       		.uleb128 0x1
 17238 634e 50       		.byte	0x50
 17239 634f 05       		.uleb128 0x5
 17240 6350 03       		.byte	0x3
 17241 6351 04160000 		.4byte	.LC198
 17242 6355 00       		.byte	0
 17243 6356 41       		.uleb128 0x41
 17244 6357 98170000 		.4byte	.LVL474
 17245 635b 33660000 		.4byte	0x6633
 17246 635f 6D630000 		.4byte	0x636d
 17247 6363 3A       		.uleb128 0x3a
 17248 6364 01       		.uleb128 0x1
 17249 6365 50       		.byte	0x50
 17250 6366 05       		.uleb128 0x5
 17251 6367 03       		.byte	0x3
 17252 6368 24160000 		.4byte	.LC199
 17253 636c 00       		.byte	0
 17254 636d 41       		.uleb128 0x41
 17255 636e 9E170000 		.4byte	.LVL475
 17256 6372 33660000 		.4byte	0x6633
 17257 6376 84630000 		.4byte	0x6384
 17258 637a 3A       		.uleb128 0x3a
 17259 637b 01       		.uleb128 0x1
 17260 637c 50       		.byte	0x50
 17261 637d 05       		.uleb128 0x5
 17262 637e 03       		.byte	0x3
 17263 637f 54160000 		.4byte	.LC200
 17264 6383 00       		.byte	0
 17265 6384 41       		.uleb128 0x41
 17266 6385 A4170000 		.4byte	.LVL476
 17267 6389 33660000 		.4byte	0x6633
 17268 638d 9B630000 		.4byte	0x639b
 17269 6391 3A       		.uleb128 0x3a
 17270 6392 01       		.uleb128 0x1
 17271 6393 50       		.byte	0x50
 17272 6394 05       		.uleb128 0x5
 17273 6395 03       		.byte	0x3
ARM GAS  /tmp/ccHCUo6g.s 			page 319


 17274 6396 74160000 		.4byte	.LC201
 17275 639a 00       		.byte	0
 17276 639b 41       		.uleb128 0x41
 17277 639c AA170000 		.4byte	.LVL477
 17278 63a0 33660000 		.4byte	0x6633
 17279 63a4 B2630000 		.4byte	0x63b2
 17280 63a8 3A       		.uleb128 0x3a
 17281 63a9 01       		.uleb128 0x1
 17282 63aa 50       		.byte	0x50
 17283 63ab 05       		.uleb128 0x5
 17284 63ac 03       		.byte	0x3
 17285 63ad A4160000 		.4byte	.LC202
 17286 63b1 00       		.byte	0
 17287 63b2 41       		.uleb128 0x41
 17288 63b3 B0170000 		.4byte	.LVL478
 17289 63b7 33660000 		.4byte	0x6633
 17290 63bb C9630000 		.4byte	0x63c9
 17291 63bf 3A       		.uleb128 0x3a
 17292 63c0 01       		.uleb128 0x1
 17293 63c1 50       		.byte	0x50
 17294 63c2 05       		.uleb128 0x5
 17295 63c3 03       		.byte	0x3
 17296 63c4 C4160000 		.4byte	.LC203
 17297 63c8 00       		.byte	0
 17298 63c9 41       		.uleb128 0x41
 17299 63ca B6170000 		.4byte	.LVL479
 17300 63ce 33660000 		.4byte	0x6633
 17301 63d2 E0630000 		.4byte	0x63e0
 17302 63d6 3A       		.uleb128 0x3a
 17303 63d7 01       		.uleb128 0x1
 17304 63d8 50       		.byte	0x50
 17305 63d9 05       		.uleb128 0x5
 17306 63da 03       		.byte	0x3
 17307 63db EC160000 		.4byte	.LC204
 17308 63df 00       		.byte	0
 17309 63e0 41       		.uleb128 0x41
 17310 63e1 BC170000 		.4byte	.LVL480
 17311 63e5 33660000 		.4byte	0x6633
 17312 63e9 F7630000 		.4byte	0x63f7
 17313 63ed 3A       		.uleb128 0x3a
 17314 63ee 01       		.uleb128 0x1
 17315 63ef 50       		.byte	0x50
 17316 63f0 05       		.uleb128 0x5
 17317 63f1 03       		.byte	0x3
 17318 63f2 10170000 		.4byte	.LC205
 17319 63f6 00       		.byte	0
 17320 63f7 41       		.uleb128 0x41
 17321 63f8 C2170000 		.4byte	.LVL481
 17322 63fc 33660000 		.4byte	0x6633
 17323 6400 0E640000 		.4byte	0x640e
 17324 6404 3A       		.uleb128 0x3a
 17325 6405 01       		.uleb128 0x1
 17326 6406 50       		.byte	0x50
 17327 6407 05       		.uleb128 0x5
 17328 6408 03       		.byte	0x3
 17329 6409 54170000 		.4byte	.LC206
 17330 640d 00       		.byte	0
ARM GAS  /tmp/ccHCUo6g.s 			page 320


 17331 640e 41       		.uleb128 0x41
 17332 640f C8170000 		.4byte	.LVL482
 17333 6413 33660000 		.4byte	0x6633
 17334 6417 25640000 		.4byte	0x6425
 17335 641b 3A       		.uleb128 0x3a
 17336 641c 01       		.uleb128 0x1
 17337 641d 50       		.byte	0x50
 17338 641e 05       		.uleb128 0x5
 17339 641f 03       		.byte	0x3
 17340 6420 8C170000 		.4byte	.LC207
 17341 6424 00       		.byte	0
 17342 6425 41       		.uleb128 0x41
 17343 6426 CE170000 		.4byte	.LVL483
 17344 642a 33660000 		.4byte	0x6633
 17345 642e 3C640000 		.4byte	0x643c
 17346 6432 3A       		.uleb128 0x3a
 17347 6433 01       		.uleb128 0x1
 17348 6434 50       		.byte	0x50
 17349 6435 05       		.uleb128 0x5
 17350 6436 03       		.byte	0x3
 17351 6437 D8170000 		.4byte	.LC208
 17352 643b 00       		.byte	0
 17353 643c 41       		.uleb128 0x41
 17354 643d D4170000 		.4byte	.LVL484
 17355 6441 33660000 		.4byte	0x6633
 17356 6445 53640000 		.4byte	0x6453
 17357 6449 3A       		.uleb128 0x3a
 17358 644a 01       		.uleb128 0x1
 17359 644b 50       		.byte	0x50
 17360 644c 05       		.uleb128 0x5
 17361 644d 03       		.byte	0x3
 17362 644e 00180000 		.4byte	.LC209
 17363 6452 00       		.byte	0
 17364 6453 41       		.uleb128 0x41
 17365 6454 DA170000 		.4byte	.LVL485
 17366 6458 33660000 		.4byte	0x6633
 17367 645c 6A640000 		.4byte	0x646a
 17368 6460 3A       		.uleb128 0x3a
 17369 6461 01       		.uleb128 0x1
 17370 6462 50       		.byte	0x50
 17371 6463 05       		.uleb128 0x5
 17372 6464 03       		.byte	0x3
 17373 6465 28180000 		.4byte	.LC210
 17374 6469 00       		.byte	0
 17375 646a 41       		.uleb128 0x41
 17376 646b E0170000 		.4byte	.LVL486
 17377 646f 33660000 		.4byte	0x6633
 17378 6473 81640000 		.4byte	0x6481
 17379 6477 3A       		.uleb128 0x3a
 17380 6478 01       		.uleb128 0x1
 17381 6479 50       		.byte	0x50
 17382 647a 05       		.uleb128 0x5
 17383 647b 03       		.byte	0x3
 17384 647c C00D0000 		.4byte	.LC149
 17385 6480 00       		.byte	0
 17386 6481 41       		.uleb128 0x41
 17387 6482 E6170000 		.4byte	.LVL487
ARM GAS  /tmp/ccHCUo6g.s 			page 321


 17388 6486 33660000 		.4byte	0x6633
 17389 648a 98640000 		.4byte	0x6498
 17390 648e 3A       		.uleb128 0x3a
 17391 648f 01       		.uleb128 0x1
 17392 6490 50       		.byte	0x50
 17393 6491 05       		.uleb128 0x5
 17394 6492 03       		.byte	0x3
 17395 6493 80180000 		.4byte	.LC211
 17396 6497 00       		.byte	0
 17397 6498 41       		.uleb128 0x41
 17398 6499 EC170000 		.4byte	.LVL488
 17399 649d 33660000 		.4byte	0x6633
 17400 64a1 AF640000 		.4byte	0x64af
 17401 64a5 3A       		.uleb128 0x3a
 17402 64a6 01       		.uleb128 0x1
 17403 64a7 50       		.byte	0x50
 17404 64a8 05       		.uleb128 0x5
 17405 64a9 03       		.byte	0x3
 17406 64aa CC180000 		.4byte	.LC212
 17407 64ae 00       		.byte	0
 17408 64af 41       		.uleb128 0x41
 17409 64b0 F2170000 		.4byte	.LVL489
 17410 64b4 33660000 		.4byte	0x6633
 17411 64b8 C6640000 		.4byte	0x64c6
 17412 64bc 3A       		.uleb128 0x3a
 17413 64bd 01       		.uleb128 0x1
 17414 64be 50       		.byte	0x50
 17415 64bf 05       		.uleb128 0x5
 17416 64c0 03       		.byte	0x3
 17417 64c1 F8180000 		.4byte	.LC213
 17418 64c5 00       		.byte	0
 17419 64c6 41       		.uleb128 0x41
 17420 64c7 F8170000 		.4byte	.LVL490
 17421 64cb 33660000 		.4byte	0x6633
 17422 64cf DD640000 		.4byte	0x64dd
 17423 64d3 3A       		.uleb128 0x3a
 17424 64d4 01       		.uleb128 0x1
 17425 64d5 50       		.byte	0x50
 17426 64d6 05       		.uleb128 0x5
 17427 64d7 03       		.byte	0x3
 17428 64d8 54190000 		.4byte	.LC214
 17429 64dc 00       		.byte	0
 17430 64dd 41       		.uleb128 0x41
 17431 64de FE170000 		.4byte	.LVL491
 17432 64e2 33660000 		.4byte	0x6633
 17433 64e6 F4640000 		.4byte	0x64f4
 17434 64ea 3A       		.uleb128 0x3a
 17435 64eb 01       		.uleb128 0x1
 17436 64ec 50       		.byte	0x50
 17437 64ed 05       		.uleb128 0x5
 17438 64ee 03       		.byte	0x3
 17439 64ef 180E0000 		.4byte	.LC153
 17440 64f3 00       		.byte	0
 17441 64f4 41       		.uleb128 0x41
 17442 64f5 04180000 		.4byte	.LVL492
 17443 64f9 33660000 		.4byte	0x6633
 17444 64fd 0B650000 		.4byte	0x650b
ARM GAS  /tmp/ccHCUo6g.s 			page 322


 17445 6501 3A       		.uleb128 0x3a
 17446 6502 01       		.uleb128 0x1
 17447 6503 50       		.byte	0x50
 17448 6504 05       		.uleb128 0x5
 17449 6505 03       		.byte	0x3
 17450 6506 90190000 		.4byte	.LC215
 17451 650a 00       		.byte	0
 17452 650b 42       		.uleb128 0x42
 17453 650c 3E180000 		.4byte	.LVL497
 17454 6510 6A680000 		.4byte	0x686a
 17455 6514 42       		.uleb128 0x42
 17456 6515 44180000 		.4byte	.LVL498
 17457 6519 75680000 		.4byte	0x6875
 17458 651d 42       		.uleb128 0x42
 17459 651e 4A180000 		.4byte	.LVL499
 17460 6522 80680000 		.4byte	0x6880
 17461 6526 39       		.uleb128 0x39
 17462 6527 68180000 		.4byte	.LVL502
 17463 652b 33660000 		.4byte	0x6633
 17464 652f 3A       		.uleb128 0x3a
 17465 6530 01       		.uleb128 0x1
 17466 6531 50       		.byte	0x50
 17467 6532 05       		.uleb128 0x5
 17468 6533 03       		.byte	0x3
 17469 6534 200E0000 		.4byte	.LC154
 17470 6538 3A       		.uleb128 0x3a
 17471 6539 01       		.uleb128 0x1
 17472 653a 51       		.byte	0x51
 17473 653b 02       		.uleb128 0x2
 17474 653c 75       		.byte	0x75
 17475 653d 00       		.sleb128 0
 17476 653e 3A       		.uleb128 0x3a
 17477 653f 01       		.uleb128 0x1
 17478 6540 52       		.byte	0x52
 17479 6541 02       		.uleb128 0x2
 17480 6542 76       		.byte	0x76
 17481 6543 00       		.sleb128 0
 17482 6544 00       		.byte	0
 17483 6545 00       		.byte	0
 17484 6546 11       		.uleb128 0x11
 17485 6547 89330000 		.4byte	0x3389
 17486 654b 56650000 		.4byte	0x6556
 17487 654f 12       		.uleb128 0x12
 17488 6550 48000000 		.4byte	0x48
 17489 6554 3F       		.byte	0x3f
 17490 6555 00       		.byte	0
 17491 6556 11       		.uleb128 0x11
 17492 6557 ED0C0000 		.4byte	0xced
 17493 655b 66650000 		.4byte	0x6566
 17494 655f 12       		.uleb128 0x12
 17495 6560 48000000 		.4byte	0x48
 17496 6564 0F       		.byte	0xf
 17497 6565 00       		.byte	0
 17498 6566 0B       		.uleb128 0xb
 17499 6567 04       		.byte	0x4
 17500 6568 621C0000 		.4byte	0x1c62
 17501 656c 11       		.uleb128 0x11
ARM GAS  /tmp/ccHCUo6g.s 			page 323


 17502 656d D4000000 		.4byte	0xd4
 17503 6571 7C650000 		.4byte	0x657c
 17504 6575 12       		.uleb128 0x12
 17505 6576 48000000 		.4byte	0x48
 17506 657a 01       		.byte	0x1
 17507 657b 00       		.byte	0
 17508 657c 50       		.uleb128 0x50
 17509 657d B12C0000 		.4byte	.LASF1067
 17510 6581 02       		.byte	0x2
 17511 6582 0901     		.2byte	0x109
 17512 6584 8D010000 		.4byte	0x18d
 17513 6588 03       		.byte	0x3
 17514 6589 9A650000 		.4byte	0x659a
 17515 658d 51       		.uleb128 0x51
 17516 658e DC1A0000 		.4byte	.LASF1068
 17517 6592 02       		.byte	0x2
 17518 6593 0901     		.2byte	0x109
 17519 6595 8D010000 		.4byte	0x18d
 17520 6599 00       		.byte	0
 17521 659a 52       		.uleb128 0x52
 17522 659b E12B0000 		.4byte	.LASF1069
 17523 659f 02       		.byte	0x2
 17524 65a0 E4       		.byte	0xe4
 17525 65a1 8D010000 		.4byte	0x18d
 17526 65a5 03       		.byte	0x3
 17527 65a6 53       		.uleb128 0x53
 17528 65a7 53300000 		.4byte	.LASF1070
 17529 65ab 2D       		.byte	0x2d
 17530 65ac 6601     		.2byte	0x166
 17531 65ae 03       		.byte	0x3
 17532 65af C1650000 		.4byte	0x65c1
 17533 65b3 54       		.uleb128 0x54
 17534 65b4 9A000000 		.4byte	.LASF999
 17535 65b8 D1650000 		.4byte	0x65d1
 17536 65bc 53300000 		.4byte	.LASF1070
 17537 65c0 00       		.byte	0
 17538 65c1 11       		.uleb128 0x11
 17539 65c2 FF0C0000 		.4byte	0xcff
 17540 65c6 D1650000 		.4byte	0x65d1
 17541 65ca 12       		.uleb128 0x12
 17542 65cb 48000000 		.4byte	0x48
 17543 65cf 0B       		.byte	0xb
 17544 65d0 00       		.byte	0
 17545 65d1 06       		.uleb128 0x6
 17546 65d2 C1650000 		.4byte	0x65c1
 17547 65d6 55       		.uleb128 0x55
 17548 65d7 E1080000 		.4byte	.LASF1000
 17549 65db 2D       		.byte	0x2d
 17550 65dc 5A01     		.2byte	0x15a
 17551 65de 03       		.byte	0x3
 17552 65df 55       		.uleb128 0x55
 17553 65e0 D3210000 		.4byte	.LASF1001
 17554 65e4 0E       		.byte	0xe
 17555 65e5 CA01     		.2byte	0x1ca
 17556 65e7 03       		.byte	0x3
 17557 65e8 55       		.uleb128 0x55
 17558 65e9 96240000 		.4byte	.LASF1002
ARM GAS  /tmp/ccHCUo6g.s 			page 324


 17559 65ed 0E       		.byte	0xe
 17560 65ee BC01     		.2byte	0x1bc
 17561 65f0 03       		.byte	0x3
 17562 65f1 55       		.uleb128 0x55
 17563 65f2 B40A0000 		.4byte	.LASF1003
 17564 65f6 03       		.byte	0x3
 17565 65f7 5401     		.2byte	0x154
 17566 65f9 03       		.byte	0x3
 17567 65fa 55       		.uleb128 0x55
 17568 65fb D0020000 		.4byte	.LASF1004
 17569 65ff 03       		.byte	0x3
 17570 6600 4901     		.2byte	0x149
 17571 6602 03       		.byte	0x3
 17572 6603 56       		.uleb128 0x56
 17573 6604 2F380000 		.4byte	.LASF1005
 17574 6608 2F380000 		.4byte	.LASF1005
 17575 660c 2E       		.byte	0x2e
 17576 660d 24       		.byte	0x24
 17577 660e 57       		.uleb128 0x57
 17578 660f DA080000 		.4byte	.LASF1071
 17579 6613 192C0000 		.4byte	.LASF1072
 17580 6617 39       		.byte	0x39
 17581 6618 00       		.byte	0
 17582 6619 DA080000 		.4byte	.LASF1071
 17583 661d 56       		.uleb128 0x56
 17584 661e 5B120000 		.4byte	.LASF1006
 17585 6622 5B120000 		.4byte	.LASF1006
 17586 6626 2F       		.byte	0x2f
 17587 6627 CC       		.byte	0xcc
 17588 6628 56       		.uleb128 0x56
 17589 6629 66040000 		.4byte	.LASF1007
 17590 662d 66040000 		.4byte	.LASF1007
 17591 6631 28       		.byte	0x28
 17592 6632 69       		.byte	0x69
 17593 6633 56       		.uleb128 0x56
 17594 6634 8A000000 		.4byte	.LASF1008
 17595 6638 8A000000 		.4byte	.LASF1008
 17596 663c 30       		.byte	0x30
 17597 663d 20       		.byte	0x20
 17598 663e 56       		.uleb128 0x56
 17599 663f 8C270000 		.4byte	.LASF1009
 17600 6643 8C270000 		.4byte	.LASF1009
 17601 6647 31       		.byte	0x31
 17602 6648 69       		.byte	0x69
 17603 6649 56       		.uleb128 0x56
 17604 664a 03290000 		.4byte	.LASF1010
 17605 664e 03290000 		.4byte	.LASF1010
 17606 6652 32       		.byte	0x32
 17607 6653 64       		.byte	0x64
 17608 6654 56       		.uleb128 0x56
 17609 6655 A3090000 		.4byte	.LASF1011
 17610 6659 A3090000 		.4byte	.LASF1011
 17611 665d 12       		.byte	0x12
 17612 665e 6F       		.byte	0x6f
 17613 665f 56       		.uleb128 0x56
 17614 6660 94360000 		.4byte	.LASF1012
 17615 6664 94360000 		.4byte	.LASF1012
ARM GAS  /tmp/ccHCUo6g.s 			page 325


 17616 6668 12       		.byte	0x12
 17617 6669 70       		.byte	0x70
 17618 666a 56       		.uleb128 0x56
 17619 666b AF0F0000 		.4byte	.LASF1013
 17620 666f AF0F0000 		.4byte	.LASF1013
 17621 6673 28       		.byte	0x28
 17622 6674 23       		.byte	0x23
 17623 6675 56       		.uleb128 0x56
 17624 6676 17030000 		.4byte	.LASF1014
 17625 667a 17030000 		.4byte	.LASF1014
 17626 667e 33       		.byte	0x33
 17627 667f 1F       		.byte	0x1f
 17628 6680 58       		.uleb128 0x58
 17629 6681 0B1D0000 		.4byte	.LASF1015
 17630 6685 0B1D0000 		.4byte	.LASF1015
 17631 6689 16       		.byte	0x16
 17632 668a 7F01     		.2byte	0x17f
 17633 668c 56       		.uleb128 0x56
 17634 668d 761E0000 		.4byte	.LASF1016
 17635 6691 761E0000 		.4byte	.LASF1016
 17636 6695 27       		.byte	0x27
 17637 6696 43       		.byte	0x43
 17638 6697 56       		.uleb128 0x56
 17639 6698 70350000 		.4byte	.LASF1017
 17640 669c 70350000 		.4byte	.LASF1017
 17641 66a0 34       		.byte	0x34
 17642 66a1 37       		.byte	0x37
 17643 66a2 56       		.uleb128 0x56
 17644 66a3 E21A0000 		.4byte	.LASF1018
 17645 66a7 E21A0000 		.4byte	.LASF1018
 17646 66ab 28       		.byte	0x28
 17647 66ac 1D       		.byte	0x1d
 17648 66ad 56       		.uleb128 0x56
 17649 66ae 4A350000 		.4byte	.LASF1019
 17650 66b2 4A350000 		.4byte	.LASF1019
 17651 66b6 35       		.byte	0x35
 17652 66b7 4B       		.byte	0x4b
 17653 66b8 56       		.uleb128 0x56
 17654 66b9 AB120000 		.4byte	.LASF1020
 17655 66bd AB120000 		.4byte	.LASF1020
 17656 66c1 36       		.byte	0x36
 17657 66c2 21       		.byte	0x21
 17658 66c3 56       		.uleb128 0x56
 17659 66c4 C70D0000 		.4byte	.LASF1021
 17660 66c8 C70D0000 		.4byte	.LASF1021
 17661 66cc 35       		.byte	0x35
 17662 66cd 4C       		.byte	0x4c
 17663 66ce 56       		.uleb128 0x56
 17664 66cf 5A390000 		.4byte	.LASF1022
 17665 66d3 5A390000 		.4byte	.LASF1022
 17666 66d7 35       		.byte	0x35
 17667 66d8 4D       		.byte	0x4d
 17668 66d9 56       		.uleb128 0x56
 17669 66da DB0A0000 		.4byte	.LASF1023
 17670 66de DB0A0000 		.4byte	.LASF1023
 17671 66e2 35       		.byte	0x35
 17672 66e3 4E       		.byte	0x4e
ARM GAS  /tmp/ccHCUo6g.s 			page 326


 17673 66e4 58       		.uleb128 0x58
 17674 66e5 DA000000 		.4byte	.LASF1024
 17675 66e9 DA000000 		.4byte	.LASF1024
 17676 66ed 16       		.byte	0x16
 17677 66ee 8101     		.2byte	0x181
 17678 66f0 56       		.uleb128 0x56
 17679 66f1 B42A0000 		.4byte	.LASF1025
 17680 66f5 B42A0000 		.4byte	.LASF1025
 17681 66f9 35       		.byte	0x35
 17682 66fa 50       		.byte	0x50
 17683 66fb 56       		.uleb128 0x56
 17684 66fc B1350000 		.4byte	.LASF1026
 17685 6700 B1350000 		.4byte	.LASF1026
 17686 6704 28       		.byte	0x28
 17687 6705 47       		.byte	0x47
 17688 6706 56       		.uleb128 0x56
 17689 6707 192F0000 		.4byte	.LASF1027
 17690 670b 192F0000 		.4byte	.LASF1027
 17691 670f 37       		.byte	0x37
 17692 6710 96       		.byte	0x96
 17693 6711 56       		.uleb128 0x56
 17694 6712 CC280000 		.4byte	.LASF1028
 17695 6716 CC280000 		.4byte	.LASF1028
 17696 671a 35       		.byte	0x35
 17697 671b 4A       		.byte	0x4a
 17698 671c 56       		.uleb128 0x56
 17699 671d 81240000 		.4byte	.LASF1029
 17700 6721 81240000 		.4byte	.LASF1029
 17701 6725 28       		.byte	0x28
 17702 6726 58       		.byte	0x58
 17703 6727 56       		.uleb128 0x56
 17704 6728 E1290000 		.4byte	.LASF1030
 17705 672c E1290000 		.4byte	.LASF1030
 17706 6730 28       		.byte	0x28
 17707 6731 5F       		.byte	0x5f
 17708 6732 56       		.uleb128 0x56
 17709 6733 31170000 		.4byte	.LASF1031
 17710 6737 31170000 		.4byte	.LASF1031
 17711 673b 38       		.byte	0x38
 17712 673c 2B       		.byte	0x2b
 17713 673d 56       		.uleb128 0x56
 17714 673e AD010000 		.4byte	.LASF1032
 17715 6742 AD010000 		.4byte	.LASF1032
 17716 6746 38       		.byte	0x38
 17717 6747 30       		.byte	0x30
 17718 6748 56       		.uleb128 0x56
 17719 6749 F7190000 		.4byte	.LASF1033
 17720 674d F7190000 		.4byte	.LASF1033
 17721 6751 38       		.byte	0x38
 17722 6752 29       		.byte	0x29
 17723 6753 56       		.uleb128 0x56
 17724 6754 EB350000 		.4byte	.LASF1034
 17725 6758 EB350000 		.4byte	.LASF1034
 17726 675c 38       		.byte	0x38
 17727 675d 28       		.byte	0x28
 17728 675e 56       		.uleb128 0x56
 17729 675f DF2A0000 		.4byte	.LASF1035
ARM GAS  /tmp/ccHCUo6g.s 			page 327


 17730 6763 DF2A0000 		.4byte	.LASF1035
 17731 6767 28       		.byte	0x28
 17732 6768 54       		.byte	0x54
 17733 6769 58       		.uleb128 0x58
 17734 676a 781F0000 		.4byte	.LASF1036
 17735 676e 781F0000 		.4byte	.LASF1036
 17736 6772 16       		.byte	0x16
 17737 6773 8401     		.2byte	0x184
 17738 6775 56       		.uleb128 0x56
 17739 6776 47020000 		.4byte	.LASF1037
 17740 677a 47020000 		.4byte	.LASF1037
 17741 677e 35       		.byte	0x35
 17742 677f 54       		.byte	0x54
 17743 6780 56       		.uleb128 0x56
 17744 6781 5F1E0000 		.4byte	.LASF1038
 17745 6785 5F1E0000 		.4byte	.LASF1038
 17746 6789 35       		.byte	0x35
 17747 678a 2A       		.byte	0x2a
 17748 678b 56       		.uleb128 0x56
 17749 678c CC360000 		.4byte	.LASF1039
 17750 6790 CC360000 		.4byte	.LASF1039
 17751 6794 35       		.byte	0x35
 17752 6795 2C       		.byte	0x2c
 17753 6796 56       		.uleb128 0x56
 17754 6797 14260000 		.4byte	.LASF1040
 17755 679b 14260000 		.4byte	.LASF1040
 17756 679f 30       		.byte	0x30
 17757 67a0 1C       		.byte	0x1c
 17758 67a1 58       		.uleb128 0x58
 17759 67a2 52090000 		.4byte	.LASF1041
 17760 67a6 52090000 		.4byte	.LASF1041
 17761 67aa 16       		.byte	0x16
 17762 67ab 8601     		.2byte	0x186
 17763 67ad 56       		.uleb128 0x56
 17764 67ae 9A2B0000 		.4byte	.LASF1042
 17765 67b2 9A2B0000 		.4byte	.LASF1042
 17766 67b6 35       		.byte	0x35
 17767 67b7 2B       		.byte	0x2b
 17768 67b8 58       		.uleb128 0x58
 17769 67b9 E6060000 		.4byte	.LASF1043
 17770 67bd E6060000 		.4byte	.LASF1043
 17771 67c1 16       		.byte	0x16
 17772 67c2 8801     		.2byte	0x188
 17773 67c4 56       		.uleb128 0x56
 17774 67c5 B1320000 		.4byte	.LASF1044
 17775 67c9 B1320000 		.4byte	.LASF1044
 17776 67cd 34       		.byte	0x34
 17777 67ce 2C       		.byte	0x2c
 17778 67cf 56       		.uleb128 0x56
 17779 67d0 19310000 		.4byte	.LASF1045
 17780 67d4 19310000 		.4byte	.LASF1045
 17781 67d8 28       		.byte	0x28
 17782 67d9 1C       		.byte	0x1c
 17783 67da 58       		.uleb128 0x58
 17784 67db 5E280000 		.4byte	.LASF1046
 17785 67df 5E280000 		.4byte	.LASF1046
 17786 67e3 16       		.byte	0x16
ARM GAS  /tmp/ccHCUo6g.s 			page 328


 17787 67e4 8A01     		.2byte	0x18a
 17788 67e6 56       		.uleb128 0x56
 17789 67e7 A0240000 		.4byte	.LASF1047
 17790 67eb A0240000 		.4byte	.LASF1047
 17791 67ef 2E       		.byte	0x2e
 17792 67f0 32       		.byte	0x32
 17793 67f1 56       		.uleb128 0x56
 17794 67f2 36380000 		.4byte	.LASF1048
 17795 67f6 36380000 		.4byte	.LASF1048
 17796 67fa 27       		.byte	0x27
 17797 67fb 41       		.byte	0x41
 17798 67fc 56       		.uleb128 0x56
 17799 67fd 92340000 		.4byte	.LASF1049
 17800 6801 92340000 		.4byte	.LASF1049
 17801 6805 28       		.byte	0x28
 17802 6806 6A       		.byte	0x6a
 17803 6807 56       		.uleb128 0x56
 17804 6808 AD1C0000 		.4byte	.LASF1050
 17805 680c AD1C0000 		.4byte	.LASF1050
 17806 6810 28       		.byte	0x28
 17807 6811 73       		.byte	0x73
 17808 6812 56       		.uleb128 0x56
 17809 6813 9F220000 		.4byte	.LASF1051
 17810 6817 9F220000 		.4byte	.LASF1051
 17811 681b 27       		.byte	0x27
 17812 681c 2F       		.byte	0x2f
 17813 681d 56       		.uleb128 0x56
 17814 681e C3190000 		.4byte	.LASF1052
 17815 6822 C3190000 		.4byte	.LASF1052
 17816 6826 28       		.byte	0x28
 17817 6827 22       		.byte	0x22
 17818 6828 56       		.uleb128 0x56
 17819 6829 DF120000 		.4byte	.LASF1053
 17820 682d DF120000 		.4byte	.LASF1053
 17821 6831 28       		.byte	0x28
 17822 6832 65       		.byte	0x65
 17823 6833 56       		.uleb128 0x56
 17824 6834 C4080000 		.4byte	.LASF1054
 17825 6838 C4080000 		.4byte	.LASF1054
 17826 683c 35       		.byte	0x35
 17827 683d 52       		.byte	0x52
 17828 683e 56       		.uleb128 0x56
 17829 683f AE060000 		.4byte	.LASF1055
 17830 6843 AE060000 		.4byte	.LASF1055
 17831 6847 36       		.byte	0x36
 17832 6848 2B       		.byte	0x2b
 17833 6849 56       		.uleb128 0x56
 17834 684a E8130000 		.4byte	.LASF1056
 17835 684e E8130000 		.4byte	.LASF1056
 17836 6852 36       		.byte	0x36
 17837 6853 2D       		.byte	0x2d
 17838 6854 56       		.uleb128 0x56
 17839 6855 FF240000 		.4byte	.LASF1057
 17840 6859 FF240000 		.4byte	.LASF1057
 17841 685d 36       		.byte	0x36
 17842 685e 2C       		.byte	0x2c
 17843 685f 56       		.uleb128 0x56
ARM GAS  /tmp/ccHCUo6g.s 			page 329


 17844 6860 DE320000 		.4byte	.LASF1058
 17845 6864 DE320000 		.4byte	.LASF1058
 17846 6868 36       		.byte	0x36
 17847 6869 2E       		.byte	0x2e
 17848 686a 56       		.uleb128 0x56
 17849 686b A7260000 		.4byte	.LASF1059
 17850 686f A7260000 		.4byte	.LASF1059
 17851 6873 36       		.byte	0x36
 17852 6874 28       		.byte	0x28
 17853 6875 56       		.uleb128 0x56
 17854 6876 06120000 		.4byte	.LASF1060
 17855 687a 06120000 		.4byte	.LASF1060
 17856 687e 36       		.byte	0x36
 17857 687f 29       		.byte	0x29
 17858 6880 56       		.uleb128 0x56
 17859 6881 A42F0000 		.4byte	.LASF1061
 17860 6885 A42F0000 		.4byte	.LASF1061
 17861 6889 36       		.byte	0x36
 17862 688a 2A       		.byte	0x2a
 17863 688b 00       		.byte	0
 17864              		.section	.debug_abbrev,"",%progbits
 17865              	.Ldebug_abbrev0:
 17866 0000 01       		.uleb128 0x1
 17867 0001 11       		.uleb128 0x11
 17868 0002 01       		.byte	0x1
 17869 0003 25       		.uleb128 0x25
 17870 0004 0E       		.uleb128 0xe
 17871 0005 13       		.uleb128 0x13
 17872 0006 0B       		.uleb128 0xb
 17873 0007 03       		.uleb128 0x3
 17874 0008 0E       		.uleb128 0xe
 17875 0009 1B       		.uleb128 0x1b
 17876 000a 0E       		.uleb128 0xe
 17877 000b 55       		.uleb128 0x55
 17878 000c 17       		.uleb128 0x17
 17879 000d 11       		.uleb128 0x11
 17880 000e 01       		.uleb128 0x1
 17881 000f 10       		.uleb128 0x10
 17882 0010 17       		.uleb128 0x17
 17883 0011 00       		.byte	0
 17884 0012 00       		.byte	0
 17885 0013 02       		.uleb128 0x2
 17886 0014 24       		.uleb128 0x24
 17887 0015 00       		.byte	0
 17888 0016 0B       		.uleb128 0xb
 17889 0017 0B       		.uleb128 0xb
 17890 0018 3E       		.uleb128 0x3e
 17891 0019 0B       		.uleb128 0xb
 17892 001a 03       		.uleb128 0x3
 17893 001b 0E       		.uleb128 0xe
 17894 001c 00       		.byte	0
 17895 001d 00       		.byte	0
 17896 001e 03       		.uleb128 0x3
 17897 001f 24       		.uleb128 0x24
 17898 0020 00       		.byte	0
 17899 0021 0B       		.uleb128 0xb
 17900 0022 0B       		.uleb128 0xb
ARM GAS  /tmp/ccHCUo6g.s 			page 330


 17901 0023 3E       		.uleb128 0x3e
 17902 0024 0B       		.uleb128 0xb
 17903 0025 03       		.uleb128 0x3
 17904 0026 08       		.uleb128 0x8
 17905 0027 00       		.byte	0
 17906 0028 00       		.byte	0
 17907 0029 04       		.uleb128 0x4
 17908 002a 35       		.uleb128 0x35
 17909 002b 00       		.byte	0
 17910 002c 49       		.uleb128 0x49
 17911 002d 13       		.uleb128 0x13
 17912 002e 00       		.byte	0
 17913 002f 00       		.byte	0
 17914 0030 05       		.uleb128 0x5
 17915 0031 16       		.uleb128 0x16
 17916 0032 00       		.byte	0
 17917 0033 03       		.uleb128 0x3
 17918 0034 0E       		.uleb128 0xe
 17919 0035 3A       		.uleb128 0x3a
 17920 0036 0B       		.uleb128 0xb
 17921 0037 3B       		.uleb128 0x3b
 17922 0038 0B       		.uleb128 0xb
 17923 0039 49       		.uleb128 0x49
 17924 003a 13       		.uleb128 0x13
 17925 003b 00       		.byte	0
 17926 003c 00       		.byte	0
 17927 003d 06       		.uleb128 0x6
 17928 003e 26       		.uleb128 0x26
 17929 003f 00       		.byte	0
 17930 0040 49       		.uleb128 0x49
 17931 0041 13       		.uleb128 0x13
 17932 0042 00       		.byte	0
 17933 0043 00       		.byte	0
 17934 0044 07       		.uleb128 0x7
 17935 0045 13       		.uleb128 0x13
 17936 0046 01       		.byte	0x1
 17937 0047 03       		.uleb128 0x3
 17938 0048 0E       		.uleb128 0xe
 17939 0049 0B       		.uleb128 0xb
 17940 004a 0B       		.uleb128 0xb
 17941 004b 3A       		.uleb128 0x3a
 17942 004c 0B       		.uleb128 0xb
 17943 004d 3B       		.uleb128 0x3b
 17944 004e 0B       		.uleb128 0xb
 17945 004f 01       		.uleb128 0x1
 17946 0050 13       		.uleb128 0x13
 17947 0051 00       		.byte	0
 17948 0052 00       		.byte	0
 17949 0053 08       		.uleb128 0x8
 17950 0054 0D       		.uleb128 0xd
 17951 0055 00       		.byte	0
 17952 0056 03       		.uleb128 0x3
 17953 0057 0E       		.uleb128 0xe
 17954 0058 3A       		.uleb128 0x3a
 17955 0059 0B       		.uleb128 0xb
 17956 005a 3B       		.uleb128 0x3b
 17957 005b 0B       		.uleb128 0xb
ARM GAS  /tmp/ccHCUo6g.s 			page 331


 17958 005c 49       		.uleb128 0x49
 17959 005d 13       		.uleb128 0x13
 17960 005e 38       		.uleb128 0x38
 17961 005f 0B       		.uleb128 0xb
 17962 0060 00       		.byte	0
 17963 0061 00       		.byte	0
 17964 0062 09       		.uleb128 0x9
 17965 0063 0D       		.uleb128 0xd
 17966 0064 00       		.byte	0
 17967 0065 03       		.uleb128 0x3
 17968 0066 08       		.uleb128 0x8
 17969 0067 3A       		.uleb128 0x3a
 17970 0068 0B       		.uleb128 0xb
 17971 0069 3B       		.uleb128 0x3b
 17972 006a 05       		.uleb128 0x5
 17973 006b 49       		.uleb128 0x49
 17974 006c 13       		.uleb128 0x13
 17975 006d 38       		.uleb128 0x38
 17976 006e 0B       		.uleb128 0xb
 17977 006f 00       		.byte	0
 17978 0070 00       		.byte	0
 17979 0071 0A       		.uleb128 0xa
 17980 0072 0D       		.uleb128 0xd
 17981 0073 00       		.byte	0
 17982 0074 03       		.uleb128 0x3
 17983 0075 0E       		.uleb128 0xe
 17984 0076 3A       		.uleb128 0x3a
 17985 0077 0B       		.uleb128 0xb
 17986 0078 3B       		.uleb128 0x3b
 17987 0079 05       		.uleb128 0x5
 17988 007a 49       		.uleb128 0x49
 17989 007b 13       		.uleb128 0x13
 17990 007c 38       		.uleb128 0x38
 17991 007d 0B       		.uleb128 0xb
 17992 007e 00       		.byte	0
 17993 007f 00       		.byte	0
 17994 0080 0B       		.uleb128 0xb
 17995 0081 0F       		.uleb128 0xf
 17996 0082 00       		.byte	0
 17997 0083 0B       		.uleb128 0xb
 17998 0084 0B       		.uleb128 0xb
 17999 0085 49       		.uleb128 0x49
 18000 0086 13       		.uleb128 0x13
 18001 0087 00       		.byte	0
 18002 0088 00       		.byte	0
 18003 0089 0C       		.uleb128 0xc
 18004 008a 13       		.uleb128 0x13
 18005 008b 01       		.byte	0x1
 18006 008c 03       		.uleb128 0x3
 18007 008d 0E       		.uleb128 0xe
 18008 008e 0B       		.uleb128 0xb
 18009 008f 0B       		.uleb128 0xb
 18010 0090 3A       		.uleb128 0x3a
 18011 0091 0B       		.uleb128 0xb
 18012 0092 3B       		.uleb128 0x3b
 18013 0093 05       		.uleb128 0x5
 18014 0094 01       		.uleb128 0x1
ARM GAS  /tmp/ccHCUo6g.s 			page 332


 18015 0095 13       		.uleb128 0x13
 18016 0096 00       		.byte	0
 18017 0097 00       		.byte	0
 18018 0098 0D       		.uleb128 0xd
 18019 0099 15       		.uleb128 0x15
 18020 009a 01       		.byte	0x1
 18021 009b 27       		.uleb128 0x27
 18022 009c 19       		.uleb128 0x19
 18023 009d 01       		.uleb128 0x1
 18024 009e 13       		.uleb128 0x13
 18025 009f 00       		.byte	0
 18026 00a0 00       		.byte	0
 18027 00a1 0E       		.uleb128 0xe
 18028 00a2 05       		.uleb128 0x5
 18029 00a3 00       		.byte	0
 18030 00a4 49       		.uleb128 0x49
 18031 00a5 13       		.uleb128 0x13
 18032 00a6 00       		.byte	0
 18033 00a7 00       		.byte	0
 18034 00a8 0F       		.uleb128 0xf
 18035 00a9 0F       		.uleb128 0xf
 18036 00aa 00       		.byte	0
 18037 00ab 0B       		.uleb128 0xb
 18038 00ac 0B       		.uleb128 0xb
 18039 00ad 00       		.byte	0
 18040 00ae 00       		.byte	0
 18041 00af 10       		.uleb128 0x10
 18042 00b0 13       		.uleb128 0x13
 18043 00b1 01       		.byte	0x1
 18044 00b2 03       		.uleb128 0x3
 18045 00b3 0E       		.uleb128 0xe
 18046 00b4 0B       		.uleb128 0xb
 18047 00b5 05       		.uleb128 0x5
 18048 00b6 3A       		.uleb128 0x3a
 18049 00b7 0B       		.uleb128 0xb
 18050 00b8 3B       		.uleb128 0x3b
 18051 00b9 05       		.uleb128 0x5
 18052 00ba 01       		.uleb128 0x1
 18053 00bb 13       		.uleb128 0x13
 18054 00bc 00       		.byte	0
 18055 00bd 00       		.byte	0
 18056 00be 11       		.uleb128 0x11
 18057 00bf 01       		.uleb128 0x1
 18058 00c0 01       		.byte	0x1
 18059 00c1 49       		.uleb128 0x49
 18060 00c2 13       		.uleb128 0x13
 18061 00c3 01       		.uleb128 0x1
 18062 00c4 13       		.uleb128 0x13
 18063 00c5 00       		.byte	0
 18064 00c6 00       		.byte	0
 18065 00c7 12       		.uleb128 0x12
 18066 00c8 21       		.uleb128 0x21
 18067 00c9 00       		.byte	0
 18068 00ca 49       		.uleb128 0x49
 18069 00cb 13       		.uleb128 0x13
 18070 00cc 2F       		.uleb128 0x2f
 18071 00cd 0B       		.uleb128 0xb
ARM GAS  /tmp/ccHCUo6g.s 			page 333


 18072 00ce 00       		.byte	0
 18073 00cf 00       		.byte	0
 18074 00d0 13       		.uleb128 0x13
 18075 00d1 34       		.uleb128 0x34
 18076 00d2 00       		.byte	0
 18077 00d3 03       		.uleb128 0x3
 18078 00d4 0E       		.uleb128 0xe
 18079 00d5 3A       		.uleb128 0x3a
 18080 00d6 0B       		.uleb128 0xb
 18081 00d7 3B       		.uleb128 0x3b
 18082 00d8 05       		.uleb128 0x5
 18083 00d9 49       		.uleb128 0x49
 18084 00da 13       		.uleb128 0x13
 18085 00db 3F       		.uleb128 0x3f
 18086 00dc 19       		.uleb128 0x19
 18087 00dd 3C       		.uleb128 0x3c
 18088 00de 19       		.uleb128 0x19
 18089 00df 00       		.byte	0
 18090 00e0 00       		.byte	0
 18091 00e1 14       		.uleb128 0x14
 18092 00e2 34       		.uleb128 0x34
 18093 00e3 00       		.byte	0
 18094 00e4 03       		.uleb128 0x3
 18095 00e5 0E       		.uleb128 0xe
 18096 00e6 3A       		.uleb128 0x3a
 18097 00e7 0B       		.uleb128 0xb
 18098 00e8 3B       		.uleb128 0x3b
 18099 00e9 0B       		.uleb128 0xb
 18100 00ea 49       		.uleb128 0x49
 18101 00eb 13       		.uleb128 0x13
 18102 00ec 3F       		.uleb128 0x3f
 18103 00ed 19       		.uleb128 0x19
 18104 00ee 3C       		.uleb128 0x3c
 18105 00ef 19       		.uleb128 0x19
 18106 00f0 00       		.byte	0
 18107 00f1 00       		.byte	0
 18108 00f2 15       		.uleb128 0x15
 18109 00f3 13       		.uleb128 0x13
 18110 00f4 01       		.byte	0x1
 18111 00f5 0B       		.uleb128 0xb
 18112 00f6 0B       		.uleb128 0xb
 18113 00f7 3A       		.uleb128 0x3a
 18114 00f8 0B       		.uleb128 0xb
 18115 00f9 3B       		.uleb128 0x3b
 18116 00fa 0B       		.uleb128 0xb
 18117 00fb 01       		.uleb128 0x1
 18118 00fc 13       		.uleb128 0x13
 18119 00fd 00       		.byte	0
 18120 00fe 00       		.byte	0
 18121 00ff 16       		.uleb128 0x16
 18122 0100 0D       		.uleb128 0xd
 18123 0101 00       		.byte	0
 18124 0102 03       		.uleb128 0x3
 18125 0103 08       		.uleb128 0x8
 18126 0104 3A       		.uleb128 0x3a
 18127 0105 0B       		.uleb128 0xb
 18128 0106 3B       		.uleb128 0x3b
ARM GAS  /tmp/ccHCUo6g.s 			page 334


 18129 0107 0B       		.uleb128 0xb
 18130 0108 49       		.uleb128 0x49
 18131 0109 13       		.uleb128 0x13
 18132 010a 38       		.uleb128 0x38
 18133 010b 0B       		.uleb128 0xb
 18134 010c 00       		.byte	0
 18135 010d 00       		.byte	0
 18136 010e 17       		.uleb128 0x17
 18137 010f 13       		.uleb128 0x13
 18138 0110 01       		.byte	0x1
 18139 0111 0B       		.uleb128 0xb
 18140 0112 0B       		.uleb128 0xb
 18141 0113 3A       		.uleb128 0x3a
 18142 0114 0B       		.uleb128 0xb
 18143 0115 3B       		.uleb128 0x3b
 18144 0116 05       		.uleb128 0x5
 18145 0117 01       		.uleb128 0x1
 18146 0118 13       		.uleb128 0x13
 18147 0119 00       		.byte	0
 18148 011a 00       		.byte	0
 18149 011b 18       		.uleb128 0x18
 18150 011c 16       		.uleb128 0x16
 18151 011d 00       		.byte	0
 18152 011e 03       		.uleb128 0x3
 18153 011f 0E       		.uleb128 0xe
 18154 0120 3A       		.uleb128 0x3a
 18155 0121 0B       		.uleb128 0xb
 18156 0122 3B       		.uleb128 0x3b
 18157 0123 05       		.uleb128 0x5
 18158 0124 49       		.uleb128 0x49
 18159 0125 13       		.uleb128 0x13
 18160 0126 00       		.byte	0
 18161 0127 00       		.byte	0
 18162 0128 19       		.uleb128 0x19
 18163 0129 13       		.uleb128 0x13
 18164 012a 01       		.byte	0x1
 18165 012b 0B       		.uleb128 0xb
 18166 012c 05       		.uleb128 0x5
 18167 012d 3A       		.uleb128 0x3a
 18168 012e 0B       		.uleb128 0xb
 18169 012f 3B       		.uleb128 0x3b
 18170 0130 05       		.uleb128 0x5
 18171 0131 01       		.uleb128 0x1
 18172 0132 13       		.uleb128 0x13
 18173 0133 00       		.byte	0
 18174 0134 00       		.byte	0
 18175 0135 1A       		.uleb128 0x1a
 18176 0136 0D       		.uleb128 0xd
 18177 0137 00       		.byte	0
 18178 0138 03       		.uleb128 0x3
 18179 0139 0E       		.uleb128 0xe
 18180 013a 3A       		.uleb128 0x3a
 18181 013b 0B       		.uleb128 0xb
 18182 013c 3B       		.uleb128 0x3b
 18183 013d 05       		.uleb128 0x5
 18184 013e 49       		.uleb128 0x49
 18185 013f 13       		.uleb128 0x13
ARM GAS  /tmp/ccHCUo6g.s 			page 335


 18186 0140 38       		.uleb128 0x38
 18187 0141 05       		.uleb128 0x5
 18188 0142 00       		.byte	0
 18189 0143 00       		.byte	0
 18190 0144 1B       		.uleb128 0x1b
 18191 0145 0D       		.uleb128 0xd
 18192 0146 00       		.byte	0
 18193 0147 03       		.uleb128 0x3
 18194 0148 08       		.uleb128 0x8
 18195 0149 3A       		.uleb128 0x3a
 18196 014a 0B       		.uleb128 0xb
 18197 014b 3B       		.uleb128 0x3b
 18198 014c 05       		.uleb128 0x5
 18199 014d 49       		.uleb128 0x49
 18200 014e 13       		.uleb128 0x13
 18201 014f 38       		.uleb128 0x38
 18202 0150 05       		.uleb128 0x5
 18203 0151 00       		.byte	0
 18204 0152 00       		.byte	0
 18205 0153 1C       		.uleb128 0x1c
 18206 0154 17       		.uleb128 0x17
 18207 0155 01       		.byte	0x1
 18208 0156 0B       		.uleb128 0xb
 18209 0157 0B       		.uleb128 0xb
 18210 0158 3A       		.uleb128 0x3a
 18211 0159 0B       		.uleb128 0xb
 18212 015a 3B       		.uleb128 0x3b
 18213 015b 0B       		.uleb128 0xb
 18214 015c 01       		.uleb128 0x1
 18215 015d 13       		.uleb128 0x13
 18216 015e 00       		.byte	0
 18217 015f 00       		.byte	0
 18218 0160 1D       		.uleb128 0x1d
 18219 0161 0D       		.uleb128 0xd
 18220 0162 00       		.byte	0
 18221 0163 03       		.uleb128 0x3
 18222 0164 0E       		.uleb128 0xe
 18223 0165 3A       		.uleb128 0x3a
 18224 0166 0B       		.uleb128 0xb
 18225 0167 3B       		.uleb128 0x3b
 18226 0168 05       		.uleb128 0x5
 18227 0169 49       		.uleb128 0x49
 18228 016a 13       		.uleb128 0x13
 18229 016b 00       		.byte	0
 18230 016c 00       		.byte	0
 18231 016d 1E       		.uleb128 0x1e
 18232 016e 34       		.uleb128 0x34
 18233 016f 00       		.byte	0
 18234 0170 03       		.uleb128 0x3
 18235 0171 08       		.uleb128 0x8
 18236 0172 3A       		.uleb128 0x3a
 18237 0173 0B       		.uleb128 0xb
 18238 0174 3B       		.uleb128 0x3b
 18239 0175 05       		.uleb128 0x5
 18240 0176 49       		.uleb128 0x49
 18241 0177 13       		.uleb128 0x13
 18242 0178 3F       		.uleb128 0x3f
ARM GAS  /tmp/ccHCUo6g.s 			page 336


 18243 0179 19       		.uleb128 0x19
 18244 017a 3C       		.uleb128 0x3c
 18245 017b 19       		.uleb128 0x19
 18246 017c 00       		.byte	0
 18247 017d 00       		.byte	0
 18248 017e 1F       		.uleb128 0x1f
 18249 017f 15       		.uleb128 0x15
 18250 0180 01       		.byte	0x1
 18251 0181 27       		.uleb128 0x27
 18252 0182 19       		.uleb128 0x19
 18253 0183 49       		.uleb128 0x49
 18254 0184 13       		.uleb128 0x13
 18255 0185 01       		.uleb128 0x1
 18256 0186 13       		.uleb128 0x13
 18257 0187 00       		.byte	0
 18258 0188 00       		.byte	0
 18259 0189 20       		.uleb128 0x20
 18260 018a 04       		.uleb128 0x4
 18261 018b 01       		.byte	0x1
 18262 018c 3E       		.uleb128 0x3e
 18263 018d 0B       		.uleb128 0xb
 18264 018e 0B       		.uleb128 0xb
 18265 018f 0B       		.uleb128 0xb
 18266 0190 49       		.uleb128 0x49
 18267 0191 13       		.uleb128 0x13
 18268 0192 3A       		.uleb128 0x3a
 18269 0193 0B       		.uleb128 0xb
 18270 0194 3B       		.uleb128 0x3b
 18271 0195 0B       		.uleb128 0xb
 18272 0196 01       		.uleb128 0x1
 18273 0197 13       		.uleb128 0x13
 18274 0198 00       		.byte	0
 18275 0199 00       		.byte	0
 18276 019a 21       		.uleb128 0x21
 18277 019b 28       		.uleb128 0x28
 18278 019c 00       		.byte	0
 18279 019d 03       		.uleb128 0x3
 18280 019e 0E       		.uleb128 0xe
 18281 019f 1C       		.uleb128 0x1c
 18282 01a0 0B       		.uleb128 0xb
 18283 01a1 00       		.byte	0
 18284 01a2 00       		.byte	0
 18285 01a3 22       		.uleb128 0x22
 18286 01a4 13       		.uleb128 0x13
 18287 01a5 01       		.byte	0x1
 18288 01a6 0B       		.uleb128 0xb
 18289 01a7 05       		.uleb128 0x5
 18290 01a8 3A       		.uleb128 0x3a
 18291 01a9 0B       		.uleb128 0xb
 18292 01aa 3B       		.uleb128 0x3b
 18293 01ab 0B       		.uleb128 0xb
 18294 01ac 01       		.uleb128 0x1
 18295 01ad 13       		.uleb128 0x13
 18296 01ae 00       		.byte	0
 18297 01af 00       		.byte	0
 18298 01b0 23       		.uleb128 0x23
 18299 01b1 04       		.uleb128 0x4
ARM GAS  /tmp/ccHCUo6g.s 			page 337


 18300 01b2 01       		.byte	0x1
 18301 01b3 3E       		.uleb128 0x3e
 18302 01b4 0B       		.uleb128 0xb
 18303 01b5 0B       		.uleb128 0xb
 18304 01b6 0B       		.uleb128 0xb
 18305 01b7 49       		.uleb128 0x49
 18306 01b8 13       		.uleb128 0x13
 18307 01b9 3A       		.uleb128 0x3a
 18308 01ba 0B       		.uleb128 0xb
 18309 01bb 3B       		.uleb128 0x3b
 18310 01bc 05       		.uleb128 0x5
 18311 01bd 01       		.uleb128 0x1
 18312 01be 13       		.uleb128 0x13
 18313 01bf 00       		.byte	0
 18314 01c0 00       		.byte	0
 18315 01c1 24       		.uleb128 0x24
 18316 01c2 0D       		.uleb128 0xd
 18317 01c3 00       		.byte	0
 18318 01c4 03       		.uleb128 0x3
 18319 01c5 08       		.uleb128 0x8
 18320 01c6 3A       		.uleb128 0x3a
 18321 01c7 0B       		.uleb128 0xb
 18322 01c8 3B       		.uleb128 0x3b
 18323 01c9 0B       		.uleb128 0xb
 18324 01ca 49       		.uleb128 0x49
 18325 01cb 13       		.uleb128 0x13
 18326 01cc 00       		.byte	0
 18327 01cd 00       		.byte	0
 18328 01ce 25       		.uleb128 0x25
 18329 01cf 13       		.uleb128 0x13
 18330 01d0 01       		.byte	0x1
 18331 01d1 03       		.uleb128 0x3
 18332 01d2 0E       		.uleb128 0xe
 18333 01d3 0B       		.uleb128 0xb
 18334 01d4 05       		.uleb128 0x5
 18335 01d5 3A       		.uleb128 0x3a
 18336 01d6 0B       		.uleb128 0xb
 18337 01d7 3B       		.uleb128 0x3b
 18338 01d8 0B       		.uleb128 0xb
 18339 01d9 01       		.uleb128 0x1
 18340 01da 13       		.uleb128 0x13
 18341 01db 00       		.byte	0
 18342 01dc 00       		.byte	0
 18343 01dd 26       		.uleb128 0x26
 18344 01de 0D       		.uleb128 0xd
 18345 01df 00       		.byte	0
 18346 01e0 03       		.uleb128 0x3
 18347 01e1 0E       		.uleb128 0xe
 18348 01e2 3A       		.uleb128 0x3a
 18349 01e3 0B       		.uleb128 0xb
 18350 01e4 3B       		.uleb128 0x3b
 18351 01e5 0B       		.uleb128 0xb
 18352 01e6 49       		.uleb128 0x49
 18353 01e7 13       		.uleb128 0x13
 18354 01e8 38       		.uleb128 0x38
 18355 01e9 05       		.uleb128 0x5
 18356 01ea 00       		.byte	0
ARM GAS  /tmp/ccHCUo6g.s 			page 338


 18357 01eb 00       		.byte	0
 18358 01ec 27       		.uleb128 0x27
 18359 01ed 13       		.uleb128 0x13
 18360 01ee 01       		.byte	0x1
 18361 01ef 0B       		.uleb128 0xb
 18362 01f0 06       		.uleb128 0x6
 18363 01f1 3A       		.uleb128 0x3a
 18364 01f2 0B       		.uleb128 0xb
 18365 01f3 3B       		.uleb128 0x3b
 18366 01f4 0B       		.uleb128 0xb
 18367 01f5 01       		.uleb128 0x1
 18368 01f6 13       		.uleb128 0x13
 18369 01f7 00       		.byte	0
 18370 01f8 00       		.byte	0
 18371 01f9 28       		.uleb128 0x28
 18372 01fa 0D       		.uleb128 0xd
 18373 01fb 00       		.byte	0
 18374 01fc 03       		.uleb128 0x3
 18375 01fd 08       		.uleb128 0x8
 18376 01fe 3A       		.uleb128 0x3a
 18377 01ff 0B       		.uleb128 0xb
 18378 0200 3B       		.uleb128 0x3b
 18379 0201 0B       		.uleb128 0xb
 18380 0202 49       		.uleb128 0x49
 18381 0203 13       		.uleb128 0x13
 18382 0204 38       		.uleb128 0x38
 18383 0205 05       		.uleb128 0x5
 18384 0206 00       		.byte	0
 18385 0207 00       		.byte	0
 18386 0208 29       		.uleb128 0x29
 18387 0209 21       		.uleb128 0x21
 18388 020a 00       		.byte	0
 18389 020b 49       		.uleb128 0x49
 18390 020c 13       		.uleb128 0x13
 18391 020d 2F       		.uleb128 0x2f
 18392 020e 05       		.uleb128 0x5
 18393 020f 00       		.byte	0
 18394 0210 00       		.byte	0
 18395 0211 2A       		.uleb128 0x2a
 18396 0212 0D       		.uleb128 0xd
 18397 0213 00       		.byte	0
 18398 0214 03       		.uleb128 0x3
 18399 0215 0E       		.uleb128 0xe
 18400 0216 3A       		.uleb128 0x3a
 18401 0217 0B       		.uleb128 0xb
 18402 0218 3B       		.uleb128 0x3b
 18403 0219 0B       		.uleb128 0xb
 18404 021a 49       		.uleb128 0x49
 18405 021b 13       		.uleb128 0x13
 18406 021c 00       		.byte	0
 18407 021d 00       		.byte	0
 18408 021e 2B       		.uleb128 0x2b
 18409 021f 17       		.uleb128 0x17
 18410 0220 01       		.byte	0x1
 18411 0221 0B       		.uleb128 0xb
 18412 0222 0B       		.uleb128 0xb
 18413 0223 3A       		.uleb128 0x3a
ARM GAS  /tmp/ccHCUo6g.s 			page 339


 18414 0224 0B       		.uleb128 0xb
 18415 0225 3B       		.uleb128 0x3b
 18416 0226 05       		.uleb128 0x5
 18417 0227 01       		.uleb128 0x1
 18418 0228 13       		.uleb128 0x13
 18419 0229 00       		.byte	0
 18420 022a 00       		.byte	0
 18421 022b 2C       		.uleb128 0x2c
 18422 022c 21       		.uleb128 0x21
 18423 022d 00       		.byte	0
 18424 022e 00       		.byte	0
 18425 022f 00       		.byte	0
 18426 0230 2D       		.uleb128 0x2d
 18427 0231 13       		.uleb128 0x13
 18428 0232 00       		.byte	0
 18429 0233 03       		.uleb128 0x3
 18430 0234 0E       		.uleb128 0xe
 18431 0235 3C       		.uleb128 0x3c
 18432 0236 19       		.uleb128 0x19
 18433 0237 00       		.byte	0
 18434 0238 00       		.byte	0
 18435 0239 2E       		.uleb128 0x2e
 18436 023a 15       		.uleb128 0x15
 18437 023b 00       		.byte	0
 18438 023c 27       		.uleb128 0x27
 18439 023d 19       		.uleb128 0x19
 18440 023e 00       		.byte	0
 18441 023f 00       		.byte	0
 18442 0240 2F       		.uleb128 0x2f
 18443 0241 04       		.uleb128 0x4
 18444 0242 01       		.byte	0x1
 18445 0243 03       		.uleb128 0x3
 18446 0244 0E       		.uleb128 0xe
 18447 0245 3E       		.uleb128 0x3e
 18448 0246 0B       		.uleb128 0xb
 18449 0247 0B       		.uleb128 0xb
 18450 0248 0B       		.uleb128 0xb
 18451 0249 49       		.uleb128 0x49
 18452 024a 13       		.uleb128 0x13
 18453 024b 3A       		.uleb128 0x3a
 18454 024c 0B       		.uleb128 0xb
 18455 024d 3B       		.uleb128 0x3b
 18456 024e 05       		.uleb128 0x5
 18457 024f 01       		.uleb128 0x1
 18458 0250 13       		.uleb128 0x13
 18459 0251 00       		.byte	0
 18460 0252 00       		.byte	0
 18461 0253 30       		.uleb128 0x30
 18462 0254 28       		.uleb128 0x28
 18463 0255 00       		.byte	0
 18464 0256 03       		.uleb128 0x3
 18465 0257 0E       		.uleb128 0xe
 18466 0258 1C       		.uleb128 0x1c
 18467 0259 0D       		.uleb128 0xd
 18468 025a 00       		.byte	0
 18469 025b 00       		.byte	0
 18470 025c 31       		.uleb128 0x31
ARM GAS  /tmp/ccHCUo6g.s 			page 340


 18471 025d 34       		.uleb128 0x34
 18472 025e 00       		.byte	0
 18473 025f 03       		.uleb128 0x3
 18474 0260 0E       		.uleb128 0xe
 18475 0261 3A       		.uleb128 0x3a
 18476 0262 0B       		.uleb128 0xb
 18477 0263 3B       		.uleb128 0x3b
 18478 0264 0B       		.uleb128 0xb
 18479 0265 49       		.uleb128 0x49
 18480 0266 13       		.uleb128 0x13
 18481 0267 02       		.uleb128 0x2
 18482 0268 18       		.uleb128 0x18
 18483 0269 00       		.byte	0
 18484 026a 00       		.byte	0
 18485 026b 32       		.uleb128 0x32
 18486 026c 2E       		.uleb128 0x2e
 18487 026d 01       		.byte	0x1
 18488 026e 3F       		.uleb128 0x3f
 18489 026f 19       		.uleb128 0x19
 18490 0270 03       		.uleb128 0x3
 18491 0271 0E       		.uleb128 0xe
 18492 0272 3A       		.uleb128 0x3a
 18493 0273 0B       		.uleb128 0xb
 18494 0274 3B       		.uleb128 0x3b
 18495 0275 05       		.uleb128 0x5
 18496 0276 27       		.uleb128 0x27
 18497 0277 19       		.uleb128 0x19
 18498 0278 11       		.uleb128 0x11
 18499 0279 01       		.uleb128 0x1
 18500 027a 12       		.uleb128 0x12
 18501 027b 06       		.uleb128 0x6
 18502 027c 40       		.uleb128 0x40
 18503 027d 18       		.uleb128 0x18
 18504 027e 9742     		.uleb128 0x2117
 18505 0280 19       		.uleb128 0x19
 18506 0281 01       		.uleb128 0x1
 18507 0282 13       		.uleb128 0x13
 18508 0283 00       		.byte	0
 18509 0284 00       		.byte	0
 18510 0285 33       		.uleb128 0x33
 18511 0286 05       		.uleb128 0x5
 18512 0287 00       		.byte	0
 18513 0288 03       		.uleb128 0x3
 18514 0289 08       		.uleb128 0x8
 18515 028a 3A       		.uleb128 0x3a
 18516 028b 0B       		.uleb128 0xb
 18517 028c 3B       		.uleb128 0x3b
 18518 028d 05       		.uleb128 0x5
 18519 028e 49       		.uleb128 0x49
 18520 028f 13       		.uleb128 0x13
 18521 0290 02       		.uleb128 0x2
 18522 0291 18       		.uleb128 0x18
 18523 0292 00       		.byte	0
 18524 0293 00       		.byte	0
 18525 0294 34       		.uleb128 0x34
 18526 0295 0B       		.uleb128 0xb
 18527 0296 01       		.byte	0x1
ARM GAS  /tmp/ccHCUo6g.s 			page 341


 18528 0297 55       		.uleb128 0x55
 18529 0298 17       		.uleb128 0x17
 18530 0299 00       		.byte	0
 18531 029a 00       		.byte	0
 18532 029b 35       		.uleb128 0x35
 18533 029c 34       		.uleb128 0x34
 18534 029d 00       		.byte	0
 18535 029e 03       		.uleb128 0x3
 18536 029f 08       		.uleb128 0x8
 18537 02a0 3A       		.uleb128 0x3a
 18538 02a1 0B       		.uleb128 0xb
 18539 02a2 3B       		.uleb128 0x3b
 18540 02a3 05       		.uleb128 0x5
 18541 02a4 49       		.uleb128 0x49
 18542 02a5 13       		.uleb128 0x13
 18543 02a6 02       		.uleb128 0x2
 18544 02a7 17       		.uleb128 0x17
 18545 02a8 00       		.byte	0
 18546 02a9 00       		.byte	0
 18547 02aa 36       		.uleb128 0x36
 18548 02ab 05       		.uleb128 0x5
 18549 02ac 00       		.byte	0
 18550 02ad 03       		.uleb128 0x3
 18551 02ae 0E       		.uleb128 0xe
 18552 02af 3A       		.uleb128 0x3a
 18553 02b0 0B       		.uleb128 0xb
 18554 02b1 3B       		.uleb128 0x3b
 18555 02b2 05       		.uleb128 0x5
 18556 02b3 49       		.uleb128 0x49
 18557 02b4 13       		.uleb128 0x13
 18558 02b5 02       		.uleb128 0x2
 18559 02b6 17       		.uleb128 0x17
 18560 02b7 00       		.byte	0
 18561 02b8 00       		.byte	0
 18562 02b9 37       		.uleb128 0x37
 18563 02ba 05       		.uleb128 0x5
 18564 02bb 00       		.byte	0
 18565 02bc 03       		.uleb128 0x3
 18566 02bd 08       		.uleb128 0x8
 18567 02be 3A       		.uleb128 0x3a
 18568 02bf 0B       		.uleb128 0xb
 18569 02c0 3B       		.uleb128 0x3b
 18570 02c1 05       		.uleb128 0x5
 18571 02c2 49       		.uleb128 0x49
 18572 02c3 13       		.uleb128 0x13
 18573 02c4 02       		.uleb128 0x2
 18574 02c5 17       		.uleb128 0x17
 18575 02c6 00       		.byte	0
 18576 02c7 00       		.byte	0
 18577 02c8 38       		.uleb128 0x38
 18578 02c9 34       		.uleb128 0x34
 18579 02ca 00       		.byte	0
 18580 02cb 03       		.uleb128 0x3
 18581 02cc 0E       		.uleb128 0xe
 18582 02cd 3A       		.uleb128 0x3a
 18583 02ce 0B       		.uleb128 0xb
 18584 02cf 3B       		.uleb128 0x3b
ARM GAS  /tmp/ccHCUo6g.s 			page 342


 18585 02d0 05       		.uleb128 0x5
 18586 02d1 49       		.uleb128 0x49
 18587 02d2 13       		.uleb128 0x13
 18588 02d3 02       		.uleb128 0x2
 18589 02d4 17       		.uleb128 0x17
 18590 02d5 00       		.byte	0
 18591 02d6 00       		.byte	0
 18592 02d7 39       		.uleb128 0x39
 18593 02d8 898201   		.uleb128 0x4109
 18594 02db 01       		.byte	0x1
 18595 02dc 11       		.uleb128 0x11
 18596 02dd 01       		.uleb128 0x1
 18597 02de 31       		.uleb128 0x31
 18598 02df 13       		.uleb128 0x13
 18599 02e0 00       		.byte	0
 18600 02e1 00       		.byte	0
 18601 02e2 3A       		.uleb128 0x3a
 18602 02e3 8A8201   		.uleb128 0x410a
 18603 02e6 00       		.byte	0
 18604 02e7 02       		.uleb128 0x2
 18605 02e8 18       		.uleb128 0x18
 18606 02e9 9142     		.uleb128 0x2111
 18607 02eb 18       		.uleb128 0x18
 18608 02ec 00       		.byte	0
 18609 02ed 00       		.byte	0
 18610 02ee 3B       		.uleb128 0x3b
 18611 02ef 2E       		.uleb128 0x2e
 18612 02f0 00       		.byte	0
 18613 02f1 3F       		.uleb128 0x3f
 18614 02f2 19       		.uleb128 0x19
 18615 02f3 03       		.uleb128 0x3
 18616 02f4 0E       		.uleb128 0xe
 18617 02f5 3A       		.uleb128 0x3a
 18618 02f6 0B       		.uleb128 0xb
 18619 02f7 3B       		.uleb128 0x3b
 18620 02f8 05       		.uleb128 0x5
 18621 02f9 27       		.uleb128 0x27
 18622 02fa 19       		.uleb128 0x19
 18623 02fb 49       		.uleb128 0x49
 18624 02fc 13       		.uleb128 0x13
 18625 02fd 11       		.uleb128 0x11
 18626 02fe 01       		.uleb128 0x1
 18627 02ff 12       		.uleb128 0x12
 18628 0300 06       		.uleb128 0x6
 18629 0301 40       		.uleb128 0x40
 18630 0302 18       		.uleb128 0x18
 18631 0303 9742     		.uleb128 0x2117
 18632 0305 19       		.uleb128 0x19
 18633 0306 00       		.byte	0
 18634 0307 00       		.byte	0
 18635 0308 3C       		.uleb128 0x3c
 18636 0309 2E       		.uleb128 0x2e
 18637 030a 01       		.byte	0x1
 18638 030b 3F       		.uleb128 0x3f
 18639 030c 19       		.uleb128 0x19
 18640 030d 03       		.uleb128 0x3
 18641 030e 0E       		.uleb128 0xe
ARM GAS  /tmp/ccHCUo6g.s 			page 343


 18642 030f 3A       		.uleb128 0x3a
 18643 0310 0B       		.uleb128 0xb
 18644 0311 3B       		.uleb128 0x3b
 18645 0312 0B       		.uleb128 0xb
 18646 0313 27       		.uleb128 0x27
 18647 0314 19       		.uleb128 0x19
 18648 0315 11       		.uleb128 0x11
 18649 0316 01       		.uleb128 0x1
 18650 0317 12       		.uleb128 0x12
 18651 0318 06       		.uleb128 0x6
 18652 0319 40       		.uleb128 0x40
 18653 031a 18       		.uleb128 0x18
 18654 031b 9642     		.uleb128 0x2116
 18655 031d 19       		.uleb128 0x19
 18656 031e 01       		.uleb128 0x1
 18657 031f 13       		.uleb128 0x13
 18658 0320 00       		.byte	0
 18659 0321 00       		.byte	0
 18660 0322 3D       		.uleb128 0x3d
 18661 0323 05       		.uleb128 0x5
 18662 0324 00       		.byte	0
 18663 0325 03       		.uleb128 0x3
 18664 0326 08       		.uleb128 0x8
 18665 0327 3A       		.uleb128 0x3a
 18666 0328 0B       		.uleb128 0xb
 18667 0329 3B       		.uleb128 0x3b
 18668 032a 0B       		.uleb128 0xb
 18669 032b 49       		.uleb128 0x49
 18670 032c 13       		.uleb128 0x13
 18671 032d 02       		.uleb128 0x2
 18672 032e 17       		.uleb128 0x17
 18673 032f 00       		.byte	0
 18674 0330 00       		.byte	0
 18675 0331 3E       		.uleb128 0x3e
 18676 0332 34       		.uleb128 0x34
 18677 0333 00       		.byte	0
 18678 0334 03       		.uleb128 0x3
 18679 0335 0E       		.uleb128 0xe
 18680 0336 3A       		.uleb128 0x3a
 18681 0337 0B       		.uleb128 0xb
 18682 0338 3B       		.uleb128 0x3b
 18683 0339 0B       		.uleb128 0xb
 18684 033a 49       		.uleb128 0x49
 18685 033b 13       		.uleb128 0x13
 18686 033c 02       		.uleb128 0x2
 18687 033d 17       		.uleb128 0x17
 18688 033e 00       		.byte	0
 18689 033f 00       		.byte	0
 18690 0340 3F       		.uleb128 0x3f
 18691 0341 34       		.uleb128 0x34
 18692 0342 00       		.byte	0
 18693 0343 03       		.uleb128 0x3
 18694 0344 08       		.uleb128 0x8
 18695 0345 3A       		.uleb128 0x3a
 18696 0346 0B       		.uleb128 0xb
 18697 0347 3B       		.uleb128 0x3b
 18698 0348 0B       		.uleb128 0xb
ARM GAS  /tmp/ccHCUo6g.s 			page 344


 18699 0349 49       		.uleb128 0x49
 18700 034a 13       		.uleb128 0x13
 18701 034b 02       		.uleb128 0x2
 18702 034c 17       		.uleb128 0x17
 18703 034d 00       		.byte	0
 18704 034e 00       		.byte	0
 18705 034f 40       		.uleb128 0x40
 18706 0350 0B       		.uleb128 0xb
 18707 0351 01       		.byte	0x1
 18708 0352 11       		.uleb128 0x11
 18709 0353 01       		.uleb128 0x1
 18710 0354 12       		.uleb128 0x12
 18711 0355 06       		.uleb128 0x6
 18712 0356 01       		.uleb128 0x1
 18713 0357 13       		.uleb128 0x13
 18714 0358 00       		.byte	0
 18715 0359 00       		.byte	0
 18716 035a 41       		.uleb128 0x41
 18717 035b 898201   		.uleb128 0x4109
 18718 035e 01       		.byte	0x1
 18719 035f 11       		.uleb128 0x11
 18720 0360 01       		.uleb128 0x1
 18721 0361 31       		.uleb128 0x31
 18722 0362 13       		.uleb128 0x13
 18723 0363 01       		.uleb128 0x1
 18724 0364 13       		.uleb128 0x13
 18725 0365 00       		.byte	0
 18726 0366 00       		.byte	0
 18727 0367 42       		.uleb128 0x42
 18728 0368 898201   		.uleb128 0x4109
 18729 036b 00       		.byte	0
 18730 036c 11       		.uleb128 0x11
 18731 036d 01       		.uleb128 0x1
 18732 036e 31       		.uleb128 0x31
 18733 036f 13       		.uleb128 0x13
 18734 0370 00       		.byte	0
 18735 0371 00       		.byte	0
 18736 0372 43       		.uleb128 0x43
 18737 0373 1D       		.uleb128 0x1d
 18738 0374 00       		.byte	0
 18739 0375 31       		.uleb128 0x31
 18740 0376 13       		.uleb128 0x13
 18741 0377 11       		.uleb128 0x11
 18742 0378 01       		.uleb128 0x1
 18743 0379 12       		.uleb128 0x12
 18744 037a 06       		.uleb128 0x6
 18745 037b 58       		.uleb128 0x58
 18746 037c 0B       		.uleb128 0xb
 18747 037d 59       		.uleb128 0x59
 18748 037e 0B       		.uleb128 0xb
 18749 037f 00       		.byte	0
 18750 0380 00       		.byte	0
 18751 0381 44       		.uleb128 0x44
 18752 0382 1D       		.uleb128 0x1d
 18753 0383 01       		.byte	0x1
 18754 0384 31       		.uleb128 0x31
 18755 0385 13       		.uleb128 0x13
ARM GAS  /tmp/ccHCUo6g.s 			page 345


 18756 0386 11       		.uleb128 0x11
 18757 0387 01       		.uleb128 0x1
 18758 0388 12       		.uleb128 0x12
 18759 0389 06       		.uleb128 0x6
 18760 038a 58       		.uleb128 0x58
 18761 038b 0B       		.uleb128 0xb
 18762 038c 59       		.uleb128 0x59
 18763 038d 0B       		.uleb128 0xb
 18764 038e 01       		.uleb128 0x1
 18765 038f 13       		.uleb128 0x13
 18766 0390 00       		.byte	0
 18767 0391 00       		.byte	0
 18768 0392 45       		.uleb128 0x45
 18769 0393 1D       		.uleb128 0x1d
 18770 0394 01       		.byte	0x1
 18771 0395 31       		.uleb128 0x31
 18772 0396 13       		.uleb128 0x13
 18773 0397 11       		.uleb128 0x11
 18774 0398 01       		.uleb128 0x1
 18775 0399 12       		.uleb128 0x12
 18776 039a 06       		.uleb128 0x6
 18777 039b 58       		.uleb128 0x58
 18778 039c 0B       		.uleb128 0xb
 18779 039d 59       		.uleb128 0x59
 18780 039e 05       		.uleb128 0x5
 18781 039f 00       		.byte	0
 18782 03a0 00       		.byte	0
 18783 03a1 46       		.uleb128 0x46
 18784 03a2 1D       		.uleb128 0x1d
 18785 03a3 00       		.byte	0
 18786 03a4 31       		.uleb128 0x31
 18787 03a5 13       		.uleb128 0x13
 18788 03a6 11       		.uleb128 0x11
 18789 03a7 01       		.uleb128 0x1
 18790 03a8 12       		.uleb128 0x12
 18791 03a9 06       		.uleb128 0x6
 18792 03aa 58       		.uleb128 0x58
 18793 03ab 0B       		.uleb128 0xb
 18794 03ac 59       		.uleb128 0x59
 18795 03ad 05       		.uleb128 0x5
 18796 03ae 00       		.byte	0
 18797 03af 00       		.byte	0
 18798 03b0 47       		.uleb128 0x47
 18799 03b1 0B       		.uleb128 0xb
 18800 03b2 01       		.byte	0x1
 18801 03b3 11       		.uleb128 0x11
 18802 03b4 01       		.uleb128 0x1
 18803 03b5 12       		.uleb128 0x12
 18804 03b6 06       		.uleb128 0x6
 18805 03b7 00       		.byte	0
 18806 03b8 00       		.byte	0
 18807 03b9 48       		.uleb128 0x48
 18808 03ba 0B       		.uleb128 0xb
 18809 03bb 01       		.byte	0x1
 18810 03bc 55       		.uleb128 0x55
 18811 03bd 17       		.uleb128 0x17
 18812 03be 01       		.uleb128 0x1
ARM GAS  /tmp/ccHCUo6g.s 			page 346


 18813 03bf 13       		.uleb128 0x13
 18814 03c0 00       		.byte	0
 18815 03c1 00       		.byte	0
 18816 03c2 49       		.uleb128 0x49
 18817 03c3 34       		.uleb128 0x34
 18818 03c4 00       		.byte	0
 18819 03c5 03       		.uleb128 0x3
 18820 03c6 0E       		.uleb128 0xe
 18821 03c7 3A       		.uleb128 0x3a
 18822 03c8 0B       		.uleb128 0xb
 18823 03c9 3B       		.uleb128 0x3b
 18824 03ca 05       		.uleb128 0x5
 18825 03cb 49       		.uleb128 0x49
 18826 03cc 13       		.uleb128 0x13
 18827 03cd 02       		.uleb128 0x2
 18828 03ce 18       		.uleb128 0x18
 18829 03cf 00       		.byte	0
 18830 03d0 00       		.byte	0
 18831 03d1 4A       		.uleb128 0x4a
 18832 03d2 1D       		.uleb128 0x1d
 18833 03d3 01       		.byte	0x1
 18834 03d4 31       		.uleb128 0x31
 18835 03d5 13       		.uleb128 0x13
 18836 03d6 52       		.uleb128 0x52
 18837 03d7 01       		.uleb128 0x1
 18838 03d8 55       		.uleb128 0x55
 18839 03d9 17       		.uleb128 0x17
 18840 03da 58       		.uleb128 0x58
 18841 03db 0B       		.uleb128 0xb
 18842 03dc 59       		.uleb128 0x59
 18843 03dd 05       		.uleb128 0x5
 18844 03de 01       		.uleb128 0x1
 18845 03df 13       		.uleb128 0x13
 18846 03e0 00       		.byte	0
 18847 03e1 00       		.byte	0
 18848 03e2 4B       		.uleb128 0x4b
 18849 03e3 05       		.uleb128 0x5
 18850 03e4 00       		.byte	0
 18851 03e5 31       		.uleb128 0x31
 18852 03e6 13       		.uleb128 0x13
 18853 03e7 02       		.uleb128 0x2
 18854 03e8 17       		.uleb128 0x17
 18855 03e9 00       		.byte	0
 18856 03ea 00       		.byte	0
 18857 03eb 4C       		.uleb128 0x4c
 18858 03ec 1D       		.uleb128 0x1d
 18859 03ed 00       		.byte	0
 18860 03ee 31       		.uleb128 0x31
 18861 03ef 13       		.uleb128 0x13
 18862 03f0 52       		.uleb128 0x52
 18863 03f1 01       		.uleb128 0x1
 18864 03f2 55       		.uleb128 0x55
 18865 03f3 17       		.uleb128 0x17
 18866 03f4 58       		.uleb128 0x58
 18867 03f5 0B       		.uleb128 0xb
 18868 03f6 59       		.uleb128 0x59
 18869 03f7 05       		.uleb128 0x5
ARM GAS  /tmp/ccHCUo6g.s 			page 347


 18870 03f8 00       		.byte	0
 18871 03f9 00       		.byte	0
 18872 03fa 4D       		.uleb128 0x4d
 18873 03fb 34       		.uleb128 0x34
 18874 03fc 00       		.byte	0
 18875 03fd 03       		.uleb128 0x3
 18876 03fe 08       		.uleb128 0x8
 18877 03ff 3A       		.uleb128 0x3a
 18878 0400 0B       		.uleb128 0xb
 18879 0401 3B       		.uleb128 0x3b
 18880 0402 05       		.uleb128 0x5
 18881 0403 49       		.uleb128 0x49
 18882 0404 13       		.uleb128 0x13
 18883 0405 02       		.uleb128 0x2
 18884 0406 18       		.uleb128 0x18
 18885 0407 00       		.byte	0
 18886 0408 00       		.byte	0
 18887 0409 4E       		.uleb128 0x4e
 18888 040a 34       		.uleb128 0x34
 18889 040b 00       		.byte	0
 18890 040c 03       		.uleb128 0x3
 18891 040d 0E       		.uleb128 0xe
 18892 040e 3A       		.uleb128 0x3a
 18893 040f 0B       		.uleb128 0xb
 18894 0410 3B       		.uleb128 0x3b
 18895 0411 05       		.uleb128 0x5
 18896 0412 49       		.uleb128 0x49
 18897 0413 13       		.uleb128 0x13
 18898 0414 00       		.byte	0
 18899 0415 00       		.byte	0
 18900 0416 4F       		.uleb128 0x4f
 18901 0417 898201   		.uleb128 0x4109
 18902 041a 01       		.byte	0x1
 18903 041b 11       		.uleb128 0x11
 18904 041c 01       		.uleb128 0x1
 18905 041d 00       		.byte	0
 18906 041e 00       		.byte	0
 18907 041f 50       		.uleb128 0x50
 18908 0420 2E       		.uleb128 0x2e
 18909 0421 01       		.byte	0x1
 18910 0422 03       		.uleb128 0x3
 18911 0423 0E       		.uleb128 0xe
 18912 0424 3A       		.uleb128 0x3a
 18913 0425 0B       		.uleb128 0xb
 18914 0426 3B       		.uleb128 0x3b
 18915 0427 05       		.uleb128 0x5
 18916 0428 27       		.uleb128 0x27
 18917 0429 19       		.uleb128 0x19
 18918 042a 49       		.uleb128 0x49
 18919 042b 13       		.uleb128 0x13
 18920 042c 20       		.uleb128 0x20
 18921 042d 0B       		.uleb128 0xb
 18922 042e 01       		.uleb128 0x1
 18923 042f 13       		.uleb128 0x13
 18924 0430 00       		.byte	0
 18925 0431 00       		.byte	0
 18926 0432 51       		.uleb128 0x51
ARM GAS  /tmp/ccHCUo6g.s 			page 348


 18927 0433 05       		.uleb128 0x5
 18928 0434 00       		.byte	0
 18929 0435 03       		.uleb128 0x3
 18930 0436 0E       		.uleb128 0xe
 18931 0437 3A       		.uleb128 0x3a
 18932 0438 0B       		.uleb128 0xb
 18933 0439 3B       		.uleb128 0x3b
 18934 043a 05       		.uleb128 0x5
 18935 043b 49       		.uleb128 0x49
 18936 043c 13       		.uleb128 0x13
 18937 043d 00       		.byte	0
 18938 043e 00       		.byte	0
 18939 043f 52       		.uleb128 0x52
 18940 0440 2E       		.uleb128 0x2e
 18941 0441 00       		.byte	0
 18942 0442 03       		.uleb128 0x3
 18943 0443 0E       		.uleb128 0xe
 18944 0444 3A       		.uleb128 0x3a
 18945 0445 0B       		.uleb128 0xb
 18946 0446 3B       		.uleb128 0x3b
 18947 0447 0B       		.uleb128 0xb
 18948 0448 27       		.uleb128 0x27
 18949 0449 19       		.uleb128 0x19
 18950 044a 49       		.uleb128 0x49
 18951 044b 13       		.uleb128 0x13
 18952 044c 20       		.uleb128 0x20
 18953 044d 0B       		.uleb128 0xb
 18954 044e 00       		.byte	0
 18955 044f 00       		.byte	0
 18956 0450 53       		.uleb128 0x53
 18957 0451 2E       		.uleb128 0x2e
 18958 0452 01       		.byte	0x1
 18959 0453 03       		.uleb128 0x3
 18960 0454 0E       		.uleb128 0xe
 18961 0455 3A       		.uleb128 0x3a
 18962 0456 0B       		.uleb128 0xb
 18963 0457 3B       		.uleb128 0x3b
 18964 0458 05       		.uleb128 0x5
 18965 0459 27       		.uleb128 0x27
 18966 045a 19       		.uleb128 0x19
 18967 045b 20       		.uleb128 0x20
 18968 045c 0B       		.uleb128 0xb
 18969 045d 01       		.uleb128 0x1
 18970 045e 13       		.uleb128 0x13
 18971 045f 00       		.byte	0
 18972 0460 00       		.byte	0
 18973 0461 54       		.uleb128 0x54
 18974 0462 34       		.uleb128 0x34
 18975 0463 00       		.byte	0
 18976 0464 03       		.uleb128 0x3
 18977 0465 0E       		.uleb128 0xe
 18978 0466 49       		.uleb128 0x49
 18979 0467 13       		.uleb128 0x13
 18980 0468 34       		.uleb128 0x34
 18981 0469 19       		.uleb128 0x19
 18982 046a 1C       		.uleb128 0x1c
 18983 046b 0E       		.uleb128 0xe
ARM GAS  /tmp/ccHCUo6g.s 			page 349


 18984 046c 00       		.byte	0
 18985 046d 00       		.byte	0
 18986 046e 55       		.uleb128 0x55
 18987 046f 2E       		.uleb128 0x2e
 18988 0470 00       		.byte	0
 18989 0471 03       		.uleb128 0x3
 18990 0472 0E       		.uleb128 0xe
 18991 0473 3A       		.uleb128 0x3a
 18992 0474 0B       		.uleb128 0xb
 18993 0475 3B       		.uleb128 0x3b
 18994 0476 05       		.uleb128 0x5
 18995 0477 27       		.uleb128 0x27
 18996 0478 19       		.uleb128 0x19
 18997 0479 20       		.uleb128 0x20
 18998 047a 0B       		.uleb128 0xb
 18999 047b 00       		.byte	0
 19000 047c 00       		.byte	0
 19001 047d 56       		.uleb128 0x56
 19002 047e 2E       		.uleb128 0x2e
 19003 047f 00       		.byte	0
 19004 0480 3F       		.uleb128 0x3f
 19005 0481 19       		.uleb128 0x19
 19006 0482 3C       		.uleb128 0x3c
 19007 0483 19       		.uleb128 0x19
 19008 0484 6E       		.uleb128 0x6e
 19009 0485 0E       		.uleb128 0xe
 19010 0486 03       		.uleb128 0x3
 19011 0487 0E       		.uleb128 0xe
 19012 0488 3A       		.uleb128 0x3a
 19013 0489 0B       		.uleb128 0xb
 19014 048a 3B       		.uleb128 0x3b
 19015 048b 0B       		.uleb128 0xb
 19016 048c 00       		.byte	0
 19017 048d 00       		.byte	0
 19018 048e 57       		.uleb128 0x57
 19019 048f 2E       		.uleb128 0x2e
 19020 0490 00       		.byte	0
 19021 0491 3F       		.uleb128 0x3f
 19022 0492 19       		.uleb128 0x19
 19023 0493 3C       		.uleb128 0x3c
 19024 0494 19       		.uleb128 0x19
 19025 0495 6E       		.uleb128 0x6e
 19026 0496 0E       		.uleb128 0xe
 19027 0497 03       		.uleb128 0x3
 19028 0498 0E       		.uleb128 0xe
 19029 0499 3A       		.uleb128 0x3a
 19030 049a 0B       		.uleb128 0xb
 19031 049b 3B       		.uleb128 0x3b
 19032 049c 0B       		.uleb128 0xb
 19033 049d 6E       		.uleb128 0x6e
 19034 049e 0E       		.uleb128 0xe
 19035 049f 00       		.byte	0
 19036 04a0 00       		.byte	0
 19037 04a1 58       		.uleb128 0x58
 19038 04a2 2E       		.uleb128 0x2e
 19039 04a3 00       		.byte	0
 19040 04a4 3F       		.uleb128 0x3f
ARM GAS  /tmp/ccHCUo6g.s 			page 350


 19041 04a5 19       		.uleb128 0x19
 19042 04a6 3C       		.uleb128 0x3c
 19043 04a7 19       		.uleb128 0x19
 19044 04a8 6E       		.uleb128 0x6e
 19045 04a9 0E       		.uleb128 0xe
 19046 04aa 03       		.uleb128 0x3
 19047 04ab 0E       		.uleb128 0xe
 19048 04ac 3A       		.uleb128 0x3a
 19049 04ad 0B       		.uleb128 0xb
 19050 04ae 3B       		.uleb128 0x3b
 19051 04af 05       		.uleb128 0x5
 19052 04b0 00       		.byte	0
 19053 04b1 00       		.byte	0
 19054 04b2 00       		.byte	0
 19055              		.section	.debug_loc,"",%progbits
 19056              	.Ldebug_loc0:
 19057              	.LLST45:
 19058 0000 00000000 		.4byte	.LVL524
 19059 0004 12000000 		.4byte	.LVL525
 19060 0008 0200     		.2byte	0x2
 19061 000a 30       		.byte	0x30
 19062 000b 9F       		.byte	0x9f
 19063 000c 26000000 		.4byte	.LVL526
 19064 0010 30000000 		.4byte	.LFE263
 19065 0014 0200     		.2byte	0x2
 19066 0016 30       		.byte	0x30
 19067 0017 9F       		.byte	0x9f
 19068 0018 00000000 		.4byte	0
 19069 001c 00000000 		.4byte	0
 19070              	.LLST39:
 19071 0020 00000000 		.4byte	.LVL511
 19072 0024 1E000000 		.4byte	.LVL513
 19073 0028 0100     		.2byte	0x1
 19074 002a 50       		.byte	0x50
 19075 002b 1E000000 		.4byte	.LVL513
 19076 002f 90000000 		.4byte	.LFE262
 19077 0033 0100     		.2byte	0x1
 19078 0035 55       		.byte	0x55
 19079 0036 00000000 		.4byte	0
 19080 003a 00000000 		.4byte	0
 19081              	.LLST40:
 19082 003e 00000000 		.4byte	.LVL511
 19083 0042 28000000 		.4byte	.LVL514
 19084 0046 0100     		.2byte	0x1
 19085 0048 51       		.byte	0x51
 19086 0049 28000000 		.4byte	.LVL514
 19087 004d 84000000 		.4byte	.LVL523
 19088 0051 0100     		.2byte	0x1
 19089 0053 5A       		.byte	0x5a
 19090 0054 84000000 		.4byte	.LVL523
 19091 0058 90000000 		.4byte	.LFE262
 19092 005c 0100     		.2byte	0x1
 19093 005e 51       		.byte	0x51
 19094 005f 00000000 		.4byte	0
 19095 0063 00000000 		.4byte	0
 19096              	.LLST41:
 19097 0067 00000000 		.4byte	.LVL511
ARM GAS  /tmp/ccHCUo6g.s 			page 351


 19098 006b 28000000 		.4byte	.LVL514
 19099 006f 0100     		.2byte	0x1
 19100 0071 52       		.byte	0x52
 19101 0072 28000000 		.4byte	.LVL514
 19102 0076 84000000 		.4byte	.LVL523
 19103 007a 0100     		.2byte	0x1
 19104 007c 59       		.byte	0x59
 19105 007d 84000000 		.4byte	.LVL523
 19106 0081 90000000 		.4byte	.LFE262
 19107 0085 0100     		.2byte	0x1
 19108 0087 52       		.byte	0x52
 19109 0088 00000000 		.4byte	0
 19110 008c 00000000 		.4byte	0
 19111              	.LLST42:
 19112 0090 00000000 		.4byte	.LVL511
 19113 0094 28000000 		.4byte	.LVL514
 19114 0098 0100     		.2byte	0x1
 19115 009a 53       		.byte	0x53
 19116 009b 28000000 		.4byte	.LVL514
 19117 009f 84000000 		.4byte	.LVL523
 19118 00a3 0200     		.2byte	0x2
 19119 00a5 91       		.byte	0x91
 19120 00a6 54       		.sleb128 -44
 19121 00a7 84000000 		.4byte	.LVL523
 19122 00ab 90000000 		.4byte	.LFE262
 19123 00af 0100     		.2byte	0x1
 19124 00b1 53       		.byte	0x53
 19125 00b2 00000000 		.4byte	0
 19126 00b6 00000000 		.4byte	0
 19127              	.LLST43:
 19128 00ba 0E000000 		.4byte	.LVL512
 19129 00be 46000000 		.4byte	.LVL518
 19130 00c2 0100     		.2byte	0x1
 19131 00c4 56       		.byte	0x56
 19132 00c5 46000000 		.4byte	.LVL518
 19133 00c9 48000000 		.4byte	.LVL519
 19134 00cd 0100     		.2byte	0x1
 19135 00cf 54       		.byte	0x54
 19136 00d0 5A000000 		.4byte	.LVL520
 19137 00d4 60000000 		.4byte	.LVL521
 19138 00d8 0100     		.2byte	0x1
 19139 00da 56       		.byte	0x56
 19140 00db 60000000 		.4byte	.LVL521
 19141 00df 84000000 		.4byte	.LVL523
 19142 00e3 0300     		.2byte	0x3
 19143 00e5 76       		.byte	0x76
 19144 00e6 7F       		.sleb128 -1
 19145 00e7 9F       		.byte	0x9f
 19146 00e8 84000000 		.4byte	.LVL523
 19147 00ec 90000000 		.4byte	.LFE262
 19148 00f0 0100     		.2byte	0x1
 19149 00f2 56       		.byte	0x56
 19150 00f3 00000000 		.4byte	0
 19151 00f7 00000000 		.4byte	0
 19152              	.LLST44:
 19153 00fb 0E000000 		.4byte	.LVL512
 19154 00ff 28000000 		.4byte	.LVL514
ARM GAS  /tmp/ccHCUo6g.s 			page 352


 19155 0103 0200     		.2byte	0x2
 19156 0105 30       		.byte	0x30
 19157 0106 9F       		.byte	0x9f
 19158 0107 28000000 		.4byte	.LVL514
 19159 010b 46000000 		.4byte	.LVL518
 19160 010f 0100     		.2byte	0x1
 19161 0111 54       		.byte	0x54
 19162 0112 84000000 		.4byte	.LVL523
 19163 0116 90000000 		.4byte	.LFE262
 19164 011a 0200     		.2byte	0x2
 19165 011c 30       		.byte	0x30
 19166 011d 9F       		.byte	0x9f
 19167 011e 00000000 		.4byte	0
 19168 0122 00000000 		.4byte	0
 19169              	.LLST38:
 19170 0126 00000000 		.4byte	.LVL508
 19171 012a 14000000 		.4byte	.LVL509
 19172 012e 0100     		.2byte	0x1
 19173 0130 50       		.byte	0x50
 19174 0131 14000000 		.4byte	.LVL509
 19175 0135 1B000000 		.4byte	.LVL510-1
 19176 0139 0100     		.2byte	0x1
 19177 013b 51       		.byte	0x51
 19178 013c 1B000000 		.4byte	.LVL510-1
 19179 0140 30000000 		.4byte	.LFE260
 19180 0144 0400     		.2byte	0x4
 19181 0146 F3       		.byte	0xf3
 19182 0147 01       		.uleb128 0x1
 19183 0148 50       		.byte	0x50
 19184 0149 9F       		.byte	0x9f
 19185 014a 00000000 		.4byte	0
 19186 014e 00000000 		.4byte	0
 19187              	.LLST0:
 19188 0152 00000000 		.4byte	.LVL0
 19189 0156 0F000000 		.4byte	.LVL1-1
 19190 015a 0100     		.2byte	0x1
 19191 015c 50       		.byte	0x50
 19192 015d 0F000000 		.4byte	.LVL1-1
 19193 0161 D8190000 		.4byte	.LFE259
 19194 0165 0400     		.2byte	0x4
 19195 0167 F3       		.byte	0xf3
 19196 0168 01       		.uleb128 0x1
 19197 0169 50       		.byte	0x50
 19198 016a 9F       		.byte	0x9f
 19199 016b 00000000 		.4byte	0
 19200 016f 00000000 		.4byte	0
 19201              	.LLST1:
 19202 0173 00000000 		.4byte	.LVL0
 19203 0177 1E000000 		.4byte	.LVL2
 19204 017b 0200     		.2byte	0x2
 19205 017d 30       		.byte	0x30
 19206 017e 9F       		.byte	0x9f
 19207 017f 1E000000 		.4byte	.LVL2
 19208 0183 E0000000 		.4byte	.LVL20
 19209 0187 0100     		.2byte	0x1
 19210 0189 54       		.byte	0x54
 19211 018a E0000000 		.4byte	.LVL20
ARM GAS  /tmp/ccHCUo6g.s 			page 353


 19212 018e E6000000 		.4byte	.LVL22
 19213 0192 0200     		.2byte	0x2
 19214 0194 30       		.byte	0x30
 19215 0195 9F       		.byte	0x9f
 19216 0196 F0000000 		.4byte	.LVL23
 19217 019a F4000000 		.4byte	.LVL24
 19218 019e 0100     		.2byte	0x1
 19219 01a0 54       		.byte	0x54
 19220 01a1 04010000 		.4byte	.LVL26
 19221 01a5 5A010000 		.4byte	.LVL35
 19222 01a9 0100     		.2byte	0x1
 19223 01ab 54       		.byte	0x54
 19224 01ac 78010000 		.4byte	.LVL40
 19225 01b0 00020000 		.4byte	.LVL56
 19226 01b4 0100     		.2byte	0x1
 19227 01b6 54       		.byte	0x54
 19228 01b7 62020000 		.4byte	.LVL63
 19229 01bb A8030000 		.4byte	.LVL74
 19230 01bf 0100     		.2byte	0x1
 19231 01c1 54       		.byte	0x54
 19232 01c2 E6040000 		.4byte	.LVL111
 19233 01c6 AC050000 		.4byte	.LVL129
 19234 01ca 0100     		.2byte	0x1
 19235 01cc 54       		.byte	0x54
 19236 01cd AC060000 		.4byte	.LVL141
 19237 01d1 B2070000 		.4byte	.LVL152
 19238 01d5 0100     		.2byte	0x1
 19239 01d7 54       		.byte	0x54
 19240 01d8 32080000 		.4byte	.LVL163
 19241 01dc A6080000 		.4byte	.LVL171
 19242 01e0 0100     		.2byte	0x1
 19243 01e2 54       		.byte	0x54
 19244 01e3 AE080000 		.4byte	.LVL173
 19245 01e7 18090000 		.4byte	.LVL179
 19246 01eb 0100     		.2byte	0x1
 19247 01ed 54       		.byte	0x54
 19248 01ee 38090000 		.4byte	.LVL183
 19249 01f2 B0090000 		.4byte	.LVL185
 19250 01f6 0100     		.2byte	0x1
 19251 01f8 54       		.byte	0x54
 19252 01f9 540A0000 		.4byte	.LVL203
 19253 01fd 3C0B0000 		.4byte	.LVL218
 19254 0201 0100     		.2byte	0x1
 19255 0203 54       		.byte	0x54
 19256 0204 860B0000 		.4byte	.LVL226
 19257 0208 9A0B0000 		.4byte	.LVL229
 19258 020c 0100     		.2byte	0x1
 19259 020e 54       		.byte	0x54
 19260 020f CA0B0000 		.4byte	.LVL231
 19261 0213 9A0C0000 		.4byte	.LVL249
 19262 0217 0100     		.2byte	0x1
 19263 0219 54       		.byte	0x54
 19264 021a 840D0000 		.4byte	.LVL269
 19265 021e 140E0000 		.4byte	.LVL275
 19266 0222 0100     		.2byte	0x1
 19267 0224 54       		.byte	0x54
 19268 0225 260E0000 		.4byte	.LVL278
ARM GAS  /tmp/ccHCUo6g.s 			page 354


 19269 0229 480F0000 		.4byte	.LVL297
 19270 022d 0100     		.2byte	0x1
 19271 022f 54       		.byte	0x54
 19272 0230 980F0000 		.4byte	.LVL302
 19273 0234 AC0F0000 		.4byte	.LVL304
 19274 0238 0100     		.2byte	0x1
 19275 023a 54       		.byte	0x54
 19276 023b 34100000 		.4byte	.LVL309
 19277 023f 50100000 		.4byte	.LVL312
 19278 0243 0100     		.2byte	0x1
 19279 0245 54       		.byte	0x54
 19280 0246 C4100000 		.4byte	.LVL318
 19281 024a 5E110000 		.4byte	.LVL325
 19282 024e 0100     		.2byte	0x1
 19283 0250 54       		.byte	0x54
 19284 0251 68110000 		.4byte	.LVL327
 19285 0255 82110000 		.4byte	.LVL329
 19286 0259 0100     		.2byte	0x1
 19287 025b 54       		.byte	0x54
 19288 025c 7C120000 		.4byte	.LVL347
 19289 0260 80130000 		.4byte	.LVL360
 19290 0264 0100     		.2byte	0x1
 19291 0266 54       		.byte	0x54
 19292 0267 38140000 		.4byte	.LVL375
 19293 026b 48140000 		.4byte	.LVL377
 19294 026f 0100     		.2byte	0x1
 19295 0271 54       		.byte	0x54
 19296 0272 72140000 		.4byte	.LVL383
 19297 0276 C2140000 		.4byte	.LVL388
 19298 027a 0100     		.2byte	0x1
 19299 027c 54       		.byte	0x54
 19300 027d E0140000 		.4byte	.LVL392
 19301 0281 EC140000 		.4byte	.LVL394
 19302 0285 0100     		.2byte	0x1
 19303 0287 54       		.byte	0x54
 19304 0288 58150000 		.4byte	.LVL405
 19305 028c 20160000 		.4byte	.LVL413
 19306 0290 0100     		.2byte	0x1
 19307 0292 54       		.byte	0x54
 19308 0293 6A180000 		.4byte	.LVL503
 19309 0297 74180000 		.4byte	.LVL505
 19310 029b 0100     		.2byte	0x1
 19311 029d 54       		.byte	0x54
 19312 029e 00000000 		.4byte	0
 19313 02a2 00000000 		.4byte	0
 19314              	.LLST2:
 19315 02a6 10000000 		.4byte	.LVL1
 19316 02aa 2A000000 		.4byte	.LVL4
 19317 02ae 0100     		.2byte	0x1
 19318 02b0 50       		.byte	0x50
 19319 02b1 2A000000 		.4byte	.LVL4
 19320 02b5 2D000000 		.4byte	.LVL5-1
 19321 02b9 0200     		.2byte	0x2
 19322 02bb 75       		.byte	0x75
 19323 02bc 7C       		.sleb128 -4
 19324 02bd 30000000 		.4byte	.LVL6
 19325 02c1 39000000 		.4byte	.LVL7-1
ARM GAS  /tmp/ccHCUo6g.s 			page 355


 19326 02c5 0100     		.2byte	0x1
 19327 02c7 50       		.byte	0x50
 19328 02c8 E0000000 		.4byte	.LVL20
 19329 02cc E2000000 		.4byte	.LVL21
 19330 02d0 0100     		.2byte	0x1
 19331 02d2 50       		.byte	0x50
 19332 02d3 00000000 		.4byte	0
 19333 02d7 00000000 		.4byte	0
 19334              	.LLST4:
 19335 02db 5A010000 		.4byte	.LVL35
 19336 02df 5D010000 		.4byte	.LVL36-1
 19337 02e3 0100     		.2byte	0x1
 19338 02e5 50       		.byte	0x50
 19339 02e6 5D010000 		.4byte	.LVL36-1
 19340 02ea 78010000 		.4byte	.LVL40
 19341 02ee 0100     		.2byte	0x1
 19342 02f0 54       		.byte	0x54
 19343 02f1 00000000 		.4byte	0
 19344 02f5 00000000 		.4byte	0
 19345              	.LLST5:
 19346 02f9 00020000 		.4byte	.LVL56
 19347 02fd 24020000 		.4byte	.LVL57
 19348 0301 0100     		.2byte	0x1
 19349 0303 50       		.byte	0x50
 19350 0304 24020000 		.4byte	.LVL57
 19351 0308 54020000 		.4byte	.LVL60
 19352 030c 0100     		.2byte	0x1
 19353 030e 54       		.byte	0x54
 19354 030f 54020000 		.4byte	.LVL60
 19355 0313 5A020000 		.4byte	.LVL61
 19356 0317 0100     		.2byte	0x1
 19357 0319 50       		.byte	0x50
 19358 031a 00000000 		.4byte	0
 19359 031e 00000000 		.4byte	0
 19360              	.LLST6:
 19361 0322 CE020000 		.4byte	.LVL73
 19362 0326 A8030000 		.4byte	.LVL74
 19363 032a 0200     		.2byte	0x2
 19364 032c 30       		.byte	0x30
 19365 032d 9F       		.byte	0x9f
 19366 032e A8030000 		.4byte	.LVL74
 19367 0332 E6040000 		.4byte	.LVL111
 19368 0336 0100     		.2byte	0x1
 19369 0338 56       		.byte	0x56
 19370 0339 00000000 		.4byte	0
 19371 033d 00000000 		.4byte	0
 19372              	.LLST7:
 19373 0341 9C050000 		.4byte	.LVL123
 19374 0345 AC060000 		.4byte	.LVL141
 19375 0349 0100     		.2byte	0x1
 19376 034b 5A       		.byte	0x5a
 19377 034c 00000000 		.4byte	0
 19378 0350 00000000 		.4byte	0
 19379              	.LLST8:
 19380 0354 A0050000 		.4byte	.LVL124
 19381 0358 AC060000 		.4byte	.LVL141
 19382 035c 0100     		.2byte	0x1
ARM GAS  /tmp/ccHCUo6g.s 			page 356


 19383 035e 59       		.byte	0x59
 19384 035f 00000000 		.4byte	0
 19385 0363 00000000 		.4byte	0
 19386              	.LLST9:
 19387 0367 A4050000 		.4byte	.LVL125
 19388 036b AC060000 		.4byte	.LVL141
 19389 036f 0100     		.2byte	0x1
 19390 0371 58       		.byte	0x58
 19391 0372 00000000 		.4byte	0
 19392 0376 00000000 		.4byte	0
 19393              	.LLST10:
 19394 037a A6050000 		.4byte	.LVL126
 19395 037e AC060000 		.4byte	.LVL141
 19396 0382 0100     		.2byte	0x1
 19397 0384 57       		.byte	0x57
 19398 0385 00000000 		.4byte	0
 19399 0389 00000000 		.4byte	0
 19400              	.LLST11:
 19401 038d A8050000 		.4byte	.LVL127
 19402 0391 AC060000 		.4byte	.LVL141
 19403 0395 0100     		.2byte	0x1
 19404 0397 56       		.byte	0x56
 19405 0398 00000000 		.4byte	0
 19406 039c 00000000 		.4byte	0
 19407              	.LLST12:
 19408 03a0 AA050000 		.4byte	.LVL128
 19409 03a4 AC060000 		.4byte	.LVL141
 19410 03a8 0100     		.2byte	0x1
 19411 03aa 55       		.byte	0x55
 19412 03ab 00000000 		.4byte	0
 19413 03af 00000000 		.4byte	0
 19414              	.LLST13:
 19415 03b3 AC050000 		.4byte	.LVL129
 19416 03b7 AC060000 		.4byte	.LVL141
 19417 03bb 0100     		.2byte	0x1
 19418 03bd 54       		.byte	0x54
 19419 03be 00000000 		.4byte	0
 19420 03c2 00000000 		.4byte	0
 19421              	.LLST16:
 19422 03c6 46090000 		.4byte	.LVL184
 19423 03ca B0090000 		.4byte	.LVL185
 19424 03ce 0200     		.2byte	0x2
 19425 03d0 30       		.byte	0x30
 19426 03d1 9F       		.byte	0x9f
 19427 03d2 B0090000 		.4byte	.LVL185
 19428 03d6 CA090000 		.4byte	.LVL189
 19429 03da 0100     		.2byte	0x1
 19430 03dc 56       		.byte	0x56
 19431 03dd CA090000 		.4byte	.LVL189
 19432 03e1 540A0000 		.4byte	.LVL203
 19433 03e5 0300     		.2byte	0x3
 19434 03e7 76       		.byte	0x76
 19435 03e8 7F       		.sleb128 -1
 19436 03e9 9F       		.byte	0x9f
 19437 03ea 00000000 		.4byte	0
 19438 03ee 00000000 		.4byte	0
 19439              	.LLST17:
ARM GAS  /tmp/ccHCUo6g.s 			page 357


 19440 03f2 B0090000 		.4byte	.LVL185
 19441 03f6 B6090000 		.4byte	.LVL186
 19442 03fa 0100     		.2byte	0x1
 19443 03fc 54       		.byte	0x54
 19444 03fd C2090000 		.4byte	.LVL188
 19445 0401 EA090000 		.4byte	.LVL191
 19446 0405 0100     		.2byte	0x1
 19447 0407 50       		.byte	0x50
 19448 0408 EA090000 		.4byte	.LVL191
 19449 040c 540A0000 		.4byte	.LVL203
 19450 0410 0100     		.2byte	0x1
 19451 0412 54       		.byte	0x54
 19452 0413 00000000 		.4byte	0
 19453 0417 00000000 		.4byte	0
 19454              	.LLST18:
 19455 041b C2090000 		.4byte	.LVL188
 19456 041f CE090000 		.4byte	.LVL190
 19457 0423 0200     		.2byte	0x2
 19458 0425 70       		.byte	0x70
 19459 0426 04       		.sleb128 4
 19460 0427 00000000 		.4byte	0
 19461 042b 00000000 		.4byte	0
 19462              	.LLST19:
 19463 042f F6090000 		.4byte	.LVL193
 19464 0433 FA090000 		.4byte	.LVL194
 19465 0437 0200     		.2byte	0x2
 19466 0439 74       		.byte	0x74
 19467 043a 04       		.sleb128 4
 19468 043b 00000000 		.4byte	0
 19469 043f 00000000 		.4byte	0
 19470              	.LLST14:
 19471 0443 D0070000 		.4byte	.LVL154
 19472 0447 32080000 		.4byte	.LVL163
 19473 044b 0100     		.2byte	0x1
 19474 044d 57       		.byte	0x57
 19475 044e 00000000 		.4byte	0
 19476 0452 00000000 		.4byte	0
 19477              	.LLST15:
 19478 0456 0E090000 		.4byte	.LVL177
 19479 045a 15090000 		.4byte	.LVL178-1
 19480 045e 0200     		.2byte	0x2
 19481 0460 90       		.byte	0x90
 19482 0461 40       		.uleb128 0x40
 19483 0462 00000000 		.4byte	0
 19484 0466 00000000 		.4byte	0
 19485              	.LLST20:
 19486 046a 320B0000 		.4byte	.LVL216
 19487 046e 390B0000 		.4byte	.LVL217-1
 19488 0472 0200     		.2byte	0x2
 19489 0474 90       		.byte	0x90
 19490 0475 40       		.uleb128 0x40
 19491 0476 00000000 		.4byte	0
 19492 047a 00000000 		.4byte	0
 19493              	.LLST21:
 19494 047e 500C0000 		.4byte	.LVL239
 19495 0482 840D0000 		.4byte	.LVL269
 19496 0486 0200     		.2byte	0x2
ARM GAS  /tmp/ccHCUo6g.s 			page 358


 19497 0488 90       		.byte	0x90
 19498 0489 52       		.uleb128 0x52
 19499 048a 00000000 		.4byte	0
 19500 048e 00000000 		.4byte	0
 19501              	.LLST22:
 19502 0492 560C0000 		.4byte	.LVL241
 19503 0496 590C0000 		.4byte	.LVL242-1
 19504 049a 0100     		.2byte	0x1
 19505 049c 50       		.byte	0x50
 19506 049d 590C0000 		.4byte	.LVL242-1
 19507 04a1 840D0000 		.4byte	.LVL269
 19508 04a5 0100     		.2byte	0x1
 19509 04a7 57       		.byte	0x57
 19510 04a8 00000000 		.4byte	0
 19511 04ac 00000000 		.4byte	0
 19512              	.LLST23:
 19513 04b0 5E0C0000 		.4byte	.LVL243
 19514 04b4 610C0000 		.4byte	.LVL244-1
 19515 04b8 0200     		.2byte	0x2
 19516 04ba 90       		.byte	0x90
 19517 04bb 40       		.uleb128 0x40
 19518 04bc 610C0000 		.4byte	.LVL244-1
 19519 04c0 840D0000 		.4byte	.LVL269
 19520 04c4 0200     		.2byte	0x2
 19521 04c6 90       		.byte	0x90
 19522 04c7 55       		.uleb128 0x55
 19523 04c8 00000000 		.4byte	0
 19524 04cc 00000000 		.4byte	0
 19525              	.LLST24:
 19526 04d0 AA0C0000 		.4byte	.LVL250
 19527 04d4 E40C0000 		.4byte	.LVL262
 19528 04d8 0200     		.2byte	0x2
 19529 04da 90       		.byte	0x90
 19530 04db 54       		.uleb128 0x54
 19531 04dc E40C0000 		.4byte	.LVL262
 19532 04e0 EC0C0000 		.4byte	.LVL264
 19533 04e4 0800     		.2byte	0x8
 19534 04e6 F5       		.byte	0xf5
 19535 04e7 54       		.uleb128 0x54
 19536 04e8 25       		.uleb128 0x25
 19537 04e9 F5       		.byte	0xf5
 19538 04ea 51       		.uleb128 0x51
 19539 04eb 25       		.uleb128 0x25
 19540 04ec 1B       		.byte	0x1b
 19541 04ed 9F       		.byte	0x9f
 19542 04ee EC0C0000 		.4byte	.LVL264
 19543 04f2 F40C0000 		.4byte	.LVL266
 19544 04f6 0200     		.2byte	0x2
 19545 04f8 90       		.byte	0x90
 19546 04f9 4E       		.uleb128 0x4e
 19547 04fa F40C0000 		.4byte	.LVL266
 19548 04fe 840D0000 		.4byte	.LVL269
 19549 0502 0800     		.2byte	0x8
 19550 0504 F5       		.byte	0xf5
 19551 0505 54       		.uleb128 0x54
 19552 0506 25       		.uleb128 0x25
 19553 0507 F5       		.byte	0xf5
ARM GAS  /tmp/ccHCUo6g.s 			page 359


 19554 0508 51       		.uleb128 0x51
 19555 0509 25       		.uleb128 0x25
 19556 050a 1B       		.byte	0x1b
 19557 050b 9F       		.byte	0x9f
 19558 050c 00000000 		.4byte	0
 19559 0510 00000000 		.4byte	0
 19560              	.LLST25:
 19561 0514 AA0C0000 		.4byte	.LVL250
 19562 0518 E40C0000 		.4byte	.LVL262
 19563 051c 0200     		.2byte	0x2
 19564 051e 90       		.byte	0x90
 19565 051f 53       		.uleb128 0x53
 19566 0520 E40C0000 		.4byte	.LVL262
 19567 0524 F00C0000 		.4byte	.LVL265
 19568 0528 0800     		.2byte	0x8
 19569 052a F5       		.byte	0xf5
 19570 052b 53       		.uleb128 0x53
 19571 052c 25       		.uleb128 0x25
 19572 052d F5       		.byte	0xf5
 19573 052e 51       		.uleb128 0x51
 19574 052f 25       		.uleb128 0x25
 19575 0530 1B       		.byte	0x1b
 19576 0531 9F       		.byte	0x9f
 19577 0532 F00C0000 		.4byte	.LVL265
 19578 0536 FC0C0000 		.4byte	.LVL268
 19579 053a 0200     		.2byte	0x2
 19580 053c 90       		.byte	0x90
 19581 053d 4F       		.uleb128 0x4f
 19582 053e FC0C0000 		.4byte	.LVL268
 19583 0542 840D0000 		.4byte	.LVL269
 19584 0546 0800     		.2byte	0x8
 19585 0548 F5       		.byte	0xf5
 19586 0549 53       		.uleb128 0x53
 19587 054a 25       		.uleb128 0x25
 19588 054b F5       		.byte	0xf5
 19589 054c 51       		.uleb128 0x51
 19590 054d 25       		.uleb128 0x25
 19591 054e 1B       		.byte	0x1b
 19592 054f 9F       		.byte	0x9f
 19593 0550 00000000 		.4byte	0
 19594 0554 00000000 		.4byte	0
 19595              	.LLST26:
 19596 0558 AA0C0000 		.4byte	.LVL250
 19597 055c 840D0000 		.4byte	.LVL269
 19598 0560 0200     		.2byte	0x2
 19599 0562 90       		.byte	0x90
 19600 0563 51       		.uleb128 0x51
 19601 0564 00000000 		.4byte	0
 19602 0568 00000000 		.4byte	0
 19603              	.LLST27:
 19604 056c AA0C0000 		.4byte	.LVL250
 19605 0570 E40C0000 		.4byte	.LVL262
 19606 0574 0200     		.2byte	0x2
 19607 0576 90       		.byte	0x90
 19608 0577 50       		.uleb128 0x50
 19609 0578 E40C0000 		.4byte	.LVL262
 19610 057c E80C0000 		.4byte	.LVL263
ARM GAS  /tmp/ccHCUo6g.s 			page 360


 19611 0580 0800     		.2byte	0x8
 19612 0582 F5       		.byte	0xf5
 19613 0583 50       		.uleb128 0x50
 19614 0584 25       		.uleb128 0x25
 19615 0585 F5       		.byte	0xf5
 19616 0586 51       		.uleb128 0x51
 19617 0587 25       		.uleb128 0x25
 19618 0588 1B       		.byte	0x1b
 19619 0589 9F       		.byte	0x9f
 19620 058a E80C0000 		.4byte	.LVL263
 19621 058e F80C0000 		.4byte	.LVL267
 19622 0592 0200     		.2byte	0x2
 19623 0594 90       		.byte	0x90
 19624 0595 4D       		.uleb128 0x4d
 19625 0596 F80C0000 		.4byte	.LVL267
 19626 059a 840D0000 		.4byte	.LVL269
 19627 059e 0800     		.2byte	0x8
 19628 05a0 F5       		.byte	0xf5
 19629 05a1 50       		.uleb128 0x50
 19630 05a2 25       		.uleb128 0x25
 19631 05a3 F5       		.byte	0xf5
 19632 05a4 51       		.uleb128 0x51
 19633 05a5 25       		.uleb128 0x25
 19634 05a6 1B       		.byte	0x1b
 19635 05a7 9F       		.byte	0x9f
 19636 05a8 00000000 		.4byte	0
 19637 05ac 00000000 		.4byte	0
 19638              	.LLST28:
 19639 05b0 6E0C0000 		.4byte	.LVL245
 19640 05b4 800C0000 		.4byte	.LVL246
 19641 05b8 0100     		.2byte	0x1
 19642 05ba 56       		.byte	0x56
 19643 05bb 800C0000 		.4byte	.LVL246
 19644 05bf 8E0C0000 		.4byte	.LVL248
 19645 05c3 0300     		.2byte	0x3
 19646 05c5 76       		.byte	0x76
 19647 05c6 7F       		.sleb128 -1
 19648 05c7 9F       		.byte	0x9f
 19649 05c8 8E0C0000 		.4byte	.LVL248
 19650 05cc 840D0000 		.4byte	.LVL269
 19651 05d0 0100     		.2byte	0x1
 19652 05d2 56       		.byte	0x56
 19653 05d3 00000000 		.4byte	0
 19654 05d7 00000000 		.4byte	0
 19655              	.LLST29:
 19656 05db AA0C0000 		.4byte	.LVL250
 19657 05df CA0C0000 		.4byte	.LVL258
 19658 05e3 0700     		.2byte	0x7
 19659 05e5 0A       		.byte	0xa
 19660 05e6 E803     		.2byte	0x3e8
 19661 05e8 74       		.byte	0x74
 19662 05e9 00       		.sleb128 0
 19663 05ea 1C       		.byte	0x1c
 19664 05eb 9F       		.byte	0x9f
 19665 05ec CA0C0000 		.4byte	.LVL258
 19666 05f0 CE0C0000 		.4byte	.LVL259
 19667 05f4 0700     		.2byte	0x7
ARM GAS  /tmp/ccHCUo6g.s 			page 361


 19668 05f6 0A       		.byte	0xa
 19669 05f7 E703     		.2byte	0x3e7
 19670 05f9 74       		.byte	0x74
 19671 05fa 00       		.sleb128 0
 19672 05fb 1C       		.byte	0x1c
 19673 05fc 9F       		.byte	0x9f
 19674 05fd 00000000 		.4byte	0
 19675 0601 00000000 		.4byte	0
 19676              	.LLST30:
 19677 0605 4A110000 		.4byte	.LVL324
 19678 0609 5E110000 		.4byte	.LVL325
 19679 060d 0100     		.2byte	0x1
 19680 060f 50       		.byte	0x50
 19681 0610 00000000 		.4byte	0
 19682 0614 00000000 		.4byte	0
 19683              	.LLST31:
 19684 0618 0A120000 		.4byte	.LVL333
 19685 061c 1A120000 		.4byte	.LVL334
 19686 0620 0100     		.2byte	0x1
 19687 0622 57       		.byte	0x57
 19688 0623 1A120000 		.4byte	.LVL334
 19689 0627 32120000 		.4byte	.LVL337
 19690 062b 0300     		.2byte	0x3
 19691 062d 77       		.byte	0x77
 19692 062e 7F       		.sleb128 -1
 19693 062f 9F       		.byte	0x9f
 19694 0630 32120000 		.4byte	.LVL337
 19695 0634 36120000 		.4byte	.LVL338
 19696 0638 0100     		.2byte	0x1
 19697 063a 57       		.byte	0x57
 19698 063b 36120000 		.4byte	.LVL338
 19699 063f 52120000 		.4byte	.LVL340
 19700 0643 0200     		.2byte	0x2
 19701 0645 30       		.byte	0x30
 19702 0646 9F       		.byte	0x9f
 19703 0647 52120000 		.4byte	.LVL340
 19704 064b 58120000 		.4byte	.LVL342
 19705 064f 0100     		.2byte	0x1
 19706 0651 57       		.byte	0x57
 19707 0652 00000000 		.4byte	0
 19708 0656 00000000 		.4byte	0
 19709              	.LLST32:
 19710 065a 0A120000 		.4byte	.LVL333
 19711 065e 58120000 		.4byte	.LVL342
 19712 0662 0200     		.2byte	0x2
 19713 0664 90       		.byte	0x90
 19714 0665 50       		.uleb128 0x50
 19715 0666 00000000 		.4byte	0
 19716 066a 00000000 		.4byte	0
 19717              	.LLST33:
 19718 066e 5A140000 		.4byte	.LVL379
 19719 0672 5C140000 		.4byte	.LVL380
 19720 0676 0200     		.2byte	0x2
 19721 0678 31       		.byte	0x31
 19722 0679 9F       		.byte	0x9f
 19723 067a 00000000 		.4byte	0
 19724 067e 00000000 		.4byte	0
ARM GAS  /tmp/ccHCUo6g.s 			page 362


 19725              	.LLST34:
 19726 0682 48140000 		.4byte	.LVL377
 19727 0686 72140000 		.4byte	.LVL383
 19728 068a 0100     		.2byte	0x1
 19729 068c 56       		.byte	0x56
 19730 068d 00000000 		.4byte	0
 19731 0691 00000000 		.4byte	0
 19732              	.LLST3:
 19733 0695 C2120000 		.4byte	.LVL352
 19734 0699 C6120000 		.4byte	.LVL353
 19735 069d 0100     		.2byte	0x1
 19736 069f 50       		.byte	0x50
 19737 06a0 C6120000 		.4byte	.LVL353
 19738 06a4 C9120000 		.4byte	.LVL354-1
 19739 06a8 0100     		.2byte	0x1
 19740 06aa 51       		.byte	0x51
 19741 06ab C9120000 		.4byte	.LVL354-1
 19742 06af D6120000 		.4byte	.LVL355
 19743 06b3 0100     		.2byte	0x1
 19744 06b5 55       		.byte	0x55
 19745 06b6 D6120000 		.4byte	.LVL355
 19746 06ba DE120000 		.4byte	.LVL356
 19747 06be 0300     		.2byte	0x3
 19748 06c0 75       		.byte	0x75
 19749 06c1 75       		.sleb128 -11
 19750 06c2 9F       		.byte	0x9f
 19751 06c3 E8120000 		.4byte	.LVL358
 19752 06c7 38140000 		.4byte	.LVL375
 19753 06cb 0100     		.2byte	0x1
 19754 06cd 55       		.byte	0x55
 19755 06ce 00000000 		.4byte	0
 19756 06d2 00000000 		.4byte	0
 19757              	.LLST37:
 19758 06d6 04180000 		.4byte	.LVL492
 19759 06da 3A180000 		.4byte	.LVL496
 19760 06de 0100     		.2byte	0x1
 19761 06e0 56       		.byte	0x56
 19762 06e1 74180000 		.4byte	.LVL505
 19763 06e5 D8190000 		.4byte	.LFE259
 19764 06e9 0100     		.2byte	0x1
 19765 06eb 56       		.byte	0x56
 19766 06ec 00000000 		.4byte	0
 19767 06f0 00000000 		.4byte	0
 19768              	.LLST35:
 19769 06f4 94150000 		.4byte	.LVL410
 19770 06f8 1C160000 		.4byte	.LVL412
 19771 06fc 0200     		.2byte	0x2
 19772 06fe 30       		.byte	0x30
 19773 06ff 9F       		.byte	0x9f
 19774 0700 70180000 		.4byte	.LVL504
 19775 0704 74180000 		.4byte	.LVL505
 19776 0708 0200     		.2byte	0x2
 19777 070a 31       		.byte	0x31
 19778 070b 9F       		.byte	0x9f
 19779 070c 00000000 		.4byte	0
 19780 0710 00000000 		.4byte	0
 19781              	.LLST36:
ARM GAS  /tmp/ccHCUo6g.s 			page 363


 19782 0714 72150000 		.4byte	.LVL407
 19783 0718 1C160000 		.4byte	.LVL412
 19784 071c 0100     		.2byte	0x1
 19785 071e 56       		.byte	0x56
 19786 071f 6A180000 		.4byte	.LVL503
 19787 0723 74180000 		.4byte	.LVL505
 19788 0727 0100     		.2byte	0x1
 19789 0729 56       		.byte	0x56
 19790 072a 00000000 		.4byte	0
 19791 072e 00000000 		.4byte	0
 19792              		.section	.debug_aranges,"",%progbits
 19793 0000 3C000000 		.4byte	0x3c
 19794 0004 0200     		.2byte	0x2
 19795 0006 00000000 		.4byte	.Ldebug_info0
 19796 000a 04       		.byte	0x4
 19797 000b 00       		.byte	0
 19798 000c 0000     		.2byte	0
 19799 000e 0000     		.2byte	0
 19800 0010 00000000 		.4byte	.LFB259
 19801 0014 D8190000 		.4byte	.LFE259-.LFB259
 19802 0018 00000000 		.4byte	.LFB260
 19803 001c 30000000 		.4byte	.LFE260-.LFB260
 19804 0020 00000000 		.4byte	.LFB261
 19805 0024 0C000000 		.4byte	.LFE261-.LFB261
 19806 0028 00000000 		.4byte	.LFB262
 19807 002c 90000000 		.4byte	.LFE262-.LFB262
 19808 0030 00000000 		.4byte	.LFB263
 19809 0034 30000000 		.4byte	.LFE263-.LFB263
 19810 0038 00000000 		.4byte	0
 19811 003c 00000000 		.4byte	0
 19812              		.section	.debug_ranges,"",%progbits
 19813              	.Ldebug_ranges0:
 19814 0000 F4000000 		.4byte	.LBB81
 19815 0004 FA000000 		.4byte	.LBE81
 19816 0008 5E110000 		.4byte	.LBB154
 19817 000c 68110000 		.4byte	.LBE154
 19818 0010 C0120000 		.4byte	.LBB164
 19819 0014 38140000 		.4byte	.LBE164
 19820 0018 82140000 		.4byte	.LBB166
 19821 001c E0140000 		.4byte	.LBE166
 19822 0020 00000000 		.4byte	0
 19823 0024 00000000 		.4byte	0
 19824 0028 5E110000 		.4byte	.LBB82
 19825 002c 68110000 		.4byte	.LBE82
 19826 0030 C0120000 		.4byte	.LBB83
 19827 0034 38140000 		.4byte	.LBE83
 19828 0038 A0140000 		.4byte	.LBB84
 19829 003c E0140000 		.4byte	.LBE84
 19830 0040 00000000 		.4byte	0
 19831 0044 00000000 		.4byte	0
 19832 0048 AC060000 		.4byte	.LBB101
 19833 004c 90070000 		.4byte	.LBE101
 19834 0050 860B0000 		.4byte	.LBB133
 19835 0054 D80B0000 		.4byte	.LBE133
 19836 0058 00000000 		.4byte	0
 19837 005c 00000000 		.4byte	0
 19838 0060 3C070000 		.4byte	.LBB102
ARM GAS  /tmp/ccHCUo6g.s 			page 364


 19839 0064 90070000 		.4byte	.LBE102
 19840 0068 860B0000 		.4byte	.LBB103
 19841 006c D00B0000 		.4byte	.LBE103
 19842 0070 D40B0000 		.4byte	.LBB104
 19843 0074 D80B0000 		.4byte	.LBE104
 19844 0078 00000000 		.4byte	0
 19845 007c 00000000 		.4byte	0
 19846 0080 90070000 		.4byte	.LBB105
 19847 0084 32080000 		.4byte	.LBE105
 19848 0088 A6080000 		.4byte	.LBB108
 19849 008c AE080000 		.4byte	.LBE108
 19850 0090 00000000 		.4byte	0
 19851 0094 00000000 		.4byte	0
 19852 0098 3A090000 		.4byte	.LBB111
 19853 009c 42090000 		.4byte	.LBE111
 19854 00a0 B0090000 		.4byte	.LBB129
 19855 00a4 540A0000 		.4byte	.LBE129
 19856 00a8 00000000 		.4byte	0
 19857 00ac 00000000 		.4byte	0
 19858 00b0 3A090000 		.4byte	.LBB112
 19859 00b4 42090000 		.4byte	.LBE112
 19860 00b8 B6090000 		.4byte	.LBB127
 19861 00bc C6090000 		.4byte	.LBE127
 19862 00c0 CA090000 		.4byte	.LBB128
 19863 00c4 540A0000 		.4byte	.LBE128
 19864 00c8 00000000 		.4byte	0
 19865 00cc 00000000 		.4byte	0
 19866 00d0 3A090000 		.4byte	.LBB113
 19867 00d4 3C090000 		.4byte	.LBE113
 19868 00d8 CC090000 		.4byte	.LBB120
 19869 00dc D2090000 		.4byte	.LBE120
 19870 00e0 00000000 		.4byte	0
 19871 00e4 00000000 		.4byte	0
 19872 00e8 3A090000 		.4byte	.LBB115
 19873 00ec 3C090000 		.4byte	.LBE115
 19874 00f0 CC090000 		.4byte	.LBB118
 19875 00f4 CE090000 		.4byte	.LBE118
 19876 00f8 00000000 		.4byte	0
 19877 00fc 00000000 		.4byte	0
 19878 0100 F6090000 		.4byte	.LBB121
 19879 0104 FA090000 		.4byte	.LBE121
 19880 0108 FE090000 		.4byte	.LBB126
 19881 010c 000A0000 		.4byte	.LBE126
 19882 0110 00000000 		.4byte	0
 19883 0114 00000000 		.4byte	0
 19884 0118 160C0000 		.4byte	.LBB134
 19885 011c 840D0000 		.4byte	.LBE134
 19886 0120 140E0000 		.4byte	.LBB143
 19887 0124 260E0000 		.4byte	.LBE143
 19888 0128 00000000 		.4byte	0
 19889 012c 00000000 		.4byte	0
 19890 0130 360C0000 		.4byte	.LBB135
 19891 0134 840D0000 		.4byte	.LBE135
 19892 0138 140E0000 		.4byte	.LBB140
 19893 013c 220E0000 		.4byte	.LBE140
 19894 0140 00000000 		.4byte	0
 19895 0144 00000000 		.4byte	0
ARM GAS  /tmp/ccHCUo6g.s 			page 365


 19896 0148 380C0000 		.4byte	.LBB136
 19897 014c 3C0C0000 		.4byte	.LBE136
 19898 0150 6E0C0000 		.4byte	.LBB137
 19899 0154 920C0000 		.4byte	.LBE137
 19900 0158 960C0000 		.4byte	.LBB138
 19901 015c 9A0C0000 		.4byte	.LBE138
 19902 0160 00000000 		.4byte	0
 19903 0164 00000000 		.4byte	0
 19904 0168 7E110000 		.4byte	.LBB155
 19905 016c 58120000 		.4byte	.LBE155
 19906 0170 62120000 		.4byte	.LBB161
 19907 0174 7C120000 		.4byte	.LBE161
 19908 0178 00000000 		.4byte	0
 19909 017c 00000000 		.4byte	0
 19910 0180 58120000 		.4byte	.LBB158
 19911 0184 62120000 		.4byte	.LBE158
 19912 0188 44140000 		.4byte	.LBB165
 19913 018c 72140000 		.4byte	.LBE165
 19914 0190 00000000 		.4byte	0
 19915 0194 00000000 		.4byte	0
 19916 0198 44140000 		.4byte	.LBB159
 19917 019c 46140000 		.4byte	.LBE159
 19918 01a0 48140000 		.4byte	.LBB160
 19919 01a4 62140000 		.4byte	.LBE160
 19920 01a8 00000000 		.4byte	0
 19921 01ac 00000000 		.4byte	0
 19922 01b0 66150000 		.4byte	.LBB167
 19923 01b4 1C160000 		.4byte	.LBE167
 19924 01b8 6A180000 		.4byte	.LBB172
 19925 01bc 74180000 		.4byte	.LBE172
 19926 01c0 00000000 		.4byte	0
 19927 01c4 00000000 		.4byte	0
 19928 01c8 66150000 		.4byte	.LBB168
 19929 01cc 94150000 		.4byte	.LBE168
 19930 01d0 6A180000 		.4byte	.LBB169
 19931 01d4 74180000 		.4byte	.LBE169
 19932 01d8 00000000 		.4byte	0
 19933 01dc 00000000 		.4byte	0
 19934 01e0 24160000 		.4byte	.LBB170
 19935 01e4 2C160000 		.4byte	.LBE170
 19936 01e8 04180000 		.4byte	.LBB171
 19937 01ec 3A180000 		.4byte	.LBE171
 19938 01f0 74180000 		.4byte	.LBB173
 19939 01f4 D8190000 		.4byte	.LBE173
 19940 01f8 00000000 		.4byte	0
 19941 01fc 00000000 		.4byte	0
 19942 0200 08000000 		.4byte	.LBB174
 19943 0204 0A000000 		.4byte	.LBE174
 19944 0208 10000000 		.4byte	.LBB175
 19945 020c 12000000 		.4byte	.LBE175
 19946 0210 1A000000 		.4byte	.LBB176
 19947 0214 46000000 		.4byte	.LBE176
 19948 0218 84000000 		.4byte	.LBB177
 19949 021c 90000000 		.4byte	.LBE177
 19950 0220 00000000 		.4byte	0
 19951 0224 00000000 		.4byte	0
 19952 0228 00000000 		.4byte	.LBB178
ARM GAS  /tmp/ccHCUo6g.s 			page 366


 19953 022c 0A000000 		.4byte	.LBE178
 19954 0230 10000000 		.4byte	.LBB179
 19955 0234 20000000 		.4byte	.LBE179
 19956 0238 00000000 		.4byte	0
 19957 023c 00000000 		.4byte	0
 19958 0240 00000000 		.4byte	.LFB259
 19959 0244 D8190000 		.4byte	.LFE259
 19960 0248 00000000 		.4byte	.LFB260
 19961 024c 30000000 		.4byte	.LFE260
 19962 0250 00000000 		.4byte	.LFB261
 19963 0254 0C000000 		.4byte	.LFE261
 19964 0258 00000000 		.4byte	.LFB262
 19965 025c 90000000 		.4byte	.LFE262
 19966 0260 00000000 		.4byte	.LFB263
 19967 0264 30000000 		.4byte	.LFE263
 19968 0268 00000000 		.4byte	0
 19969 026c 00000000 		.4byte	0
 19970              		.section	.debug_line,"",%progbits
 19971              	.Ldebug_line0:
 19972 0000 790B0000 		.section	.debug_str,"MS",%progbits,1
 19972      0200B605 
 19972      00000201 
 19972      FB0E0D00 
 19972      01010101 
 19973              	.LASF496:
 19974 0000 626D735F 		.ascii	"bms_fet_status\000"
 19974      6665745F 
 19974      73746174 
 19974      757300
 19975              	.LASF675:
 19976 000f 5553425F 		.ascii	"USB_STOP\000"
 19976      53544F50 
 19976      00
 19977              	.LASF147:
 19978 0018 706F7274 		.ascii	"port_intctx\000"
 19978      5F696E74 
 19978      63747800 
 19979              	.LASF295:
 19980 0024 6C5F6D61 		.ascii	"l_max_erpm_fbrake\000"
 19980      785F6572 
 19980      706D5F66 
 19980      6272616B 
 19980      6500
 19981              	.LASF169:
 19982 0036 63685F70 		.ascii	"ch_ptrsize\000"
 19982      74727369 
 19982      7A6500
 19983              	.LASF291:
 19984 0041 6C5F6162 		.ascii	"l_abs_current_max\000"
 19984      735F6375 
 19984      7272656E 
 19984      745F6D61 
 19984      7800
 19985              	.LASF916:
 19986 0053 5F6D6272 		.ascii	"_mbrtowc_state\000"
 19986      746F7763 
 19986      5F737461 
ARM GAS  /tmp/ccHCUo6g.s 			page 367


 19986      746500
 19987              	.LASF458:
 19988 0062 434F4D4D 		.ascii	"COMM_EXT_NRF_ESB_SEND_DATA\000"
 19988      5F455854 
 19988      5F4E5246 
 19988      5F455342 
 19988      5F53454E 
 19989              	.LASF549:
 19990 007d 43414E5F 		.ascii	"CAN_STARTING\000"
 19990      53544152 
 19990      54494E47 
 19990      00
 19991              	.LASF1008:
 19992 008a 636F6D6D 		.ascii	"commands_printf\000"
 19992      616E6473 
 19992      5F707269 
 19992      6E746600 
 19993              	.LASF999:
 19994 009a 5F5F6675 		.ascii	"__func__\000"
 19994      6E635F5F 
 19994      00
 19995              	.LASF29:
 19996 00a3 6D73675F 		.ascii	"msg_t\000"
 19996      7400
 19997              	.LASF264:
 19998 00a9 53454E53 		.ascii	"SENSOR_PORT_MODE_TS5700N8501\000"
 19998      4F525F50 
 19998      4F52545F 
 19998      4D4F4445 
 19998      5F545335 
 19999              	.LASF575:
 20000 00c6 4F504D4F 		.ascii	"OPMODE_SMBUS_DEVICE\000"
 20000      44455F53 
 20000      4D425553 
 20000      5F444556 
 20000      49434500 
 20001              	.LASF1024:
 20002 00da 636F6E66 		.ascii	"conf_general_measure_flux_linkage\000"
 20002      5F67656E 
 20002      6572616C 
 20002      5F6D6561 
 20002      73757265 
 20003              	.LASF432:
 20004 00fc 434F4D4D 		.ascii	"COMM_DETECT_HALL_FOC\000"
 20004      5F444554 
 20004      4543545F 
 20004      48414C4C 
 20004      5F464F43 
 20005              	.LASF253:
 20006 0111 4641554C 		.ascii	"FAULT_CODE_DRV_CONFIG\000"
 20006      545F434F 
 20006      44455F44 
 20006      52565F43 
 20006      4F4E4649 
 20007              	.LASF957:
 20008 0127 74385F63 		.ascii	"t8_cnt\000"
 20008      6E7400
ARM GAS  /tmp/ccHCUo6g.s 			page 368


 20009              	.LASF344:
 20010 012e 666F635F 		.ascii	"foc_observer_gain_slow\000"
 20010      6F627365 
 20010      72766572 
 20010      5F676169 
 20010      6E5F736C 
 20011              	.LASF734:
 20012 0145 44494550 		.ascii	"DIEPTXF0\000"
 20012      54584630 
 20012      00
 20013              	.LASF811:
 20014 014e 55534244 		.ascii	"USBD1\000"
 20014      3100
 20015              	.LASF548:
 20016 0154 43414E5F 		.ascii	"CAN_STOP\000"
 20016      53544F50 
 20016      00
 20017              	.LASF367:
 20018 015d 6770645F 		.ascii	"gpd_current_ki\000"
 20018      63757272 
 20018      656E745F 
 20018      6B6900
 20019              	.LASF182:
 20020 016c 63665F6F 		.ascii	"cf_off_time\000"
 20020      66665F74 
 20020      696D6500 
 20021              	.LASF82:
 20022 0178 63685F73 		.ascii	"ch_system_t\000"
 20022      79737465 
 20022      6D5F7400 
 20023              	.LASF5:
 20024 0184 5F5F7569 		.ascii	"__uint8_t\000"
 20024      6E74385F 
 20024      7400
 20025              	.LASF154:
 20026 018e 77747365 		.ascii	"wtsemp\000"
 20026      6D7000
 20027              	.LASF469:
 20028 0195 434F4D4D 		.ascii	"COMM_GET_IMU_DATA\000"
 20028      5F474554 
 20028      5F494D55 
 20028      5F444154 
 20028      4100
 20029              	.LASF402:
 20030 01a7 5F426F6F 		.ascii	"_Bool\000"
 20030      6C00
 20031              	.LASF1032:
 20032 01ad 74696D65 		.ascii	"timeout_get_brake_current\000"
 20032      6F75745F 
 20032      6765745F 
 20032      6272616B 
 20032      655F6375 
 20033              	.LASF593:
 20034 01c7 646D6172 		.ascii	"dmarx\000"
 20034      7800
 20035              	.LASF870:
 20036 01cd 5F6D6273 		.ascii	"_mbstate\000"
ARM GAS  /tmp/ccHCUo6g.s 			page 369


 20036      74617465 
 20036      00
 20037              	.LASF254:
 20038 01d6 4641554C 		.ascii	"FAULT_CODE_THROTTLE_OVERVOLTAGE\000"
 20038      545F434F 
 20038      44455F54 
 20038      48524F54 
 20038      544C455F 
 20039              	.LASF753:
 20040 01f6 72657376 		.ascii	"resvd700\000"
 20040      64373030 
 20040      00
 20041              	.LASF764:
 20042 01ff 44564255 		.ascii	"DVBUSDIS\000"
 20042      53444953 
 20042      00
 20043              	.LASF587:
 20044 0208 6572726F 		.ascii	"errors\000"
 20044      727300
 20045              	.LASF860:
 20046 020f 5F726561 		.ascii	"_read\000"
 20046      6400
 20047              	.LASF649:
 20048 0215 73706963 		.ascii	"spicallback_t\000"
 20048      616C6C62 
 20048      61636B5F 
 20048      7400
 20049              	.LASF78:
 20050 0223 76745F73 		.ascii	"vt_systime\000"
 20050      79737469 
 20050      6D6500
 20051              	.LASF390:
 20052 022e 6D5F6472 		.ascii	"m_drv8301_oc_adj\000"
 20052      76383330 
 20052      315F6F63 
 20052      5F61646A 
 20052      00
 20053              	.LASF673:
 20054 023f 75736265 		.ascii	"usbep_t\000"
 20054      705F7400 
 20055              	.LASF1037:
 20056 0247 6D637077 		.ascii	"mcpwm_foc_get_current_offsets\000"
 20056      6D5F666F 
 20056      635F6765 
 20056      745F6375 
 20056      7272656E 
 20057              	.LASF461:
 20058 0265 434F4D4D 		.ascii	"COMM_DETECT_MOTOR_FLUX_LINKAGE_OPENLOOP\000"
 20058      5F444554 
 20058      4543545F 
 20058      4D4F544F 
 20058      525F464C 
 20059              	.LASF839:
 20060 028d 5F5F746D 		.ascii	"__tm_mon\000"
 20060      5F6D6F6E 
 20060      00
 20061              	.LASF847:
ARM GAS  /tmp/ccHCUo6g.s 			page 370


 20062 0296 5F666E74 		.ascii	"_fntypes\000"
 20062      79706573 
 20062      00
 20063              	.LASF995:
 20064 029f 616E676C 		.ascii	"angle\000"
 20064      6500
 20065              	.LASF163:
 20066 02a5 6D5F6E65 		.ascii	"m_next\000"
 20066      787400
 20067              	.LASF537:
 20068 02ac 50434461 		.ascii	"PCData\000"
 20068      746100
 20069              	.LASF301:
 20070 02b3 6C5F736C 		.ascii	"l_slow_abs_current\000"
 20070      6F775F61 
 20070      62735F63 
 20070      75727265 
 20070      6E7400
 20071              	.LASF877:
 20072 02c6 5F696E63 		.ascii	"_inc\000"
 20072      00
 20073              	.LASF850:
 20074 02cb 5F696E64 		.ascii	"_ind\000"
 20074      00
 20075              	.LASF1004:
 20076 02d0 5F5F656E 		.ascii	"__enable_irq\000"
 20076      61626C65 
 20076      5F697271 
 20076      00
 20077              	.LASF464:
 20078 02dd 434F4D4D 		.ascii	"COMM_ERASE_NEW_APP_ALL_CAN\000"
 20078      5F455241 
 20078      53455F4E 
 20078      45575F41 
 20078      50505F41 
 20079              	.LASF986:
 20080 02f8 73616D70 		.ascii	"samples\000"
 20080      6C657300 
 20081              	.LASF738:
 20082 0300 47434346 		.ascii	"GCCFG\000"
 20082      4700
 20083              	.LASF290:
 20084 0306 6C5F696E 		.ascii	"l_in_current_min\000"
 20084      5F637572 
 20084      72656E74 
 20084      5F6D696E 
 20084      00
 20085              	.LASF1014:
 20086 0317 64727638 		.ascii	"drv8350_faults_to_string\000"
 20086      3335305F 
 20086      6661756C 
 20086      74735F74 
 20086      6F5F7374 
 20087              	.LASF139:
 20088 0330 42445452 		.ascii	"BDTR\000"
 20088      00
 20089              	.LASF269:
ARM GAS  /tmp/ccHCUo6g.s 			page 371


 20090 0335 636F6D6D 		.ascii	"comm_time_sum\000"
 20090      5F74696D 
 20090      655F7375 
 20090      6D00
 20091              	.LASF456:
 20092 0343 434F4D4D 		.ascii	"COMM_EXT_NRF_PRESENT\000"
 20092      5F455854 
 20092      5F4E5246 
 20092      5F505245 
 20092      53454E54 
 20093              	.LASF585:
 20094 0358 49324343 		.ascii	"I2CConfig\000"
 20094      6F6E6669 
 20094      6700
 20095              	.LASF19:
 20096 0362 75696E74 		.ascii	"uint16_t\000"
 20096      31365F74 
 20096      00
 20097              	.LASF594:
 20098 036b 646D6174 		.ascii	"dmatx\000"
 20098      7800
 20099              	.LASF809:
 20100 0371 736F665F 		.ascii	"sof_cb\000"
 20100      636200
 20101              	.LASF338:
 20102 0378 666F635F 		.ascii	"foc_encoder_cos_gain\000"
 20102      656E636F 
 20102      6465725F 
 20102      636F735F 
 20102      6761696E 
 20103              	.LASF972:
 20104 038d 74797065 		.ascii	"type_old\000"
 20104      5F6F6C64 
 20104      00
 20105              	.LASF856:
 20106 0396 5F666C61 		.ascii	"_flags\000"
 20106      677300
 20107              	.LASF530:
 20108 039d 6F737065 		.ascii	"ospeedr\000"
 20108      65647200 
 20109              	.LASF480:
 20110 03a5 434F4D4D 		.ascii	"COMM_PLOT_DATA\000"
 20110      5F504C4F 
 20110      545F4441 
 20110      544100
 20111              	.LASF741:
 20112 03b4 44494550 		.ascii	"DIEPTXF\000"
 20112      54584600 
 20113              	.LASF188:
 20114 03bc 656C5F6E 		.ascii	"el_next\000"
 20114      65787400 
 20115              	.LASF379:
 20116 03c4 63635F73 		.ascii	"cc_startup_boost_duty\000"
 20116      74617274 
 20116      75705F62 
 20116      6F6F7374 
 20116      5F647574 
ARM GAS  /tmp/ccHCUo6g.s 			page 372


 20117              	.LASF887:
 20118 03da 5F637674 		.ascii	"_cvtlen\000"
 20118      6C656E00 
 20119              	.LASF59:
 20120 03e2 63685F74 		.ascii	"ch_threads_queue\000"
 20120      68726561 
 20120      64735F71 
 20120      75657565 
 20120      00
 20121              	.LASF930:
 20122 03f3 5F5F6664 		.ascii	"__fdlibm_svid\000"
 20122      6C69626D 
 20122      5F737669 
 20122      6400
 20123              	.LASF292:
 20124 0401 6C5F6D69 		.ascii	"l_min_erpm\000"
 20124      6E5F6572 
 20124      706D00
 20125              	.LASF39:
 20126 040c 705F6E65 		.ascii	"p_newer\000"
 20126      77657200 
 20127              	.LASF751:
 20128 0414 48505254 		.ascii	"HPRT\000"
 20128      00
 20129              	.LASF332:
 20130 0419 666F635F 		.ascii	"foc_encoder_offset\000"
 20130      656E636F 
 20130      6465725F 
 20130      6F666673 
 20130      657400
 20131              	.LASF984:
 20132 042c 76715F61 		.ascii	"vq_avg\000"
 20132      766700
 20133              	.LASF705:
 20134 0433 4843494E 		.ascii	"HCINT\000"
 20134      5400
 20135              	.LASF179:
 20136 0439 63665F6F 		.ascii	"cf_off_flags\000"
 20136      66665F66 
 20136      6C616773 
 20136      00
 20137              	.LASF484:
 20138 0446 434F4D4D 		.ascii	"COMM_BM_MEM_READ\000"
 20138      5F424D5F 
 20138      4D454D5F 
 20138      52454144 
 20138      00
 20139              	.LASF865:
 20140 0457 5F6E6275 		.ascii	"_nbuf\000"
 20140      6600
 20141              	.LASF643:
 20142 045d 5350495F 		.ascii	"SPI_STOP\000"
 20142      53544F50 
 20142      00
 20143              	.LASF1007:
 20144 0466 6D635F69 		.ascii	"mc_interface_set_odo_value\000"
 20144      6E746572 
ARM GAS  /tmp/ccHCUo6g.s 			page 373


 20144      66616365 
 20144      5F736574 
 20144      5F6F646F 
 20145              	.LASF923:
 20146 0481 5F756E75 		.ascii	"_unused\000"
 20146      73656400 
 20147              	.LASF397:
 20148 0489 73695F67 		.ascii	"si_gear_ratio\000"
 20148      6561725F 
 20148      72617469 
 20148      6F00
 20149              	.LASF536:
 20150 0497 50424461 		.ascii	"PBData\000"
 20150      746100
 20151              	.LASF477:
 20152 049e 434F4D4D 		.ascii	"COMM_ERASE_BOOTLOADER\000"
 20152      5F455241 
 20152      53455F42 
 20152      4F4F544C 
 20152      4F414445 
 20153              	.LASF167:
 20154 04b4 63685F73 		.ascii	"ch_size\000"
 20154      697A6500 
 20155              	.LASF747:
 20156 04bc 48505458 		.ascii	"HPTXSTS\000"
 20156      53545300 
 20157              	.LASF529:
 20158 04c4 6F747970 		.ascii	"otyper\000"
 20158      657200
 20159              	.LASF249:
 20160 04cb 4641554C 		.ascii	"FAULT_CODE_HIGH_OFFSET_CURRENT_SENSOR_1\000"
 20160      545F434F 
 20160      44455F48 
 20160      4947485F 
 20160      4F464653 
 20161              	.LASF250:
 20162 04f3 4641554C 		.ascii	"FAULT_CODE_HIGH_OFFSET_CURRENT_SENSOR_2\000"
 20162      545F434F 
 20162      44455F48 
 20162      4947485F 
 20162      4F464653 
 20163              	.LASF251:
 20164 051b 4641554C 		.ascii	"FAULT_CODE_HIGH_OFFSET_CURRENT_SENSOR_3\000"
 20164      545F434F 
 20164      44455F48 
 20164      4947485F 
 20164      4F464653 
 20165              	.LASF303:
 20166 0543 6C5F7465 		.ascii	"l_temp_fet_end\000"
 20166      6D705F66 
 20166      65745F65 
 20166      6E6400
 20167              	.LASF520:
 20168 0552 4F545950 		.ascii	"OTYPER\000"
 20168      455200
 20169              	.LASF647:
 20170 0559 73706973 		.ascii	"spistate_t\000"
ARM GAS  /tmp/ccHCUo6g.s 			page 374


 20170      74617465 
 20170      5F7400
 20171              	.LASF703:
 20172 0564 48434348 		.ascii	"HCCHAR\000"
 20172      415200
 20173              	.LASF401:
 20174 056b 73695F62 		.ascii	"si_battery_ah\000"
 20174      61747465 
 20174      72795F61 
 20174      6800
 20175              	.LASF978:
 20176 0579 615F766F 		.ascii	"a_volt\000"
 20176      6C7400
 20177              	.LASF846:
 20178 0580 5F64736F 		.ascii	"_dso_handle\000"
 20178      5F68616E 
 20178      646C6500 
 20179              	.LASF569:
 20180 058c 4932435F 		.ascii	"I2C_ACTIVE_RX\000"
 20180      41435449 
 20180      56455F52 
 20180      5800
 20181              	.LASF34:
 20182 059a 74687265 		.ascii	"thread_t\000"
 20182      61645F74 
 20182      00
 20183              	.LASF190:
 20184 05a3 656C5F65 		.ascii	"el_events\000"
 20184      76656E74 
 20184      7300
 20185              	.LASF561:
 20186 05ad 736C6565 		.ascii	"sleep_event\000"
 20186      705F6576 
 20186      656E7400 
 20187              	.LASF77:
 20188 05b9 63685F76 		.ascii	"ch_virtual_timers_list\000"
 20188      69727475 
 20188      616C5F74 
 20188      696D6572 
 20188      735F6C69 
 20189              	.LASF515:
 20190 05d0 76656374 		.ascii	"vector\000"
 20190      6F7200
 20191              	.LASF497:
 20192 05d7 67617465 		.ascii	"gate_driver_voltage\000"
 20192      5F647269 
 20192      7665725F 
 20192      766F6C74 
 20192      61676500 
 20193              	.LASF20:
 20194 05eb 696E7433 		.ascii	"int32_t\000"
 20194      325F7400 
 20195              	.LASF911:
 20196 05f3 5F776374 		.ascii	"_wctomb_state\000"
 20196      6F6D625F 
 20196      73746174 
 20196      6500
ARM GAS  /tmp/ccHCUo6g.s 			page 375


 20197              	.LASF583:
 20198 0601 636C6F63 		.ascii	"clock_speed\000"
 20198      6B5F7370 
 20198      65656400 
 20199              	.LASF33:
 20200 060d 73797374 		.ascii	"systime_t\000"
 20200      696D655F 
 20200      7400
 20201              	.LASF563:
 20202 0617 43414E44 		.ascii	"CANDriver\000"
 20202      72697665 
 20202      7200
 20203              	.LASF177:
 20204 0621 63665F6F 		.ascii	"cf_off_stklimit\000"
 20204      66665F73 
 20204      746B6C69 
 20204      6D697400 
 20205              	.LASF116:
 20206 0631 4D304152 		.ascii	"M0AR\000"
 20206      00
 20207              	.LASF274:
 20208 0636 44525638 		.ascii	"DRV8301_OC_LIMIT\000"
 20208      3330315F 
 20208      4F435F4C 
 20208      494D4954 
 20208      00
 20209              	.LASF573:
 20210 0647 69326366 		.ascii	"i2cflags_t\000"
 20210      6C616773 
 20210      5F7400
 20211              	.LASF748:
 20212 0652 4841494E 		.ascii	"HAINT\000"
 20212      5400
 20213              	.LASF239:
 20214 0658 4641554C 		.ascii	"FAULT_CODE_OVER_TEMP_FET\000"
 20214      545F434F 
 20214      44455F4F 
 20214      5645525F 
 20214      54454D50 
 20215              	.LASF452:
 20216 0671 434F4D4D 		.ascii	"COMM_SET_MCCONF_TEMP\000"
 20216      5F534554 
 20216      5F4D4343 
 20216      4F4E465F 
 20216      54454D50 
 20217              	.LASF111:
 20218 0686 46413152 		.ascii	"FA1R\000"
 20218      00
 20219              	.LASF211:
 20220 068b 50574D5F 		.ascii	"PWM_MODE_BIPOLAR\000"
 20220      4D4F4445 
 20220      5F424950 
 20220      4F4C4152 
 20220      00
 20221              	.LASF212:
 20222 069c 6D635F70 		.ascii	"mc_pwm_mode\000"
 20222      776D5F6D 
ARM GAS  /tmp/ccHCUo6g.s 			page 376


 20222      6F646500 
 20223              	.LASF745:
 20224 06a8 48464E55 		.ascii	"HFNUM\000"
 20224      4D00
 20225              	.LASF1055:
 20226 06ae 656E636F 		.ascii	"encoder_sincos_get_signal_below_min_error_cnt\000"
 20226      6465725F 
 20226      73696E63 
 20226      6F735F67 
 20226      65745F73 
 20227              	.LASF206:
 20228 06dc 716E6F74 		.ascii	"qnotify_t\000"
 20228      6966795F 
 20228      7400
 20229              	.LASF1043:
 20230 06e6 636F6E66 		.ascii	"conf_general_detect_apply_all_foc\000"
 20230      5F67656E 
 20230      6572616C 
 20230      5F646574 
 20230      6563745F 
 20231              	.LASF513:
 20232 0708 69736869 		.ascii	"ishift\000"
 20232      667400
 20233              	.LASF201:
 20234 070f 715F746F 		.ascii	"q_top\000"
 20234      7000
 20235              	.LASF858:
 20236 0715 5F6C6266 		.ascii	"_lbfsize\000"
 20236      73697A65 
 20236      00
 20237              	.LASF696:
 20238 071e 75645F73 		.ascii	"ud_string\000"
 20238      7472696E 
 20238      6700
 20239              	.LASF586:
 20240 0728 49324344 		.ascii	"I2CDriver\000"
 20240      72697665 
 20240      7200
 20241              	.LASF568:
 20242 0732 4932435F 		.ascii	"I2C_ACTIVE_TX\000"
 20242      41435449 
 20242      56455F54 
 20242      5800
 20243              	.LASF637:
 20244 0740 72656164 		.ascii	"read\000"
 20244      00
 20245              	.LASF516:
 20246 0745 73746D33 		.ascii	"stm32_dma_stream_t\000"
 20246      325F646D 
 20246      615F7374 
 20246      7265616D 
 20246      5F7400
 20247              	.LASF224:
 20248 0758 4F55545F 		.ascii	"OUT_AUX_MODE_OFF\000"
 20248      4155585F 
 20248      4D4F4445 
 20248      5F4F4646 
ARM GAS  /tmp/ccHCUo6g.s 			page 377


 20248      00
 20249              	.LASF757:
 20250 0769 72657376 		.ascii	"resvd80C\000"
 20250      64383043 
 20250      00
 20251              	.LASF806:
 20252 0772 6576656E 		.ascii	"event_cb\000"
 20252      745F6362 
 20252      00
 20253              	.LASF889:
 20254 077b 5F6E6577 		.ascii	"_new\000"
 20254      00
 20255              	.LASF724:
 20256 0780 474F5447 		.ascii	"GOTGCTL\000"
 20256      43544C00 
 20257              	.LASF661:
 20258 0788 6570306E 		.ascii	"ep0next\000"
 20258      65787400 
 20259              	.LASF699:
 20260 0790 75736265 		.ascii	"usbepcallback_t\000"
 20260      7063616C 
 20260      6C626163 
 20260      6B5F7400 
 20261              	.LASF572:
 20262 07a0 69326361 		.ascii	"i2caddr_t\000"
 20262      6464725F 
 20262      7400
 20263              	.LASF85:
 20264 07aa 76746C69 		.ascii	"vtlist\000"
 20264      737400
 20265              	.LASF598:
 20266 07b1 4943555F 		.ascii	"ICU_READY\000"
 20266      52454144 
 20266      5900
 20267              	.LASF121:
 20268 07bb 54524953 		.ascii	"TRISE\000"
 20268      4500
 20269              	.LASF763:
 20270 07c1 72657376 		.ascii	"resvd824\000"
 20270      64383234 
 20270      00
 20271              	.LASF47:
 20272 07ca 705F7761 		.ascii	"p_waiting\000"
 20272      6974696E 
 20272      6700
 20273              	.LASF977:
 20274 07d4 66726571 		.ascii	"freq\000"
 20274      00
 20275              	.LASF605:
 20276 07d9 70636372 		.ascii	"pccrp\000"
 20276      7000
 20277              	.LASF198:
 20278 07df 715F7761 		.ascii	"q_waiting\000"
 20278      6974696E 
 20278      6700
 20279              	.LASF93:
 20280 07e9 43414E5F 		.ascii	"CAN_TxMailBox_TypeDef\000"
ARM GAS  /tmp/ccHCUo6g.s 			page 378


 20280      54784D61 
 20280      696C426F 
 20280      785F5479 
 20280      70654465 
 20281              	.LASF84:
 20282 07ff 726C6973 		.ascii	"rlist\000"
 20282      7400
 20283              	.LASF55:
 20284 0805 74687265 		.ascii	"threads_list_t\000"
 20284      6164735F 
 20284      6C697374 
 20284      5F7400
 20285              	.LASF173:
 20286 0814 63665F6F 		.ascii	"cf_off_ctx\000"
 20286      66665F63 
 20286      747800
 20287              	.LASF207:
 20288 081f 696E7075 		.ascii	"input_queue_t\000"
 20288      745F7175 
 20288      6575655F 
 20288      7400
 20289              	.LASF924:
 20290 082d 5F5F6C6F 		.ascii	"__lock\000"
 20290      636B00
 20291              	.LASF320:
 20292 0834 736C5F6D 		.ascii	"sl_min_erpm_cycle_int_limit\000"
 20292      696E5F65 
 20292      72706D5F 
 20292      6379636C 
 20292      655F696E 
 20293              	.LASF550:
 20294 0850 43414E5F 		.ascii	"CAN_READY\000"
 20294      52454144 
 20294      5900
 20295              	.LASF175:
 20296 085a 63665F6F 		.ascii	"cf_off_older\000"
 20296      66665F6F 
 20296      6C646572 
 20296      00
 20297              	.LASF329:
 20298 0867 666F635F 		.ascii	"foc_current_ki\000"
 20298      63757272 
 20298      656E745F 
 20298      6B6900
 20299              	.LASF791:
 20300 0876 72787175 		.ascii	"rxqueued\000"
 20300      65756564 
 20300      00
 20301              	.LASF328:
 20302 087f 666F635F 		.ascii	"foc_current_kp\000"
 20302      63757272 
 20302      656E745F 
 20302      6B7000
 20303              	.LASF616:
 20304 088e 69637563 		.ascii	"icuchannel_t\000"
 20304      68616E6E 
 20304      656C5F74 
ARM GAS  /tmp/ccHCUo6g.s 			page 379


 20304      00
 20305              	.LASF552:
 20306 089b 63616E73 		.ascii	"canstate_t\000"
 20306      74617465 
 20306      5F7400
 20307              	.LASF113:
 20308 08a6 7346696C 		.ascii	"sFilterRegister\000"
 20308      74657252 
 20308      65676973 
 20308      74657200 
 20309              	.LASF893:
 20310 08b6 5F5F7366 		.ascii	"__sf\000"
 20310      00
 20311              	.LASF762:
 20312 08bb 72657376 		.ascii	"resvd820\000"
 20312      64383230 
 20312      00
 20313              	.LASF1054:
 20314 08c4 6D637077 		.ascii	"mcpwm_foc_print_state\000"
 20314      6D5F666F 
 20314      635F7072 
 20314      696E745F 
 20314      73746174 
 20315              	.LASF1071:
 20316 08da 6D656D63 		.ascii	"memcpy\000"
 20316      707900
 20317              	.LASF1000:
 20318 08e1 63685379 		.ascii	"chSysLock\000"
 20318      734C6F63 
 20318      6B00
 20319              	.LASF582:
 20320 08eb 6F705F6D 		.ascii	"op_mode\000"
 20320      6F646500 
 20321              	.LASF910:
 20322 08f3 5F6D6274 		.ascii	"_mbtowc_state\000"
 20322      6F77635F 
 20322      73746174 
 20322      6500
 20323              	.LASF363:
 20324 0901 6770645F 		.ascii	"gpd_buffer_notify_left\000"
 20324      62756666 
 20324      65725F6E 
 20324      6F746966 
 20324      795F6C65 
 20325              	.LASF394:
 20326 0918 6D5F6E74 		.ascii	"m_ntc_motor_beta\000"
 20326      635F6D6F 
 20326      746F725F 
 20326      62657461 
 20326      00
 20327              	.LASF565:
 20328 0929 4932435F 		.ascii	"I2C_UNINIT\000"
 20328      554E494E 
 20328      495400
 20329              	.LASF626:
 20330 0934 53445F55 		.ascii	"SD_UNINIT\000"
 20330      4E494E49 
ARM GAS  /tmp/ccHCUo6g.s 			page 380


 20330      5400
 20331              	.LASF482:
 20332 093e 434F4D4D 		.ascii	"COMM_PLOT_SET_GRAPH\000"
 20332      5F504C4F 
 20332      545F5345 
 20332      545F4752 
 20332      41504800 
 20333              	.LASF1041:
 20334 0952 636F6E66 		.ascii	"conf_general_autodetect_apply_sensors_foc\000"
 20334      5F67656E 
 20334      6572616C 
 20334      5F617574 
 20334      6F646574 
 20335              	.LASF950:
 20336 097c 61726763 		.ascii	"argc\000"
 20336      00
 20337              	.LASF28:
 20338 0981 74707269 		.ascii	"tprio_t\000"
 20338      6F5F7400 
 20339              	.LASF227:
 20340 0989 4F55545F 		.ascii	"OUT_AUX_MODE_ON_AFTER_10S\000"
 20340      4155585F 
 20340      4D4F4445 
 20340      5F4F4E5F 
 20340      41465445 
 20341              	.LASF1011:
 20342 09a3 63685265 		.ascii	"chRegFirstThread\000"
 20342      67466972 
 20342      73745468 
 20342      72656164 
 20342      00
 20343              	.LASF766:
 20344 09b4 72657376 		.ascii	"resvd830\000"
 20344      64383330 
 20344      00
 20345              	.LASF567:
 20346 09bd 4932435F 		.ascii	"I2C_READY\000"
 20346      52454144 
 20346      5900
 20347              	.LASF509:
 20348 09c7 63616E5F 		.ascii	"can_status_msg\000"
 20348      73746174 
 20348      75735F6D 
 20348      736700
 20349              	.LASF768:
 20350 09d6 72657376 		.ascii	"resvd838\000"
 20350      64383338 
 20350      00
 20351              	.LASF581:
 20352 09df 69326364 		.ascii	"i2cdutycycle_t\000"
 20352      75747963 
 20352      79636C65 
 20352      5F7400
 20353              	.LASF981:
 20354 09ee 6C696E6B 		.ascii	"linkage\000"
 20354      61676500 
 20355              	.LASF451:
ARM GAS  /tmp/ccHCUo6g.s 			page 381


 20356 09f6 434F4D4D 		.ascii	"COMM_GET_VALUES_SETUP\000"
 20356      5F474554 
 20356      5F56414C 
 20356      5545535F 
 20356      53455455 
 20357              	.LASF769:
 20358 0a0c 72657376 		.ascii	"resvd83C\000"
 20358      64383343 
 20358      00
 20359              	.LASF479:
 20360 0a15 434F4D4D 		.ascii	"COMM_PLOT_INIT\000"
 20360      5F504C4F 
 20360      545F494E 
 20360      495400
 20361              	.LASF589:
 20362 0a24 74687265 		.ascii	"thread\000"
 20362      616400
 20363              	.LASF765:
 20364 0a2b 44564255 		.ascii	"DVBUSPULSE\000"
 20364      5350554C 
 20364      534500
 20365              	.LASF664:
 20366 0a36 73657475 		.ascii	"setup\000"
 20366      7000
 20367              	.LASF642:
 20368 0a3c 5350495F 		.ascii	"SPI_UNINIT\000"
 20368      554E494E 
 20368      495400
 20369              	.LASF717:
 20370 0a47 44545846 		.ascii	"DTXFSTS\000"
 20370      53545300 
 20371              	.LASF247:
 20372 0a4f 4641554C 		.ascii	"FAULT_CODE_ENCODER_SINCOS_ABOVE_MAX_AMPLITUDE\000"
 20372      545F434F 
 20372      44455F45 
 20372      4E434F44 
 20372      45525F53 
 20373              	.LASF842:
 20374 0a7d 5F5F746D 		.ascii	"__tm_yday\000"
 20374      5F796461 
 20374      7900
 20375              	.LASF658:
 20376 0a87 696E5F70 		.ascii	"in_params\000"
 20376      6172616D 
 20376      7300
 20377              	.LASF134:
 20378 0a91 43434552 		.ascii	"CCER\000"
 20378      00
 20379              	.LASF128:
 20380 0a96 49325350 		.ascii	"I2SPR\000"
 20380      5200
 20381              	.LASF221:
 20382 0a9c 464F435F 		.ascii	"FOC_SENSOR_MODE_ENCODER\000"
 20382      53454E53 
 20382      4F525F4D 
 20382      4F44455F 
 20382      454E434F 
ARM GAS  /tmp/ccHCUo6g.s 			page 382


 20383              	.LASF1003:
 20384 0ab4 5F5F6469 		.ascii	"__disable_irq\000"
 20384      7361626C 
 20384      655F6972 
 20384      7100
 20385              	.LASF726:
 20386 0ac2 47414842 		.ascii	"GAHBCFG\000"
 20386      43464700 
 20387              	.LASF818:
 20388 0aca 5F4C4F43 		.ascii	"_LOCK_T\000"
 20388      4B5F5400 
 20389              	.LASF770:
 20390 0ad2 72657376 		.ascii	"resvd840\000"
 20390      64383430 
 20390      00
 20391              	.LASF1023:
 20392 0adb 6D637077 		.ascii	"mcpwm_foc_measure_inductance2\000"
 20392      6D5F666F 
 20392      635F6D65 
 20392      61737572 
 20392      655F696E 
 20393              	.LASF124:
 20394 0af9 43524350 		.ascii	"CRCPR\000"
 20394      5200
 20395              	.LASF276:
 20396 0aff 44525638 		.ascii	"DRV8301_OC_REPORT_ONLY\000"
 20396      3330315F 
 20396      4F435F52 
 20396      45504F52 
 20396      545F4F4E 
 20397              	.LASF8:
 20398 0b16 5F5F7569 		.ascii	"__uint16_t\000"
 20398      6E743136 
 20398      5F7400
 20399              	.LASF423:
 20400 0b21 434F4D4D 		.ascii	"COMM_SAMPLE_PRINT\000"
 20400      5F53414D 
 20400      504C455F 
 20400      5052494E 
 20400      5400
 20401              	.LASF785:
 20402 0b33 74787175 		.ascii	"txqueued\000"
 20402      65756564 
 20402      00
 20403              	.LASF49:
 20404 0b3c 705F6D73 		.ascii	"p_msg\000"
 20404      6700
 20405              	.LASF902:
 20406 0b42 5F756E75 		.ascii	"_unused_rand\000"
 20406      7365645F 
 20406      72616E64 
 20406      00
 20407              	.LASF383:
 20408 0b4f 6D5F6661 		.ascii	"m_fault_stop_time_ms\000"
 20408      756C745F 
 20408      73746F70 
 20408      5F74696D 
ARM GAS  /tmp/ccHCUo6g.s 			page 383


 20408      655F6D73 
 20409              	.LASF732:
 20410 0b64 47525853 		.ascii	"GRXSTSP\000"
 20410      54535000 
 20411              	.LASF731:
 20412 0b6c 47525853 		.ascii	"GRXSTSR\000"
 20412      54535200 
 20413              	.LASF980:
 20414 0b74 6D696E5F 		.ascii	"min_erpm\000"
 20414      6572706D 
 20414      00
 20415              	.LASF975:
 20416 0b7d 63757272 		.ascii	"curr\000"
 20416      00
 20417              	.LASF117:
 20418 0b82 4D314152 		.ascii	"M1AR\000"
 20418      00
 20419              	.LASF671:
 20420 0b87 77616974 		.ascii	"wait\000"
 20420      00
 20421              	.LASF118:
 20422 0b8c 444D415F 		.ascii	"DMA_Stream_TypeDef\000"
 20422      53747265 
 20422      616D5F54 
 20422      79706544 
 20422      656600
 20423              	.LASF678:
 20424 0b9f 5553425F 		.ascii	"USB_ACTIVE\000"
 20424      41435449 
 20424      564500
 20425              	.LASF336:
 20426 0baa 666F635F 		.ascii	"foc_encoder_sin_gain\000"
 20426      656E636F 
 20426      6465725F 
 20426      73696E5F 
 20426      6761696E 
 20427              	.LASF366:
 20428 0bbf 6770645F 		.ascii	"gpd_current_kp\000"
 20428      63757272 
 20428      656E745F 
 20428      6B7000
 20429              	.LASF370:
 20430 0bce 735F7069 		.ascii	"s_pid_kd\000"
 20430      645F6B64 
 20430      00
 20431              	.LASF719:
 20432 0bd7 73746D33 		.ascii	"stm32_otg_in_ep_t\000"
 20432      325F6F74 
 20432      675F696E 
 20432      5F65705F 
 20432      7400
 20433              	.LASF793:
 20434 0be9 7278636E 		.ascii	"rxcnt\000"
 20434      7400
 20435              	.LASF591:
 20436 0bef 7278646D 		.ascii	"rxdmamode\000"
 20436      616D6F64 
ARM GAS  /tmp/ccHCUo6g.s 			page 384


 20436      6500
 20437              	.LASF884:
 20438 0bf9 5F726573 		.ascii	"_result_k\000"
 20438      756C745F 
 20438      6B00
 20439              	.LASF617:
 20440 0c03 6D6F6465 		.ascii	"mode\000"
 20440      00
 20441              	.LASF876:
 20442 0c08 5F737464 		.ascii	"_stderr\000"
 20442      65727200 
 20443              	.LASF883:
 20444 0c10 5F726573 		.ascii	"_result\000"
 20444      756C7400 
 20445              	.LASF610:
 20446 0c18 4943555F 		.ascii	"ICU_INPUT_ACTIVE_HIGH\000"
 20446      494E5055 
 20446      545F4143 
 20446      54495645 
 20446      5F484947 
 20447              	.LASF944:
 20448 0c2e 7465726D 		.ascii	"terminal_register_command_callback\000"
 20448      696E616C 
 20448      5F726567 
 20448      69737465 
 20448      725F636F 
 20449              	.LASF178:
 20450 0c51 63665F6F 		.ascii	"cf_off_state\000"
 20450      66665F73 
 20450      74617465 
 20450      00
 20451              	.LASF652:
 20452 0c5e 73737061 		.ascii	"sspad\000"
 20452      6400
 20453              	.LASF592:
 20454 0c64 7478646D 		.ascii	"txdmamode\000"
 20454      616D6F64 
 20454      6500
 20455              	.LASF533:
 20456 0c6e 61667268 		.ascii	"afrh\000"
 20456      00
 20457              	.LASF340:
 20458 0c73 666F635F 		.ascii	"foc_motor_l\000"
 20458      6D6F746F 
 20458      725F6C00 
 20459              	.LASF256:
 20460 0c7f 4641554C 		.ascii	"FAULT_CODE_RECU_OVERVOLTAGE\000"
 20460      545F434F 
 20460      44455F52 
 20460      4543555F 
 20460      4F564552 
 20461              	.LASF341:
 20462 0c9b 666F635F 		.ascii	"foc_motor_r\000"
 20462      6D6F746F 
 20462      725F7200 
 20463              	.LASF841:
 20464 0ca7 5F5F746D 		.ascii	"__tm_wday\000"
ARM GAS  /tmp/ccHCUo6g.s 			page 385


 20464      5F776461 
 20464      7900
 20465              	.LASF237:
 20466 0cb1 4641554C 		.ascii	"FAULT_CODE_DRV\000"
 20466      545F434F 
 20466      44455F44 
 20466      525600
 20467              	.LASF843:
 20468 0cc0 5F5F746D 		.ascii	"__tm_isdst\000"
 20468      5F697364 
 20468      737400
 20469              	.LASF145:
 20470 0ccb 73746B61 		.ascii	"stkalign_t\000"
 20470      6C69676E 
 20470      5F7400
 20471              	.LASF778:
 20472 0cd6 72785F66 		.ascii	"rx_fifo_size\000"
 20472      69666F5F 
 20472      73697A65 
 20472      00
 20473              	.LASF243:
 20474 0ce3 4641554C 		.ascii	"FAULT_CODE_MCU_UNDER_VOLTAGE\000"
 20474      545F434F 
 20474      44455F4D 
 20474      43555F55 
 20474      4E444552 
 20475              	.LASF562:
 20476 0d00 77616B65 		.ascii	"wakeup_event\000"
 20476      75705F65 
 20476      76656E74 
 20476      00
 20477              	.LASF72:
 20478 0d0d 76745F70 		.ascii	"vt_prev\000"
 20478      72657600 
 20479              	.LASF650:
 20480 0d15 656E645F 		.ascii	"end_cb\000"
 20480      636200
 20481              	.LASF796:
 20482 0d1c 73657475 		.ascii	"setup_cb\000"
 20482      705F6362 
 20482      00
 20483              	.LASF6:
 20484 0d25 756E7369 		.ascii	"unsigned char\000"
 20484      676E6564 
 20484      20636861 
 20484      7200
 20485              	.LASF875:
 20486 0d33 5F737464 		.ascii	"_stdout\000"
 20486      6F757400 
 20487              	.LASF1063:
 20488 0d3b 7465726D 		.ascii	"terminal.c\000"
 20488      696E616C 
 20488      2E6300
 20489              	.LASF187:
 20490 0d46 6576656E 		.ascii	"event_listener\000"
 20490      745F6C69 
 20490      7374656E 
ARM GAS  /tmp/ccHCUo6g.s 			page 386


 20490      657200
 20491              	.LASF372:
 20492 0d55 735F7069 		.ascii	"s_pid_min_erpm\000"
 20492      645F6D69 
 20492      6E5F6572 
 20492      706D00
 20493              	.LASF556:
 20494 0d64 74787175 		.ascii	"txqueue\000"
 20494      65756500 
 20495              	.LASF159:
 20496 0d6c 735F636E 		.ascii	"s_cnt\000"
 20496      7400
 20497              	.LASF60:
 20498 0d72 72656164 		.ascii	"ready_list_t\000"
 20498      795F6C69 
 20498      73745F74 
 20498      00
 20499              	.LASF56:
 20500 0d7f 63685F74 		.ascii	"ch_thread\000"
 20500      68726561 
 20500      6400
 20501              	.LASF576:
 20502 0d89 4F504D4F 		.ascii	"OPMODE_SMBUS_HOST\000"
 20502      44455F53 
 20502      4D425553 
 20502      5F484F53 
 20502      5400
 20503              	.LASF660:
 20504 0d9b 65703073 		.ascii	"ep0state\000"
 20504      74617465 
 20504      00
 20505              	.LASF917:
 20506 0da4 5F6D6273 		.ascii	"_mbsrtowcs_state\000"
 20506      72746F77 
 20506      63735F73 
 20506      74617465 
 20506      00
 20507              	.LASF833:
 20508 0db5 5F776473 		.ascii	"_wds\000"
 20508      00
 20509              	.LASF0:
 20510 0dba 666C6F61 		.ascii	"float\000"
 20510      7400
 20511              	.LASF983:
 20512 0dc0 746F7574 		.ascii	"tout_c\000"
 20512      5F6300
 20513              	.LASF1021:
 20514 0dc7 6D637077 		.ascii	"mcpwm_foc_measure_resistance\000"
 20514      6D5F666F 
 20514      635F6D65 
 20514      61737572 
 20514      655F7265 
 20515              	.LASF309:
 20516 0de4 6C5F7761 		.ascii	"l_watt_max\000"
 20516      74745F6D 
 20516      617800
 20517              	.LASF551:
ARM GAS  /tmp/ccHCUo6g.s 			page 387


 20518 0def 43414E5F 		.ascii	"CAN_SLEEP\000"
 20518      534C4545 
 20518      5000
 20519              	.LASF330:
 20520 0df9 666F635F 		.ascii	"foc_f_sw\000"
 20520      665F7377 
 20520      00
 20521              	.LASF294:
 20522 0e02 6C5F6572 		.ascii	"l_erpm_start\000"
 20522      706D5F73 
 20522      74617274 
 20522      00
 20523              	.LASF547:
 20524 0e0f 43414E5F 		.ascii	"CAN_UNINIT\000"
 20524      554E494E 
 20524      495400
 20525              	.LASF79:
 20526 0e1a 73797374 		.ascii	"system_debug_t\000"
 20526      656D5F64 
 20526      65627567 
 20526      5F7400
 20527              	.LASF302:
 20528 0e29 6C5F7465 		.ascii	"l_temp_fet_start\000"
 20528      6D705F66 
 20528      65745F73 
 20528      74617274 
 20528      00
 20529              	.LASF131:
 20530 0e3a 44494552 		.ascii	"DIER\000"
 20530      00
 20531              	.LASF38:
 20532 0e3f 705F6374 		.ascii	"p_ctx\000"
 20532      7800
 20533              	.LASF75:
 20534 0e45 76745F70 		.ascii	"vt_par\000"
 20534      617200
 20535              	.LASF481:
 20536 0e4c 434F4D4D 		.ascii	"COMM_PLOT_ADD_GRAPH\000"
 20536      5F504C4F 
 20536      545F4144 
 20536      445F4752 
 20536      41504800 
 20537              	.LASF903:
 20538 0e60 5F737472 		.ascii	"_strtok_last\000"
 20538      746F6B5F 
 20538      6C617374 
 20538      00
 20539              	.LASF67:
 20540 0e6d 725F6375 		.ascii	"r_current\000"
 20540      7272656E 
 20540      7400
 20541              	.LASF854:
 20542 0e77 5F73697A 		.ascii	"_size\000"
 20542      6500
 20543              	.LASF429:
 20544 0e7d 434F4D4D 		.ascii	"COMM_DETECT_MOTOR_R_L\000"
 20544      5F444554 
ARM GAS  /tmp/ccHCUo6g.s 			page 388


 20544      4543545F 
 20544      4D4F544F 
 20544      525F525F 
 20545              	.LASF434:
 20546 0e93 434F4D4D 		.ascii	"COMM_ALIVE\000"
 20546      5F414C49 
 20546      564500
 20547              	.LASF126:
 20548 0e9e 54584352 		.ascii	"TXCRCR\000"
 20548      435200
 20549              	.LASF284:
 20550 0ea5 636F6D6D 		.ascii	"comm_mode\000"
 20550      5F6D6F64 
 20550      6500
 20551              	.LASF942:
 20552 0eaf 63616C6C 		.ascii	"callback_write\000"
 20552      6261636B 
 20552      5F777269 
 20552      746500
 20553              	.LASF238:
 20554 0ebe 4641554C 		.ascii	"FAULT_CODE_ABS_OVER_CURRENT\000"
 20554      545F434F 
 20554      44455F41 
 20554      42535F4F 
 20554      5645525F 
 20555              	.LASF343:
 20556 0eda 666F635F 		.ascii	"foc_observer_gain\000"
 20556      6F627365 
 20556      72766572 
 20556      5F676169 
 20556      6E00
 20557              	.LASF335:
 20558 0eec 666F635F 		.ascii	"foc_encoder_sin_offset\000"
 20558      656E636F 
 20558      6465725F 
 20558      73696E5F 
 20558      6F666673 
 20559              	.LASF580:
 20560 0f03 46415354 		.ascii	"FAST_DUTY_CYCLE_16_9\000"
 20560      5F445554 
 20560      595F4359 
 20560      434C455F 
 20560      31365F39 
 20561              	.LASF635:
 20562 0f18 53657269 		.ascii	"SerialDriverVMT\000"
 20562      616C4472 
 20562      69766572 
 20562      564D5400 
 20563              	.LASF621:
 20564 0f28 6F766572 		.ascii	"overflow_cb\000"
 20564      666C6F77 
 20564      5F636200 
 20565              	.LASF22:
 20566 0f34 75696E74 		.ascii	"uint64_t\000"
 20566      36345F74 
 20566      00
 20567              	.LASF1066:
ARM GAS  /tmp/ccHCUo6g.s 			page 389


 20568 0f3d 7465726D 		.ascii	"terminal_get_fault_vec_write\000"
 20568      696E616C 
 20568      5F676574 
 20568      5F666175 
 20568      6C745F76 
 20569              	.LASF184:
 20570 0f5a 63685F64 		.ascii	"ch_debug\000"
 20570      65627567 
 20570      00
 20571              	.LASF105:
 20572 0f63 464D3152 		.ascii	"FM1R\000"
 20572      00
 20573              	.LASF836:
 20574 0f68 5F5F746D 		.ascii	"__tm_min\000"
 20574      5F6D696E 
 20574      00
 20575              	.LASF955:
 20576 0f71 73746174 		.ascii	"states\000"
 20576      657300
 20577              	.LASF544:
 20578 0f78 50414C43 		.ascii	"PALConfig\000"
 20578      6F6E6669 
 20578      6700
 20579              	.LASF700:
 20580 0f82 75736265 		.ascii	"usbeventcb_t\000"
 20580      76656E74 
 20580      63625F74 
 20580      00
 20581              	.LASF465:
 20582 0f8f 434F4D4D 		.ascii	"COMM_WRITE_NEW_APP_DATA_ALL_CAN\000"
 20582      5F575249 
 20582      54455F4E 
 20582      45575F41 
 20582      50505F44 
 20583              	.LASF1013:
 20584 0faf 6D635F69 		.ascii	"mc_interface_fault_to_string\000"
 20584      6E746572 
 20584      66616365 
 20584      5F666175 
 20584      6C745F74 
 20585              	.LASF840:
 20586 0fcc 5F5F746D 		.ascii	"__tm_year\000"
 20586      5F796561 
 20586      7200
 20587              	.LASF186:
 20588 0fd6 6576656E 		.ascii	"event_listener_t\000"
 20588      745F6C69 
 20588      7374656E 
 20588      65725F74 
 20588      00
 20589              	.LASF866:
 20590 0fe7 5F626C6B 		.ascii	"_blksize\000"
 20590      73697A65 
 20590      00
 20591              	.LASF779:
 20592 0ff0 6F74675F 		.ascii	"otg_ram_size\000"
 20592      72616D5F 
ARM GAS  /tmp/ccHCUo6g.s 			page 390


 20592      73697A65 
 20592      00
 20593              	.LASF781:
 20594 0ffd 73746D33 		.ascii	"stm32_otg_params_t\000"
 20594      325F6F74 
 20594      675F7061 
 20594      72616D73 
 20594      5F7400
 20595              	.LASF773:
 20596 1010 72657376 		.ascii	"resvdD00\000"
 20596      64443030 
 20596      00
 20597              	.LASF125:
 20598 1019 52584352 		.ascii	"RXCRCR\000"
 20598      435200
 20599              	.LASF790:
 20600 1020 72786275 		.ascii	"rxbuf\000"
 20600      6600
 20601              	.LASF729:
 20602 1026 47494E54 		.ascii	"GINTSTS\000"
 20602      53545300 
 20603              	.LASF474:
 20604 102e 434F4D4D 		.ascii	"COMM_BM_DISCONNECT\000"
 20604      5F424D5F 
 20604      44495343 
 20604      4F4E4E45 
 20604      435400
 20605              	.LASF160:
 20606 1041 63685F6D 		.ascii	"ch_mutex\000"
 20606      75746578 
 20606      00
 20607              	.LASF861:
 20608 104a 5F777269 		.ascii	"_write\000"
 20608      746500
 20609              	.LASF631:
 20610 1051 6576656E 		.ascii	"event\000"
 20610      7400
 20611              	.LASF559:
 20612 1057 7478656D 		.ascii	"txempty_event\000"
 20612      7074795F 
 20612      6576656E 
 20612      7400
 20613              	.LASF373:
 20614 1065 735F7069 		.ascii	"s_pid_allow_braking\000"
 20614      645F616C 
 20614      6C6F775F 
 20614      6272616B 
 20614      696E6700 
 20615              	.LASF541:
 20616 1079 50474461 		.ascii	"PGData\000"
 20616      746100
 20617              	.LASF257:
 20618 1080 4641554C 		.ascii	"FAULT_CODE_RECU_UNDERVOLTAGE\000"
 20618      545F434F 
 20618      44455F52 
 20618      4543555F 
 20618      554E4445 
ARM GAS  /tmp/ccHCUo6g.s 			page 391


 20619              	.LASF1062:
 20620 109d 474E5520 		.ascii	"GNU C99 7.3.1 20180622 (release) [ARM/embedded-7-br"
 20620      43393920 
 20620      372E332E 
 20620      31203230 
 20620      31383036 
 20621 10d0 616E6368 		.ascii	"anch revision 261907] -mcpu=cortex-m4 -mfloat-abi=h"
 20621      20726576 
 20621      6973696F 
 20621      6E203236 
 20621      31393037 
 20622 1103 61726420 		.ascii	"ard -mfpu=fpv4-sp-d16 -mno-thumb-interwork -mthumb "
 20622      2D6D6670 
 20622      753D6670 
 20622      76342D73 
 20622      702D6431 
 20623 1136 2D676764 		.ascii	"-ggdb -O2 -std=gnu99 -fomit-frame-pointer -falign-f"
 20623      62202D4F 
 20623      32202D73 
 20623      74643D67 
 20623      6E753939 
 20624 1169 756E6374 		.ascii	"unctions=16 -ffunction-sections -fdata-sections -fn"
 20624      696F6E73 
 20624      3D313620 
 20624      2D666675 
 20624      6E637469 
 20625 119c 6F2D636F 		.ascii	"o-common -fsingle-precision-constant\000"
 20625      6D6D6F6E 
 20625      202D6673 
 20625      696E676C 
 20625      652D7072 
 20626              	.LASF915:
 20627 11c1 5F6D6272 		.ascii	"_mbrlen_state\000"
 20627      6C656E5F 
 20627      73746174 
 20627      6500
 20628              	.LASF979:
 20629 11cf 74696D65 		.ascii	"time\000"
 20629      00
 20630              	.LASF632:
 20631 11d4 69717565 		.ascii	"iqueue\000"
 20631      756500
 20632              	.LASF217:
 20633 11db 53454E53 		.ascii	"SENSOR_MODE_SENSORED\000"
 20633      4F525F4D 
 20633      4F44455F 
 20633      53454E53 
 20633      4F524544 
 20634              	.LASF174:
 20635 11f0 63665F6F 		.ascii	"cf_off_newer\000"
 20635      66665F6E 
 20635      65776572 
 20635      00
 20636              	.LASF835:
 20637 11fd 5F5F746D 		.ascii	"__tm_sec\000"
 20637      5F736563 
 20637      00
ARM GAS  /tmp/ccHCUo6g.s 			page 392


 20638              	.LASF1060:
 20639 1206 656E636F 		.ascii	"encoder_spi_get_error_cnt\000"
 20639      6465725F 
 20639      7370695F 
 20639      6765745F 
 20639      6572726F 
 20640              	.LASF758:
 20641 1220 44494550 		.ascii	"DIEPMSK\000"
 20641      4D534B00 
 20642              	.LASF725:
 20643 1228 474F5447 		.ascii	"GOTGINT\000"
 20643      494E5400 
 20644              	.LASF371:
 20645 1230 735F7069 		.ascii	"s_pid_kd_filter\000"
 20645      645F6B64 
 20645      5F66696C 
 20645      74657200 
 20646              	.LASF798:
 20647 1240 6F75745F 		.ascii	"out_cb\000"
 20647      636200
 20648              	.LASF749:
 20649 1247 4841494E 		.ascii	"HAINTMSK\000"
 20649      544D534B 
 20649      00
 20650              	.LASF659:
 20651 1250 6F75745F 		.ascii	"out_params\000"
 20651      70617261 
 20651      6D7300
 20652              	.LASF1006:
 20653 125b 73736361 		.ascii	"sscanf\000"
 20653      6E6600
 20654              	.LASF982:
 20655 1262 746F7574 		.ascii	"tout\000"
 20655      00
 20656              	.LASF874:
 20657 1267 5F737464 		.ascii	"_stdin\000"
 20657      696E00
 20658              	.LASF922:
 20659 126e 5F6E6D61 		.ascii	"_nmalloc\000"
 20659      6C6C6F63 
 20659      00
 20660              	.LASF623:
 20661 1277 64696572 		.ascii	"dier\000"
 20661      00
 20662              	.LASF746:
 20663 127c 72657376 		.ascii	"resvd40C\000"
 20663      64343043 
 20663      00
 20664              	.LASF365:
 20665 1285 6770645F 		.ascii	"gpd_current_filter_const\000"
 20665      63757272 
 20665      656E745F 
 20665      66696C74 
 20665      65725F63 
 20666              	.LASF501:
 20667 129e 74696D5F 		.ascii	"tim_val_samp\000"
 20667      76616C5F 
ARM GAS  /tmp/ccHCUo6g.s 			page 393


 20667      73616D70 
 20667      00
 20668              	.LASF1020:
 20669 12ab 656E636F 		.ascii	"encoder_is_configured\000"
 20669      6465725F 
 20669      69735F63 
 20669      6F6E6669 
 20669      67757265 
 20670              	.LASF450:
 20671 12c1 434F4D4D 		.ascii	"COMM_GPD_SET_BUFFER_INT_SCALE\000"
 20671      5F475044 
 20671      5F534554 
 20671      5F425546 
 20671      4645525F 
 20672              	.LASF1053:
 20673 12df 6D635F69 		.ascii	"mc_interface_get_tachometer_value\000"
 20673      6E746572 
 20673      66616365 
 20673      5F676574 
 20673      5F746163 
 20674              	.LASF69:
 20675 1301 76697274 		.ascii	"virtual_timer_t\000"
 20675      75616C5F 
 20675      74696D65 
 20675      725F7400 
 20676              	.LASF64:
 20677 1311 725F6374 		.ascii	"r_ctx\000"
 20677      7800
 20678              	.LASF71:
 20679 1317 76745F6E 		.ascii	"vt_next\000"
 20679      65787400 
 20680              	.LASF248:
 20681 131f 4641554C 		.ascii	"FAULT_CODE_FLASH_CORRUPTION\000"
 20681      545F434F 
 20681      44455F46 
 20681      4C415348 
 20681      5F434F52 
 20682              	.LASF939:
 20683 133b 6661756C 		.ascii	"fault_vec\000"
 20683      745F7665 
 20683      6300
 20684              	.LASF398:
 20685 1345 73695F77 		.ascii	"si_wheel_diameter\000"
 20685      6865656C 
 20685      5F646961 
 20685      6D657465 
 20685      7200
 20686              	.LASF407:
 20687 1357 434F4D4D 		.ascii	"COMM_WRITE_NEW_APP_DATA\000"
 20687      5F575249 
 20687      54455F4E 
 20687      45575F41 
 20687      50505F44 
 20688              	.LASF406:
 20689 136f 434F4D4D 		.ascii	"COMM_ERASE_NEW_APP\000"
 20689      5F455241 
 20689      53455F4E 
ARM GAS  /tmp/ccHCUo6g.s 			page 394


 20689      45575F41 
 20689      505000
 20690              	.LASF23:
 20691 1382 7274636E 		.ascii	"rtcnt_t\000"
 20691      745F7400 
 20692              	.LASF588:
 20693 138a 6D757465 		.ascii	"mutex\000"
 20693      7800
 20694              	.LASF218:
 20695 1390 53454E53 		.ascii	"SENSOR_MODE_HYBRID\000"
 20695      4F525F4D 
 20695      4F44455F 
 20695      48594252 
 20695      494400
 20696              	.LASF389:
 20697 13a3 6D5F6472 		.ascii	"m_drv8301_oc_mode\000"
 20697      76383330 
 20697      315F6F63 
 20697      5F6D6F64 
 20697      6500
 20698              	.LASF313:
 20699 13b5 6C6F5F63 		.ascii	"lo_current_max\000"
 20699      75727265 
 20699      6E745F6D 
 20699      617800
 20700              	.LASF333:
 20701 13c4 666F635F 		.ascii	"foc_encoder_inverted\000"
 20701      656E636F 
 20701      6465725F 
 20701      696E7665 
 20701      72746564 
 20702              	.LASF380:
 20703 13d9 63635F6D 		.ascii	"cc_min_current\000"
 20703      696E5F63 
 20703      75727265 
 20703      6E7400
 20704              	.LASF1056:
 20705 13e8 656E636F 		.ascii	"encoder_sincos_get_signal_below_min_error_rate\000"
 20705      6465725F 
 20705      73696E63 
 20705      6F735F67 
 20705      65745F73 
 20706              	.LASF624:
 20707 1417 49435543 		.ascii	"ICUConfig\000"
 20707      6F6E6669 
 20707      6700
 20708              	.LASF670:
 20709 1421 74787065 		.ascii	"txpending\000"
 20709      6E64696E 
 20709      6700
 20710              	.LASF260:
 20711 142b 53454E53 		.ascii	"SENSOR_PORT_MODE_ABI\000"
 20711      4F525F50 
 20711      4F52545F 
 20711      4D4F4445 
 20711      5F414249 
 20712              	.LASF967:
ARM GAS  /tmp/ccHCUo6g.s 			page 395


 20713 1440 6C6F775F 		.ascii	"low_duty\000"
 20713      64757479 
 20713      00
 20714              	.LASF518:
 20715 1449 636C6561 		.ascii	"clear\000"
 20715      7200
 20716              	.LASF267:
 20717 144f 6379636C 		.ascii	"cycle_int_limit_running\000"
 20717      655F696E 
 20717      745F6C69 
 20717      6D69745F 
 20717      72756E6E 
 20718              	.LASF608:
 20719 1467 43435852 		.ascii	"CCXR\000"
 20719      00
 20720              	.LASF114:
 20721 146c 43414E5F 		.ascii	"CAN_TypeDef\000"
 20721      54797065 
 20721      44656600 
 20722              	.LASF819:
 20723 1478 5F6F6666 		.ascii	"_off_t\000"
 20723      5F7400
 20724              	.LASF713:
 20725 147f 72657376 		.ascii	"resvd4\000"
 20725      643400
 20726              	.LASF627:
 20727 1486 53445F53 		.ascii	"SD_STOP\000"
 20727      544F5000 
 20728              	.LASF704:
 20729 148e 72657376 		.ascii	"resvd8\000"
 20729      643800
 20730              	.LASF2:
 20731 1495 73697A65 		.ascii	"size_t\000"
 20731      5F7400
 20732              	.LASF905:
 20733 149c 5F6C6F63 		.ascii	"_localtime_buf\000"
 20733      616C7469 
 20733      6D655F62 
 20733      756600
 20734              	.LASF261:
 20735 14ab 53454E53 		.ascii	"SENSOR_PORT_MODE_AS5047_SPI\000"
 20735      4F525F50 
 20735      4F52545F 
 20735      4D4F4445 
 20735      5F415335 
 20736              	.LASF824:
 20737 14c7 5F5F636F 		.ascii	"__count\000"
 20737      756E7400 
 20738              	.LASF18:
 20739 14cf 75696E74 		.ascii	"uint8_t\000"
 20739      385F7400 
 20740              	.LASF708:
 20741 14d7 72657376 		.ascii	"resvd14\000"
 20741      64313400 
 20742              	.LASF996:
 20743 14df 7072696E 		.ascii	"print_div\000"
 20743      745F6469 
ARM GAS  /tmp/ccHCUo6g.s 			page 396


 20743      7600
 20744              	.LASF709:
 20745 14e9 72657376 		.ascii	"resvd18\000"
 20745      64313800 
 20746              	.LASF463:
 20747 14f1 434F4D4D 		.ascii	"COMM_JUMP_TO_BOOTLOADER_ALL_CAN\000"
 20747      5F4A554D 
 20747      505F544F 
 20747      5F424F4F 
 20747      544C4F41 
 20748              	.LASF66:
 20749 1511 725F6F6C 		.ascii	"r_older\000"
 20749      64657200 
 20750              	.LASF578:
 20751 1519 5354445F 		.ascii	"STD_DUTY_CYCLE\000"
 20751      44555459 
 20751      5F435943 
 20751      4C4500
 20752              	.LASF36:
 20753 1528 705F7072 		.ascii	"p_prev\000"
 20753      657600
 20754              	.LASF176:
 20755 152f 63665F6F 		.ascii	"cf_off_name\000"
 20755      66665F6E 
 20755      616D6500 
 20756              	.LASF430:
 20757 153b 434F4D4D 		.ascii	"COMM_DETECT_MOTOR_FLUX_LINKAGE\000"
 20757      5F444554 
 20757      4543545F 
 20757      4D4F544F 
 20757      525F464C 
 20758              	.LASF767:
 20759 155a 44494550 		.ascii	"DIEPEMPMSK\000"
 20759      454D504D 
 20759      534B00
 20760              	.LASF442:
 20761 1565 434F4D4D 		.ascii	"COMM_GPD_SET_FSW\000"
 20761      5F475044 
 20761      5F534554 
 20761      5F465357 
 20761      00
 20762              	.LASF318:
 20763 1576 6C6F5F63 		.ascii	"lo_current_motor_min_now\000"
 20763      75727265 
 20763      6E745F6D 
 20763      6F746F72 
 20763      5F6D696E 
 20764              	.LASF712:
 20765 158f 44494550 		.ascii	"DIEPCTL\000"
 20765      43544C00 
 20766              	.LASF298:
 20767 1597 6C5F6D61 		.ascii	"l_max_vin\000"
 20767      785F7669 
 20767      6E00
 20768              	.LASF192:
 20769 15a1 656C5F77 		.ascii	"el_wflags\000"
 20769      666C6167 
ARM GAS  /tmp/ccHCUo6g.s 			page 397


 20769      7300
 20770              	.LASF970:
 20771 15ab 68616C6C 		.ascii	"hall_res\000"
 20771      5F726573 
 20771      00
 20772              	.LASF668:
 20773 15b4 6F746770 		.ascii	"otgparams\000"
 20773      6172616D 
 20773      7300
 20774              	.LASF151:
 20775 15be 65786974 		.ascii	"exitcode\000"
 20775      636F6465 
 20775      00
 20776              	.LASF538:
 20777 15c7 50444461 		.ascii	"PDData\000"
 20777      746100
 20778              	.LASF266:
 20779 15ce 6379636C 		.ascii	"cycle_int_limit\000"
 20779      655F696E 
 20779      745F6C69 
 20779      6D697400 
 20780              	.LASF888:
 20781 15de 5F637674 		.ascii	"_cvtbuf\000"
 20781      62756600 
 20782              	.LASF802:
 20783 15e6 6F75745F 		.ascii	"out_state\000"
 20783      73746174 
 20783      6500
 20784              	.LASF196:
 20785 15f0 696F5F71 		.ascii	"io_queue_t\000"
 20785      75657565 
 20785      5F7400
 20786              	.LASF493:
 20787 15fb 766F6C74 		.ascii	"voltage_bms\000"
 20787      6167655F 
 20787      626D7300 
 20788              	.LASF566:
 20789 1607 4932435F 		.ascii	"I2C_STOP\000"
 20789      53544F50 
 20789      00
 20790              	.LASF590:
 20791 1610 61646472 		.ascii	"addr\000"
 20791      00
 20792              	.LASF574:
 20793 1615 4F504D4F 		.ascii	"OPMODE_I2C\000"
 20793      44455F49 
 20793      324300
 20794              	.LASF99:
 20795 1620 52463052 		.ascii	"RF0R\000"
 20795      00
 20796              	.LASF457:
 20797 1625 434F4D4D 		.ascii	"COMM_EXT_NRF_ESB_SET_CH_ADDR\000"
 20797      5F455854 
 20797      5F4E5246 
 20797      5F455342 
 20797      5F534554 
 20798              	.LASF560:
ARM GAS  /tmp/ccHCUo6g.s 			page 398


 20799 1642 6572726F 		.ascii	"error_event\000"
 20799      725F6576 
 20799      656E7400 
 20800              	.LASF409:
 20801 164e 434F4D4D 		.ascii	"COMM_SET_DUTY\000"
 20801      5F534554 
 20801      5F445554 
 20801      5900
 20802              	.LASF521:
 20803 165c 4F535045 		.ascii	"OSPEEDR\000"
 20803      45445200 
 20804              	.LASF988:
 20805 1664 6572706D 		.ascii	"erpm_per_sec\000"
 20805      5F706572 
 20805      5F736563 
 20805      00
 20806              	.LASF736:
 20807 1671 72657376 		.ascii	"resvd30\000"
 20807      64333000 
 20808              	.LASF823:
 20809 1679 5F5F7763 		.ascii	"__wchb\000"
 20809      686200
 20810              	.LASF985:
 20811 1680 72706D5F 		.ascii	"rpm_avg\000"
 20811      61766700 
 20812              	.LASF737:
 20813 1688 72657376 		.ascii	"resvd34\000"
 20813      64333400 
 20814              	.LASF299:
 20815 1690 6C5F6261 		.ascii	"l_battery_cut_start\000"
 20815      74746572 
 20815      795F6375 
 20815      745F7374 
 20815      61727400 
 20816              	.LASF625:
 20817 16a4 49435544 		.ascii	"ICUD4\000"
 20817      3400
 20818              	.LASF837:
 20819 16aa 5F5F746D 		.ascii	"__tm_hour\000"
 20819      5F686F75 
 20819      7200
 20820              	.LASF935:
 20821 16b4 636F6D6D 		.ascii	"command\000"
 20821      616E6400 
 20822              	.LASF300:
 20823 16bc 6C5F6261 		.ascii	"l_battery_cut_end\000"
 20823      74746572 
 20823      795F6375 
 20823      745F656E 
 20823      6400
 20824              	.LASF815:
 20825 16ce 6D637077 		.ascii	"mcpwm_vzero\000"
 20825      6D5F767A 
 20825      65726F00 
 20826              	.LASF297:
 20827 16da 6C5F6D69 		.ascii	"l_min_vin\000"
 20827      6E5F7669 
ARM GAS  /tmp/ccHCUo6g.s 			page 399


 20827      6E00
 20828              	.LASF244:
 20829 16e4 4641554C 		.ascii	"FAULT_CODE_BOOTING_FROM_WATCHDOG_RESET\000"
 20829      545F434F 
 20829      44455F42 
 20829      4F4F5449 
 20829      4E475F46 
 20830              	.LASF686:
 20831 170b 5553425F 		.ascii	"USB_EP0_ERROR\000"
 20831      4550305F 
 20831      4552524F 
 20831      5200
 20832              	.LASF948:
 20833 1719 7465726D 		.ascii	"terminal_process_string\000"
 20833      696E616C 
 20833      5F70726F 
 20833      63657373 
 20833      5F737472 
 20834              	.LASF1031:
 20835 1731 74696D65 		.ascii	"timeout_get_timeout_msec\000"
 20835      6F75745F 
 20835      6765745F 
 20835      74696D65 
 20835      6F75745F 
 20836              	.LASF418:
 20837 174a 434F4D4D 		.ascii	"COMM_GET_MCCONF\000"
 20837      5F474554 
 20837      5F4D4343 
 20837      4F4E4600 
 20838              	.LASF821:
 20839 175a 77696E74 		.ascii	"wint_t\000"
 20839      5F7400
 20840              	.LASF466:
 20841 1761 434F4D4D 		.ascii	"COMM_PING_CAN\000"
 20841      5F50494E 
 20841      475F4341 
 20841      4E00
 20842              	.LASF339:
 20843 176f 666F635F 		.ascii	"foc_encoder_sincos_filter_constant\000"
 20843      656E636F 
 20843      6465725F 
 20843      73696E63 
 20843      6F735F66 
 20844              	.LASF100:
 20845 1792 52463152 		.ascii	"RF1R\000"
 20845      00
 20846              	.LASF416:
 20847 1797 434F4D4D 		.ascii	"COMM_SET_SERVO_POS\000"
 20847      5F534554 
 20847      5F534552 
 20847      564F5F50 
 20847      4F5300
 20848              	.LASF270:
 20849 17aa 636F6D6D 		.ascii	"comm_time_sum_min_rpm\000"
 20849      5F74696D 
 20849      655F7375 
 20849      6D5F6D69 
ARM GAS  /tmp/ccHCUo6g.s 			page 400


 20849      6E5F7270 
 20850              	.LASF775:
 20851 17c0 72657376 		.ascii	"resvdE04\000"
 20851      64453034 
 20851      00
 20852              	.LASF780:
 20853 17c9 6E756D5F 		.ascii	"num_endpoints\000"
 20853      656E6470 
 20853      6F696E74 
 20853      7300
 20854              	.LASF435:
 20855 17d7 434F4D4D 		.ascii	"COMM_GET_DECODED_PPM\000"
 20855      5F474554 
 20855      5F444543 
 20855      4F444544 
 20855      5F50504D 
 20856              	.LASF788:
 20857 17ec 746F7473 		.ascii	"totsize\000"
 20857      697A6500 
 20858              	.LASF337:
 20859 17f4 666F635F 		.ascii	"foc_encoder_cos_offset\000"
 20859      656E636F 
 20859      6465725F 
 20859      636F735F 
 20859      6F666673 
 20860              	.LASF231:
 20861 180b 4D4F544F 		.ascii	"MOTOR_TYPE_FOC\000"
 20861      525F5459 
 20861      50455F46 
 20861      4F4300
 20862              	.LASF245:
 20863 181a 4641554C 		.ascii	"FAULT_CODE_ENCODER_SPI\000"
 20863      545F434F 
 20863      44455F45 
 20863      4E434F44 
 20863      45525F53 
 20864              	.LASF319:
 20865 1831 736C5F6D 		.ascii	"sl_min_erpm\000"
 20865      696E5F65 
 20865      72706D00 
 20866              	.LASF971:
 20867 183d 72706D5F 		.ascii	"rpm_dep\000"
 20867      64657000 
 20868              	.LASF135:
 20869 1845 43435231 		.ascii	"CCR1\000"
 20869      00
 20870              	.LASF136:
 20871 184a 43435232 		.ascii	"CCR2\000"
 20871      00
 20872              	.LASF137:
 20873 184f 43435233 		.ascii	"CCR3\000"
 20873      00
 20874              	.LASF138:
 20875 1854 43435234 		.ascii	"CCR4\000"
 20875      00
 20876              	.LASF702:
 20877 1859 75736267 		.ascii	"usbgetdescriptor_t\000"
ARM GAS  /tmp/ccHCUo6g.s 			page 401


 20877      65746465 
 20877      73637269 
 20877      70746F72 
 20877      5F7400
 20878              	.LASF475:
 20879 186c 434F4D4D 		.ascii	"COMM_BM_MAP_PINS_DEFAULT\000"
 20879      5F424D5F 
 20879      4D41505F 
 20879      50494E53 
 20879      5F444546 
 20880              	.LASF873:
 20881 1885 5F657272 		.ascii	"_errno\000"
 20881      6E6F00
 20882              	.LASF387:
 20883 188c 6D5F7365 		.ascii	"m_sensor_port_mode\000"
 20883      6E736F72 
 20883      5F706F72 
 20883      745F6D6F 
 20883      646500
 20884              	.LASF681:
 20885 189f 5553425F 		.ascii	"USB_EP0_TX\000"
 20885      4550305F 
 20885      545800
 20886              	.LASF235:
 20887 18aa 4641554C 		.ascii	"FAULT_CODE_OVER_VOLTAGE\000"
 20887      545F434F 
 20887      44455F4F 
 20887      5645525F 
 20887      564F4C54 
 20888              	.LASF385:
 20889 18c2 6D5F6375 		.ascii	"m_current_backoff_gain\000"
 20889      7272656E 
 20889      745F6261 
 20889      636B6F66 
 20889      665F6761 
 20890              	.LASF838:
 20891 18d9 5F5F746D 		.ascii	"__tm_mday\000"
 20891      5F6D6461 
 20891      7900
 20892              	.LASF388:
 20893 18e3 6D5F696E 		.ascii	"m_invert_direction\000"
 20893      76657274 
 20893      5F646972 
 20893      65637469 
 20893      6F6E00
 20894              	.LASF512:
 20895 18f6 69666372 		.ascii	"ifcr\000"
 20895      00
 20896              	.LASF800:
 20897 18fb 6F75745F 		.ascii	"out_maxsize\000"
 20897      6D617873 
 20897      697A6500 
 20898              	.LASF527:
 20899 1907 73746D33 		.ascii	"stm32_gpio_t\000"
 20899      325F6770 
 20899      696F5F74 
 20899      00
ARM GAS  /tmp/ccHCUo6g.s 			page 402


 20900              	.LASF438:
 20901 1914 434F4D4D 		.ascii	"COMM_FORWARD_CAN\000"
 20901      5F464F52 
 20901      57415244 
 20901      5F43414E 
 20901      00
 20902              	.LASF150:
 20903 1925 7264796D 		.ascii	"rdymsg\000"
 20903      736700
 20904              	.LASF845:
 20905 192c 5F666E61 		.ascii	"_fnargs\000"
 20905      72677300 
 20906              	.LASF90:
 20907 1934 54445452 		.ascii	"TDTR\000"
 20907      00
 20908              	.LASF308:
 20909 1939 6C5F6D61 		.ascii	"l_max_duty\000"
 20909      785F6475 
 20909      747900
 20910              	.LASF98:
 20911 1944 43414E5F 		.ascii	"CAN_FilterRegister_TypeDef\000"
 20911      46696C74 
 20911      65725265 
 20911      67697374 
 20911      65725F54 
 20912              	.LASF427:
 20913 195f 434F4D4D 		.ascii	"COMM_EXPERIMENT_SAMPLE\000"
 20913      5F455850 
 20913      4552494D 
 20913      454E545F 
 20913      53414D50 
 20914              	.LASF739:
 20915 1976 72657376 		.ascii	"resvd58\000"
 20915      64353800 
 20916              	.LASF789:
 20917 197e 55534249 		.ascii	"USBInEndpointState\000"
 20917      6E456E64 
 20917      706F696E 
 20917      74537461 
 20917      746500
 20918              	.LASF37:
 20919 1991 705F7072 		.ascii	"p_prio\000"
 20919      696F00
 20920              	.LASF453:
 20921 1998 434F4D4D 		.ascii	"COMM_SET_MCCONF_TEMP_SETUP\000"
 20921      5F534554 
 20921      5F4D4343 
 20921      4F4E465F 
 20921      54454D50 
 20922              	.LASF197:
 20923 19b3 696F5F71 		.ascii	"io_queue\000"
 20923      75657565 
 20923      00
 20924              	.LASF535:
 20925 19bc 50414461 		.ascii	"PAData\000"
 20925      746100
 20926              	.LASF1052:
ARM GAS  /tmp/ccHCUo6g.s 			page 403


 20927 19c3 6D635F69 		.ascii	"mc_interface_get_fault\000"
 20927      6E746572 
 20927      66616365 
 20927      5F676574 
 20927      5F666175 
 20928              	.LASF15:
 20929 19da 5F5F7569 		.ascii	"__uint64_t\000"
 20929      6E743634 
 20929      5F7400
 20930              	.LASF356:
 20931 19e5 666F635F 		.ascii	"foc_sl_erpm\000"
 20931      736C5F65 
 20931      72706D00 
 20932              	.LASF830:
 20933 19f1 5F6E6578 		.ascii	"_next\000"
 20933      7400
 20934              	.LASF1033:
 20935 19f7 74696D65 		.ascii	"timeout_reset\000"
 20935      6F75745F 
 20935      72657365 
 20935      7400
 20936              	.LASF771:
 20937 1a05 72657376 		.ascii	"resvd880\000"
 20937      64383830 
 20937      00
 20938              	.LASF685:
 20939 1a0e 5553425F 		.ascii	"USB_EP0_SENDING_STS\000"
 20939      4550305F 
 20939      53454E44 
 20939      494E475F 
 20939      53545300 
 20940              	.LASF913:
 20941 1a22 5F736967 		.ascii	"_signal_buf\000"
 20941      6E616C5F 
 20941      62756600 
 20942              	.LASF620:
 20943 1a2e 70657269 		.ascii	"period_cb\000"
 20943      6F645F63 
 20943      6200
 20944              	.LASF571:
 20945 1a38 69326373 		.ascii	"i2cstate_t\000"
 20945      74617465 
 20945      5F7400
 20946              	.LASF859:
 20947 1a43 5F636F6F 		.ascii	"_cookie\000"
 20947      6B696500 
 20948              	.LASF323:
 20949 1a4b 736C5F70 		.ascii	"sl_phase_advance_at_br\000"
 20949      68617365 
 20949      5F616476 
 20949      616E6365 
 20949      5F61745F 
 20950              	.LASF687:
 20951 1a62 75736265 		.ascii	"usbep0state_t\000"
 20951      70307374 
 20951      6174655F 
 20951      7400
ARM GAS  /tmp/ccHCUo6g.s 			page 404


 20952              	.LASF102:
 20953 1a70 7354784D 		.ascii	"sTxMailBox\000"
 20953      61696C42 
 20953      6F7800
 20954              	.LASF645:
 20955 1a7b 5350495F 		.ascii	"SPI_ACTIVE\000"
 20955      41435449 
 20955      564500
 20956              	.LASF200:
 20957 1a86 715F6275 		.ascii	"q_buffer\000"
 20957      66666572 
 20957      00
 20958              	.LASF35:
 20959 1a8f 705F6E65 		.ascii	"p_next\000"
 20959      787400
 20960              	.LASF595:
 20961 1a96 49324344 		.ascii	"I2CD2\000"
 20961      3200
 20962              	.LASF472:
 20963 1a9c 434F4D4D 		.ascii	"COMM_BM_WRITE_FLASH\000"
 20963      5F424D5F 
 20963      57524954 
 20963      455F464C 
 20963      41534800 
 20964              	.LASF655:
 20965 1ab0 55534244 		.ascii	"USBDriver\000"
 20965      72697665 
 20965      7200
 20966              	.LASF772:
 20967 1aba 72657376 		.ascii	"resvd8C0\000"
 20967      64384330 
 20967      00
 20968              	.LASF810:
 20969 1ac3 55534243 		.ascii	"USBConfig\000"
 20969      6F6E6669 
 20969      6700
 20970              	.LASF715:
 20971 1acd 72657376 		.ascii	"resvdC\000"
 20971      644300
 20972              	.LASF622:
 20973 1ad4 6368616E 		.ascii	"channel\000"
 20973      6E656C00 
 20974              	.LASF1068:
 20975 1adc 73746172 		.ascii	"start\000"
 20975      7400
 20976              	.LASF1018:
 20977 1ae2 6D635F69 		.ascii	"mc_interface_set_configuration\000"
 20977      6E746572 
 20977      66616365 
 20977      5F736574 
 20977      5F636F6E 
 20978              	.LASF381:
 20979 1b01 63635F67 		.ascii	"cc_gain\000"
 20979      61696E00 
 20980              	.LASF938:
 20981 1b09 7465726D 		.ascii	"terminal_callback_struct\000"
 20981      696E616C 
ARM GAS  /tmp/ccHCUo6g.s 			page 405


 20981      5F63616C 
 20981      6C626163 
 20981      6B5F7374 
 20982              	.LASF943:
 20983 1b22 7465726D 		.ascii	"terminal_unregister_callback\000"
 20983      696E616C 
 20983      5F756E72 
 20983      65676973 
 20983      7465725F 
 20984              	.LASF817:
 20985 1b3f 4144435F 		.ascii	"ADC_curr_norm_value\000"
 20985      63757272 
 20985      5F6E6F72 
 20985      6D5F7661 
 20985      6C756500 
 20986              	.LASF633:
 20987 1b53 6F717565 		.ascii	"oqueue\000"
 20987      756500
 20988              	.LASF26:
 20989 1b5a 74726566 		.ascii	"trefs_t\000"
 20989      735F7400 
 20990              	.LASF989:
 20991 1b62 63757272 		.ascii	"curr0_offset\000"
 20991      305F6F66 
 20991      66736574 
 20991      00
 20992              	.LASF53:
 20993 1b6f 705F6D70 		.ascii	"p_mpool\000"
 20993      6F6F6C00 
 20994              	.LASF283:
 20995 1b77 70776D5F 		.ascii	"pwm_mode\000"
 20995      6D6F6465 
 20995      00
 20996              	.LASF478:
 20997 1b80 434F4D4D 		.ascii	"COMM_ERASE_BOOTLOADER_ALL_CAN\000"
 20997      5F455241 
 20997      53455F42 
 20997      4F4F544C 
 20997      4F414445 
 20998              	.LASF285:
 20999 1b9e 6D6F746F 		.ascii	"motor_type\000"
 20999      725F7479 
 20999      706500
 21000              	.LASF314:
 21001 1ba9 6C6F5F63 		.ascii	"lo_current_min\000"
 21001      75727265 
 21001      6E745F6D 
 21001      696E00
 21002              	.LASF803:
 21003 1bb8 696E5F6D 		.ascii	"in_multiplier\000"
 21003      756C7469 
 21003      706C6965 
 21003      7200
 21004              	.LASF321:
 21005 1bc6 736C5F6D 		.ascii	"sl_max_fullbreak_current_dir_change\000"
 21005      61785F66 
 21005      756C6C62 
ARM GAS  /tmp/ccHCUo6g.s 			page 406


 21005      7265616B 
 21005      5F637572 
 21006              	.LASF844:
 21007 1bea 5F6F6E5F 		.ascii	"_on_exit_args\000"
 21007      65786974 
 21007      5F617267 
 21007      7300
 21008              	.LASF24:
 21009 1bf8 746D6F64 		.ascii	"tmode_t\000"
 21009      655F7400 
 21010              	.LASF882:
 21011 1c00 5F5F636C 		.ascii	"__cleanup\000"
 21011      65616E75 
 21011      7000
 21012              	.LASF282:
 21013 1c0a 42415454 		.ascii	"BATTERY_TYPE\000"
 21013      4552595F 
 21013      54595045 
 21013      00
 21014              	.LASF476:
 21015 1c17 434F4D4D 		.ascii	"COMM_BM_MAP_PINS_NRF5X\000"
 21015      5F424D5F 
 21015      4D41505F 
 21015      50494E53 
 21015      5F4E5246 
 21016              	.LASF756:
 21017 1c2e 44535453 		.ascii	"DSTS\000"
 21017      00
 21018              	.LASF352:
 21019 1c33 666F635F 		.ascii	"foc_sl_d_current_duty\000"
 21019      736C5F64 
 21019      5F637572 
 21019      72656E74 
 21019      5F647574 
 21020              	.LASF523:
 21021 1c49 42535252 		.ascii	"BSRR\000"
 21021      00
 21022              	.LASF141:
 21023 1c4e 54494D5F 		.ascii	"TIM_TypeDef\000"
 21023      54797065 
 21023      44656600 
 21024              	.LASF808:
 21025 1c5a 72657175 		.ascii	"requests_hook_cb\000"
 21025      65737473 
 21025      5F686F6F 
 21025      6B5F6362 
 21025      00
 21026              	.LASF918:
 21027 1c6b 5F776372 		.ascii	"_wcrtomb_state\000"
 21027      746F6D62 
 21027      5F737461 
 21027      746500
 21028              	.LASF965:
 21029 1c7a 63757272 		.ascii	"current2_samp\000"
 21029      656E7432 
 21029      5F73616D 
 21029      7000
ARM GAS  /tmp/ccHCUo6g.s 			page 407


 21030              	.LASF326:
 21031 1c88 68616C6C 		.ascii	"hall_table\000"
 21031      5F746162 
 21031      6C6500
 21032              	.LASF990:
 21033 1c93 63757272 		.ascii	"curr1_offset\000"
 21033      315F6F66 
 21033      66736574 
 21033      00
 21034              	.LASF786:
 21035 1ca0 74787369 		.ascii	"txsize\000"
 21035      7A6500
 21036              	.LASF998:
 21037 1ca7 666F756E 		.ascii	"found\000"
 21037      6400
 21038              	.LASF1050:
 21039 1cad 6D635F69 		.ascii	"mc_interface_get_last_sample_adc_isr_duration\000"
 21039      6E746572 
 21039      66616365 
 21039      5F676574 
 21039      5F6C6173 
 21040              	.LASF570:
 21041 1cdb 4932435F 		.ascii	"I2C_LOCKED\000"
 21041      4C4F434B 
 21041      454400
 21042              	.LASF619:
 21043 1ce6 77696474 		.ascii	"width_cb\000"
 21043      685F6362 
 21043      00
 21044              	.LASF230:
 21045 1cef 4D4F544F 		.ascii	"MOTOR_TYPE_DC\000"
 21045      525F5459 
 21045      50455F44 
 21045      4300
 21046              	.LASF964:
 21047 1cfd 63757272 		.ascii	"current1_samp\000"
 21047      656E7431 
 21047      5F73616D 
 21047      7000
 21048              	.LASF1015:
 21049 1d0b 636F6E66 		.ascii	"conf_general_detect_motor_param\000"
 21049      5F67656E 
 21049      6572616C 
 21049      5F646574 
 21049      6563745F 
 21050              	.LASF676:
 21051 1d2b 5553425F 		.ascii	"USB_READY\000"
 21051      52454144 
 21051      5900
 21052              	.LASF641:
 21053 1d35 72656164 		.ascii	"readt\000"
 21053      7400
 21054              	.LASF342:
 21055 1d3b 666F635F 		.ascii	"foc_motor_flux_linkage\000"
 21055      6D6F746F 
 21055      725F666C 
 21055      75785F6C 
ARM GAS  /tmp/ccHCUo6g.s 			page 408


 21055      696E6B61 
 21056              	.LASF364:
 21057 1d52 6770645F 		.ascii	"gpd_buffer_interpol\000"
 21057      62756666 
 21057      65725F69 
 21057      6E746572 
 21057      706F6C00 
 21058              	.LASF728:
 21059 1d66 47525354 		.ascii	"GRSTCTL\000"
 21059      43544C00 
 21060              	.LASF492:
 21061 1d6e 766F6C74 		.ascii	"voltage_display\000"
 21061      6167655F 
 21061      64697370 
 21061      6C617900 
 21062              	.LASF322:
 21063 1d7e 736C5F63 		.ascii	"sl_cycle_int_limit\000"
 21063      79636C65 
 21063      5F696E74 
 21063      5F6C696D 
 21063      697400
 21064              	.LASF17:
 21065 1d91 696E7438 		.ascii	"int8_t\000"
 21065      5F7400
 21066              	.LASF828:
 21067 1d98 5F5F554C 		.ascii	"__ULong\000"
 21067      6F6E6700 
 21068              	.LASF81:
 21069 1da0 70616E69 		.ascii	"panic_msg\000"
 21069      635F6D73 
 21069      6700
 21070              	.LASF991:
 21071 1daa 63757272 		.ascii	"curr2_offset\000"
 21071      325F6F66 
 21071      66736574 
 21071      00
 21072              	.LASF646:
 21073 1db7 5350495F 		.ascii	"SPI_COMPLETE\000"
 21073      434F4D50 
 21073      4C455445 
 21073      00
 21074              	.LASF868:
 21075 1dc4 5F646174 		.ascii	"_data\000"
 21075      6100
 21076              	.LASF65:
 21077 1dca 725F6E65 		.ascii	"r_newer\000"
 21077      77657200 
 21078              	.LASF410:
 21079 1dd2 434F4D4D 		.ascii	"COMM_SET_CURRENT\000"
 21079      5F534554 
 21079      5F435552 
 21079      52454E54 
 21079      00
 21080              	.LASF693:
 21081 1de3 5553425F 		.ascii	"USB_EVENT_STALLED\000"
 21081      4556454E 
 21081      545F5354 
ARM GAS  /tmp/ccHCUo6g.s 			page 409


 21081      414C4C45 
 21081      4400
 21082              	.LASF241:
 21083 1df5 4641554C 		.ascii	"FAULT_CODE_GATE_DRIVER_OVER_VOLTAGE\000"
 21083      545F434F 
 21083      44455F47 
 21083      4154455F 
 21083      44524956 
 21084              	.LASF183:
 21085 1e19 63686465 		.ascii	"chdebug_t\000"
 21085      6275675F 
 21085      7400
 21086              	.LASF792:
 21087 1e23 72787369 		.ascii	"rxsize\000"
 21087      7A6500
 21088              	.LASF599:
 21089 1e2a 4943555F 		.ascii	"ICU_WAITING\000"
 21089      57414954 
 21089      494E4700 
 21090              	.LASF268:
 21091 1e36 6379636C 		.ascii	"cycle_int_limit_max\000"
 21091      655F696E 
 21091      745F6C69 
 21091      6D69745F 
 21091      6D617800 
 21092              	.LASF690:
 21093 1e4a 5553425F 		.ascii	"USB_EVENT_CONFIGURED\000"
 21093      4556454E 
 21093      545F434F 
 21093      4E464947 
 21093      55524544 
 21094              	.LASF1038:
 21095 1e5f 6D637077 		.ascii	"mcpwm_foc_set_openloop\000"
 21095      6D5F666F 
 21095      635F7365 
 21095      745F6F70 
 21095      656E6C6F 
 21096              	.LASF1016:
 21097 1e76 6D637077 		.ascii	"mcpwm_get_rpm_dep\000"
 21097      6D5F6765 
 21097      745F7270 
 21097      6D5F6465 
 21097      7000
 21098              	.LASF638:
 21099 1e88 70757474 		.ascii	"putt\000"
 21099      00
 21100              	.LASF27:
 21101 1e8d 74736C69 		.ascii	"tslices_t\000"
 21101      6365735F 
 21101      7400
 21102              	.LASF449:
 21103 1e97 434F4D4D 		.ascii	"COMM_GPD_FILL_BUFFER_INT16\000"
 21103      5F475044 
 21103      5F46494C 
 21103      4C5F4255 
 21103      46464552 
 21104              	.LASF958:
ARM GAS  /tmp/ccHCUo6g.s 			page 410


 21105 1eb2 64697231 		.ascii	"dir1\000"
 21105      00
 21106              	.LASF170:
 21107 1eb7 63685F74 		.ascii	"ch_timesize\000"
 21107      696D6573 
 21107      697A6500 
 21108              	.LASF959:
 21109 1ec3 64697238 		.ascii	"dir8\000"
 21109      00
 21110              	.LASF500:
 21111 1ec8 6379636C 		.ascii	"cycles_running\000"
 21111      65735F72 
 21111      756E6E69 
 21111      6E6700
 21112              	.LASF672:
 21113 1ed7 77615F70 		.ascii	"wa_pump\000"
 21113      756D7000 
 21114              	.LASF195:
 21115 1edf 6576656E 		.ascii	"event_source_t\000"
 21115      745F736F 
 21115      75726365 
 21115      5F7400
 21116              	.LASF742:
 21117 1eee 72657376 		.ascii	"resvd140\000"
 21117      64313430 
 21117      00
 21118              	.LASF73:
 21119 1ef7 76745F64 		.ascii	"vt_delta\000"
 21119      656C7461 
 21119      00
 21120              	.LASF707:
 21121 1f00 48435453 		.ascii	"HCTSIZ\000"
 21121      495A00
 21122              	.LASF899:
 21123 1f07 5F736565 		.ascii	"_seed\000"
 21123      6400
 21124              	.LASF281:
 21125 1f0d 42415454 		.ascii	"BATTERY_TYPE_LEAD_ACID\000"
 21125      4552595F 
 21125      54595045 
 21125      5F4C4541 
 21125      445F4143 
 21126              	.LASF862:
 21127 1f24 5F736565 		.ascii	"_seek\000"
 21127      6B00
 21128              	.LASF691:
 21129 1f2a 5553425F 		.ascii	"USB_EVENT_SUSPEND\000"
 21129      4556454E 
 21129      545F5355 
 21129      5350454E 
 21129      4400
 21130              	.LASF280:
 21131 1f3c 42415454 		.ascii	"BATTERY_TYPE_LIIRON_2_6__3_6\000"
 21131      4552595F 
 21131      54595045 
 21131      5F4C4949 
 21131      524F4E5F 
ARM GAS  /tmp/ccHCUo6g.s 			page 411


 21132              	.LASF9:
 21133 1f59 73686F72 		.ascii	"short unsigned int\000"
 21133      7420756E 
 21133      7369676E 
 21133      65642069 
 21133      6E7400
 21134              	.LASF4:
 21135 1f6c 7369676E 		.ascii	"signed char\000"
 21135      65642063 
 21135      68617200 
 21136              	.LASF1036:
 21137 1f78 636F6E66 		.ascii	"conf_general_measure_flux_linkage_openloop\000"
 21137      5F67656E 
 21137      6572616C 
 21137      5F6D6561 
 21137      73757265 
 21138              	.LASF931:
 21139 1fa3 5F5F6664 		.ascii	"__fdlibm_xopen\000"
 21139      6C69626D 
 21139      5F786F70 
 21139      656E00
 21140              	.LASF311:
 21141 1fb2 6C5F6375 		.ascii	"l_current_max_scale\000"
 21141      7272656E 
 21141      745F6D61 
 21141      785F7363 
 21141      616C6500 
 21142              	.LASF45:
 21143 1fc6 705F7072 		.ascii	"p_preempt\000"
 21143      65656D70 
 21143      7400
 21144              	.LASF293:
 21145 1fd0 6C5F6D61 		.ascii	"l_max_erpm\000"
 21145      785F6572 
 21145      706D00
 21146              	.LASF46:
 21147 1fdb 705F7469 		.ascii	"p_time\000"
 21147      6D6500
 21148              	.LASF92:
 21149 1fe2 54444852 		.ascii	"TDHR\000"
 21149      00
 21150              	.LASF684:
 21151 1fe7 5553425F 		.ascii	"USB_EP0_RX\000"
 21151      4550305F 
 21151      525800
 21152              	.LASF489:
 21153 1ff2 63757272 		.ascii	"current\000"
 21153      656E7400 
 21154              	.LASF929:
 21155 1ffa 5F5F6664 		.ascii	"__fdlibm_ieee\000"
 21155      6C69626D 
 21155      5F696565 
 21155      6500
 21156              	.LASF665:
 21157 2008 73746174 		.ascii	"status\000"
 21157      757300
 21158              	.LASF813:
ARM GAS  /tmp/ccHCUo6g.s 			page 412


 21159 200f 6D637077 		.ascii	"mcpwm_detect_voltages\000"
 21159      6D5F6465 
 21159      74656374 
 21159      5F766F6C 
 21159      74616765 
 21160              	.LASF697:
 21161 2025 55534244 		.ascii	"USBDescriptor\000"
 21161      65736372 
 21161      6970746F 
 21161      7200
 21162              	.LASF886:
 21163 2033 5F667265 		.ascii	"_freelist\000"
 21163      656C6973 
 21163      7400
 21164              	.LASF240:
 21165 203d 4641554C 		.ascii	"FAULT_CODE_OVER_TEMP_MOTOR\000"
 21165      545F434F 
 21165      44455F4F 
 21165      5645525F 
 21165      54454D50 
 21166              	.LASF666:
 21167 2058 61646472 		.ascii	"address\000"
 21167      65737300 
 21168              	.LASF228:
 21169 2060 6F75745F 		.ascii	"out_aux_mode\000"
 21169      6175785F 
 21169      6D6F6465 
 21169      00
 21170              	.LASF48:
 21171 206d 705F6D73 		.ascii	"p_msgqueue\000"
 21171      67717565 
 21171      756500
 21172              	.LASF180:
 21173 2078 63665F6F 		.ascii	"cf_off_refs\000"
 21173      66665F72 
 21173      65667300 
 21174              	.LASF348:
 21175 2084 666F635F 		.ascii	"foc_duty_dowmramp_ki\000"
 21175      64757479 
 21175      5F646F77 
 21175      6D72616D 
 21175      705F6B69 
 21176              	.LASF162:
 21177 2099 6D5F6F77 		.ascii	"m_owner\000"
 21177      6E657200 
 21178              	.LASF347:
 21179 20a1 666F635F 		.ascii	"foc_duty_dowmramp_kp\000"
 21179      64757479 
 21179      5F646F77 
 21179      6D72616D 
 21179      705F6B70 
 21180              	.LASF867:
 21181 20b6 5F6F6666 		.ascii	"_offset\000"
 21181      73657400 
 21182              	.LASF89:
 21183 20be 53797374 		.ascii	"SystemCoreClock\000"
 21183      656D436F 
ARM GAS  /tmp/ccHCUo6g.s 			page 413


 21183      7265436C 
 21183      6F636B00 
 21184              	.LASF554:
 21185 20ce 73746174 		.ascii	"state\000"
 21185      6500
 21186              	.LASF168:
 21187 20d4 63685F76 		.ascii	"ch_version\000"
 21187      65727369 
 21187      6F6E00
 21188              	.LASF852:
 21189 20df 5F5F7362 		.ascii	"__sbuf\000"
 21189      756600
 21190              	.LASF683:
 21191 20e6 5553425F 		.ascii	"USB_EP0_WAITING_STS\000"
 21191      4550305F 
 21191      57414954 
 21191      494E475F 
 21191      53545300 
 21192              	.LASF123:
 21193 20fa 4932435F 		.ascii	"I2C_TypeDef\000"
 21193      54797065 
 21193      44656600 
 21194              	.LASF96:
 21195 2106 52444852 		.ascii	"RDHR\000"
 21195      00
 21196              	.LASF896:
 21197 210b 5F6E696F 		.ascii	"_niobs\000"
 21197      627300
 21198              	.LASF901:
 21199 2112 5F616464 		.ascii	"_add\000"
 21199      00
 21200              	.LASF140:
 21201 2117 444D4152 		.ascii	"DMAR\000"
 21201      00
 21202              	.LASF83:
 21203 211c 63685F73 		.ascii	"ch_system\000"
 21203      79737465 
 21203      6D00
 21204              	.LASF872:
 21205 2126 5F726565 		.ascii	"_reent\000"
 21205      6E7400
 21206              	.LASF287:
 21207 212d 6C5F6375 		.ascii	"l_current_max\000"
 21207      7272656E 
 21207      745F6D61 
 21207      7800
 21208              	.LASF912:
 21209 213b 5F6C3634 		.ascii	"_l64a_buf\000"
 21209      615F6275 
 21209      6600
 21210              	.LASF506:
 21211 2145 64727638 		.ascii	"drv8301_faults\000"
 21211      3330315F 
 21211      6661756C 
 21211      747300
 21212              	.LASF312:
 21213 2154 6C5F6375 		.ascii	"l_current_min_scale\000"
ARM GAS  /tmp/ccHCUo6g.s 			page 414


 21213      7272656E 
 21213      745F6D69 
 21213      6E5F7363 
 21213      616C6500 
 21214              	.LASF904:
 21215 2168 5F617363 		.ascii	"_asctime_buf\000"
 21215      74696D65 
 21215      5F627566 
 21215      00
 21216              	.LASF822:
 21217 2175 5F5F7763 		.ascii	"__wch\000"
 21217      6800
 21218              	.LASF997:
 21219 217b 6D61785F 		.ascii	"max_power_loss\000"
 21219      706F7765 
 21219      725F6C6F 
 21219      737300
 21220              	.LASF825:
 21221 218a 5F5F7661 		.ascii	"__value\000"
 21221      6C756500 
 21222              	.LASF157:
 21223 2192 63685F73 		.ascii	"ch_semaphore\000"
 21223      656D6170 
 21223      686F7265 
 21223      00
 21224              	.LASF919:
 21225 219f 5F776373 		.ascii	"_wcsrtombs_state\000"
 21225      72746F6D 
 21225      62735F73 
 21225      74617465 
 21225      00
 21226              	.LASF444:
 21227 21b0 434F4D4D 		.ascii	"COMM_GPD_BUFFER_SIZE_LEFT\000"
 21227      5F475044 
 21227      5F425546 
 21227      4645525F 
 21227      53495A45 
 21228              	.LASF716:
 21229 21ca 44494550 		.ascii	"DIEPTSIZ\000"
 21229      5453495A 
 21229      00
 21230              	.LASF1001:
 21231 21d3 706F7274 		.ascii	"port_unlock\000"
 21231      5F756E6C 
 21231      6F636B00 
 21232              	.LASF58:
 21233 21df 74687265 		.ascii	"threads_queue_t\000"
 21233      6164735F 
 21233      71756575 
 21233      655F7400 
 21234              	.LASF259:
 21235 21ef 53454E53 		.ascii	"SENSOR_PORT_MODE_HALL\000"
 21235      4F525F50 
 21235      4F52545F 
 21235      4D4F4445 
 21235      5F48414C 
 21236              	.LASF1065:
ARM GAS  /tmp/ccHCUo6g.s 			page 415


 21237 2205 5F5F6664 		.ascii	"__fdlibm_version\000"
 21237      6C69626D 
 21237      5F766572 
 21237      73696F6E 
 21237      00
 21238              	.LASF816:
 21239 2216 4144435F 		.ascii	"ADC_Value\000"
 21239      56616C75 
 21239      6500
 21240              	.LASF220:
 21241 2220 464F435F 		.ascii	"FOC_SENSOR_MODE_SENSORLESS\000"
 21241      53454E53 
 21241      4F525F4D 
 21241      4F44455F 
 21241      53454E53 
 21242              	.LASF44:
 21243 223b 705F7265 		.ascii	"p_refs\000"
 21243      667300
 21244              	.LASF795:
 21245 2242 65705F6D 		.ascii	"ep_mode\000"
 21245      6F646500 
 21246              	.LASF723:
 21247 224a 73746D33 		.ascii	"stm32_otg_out_ep_t\000"
 21247      325F6F74 
 21247      675F6F75 
 21247      745F6570 
 21247      5F7400
 21248              	.LASF219:
 21249 225d 6D635F73 		.ascii	"mc_sensor_mode\000"
 21249      656E736F 
 21249      725F6D6F 
 21249      646500
 21250              	.LASF91:
 21251 226c 54444C52 		.ascii	"TDLR\000"
 21251      00
 21252              	.LASF11:
 21253 2271 6C6F6E67 		.ascii	"long int\000"
 21253      20696E74 
 21253      00
 21254              	.LASF86:
 21255 227a 6D61696E 		.ascii	"mainthread\000"
 21255      74687265 
 21255      616400
 21256              	.LASF934:
 21257 2285 5F746572 		.ascii	"_terminal_callback_struct\000"
 21257      6D696E61 
 21257      6C5F6361 
 21257      6C6C6261 
 21257      636B5F73 
 21258              	.LASF1051:
 21259 229f 6D637077 		.ascii	"mcpwm_get_kv_filtered\000"
 21259      6D5F6765 
 21259      745F6B76 
 21259      5F66696C 
 21259      74657265 
 21260              	.LASF485:
 21261 22b5 434F4D4D 		.ascii	"COMM_WRITE_NEW_APP_DATA_LZO\000"
ARM GAS  /tmp/ccHCUo6g.s 			page 416


 21261      5F575249 
 21261      54455F4E 
 21261      45575F41 
 21261      50505F44 
 21262              	.LASF662:
 21263 22d1 6570306E 		.ascii	"ep0n\000"
 21263      00
 21264              	.LASF273:
 21265 22d6 6D635F72 		.ascii	"mc_rpm_dep_struct\000"
 21265      706D5F64 
 21265      65705F73 
 21265      74727563 
 21265      7400
 21266              	.LASF161:
 21267 22e8 6D5F7175 		.ascii	"m_queue\000"
 21267      65756500 
 21268              	.LASF415:
 21269 22f0 434F4D4D 		.ascii	"COMM_SET_DETECT\000"
 21269      5F534554 
 21269      5F444554 
 21269      45435400 
 21270              	.LASF542:
 21271 2300 50484461 		.ascii	"PHData\000"
 21271      746100
 21272              	.LASF545:
 21273 2307 696F706F 		.ascii	"ioportid_t\000"
 21273      72746964 
 21273      5F7400
 21274              	.LASF405:
 21275 2312 434F4D4D 		.ascii	"COMM_JUMP_TO_BOOTLOADER\000"
 21275      5F4A554D 
 21275      505F544F 
 21275      5F424F4F 
 21275      544C4F41 
 21276              	.LASF213:
 21277 232a 434F4D4D 		.ascii	"COMM_MODE_INTEGRATE\000"
 21277      5F4D4F44 
 21277      455F494E 
 21277      54454752 
 21277      41544500 
 21278              	.LASF743:
 21279 233e 48434647 		.ascii	"HCFG\000"
 21279      00
 21280              	.LASF812:
 21281 2343 6D637077 		.ascii	"mcpwm_detect_currents\000"
 21281      6D5F6465 
 21281      74656374 
 21281      5F637572 
 21281      72656E74 
 21282              	.LASF897:
 21283 2359 5F696F62 		.ascii	"_iobs\000"
 21283      7300
 21284              	.LASF654:
 21285 235f 53504944 		.ascii	"SPID1\000"
 21285      3100
 21286              	.LASF639:
 21287 2365 67657474 		.ascii	"gett\000"
ARM GAS  /tmp/ccHCUo6g.s 			page 417


 21287      00
 21288              	.LASF936:
 21289 236a 68656C70 		.ascii	"help\000"
 21289      00
 21290              	.LASF455:
 21291 236f 434F4D4D 		.ascii	"COMM_GET_VALUES_SETUP_SELECTIVE\000"
 21291      5F474554 
 21291      5F56414C 
 21291      5545535F 
 21291      53455455 
 21292              	.LASF153:
 21293 238f 77747472 		.ascii	"wttrp\000"
 21293      7000
 21294              	.LASF203:
 21295 2395 715F7264 		.ascii	"q_rdptr\000"
 21295      70747200 
 21296              	.LASF146:
 21297 239d 636F6E74 		.ascii	"context\000"
 21297      65787400 
 21298              	.LASF636:
 21299 23a5 77726974 		.ascii	"write\000"
 21299      6500
 21300              	.LASF907:
 21301 23ab 5F72616E 		.ascii	"_rand_next\000"
 21301      645F6E65 
 21301      787400
 21302              	.LASF468:
 21303 23b6 434F4D4D 		.ascii	"COMM_TERMINAL_CMD_SYNC\000"
 21303      5F544552 
 21303      4D494E41 
 21303      4C5F434D 
 21303      445F5359 
 21304              	.LASF797:
 21305 23cd 696E5F63 		.ascii	"in_cb\000"
 21305      6200
 21306              	.LASF396:
 21307 23d3 73695F6D 		.ascii	"si_motor_poles\000"
 21307      6F746F72 
 21307      5F706F6C 
 21307      657300
 21308              	.LASF721:
 21309 23e2 444F4550 		.ascii	"DOEPINT\000"
 21309      494E5400 
 21310              	.LASF524:
 21311 23ea 4C434B52 		.ascii	"LCKR\000"
 21311      00
 21312              	.LASF334:
 21313 23ef 666F635F 		.ascii	"foc_encoder_ratio\000"
 21313      656E636F 
 21313      6465725F 
 21313      72617469 
 21313      6F00
 21314              	.LASF629:
 21315 2401 73647374 		.ascii	"sdstate_t\000"
 21315      6174655F 
 21315      7400
 21316              	.LASF21:
ARM GAS  /tmp/ccHCUo6g.s 			page 418


 21317 240b 75696E74 		.ascii	"uint32_t\000"
 21317      33325F74 
 21317      00
 21318              	.LASF510:
 21319 2414 636F6E66 		.ascii	"conf_general_permanent_nrf_found\000"
 21319      5F67656E 
 21319      6572616C 
 21319      5F706572 
 21319      6D616E65 
 21320              	.LASF437:
 21321 2435 434F4D4D 		.ascii	"COMM_GET_DECODED_CHUK\000"
 21321      5F474554 
 21321      5F444543 
 21321      4F444544 
 21321      5F434855 
 21322              	.LASF831:
 21323 244b 5F6D6178 		.ascii	"_maxwds\000"
 21323      77647300 
 21324              	.LASF701:
 21325 2453 75736272 		.ascii	"usbreqhandler_t\000"
 21325      65716861 
 21325      6E646C65 
 21325      725F7400 
 21326              	.LASF95:
 21327 2463 52444C52 		.ascii	"RDLR\000"
 21327      00
 21328              	.LASF414:
 21329 2468 434F4D4D 		.ascii	"COMM_SET_HANDBRAKE\000"
 21329      5F534554 
 21329      5F48414E 
 21329      44425241 
 21329      4B4500
 21330              	.LASF832:
 21331 247b 5F736967 		.ascii	"_sign\000"
 21331      6E00
 21332              	.LASF1029:
 21333 2481 6D635F69 		.ascii	"mc_interface_get_rpm\000"
 21333      6E746572 
 21333      66616365 
 21333      5F676574 
 21333      5F72706D 
 21334              	.LASF1002:
 21335 2496 706F7274 		.ascii	"port_lock\000"
 21335      5F6C6F63 
 21335      6B00
 21336              	.LASF1047:
 21337 24a0 73747274 		.ascii	"strtok\000"
 21337      6F6B00
 21338              	.LASF413:
 21339 24a7 434F4D4D 		.ascii	"COMM_SET_POS\000"
 21339      5F534554 
 21339      5F504F53 
 21339      00
 21340              	.LASF144:
 21341 24b4 72656761 		.ascii	"regarm_t\000"
 21341      726D5F74 
 21341      00
ARM GAS  /tmp/ccHCUo6g.s 			page 419


 21342              	.LASF30:
 21343 24bd 6576656E 		.ascii	"eventmask_t\000"
 21343      746D6173 
 21343      6B5F7400 
 21344              	.LASF688:
 21345 24c9 5553425F 		.ascii	"USB_EVENT_RESET\000"
 21345      4556454E 
 21345      545F5245 
 21345      53455400 
 21346              	.LASF987:
 21347 24d9 69715F61 		.ascii	"iq_avg\000"
 21347      766700
 21348              	.LASF109:
 21349 24e0 46464131 		.ascii	"FFA1R\000"
 21349      5200
 21350              	.LASF677:
 21351 24e6 5553425F 		.ascii	"USB_SELECTED\000"
 21351      53454C45 
 21351      43544544 
 21351      00
 21352              	.LASF494:
 21353 24f3 766F6C74 		.ascii	"voltage_gas\000"
 21353      6167655F 
 21353      67617300 
 21354              	.LASF1057:
 21355 24ff 656E636F 		.ascii	"encoder_sincos_get_signal_above_max_error_cnt\000"
 21355      6465725F 
 21355      73696E63 
 21355      6F735F67 
 21355      65745F73 
 21356              	.LASF13:
 21357 252d 6C6F6E67 		.ascii	"long unsigned int\000"
 21357      20756E73 
 21357      69676E65 
 21357      6420696E 
 21357      7400
 21358              	.LASF382:
 21359 253f 63635F72 		.ascii	"cc_ramp_step_max\000"
 21359      616D705F 
 21359      73746570 
 21359      5F6D6178 
 21359      00
 21360              	.LASF956:
 21361 2550 74315F63 		.ascii	"t1_cnt\000"
 21361      6E7400
 21362              	.LASF473:
 21363 2557 434F4D4D 		.ascii	"COMM_BM_REBOOT\000"
 21363      5F424D5F 
 21363      5245424F 
 21363      4F5400
 21364              	.LASF376:
 21365 2566 705F7069 		.ascii	"p_pid_kd\000"
 21365      645F6B64 
 21365      00
 21366              	.LASF375:
 21367 256f 705F7069 		.ascii	"p_pid_ki\000"
 21367      645F6B69 
ARM GAS  /tmp/ccHCUo6g.s 			page 420


 21367      00
 21368              	.LASF202:
 21369 2578 715F7772 		.ascii	"q_wrptr\000"
 21369      70747200 
 21370              	.LASF374:
 21371 2580 705F7069 		.ascii	"p_pid_kp\000"
 21371      645F6B70 
 21371      00
 21372              	.LASF246:
 21373 2589 4641554C 		.ascii	"FAULT_CODE_ENCODER_SINCOS_BELOW_MIN_AMPLITUDE\000"
 21373      545F434F 
 21373      44455F45 
 21373      4E434F44 
 21373      45525F53 
 21374              	.LASF602:
 21375 25b7 49435544 		.ascii	"ICUDriver\000"
 21375      72697665 
 21375      7200
 21376              	.LASF504:
 21377 25c1 636F6D6D 		.ascii	"comm_step\000"
 21377      5F737465 
 21377      7000
 21378              	.LASF486:
 21379 25cb 434F4D4D 		.ascii	"COMM_WRITE_NEW_APP_DATA_ALL_CAN_LZO\000"
 21379      5F575249 
 21379      54455F4E 
 21379      45575F41 
 21379      50505F44 
 21380              	.LASF210:
 21381 25ef 50574D5F 		.ascii	"PWM_MODE_SYNCHRONOUS\000"
 21381      4D4F4445 
 21381      5F53594E 
 21381      4348524F 
 21381      4E4F5553 
 21382              	.LASF392:
 21383 2604 6D5F626C 		.ascii	"m_bldc_f_sw_max\000"
 21383      64635F66 
 21383      5F73775F 
 21383      6D617800 
 21384              	.LASF1040:
 21385 2614 636F6D6D 		.ascii	"commands_send_packet_nrf\000"
 21385      616E6473 
 21385      5F73656E 
 21385      645F7061 
 21385      636B6574 
 21386              	.LASF278:
 21387 262d 64727638 		.ascii	"drv8301_oc_mode\000"
 21387      3330315F 
 21387      6F635F6D 
 21387      6F646500 
 21388              	.LASF360:
 21389 263d 666F635F 		.ascii	"foc_temp_comp\000"
 21389      74656D70 
 21389      5F636F6D 
 21389      7000
 21390              	.LASF558:
 21391 264b 72786675 		.ascii	"rxfull_event\000"
ARM GAS  /tmp/ccHCUo6g.s 			page 421


 21391      6C6C5F65 
 21391      76656E74 
 21391      00
 21392              	.LASF869:
 21393 2658 5F6C6F63 		.ascii	"_lock\000"
 21393      6B00
 21394              	.LASF694:
 21395 265e 75736265 		.ascii	"usbevent_t\000"
 21395      76656E74 
 21395      5F7400
 21396              	.LASF863:
 21397 2669 5F636C6F 		.ascii	"_close\000"
 21397      736500
 21398              	.LASF164:
 21399 2670 63686172 		.ascii	"char\000"
 21399      00
 21400              	.LASF553:
 21401 2675 43414E43 		.ascii	"CANConfig\000"
 21401      6F6E6669 
 21401      6700
 21402              	.LASF539:
 21403 267f 50454461 		.ascii	"PEData\000"
 21403      746100
 21404              	.LASF62:
 21405 2686 725F7175 		.ascii	"r_queue\000"
 21405      65756500 
 21406              	.LASF895:
 21407 268e 5F676C75 		.ascii	"_glue\000"
 21407      6500
 21408              	.LASF325:
 21409 2694 736C5F62 		.ascii	"sl_bemf_coupling_k\000"
 21409      656D665F 
 21409      636F7570 
 21409      6C696E67 
 21409      5F6B00
 21410              	.LASF1059:
 21411 26a7 656E636F 		.ascii	"encoder_spi_get_val\000"
 21411      6465725F 
 21411      7370695F 
 21411      6765745F 
 21411      76616C00 
 21412              	.LASF993:
 21413 26bb 656E6162 		.ascii	"enabled\000"
 21413      6C656400 
 21414              	.LASF306:
 21415 26c3 6C5F7465 		.ascii	"l_temp_accel_dec\000"
 21415      6D705F61 
 21415      6363656C 
 21415      5F646563 
 21415      00
 21416              	.LASF404:
 21417 26d4 434F4D4D 		.ascii	"COMM_FW_VERSION\000"
 21417      5F46575F 
 21417      56455253 
 21417      494F4E00 
 21418              	.LASF634:
 21419 26e4 75736172 		.ascii	"usart\000"
ARM GAS  /tmp/ccHCUo6g.s 			page 422


 21419      7400
 21420              	.LASF946:
 21421 26ea 7465726D 		.ascii	"terminal_add_fault_data\000"
 21421      696E616C 
 21421      5F616464 
 21421      5F666175 
 21421      6C745F64 
 21422              	.LASF891:
 21423 2702 5F736967 		.ascii	"_sig_func\000"
 21423      5F66756E 
 21423      6300
 21424              	.LASF205:
 21425 270c 715F6C69 		.ascii	"q_link\000"
 21425      6E6B00
 21426              	.LASF614:
 21427 2713 4943555F 		.ascii	"ICU_CHANNEL_1\000"
 21427      4348414E 
 21427      4E454C5F 
 21427      3100
 21428              	.LASF966:
 21429 2721 6D696E5F 		.ascii	"min_rpm\000"
 21429      72706D00 
 21430              	.LASF829:
 21431 2729 5F426967 		.ascii	"_Bigint\000"
 21431      696E7400 
 21432              	.LASF304:
 21433 2731 6C5F7465 		.ascii	"l_temp_motor_start\000"
 21433      6D705F6D 
 21433      6F746F72 
 21433      5F737461 
 21433      727400
 21434              	.LASF467:
 21435 2744 434F4D4D 		.ascii	"COMM_APP_DISABLE_OUTPUT\000"
 21435      5F415050 
 21435      5F444953 
 21435      41424C45 
 21435      5F4F5554 
 21436              	.LASF730:
 21437 275c 47494E54 		.ascii	"GINTMSK\000"
 21437      4D534B00 
 21438              	.LASF400:
 21439 2764 73695F62 		.ascii	"si_battery_cells\000"
 21439      61747465 
 21439      72795F63 
 21439      656C6C73 
 21439      00
 21440              	.LASF606:
 21441 2775 69637563 		.ascii	"icucallback_t\000"
 21441      616C6C62 
 21441      61636B5F 
 21441      7400
 21442              	.LASF735:
 21443 2783 484E5054 		.ascii	"HNPTXSTS\000"
 21443      58535453 
 21443      00
 21444              	.LASF1009:
 21445 278c 63684865 		.ascii	"chHeapStatus\000"
ARM GAS  /tmp/ccHCUo6g.s 			page 423


 21445      61705374 
 21445      61747573 
 21445      00
 21446              	.LASF992:
 21447 2799 6572706D 		.ascii	"erpm\000"
 21447      00
 21448              	.LASF488:
 21449 279e 6661756C 		.ascii	"fault\000"
 21449      7400
 21450              	.LASF667:
 21451 27a4 636F6E66 		.ascii	"configuration\000"
 21451      69677572 
 21451      6174696F 
 21451      6E00
 21452              	.LASF890:
 21453 27b2 5F617465 		.ascii	"_atexit0\000"
 21453      78697430 
 21453      00
 21454              	.LASF534:
 21455 27bb 73746D33 		.ascii	"stm32_gpio_setup_t\000"
 21455      325F6770 
 21455      696F5F73 
 21455      65747570 
 21455      5F7400
 21456              	.LASF611:
 21457 27ce 4943555F 		.ascii	"ICU_INPUT_ACTIVE_LOW\000"
 21457      494E5055 
 21457      545F4143 
 21457      54495645 
 21457      5F4C4F57 
 21458              	.LASF263:
 21459 27e3 53454E53 		.ascii	"SENSOR_PORT_MODE_SINCOS\000"
 21459      4F525F50 
 21459      4F52545F 
 21459      4D4F4445 
 21459      5F53494E 
 21460              	.LASF288:
 21461 27fb 6C5F6375 		.ascii	"l_current_min\000"
 21461      7272656E 
 21461      745F6D69 
 21461      6E00
 21462              	.LASF517:
 21463 2809 5F73746D 		.ascii	"_stm32_dma_streams\000"
 21463      33325F64 
 21463      6D615F73 
 21463      74726561 
 21463      6D7300
 21464              	.LASF994:
 21465 281c 62756666 		.ascii	"buffer\000"
 21465      657200
 21466              	.LASF914:
 21467 2823 5F676574 		.ascii	"_getdate_err\000"
 21467      64617465 
 21467      5F657272 
 21467      00
 21468              	.LASF499:
 21469 2830 74616368 		.ascii	"tacho\000"
ARM GAS  /tmp/ccHCUo6g.s 			page 424


 21469      6F00
 21470              	.LASF613:
 21471 2836 69637566 		.ascii	"icufreq_t\000"
 21471      7265715F 
 21471      7400
 21472              	.LASF834:
 21473 2840 5F5F746D 		.ascii	"__tm\000"
 21473      00
 21474              	.LASF236:
 21475 2845 4641554C 		.ascii	"FAULT_CODE_UNDER_VOLTAGE\000"
 21475      545F434F 
 21475      44455F55 
 21475      4E444552 
 21475      5F564F4C 
 21476              	.LASF1046:
 21477 285e 636F6E66 		.ascii	"conf_general_detect_apply_all_foc_can\000"
 21477      5F67656E 
 21477      6572616C 
 21477      5F646574 
 21477      6563745F 
 21478              	.LASF431:
 21479 2884 434F4D4D 		.ascii	"COMM_DETECT_ENCODER\000"
 21479      5F444554 
 21479      4543545F 
 21479      454E434F 
 21479      44455200 
 21480              	.LASF526:
 21481 2898 41465248 		.ascii	"AFRH\000"
 21481      00
 21482              	.LASF419:
 21483 289d 434F4D4D 		.ascii	"COMM_GET_MCCONF_DEFAULT\000"
 21483      5F474554 
 21483      5F4D4343 
 21483      4F4E465F 
 21483      44454641 
 21484              	.LASF443:
 21485 28b5 434F4D4D 		.ascii	"COMM_GPD_BUFFER_NOTIFY\000"
 21485      5F475044 
 21485      5F425546 
 21485      4645525F 
 21485      4E4F5449 
 21486              	.LASF1028:
 21487 28cc 6D637077 		.ascii	"mcpwm_foc_get_vq\000"
 21487      6D5F666F 
 21487      635F6765 
 21487      745F7671 
 21487      00
 21488              	.LASF408:
 21489 28dd 434F4D4D 		.ascii	"COMM_GET_VALUES\000"
 21489      5F474554 
 21489      5F56414C 
 21489      55455300 
 21490              	.LASF32:
 21491 28ed 636E745F 		.ascii	"cnt_t\000"
 21491      7400
 21492              	.LASF399:
 21493 28f3 73695F62 		.ascii	"si_battery_type\000"
ARM GAS  /tmp/ccHCUo6g.s 			page 425


 21493      61747465 
 21493      72795F74 
 21493      79706500 
 21494              	.LASF1010:
 21495 2903 6368436F 		.ascii	"chCoreGetStatusX\000"
 21495      72654765 
 21495      74537461 
 21495      74757358 
 21495      00
 21496              	.LASF682:
 21497 2914 5553425F 		.ascii	"USB_EP0_WAITING_TX0\000"
 21497      4550305F 
 21497      57414954 
 21497      494E475F 
 21497      54583000 
 21498              	.LASF498:
 21499 2928 64757479 		.ascii	"duty\000"
 21499      00
 21500              	.LASF234:
 21501 292d 4641554C 		.ascii	"FAULT_CODE_NONE\000"
 21501      545F434F 
 21501      44455F4E 
 21501      4F4E4500 
 21502              	.LASF369:
 21503 293d 735F7069 		.ascii	"s_pid_ki\000"
 21503      645F6B69 
 21503      00
 21504              	.LASF711:
 21505 2946 73746D33 		.ascii	"stm32_otg_host_chn_t\000"
 21505      325F6F74 
 21505      675F686F 
 21505      73745F63 
 21505      686E5F74 
 21506              	.LASF327:
 21507 295b 68616C6C 		.ascii	"hall_sl_erpm\000"
 21507      5F736C5F 
 21507      6572706D 
 21507      00
 21508              	.LASF368:
 21509 2968 735F7069 		.ascii	"s_pid_kp\000"
 21509      645F6B70 
 21509      00
 21510              	.LASF425:
 21511 2971 434F4D4D 		.ascii	"COMM_PRINT\000"
 21511      5F505249 
 21511      4E5400
 21512              	.LASF525:
 21513 297c 4146524C 		.ascii	"AFRL\000"
 21513      00
 21514              	.LASF317:
 21515 2981 6C6F5F63 		.ascii	"lo_current_motor_max_now\000"
 21515      75727265 
 21515      6E745F6D 
 21515      6F746F72 
 21515      5F6D6178 
 21516              	.LASF954:
 21517 299a 73697A65 		.ascii	"size\000"
ARM GAS  /tmp/ccHCUo6g.s 			page 426


 21517      00
 21518              	.LASF495:
 21519 299f 766F6C74 		.ascii	"voltage_recu\000"
 21519      6167655F 
 21519      72656375 
 21519      00
 21520              	.LASF926:
 21521 29ac 5F696D70 		.ascii	"_impure_ptr\000"
 21521      7572655F 
 21521      70747200 
 21522              	.LASF181:
 21523 29b8 63665F6F 		.ascii	"cf_off_preempt\000"
 21523      66665F70 
 21523      7265656D 
 21523      707400
 21524              	.LASF1064:
 21525 29c7 2F6D6564 		.ascii	"/media/sf_scuddy_spv2_113\000"
 21525      69612F73 
 21525      665F7363 
 21525      75646479 
 21525      5F737076 
 21526              	.LASF1030:
 21527 29e1 6D635F69 		.ascii	"mc_interface_get_tot_current_directional\000"
 21527      6E746572 
 21527      66616365 
 21527      5F676574 
 21527      5F746F74 
 21528              	.LASF720:
 21529 2a0a 444F4550 		.ascii	"DOEPCTL\000"
 21529      43544C00 
 21530              	.LASF446:
 21531 2a12 434F4D4D 		.ascii	"COMM_GPD_OUTPUT_SAMPLE\000"
 21531      5F475044 
 21531      5F4F5554 
 21531      5055545F 
 21531      53414D50 
 21532              	.LASF706:
 21533 2a29 4843494E 		.ascii	"HCINTMSK\000"
 21533      544D534B 
 21533      00
 21534              	.LASF864:
 21535 2a32 5F756275 		.ascii	"_ubuf\000"
 21535      6600
 21536              	.LASF349:
 21537 2a38 666F635F 		.ascii	"foc_openloop_rpm\000"
 21537      6F70656E 
 21537      6C6F6F70 
 21537      5F72706D 
 21537      00
 21538              	.LASF353:
 21539 2a49 666F635F 		.ascii	"foc_sl_d_current_factor\000"
 21539      736C5F64 
 21539      5F637572 
 21539      72656E74 
 21539      5F666163 
 21540              	.LASF909:
 21541 2a61 5F6D626C 		.ascii	"_mblen_state\000"
ARM GAS  /tmp/ccHCUo6g.s 			page 427


 21541      656E5F73 
 21541      74617465 
 21541      00
 21542              	.LASF892:
 21543 2a6e 5F5F7367 		.ascii	"__sglue\000"
 21543      6C756500 
 21544              	.LASF925:
 21545 2a76 5F5F6C6F 		.ascii	"__locale_t\000"
 21545      63616C65 
 21545      5F7400
 21546              	.LASF346:
 21547 2a81 666F635F 		.ascii	"foc_pll_ki\000"
 21547      706C6C5F 
 21547      6B6900
 21548              	.LASF345:
 21549 2a8c 666F635F 		.ascii	"foc_pll_kp\000"
 21549      706C6C5F 
 21549      6B7000
 21550              	.LASF754:
 21551 2a97 44434647 		.ascii	"DCFG\000"
 21551      00
 21552              	.LASF487:
 21553 2a9c 434F4D4D 		.ascii	"COMM_BM_WRITE_FLASH_LZO\000"
 21553      5F424D5F 
 21553      57524954 
 21553      455F464C 
 21553      4153485F 
 21554              	.LASF1025:
 21555 2ab4 6D637077 		.ascii	"mcpwm_foc_measure_res_ind\000"
 21555      6D5F666F 
 21555      635F6D65 
 21555      61737572 
 21555      655F7265 
 21556              	.LASF600:
 21557 2ace 4943555F 		.ascii	"ICU_ACTIVE\000"
 21557      41435449 
 21557      564500
 21558              	.LASF973:
 21559 2ad9 72617469 		.ascii	"ratio\000"
 21559      6F00
 21560              	.LASF1035:
 21561 2adf 6D635F69 		.ascii	"mc_interface_release_motor\000"
 21561      6E746572 
 21561      66616365 
 21561      5F72656C 
 21561      65617365 
 21562              	.LASF68:
 21563 2afa 76746675 		.ascii	"vtfunc_t\000"
 21563      6E635F74 
 21563      00
 21564              	.LASF97:
 21565 2b03 43414E5F 		.ascii	"CAN_FIFOMailBox_TypeDef\000"
 21565      4649464F 
 21565      4D61696C 
 21565      426F785F 
 21565      54797065 
 21566              	.LASF152:
ARM GAS  /tmp/ccHCUo6g.s 			page 428


 21567 2b1b 77746F62 		.ascii	"wtobjp\000"
 21567      6A7000
 21568              	.LASF820:
 21569 2b22 5F66706F 		.ascii	"_fpos_t\000"
 21569      735F7400 
 21570              	.LASF857:
 21571 2b2a 5F66696C 		.ascii	"_file\000"
 21571      6500
 21572              	.LASF271:
 21573 2b30 636F6D6D 		.ascii	"comms\000"
 21573      7300
 21574              	.LASF275:
 21575 2b36 44525638 		.ascii	"DRV8301_OC_LATCH_SHUTDOWN\000"
 21575      3330315F 
 21575      4F435F4C 
 21575      41544348 
 21575      5F534855 
 21576              	.LASF52:
 21577 2b50 705F7265 		.ascii	"p_realprio\000"
 21577      616C7072 
 21577      696F00
 21578              	.LASF439:
 21579 2b5b 434F4D4D 		.ascii	"COMM_SET_CHUCK_DATA\000"
 21579      5F534554 
 21579      5F434855 
 21579      434B5F44 
 21579      41544100 
 21580              	.LASF976:
 21581 2b6f 73616D70 		.ascii	"samp\000"
 21581      00
 21582              	.LASF204:
 21583 2b74 715F6E6F 		.ascii	"q_notify\000"
 21583      74696679 
 21583      00
 21584              	.LASF155:
 21585 2b7d 77746D74 		.ascii	"wtmtxp\000"
 21585      787000
 21586              	.LASF233:
 21587 2b84 6D635F6D 		.ascii	"mc_motor_type\000"
 21587      6F746F72 
 21587      5F747970 
 21587      6500
 21588              	.LASF855:
 21589 2b92 5F5F7346 		.ascii	"__sFILE\000"
 21589      494C4500 
 21590              	.LASF1042:
 21591 2b9a 6D637077 		.ascii	"mcpwm_foc_set_openloop_phase\000"
 21591      6D5F666F 
 21591      635F7365 
 21591      745F6F70 
 21591      656E6C6F 
 21592              	.LASF928:
 21593 2bb7 646F7562 		.ascii	"double\000"
 21593      6C6500
 21594              	.LASF851:
 21595 2bbe 5F666E73 		.ascii	"_fns\000"
 21595      00
ARM GAS  /tmp/ccHCUo6g.s 			page 429


 21596              	.LASF969:
 21597 2bc3 636F7570 		.ascii	"coupling_k\000"
 21597      6C696E67 
 21597      5F6B00
 21598              	.LASF927:
 21599 2bce 5F676C6F 		.ascii	"_global_impure_ptr\000"
 21599      62616C5F 
 21599      696D7075 
 21599      72655F70 
 21599      747200
 21600              	.LASF1069:
 21601 2be1 63685654 		.ascii	"chVTGetSystemTimeX\000"
 21601      47657453 
 21601      79737465 
 21601      6D54696D 
 21601      655800
 21602              	.LASF421:
 21603 2bf4 434F4D4D 		.ascii	"COMM_GET_APPCONF\000"
 21603      5F474554 
 21603      5F415050 
 21603      434F4E46 
 21603      00
 21604              	.LASF794:
 21605 2c05 5553424F 		.ascii	"USBOutEndpointState\000"
 21605      7574456E 
 21605      64706F69 
 21605      6E745374 
 21605      61746500 
 21606              	.LASF1072:
 21607 2c19 5F5F6275 		.ascii	"__builtin_memcpy\000"
 21607      696C7469 
 21607      6E5F6D65 
 21607      6D637079 
 21607      00
 21608              	.LASF750:
 21609 2c2a 72657376 		.ascii	"resvd41C\000"
 21609      64343143 
 21609      00
 21610              	.LASF305:
 21611 2c33 6C5F7465 		.ascii	"l_temp_motor_end\000"
 21611      6D705F6D 
 21611      6F746F72 
 21611      5F656E64 
 21611      00
 21612              	.LASF826:
 21613 2c44 5F6D6273 		.ascii	"_mbstate_t\000"
 21613      74617465 
 21613      5F7400
 21614              	.LASF920:
 21615 2c4f 5F685F65 		.ascii	"_h_errno\000"
 21615      72726E6F 
 21615      00
 21616              	.LASF361:
 21617 2c58 666F635F 		.ascii	"foc_temp_comp_base_temp\000"
 21617      74656D70 
 21617      5F636F6D 
 21617      705F6261 
ARM GAS  /tmp/ccHCUo6g.s 			page 430


 21617      73655F74 
 21618              	.LASF94:
 21619 2c70 52445452 		.ascii	"RDTR\000"
 21619      00
 21620              	.LASF853:
 21621 2c75 5F626173 		.ascii	"_base\000"
 21621      6500
 21622              	.LASF286:
 21623 2c7b 73656E73 		.ascii	"sensor_mode\000"
 21623      6F725F6D 
 21623      6F646500 
 21624              	.LASF951:
 21625 2c87 61726776 		.ascii	"argv\000"
 21625      00
 21626              	.LASF216:
 21627 2c8c 53454E53 		.ascii	"SENSOR_MODE_SENSORLESS\000"
 21627      4F525F4D 
 21627      4F44455F 
 21627      53454E53 
 21627      4F524C45 
 21628              	.LASF61:
 21629 2ca3 63685F72 		.ascii	"ch_ready_list\000"
 21629      65616479 
 21629      5F6C6973 
 21629      7400
 21630              	.LASF1067:
 21631 2cb1 63685654 		.ascii	"chVTTimeElapsedSinceX\000"
 21631      54696D65 
 21631      456C6170 
 21631      73656453 
 21631      696E6365 
 21632              	.LASF522:
 21633 2cc7 50555044 		.ascii	"PUPDR\000"
 21633      5200
 21634              	.LASF10:
 21635 2ccd 5F5F696E 		.ascii	"__int32_t\000"
 21635      7433325F 
 21635      7400
 21636              	.LASF12:
 21637 2cd7 5F5F7569 		.ascii	"__uint32_t\000"
 21637      6E743332 
 21637      5F7400
 21638              	.LASF604:
 21639 2ce2 77636372 		.ascii	"wccrp\000"
 21639      7000
 21640              	.LASF80:
 21641 2ce8 63685F73 		.ascii	"ch_system_debug\000"
 21641      79737465 
 21641      6D5F6465 
 21641      62756700 
 21642              	.LASF503:
 21643 2cf8 74696D5F 		.ascii	"tim_top\000"
 21643      746F7000 
 21644              	.LASF947:
 21645 2d00 64617461 		.ascii	"data\000"
 21645      00
 21646              	.LASF761:
ARM GAS  /tmp/ccHCUo6g.s 			page 431


 21647 2d05 4441494E 		.ascii	"DAINTMSK\000"
 21647      544D534B 
 21647      00
 21648              	.LASF199:
 21649 2d0e 715F636F 		.ascii	"q_counter\000"
 21649      756E7465 
 21649      7200
 21650              	.LASF680:
 21651 2d18 5553425F 		.ascii	"USB_EP0_WAITING_SETUP\000"
 21651      4550305F 
 21651      57414954 
 21651      494E475F 
 21651      53455455 
 21652              	.LASF848:
 21653 2d2e 5F69735F 		.ascii	"_is_cxa\000"
 21653      63786100 
 21654              	.LASF483:
 21655 2d36 434F4D4D 		.ascii	"COMM_GET_DECODED_BALANCE\000"
 21655      5F474554 
 21655      5F444543 
 21655      4F444544 
 21655      5F42414C 
 21656              	.LASF597:
 21657 2d4f 4943555F 		.ascii	"ICU_STOP\000"
 21657      53544F50 
 21657      00
 21658              	.LASF532:
 21659 2d58 6166726C 		.ascii	"afrl\000"
 21659      00
 21660              	.LASF784:
 21661 2d5d 71756575 		.ascii	"queue\000"
 21661      6500
 21662              	.LASF460:
 21663 2d63 434F4D4D 		.ascii	"COMM_EXT_NRF_SET_ENABLED\000"
 21663      5F455854 
 21663      5F4E5246 
 21663      5F534554 
 21663      5F454E41 
 21664              	.LASF391:
 21665 2d7c 6D5F626C 		.ascii	"m_bldc_f_sw_min\000"
 21665      64635F66 
 21665      5F73775F 
 21665      6D696E00 
 21666              	.LASF663:
 21667 2d8c 65703065 		.ascii	"ep0endcb\000"
 21667      6E646362 
 21667      00
 21668              	.LASF952:
 21669 2d95 6D63636F 		.ascii	"mcconf\000"
 21669      6E6600
 21670              	.LASF514:
 21671 2d9c 73656C66 		.ascii	"selfindex\000"
 21671      696E6465 
 21671      7800
 21672              	.LASF733:
 21673 2da6 47525846 		.ascii	"GRXFSIZ\000"
 21673      53495A00 
ARM GAS  /tmp/ccHCUo6g.s 			page 432


 21674              	.LASF185:
 21675 2dae 6D757465 		.ascii	"mutex_t\000"
 21675      785F7400 
 21676              	.LASF445:
 21677 2db6 434F4D4D 		.ascii	"COMM_GPD_FILL_BUFFER\000"
 21677      5F475044 
 21677      5F46494C 
 21677      4C5F4255 
 21677      46464552 
 21678              	.LASF885:
 21679 2dcb 5F703573 		.ascii	"_p5s\000"
 21679      00
 21680              	.LASF50:
 21681 2dd0 705F6570 		.ascii	"p_epending\000"
 21681      656E6469 
 21681      6E6700
 21682              	.LASF242:
 21683 2ddb 4641554C 		.ascii	"FAULT_CODE_GATE_DRIVER_UNDER_VOLTAGE\000"
 21683      545F434F 
 21683      44455F47 
 21683      4154455F 
 21683      44524956 
 21684              	.LASF519:
 21685 2e00 4D4F4445 		.ascii	"MODER\000"
 21685      5200
 21686              	.LASF603:
 21687 2e06 636C6F63 		.ascii	"clock\000"
 21687      6B00
 21688              	.LASF937:
 21689 2e0c 6172675F 		.ascii	"arg_names\000"
 21689      6E616D65 
 21689      7300
 21690              	.LASF470:
 21691 2e16 434F4D4D 		.ascii	"COMM_BM_CONNECT\000"
 21691      5F424D5F 
 21691      434F4E4E 
 21691      45435400 
 21692              	.LASF350:
 21693 2e26 666F635F 		.ascii	"foc_sl_openloop_hyst\000"
 21693      736C5F6F 
 21693      70656E6C 
 21693      6F6F705F 
 21693      68797374 
 21694              	.LASF101:
 21695 2e3b 52455345 		.ascii	"RESERVED0\000"
 21695      52564544 
 21695      3000
 21696              	.LASF104:
 21697 2e45 52455345 		.ascii	"RESERVED1\000"
 21697      52564544 
 21697      3100
 21698              	.LASF106:
 21699 2e4f 52455345 		.ascii	"RESERVED2\000"
 21699      52564544 
 21699      3200
 21700              	.LASF108:
 21701 2e59 52455345 		.ascii	"RESERVED3\000"
ARM GAS  /tmp/ccHCUo6g.s 			page 433


 21701      52564544 
 21701      3300
 21702              	.LASF110:
 21703 2e63 52455345 		.ascii	"RESERVED4\000"
 21703      52564544 
 21703      3400
 21704              	.LASF112:
 21705 2e6d 52455345 		.ascii	"RESERVED5\000"
 21705      52564544 
 21705      3500
 21706              	.LASF805:
 21707 2e77 55534245 		.ascii	"USBEndpointConfig\000"
 21707      6E64706F 
 21707      696E7443 
 21707      6F6E6669 
 21707      6700
 21708              	.LASF557:
 21709 2e89 72787175 		.ascii	"rxqueue\000"
 21709      65756500 
 21710              	.LASF459:
 21711 2e91 434F4D4D 		.ascii	"COMM_EXT_NRF_ESB_RX_DATA\000"
 21711      5F455854 
 21711      5F4E5246 
 21711      5F455342 
 21711      5F52585F 
 21712              	.LASF752:
 21713 2eaa 72657376 		.ascii	"resvd444\000"
 21713      64343434 
 21713      00
 21714              	.LASF546:
 21715 2eb3 70616C5F 		.ascii	"pal_default_config\000"
 21715      64656661 
 21715      756C745F 
 21715      636F6E66 
 21715      696700
 21716              	.LASF436:
 21717 2ec6 434F4D4D 		.ascii	"COMM_GET_DECODED_ADC\000"
 21717      5F474554 
 21717      5F444543 
 21717      4F444544 
 21717      5F414443 
 21718              	.LASF420:
 21719 2edb 434F4D4D 		.ascii	"COMM_SET_APPCONF\000"
 21719      5F534554 
 21719      5F415050 
 21719      434F4E46 
 21719      00
 21720              	.LASF189:
 21721 2eec 656C5F6C 		.ascii	"el_listener\000"
 21721      69737465 
 21721      6E657200 
 21722              	.LASF783:
 21723 2ef8 6C696E65 		.ascii	"linear\000"
 21723      617200
 21724              	.LASF491:
 21725 2eff 766F6C74 		.ascii	"voltage\000"
 21725      61676500 
ARM GAS  /tmp/ccHCUo6g.s 			page 434


 21726              	.LASF315:
 21727 2f07 6C6F5F69 		.ascii	"lo_in_current_max\000"
 21727      6E5F6375 
 21727      7272656E 
 21727      745F6D61 
 21727      7800
 21728              	.LASF1027:
 21729 2f19 63685468 		.ascii	"chThdSleep\000"
 21729      64536C65 
 21729      657000
 21730              	.LASF428:
 21731 2f24 434F4D4D 		.ascii	"COMM_DETECT_MOTOR_PARAM\000"
 21731      5F444554 
 21731      4543545F 
 21731      4D4F544F 
 21731      525F5041 
 21732              	.LASF960:
 21733 2f3c 64757479 		.ascii	"duty1\000"
 21733      3100
 21734              	.LASF961:
 21735 2f42 64757479 		.ascii	"duty2\000"
 21735      3200
 21736              	.LASF962:
 21737 2f48 64757479 		.ascii	"duty3\000"
 21737      3300
 21738              	.LASF609:
 21739 2f4e 73746D33 		.ascii	"stm32_tim_t\000"
 21739      325F7469 
 21739      6D5F7400 
 21740              	.LASF953:
 21741 2f5a 6D63636F 		.ascii	"mcconf_old\000"
 21741      6E665F6F 
 21741      6C6400
 21742              	.LASF255:
 21743 2f65 4641554C 		.ascii	"FAULT_CODE_THROTTLE_UNDERVOLTAGE\000"
 21743      545F434F 
 21743      44455F54 
 21743      48524F54 
 21743      544C455F 
 21744              	.LASF63:
 21745 2f86 725F7072 		.ascii	"r_prio\000"
 21745      696F00
 21746              	.LASF669:
 21747 2f8d 706D6E65 		.ascii	"pmnext\000"
 21747      787400
 21748              	.LASF354:
 21749 2f94 666F635F 		.ascii	"foc_sensor_mode\000"
 21749      73656E73 
 21749      6F725F6D 
 21749      6F646500 
 21750              	.LASF1061:
 21751 2fa4 656E636F 		.ascii	"encoder_spi_get_error_rate\000"
 21751      6465725F 
 21751      7370695F 
 21751      6765745F 
 21751      6572726F 
 21752              	.LASF88:
ARM GAS  /tmp/ccHCUo6g.s 			page 435


 21753 2fbf 49544D5F 		.ascii	"ITM_RxBuffer\000"
 21753      52784275 
 21753      66666572 
 21753      00
 21754              	.LASF615:
 21755 2fcc 4943555F 		.ascii	"ICU_CHANNEL_2\000"
 21755      4348414E 
 21755      4E454C5F 
 21755      3200
 21756              	.LASF222:
 21757 2fda 464F435F 		.ascii	"FOC_SENSOR_MODE_HALL\000"
 21757      53454E53 
 21757      4F525F4D 
 21757      4F44455F 
 21757      48414C4C 
 21758              	.LASF16:
 21759 2fef 6C6F6E67 		.ascii	"long long unsigned int\000"
 21759      206C6F6E 
 21759      6720756E 
 21759      7369676E 
 21759      65642069 
 21760              	.LASF148:
 21761 3006 6F666673 		.ascii	"offset\000"
 21761      657400
 21762              	.LASF377:
 21763 300d 705F7069 		.ascii	"p_pid_kd_filter\000"
 21763      645F6B64 
 21763      5F66696C 
 21763      74657200 
 21764              	.LASF331:
 21765 301d 666F635F 		.ascii	"foc_dt_us\000"
 21765      64745F75 
 21765      7300
 21766              	.LASF359:
 21767 3027 666F635F 		.ascii	"foc_sat_comp\000"
 21767      7361745F 
 21767      636F6D70 
 21767      00
 21768              	.LASF252:
 21769 3034 4641554C 		.ascii	"FAULT_CODE_UNBALANCED_CURRENTS\000"
 21769      545F434F 
 21769      44455F55 
 21769      4E42414C 
 21769      414E4345 
 21770              	.LASF1070:
 21771 3053 63685379 		.ascii	"chSysUnlock\000"
 21771      73556E6C 
 21771      6F636B00 
 21772              	.LASF115:
 21773 305f 4E445452 		.ascii	"NDTR\000"
 21773      00
 21774              	.LASF194:
 21775 3064 65735F6E 		.ascii	"es_next\000"
 21775      65787400 
 21776              	.LASF906:
 21777 306c 5F67616D 		.ascii	"_gamma_signgam\000"
 21777      6D615F73 
ARM GAS  /tmp/ccHCUo6g.s 			page 436


 21777      69676E67 
 21777      616D00
 21778              	.LASF718:
 21779 307b 72657376 		.ascii	"resvd1C\000"
 21779      64314300 
 21780              	.LASF87:
 21781 3083 69646C65 		.ascii	"idle_thread_wa\000"
 21781      5F746872 
 21781      6561645F 
 21781      776100
 21782              	.LASF714:
 21783 3092 44494550 		.ascii	"DIEPINT\000"
 21783      494E5400 
 21784              	.LASF601:
 21785 309a 69637573 		.ascii	"icustate_t\000"
 21785      74617465 
 21785      5F7400
 21786              	.LASF129:
 21787 30a5 5350495F 		.ascii	"SPI_TypeDef\000"
 21787      54797065 
 21787      44656600 
 21788              	.LASF74:
 21789 30b1 76745F66 		.ascii	"vt_func\000"
 21789      756E6300 
 21790              	.LASF130:
 21791 30b9 534D4352 		.ascii	"SMCR\000"
 21791      00
 21792              	.LASF505:
 21793 30be 74656D70 		.ascii	"temperature\000"
 21793      65726174 
 21793      75726500 
 21794              	.LASF759:
 21795 30ca 444F4550 		.ascii	"DOEPMSK\000"
 21795      4D534B00 
 21796              	.LASF411:
 21797 30d2 434F4D4D 		.ascii	"COMM_SET_CURRENT_BRAKE\000"
 21797      5F534554 
 21797      5F435552 
 21797      52454E54 
 21797      5F425241 
 21798              	.LASF70:
 21799 30e9 63685F76 		.ascii	"ch_virtual_timer\000"
 21799      69727475 
 21799      616C5F74 
 21799      696D6572 
 21799      00
 21800              	.LASF43:
 21801 30fa 705F666C 		.ascii	"p_flags\000"
 21801      61677300 
 21802              	.LASF417:
 21803 3102 434F4D4D 		.ascii	"COMM_SET_MCCONF\000"
 21803      5F534554 
 21803      5F4D4343 
 21803      4F4E4600 
 21804              	.LASF156:
 21805 3112 65776D61 		.ascii	"ewmask\000"
 21805      736B00
ARM GAS  /tmp/ccHCUo6g.s 			page 437


 21806              	.LASF1045:
 21807 3119 6D635F69 		.ascii	"mc_interface_get_configuration\000"
 21807      6E746572 
 21807      66616365 
 21807      5F676574 
 21807      5F636F6E 
 21808              	.LASF279:
 21809 3138 42415454 		.ascii	"BATTERY_TYPE_LIION_3_0__4_2\000"
 21809      4552595F 
 21809      54595045 
 21809      5F4C4949 
 21809      4F4E5F33 
 21810              	.LASF412:
 21811 3154 434F4D4D 		.ascii	"COMM_SET_RPM\000"
 21811      5F534554 
 21811      5F52504D 
 21811      00
 21812              	.LASF191:
 21813 3161 656C5F66 		.ascii	"el_flags\000"
 21813      6C616773 
 21813      00
 21814              	.LASF193:
 21815 316a 6576656E 		.ascii	"event_source\000"
 21815      745F736F 
 21815      75726365 
 21815      00
 21816              	.LASF441:
 21817 3177 434F4D4D 		.ascii	"COMM_NRF_START_PAIRING\000"
 21817      5F4E5246 
 21817      5F535441 
 21817      52545F50 
 21817      41495249 
 21818              	.LASF51:
 21819 318e 705F6D74 		.ascii	"p_mtxlist\000"
 21819      786C6973 
 21819      7400
 21820              	.LASF324:
 21821 3198 736C5F63 		.ascii	"sl_cycle_int_rpm_br\000"
 21821      79636C65 
 21821      5F696E74 
 21821      5F72706D 
 21821      5F627200 
 21822              	.LASF564:
 21823 31ac 43414E44 		.ascii	"CAND1\000"
 21823      3100
 21824              	.LASF107:
 21825 31b2 46533152 		.ascii	"FS1R\000"
 21825      00
 21826              	.LASF25:
 21827 31b7 74737461 		.ascii	"tstate_t\000"
 21827      74655F74 
 21827      00
 21828              	.LASF648:
 21829 31c0 53504944 		.ascii	"SPIDriver\000"
 21829      72697665 
 21829      7200
 21830              	.LASF760:
ARM GAS  /tmp/ccHCUo6g.s 			page 438


 21831 31ca 4441494E 		.ascii	"DAINT\000"
 21831      5400
 21832              	.LASF653:
 21833 31d0 53504943 		.ascii	"SPIConfig\000"
 21833      6F6E6669 
 21833      6700
 21834              	.LASF879:
 21835 31da 5F756E73 		.ascii	"_unspecified_locale_info\000"
 21835      70656369 
 21835      66696564 
 21835      5F6C6F63 
 21835      616C655F 
 21836              	.LASF531:
 21837 31f3 70757064 		.ascii	"pupdr\000"
 21837      7200
 21838              	.LASF393:
 21839 31f9 6D5F6463 		.ascii	"m_dc_f_sw\000"
 21839      5F665F73 
 21839      7700
 21840              	.LASF358:
 21841 3203 666F635F 		.ascii	"foc_sample_high_current\000"
 21841      73616D70 
 21841      6C655F68 
 21841      6967685F 
 21841      63757272 
 21842              	.LASF710:
 21843 321b 72657376 		.ascii	"resvd1c\000"
 21843      64316300 
 21844              	.LASF656:
 21845 3223 7472616E 		.ascii	"transmitting\000"
 21845      736D6974 
 21845      74696E67 
 21845      00
 21846              	.LASF215:
 21847 3230 6D635F63 		.ascii	"mc_comm_mode\000"
 21847      6F6D6D5F 
 21847      6D6F6465 
 21847      00
 21848              	.LASF502:
 21849 323d 74696D5F 		.ascii	"tim_current_samp\000"
 21849      63757272 
 21849      656E745F 
 21849      73616D70 
 21849      00
 21850              	.LASF41:
 21851 324e 705F6E61 		.ascii	"p_name\000"
 21851      6D6500
 21852              	.LASF881:
 21853 3255 5F5F7364 		.ascii	"__sdidinit\000"
 21853      6964696E 
 21853      697400
 21854              	.LASF630:
 21855 3260 53657269 		.ascii	"SerialDriver\000"
 21855      616C4472 
 21855      69766572 
 21855      00
 21856              	.LASF932:
ARM GAS  /tmp/ccHCUo6g.s 			page 439


 21857 326d 5F5F6664 		.ascii	"__fdlibm_posix\000"
 21857      6C69626D 
 21857      5F706F73 
 21857      697800
 21858              	.LASF679:
 21859 327c 75736273 		.ascii	"usbstate_t\000"
 21859      74617465 
 21859      5F7400
 21860              	.LASF722:
 21861 3287 444F4550 		.ascii	"DOEPTSIZ\000"
 21861      5453495A 
 21861      00
 21862              	.LASF490:
 21863 3290 63757272 		.ascii	"current_filtered\000"
 21863      656E745F 
 21863      66696C74 
 21863      65726564 
 21863      00
 21864              	.LASF940:
 21865 32a1 6661756C 		.ascii	"fault_vec_write\000"
 21865      745F7665 
 21865      635F7772 
 21865      69746500 
 21866              	.LASF1044:
 21867 32b1 636F6D6D 		.ascii	"comm_can_ping\000"
 21867      5F63616E 
 21867      5F70696E 
 21867      6700
 21868              	.LASF827:
 21869 32bf 5F666C6F 		.ascii	"_flock_t\000"
 21869      636B5F74 
 21869      00
 21870              	.LASF76:
 21871 32c8 76697274 		.ascii	"virtual_timers_list_t\000"
 21871      75616C5F 
 21871      74696D65 
 21871      72735F6C 
 21871      6973745F 
 21872              	.LASF1058:
 21873 32de 656E636F 		.ascii	"encoder_sincos_get_signal_above_max_error_rate\000"
 21873      6465725F 
 21873      73696E63 
 21873      6F735F67 
 21873      65745F73 
 21874              	.LASF209:
 21875 330d 50574D5F 		.ascii	"PWM_MODE_NONSYNCHRONOUS_HISW\000"
 21875      4D4F4445 
 21875      5F4E4F4E 
 21875      53594E43 
 21875      48524F4E 
 21876              	.LASF277:
 21877 332a 44525638 		.ascii	"DRV8301_OC_DISABLED\000"
 21877      3330315F 
 21877      4F435F44 
 21877      49534142 
 21877      4C454400 
 21878              	.LASF448:
ARM GAS  /tmp/ccHCUo6g.s 			page 440


 21879 333e 434F4D4D 		.ascii	"COMM_GPD_FILL_BUFFER_INT8\000"
 21879      5F475044 
 21879      5F46494C 
 21879      4C5F4255 
 21879      46464552 
 21880              	.LASF528:
 21881 3358 6D6F6465 		.ascii	"moder\000"
 21881      7200
 21882              	.LASF440:
 21883 335e 434F4D4D 		.ascii	"COMM_CUSTOM_APP_DATA\000"
 21883      5F435553 
 21883      544F4D5F 
 21883      4150505F 
 21883      44415441 
 21884              	.LASF426:
 21885 3373 434F4D4D 		.ascii	"COMM_ROTOR_POSITION\000"
 21885      5F524F54 
 21885      4F525F50 
 21885      4F534954 
 21885      494F4E00 
 21886              	.LASF225:
 21887 3387 4F55545F 		.ascii	"OUT_AUX_MODE_ON_AFTER_2S\000"
 21887      4155585F 
 21887      4D4F4445 
 21887      5F4F4E5F 
 21887      41465445 
 21888              	.LASF158:
 21889 33a0 735F7175 		.ascii	"s_queue\000"
 21889      65756500 
 21890              	.LASF127:
 21891 33a8 49325343 		.ascii	"I2SCFGR\000"
 21891      46475200 
 21892              	.LASF258:
 21893 33b0 6D635F66 		.ascii	"mc_fault_code\000"
 21893      61756C74 
 21893      5F636F64 
 21893      6500
 21894              	.LASF384:
 21895 33be 6D5F6475 		.ascii	"m_duty_ramp_step\000"
 21895      74795F72 
 21895      616D705F 
 21895      73746570 
 21895      00
 21896              	.LASF403:
 21897 33cf 6D635F63 		.ascii	"mc_configuration\000"
 21897      6F6E6669 
 21897      67757261 
 21897      74696F6E 
 21897      00
 21898              	.LASF555:
 21899 33e0 636F6E66 		.ascii	"config\000"
 21899      696700
 21900              	.LASF165:
 21901 33e7 63685F69 		.ascii	"ch_identifier\000"
 21901      64656E74 
 21901      69666965 
 21901      7200
ARM GAS  /tmp/ccHCUo6g.s 			page 441


 21902              	.LASF640:
 21903 33f5 77726974 		.ascii	"writet\000"
 21903      657400
 21904              	.LASF462:
 21905 33fc 434F4D4D 		.ascii	"COMM_DETECT_APPLY_ALL_FOC\000"
 21905      5F444554 
 21905      4543545F 
 21905      4150504C 
 21905      595F414C 
 21906              	.LASF14:
 21907 3416 6C6F6E67 		.ascii	"long long int\000"
 21907      206C6F6E 
 21907      6720696E 
 21907      7400
 21908              	.LASF740:
 21909 3424 48505458 		.ascii	"HPTXFSIZ\000"
 21909      4653495A 
 21909      00
 21910              	.LASF172:
 21911 342d 63665F6F 		.ascii	"cf_off_prio\000"
 21911      66665F70 
 21911      72696F00 
 21912              	.LASF871:
 21913 3439 5F666C61 		.ascii	"_flags2\000"
 21913      67733200 
 21914              	.LASF949:
 21915 3441 6B4D6178 		.ascii	"kMaxArgs\000"
 21915      41726773 
 21915      00
 21916              	.LASF921:
 21917 344a 5F6E6578 		.ascii	"_nextf\000"
 21917      746600
 21918              	.LASF945:
 21919 3451 63616C6C 		.ascii	"callback_num\000"
 21919      6261636B 
 21919      5F6E756D 
 21919      00
 21920              	.LASF272:
 21921 345e 74696D65 		.ascii	"time_at_comm\000"
 21921      5F61745F 
 21921      636F6D6D 
 21921      00
 21922              	.LASF424:
 21923 346b 434F4D4D 		.ascii	"COMM_TERMINAL_CMD\000"
 21923      5F544552 
 21923      4D494E41 
 21923      4C5F434D 
 21923      4400
 21924              	.LASF310:
 21925 347d 6C5F7761 		.ascii	"l_watt_min\000"
 21925      74745F6D 
 21925      696E00
 21926              	.LASF612:
 21927 3488 6963756D 		.ascii	"icumode_t\000"
 21927      6F64655F 
 21927      7400
 21928              	.LASF1049:
ARM GAS  /tmp/ccHCUo6g.s 			page 442


 21929 3492 6D635F69 		.ascii	"mc_interface_get_last_inj_adc_isr_duration\000"
 21929      6E746572 
 21929      66616365 
 21929      5F676574 
 21929      5F6C6173 
 21930              	.LASF787:
 21931 34bd 7478636E 		.ascii	"txcnt\000"
 21931      7400
 21932              	.LASF689:
 21933 34c3 5553425F 		.ascii	"USB_EVENT_ADDRESS\000"
 21933      4556454E 
 21933      545F4144 
 21933      44524553 
 21933      5300
 21934              	.LASF807:
 21935 34d5 6765745F 		.ascii	"get_descriptor_cb\000"
 21935      64657363 
 21935      72697074 
 21935      6F725F63 
 21935      6200
 21936              	.LASF296:
 21937 34e7 6C5F6D61 		.ascii	"l_max_erpm_fbrake_cc\000"
 21937      785F6572 
 21937      706D5F66 
 21937      6272616B 
 21937      655F6363 
 21938              	.LASF880:
 21939 34fc 5F6C6F63 		.ascii	"_locale\000"
 21939      616C6500 
 21940              	.LASF31:
 21941 3504 6576656E 		.ascii	"eventflags_t\000"
 21941      74666C61 
 21941      67735F74 
 21941      00
 21942              	.LASF644:
 21943 3511 5350495F 		.ascii	"SPI_READY\000"
 21943      52454144 
 21943      5900
 21944              	.LASF422:
 21945 351b 434F4D4D 		.ascii	"COMM_GET_APPCONF_DEFAULT\000"
 21945      5F474554 
 21945      5F415050 
 21945      434F4E46 
 21945      5F444546 
 21946              	.LASF776:
 21947 3534 4649464F 		.ascii	"FIFO\000"
 21947      00
 21948              	.LASF968:
 21949 3539 6379636C 		.ascii	"cycle_integrator\000"
 21949      655F696E 
 21949      74656772 
 21949      61746F72 
 21949      00
 21950              	.LASF1019:
 21951 354a 6D637077 		.ascii	"mcpwm_foc_encoder_detect\000"
 21951      6D5F666F 
 21951      635F656E 
ARM GAS  /tmp/ccHCUo6g.s 			page 443


 21951      636F6465 
 21951      725F6465 
 21952              	.LASF103:
 21953 3563 73464946 		.ascii	"sFIFOMailBox\000"
 21953      4F4D6169 
 21953      6C426F78 
 21953      00
 21954              	.LASF1017:
 21955 3570 636F6D6D 		.ascii	"comm_can_get_status_msg_index\000"
 21955      5F63616E 
 21955      5F676574 
 21955      5F737461 
 21955      7475735F 
 21956              	.LASF974:
 21957 358e 696E7665 		.ascii	"inverted\000"
 21957      72746564 
 21957      00
 21958              	.LASF454:
 21959 3597 434F4D4D 		.ascii	"COMM_GET_VALUES_SELECTIVE\000"
 21959      5F474554 
 21959      5F56414C 
 21959      5545535F 
 21959      53454C45 
 21960              	.LASF1026:
 21961 35b1 6D635F69 		.ascii	"mc_interface_set_duty\000"
 21961      6E746572 
 21961      66616365 
 21961      5F736574 
 21961      5F647574 
 21962              	.LASF755:
 21963 35c7 4443544C 		.ascii	"DCTL\000"
 21963      00
 21964              	.LASF782:
 21965 35cc 74786275 		.ascii	"txbuf\000"
 21965      6600
 21966              	.LASF774:
 21967 35d2 50434743 		.ascii	"PCGCCTL\000"
 21967      43544C00 
 21968              	.LASF692:
 21969 35da 5553425F 		.ascii	"USB_EVENT_WAKEUP\000"
 21969      4556454E 
 21969      545F5741 
 21969      4B455550 
 21969      00
 21970              	.LASF1034:
 21971 35eb 74696D65 		.ascii	"timeout_configure\000"
 21971      6F75745F 
 21971      636F6E66 
 21971      69677572 
 21971      6500
 21972              	.LASF289:
 21973 35fd 6C5F696E 		.ascii	"l_in_current_max\000"
 21973      5F637572 
 21973      72656E74 
 21973      5F6D6178 
 21973      00
 21974              	.LASF40:
ARM GAS  /tmp/ccHCUo6g.s 			page 444


 21975 360e 705F6F6C 		.ascii	"p_older\000"
 21975      64657200 
 21976              	.LASF543:
 21977 3616 50494461 		.ascii	"PIData\000"
 21977      746100
 21978              	.LASF804:
 21979 361d 73657475 		.ascii	"setup_buf\000"
 21979      705F6275 
 21979      6600
 21980              	.LASF651:
 21981 3627 7373706F 		.ascii	"ssport\000"
 21981      727400
 21982              	.LASF849:
 21983 362e 5F617465 		.ascii	"_atexit\000"
 21983      78697400 
 21984              	.LASF362:
 21985 3636 666F635F 		.ascii	"foc_current_filter_const\000"
 21985      63757272 
 21985      656E745F 
 21985      66696C74 
 21985      65725F63 
 21986              	.LASF596:
 21987 364f 4943555F 		.ascii	"ICU_UNINIT\000"
 21987      554E494E 
 21987      495400
 21988              	.LASF54:
 21989 365a 74687265 		.ascii	"thread_reference_t\000"
 21989      61645F72 
 21989      65666572 
 21989      656E6365 
 21989      5F7400
 21990              	.LASF378:
 21991 366d 705F7069 		.ascii	"p_pid_ang_div\000"
 21991      645F616E 
 21991      675F6469 
 21991      7600
 21992              	.LASF226:
 21993 367b 4F55545F 		.ascii	"OUT_AUX_MODE_ON_AFTER_5S\000"
 21993      4155585F 
 21993      4D4F4445 
 21993      5F4F4E5F 
 21993      41465445 
 21994              	.LASF1012:
 21995 3694 63685265 		.ascii	"chRegNextThread\000"
 21995      674E6578 
 21995      74546872 
 21995      65616400 
 21996              	.LASF355:
 21997 36a4 666F635F 		.ascii	"foc_hall_table\000"
 21997      68616C6C 
 21997      5F746162 
 21997      6C6500
 21998              	.LASF657:
 21999 36b3 72656365 		.ascii	"receiving\000"
 21999      6976696E 
 21999      6700
 22000              	.LASF232:
ARM GAS  /tmp/ccHCUo6g.s 			page 445


 22001 36bd 4D4F544F 		.ascii	"MOTOR_TYPE_GPD\000"
 22001      525F5459 
 22001      50455F47 
 22001      504400
 22002              	.LASF1039:
 22003 36cc 6D637077 		.ascii	"mcpwm_foc_set_openloop_duty\000"
 22003      6D5F666F 
 22003      635F7365 
 22003      745F6F70 
 22003      656E6C6F 
 22004              	.LASF894:
 22005 36e8 5F5F4649 		.ascii	"__FILE\000"
 22005      4C4500
 22006              	.LASF618:
 22007 36ef 66726571 		.ascii	"frequency\000"
 22007      75656E63 
 22007      7900
 22008              	.LASF351:
 22009 36f9 666F635F 		.ascii	"foc_sl_openloop_time\000"
 22009      736C5F6F 
 22009      70656E6C 
 22009      6F6F705F 
 22009      74696D65 
 22010              	.LASF149:
 22011 370e 746D5F63 		.ascii	"tm_calibration_t\000"
 22011      616C6962 
 22011      72617469 
 22011      6F6E5F74 
 22011      00
 22012              	.LASF3:
 22013 371f 5F5F696E 		.ascii	"__int8_t\000"
 22013      74385F74 
 22013      00
 22014              	.LASF316:
 22015 3728 6C6F5F69 		.ascii	"lo_in_current_min\000"
 22015      6E5F6375 
 22015      7272656E 
 22015      745F6D69 
 22015      6E00
 22016              	.LASF801:
 22017 373a 696E5F73 		.ascii	"in_state\000"
 22017      74617465 
 22017      00
 22018              	.LASF508:
 22019 3743 72785F74 		.ascii	"rx_time\000"
 22019      696D6500 
 22020              	.LASF142:
 22021 374b 47545052 		.ascii	"GTPR\000"
 22021      00
 22022              	.LASF447:
 22023 3750 434F4D4D 		.ascii	"COMM_GPD_SET_MODE\000"
 22023      5F475044 
 22023      5F534554 
 22023      5F4D4F44 
 22023      4500
 22024              	.LASF166:
 22025 3762 63685F7A 		.ascii	"ch_zero\000"
ARM GAS  /tmp/ccHCUo6g.s 			page 446


 22025      65726F00 
 22026              	.LASF307:
 22027 376a 6C5F6D69 		.ascii	"l_min_duty\000"
 22027      6E5F6475 
 22027      747900
 22028              	.LASF579:
 22029 3775 46415354 		.ascii	"FAST_DUTY_CYCLE_2\000"
 22029      5F445554 
 22029      595F4359 
 22029      434C455F 
 22029      3200
 22030              	.LASF171:
 22031 3787 63685F74 		.ascii	"ch_threadsize\000"
 22031      68726561 
 22031      6473697A 
 22031      6500
 22032              	.LASF122:
 22033 3795 464C5452 		.ascii	"FLTR\000"
 22033      00
 22034              	.LASF262:
 22035 379a 53454E53 		.ascii	"SENSOR_PORT_MODE_AD2S1205\000"
 22035      4F525F50 
 22035      4F52545F 
 22035      4D4F4445 
 22035      5F414432 
 22036              	.LASF265:
 22037 37b4 73656E73 		.ascii	"sensor_port_mode\000"
 22037      6F725F70 
 22037      6F72745F 
 22037      6D6F6465 
 22037      00
 22038              	.LASF933:
 22039 37c5 5F5F6664 		.ascii	"__fdlib_version\000"
 22039      6C69625F 
 22039      76657273 
 22039      696F6E00 
 22040              	.LASF132:
 22041 37d5 43434D52 		.ascii	"CCMR1\000"
 22041      3100
 22042              	.LASF133:
 22043 37db 43434D52 		.ascii	"CCMR2\000"
 22043      3200
 22044              	.LASF607:
 22045 37e1 43434D52 		.ascii	"CCMR3\000"
 22045      3300
 22046              	.LASF223:
 22047 37e7 6D635F66 		.ascii	"mc_foc_sensor_mode\000"
 22047      6F635F73 
 22047      656E736F 
 22047      725F6D6F 
 22047      646500
 22048              	.LASF1:
 22049 37fa 756E7369 		.ascii	"unsigned int\000"
 22049      676E6564 
 22049      20696E74 
 22049      00
 22050              	.LASF908:
ARM GAS  /tmp/ccHCUo6g.s 			page 447


 22051 3807 5F723438 		.ascii	"_r48\000"
 22051      00
 22052              	.LASF744:
 22053 380c 48464952 		.ascii	"HFIR\000"
 22053      00
 22054              	.LASF674:
 22055 3811 5553425F 		.ascii	"USB_UNINIT\000"
 22055      554E494E 
 22055      495400
 22056              	.LASF511:
 22057 381c 73747265 		.ascii	"stream\000"
 22057      616D00
 22058              	.LASF577:
 22059 3823 6932636F 		.ascii	"i2copmode_t\000"
 22059      706D6F64 
 22059      655F7400 
 22060              	.LASF1005:
 22061 382f 73747263 		.ascii	"strcmp\000"
 22061      6D7000
 22062              	.LASF1048:
 22063 3836 6D637077 		.ascii	"mcpwm_get_last_adc_isr_duration\000"
 22063      6D5F6765 
 22063      745F6C61 
 22063      73745F61 
 22063      64635F69 
 22064              	.LASF471:
 22065 3856 434F4D4D 		.ascii	"COMM_BM_ERASE_FLASH_ALL\000"
 22065      5F424D5F 
 22065      45524153 
 22065      455F464C 
 22065      4153485F 
 22066              	.LASF900:
 22067 386e 5F6D756C 		.ascii	"_mult\000"
 22067      7400
 22068              	.LASF7:
 22069 3874 73686F72 		.ascii	"short int\000"
 22069      7420696E 
 22069      7400
 22070              	.LASF357:
 22071 387e 666F635F 		.ascii	"foc_sample_v0_v7\000"
 22071      73616D70 
 22071      6C655F76 
 22071      305F7637 
 22071      00
 22072              	.LASF698:
 22073 388f 75736263 		.ascii	"usbcallback_t\000"
 22073      616C6C62 
 22073      61636B5F 
 22073      7400
 22074              	.LASF814:
 22075 389d 6D637077 		.ascii	"mcpwm_detect_currents_diff\000"
 22075      6D5F6465 
 22075      74656374 
 22075      5F637572 
 22075      72656E74 
 22076              	.LASF727:
 22077 38b8 47555342 		.ascii	"GUSBCFG\000"
ARM GAS  /tmp/ccHCUo6g.s 			page 448


 22077      43464700 
 22078              	.LASF143:
 22079 38c0 55534152 		.ascii	"USART_TypeDef\000"
 22079      545F5479 
 22079      70654465 
 22079      6600
 22080              	.LASF878:
 22081 38ce 5F656D65 		.ascii	"_emergency\000"
 22081      7267656E 
 22081      637900
 22082              	.LASF208:
 22083 38d9 6F757470 		.ascii	"output_queue_t\000"
 22083      75745F71 
 22083      75657565 
 22083      5F7400
 22084              	.LASF507:
 22085 38e8 6661756C 		.ascii	"fault_data\000"
 22085      745F6461 
 22085      746100
 22086              	.LASF229:
 22087 38f3 4D4F544F 		.ascii	"MOTOR_TYPE_BLDC\000"
 22087      525F5459 
 22087      50455F42 
 22087      4C444300 
 22088              	.LASF898:
 22089 3903 5F72616E 		.ascii	"_rand48\000"
 22089      64343800 
 22090              	.LASF777:
 22091 390b 73746D33 		.ascii	"stm32_otg_t\000"
 22091      325F6F74 
 22091      675F7400 
 22092              	.LASF584:
 22093 3917 64757479 		.ascii	"duty_cycle\000"
 22093      5F637963 
 22093      6C6500
 22094              	.LASF433:
 22095 3922 434F4D4D 		.ascii	"COMM_REBOOT\000"
 22095      5F524542 
 22095      4F4F5400 
 22096              	.LASF695:
 22097 392e 75645F73 		.ascii	"ud_size\000"
 22097      697A6500 
 22098              	.LASF799:
 22099 3936 696E5F6D 		.ascii	"in_maxsize\000"
 22099      61787369 
 22099      7A6500
 22100              	.LASF540:
 22101 3941 50464461 		.ascii	"PFData\000"
 22101      746100
 22102              	.LASF941:
 22103 3948 63616C6C 		.ascii	"callbacks\000"
 22103      6261636B 
 22103      7300
 22104              	.LASF42:
 22105 3952 705F7374 		.ascii	"p_state\000"
 22105      61746500 
 22106              	.LASF1022:
ARM GAS  /tmp/ccHCUo6g.s 			page 449


 22107 395a 6D637077 		.ascii	"mcpwm_foc_measure_inductance\000"
 22107      6D5F666F 
 22107      635F6D65 
 22107      61737572 
 22107      655F696E 
 22108              	.LASF57:
 22109 3977 63685F74 		.ascii	"ch_threads_list\000"
 22109      68726561 
 22109      64735F6C 
 22109      69737400 
 22110              	.LASF214:
 22111 3987 434F4D4D 		.ascii	"COMM_MODE_DELAY\000"
 22111      5F4D4F44 
 22111      455F4445 
 22111      4C415900 
 22112              	.LASF963:
 22113 3997 766F6C74 		.ascii	"voltage_samp\000"
 22113      6167655F 
 22113      73616D70 
 22113      00
 22114              	.LASF395:
 22115 39a4 6D5F6F75 		.ascii	"m_out_aux_mode\000"
 22115      745F6175 
 22115      785F6D6F 
 22115      646500
 22116              	.LASF119:
 22117 39b3 4F415231 		.ascii	"OAR1\000"
 22117      00
 22118              	.LASF120:
 22119 39b8 4F415232 		.ascii	"OAR2\000"
 22119      00
 22120              	.LASF628:
 22121 39bd 53445F52 		.ascii	"SD_READY\000"
 22121      45414459 
 22121      00
 22122              	.LASF386:
 22123 39c6 6D5F656E 		.ascii	"m_encoder_counts\000"
 22123      636F6465 
 22123      725F636F 
 22123      756E7473 
 22123      00
 22124              		.ident	"GCC: (GNU Tools for Arm Embedded Processors 7-2018-q3-update) 7.3.1 20180622 (release) [AR
ARM GAS  /tmp/ccHCUo6g.s 			page 450


DEFINED SYMBOLS
                            *ABS*:0000000000000000 terminal.c
     /tmp/ccHCUo6g.s:20     .text.terminal_process_string:0000000000000000 $t
     /tmp/ccHCUo6g.s:28     .text.terminal_process_string:0000000000000000 terminal_process_string
     /tmp/ccHCUo6g.s:542    .text.terminal_process_string:00000000000002e8 $d
     /tmp/ccHCUo6g.s:593    .text.terminal_process_string:00000000000003a8 $t
     /tmp/ccHCUo6g.s:979    .text.terminal_process_string:0000000000000604 $d
     /tmp/ccHCUo6g.s:1025   .text.terminal_process_string:00000000000006ac $t
     /tmp/ccHCUo6g.s:1419   .text.terminal_process_string:0000000000000948 $d
     /tmp/ccHCUo6g.s:1449   .text.terminal_process_string:00000000000009b0 $t
     /tmp/ccHCUo6g.s:1969   .text.terminal_process_string:0000000000000d08 $d
     /tmp/ccHCUo6g.s:2006   .text.terminal_process_string:0000000000000d84 $t
     /tmp/ccHCUo6g.s:2363   .text.terminal_process_string:0000000000000ffc $d
     /tmp/ccHCUo6g.s:2382   .text.terminal_process_string:0000000000001034 $t
     /tmp/ccHCUo6g.s:2805   .text.terminal_process_string:00000000000012f0 $d
     /tmp/ccHCUo6g.s:2842   .text.terminal_process_string:000000000000137c $t
     /tmp/ccHCUo6g.s:3174   .text.terminal_process_string:00000000000015a0 $d
     /tmp/ccHCUo6g.s:3209   .text.terminal_process_string:000000000000161c $t
     /tmp/ccHCUo6g.s:3635   .text.terminal_process_string:0000000000001884 $d
     /tmp/ccHCUo6g.s:3725   .text.terminal_add_fault_data:0000000000000000 $t
     /tmp/ccHCUo6g.s:3733   .text.terminal_add_fault_data:0000000000000000 terminal_add_fault_data
     /tmp/ccHCUo6g.s:3771   .text.terminal_add_fault_data:0000000000000028 $d
     /tmp/ccHCUo6g.s:3777   .text.terminal_get_fault_vec_write:0000000000000000 $t
     /tmp/ccHCUo6g.s:3785   .text.terminal_get_fault_vec_write:0000000000000000 terminal_get_fault_vec_write
     /tmp/ccHCUo6g.s:3800   .text.terminal_get_fault_vec_write:0000000000000008 $d
     /tmp/ccHCUo6g.s:3805   .text.terminal_register_command_callback:0000000000000000 $t
     /tmp/ccHCUo6g.s:3813   .text.terminal_register_command_callback:0000000000000000 terminal_register_command_callback
     /tmp/ccHCUo6g.s:3957   .text.terminal_register_command_callback:0000000000000088 $d
     /tmp/ccHCUo6g.s:3964   .text.terminal_unregister_callback:0000000000000000 $t
     /tmp/ccHCUo6g.s:3972   .text.terminal_unregister_callback:0000000000000000 terminal_unregister_callback
     /tmp/ccHCUo6g.s:4020   .text.terminal_unregister_callback:0000000000000028 $d
     /tmp/ccHCUo6g.s:4026   .bss.callback_write:0000000000000000 $d
     /tmp/ccHCUo6g.s:4030   .bss.callback_write:0000000000000000 callback_write
     /tmp/ccHCUo6g.s:4033   .bss.callbacks:0000000000000000 $d
     /tmp/ccHCUo6g.s:4037   .bss.callbacks:0000000000000000 callbacks
     /tmp/ccHCUo6g.s:4040   .bss.fault_vec:0000000000000000 $d
     /tmp/ccHCUo6g.s:4044   .bss.fault_vec:0000000000000000 fault_vec
     /tmp/ccHCUo6g.s:4047   .bss.fault_vec_write:0000000000000000 $d
     /tmp/ccHCUo6g.s:4051   .bss.fault_vec_write:0000000000000000 fault_vec_write
     /tmp/ccHCUo6g.s:4054   .bss.mcconf.13534:0000000000000000 $d
     /tmp/ccHCUo6g.s:4058   .bss.mcconf.13534:0000000000000000 mcconf.13534
     /tmp/ccHCUo6g.s:4061   .bss.mcconf_old.13535:0000000000000000 $d
     /tmp/ccHCUo6g.s:4065   .bss.mcconf_old.13535:0000000000000000 mcconf_old.13535
     /tmp/ccHCUo6g.s:4068   .rodata.states.13540:0000000000000000 $d
     /tmp/ccHCUo6g.s:4072   .rodata.states.13540:0000000000000000 states.13540
     /tmp/ccHCUo6g.s:4090   .rodata.str1.4:0000000000000000 $d
     /tmp/ccHCUo6g.s:4135   .rodata.terminal_process_string.str1.4:0000000000000000 $d

UNDEFINED SYMBOLS
__aeabi_f2d
__aeabi_dmul
strtok
mc_interface_get_configuration
memcpy
strcmp
commands_printf
sscanf
ARM GAS  /tmp/ccHCUo6g.s 			page 451


mc_interface_set_odo_value
mc_interface_set_duty
chHeapStatus
chCoreGetStatusX
mcpwm_get_last_adc_isr_duration
mc_interface_get_last_inj_adc_isr_duration
mc_interface_get_last_sample_adc_isr_duration
mcpwm_get_kv_filtered
chRegFirstThread
chRegNextThread
mc_interface_get_fault
mc_interface_fault_to_string
ch
drv8350_faults_to_string
mc_interface_get_tachometer_value
mc_interface_get_rpm
ADC_Value
conf_general_detect_motor_param
encoder_is_configured
mc_interface_set_configuration
mcpwm_foc_encoder_detect
mcpwm_foc_measure_resistance
mcpwm_foc_measure_inductance
comm_can_get_status_msg_index
mcpwm_get_rpm_dep
mcpwm_foc_measure_inductance2
timeout_get_timeout_msec
timeout_get_brake_current
timeout_reset
timeout_configure
chThdSleep
mcpwm_foc_get_vq
mc_interface_get_tot_current_directional
mc_interface_release_motor
conf_general_measure_flux_linkage
conf_general_measure_flux_linkage_openloop
mcpwm_foc_measure_res_ind
mcpwm_foc_print_state
mcpwm_foc_set_openloop
mcpwm_foc_set_openloop_duty
mcpwm_foc_get_current_offsets
commands_send_packet_nrf
conf_general_autodetect_apply_sensors_foc
mcpwm_foc_set_openloop_phase
conf_general_detect_apply_all_foc
conf_general_permanent_nrf_found
comm_can_ping
conf_general_detect_apply_all_foc_can
encoder_sincos_get_signal_below_min_error_cnt
encoder_sincos_get_signal_below_min_error_rate
encoder_sincos_get_signal_above_max_error_cnt
encoder_sincos_get_signal_above_max_error_rate
encoder_spi_get_val
encoder_spi_get_error_cnt
encoder_spi_get_error_rate
