ARM GAS  /tmp/ccHCUo6g.s 			page 1


   1              		.cpu cortex-m4
   2              		.eabi_attribute 27, 1
   3              		.eabi_attribute 28, 1
   4              		.eabi_attribute 20, 1
   5              		.eabi_attribute 21, 1
   6              		.eabi_attribute 23, 3
   7              		.eabi_attribute 24, 1
   8              		.eabi_attribute 25, 1
   9              		.eabi_attribute 26, 1
  10              		.eabi_attribute 30, 2
  11              		.eabi_attribute 34, 1
  12              		.eabi_attribute 18, 4
  13              		.file	"terminal.c"
  14              		.text
  15              	.Ltext0:
  16              		.cfi_sections	.debug_frame
  17              		.global	__aeabi_f2d
  18              		.global	__aeabi_dmul
  19              		.section	.text.terminal_process_string,"ax",%progbits
  20              		.align	1
  21              		.p2align 4,,15
  22              		.global	terminal_process_string
  23              		.syntax unified
  24              		.thumb
  25              		.thumb_func
  26              		.fpu fpv4-sp-d16
  27              		.type	terminal_process_string, %function
  28              	terminal_process_string:
  29              	.LFB259:
  30              		.file 1 "terminal.c"
  31              		.loc 1 61 0
  32              		.cfi_startproc
  33              		@ args = 0, pretend = 0, frame = 312
  34              		@ frame_needed = 0, uses_anonymous_args = 0
  35              	.LVL0:
  36 0000 2DE9F04F 		push	{r4, r5, r6, r7, r8, r9, r10, fp, lr}
  37              		.cfi_def_cfa_offset 36
  38              		.cfi_offset 4, -36
  39              		.cfi_offset 5, -32
  40              		.cfi_offset 6, -28
  41              		.cfi_offset 7, -24
  42              		.cfi_offset 8, -20
  43              		.cfi_offset 9, -16
  44              		.cfi_offset 10, -12
  45              		.cfi_offset 11, -8
  46              		.cfi_offset 14, -4
  47 0004 2DED088B 		vpush.64	{d8, d9, d10, d11}
  48              		.cfi_def_cfa_offset 68
  49              		.cfi_offset 80, -68
  50              		.cfi_offset 81, -64
  51              		.cfi_offset 82, -60
  52              		.cfi_offset 83, -56
  53              		.cfi_offset 84, -52
  54              		.cfi_offset 85, -48
  55              		.cfi_offset 86, -44
  56              		.cfi_offset 87, -40
  57              		.loc 1 66 0
ARM GAS  /tmp/ccHCUo6g.s 			page 2


  58 0008 B749     		ldr	r1, .L303
  59              		.loc 1 61 0
  60 000a D9B0     		sub	sp, sp, #356
  61              		.cfi_def_cfa_offset 424
  62              		.loc 1 66 0
  63 000c FFF7FEFF 		bl	strtok
  64              	.LVL1:
  65              		.loc 1 67 0
  66 0010 0028     		cmp	r0, #0
  67 0012 65D0     		beq	.L271
  68 0014 0346     		mov	r3, r0
  69              		.loc 1 69 0
  70 0016 B44E     		ldr	r6, .L303
  71 0018 18AD     		add	r5, sp, #96
  72              		.loc 1 63 0
  73 001a 0024     		movs	r4, #0
  74 001c 01E0     		b	.L5
  75              	.LVL2:
  76              	.L272:
  77              		.loc 1 67 0 discriminator 1
  78 001e 402C     		cmp	r4, #64
  79 0020 09D0     		beq	.L4
  80              	.LVL3:
  81              	.L5:
  82              		.loc 1 68 0
  83 0022 45F8043B 		str	r3, [r5], #4
  84              		.loc 1 69 0
  85 0026 3146     		mov	r1, r6
  86 0028 0020     		movs	r0, #0
  87              	.LVL4:
  88 002a FFF7FEFF 		bl	strtok
  89              	.LVL5:
  90              		.loc 1 68 0
  91 002e 0134     		adds	r4, r4, #1
  92              	.LVL6:
  93              		.loc 1 67 0
  94 0030 0346     		mov	r3, r0
  95 0032 0028     		cmp	r0, #0
  96 0034 F3D1     		bne	.L272
  97              	.L4:
  98              		.loc 1 79 0
  99 0036 FFF7FEFF 		bl	mc_interface_get_configuration
 100              	.LVL7:
 101 003a 4FF4E472 		mov	r2, #456
 102 003e 0146     		mov	r1, r0
 103 0040 AA48     		ldr	r0, .L303+4
 104 0042 FFF7FEFF 		bl	memcpy
 105              	.LVL8:
 106              		.loc 1 80 0
 107 0046 A949     		ldr	r1, .L303+4
 108 0048 A948     		ldr	r0, .L303+8
 109 004a 4FF4E472 		mov	r2, #456
 110 004e FFF7FEFF 		bl	memcpy
 111              	.LVL9:
 112              		.loc 1 82 0
 113 0052 189D     		ldr	r5, [sp, #96]
 114 0054 A749     		ldr	r1, .L303+12
ARM GAS  /tmp/ccHCUo6g.s 			page 3


 115 0056 2846     		mov	r0, r5
 116 0058 FFF7FEFF 		bl	strcmp
 117              	.LVL10:
 118 005c 0028     		cmp	r0, #0
 119 005e 51D0     		beq	.L273
 120              		.loc 1 84 0
 121 0060 A549     		ldr	r1, .L303+16
 122 0062 2846     		mov	r0, r5
 123 0064 FFF7FEFF 		bl	strcmp
 124              	.LVL11:
 125 0068 0028     		cmp	r0, #0
 126 006a 41D0     		beq	.L274
 127              		.loc 1 95 0
 128 006c A349     		ldr	r1, .L303+20
 129 006e 2846     		mov	r0, r5
 130 0070 FFF7FEFF 		bl	strcmp
 131              	.LVL12:
 132 0074 0028     		cmp	r0, #0
 133 0076 64D0     		beq	.L275
 134              		.loc 1 98 0
 135 0078 A149     		ldr	r1, .L303+24
 136 007a 2846     		mov	r0, r5
 137 007c FFF7FEFF 		bl	strcmp
 138              	.LVL13:
 139 0080 0028     		cmp	r0, #0
 140 0082 79D0     		beq	.L276
 141              		.loc 1 102 0
 142 0084 9F49     		ldr	r1, .L303+28
 143 0086 2846     		mov	r0, r5
 144 0088 FFF7FEFF 		bl	strcmp
 145              	.LVL14:
 146 008c 0028     		cmp	r0, #0
 147 008e 00F09D80 		beq	.L277
 148              		.loc 1 104 0
 149 0092 9D49     		ldr	r1, .L303+32
 150 0094 2846     		mov	r0, r5
 151 0096 FFF7FEFF 		bl	strcmp
 152              	.LVL15:
 153 009a 0028     		cmp	r0, #0
 154 009c 59D0     		beq	.L278
 155              		.loc 1 110 0
 156 009e 9B49     		ldr	r1, .L303+36
 157 00a0 2846     		mov	r0, r5
 158 00a2 FFF7FEFF 		bl	strcmp
 159              	.LVL16:
 160 00a6 0028     		cmp	r0, #0
 161 00a8 00F09C80 		beq	.L279
 162              		.loc 1 125 0
 163 00ac 9849     		ldr	r1, .L303+40
 164 00ae 2846     		mov	r0, r5
 165 00b0 FFF7FEFF 		bl	strcmp
 166              	.LVL17:
 167 00b4 0028     		cmp	r0, #0
 168 00b6 00F0D480 		beq	.L280
 169              		.loc 1 127 0
 170 00ba 9649     		ldr	r1, .L303+44
 171 00bc 2846     		mov	r0, r5
ARM GAS  /tmp/ccHCUo6g.s 			page 4


 172 00be FFF7FEFF 		bl	strcmp
 173              	.LVL18:
 174 00c2 0646     		mov	r6, r0
 175 00c4 0028     		cmp	r0, #0
 176 00c6 40F0D580 		bne	.L17
 177              		.loc 1 128 0
 178 00ca DFF8CC82 		ldr	r8, .L303+176
 179 00ce D8F80030 		ldr	r3, [r8]
 180 00d2 002B     		cmp	r3, #0
 181 00d4 40F0F880 		bne	.L18
 182              		.loc 1 129 0
 183 00d8 8F48     		ldr	r0, .L303+48
 184 00da FFF7FEFF 		bl	commands_printf
 185              	.LVL19:
 186 00de 02E0     		b	.L1
 187              	.LVL20:
 188              	.L271:
 189              		.loc 1 73 0
 190 00e0 8E48     		ldr	r0, .L303+52
 191              	.LVL21:
 192 00e2 FFF7FEFF 		bl	commands_printf
 193              	.LVL22:
 194              	.L1:
 195              		.loc 1 891 0
 196 00e6 59B0     		add	sp, sp, #356
 197              		.cfi_remember_state
 198              		.cfi_def_cfa_offset 68
 199              		@ sp needed
 200 00e8 BDEC088B 		vldm	sp!, {d8-d11}
 201              		.cfi_restore 86
 202              		.cfi_restore 87
 203              		.cfi_restore 84
 204              		.cfi_restore 85
 205              		.cfi_restore 82
 206              		.cfi_restore 83
 207              		.cfi_restore 80
 208              		.cfi_restore 81
 209              		.cfi_def_cfa_offset 36
 210 00ec BDE8F08F 		pop	{r4, r5, r6, r7, r8, r9, r10, fp, pc}
 211              	.LVL23:
 212              	.L274:
 213              		.cfi_restore_state
 214              		.loc 1 85 0
 215 00f0 022C     		cmp	r4, #2
 216 00f2 0FD0     		beq	.L281
 217              	.LVL24:
 218              	.L248:
 219              	.LBB81:
 220              		.loc 1 715 0
 221 00f4 8A48     		ldr	r0, .L303+56
 222 00f6 FFF7FEFF 		bl	commands_printf
 223              	.LVL25:
 224              	.LBE81:
 225              		.loc 1 891 0
 226 00fa 59B0     		add	sp, sp, #356
 227              		.cfi_remember_state
 228              		.cfi_def_cfa_offset 68
ARM GAS  /tmp/ccHCUo6g.s 			page 5


 229              		@ sp needed
 230 00fc BDEC088B 		vldm	sp!, {d8-d11}
 231              		.cfi_restore 86
 232              		.cfi_restore 87
 233              		.cfi_restore 84
 234              		.cfi_restore 85
 235              		.cfi_restore 82
 236              		.cfi_restore 83
 237              		.cfi_restore 80
 238              		.cfi_restore 81
 239              		.cfi_def_cfa_offset 36
 240 0100 BDE8F08F 		pop	{r4, r5, r6, r7, r8, r9, r10, fp, pc}
 241              	.LVL26:
 242              	.L273:
 243              		.cfi_restore_state
 244              		.loc 1 83 0
 245 0104 8748     		ldr	r0, .L303+60
 246 0106 FFF7FEFF 		bl	commands_printf
 247              	.LVL27:
 248              		.loc 1 891 0
 249 010a 59B0     		add	sp, sp, #356
 250              		.cfi_remember_state
 251              		.cfi_def_cfa_offset 68
 252              		@ sp needed
 253 010c BDEC088B 		vldm	sp!, {d8-d11}
 254              		.cfi_restore 86
 255              		.cfi_restore 87
 256              		.cfi_restore 84
 257              		.cfi_restore 85
 258              		.cfi_restore 82
 259              		.cfi_restore 83
 260              		.cfi_restore 80
 261              		.cfi_restore 81
 262              		.cfi_def_cfa_offset 36
 263 0110 BDE8F08F 		pop	{r4, r5, r6, r7, r8, r9, r10, fp, pc}
 264              	.LVL28:
 265              	.L281:
 266              		.cfi_restore_state
 267              	.LBB85:
 268              		.loc 1 86 0
 269 0114 844B     		ldr	r3, .L303+64
 270              		.loc 1 87 0
 271 0116 8549     		ldr	r1, .L303+68
 272 0118 1998     		ldr	r0, [sp, #100]
 273              		.loc 1 86 0
 274 011a 1193     		str	r3, [sp, #68]	@ float
 275              		.loc 1 87 0
 276 011c 11AA     		add	r2, sp, #68
 277 011e FFF7FEFF 		bl	sscanf
 278              	.LVL29:
 279              		.loc 1 90 0
 280 0122 DDED117A 		vldr.32	s15, [sp, #68]
 281 0126 9FED827A 		vldr.32	s14, .L303+72
 282 012a 67EE877A 		vmul.f32	s15, s15, s14
 283 012e FCEEE77A 		vcvt.u32.f32	s15, s15
 284 0132 17EE900A 		vmov	r0, s15	@ int
 285 0136 FFF7FEFF 		bl	mc_interface_set_odo_value
ARM GAS  /tmp/ccHCUo6g.s 			page 6


 286              	.LVL30:
 287              		.loc 1 91 0
 288 013a 7E48     		ldr	r0, .L303+76
 289 013c FFF7FEFF 		bl	commands_printf
 290              	.LVL31:
 291              	.LBE85:
 292 0140 D1E7     		b	.L1
 293              	.L275:
 294              		.loc 1 96 0
 295 0142 9FED7D0A 		vldr.32	s0, .L303+80
 296 0146 FFF7FEFF 		bl	mc_interface_set_duty
 297              	.LVL32:
 298              		.loc 1 97 0
 299 014a 7C48     		ldr	r0, .L303+84
 300 014c FFF7FEFF 		bl	commands_printf
 301              	.LVL33:
 302 0150 C9E7     		b	.L1
 303              	.L278:
 304              	.LBB86:
 305              		.loc 1 106 0 discriminator 3
 306 0152 11A9     		add	r1, sp, #68
 307 0154 FFF7FEFF 		bl	chHeapStatus
 308              	.LVL34:
 309 0158 0446     		mov	r4, r0
 310              	.LVL35:
 311              		.loc 1 107 0 discriminator 3
 312 015a FFF7FEFF 		bl	chCoreGetStatusX
 313              	.LVL36:
 314 015e 0146     		mov	r1, r0
 315 0160 7748     		ldr	r0, .L303+88
 316 0162 FFF7FEFF 		bl	commands_printf
 317              	.LVL37:
 318              		.loc 1 108 0 discriminator 3
 319 0166 2146     		mov	r1, r4
 320 0168 7648     		ldr	r0, .L303+92
 321 016a FFF7FEFF 		bl	commands_printf
 322              	.LVL38:
 323              		.loc 1 109 0 discriminator 3
 324 016e 1199     		ldr	r1, [sp, #68]
 325 0170 7548     		ldr	r0, .L303+96
 326 0172 FFF7FEFF 		bl	commands_printf
 327              	.LVL39:
 328              	.LBE86:
 329 0176 B6E7     		b	.L1
 330              	.LVL40:
 331              	.L276:
 332              		.loc 1 99 0
 333 0178 FFF7FEFF 		bl	mcpwm_get_last_adc_isr_duration
 334              	.LVL41:
 335 017c 9FED6C8A 		vldr.32	s16, .L303+72
 336 0180 60EE087A 		vmul.f32	s15, s0, s16
 337 0184 17EE900A 		vmov	r0, s15
 338 0188 FFF7FEFF 		bl	__aeabi_f2d
 339              	.LVL42:
 340 018c 0246     		mov	r2, r0
 341 018e 0B46     		mov	r3, r1
 342 0190 6E48     		ldr	r0, .L303+100
ARM GAS  /tmp/ccHCUo6g.s 			page 7


 343 0192 FFF7FEFF 		bl	commands_printf
 344              	.LVL43:
 345              		.loc 1 100 0
 346 0196 FFF7FEFF 		bl	mc_interface_get_last_inj_adc_isr_duration
 347              	.LVL44:
 348 019a 60EE087A 		vmul.f32	s15, s0, s16
 349 019e 17EE900A 		vmov	r0, s15
 350 01a2 FFF7FEFF 		bl	__aeabi_f2d
 351              	.LVL45:
 352 01a6 0246     		mov	r2, r0
 353 01a8 0B46     		mov	r3, r1
 354 01aa 6948     		ldr	r0, .L303+104
 355 01ac FFF7FEFF 		bl	commands_printf
 356              	.LVL46:
 357              		.loc 1 101 0
 358 01b0 FFF7FEFF 		bl	mc_interface_get_last_sample_adc_isr_duration
 359              	.LVL47:
 360 01b4 60EE087A 		vmul.f32	s15, s0, s16
 361 01b8 17EE900A 		vmov	r0, s15
 362 01bc FFF7FEFF 		bl	__aeabi_f2d
 363              	.LVL48:
 364 01c0 0246     		mov	r2, r0
 365 01c2 0B46     		mov	r3, r1
 366 01c4 6348     		ldr	r0, .L303+108
 367 01c6 FFF7FEFF 		bl	commands_printf
 368              	.LVL49:
 369 01ca 8CE7     		b	.L1
 370              	.L277:
 371              		.loc 1 103 0
 372 01cc FFF7FEFF 		bl	mcpwm_get_kv_filtered
 373              	.LVL50:
 374 01d0 10EE100A 		vmov	r0, s0
 375 01d4 FFF7FEFF 		bl	__aeabi_f2d
 376              	.LVL51:
 377 01d8 0246     		mov	r2, r0
 378 01da 0B46     		mov	r3, r1
 379 01dc 5E48     		ldr	r0, .L303+112
 380 01de FFF7FEFF 		bl	commands_printf
 381              	.LVL52:
 382 01e2 80E7     		b	.L1
 383              	.L279:
 384              	.LBB87:
 385              		.loc 1 113 0
 386 01e4 5D48     		ldr	r0, .L303+116
 387 01e6 5E4F     		ldr	r7, .L303+120
 388 01e8 5E4E     		ldr	r6, .L303+124
 389              		.loc 1 121 0
 390 01ea 9FED5F8A 		vldr.32	s16, .L303+128
 391              		.loc 1 117 0
 392 01ee 5F4D     		ldr	r5, .L303+132
 393              		.loc 1 113 0
 394 01f0 FFF7FEFF 		bl	commands_printf
 395              	.LVL53:
 396              		.loc 1 114 0
 397 01f4 5E48     		ldr	r0, .L303+136
 398 01f6 FFF7FEFF 		bl	commands_printf
 399              	.LVL54:
ARM GAS  /tmp/ccHCUo6g.s 			page 8


 400              		.loc 1 115 0
 401 01fa FFF7FEFF 		bl	chRegFirstThread
 402              	.LVL55:
 403 01fe 0446     		mov	r4, r0
 404              	.LVL56:
 405              	.L15:
 406              		.loc 1 120 0 discriminator 1
 407 0200 D4F820A0 		ldr	r10, [r4, #32]
 408              		.loc 1 121 0 discriminator 1
 409 0204 D4ED087A 		vldr.32	s15, [r4, #32]	@ int
 410              	.LBB88:
 411              	.LBB89:
 412              		.file 2 "ChibiOS_3.0.2/os/rt/include/chvt.h"
 413              		.loc 2 231 0 discriminator 1
 414 0208 97ED0A7A 		vldr.32	s14, [r7, #40]	@ int
 415              	.LBE89:
 416              	.LBE88:
 417              		.loc 1 121 0 discriminator 1
 418 020c F8EE677A 		vcvt.f32.u32	s15, s15
 419 0210 B8EE477A 		vcvt.f32.u32	s14, s14
 420 0214 67EE887A 		vmul.f32	s15, s15, s16
 421              		.loc 1 117 0 discriminator 1
 422 0218 D4E90298 		ldrd	r9, r8, [r4, #8]
 423 021c C7EE877A 		vdiv.f32	s15, s15, s14
 424 0220 17EE900A 		vmov	r0, s15
 425              	.LVL57:
 426 0224 FFF7FEFF 		bl	__aeabi_f2d
 427              	.LVL58:
 428 0228 CDE90401 		strd	r0, [sp, #16]
 429 022c CDF80CA0 		str	r10, [sp, #12]
 430 0230 A369     		ldr	r3, [r4, #24]
 431 0232 0293     		str	r3, [sp, #8]
 432              		.loc 1 120 0 discriminator 1
 433 0234 237F     		ldrb	r3, [r4, #28]	@ zero_extendqisi2
 434              		.loc 1 117 0 discriminator 1
 435 0236 56F82330 		ldr	r3, [r6, r3, lsl #2]
 436 023a 0193     		str	r3, [sp, #4]
 437              		.loc 1 119 0 discriminator 1
 438 023c A17F     		ldrb	r1, [r4, #30]	@ zero_extendqisi2
 439 023e 0139     		subs	r1, r1, #1
 440              		.loc 1 117 0 discriminator 1
 441 0240 4B46     		mov	r3, r9
 442 0242 4246     		mov	r2, r8
 443 0244 0091     		str	r1, [sp]
 444 0246 2846     		mov	r0, r5
 445 0248 2146     		mov	r1, r4
 446 024a FFF7FEFF 		bl	commands_printf
 447              	.LVL59:
 448              		.loc 1 122 0 discriminator 1
 449 024e 2046     		mov	r0, r4
 450 0250 FFF7FEFF 		bl	chRegNextThread
 451              	.LVL60:
 452              		.loc 1 123 0 discriminator 1
 453 0254 0446     		mov	r4, r0
 454 0256 0028     		cmp	r0, #0
 455 0258 D2D1     		bne	.L15
 456              	.LVL61:
ARM GAS  /tmp/ccHCUo6g.s 			page 9


 457              	.L250:
 458              	.LBE87:
 459              		.loc 1 482 0
 460 025a 2348     		ldr	r0, .L303
 461 025c FFF7FEFF 		bl	commands_printf
 462              	.LVL62:
 463 0260 41E7     		b	.L1
 464              	.LVL63:
 465              	.L280:
 466              		.loc 1 126 0
 467 0262 FFF7FEFF 		bl	mc_interface_get_fault
 468              	.LVL64:
 469 0266 FFF7FEFF 		bl	mc_interface_fault_to_string
 470              	.LVL65:
 471 026a 0146     		mov	r1, r0
 472 026c 4148     		ldr	r0, .L303+140
 473 026e FFF7FEFF 		bl	commands_printf
 474              	.LVL66:
 475 0272 38E7     		b	.L1
 476              	.L17:
 477              		.loc 1 176 0
 478 0274 4049     		ldr	r1, .L303+144
 479 0276 2846     		mov	r0, r5
 480 0278 FFF7FEFF 		bl	strcmp
 481              	.LVL67:
 482 027c 0028     		cmp	r0, #0
 483 027e 00F03981 		beq	.L282
 484              		.loc 1 178 0
 485 0282 3E49     		ldr	r1, .L303+148
 486 0284 2846     		mov	r0, r5
 487 0286 FFF7FEFF 		bl	strcmp
 488              	.LVL68:
 489 028a 0028     		cmp	r0, #0
 490 028c 00F02B81 		beq	.L283
 491              		.loc 1 180 0
 492 0290 3B49     		ldr	r1, .L303+152
 493 0292 2846     		mov	r0, r5
 494 0294 FFF7FEFF 		bl	strcmp
 495              	.LVL69:
 496 0298 0028     		cmp	r0, #0
 497 029a 00F06C81 		beq	.L284
 498              		.loc 1 205 0
 499 029e 3949     		ldr	r1, .L303+156
 500 02a0 2846     		mov	r0, r5
 501 02a2 FFF7FEFF 		bl	strcmp
 502              	.LVL70:
 503 02a6 0028     		cmp	r0, #0
 504 02a8 00F04D81 		beq	.L285
 505              		.loc 1 210 0
 506 02ac 3649     		ldr	r1, .L303+160
 507 02ae 2846     		mov	r0, r5
 508 02b0 FFF7FEFF 		bl	strcmp
 509              	.LVL71:
 510 02b4 0028     		cmp	r0, #0
 511 02b6 40F02981 		bne	.L26
 512              		.loc 1 212 0
 513 02ba 042C     		cmp	r4, #4
ARM GAS  /tmp/ccHCUo6g.s 			page 10


 514 02bc 00F0F681 		beq	.L286
 515              	.L27:
 516              		.loc 1 254 0
 517 02c0 3248     		ldr	r0, .L303+164
 518 02c2 FFF7FEFF 		bl	commands_printf
 519              	.LVL72:
 520 02c6 0EE7     		b	.L1
 521              	.L18:
 522              		.loc 1 131 0
 523 02c8 3148     		ldr	r0, .L303+168
 524 02ca FFF7FEFF 		bl	commands_printf
 525              	.LVL73:
 526              	.LBB90:
 527              		.loc 1 132 0
 528 02ce D8F80030 		ldr	r3, [r8]
 529 02d2 002B     		cmp	r3, #0
 530 02d4 7FF707AF 		ble	.L1
 531 02d8 2E4F     		ldr	r7, .L303+172
 532              		.loc 1 133 0
 533 02da DFF8C0B0 		ldr	fp, .L303+180
 534              		.loc 1 134 0
 535 02de DFF8C0A0 		ldr	r10, .L303+184
 536              		.loc 1 135 0
 537 02e2 DFF8C090 		ldr	r9, .L303+188
 538 02e6 68E0     		b	.L19
 539              	.L304:
 540              		.align	2
 541              	.L303:
 542 02e8 18000000 		.word	.LC4
 543 02ec 00000000 		.word	.LANCHOR0
 544 02f0 00000000 		.word	.LANCHOR1
 545 02f4 34000000 		.word	.LC6
 546 02f8 44000000 		.word	.LC8
 547 02fc 74000000 		.word	.LC12
 548 0300 8C000000 		.word	.LC14
 549 0304 10010000 		.word	.LC18
 550 0308 34010000 		.word	.LC20
 551 030c 8C010000 		.word	.LC24
 552 0310 44020000 		.word	.LC28
 553 0314 50020000 		.word	.LC30
 554 0318 58020000 		.word	.LC31
 555 031c 1C000000 		.word	.LC5
 556 0320 5C000000 		.word	.LC11
 557 0324 3C000000 		.word	.LC7
 558 0328 000080BF 		.word	-1082130432
 559 032c 50000000 		.word	.LC9
 560 0330 00007A44 		.word	1148846080
 561 0334 54000000 		.word	.LC10
 562 0338 00000000 		.word	0
 563 033c 7C000000 		.word	.LC13
 564 0340 38010000 		.word	.LC21
 565 0344 54010000 		.word	.LC22
 566 0348 6C010000 		.word	.LC23
 567 034c A0000000 		.word	.LC15
 568 0350 C0000000 		.word	.LC16
 569 0354 E8000000 		.word	.LC17
 570 0358 14010000 		.word	.LC19
ARM GAS  /tmp/ccHCUo6g.s 			page 11


 571 035c 94010000 		.word	.LC25
 572 0360 00000000 		.word	ch
 573 0364 00000000 		.word	.LANCHOR2
 574 0368 0000C842 		.word	1120403456
 575 036c 14020000 		.word	.LC27
 576 0370 D4010000 		.word	.LC26
 577 0374 4C020000 		.word	.LC29
 578 0378 A8040000 		.word	.LC54
 579 037c C8040000 		.word	.LC56
 580 0380 E8040000 		.word	.LC58
 581 0384 A0050000 		.word	.LC70
 582 0388 C0050000 		.word	.LC72
 583 038c FC060000 		.word	.LC81
 584 0390 7C020000 		.word	.LC32
 585 0394 00000000 		.word	.LANCHOR4
 586 0398 00000000 		.word	.LANCHOR3
 587 039c B0020000 		.word	.LC33
 588 03a0 C8020000 		.word	.LC34
 589 03a4 E0020000 		.word	.LC35
 590              	.LVL74:
 591              	.L20:
 592              		.loc 1 173 0 discriminator 2
 593 03a8 9648     		ldr	r0, .L305
 594 03aa FFF7FEFF 		bl	commands_printf
 595              	.LVL75:
 596              		.loc 1 132 0 discriminator 2
 597 03ae D8F80030 		ldr	r3, [r8]
 598 03b2 0136     		adds	r6, r6, #1
 599              	.LVL76:
 600 03b4 B342     		cmp	r3, r6
 601 03b6 7FF796AE 		ble	.L1
 602              	.LVL77:
 603              	.L19:
 604              		.loc 1 134 0
 605 03ba 06EB8605 		add	r5, r6, r6, lsl #2
 606 03be 2D01     		lsls	r5, r5, #4
 607              		.loc 1 133 0
 608 03c0 3146     		mov	r1, r6
 609 03c2 5846     		mov	r0, fp
 610 03c4 FFF7FEFF 		bl	commands_printf
 611              	.LVL78:
 612              		.loc 1 134 0
 613 03c8 785D     		ldrb	r0, [r7, r5]	@ zero_extendqisi2
 614 03ca FFF7FEFF 		bl	mc_interface_fault_to_string
 615              	.LVL79:
 616 03ce 7C19     		adds	r4, r7, r5
 617 03d0 0146     		mov	r1, r0
 618 03d2 5046     		mov	r0, r10
 619 03d4 FFF7FEFF 		bl	commands_printf
 620              	.LVL80:
 621              		.loc 1 135 0
 622 03d8 6068     		ldr	r0, [r4, #4]	@ float
 623 03da FFF7FEFF 		bl	__aeabi_f2d
 624              	.LVL81:
 625 03de 0246     		mov	r2, r0
 626 03e0 0B46     		mov	r3, r1
 627 03e2 4846     		mov	r0, r9
ARM GAS  /tmp/ccHCUo6g.s 			page 12


 628 03e4 FFF7FEFF 		bl	commands_printf
 629              	.LVL82:
 630              		.loc 1 136 0
 631 03e8 A068     		ldr	r0, [r4, #8]	@ float
 632 03ea FFF7FEFF 		bl	__aeabi_f2d
 633              	.LVL83:
 634 03ee 0246     		mov	r2, r0
 635 03f0 0B46     		mov	r3, r1
 636 03f2 8548     		ldr	r0, .L305+4
 637 03f4 FFF7FEFF 		bl	commands_printf
 638              	.LVL84:
 639              		.loc 1 137 0
 640 03f8 E068     		ldr	r0, [r4, #12]	@ float
 641 03fa FFF7FEFF 		bl	__aeabi_f2d
 642              	.LVL85:
 643 03fe 0246     		mov	r2, r0
 644 0400 0B46     		mov	r3, r1
 645 0402 8248     		ldr	r0, .L305+8
 646 0404 FFF7FEFF 		bl	commands_printf
 647              	.LVL86:
 648              		.loc 1 138 0
 649 0408 2069     		ldr	r0, [r4, #16]	@ float
 650 040a FFF7FEFF 		bl	__aeabi_f2d
 651              	.LVL87:
 652 040e 0246     		mov	r2, r0
 653 0410 0B46     		mov	r3, r1
 654 0412 7F48     		ldr	r0, .L305+12
 655 0414 FFF7FEFF 		bl	commands_printf
 656              	.LVL88:
 657              		.loc 1 139 0
 658 0418 6069     		ldr	r0, [r4, #20]	@ float
 659 041a FFF7FEFF 		bl	__aeabi_f2d
 660              	.LVL89:
 661 041e 0246     		mov	r2, r0
 662 0420 0B46     		mov	r3, r1
 663 0422 7C48     		ldr	r0, .L305+16
 664 0424 FFF7FEFF 		bl	commands_printf
 665              	.LVL90:
 666              		.loc 1 140 0
 667 0428 A069     		ldr	r0, [r4, #24]	@ float
 668 042a FFF7FEFF 		bl	__aeabi_f2d
 669              	.LVL91:
 670 042e 0246     		mov	r2, r0
 671 0430 0B46     		mov	r3, r1
 672 0432 7948     		ldr	r0, .L305+20
 673 0434 FFF7FEFF 		bl	commands_printf
 674              	.LVL92:
 675              		.loc 1 141 0
 676 0438 E069     		ldr	r0, [r4, #28]	@ float
 677 043a FFF7FEFF 		bl	__aeabi_f2d
 678              	.LVL93:
 679 043e 0246     		mov	r2, r0
 680 0440 0B46     		mov	r3, r1
 681 0442 7648     		ldr	r0, .L305+24
 682 0444 FFF7FEFF 		bl	commands_printf
 683              	.LVL94:
 684              		.loc 1 142 0
ARM GAS  /tmp/ccHCUo6g.s 			page 13


 685 0448 216A     		ldr	r1, [r4, #32]
 686 044a 7548     		ldr	r0, .L305+28
 687 044c FFF7FEFF 		bl	commands_printf
 688              	.LVL95:
 689              		.loc 1 146 0
 690 0450 A06A     		ldr	r0, [r4, #40]	@ float
 691 0452 FFF7FEFF 		bl	__aeabi_f2d
 692              	.LVL96:
 693 0456 0246     		mov	r2, r0
 694 0458 0B46     		mov	r3, r1
 695 045a 7248     		ldr	r0, .L305+32
 696 045c FFF7FEFF 		bl	commands_printf
 697              	.LVL97:
 698              		.loc 1 147 0
 699 0460 E06A     		ldr	r0, [r4, #44]	@ float
 700 0462 FFF7FEFF 		bl	__aeabi_f2d
 701              	.LVL98:
 702 0466 0246     		mov	r2, r0
 703 0468 0B46     		mov	r3, r1
 704 046a 6F48     		ldr	r0, .L305+36
 705 046c FFF7FEFF 		bl	commands_printf
 706              	.LVL99:
 707              		.loc 1 148 0
 708 0470 216B     		ldr	r1, [r4, #48]
 709 0472 6E48     		ldr	r0, .L305+40
 710 0474 FFF7FEFF 		bl	commands_printf
 711              	.LVL100:
 712              		.loc 1 149 0
 713 0478 616B     		ldr	r1, [r4, #52]
 714 047a 6D48     		ldr	r0, .L305+44
 715 047c FFF7FEFF 		bl	commands_printf
 716              	.LVL101:
 717              		.loc 1 150 0
 718 0480 D4ED107A 		vldr.32	s15, [r4, #64]	@ int
 719 0484 94ED0A7A 		vldr.32	s14, [r4, #40]
 720 0488 6A48     		ldr	r0, .L305+48
 721 048a F8EEE77A 		vcvt.f32.s32	s15, s15
 722 048e 67EE877A 		vmul.f32	s15, s15, s14
 723 0492 FDEEE77A 		vcvt.s32.f32	s15, s15
 724 0496 17EE901A 		vmov	r1, s15	@ int
 725 049a FFF7FEFF 		bl	commands_printf
 726              	.LVL102:
 727              		.loc 1 151 0
 728 049e A16B     		ldr	r1, [r4, #56]
 729 04a0 6548     		ldr	r0, .L305+52
 730 04a2 FFF7FEFF 		bl	commands_printf
 731              	.LVL103:
 732              		.loc 1 152 0
 733 04a6 E16B     		ldr	r1, [r4, #60]
 734 04a8 6448     		ldr	r0, .L305+56
 735 04aa FFF7FEFF 		bl	commands_printf
 736              	.LVL104:
 737              		.loc 1 153 0
 738 04ae 216C     		ldr	r1, [r4, #64]
 739 04b0 6348     		ldr	r0, .L305+60
 740 04b2 FFF7FEFF 		bl	commands_printf
 741              	.LVL105:
ARM GAS  /tmp/ccHCUo6g.s 			page 14


 742              		.loc 1 154 0
 743 04b6 616C     		ldr	r1, [r4, #68]
 744 04b8 6248     		ldr	r0, .L305+64
 745 04ba FFF7FEFF 		bl	commands_printf
 746              	.LVL106:
 747              		.loc 1 155 0
 748 04be A06C     		ldr	r0, [r4, #72]	@ float
 749 04c0 FFF7FEFF 		bl	__aeabi_f2d
 750              	.LVL107:
 751 04c4 0246     		mov	r2, r0
 752 04c6 0B46     		mov	r3, r1
 753 04c8 5F48     		ldr	r0, .L305+68
 754 04ca FFF7FEFF 		bl	commands_printf
 755              	.LVL108:
 756              		.loc 1 169 0
 757 04ce 7B5D     		ldrb	r3, [r7, r5]	@ zero_extendqisi2
 758 04d0 032B     		cmp	r3, #3
 759 04d2 7FF469AF 		bne	.L20
 760              		.loc 1 170 0
 761 04d6 E06C     		ldr	r0, [r4, #76]
 762 04d8 FFF7FEFF 		bl	drv8350_faults_to_string
 763              	.LVL109:
 764 04dc 0146     		mov	r1, r0
 765 04de 5B48     		ldr	r0, .L305+72
 766 04e0 FFF7FEFF 		bl	commands_printf
 767              	.LVL110:
 768 04e4 60E7     		b	.L20
 769              	.LVL111:
 770              	.L283:
 771              	.LBE90:
 772              		.loc 1 179 0
 773 04e6 FFF7FEFF 		bl	mc_interface_get_tachometer_value
 774              	.LVL112:
 775 04ea 0146     		mov	r1, r0
 776 04ec 5848     		ldr	r0, .L305+76
 777 04ee FFF7FEFF 		bl	commands_printf
 778              	.LVL113:
 779 04f2 F8E5     		b	.L1
 780              	.L282:
 781              		.loc 1 177 0
 782 04f4 FFF7FEFF 		bl	mc_interface_get_rpm
 783              	.LVL114:
 784 04f8 10EE100A 		vmov	r0, s0
 785 04fc FFF7FEFF 		bl	__aeabi_f2d
 786              	.LVL115:
 787 0500 0246     		mov	r2, r0
 788 0502 0B46     		mov	r3, r1
 789 0504 5348     		ldr	r0, .L305+80
 790 0506 FFF7FEFF 		bl	commands_printf
 791              	.LVL116:
 792 050a ECE5     		b	.L1
 793              	.L26:
 794              		.loc 1 256 0
 795 050c 5249     		ldr	r1, .L305+84
 796 050e 2846     		mov	r0, r5
 797 0510 FFF7FEFF 		bl	strcmp
 798              	.LVL117:
ARM GAS  /tmp/ccHCUo6g.s 			page 15


 799 0514 0028     		cmp	r0, #0
 800 0516 00F09D82 		beq	.L287
 801              		.loc 1 261 0
 802 051a 5049     		ldr	r1, .L305+88
 803 051c 2846     		mov	r0, r5
 804 051e FFF7FEFF 		bl	strcmp
 805              	.LVL118:
 806 0522 0646     		mov	r6, r0
 807 0524 0028     		cmp	r0, #0
 808 0526 00F00782 		beq	.L288
 809              		.loc 1 275 0
 810 052a 4D49     		ldr	r1, .L305+92
 811 052c 2846     		mov	r0, r5
 812 052e FFF7FEFF 		bl	strcmp
 813              	.LVL119:
 814 0532 0028     		cmp	r0, #0
 815 0534 40F07D81 		bne	.L46
 816              		.loc 1 276 0
 817 0538 022C     		cmp	r4, #2
 818 053a 00F02981 		beq	.L289
 819              	.L47:
 820              		.loc 1 304 0
 821 053e 4948     		ldr	r0, .L305+96
 822 0540 FFF7FEFF 		bl	commands_printf
 823              	.LVL120:
 824 0544 CFE5     		b	.L1
 825              	.L285:
 826              		.loc 1 206 0
 827 0546 484B     		ldr	r3, .L305+100
 828 0548 DFED486A 		vldr.32	s13, .L305+104
 829 054c DB8A     		ldrh	r3, [r3, #22]
 830 054e 9FED487A 		vldr.32	s14, .L305+108
 831 0552 07EE903A 		vmov	s15, r3	@ int
 832 0556 F8EE677A 		vcvt.f32.u32	s15, s15
 833 055a 67EEA67A 		vmul.f32	s15, s15, s13
 834 055e 67EE877A 		vmul.f32	s15, s15, s14
 835 0562 17EE900A 		vmov	r0, s15
 836 0566 FFF7FEFF 		bl	__aeabi_f2d
 837              	.LVL121:
 838 056a 0246     		mov	r2, r0
 839 056c 0B46     		mov	r3, r1
 840 056e 4148     		ldr	r0, .L305+112
 841 0570 FFF7FEFF 		bl	commands_printf
 842              	.LVL122:
 843 0574 B7E5     		b	.L1
 844              	.L284:
 845              	.LBB91:
 846              	.LBB92:
 847              	.LBB93:
 848              	.LBB94:
 849              	.LBB95:
 850              		.file 3 "ChibiOS_3.0.2/os/ext/CMSIS/include/core_cmFunc.h"
 851              		.loc 3 342 0
 852              		.syntax unified
 853              	@ 342 "ChibiOS_3.0.2/os/ext/CMSIS/include/core_cmFunc.h" 1
 854 0576 72B6     		cpsid i
 855              	@ 0 "" 2
ARM GAS  /tmp/ccHCUo6g.s 			page 16


 856              		.thumb
 857              		.syntax unified
 858              	.LBE95:
 859              	.LBE94:
 860              	.LBE93:
 861              	.LBE92:
 862              		.loc 1 182 0
 863 0578 3F4B     		ldr	r3, .L305+116
 864              		.loc 1 183 0
 865 057a 404A     		ldr	r2, .L305+120
 866              		.loc 1 182 0
 867 057c 596A     		ldr	r1, [r3, #36]
 868 057e 0E91     		str	r1, [sp, #56]
 869              		.loc 1 183 0
 870 0580 516A     		ldr	r1, [r2, #36]
 871 0582 0F91     		str	r1, [sp, #60]
 872              		.loc 1 184 0
 873 0584 1968     		ldr	r1, [r3]
 874 0586 C1F30011 		ubfx	r1, r1, #4, #1
 875 058a 1091     		str	r1, [sp, #64]
 876              		.loc 1 185 0
 877 058c 1168     		ldr	r1, [r2]
 878 058e C1F30011 		ubfx	r1, r1, #4, #1
 879 0592 1191     		str	r1, [sp, #68]
 880              	.LBB96:
 881              	.LBB97:
 882              	.LBB98:
 883              	.LBB99:
 884              	.LBB100:
 885              		.loc 3 331 0
 886              		.syntax unified
 887              	@ 331 "ChibiOS_3.0.2/os/ext/CMSIS/include/core_cmFunc.h" 1
 888 0594 62B6     		cpsie i
 889              	@ 0 "" 2
 890              		.thumb
 891              		.syntax unified
 892              	.LBE100:
 893              	.LBE99:
 894              	.LBE98:
 895              	.LBE97:
 896              	.LBE96:
 897              		.loc 1 194 0
 898 0596 3A48     		ldr	r0, .L305+124
 899              		.loc 1 187 0
 900 0598 D3F834A0 		ldr	r10, [r3, #52]
 901              	.LVL123:
 902              		.loc 1 188 0
 903 059c D3F83890 		ldr	r9, [r3, #56]
 904              	.LVL124:
 905              		.loc 1 189 0
 906 05a0 D3F83C80 		ldr	r8, [r3, #60]
 907              	.LVL125:
 908              		.loc 1 190 0
 909 05a4 DF6A     		ldr	r7, [r3, #44]
 910              	.LVL126:
 911              		.loc 1 191 0
 912 05a6 566B     		ldr	r6, [r2, #52]
ARM GAS  /tmp/ccHCUo6g.s 			page 17


 913              	.LVL127:
 914              		.loc 1 192 0
 915 05a8 1D6C     		ldr	r5, [r3, #64]
 916              	.LVL128:
 917              		.loc 1 193 0
 918 05aa 946B     		ldr	r4, [r2, #56]
 919              	.LVL129:
 920              		.loc 1 194 0
 921 05ac 0E99     		ldr	r1, [sp, #56]
 922 05ae FFF7FEFF 		bl	commands_printf
 923              	.LVL130:
 924              		.loc 1 195 0
 925 05b2 0F99     		ldr	r1, [sp, #60]
 926 05b4 3348     		ldr	r0, .L305+128
 927 05b6 FFF7FEFF 		bl	commands_printf
 928              	.LVL131:
 929              		.loc 1 196 0
 930 05ba 5146     		mov	r1, r10
 931 05bc 3248     		ldr	r0, .L305+132
 932 05be FFF7FEFF 		bl	commands_printf
 933              	.LVL132:
 934              		.loc 1 197 0
 935 05c2 4946     		mov	r1, r9
 936 05c4 3148     		ldr	r0, .L305+136
 937 05c6 FFF7FEFF 		bl	commands_printf
 938              	.LVL133:
 939              		.loc 1 198 0
 940 05ca 4146     		mov	r1, r8
 941 05cc 3048     		ldr	r0, .L305+140
 942 05ce FFF7FEFF 		bl	commands_printf
 943              	.LVL134:
 944              		.loc 1 199 0
 945 05d2 3946     		mov	r1, r7
 946 05d4 2F48     		ldr	r0, .L305+144
 947 05d6 FFF7FEFF 		bl	commands_printf
 948              	.LVL135:
 949              		.loc 1 200 0
 950 05da 1099     		ldr	r1, [sp, #64]
 951 05dc 2E48     		ldr	r0, .L305+148
 952 05de FFF7FEFF 		bl	commands_printf
 953              	.LVL136:
 954              		.loc 1 201 0
 955 05e2 1199     		ldr	r1, [sp, #68]
 956 05e4 2D48     		ldr	r0, .L305+152
 957 05e6 FFF7FEFF 		bl	commands_printf
 958              	.LVL137:
 959              		.loc 1 202 0
 960 05ea 3146     		mov	r1, r6
 961 05ec 2C48     		ldr	r0, .L305+156
 962 05ee FFF7FEFF 		bl	commands_printf
 963              	.LVL138:
 964              		.loc 1 203 0
 965 05f2 2946     		mov	r1, r5
 966 05f4 2B48     		ldr	r0, .L305+160
 967 05f6 FFF7FEFF 		bl	commands_printf
 968              	.LVL139:
 969              		.loc 1 204 0
ARM GAS  /tmp/ccHCUo6g.s 			page 18


 970 05fa 2146     		mov	r1, r4
 971 05fc 2A48     		ldr	r0, .L305+164
 972 05fe FFF7FEFF 		bl	commands_printf
 973              	.LVL140:
 974              	.LBE91:
 975 0602 70E5     		b	.L1
 976              	.L306:
 977              		.align	2
 978              	.L305:
 979 0604 18000000 		.word	.LC4
 980 0608 F8020000 		.word	.LC36
 981 060c 10030000 		.word	.LC37
 982 0610 28030000 		.word	.LC38
 983 0614 40030000 		.word	.LC39
 984 0618 58030000 		.word	.LC40
 985 061c 70030000 		.word	.LC41
 986 0620 88030000 		.word	.LC42
 987 0624 A0030000 		.word	.LC43
 988 0628 B8030000 		.word	.LC44
 989 062c D0030000 		.word	.LC45
 990 0630 E8030000 		.word	.LC46
 991 0634 00040000 		.word	.LC47
 992 0638 18040000 		.word	.LC48
 993 063c 30040000 		.word	.LC49
 994 0640 48040000 		.word	.LC50
 995 0644 60040000 		.word	.LC51
 996 0648 78040000 		.word	.LC52
 997 064c 90040000 		.word	.LC53
 998 0650 D0040000 		.word	.LC57
 999 0654 AC040000 		.word	.LC55
 1000 0658 24070000 		.word	.LC82
 1001 065c 80070000 		.word	.LC86
 1002 0660 5C080000 		.word	.LC94
 1003 0664 B8080000 		.word	.LC99
 1004 0668 00000000 		.word	ADC_Value
 1005 066c C07B523A 		.word	978484160
 1006 0670 BAE8B241 		.word	1102244026
 1007 0674 A8050000 		.word	.LC71
 1008 0678 00000140 		.word	1073807360
 1009 067c 00040140 		.word	1073808384
 1010 0680 EC040000 		.word	.LC59
 1011 0684 FC040000 		.word	.LC60
 1012 0688 0C050000 		.word	.LC61
 1013 068c 1C050000 		.word	.LC62
 1014 0690 2C050000 		.word	.LC63
 1015 0694 3C050000 		.word	.LC64
 1016 0698 44050000 		.word	.LC65
 1017 069c 50050000 		.word	.LC66
 1018 06a0 5C050000 		.word	.LC67
 1019 06a4 70050000 		.word	.LC68
 1020 06a8 88050000 		.word	.LC69
 1021              	.LVL141:
 1022              	.L286:
 1023              	.LBB101:
 1024              		.loc 1 213 0
 1025 06ac A64B     		ldr	r3, .L307
 1026              		.loc 1 216 0
ARM GAS  /tmp/ccHCUo6g.s 			page 19


 1027 06ae A749     		ldr	r1, .L307+4
 1028 06b0 1998     		ldr	r0, [sp, #100]
 1029              		.loc 1 213 0
 1030 06b2 0B93     		str	r3, [sp, #44]	@ float
 1031              		.loc 1 216 0
 1032 06b4 0BAA     		add	r2, sp, #44
 1033              		.loc 1 214 0
 1034 06b6 0C93     		str	r3, [sp, #48]	@ float
 1035              		.loc 1 215 0
 1036 06b8 0D93     		str	r3, [sp, #52]	@ float
 1037              		.loc 1 216 0
 1038 06ba FFF7FEFF 		bl	sscanf
 1039              	.LVL142:
 1040              		.loc 1 217 0
 1041 06be 0CAA     		add	r2, sp, #48
 1042 06c0 A249     		ldr	r1, .L307+4
 1043 06c2 1A98     		ldr	r0, [sp, #104]
 1044 06c4 FFF7FEFF 		bl	sscanf
 1045              	.LVL143:
 1046              		.loc 1 218 0
 1047 06c8 0DAA     		add	r2, sp, #52
 1048 06ca 1B98     		ldr	r0, [sp, #108]
 1049 06cc 9F49     		ldr	r1, .L307+4
 1050 06ce FFF7FEFF 		bl	sscanf
 1051              	.LVL144:
 1052              		.loc 1 220 0
 1053 06d2 9DED0B0A 		vldr.32	s0, [sp, #44]
 1054 06d6 B5EEC00A 		vcmpe.f32	s0, #0
 1055 06da F1EE10FA 		vmrs	APSR_nzcv, FPSCR
 1056 06de 7FF709AD 		ble	.L248
 1057              		.loc 1 220 0 is_stmt 0 discriminator 1
 1058 06e2 9B4B     		ldr	r3, .L307+8
 1059 06e4 D3ED017A 		vldr.32	s15, [r3, #4]
 1060 06e8 B4EEE70A 		vcmpe.f32	s0, s15
 1061 06ec F1EE10FA 		vmrs	APSR_nzcv, FPSCR
 1062 06f0 7FF500AD 		bpl	.L248
 1063              		.loc 1 221 0 is_stmt 1 discriminator 2
 1064 06f4 DDED0C0A 		vldr.32	s1, [sp, #48]
 1065              		.loc 1 220 0 discriminator 2
 1066 06f8 F2EE047A 		vmov.f32	s15, #1.0e+1
 1067 06fc F4EEE70A 		vcmpe.f32	s1, s15
 1068 0700 F1EE10FA 		vmrs	APSR_nzcv, FPSCR
 1069 0704 7FF7F6AC 		ble	.L248
 1070              		.loc 1 221 0
 1071 0708 DFED927A 		vldr.32	s15, .L307+12
 1072 070c F4EEE70A 		vcmpe.f32	s1, s15
 1073 0710 F1EE10FA 		vmrs	APSR_nzcv, FPSCR
 1074 0714 7FF5EEAC 		bpl	.L248
 1075              		.loc 1 222 0 discriminator 1
 1076 0718 9DED0D1A 		vldr.32	s2, [sp, #52]
 1077              		.loc 1 221 0 discriminator 1
 1078 071c DFED8E7A 		vldr.32	s15, .L307+16
 1079 0720 B4EEE71A 		vcmpe.f32	s2, s15
 1080 0724 F1EE10FA 		vmrs	APSR_nzcv, FPSCR
 1081 0728 7FF7E4AC 		ble	.L248
 1082              		.loc 1 222 0
 1083 072c DFED8B7A 		vldr.32	s15, .L307+20
ARM GAS  /tmp/ccHCUo6g.s 			page 20


 1084 0730 B4EEE71A 		vcmpe.f32	s2, s15
 1085 0734 F1EE10FA 		vmrs	APSR_nzcv, FPSCR
 1086 0738 7FF5DCAC 		bpl	.L248
 1087              	.LBB102:
 1088              		.loc 1 228 0
 1089 073c 10AB     		add	r3, sp, #64
 1090 073e 11AA     		add	r2, sp, #68
 1091 0740 0FA9     		add	r1, sp, #60
 1092 0742 0EA8     		add	r0, sp, #56
 1093 0744 FFF7FEFF 		bl	conf_general_detect_motor_param
 1094              	.LVL145:
 1095 0748 0028     		cmp	r0, #0
 1096 074a 00F03E82 		beq	.L35
 1097              		.loc 1 229 0
 1098 074e 0E98     		ldr	r0, [sp, #56]	@ float
 1099 0750 FFF7FEFF 		bl	__aeabi_f2d
 1100              	.LVL146:
 1101 0754 0246     		mov	r2, r0
 1102 0756 0B46     		mov	r3, r1
 1103 0758 8148     		ldr	r0, .L307+24
 1104 075a FFF7FEFF 		bl	commands_printf
 1105              	.LVL147:
 1106              		.loc 1 230 0
 1107 075e 0F98     		ldr	r0, [sp, #60]	@ float
 1108 0760 FFF7FEFF 		bl	__aeabi_f2d
 1109              	.LVL148:
 1110 0764 0246     		mov	r2, r0
 1111 0766 0B46     		mov	r3, r1
 1112 0768 7E48     		ldr	r0, .L307+28
 1113 076a FFF7FEFF 		bl	commands_printf
 1114              	.LVL149:
 1115              		.loc 1 232 0
 1116 076e 109B     		ldr	r3, [sp, #64]
 1117 0770 002B     		cmp	r3, #0
 1118 0772 00F00D82 		beq	.L290
 1119              		.loc 1 237 0
 1120 0776 591C     		adds	r1, r3, #1
 1121 0778 00F02C82 		beq	.L291
 1122              		.loc 1 242 0
 1123 077c 9A1C     		adds	r2, r3, #2
 1124 077e 00F00282 		beq	.L292
 1125              		.loc 1 244 0
 1126 0782 0333     		adds	r3, r3, #3
 1127 0784 7FF4AFAC 		bne	.L1
 1128              		.loc 1 245 0
 1129 0788 7748     		ldr	r0, .L307+32
 1130 078a FFF7FEFF 		bl	commands_printf
 1131              	.LVL150:
 1132 078e AAE4     		b	.L1
 1133              	.L289:
 1134              	.LBE102:
 1135              	.LBE101:
 1136              	.LBB105:
 1137              		.loc 1 277 0
 1138 0790 0FAE     		add	r6, sp, #60
 1139 0792 6D4B     		ldr	r3, .L307
 1140              		.loc 1 278 0
ARM GAS  /tmp/ccHCUo6g.s 			page 21


 1141 0794 1998     		ldr	r0, [sp, #100]
 1142 0796 6D49     		ldr	r1, .L307+4
 1143              		.loc 1 277 0
 1144 0798 0F93     		str	r3, [sp, #60]	@ float
 1145              		.loc 1 278 0
 1146 079a 3246     		mov	r2, r6
 1147 079c FFF7FEFF 		bl	sscanf
 1148              	.LVL151:
 1149              		.loc 1 280 0
 1150 07a0 D6ED007A 		vldr.32	s15, [r6]
 1151 07a4 F5EEC07A 		vcmpe.f32	s15, #0
 1152 07a8 F1EE10FA 		vmrs	APSR_nzcv, FPSCR
 1153 07ac 7FF7A2AC 		ble	.L248
 1154              		.loc 1 280 0 is_stmt 0 discriminator 1
 1155 07b0 674C     		ldr	r4, .L307+8
 1156              	.LVL152:
 1157 07b2 94ED017A 		vldr.32	s14, [r4, #4]
 1158 07b6 F4EEC77A 		vcmpe.f32	s15, s14
 1159 07ba F1EE10FA 		vmrs	APSR_nzcv, FPSCR
 1160 07be 3FF699AC 		bhi	.L248
 1161              		.loc 1 281 0 is_stmt 1
 1162 07c2 FFF7FEFF 		bl	encoder_is_configured
 1163              	.LVL153:
 1164 07c6 0028     		cmp	r0, #0
 1165 07c8 6DD0     		beq	.L51
 1166              	.LBB106:
 1167              		.loc 1 283 0
 1168 07ca 0223     		movs	r3, #2
 1169              		.loc 1 284 0
 1170 07cc 2046     		mov	r0, r4
 1171              		.loc 1 282 0
 1172 07ce A778     		ldrb	r7, [r4, #2]	@ zero_extendqisi2
 1173              	.LVL154:
 1174              		.loc 1 283 0
 1175 07d0 A370     		strb	r3, [r4, #2]
 1176              		.loc 1 286 0
 1177 07d2 0025     		movs	r5, #0
 1178              		.loc 1 284 0
 1179 07d4 FFF7FEFF 		bl	mc_interface_set_configuration
 1180              	.LVL155:
 1181              		.loc 1 289 0
 1182 07d8 96ED000A 		vldr.32	s0, [r6]
 1183              		.loc 1 286 0
 1184 07dc 1095     		str	r5, [sp, #64]	@ float
 1185              		.loc 1 289 0
 1186 07de 11AA     		add	r2, sp, #68
 1187 07e0 0EAB     		add	r3, sp, #56
 1188 07e2 10A9     		add	r1, sp, #64
 1189              		.loc 1 288 0
 1190 07e4 0026     		movs	r6, #0
 1191              		.loc 1 289 0
 1192 07e6 0120     		movs	r0, #1
 1193              		.loc 1 287 0
 1194 07e8 1195     		str	r5, [sp, #68]	@ float
 1195              		.loc 1 288 0
 1196 07ea 8DF83860 		strb	r6, [sp, #56]
 1197              		.loc 1 289 0
ARM GAS  /tmp/ccHCUo6g.s 			page 22


 1198 07ee FFF7FEFF 		bl	mcpwm_foc_encoder_detect
 1199              	.LVL156:
 1200              		.loc 1 292 0
 1201 07f2 2046     		mov	r0, r4
 1202              		.loc 1 291 0
 1203 07f4 A770     		strb	r7, [r4, #2]
 1204              		.loc 1 292 0
 1205 07f6 FFF7FEFF 		bl	mc_interface_set_configuration
 1206              	.LVL157:
 1207              		.loc 1 294 0
 1208 07fa 1098     		ldr	r0, [sp, #64]	@ float
 1209 07fc FFF7FEFF 		bl	__aeabi_f2d
 1210              	.LVL158:
 1211 0800 0246     		mov	r2, r0
 1212 0802 0B46     		mov	r3, r1
 1213 0804 5948     		ldr	r0, .L307+36
 1214 0806 FFF7FEFF 		bl	commands_printf
 1215              	.LVL159:
 1216              		.loc 1 295 0
 1217 080a 1198     		ldr	r0, [sp, #68]	@ float
 1218 080c FFF7FEFF 		bl	__aeabi_f2d
 1219              	.LVL160:
 1220 0810 0246     		mov	r2, r0
 1221 0812 0B46     		mov	r3, r1
 1222 0814 5648     		ldr	r0, .L307+40
 1223 0816 FFF7FEFF 		bl	commands_printf
 1224              	.LVL161:
 1225              		.loc 1 296 0
 1226 081a 9DF83810 		ldrb	r1, [sp, #56]	@ zero_extendqisi2
 1227 081e 554A     		ldr	r2, .L307+44
 1228 0820 554B     		ldr	r3, .L307+48
 1229 0822 5648     		ldr	r0, .L307+52
 1230 0824 B142     		cmp	r1, r6
 1231 0826 0CBF     		ite	eq
 1232 0828 1146     		moveq	r1, r2
 1233 082a 1946     		movne	r1, r3
 1234 082c FFF7FEFF 		bl	commands_printf
 1235              	.LVL162:
 1236              	.LBE106:
 1237 0830 59E4     		b	.L1
 1238              	.LVL163:
 1239              	.L46:
 1240              	.LBE105:
 1241              		.loc 1 306 0
 1242 0832 5349     		ldr	r1, .L307+56
 1243 0834 2846     		mov	r0, r5
 1244 0836 FFF7FEFF 		bl	strcmp
 1245              	.LVL164:
 1246 083a 0028     		cmp	r0, #0
 1247 083c 37D1     		bne	.L54
 1248              		.loc 1 307 0
 1249 083e 022C     		cmp	r4, #2
 1250 0840 7FF47DAE 		bne	.L47
 1251              	.LBB107:
 1252              		.loc 1 308 0
 1253 0844 11AD     		add	r5, sp, #68
 1254 0846 404B     		ldr	r3, .L307
ARM GAS  /tmp/ccHCUo6g.s 			page 23


 1255              		.loc 1 309 0
 1256 0848 1998     		ldr	r0, [sp, #100]
 1257 084a 4049     		ldr	r1, .L307+4
 1258              		.loc 1 308 0
 1259 084c 1193     		str	r3, [sp, #68]	@ float
 1260              		.loc 1 309 0
 1261 084e 2A46     		mov	r2, r5
 1262 0850 FFF7FEFF 		bl	sscanf
 1263              	.LVL165:
 1264              		.loc 1 311 0
 1265 0854 D5ED007A 		vldr.32	s15, [r5]
 1266 0858 F5EEC07A 		vcmpe.f32	s15, #0
 1267 085c F1EE10FA 		vmrs	APSR_nzcv, FPSCR
 1268 0860 7FF748AC 		ble	.L248
 1269              		.loc 1 311 0 is_stmt 0 discriminator 1
 1270 0864 3A4B     		ldr	r3, .L307+8
 1271 0866 93ED017A 		vldr.32	s14, [r3, #4]
 1272 086a F4EEC77A 		vcmpe.f32	s15, s14
 1273 086e F1EE10FA 		vmrs	APSR_nzcv, FPSCR
 1274 0872 3FF63FAC 		bhi	.L248
 1275              		.loc 1 312 0 is_stmt 1
 1276 0876 0222     		movs	r2, #2
 1277              		.loc 1 313 0
 1278 0878 1846     		mov	r0, r3
 1279              		.loc 1 312 0
 1280 087a 9A70     		strb	r2, [r3, #2]
 1281              		.loc 1 313 0
 1282 087c FFF7FEFF 		bl	mc_interface_set_configuration
 1283              	.LVL166:
 1284              		.loc 1 315 0
 1285 0880 4FF4FA60 		mov	r0, #2000
 1286 0884 95ED000A 		vldr.32	s0, [r5]
 1287 0888 FFF7FEFF 		bl	mcpwm_foc_measure_resistance
 1288              	.LVL167:
 1289 088c 10EE100A 		vmov	r0, s0
 1290 0890 FFF7FEFF 		bl	__aeabi_f2d
 1291              	.LVL168:
 1292 0894 0246     		mov	r2, r0
 1293 0896 0B46     		mov	r3, r1
 1294 0898 3A48     		ldr	r0, .L307+60
 1295 089a FFF7FEFF 		bl	commands_printf
 1296              	.LVL169:
 1297              		.loc 1 317 0
 1298 089e 3A48     		ldr	r0, .L307+64
 1299 08a0 FFF7FEFF 		bl	mc_interface_set_configuration
 1300              	.LVL170:
 1301 08a4 1FE4     		b	.L1
 1302              	.LVL171:
 1303              	.L51:
 1304              	.LBE107:
 1305              	.LBB108:
 1306              		.loc 1 298 0
 1307 08a6 3948     		ldr	r0, .L307+68
 1308 08a8 FFF7FEFF 		bl	commands_printf
 1309              	.LVL172:
 1310 08ac 1BE4     		b	.L1
 1311              	.LVL173:
ARM GAS  /tmp/ccHCUo6g.s 			page 24


 1312              	.L54:
 1313              	.LBE108:
 1314              		.loc 1 324 0
 1315 08ae 3849     		ldr	r1, .L307+72
 1316 08b0 2846     		mov	r0, r5
 1317 08b2 FFF7FEFF 		bl	strcmp
 1318              	.LVL174:
 1319 08b6 0028     		cmp	r0, #0
 1320 08b8 40F0E980 		bne	.L59
 1321              		.loc 1 325 0
 1322 08bc 022C     		cmp	r4, #2
 1323 08be 7FF43EAE 		bne	.L47
 1324              	.LBB109:
 1325              		.loc 1 326 0
 1326 08c2 214B     		ldr	r3, .L307
 1327              		.loc 1 327 0
 1328 08c4 1998     		ldr	r0, [sp, #100]
 1329 08c6 2149     		ldr	r1, .L307+4
 1330              		.loc 1 326 0
 1331 08c8 1093     		str	r3, [sp, #64]	@ float
 1332              		.loc 1 327 0
 1333 08ca 10AA     		add	r2, sp, #64
 1334 08cc FFF7FEFF 		bl	sscanf
 1335              	.LVL175:
 1336              		.loc 1 329 0
 1337 08d0 DDED107A 		vldr.32	s15, [sp, #64]
 1338 08d4 F5EEC07A 		vcmpe.f32	s15, #0
 1339 08d8 F1EE10FA 		vmrs	APSR_nzcv, FPSCR
 1340 08dc 7FF70AAC 		ble	.L248
 1341              		.loc 1 329 0 is_stmt 0 discriminator 1
 1342 08e0 9FED2C7A 		vldr.32	s14, .L307+76
 1343 08e4 F4EEC77A 		vcmpe.f32	s15, s14
 1344 08e8 F1EE10FA 		vmrs	APSR_nzcv, FPSCR
 1345 08ec 7FF502AC 		bpl	.L248
 1346              	.LBB110:
 1347              		.loc 1 330 0 is_stmt 1
 1348 08f0 174B     		ldr	r3, .L307+8
 1349              		.loc 1 331 0
 1350 08f2 294A     		ldr	r2, .L307+80
 1351 08f4 C3F8B420 		str	r2, [r3, #180]	@ float
 1352              		.loc 1 332 0
 1353 08f8 1846     		mov	r0, r3
 1354              		.loc 1 330 0
 1355 08fa 0221     		movs	r1, #2
 1356 08fc 9970     		strb	r1, [r3, #2]
 1357              		.loc 1 332 0
 1358 08fe FFF7FEFF 		bl	mc_interface_set_configuration
 1359              	.LVL176:
 1360              		.loc 1 335 0
 1361 0902 11A9     		add	r1, sp, #68
 1362 0904 C820     		movs	r0, #200
 1363 0906 9DED100A 		vldr.32	s0, [sp, #64]
 1364 090a FFF7FEFF 		bl	mcpwm_foc_measure_inductance
 1365              	.LVL177:
 1366              		.loc 1 336 0
 1367 090e 10EE100A 		vmov	r0, s0
 1368 0912 FFF7FEFF 		bl	__aeabi_f2d
ARM GAS  /tmp/ccHCUo6g.s 			page 25


 1369              	.LVL178:
 1370 0916 0446     		mov	r4, r0
 1371              	.LVL179:
 1372 0918 1198     		ldr	r0, [sp, #68]	@ float
 1373 091a 0D46     		mov	r5, r1
 1374 091c FFF7FEFF 		bl	__aeabi_f2d
 1375              	.LVL180:
 1376 0920 2246     		mov	r2, r4
 1377 0922 CDE90001 		strd	r0, [sp]
 1378 0926 2B46     		mov	r3, r5
 1379 0928 1C48     		ldr	r0, .L307+84
 1380 092a FFF7FEFF 		bl	commands_printf
 1381              	.LVL181:
 1382              		.loc 1 338 0
 1383 092e 1648     		ldr	r0, .L307+64
 1384 0930 FFF7FEFF 		bl	mc_interface_set_configuration
 1385              	.LVL182:
 1386              	.LBE110:
 1387              		.loc 1 329 0
 1388 0934 FFF7D7BB 		b	.L1
 1389              	.LVL183:
 1390              	.L288:
 1391              	.LBE109:
 1392              		.loc 1 262 0
 1393 0938 1948     		ldr	r0, .L307+88
 1394              	.LBB111:
 1395              	.LBB112:
 1396              	.LBB113:
 1397              	.LBB114:
 1398              	.LBB115:
 1399              	.LBB116:
 1400              		.loc 2 231 0
 1401 093a 1A4D     		ldr	r5, .L307+92
 1402              	.LBE116:
 1403              	.LBE115:
 1404              	.LBE114:
 1405              	.LBE113:
 1406              		.loc 1 266 0
 1407 093c 9FED1A8A 		vldr.32	s16, .L307+96
 1408              		.loc 1 267 0
 1409 0940 1A4F     		ldr	r7, .L307+100
 1410              	.LBE112:
 1411              	.LBE111:
 1412              		.loc 1 262 0
 1413 0942 FFF7FEFF 		bl	commands_printf
 1414              	.LVL184:
 1415 0946 36E0     		b	.L45
 1416              	.L308:
 1417              		.align	2
 1418              	.L307:
 1419 0948 000080BF 		.word	-1082130432
 1420 094c 50000000 		.word	.LC9
 1421 0950 00000000 		.word	.LANCHOR0
 1422 0954 00803B45 		.word	1161527296
 1423 0958 0AD7A33C 		.word	1017370378
 1424 095c CDCC4C3F 		.word	1061997773
 1425 0960 D0050000 		.word	.LC73
ARM GAS  /tmp/ccHCUo6g.s 			page 26


 1426 0964 F0050000 		.word	.LC74
 1427 0968 94060000 		.word	.LC79
 1428 096c 70080000 		.word	.LC95
 1429 0970 80080000 		.word	.LC96
 1430 0974 08000000 		.word	.LC1
 1431 0978 00000000 		.word	.LC0
 1432 097c 90080000 		.word	.LC97
 1433 0980 E0080000 		.word	.LC100
 1434 0984 EC080000 		.word	.LC101
 1435 0988 00000000 		.word	.LANCHOR1
 1436 098c A0080000 		.word	.LC98
 1437 0990 04090000 		.word	.LC102
 1438 0994 6666663F 		.word	1063675494
 1439 0998 00803B45 		.word	1161527296
 1440 099c 10090000 		.word	.LC103
 1441 09a0 8C070000 		.word	.LC87
 1442 09a4 00000000 		.word	ch
 1443 09a8 00401C46 		.word	1176256512
 1444 09ac BC070000 		.word	.LC88
 1445              	.LVL185:
 1446              	.L43:
 1447              	.LBB129:
 1448              		.loc 1 263 0 discriminator 2
 1449 09b0 0A2E     		cmp	r6, #10
 1450 09b2 3FF498AB 		beq	.L1
 1451              	.LVL186:
 1452              	.L45:
 1453              	.LBB127:
 1454              		.loc 1 264 0
 1455 09b6 3046     		mov	r0, r6
 1456 09b8 FFF7FEFF 		bl	comm_can_get_status_msg_index
 1457              	.LVL187:
 1458              		.loc 1 266 0
 1459 09bc 0168     		ldr	r1, [r0]
 1460 09be 0029     		cmp	r1, #0
 1461              		.loc 1 264 0
 1462 09c0 0446     		mov	r4, r0
 1463              	.LVL188:
 1464              		.loc 1 266 0
 1465 09c2 B7EE007A 		vmov.f32	s14, #1.0e+0
 1466              	.LBE127:
 1467              		.loc 1 263 0
 1468 09c6 06F10106 		add	r6, r6, #1
 1469              	.LVL189:
 1470              	.LBB128:
 1471              		.loc 1 266 0
 1472 09ca F1DB     		blt	.L43
 1473              	.LBB120:
 1474              	.LBB119:
 1475              	.LBB118:
 1476              	.LBB117:
 1477              		.loc 2 231 0 discriminator 1
 1478 09cc AB6A     		ldr	r3, [r5, #40]
 1479              	.LVL190:
 1480              	.LBE117:
 1481              	.LBE118:
 1482              		.loc 2 267 0 discriminator 1
ARM GAS  /tmp/ccHCUo6g.s 			page 27


 1483 09ce 4268     		ldr	r2, [r0, #4]
 1484 09d0 9B1A     		subs	r3, r3, r2
 1485              	.LBE119:
 1486              	.LBE120:
 1487              		.loc 1 266 0 discriminator 1
 1488 09d2 07EE903A 		vmov	s15, r3	@ int
 1489 09d6 F8EE677A 		vcvt.f32.u32	s15, s15
 1490 09da C7EE886A 		vdiv.f32	s13, s15, s16
 1491 09de F4EEC76A 		vcmpe.f32	s13, s14
 1492 09e2 F1EE10FA 		vmrs	APSR_nzcv, FPSCR
 1493 09e6 E3D5     		bpl	.L43
 1494              		.loc 1 267 0
 1495 09e8 3846     		mov	r0, r7
 1496              	.LVL191:
 1497 09ea FFF7FEFF 		bl	commands_printf
 1498              	.LVL192:
 1499              		.loc 1 268 0
 1500 09ee 6168     		ldr	r1, [r4, #4]
 1501 09f0 C748     		ldr	r0, .L309+8
 1502 09f2 FFF7FEFF 		bl	commands_printf
 1503              	.LVL193:
 1504              	.LBB121:
 1505              	.LBB122:
 1506              		.loc 2 267 0
 1507 09f6 6268     		ldr	r2, [r4, #4]
 1508              	.LBB123:
 1509              	.LBB124:
 1510              		.loc 2 231 0
 1511 09f8 AB6A     		ldr	r3, [r5, #40]
 1512              	.LVL194:
 1513              	.LBE124:
 1514              	.LBE123:
 1515              	.LBE122:
 1516              	.LBE121:
 1517              		.loc 1 269 0
 1518 09fa 9FEDC67A 		vldr.32	s14, .L309+12
 1519              	.LBB126:
 1520              	.LBB125:
 1521              		.loc 2 267 0
 1522 09fe 9B1A     		subs	r3, r3, r2
 1523              	.LBE125:
 1524              	.LBE126:
 1525              		.loc 1 269 0
 1526 0a00 07EE903A 		vmov	s15, r3	@ int
 1527 0a04 F8EE677A 		vcvt.f32.u32	s15, s15
 1528 0a08 C7EE886A 		vdiv.f32	s13, s15, s16
 1529 0a0c 66EE877A 		vmul.f32	s15, s13, s14
 1530 0a10 17EE900A 		vmov	r0, s15
 1531 0a14 FFF7FEFF 		bl	__aeabi_f2d
 1532              	.LVL195:
 1533 0a18 0246     		mov	r2, r0
 1534 0a1a 0B46     		mov	r3, r1
 1535 0a1c BE48     		ldr	r0, .L309+16
 1536 0a1e FFF7FEFF 		bl	commands_printf
 1537              	.LVL196:
 1538              		.loc 1 270 0
 1539 0a22 A068     		ldr	r0, [r4, #8]	@ float
ARM GAS  /tmp/ccHCUo6g.s 			page 28


 1540 0a24 FFF7FEFF 		bl	__aeabi_f2d
 1541              	.LVL197:
 1542 0a28 0246     		mov	r2, r0
 1543 0a2a 0B46     		mov	r3, r1
 1544 0a2c BB48     		ldr	r0, .L309+20
 1545 0a2e FFF7FEFF 		bl	commands_printf
 1546              	.LVL198:
 1547              		.loc 1 271 0
 1548 0a32 E068     		ldr	r0, [r4, #12]	@ float
 1549 0a34 FFF7FEFF 		bl	__aeabi_f2d
 1550              	.LVL199:
 1551 0a38 0246     		mov	r2, r0
 1552 0a3a 0B46     		mov	r3, r1
 1553 0a3c B848     		ldr	r0, .L309+24
 1554 0a3e FFF7FEFF 		bl	commands_printf
 1555              	.LVL200:
 1556              		.loc 1 272 0
 1557 0a42 2069     		ldr	r0, [r4, #16]	@ float
 1558 0a44 FFF7FEFF 		bl	__aeabi_f2d
 1559              	.LVL201:
 1560 0a48 0246     		mov	r2, r0
 1561 0a4a 0B46     		mov	r3, r1
 1562 0a4c B548     		ldr	r0, .L309+28
 1563 0a4e FFF7FEFF 		bl	commands_printf
 1564              	.LVL202:
 1565 0a52 ADE7     		b	.L43
 1566              	.LVL203:
 1567              	.L287:
 1568              	.LBE128:
 1569              	.LBE129:
 1570              	.LBB130:
 1571              		.loc 1 257 0 discriminator 9
 1572 0a54 11A8     		add	r0, sp, #68
 1573 0a56 FFF7FEFF 		bl	mcpwm_get_rpm_dep
 1574              	.LVL204:
 1575              		.loc 1 258 0 discriminator 9
 1576 0a5a 1198     		ldr	r0, [sp, #68]	@ float
 1577 0a5c FFF7FEFF 		bl	__aeabi_f2d
 1578              	.LVL205:
 1579 0a60 0246     		mov	r2, r0
 1580 0a62 0B46     		mov	r3, r1
 1581 0a64 B048     		ldr	r0, .L309+32
 1582 0a66 FFF7FEFF 		bl	commands_printf
 1583              	.LVL206:
 1584              		.loc 1 259 0 discriminator 9
 1585 0a6a 1298     		ldr	r0, [sp, #72]	@ float
 1586 0a6c FFF7FEFF 		bl	__aeabi_f2d
 1587              	.LVL207:
 1588 0a70 0246     		mov	r2, r0
 1589 0a72 0B46     		mov	r3, r1
 1590 0a74 AD48     		ldr	r0, .L309+36
 1591 0a76 FFF7FEFF 		bl	commands_printf
 1592              	.LVL208:
 1593              		.loc 1 260 0 discriminator 9
 1594 0a7a 1398     		ldr	r0, [sp, #76]	@ float
 1595 0a7c FFF7FEFF 		bl	__aeabi_f2d
 1596              	.LVL209:
ARM GAS  /tmp/ccHCUo6g.s 			page 29


 1597 0a80 0246     		mov	r2, r0
 1598 0a82 0B46     		mov	r3, r1
 1599 0a84 AA48     		ldr	r0, .L309+40
 1600 0a86 FFF7FEFF 		bl	commands_printf
 1601              	.LVL210:
 1602              	.LBE130:
 1603 0a8a FFF72CBB 		b	.L1
 1604              	.L59:
 1605              		.loc 1 345 0
 1606 0a8e A949     		ldr	r1, .L309+44
 1607 0a90 2846     		mov	r0, r5
 1608 0a92 FFF7FEFF 		bl	strcmp
 1609              	.LVL211:
 1610 0a96 0028     		cmp	r0, #0
 1611 0a98 40F09E80 		bne	.L64
 1612              		.loc 1 346 0
 1613 0a9c 042C     		cmp	r4, #4
 1614 0a9e 7FF44EAD 		bne	.L47
 1615              	.LBB131:
 1616              		.loc 1 347 0
 1617 0aa2 A54B     		ldr	r3, .L309+48
 1618              		.loc 1 350 0
 1619 0aa4 A549     		ldr	r1, .L309+52
 1620 0aa6 1998     		ldr	r0, [sp, #100]
 1621              		.loc 1 347 0
 1622 0aa8 0C93     		str	r3, [sp, #48]	@ float
 1623              		.loc 1 350 0
 1624 0aaa 0CAA     		add	r2, sp, #48
 1625              		.loc 1 348 0
 1626 0aac 0D93     		str	r3, [sp, #52]	@ float
 1627              		.loc 1 349 0
 1628 0aae 0E93     		str	r3, [sp, #56]	@ float
 1629              		.loc 1 350 0
 1630 0ab0 FFF7FEFF 		bl	sscanf
 1631              	.LVL212:
 1632              		.loc 1 351 0
 1633 0ab4 0DAA     		add	r2, sp, #52
 1634 0ab6 A149     		ldr	r1, .L309+52
 1635 0ab8 1A98     		ldr	r0, [sp, #104]
 1636 0aba FFF7FEFF 		bl	sscanf
 1637              	.LVL213:
 1638              		.loc 1 352 0
 1639 0abe 0EAA     		add	r2, sp, #56
 1640 0ac0 1B98     		ldr	r0, [sp, #108]
 1641 0ac2 9E49     		ldr	r1, .L309+52
 1642 0ac4 FFF7FEFF 		bl	sscanf
 1643              	.LVL214:
 1644              		.loc 1 354 0
 1645 0ac8 DDED0C7A 		vldr.32	s15, [sp, #48]
 1646 0acc F5EEC07A 		vcmpe.f32	s15, #0
 1647 0ad0 F1EE10FA 		vmrs	APSR_nzcv, FPSCR
 1648 0ad4 7FF70EAB 		ble	.L248
 1649              		.loc 1 354 0 is_stmt 0 discriminator 1
 1650 0ad8 9FED997A 		vldr.32	s14, .L309+56
 1651 0adc F4EEC77A 		vcmpe.f32	s15, s14
 1652 0ae0 F1EE10FA 		vmrs	APSR_nzcv, FPSCR
 1653 0ae4 7FF506AB 		bpl	.L248
ARM GAS  /tmp/ccHCUo6g.s 			page 30


 1654              		.loc 1 354 0 discriminator 2
 1655 0ae8 DDED0D7A 		vldr.32	s15, [sp, #52]
 1656 0aec F5EEC07A 		vcmpe.f32	s15, #0
 1657 0af0 F1EE10FA 		vmrs	APSR_nzcv, FPSCR
 1658 0af4 FFF6FEAA 		blt	.L248
 1659              		.loc 1 354 0 discriminator 3
 1660 0af8 DDED0E7A 		vldr.32	s15, [sp, #56]
 1661 0afc F5EEC07A 		vcmpe.f32	s15, #0
 1662 0b00 F1EE10FA 		vmrs	APSR_nzcv, FPSCR
 1663 0b04 FFF6F6AA 		blt	.L248
 1664              	.LBB132:
 1665              		.loc 1 355 0 is_stmt 1
 1666 0b08 8E4B     		ldr	r3, .L309+60
 1667 0b0a 0222     		movs	r2, #2
 1668              		.loc 1 359 0
 1669 0b0c 1846     		mov	r0, r3
 1670              		.loc 1 355 0
 1671 0b0e 9A70     		strb	r2, [r3, #2]
 1672              		.loc 1 359 0
 1673 0b10 FFF7FEFF 		bl	mc_interface_set_configuration
 1674              	.LVL215:
 1675              		.loc 1 364 0
 1676 0b14 DDED0D7A 		vldr.32	s15, [sp, #52]
 1677 0b18 DDED0C0A 		vldr.32	s1, [sp, #48]
 1678 0b1c 9DED0E0A 		vldr.32	s0, [sp, #56]
 1679 0b20 FDEEE77A 		vcvt.s32.f32	s15, s15
 1680 0b24 11AB     		add	r3, sp, #68
 1681 0b26 17EE900A 		vmov	r0, s15	@ int
 1682 0b2a 10AA     		add	r2, sp, #64
 1683 0b2c 0FA9     		add	r1, sp, #60
 1684 0b2e FFF7FEFF 		bl	mcpwm_foc_measure_inductance2
 1685              	.LVL216:
 1686              		.loc 1 365 0
 1687 0b32 10EE100A 		vmov	r0, s0
 1688 0b36 FFF7FEFF 		bl	__aeabi_f2d
 1689              	.LVL217:
 1690 0b3a 0446     		mov	r4, r0
 1691              	.LVL218:
 1692 0b3c 1198     		ldr	r0, [sp, #68]	@ float
 1693 0b3e 0D46     		mov	r5, r1
 1694 0b40 FFF7FEFF 		bl	__aeabi_f2d
 1695              	.LVL219:
 1696 0b44 70A3     		adr	r3, .L309
 1697 0b46 D3E90023 		ldrd	r2, [r3]
 1698 0b4a FFF7FEFF 		bl	__aeabi_dmul
 1699              	.LVL220:
 1700 0b4e CDE90601 		strd	r0, [sp, #24]
 1701 0b52 1098     		ldr	r0, [sp, #64]	@ float
 1702 0b54 FFF7FEFF 		bl	__aeabi_f2d
 1703              	.LVL221:
 1704 0b58 CDE90401 		strd	r0, [sp, #16]
 1705 0b5c 0F98     		ldr	r0, [sp, #60]	@ float
 1706 0b5e FFF7FEFF 		bl	__aeabi_f2d
 1707              	.LVL222:
 1708 0b62 CDE90201 		strd	r0, [sp, #8]
 1709 0b66 0C98     		ldr	r0, [sp, #48]	@ float
 1710 0b68 FFF7FEFF 		bl	__aeabi_f2d
ARM GAS  /tmp/ccHCUo6g.s 			page 31


 1711              	.LVL223:
 1712 0b6c 0022     		movs	r2, #0
 1713 0b6e 764B     		ldr	r3, .L309+64
 1714 0b70 FFF7FEFF 		bl	__aeabi_dmul
 1715              	.LVL224:
 1716 0b74 2246     		mov	r2, r4
 1717 0b76 CDE90001 		strd	r0, [sp]
 1718 0b7a 2B46     		mov	r3, r5
 1719 0b7c 7348     		ldr	r0, .L309+68
 1720 0b7e FFF7FEFF 		bl	commands_printf
 1721              	.LVL225:
 1722              	.LBE132:
 1723              		.loc 1 354 0
 1724 0b82 FFF7B0BA 		b	.L1
 1725              	.LVL226:
 1726              	.L292:
 1727              	.LBE131:
 1728              	.LBB133:
 1729              	.LBB103:
 1730              		.loc 1 243 0
 1731 0b86 7248     		ldr	r0, .L309+72
 1732 0b88 FFF7FEFF 		bl	commands_printf
 1733              	.LVL227:
 1734 0b8c FFF7ABBA 		b	.L1
 1735              	.L290:
 1736              		.loc 1 233 0
 1737 0b90 7048     		ldr	r0, .L309+76
 1738              	.L251:
 1739              		.loc 1 238 0
 1740 0b92 FFF7FEFF 		bl	commands_printf
 1741              	.LVL228:
 1742              		.loc 1 239 0
 1743 0b96 9DF94B40 		ldrsb	r4, [sp, #75]
 1744              	.LVL229:
 1745 0b9a 9DF94A00 		ldrsb	r0, [sp, #74]
 1746 0b9e 0494     		str	r4, [sp, #16]
 1747 0ba0 9DF94950 		ldrsb	r5, [sp, #73]
 1748 0ba4 9DF94840 		ldrsb	r4, [sp, #72]
 1749 0ba8 0390     		str	r0, [sp, #12]
 1750 0baa 9DF94700 		ldrsb	r0, [sp, #71]
 1751 0bae 0090     		str	r0, [sp]
 1752 0bb0 9DF94630 		ldrsb	r3, [sp, #70]
 1753 0bb4 9DF94520 		ldrsb	r2, [sp, #69]
 1754 0bb8 9DF94410 		ldrsb	r1, [sp, #68]
 1755 0bbc 6648     		ldr	r0, .L309+80
 1756 0bbe CDE90145 		strd	r4, r5, [sp, #4]
 1757 0bc2 FFF7FEFF 		bl	commands_printf
 1758              	.LVL230:
 1759 0bc6 FFF78EBA 		b	.L1
 1760              	.LVL231:
 1761              	.L35:
 1762              		.loc 1 248 0
 1763 0bca 6448     		ldr	r0, .L309+84
 1764 0bcc FFF7FEFF 		bl	commands_printf
 1765              	.LVL232:
 1766              	.LBE103:
 1767              		.loc 1 222 0
ARM GAS  /tmp/ccHCUo6g.s 			page 32


 1768 0bd0 FFF789BA 		b	.L1
 1769              	.L291:
 1770              	.LBB104:
 1771              		.loc 1 238 0
 1772 0bd4 6248     		ldr	r0, .L309+88
 1773 0bd6 DCE7     		b	.L251
 1774              	.L64:
 1775              	.LBE104:
 1776              	.LBE133:
 1777              		.loc 1 375 0
 1778 0bd8 6249     		ldr	r1, .L309+92
 1779 0bda 2846     		mov	r0, r5
 1780 0bdc FFF7FEFF 		bl	strcmp
 1781              	.LVL233:
 1782 0be0 38B9     		cbnz	r0, .L71
 1783              		.loc 1 376 0
 1784 0be2 052C     		cmp	r4, #5
 1785 0be4 00F0CE80 		beq	.L293
 1786              	.L72:
 1787              		.loc 1 394 0
 1788 0be8 5F48     		ldr	r0, .L309+96
 1789 0bea FFF7FEFF 		bl	commands_printf
 1790              	.LVL234:
 1791 0bee FFF77ABA 		b	.L1
 1792              	.L71:
 1793              		.loc 1 396 0
 1794 0bf2 5E49     		ldr	r1, .L309+100
 1795 0bf4 2846     		mov	r0, r5
 1796 0bf6 FFF7FEFF 		bl	strcmp
 1797              	.LVL235:
 1798 0bfa 0028     		cmp	r0, #0
 1799 0bfc 00F06581 		beq	.L294
 1800              		.loc 1 407 0
 1801 0c00 5B49     		ldr	r1, .L309+104
 1802 0c02 2846     		mov	r0, r5
 1803 0c04 FFF7FEFF 		bl	strcmp
 1804              	.LVL236:
 1805 0c08 0646     		mov	r6, r0
 1806 0c0a 0028     		cmp	r0, #0
 1807 0c0c 40F00B81 		bne	.L81
 1808              		.loc 1 408 0
 1809 0c10 022C     		cmp	r4, #2
 1810 0c12 7FF494AC 		bne	.L47
 1811              	.LBB134:
 1812              		.loc 1 409 0
 1813 0c16 11AD     		add	r5, sp, #68
 1814 0c18 474B     		ldr	r3, .L309+48
 1815              		.loc 1 410 0
 1816 0c1a 1998     		ldr	r0, [sp, #100]
 1817 0c1c 4749     		ldr	r1, .L309+52
 1818              		.loc 1 409 0
 1819 0c1e 2B60     		str	r3, [r5]	@ float
 1820              		.loc 1 410 0
 1821 0c20 2A46     		mov	r2, r5
 1822 0c22 FFF7FEFF 		bl	sscanf
 1823              	.LVL237:
 1824              		.loc 1 412 0
ARM GAS  /tmp/ccHCUo6g.s 			page 33


 1825 0c26 D5ED007A 		vldr.32	s15, [r5]
 1826 0c2a F5EEC07A 		vcmpe.f32	s15, #0
 1827 0c2e F1EE10FA 		vmrs	APSR_nzcv, FPSCR
 1828 0c32 7FF75FAA 		ble	.L248
 1829              	.LBB135:
 1830              		.loc 1 413 0
 1831 0c36 434F     		ldr	r7, .L309+60
 1832              	.LBB136:
 1833              		.loc 1 424 0
 1834 0c38 9FED4E8A 		vldr.32	s16, .L309+108
 1835              	.LBE136:
 1836              		.loc 1 413 0
 1837 0c3c BC70     		strb	r4, [r7, #2]
 1838              		.loc 1 414 0
 1839 0c3e 3846     		mov	r0, r7
 1840 0c40 FFF7FEFF 		bl	mc_interface_set_configuration
 1841              	.LVL238:
 1842              		.loc 1 415 0
 1843 0c44 97ED389A 		vldr.32	s18, [r7, #224]
 1844 0c48 F7EE087A 		vmov.f32	s15, #1.5e+0
 1845 0c4c 29EE279A 		vmul.f32	s18, s18, s15
 1846              	.LVL239:
 1847              		.loc 1 418 0
 1848 0c50 FFF7FEFF 		bl	timeout_get_timeout_msec
 1849              	.LVL240:
 1850 0c54 0746     		mov	r7, r0
 1851              	.LVL241:
 1852              		.loc 1 419 0
 1853 0c56 FFF7FEFF 		bl	timeout_get_brake_current
 1854              	.LVL242:
 1855 0c5a F0EE40AA 		vmov.f32	s21, s0
 1856              	.LVL243:
 1857              		.loc 1 420 0
 1858 0c5e FFF7FEFF 		bl	timeout_reset
 1859              	.LVL244:
 1860              		.loc 1 421 0
 1861 0c62 9FED450A 		vldr.32	s0, .L309+112
 1862 0c66 4EF66020 		movw	r0, #60000
 1863 0c6a FFF7FEFF 		bl	timeout_configure
 1864              	.LVL245:
 1865              	.L84:
 1866              	.LBB137:
 1867              		.loc 1 424 0 discriminator 3
 1868 0c6e 07EE906A 		vmov	s15, r6	@ int
 1869 0c72 B8EEE77A 		vcvt.f32.s32	s14, s15
 1870 0c76 D5ED007A 		vldr.32	s15, [r5]
 1871 0c7a 87EE080A 		vdiv.f32	s0, s14, s16
 1872              		.loc 1 423 0 discriminator 3
 1873 0c7e 0136     		adds	r6, r6, #1
 1874              	.LVL246:
 1875              		.loc 1 424 0 discriminator 3
 1876 0c80 20EE270A 		vmul.f32	s0, s0, s15
 1877 0c84 FFF7FEFF 		bl	mc_interface_set_duty
 1878              	.LVL247:
 1879              		.loc 1 425 0 discriminator 3
 1880 0c88 C820     		movs	r0, #200
 1881 0c8a FFF7FEFF 		bl	chThdSleep
ARM GAS  /tmp/ccHCUo6g.s 			page 34


 1882              	.LVL248:
 1883              		.loc 1 423 0 discriminator 3
 1884 0c8e 642E     		cmp	r6, #100
 1885 0c90 EDD1     		bne	.L84
 1886              	.LBE137:
 1887              		.loc 1 431 0
 1888 0c92 9FED398A 		vldr.32	s16, .L309+112
 1889              	.LBB138:
 1890 0c96 4FF47A74 		mov	r4, #1000
 1891              	.LVL249:
 1892              	.LBE138:
 1893              		.loc 1 430 0
 1894 0c9a F0EE488A 		vmov.f32	s17, s16
 1895              		.loc 1 429 0
 1896 0c9e F0EE489A 		vmov.f32	s19, s16
 1897              		.loc 1 428 0
 1898 0ca2 B0EE48AA 		vmov.f32	s20, s16
 1899              	.LBB139:
 1900              		.loc 1 436 0
 1901 0ca6 B7EE00BA 		vmov.f32	s22, #1.0e+0
 1902              	.L85:
 1903              	.LVL250:
 1904              		.loc 1 433 0 discriminator 3
 1905 0caa FFF7FEFF 		bl	mcpwm_foc_get_vq
 1906              	.LVL251:
 1907 0cae 3AEE00AA 		vadd.f32	s20, s20, s0
 1908              	.LVL252:
 1909              		.loc 1 434 0 discriminator 3
 1910 0cb2 FFF7FEFF 		bl	mc_interface_get_rpm
 1911              	.LVL253:
 1912 0cb6 79EE809A 		vadd.f32	s19, s19, s0
 1913              	.LVL254:
 1914              		.loc 1 435 0 discriminator 3
 1915 0cba FFF7FEFF 		bl	mc_interface_get_tot_current_directional
 1916              	.LVL255:
 1917              		.loc 1 437 0 discriminator 3
 1918 0cbe 0A20     		movs	r0, #10
 1919              		.loc 1 435 0 discriminator 3
 1920 0cc0 38EE008A 		vadd.f32	s16, s16, s0
 1921              	.LVL256:
 1922              		.loc 1 437 0 discriminator 3
 1923 0cc4 FFF7FEFF 		bl	chThdSleep
 1924              	.LVL257:
 1925              		.loc 1 432 0 discriminator 3
 1926 0cc8 013C     		subs	r4, r4, #1
 1927              	.LVL258:
 1928              		.loc 1 436 0 discriminator 3
 1929 0cca 78EE8B8A 		vadd.f32	s17, s17, s22
 1930              	.LVL259:
 1931              		.loc 1 432 0 discriminator 3
 1932 0cce ECD1     		bne	.L85
 1933              	.LBE139:
 1934              		.loc 1 440 0
 1935 0cd0 FFF7FEFF 		bl	mc_interface_release_motor
 1936              	.LVL260:
 1937              		.loc 1 441 0
 1938 0cd4 2948     		ldr	r0, .L309+116
ARM GAS  /tmp/ccHCUo6g.s 			page 35


 1939 0cd6 FFF7FEFF 		bl	mc_interface_set_configuration
 1940              	.LVL261:
 1941              		.loc 1 444 0
 1942 0cda 3846     		mov	r0, r7
 1943 0cdc B0EE6A0A 		vmov.f32	s0, s21
 1944 0ce0 FFF7FEFF 		bl	timeout_configure
 1945              	.LVL262:
 1946              		.loc 1 448 0
 1947 0ce4 C8EE286A 		vdiv.f32	s13, s16, s17
 1948              	.LVL263:
 1949              		.loc 1 446 0
 1950 0ce8 8AEE287A 		vdiv.f32	s14, s20, s17
 1951              	.LVL264:
 1952              		.loc 1 447 0
 1953 0cec C9EEA87A 		vdiv.f32	s15, s19, s17
 1954              	.LVL265:
 1955              		.loc 1 450 0
 1956 0cf0 A9EE667A 		vfms.f32	s14, s18, s13
 1957              	.LVL266:
 1958 0cf4 DFED226A 		vldr.32	s13, .L309+120
 1959              	.LVL267:
 1960 0cf8 67EEA67A 		vmul.f32	s15, s15, s13
 1961              	.LVL268:
 1962              		.loc 1 452 0
 1963 0cfc C7EE277A 		vdiv.f32	s15, s14, s15
 1964 0d00 17EE900A 		vmov	r0, s15
 1965 0d04 86E0     		b	.L252
 1966              	.L310:
 1967 0d06 00BF     		.align	3
 1968              	.L309:
 1969 0d08 00000000 		.word	0
 1970 0d0c 80842E41 		.word	1093567616
 1971 0d10 D4070000 		.word	.LC89
 1972 0d14 00007A44 		.word	1148846080
 1973 0d18 EC070000 		.word	.LC90
 1974 0d1c 08080000 		.word	.LC91
 1975 0d20 24080000 		.word	.LC92
 1976 0d24 40080000 		.word	.LC93
 1977 0d28 2C070000 		.word	.LC83
 1978 0d2c 44070000 		.word	.LC84
 1979 0d30 64070000 		.word	.LC85
 1980 0d34 38090000 		.word	.LC104
 1981 0d38 000080BF 		.word	-1082130432
 1982 0d3c 50000000 		.word	.LC9
 1983 0d40 6666663F 		.word	1063675494
 1984 0d44 00000000 		.word	.LANCHOR0
 1985 0d48 00005940 		.word	1079574528
 1986 0d4c 48090000 		.word	.LC105
 1987 0d50 64060000 		.word	.LC78
 1988 0d54 08060000 		.word	.LC75
 1989 0d58 24060000 		.word	.LC76
 1990 0d5c C4060000 		.word	.LC80
 1991 0d60 44060000 		.word	.LC77
 1992 0d64 84090000 		.word	.LC106
 1993 0d68 A8090000 		.word	.LC108
 1994 0d6c D0090000 		.word	.LC109
 1995 0d70 180A0000 		.word	.LC112
ARM GAS  /tmp/ccHCUo6g.s 			page 36


 1996 0d74 0000C842 		.word	1120403456
 1997 0d78 00000000 		.word	0
 1998 0d7c 00000000 		.word	.LANCHOR1
 1999 0d80 5077D63D 		.word	1037465424
 2000              	.LVL269:
 2001              	.L293:
 2002              	.LBE135:
 2003              	.LBE134:
 2004              	.LBB141:
 2005              		.loc 1 377 0
 2006 0d84 9D4B     		ldr	r3, .L311
 2007              		.loc 1 381 0
 2008 0d86 9E49     		ldr	r1, .L311+4
 2009 0d88 1998     		ldr	r0, [sp, #100]
 2010              		.loc 1 377 0
 2011 0d8a 0D93     		str	r3, [sp, #52]	@ float
 2012              		.loc 1 381 0
 2013 0d8c 0DAA     		add	r2, sp, #52
 2014              		.loc 1 378 0
 2015 0d8e 0E93     		str	r3, [sp, #56]	@ float
 2016              		.loc 1 379 0
 2017 0d90 0F93     		str	r3, [sp, #60]	@ float
 2018              		.loc 1 380 0
 2019 0d92 1093     		str	r3, [sp, #64]	@ float
 2020              		.loc 1 381 0
 2021 0d94 FFF7FEFF 		bl	sscanf
 2022              	.LVL270:
 2023              		.loc 1 382 0
 2024 0d98 0EAA     		add	r2, sp, #56
 2025 0d9a 9949     		ldr	r1, .L311+4
 2026 0d9c 1A98     		ldr	r0, [sp, #104]
 2027 0d9e FFF7FEFF 		bl	sscanf
 2028              	.LVL271:
 2029              		.loc 1 383 0
 2030 0da2 0FAA     		add	r2, sp, #60
 2031 0da4 9649     		ldr	r1, .L311+4
 2032 0da6 1B98     		ldr	r0, [sp, #108]
 2033 0da8 FFF7FEFF 		bl	sscanf
 2034              	.LVL272:
 2035              		.loc 1 384 0
 2036 0dac 10AA     		add	r2, sp, #64
 2037 0dae 1C98     		ldr	r0, [sp, #112]
 2038 0db0 9349     		ldr	r1, .L311+4
 2039 0db2 FFF7FEFF 		bl	sscanf
 2040              	.LVL273:
 2041              		.loc 1 386 0
 2042 0db6 9DED0D0A 		vldr.32	s0, [sp, #52]
 2043 0dba B5EEC00A 		vcmpe.f32	s0, #0
 2044 0dbe F1EE10FA 		vmrs	APSR_nzcv, FPSCR
 2045 0dc2 7FF797A9 		ble	.L248
 2046              		.loc 1 386 0 is_stmt 0 discriminator 1
 2047 0dc6 8F4B     		ldr	r3, .L311+8
 2048 0dc8 D3ED017A 		vldr.32	s15, [r3, #4]
 2049 0dcc B4EEE70A 		vcmpe.f32	s0, s15
 2050 0dd0 F1EE10FA 		vmrs	APSR_nzcv, FPSCR
 2051 0dd4 3FF68EA9 		bhi	.L248
 2052              		.loc 1 386 0 discriminator 2
ARM GAS  /tmp/ccHCUo6g.s 			page 37


 2053 0dd8 9DED0F1A 		vldr.32	s2, [sp, #60]
 2054 0ddc B5EEC01A 		vcmpe.f32	s2, #0
 2055 0de0 F1EE10FA 		vmrs	APSR_nzcv, FPSCR
 2056 0de4 7FF786A9 		ble	.L248
 2057              		.loc 1 386 0 discriminator 3
 2058 0de8 DDED0E0A 		vldr.32	s1, [sp, #56]
 2059 0dec DFED867A 		vldr.32	s15, .L311+12
 2060 0df0 F4EEE70A 		vcmpe.f32	s1, s15
 2061 0df4 F1EE10FA 		vmrs	APSR_nzcv, FPSCR
 2062 0df8 7FF77CA9 		ble	.L248
 2063              		.loc 1 386 0 discriminator 4
 2064 0dfc DDED101A 		vldr.32	s3, [sp, #64]
 2065 0e00 F5EEC01A 		vcmpe.f32	s3, #0
 2066 0e04 F1EE10FA 		vmrs	APSR_nzcv, FPSCR
 2067 0e08 FFF674A9 		blt	.L248
 2068              	.LBB142:
 2069              		.loc 1 388 0 is_stmt 1
 2070 0e0c 11A8     		add	r0, sp, #68
 2071 0e0e FFF7FEFF 		bl	conf_general_measure_flux_linkage
 2072              	.LVL274:
 2073              		.loc 1 389 0
 2074 0e12 1198     		ldr	r0, [sp, #68]	@ float
 2075              	.LVL275:
 2076              	.L252:
 2077              	.LBE142:
 2078              	.LBE141:
 2079              	.LBB143:
 2080              	.LBB140:
 2081              		.loc 1 452 0
 2082 0e14 FFF7FEFF 		bl	__aeabi_f2d
 2083              	.LVL276:
 2084 0e18 0246     		mov	r2, r0
 2085 0e1a 0B46     		mov	r3, r1
 2086 0e1c 7B48     		ldr	r0, .L311+16
 2087 0e1e FFF7FEFF 		bl	commands_printf
 2088              	.LVL277:
 2089              	.LBE140:
 2090 0e22 FFF760B9 		b	.L1
 2091              	.LVL278:
 2092              	.L81:
 2093              	.LBE143:
 2094              		.loc 1 459 0
 2095 0e26 7A49     		ldr	r1, .L311+20
 2096 0e28 2846     		mov	r0, r5
 2097 0e2a FFF7FEFF 		bl	strcmp
 2098              	.LVL279:
 2099 0e2e 0028     		cmp	r0, #0
 2100 0e30 6DD1     		bne	.L87
 2101              		.loc 1 460 0
 2102 0e32 052C     		cmp	r4, #5
 2103 0e34 7FF4D8AE 		bne	.L72
 2104              	.LBB144:
 2105              		.loc 1 461 0
 2106 0e38 704B     		ldr	r3, .L311
 2107              		.loc 1 465 0
 2108 0e3a 7149     		ldr	r1, .L311+4
 2109 0e3c 1998     		ldr	r0, [sp, #100]
ARM GAS  /tmp/ccHCUo6g.s 			page 38


 2110              		.loc 1 461 0
 2111 0e3e 0D93     		str	r3, [sp, #52]	@ float
 2112              		.loc 1 465 0
 2113 0e40 0DAA     		add	r2, sp, #52
 2114              		.loc 1 462 0
 2115 0e42 0E93     		str	r3, [sp, #56]	@ float
 2116              		.loc 1 463 0
 2117 0e44 0F93     		str	r3, [sp, #60]	@ float
 2118              		.loc 1 464 0
 2119 0e46 1093     		str	r3, [sp, #64]	@ float
 2120              		.loc 1 465 0
 2121 0e48 FFF7FEFF 		bl	sscanf
 2122              	.LVL280:
 2123              		.loc 1 466 0
 2124 0e4c 0EAA     		add	r2, sp, #56
 2125 0e4e 6C49     		ldr	r1, .L311+4
 2126 0e50 1A98     		ldr	r0, [sp, #104]
 2127 0e52 FFF7FEFF 		bl	sscanf
 2128              	.LVL281:
 2129              		.loc 1 467 0
 2130 0e56 0FAA     		add	r2, sp, #60
 2131 0e58 6949     		ldr	r1, .L311+4
 2132 0e5a 1B98     		ldr	r0, [sp, #108]
 2133 0e5c FFF7FEFF 		bl	sscanf
 2134              	.LVL282:
 2135              		.loc 1 468 0
 2136 0e60 10AA     		add	r2, sp, #64
 2137 0e62 1C98     		ldr	r0, [sp, #112]
 2138 0e64 6649     		ldr	r1, .L311+4
 2139 0e66 FFF7FEFF 		bl	sscanf
 2140              	.LVL283:
 2141              		.loc 1 470 0
 2142 0e6a 9DED0D0A 		vldr.32	s0, [sp, #52]
 2143 0e6e B5EEC00A 		vcmpe.f32	s0, #0
 2144 0e72 F1EE10FA 		vmrs	APSR_nzcv, FPSCR
 2145 0e76 7FF73DA9 		ble	.L248
 2146              		.loc 1 470 0 is_stmt 0 discriminator 1
 2147 0e7a 624B     		ldr	r3, .L311+8
 2148 0e7c D3ED017A 		vldr.32	s15, [r3, #4]
 2149 0e80 B4EEE70A 		vcmpe.f32	s0, s15
 2150 0e84 F1EE10FA 		vmrs	APSR_nzcv, FPSCR
 2151 0e88 3FF634A9 		bhi	.L248
 2152              		.loc 1 470 0 discriminator 2
 2153 0e8c 9DED0F1A 		vldr.32	s2, [sp, #60]
 2154 0e90 B5EEC01A 		vcmpe.f32	s2, #0
 2155 0e94 F1EE10FA 		vmrs	APSR_nzcv, FPSCR
 2156 0e98 7FF72CA9 		ble	.L248
 2157              		.loc 1 470 0 discriminator 3
 2158 0e9c DDED0E0A 		vldr.32	s1, [sp, #56]
 2159 0ea0 DFED597A 		vldr.32	s15, .L311+12
 2160 0ea4 F4EEE70A 		vcmpe.f32	s1, s15
 2161 0ea8 F1EE10FA 		vmrs	APSR_nzcv, FPSCR
 2162 0eac 7FF722A9 		ble	.L248
 2163              		.loc 1 470 0 discriminator 4
 2164 0eb0 DDED101A 		vldr.32	s3, [sp, #64]
 2165 0eb4 F5EEC01A 		vcmpe.f32	s3, #0
 2166 0eb8 F1EE10FA 		vmrs	APSR_nzcv, FPSCR
ARM GAS  /tmp/ccHCUo6g.s 			page 39


 2167 0ebc FFF61AA9 		blt	.L248
 2168              	.LBB145:
 2169              		.loc 1 472 0 is_stmt 1
 2170 0ec0 11A8     		add	r0, sp, #68
 2171 0ec2 FFF7FEFF 		bl	conf_general_measure_flux_linkage_openloop
 2172              	.LVL284:
 2173              		.loc 1 473 0
 2174 0ec6 1198     		ldr	r0, [sp, #68]	@ float
 2175 0ec8 A4E7     		b	.L252
 2176              	.L294:
 2177              	.LBE145:
 2178              	.LBE144:
 2179              	.LBB146:
 2180              		.loc 1 397 0 discriminator 26
 2181 0eca 4E4B     		ldr	r3, .L311+8
 2182 0ecc 0222     		movs	r2, #2
 2183              		.loc 1 398 0 discriminator 26
 2184 0ece 1846     		mov	r0, r3
 2185              		.loc 1 397 0 discriminator 26
 2186 0ed0 9A70     		strb	r2, [r3, #2]
 2187              		.loc 1 398 0 discriminator 26
 2188 0ed2 FFF7FEFF 		bl	mc_interface_set_configuration
 2189              	.LVL285:
 2190              		.loc 1 400 0 discriminator 26
 2191 0ed6 0023     		movs	r3, #0
 2192              		.loc 1 402 0 discriminator 26
 2193 0ed8 11A9     		add	r1, sp, #68
 2194 0eda 10A8     		add	r0, sp, #64
 2195              		.loc 1 400 0 discriminator 26
 2196 0edc 1093     		str	r3, [sp, #64]	@ float
 2197              		.loc 1 401 0 discriminator 26
 2198 0ede 1193     		str	r3, [sp, #68]	@ float
 2199              		.loc 1 402 0 discriminator 26
 2200 0ee0 FFF7FEFF 		bl	mcpwm_foc_measure_res_ind
 2201              	.LVL286:
 2202              		.loc 1 403 0 discriminator 26
 2203 0ee4 1098     		ldr	r0, [sp, #64]	@ float
 2204 0ee6 FFF7FEFF 		bl	__aeabi_f2d
 2205              	.LVL287:
 2206 0eea 0246     		mov	r2, r0
 2207 0eec 0B46     		mov	r3, r1
 2208 0eee 4948     		ldr	r0, .L311+24
 2209 0ef0 FFF7FEFF 		bl	commands_printf
 2210              	.LVL288:
 2211              		.loc 1 404 0 discriminator 26
 2212 0ef4 1198     		ldr	r0, [sp, #68]	@ float
 2213 0ef6 FFF7FEFF 		bl	__aeabi_f2d
 2214              	.LVL289:
 2215 0efa 0246     		mov	r2, r0
 2216 0efc 0B46     		mov	r3, r1
 2217 0efe 4648     		ldr	r0, .L311+28
 2218 0f00 FFF7FEFF 		bl	commands_printf
 2219              	.LVL290:
 2220              		.loc 1 406 0 discriminator 26
 2221 0f04 4548     		ldr	r0, .L311+32
 2222 0f06 FFF7FEFF 		bl	mc_interface_set_configuration
 2223              	.LVL291:
ARM GAS  /tmp/ccHCUo6g.s 			page 40


 2224              	.LBE146:
 2225 0f0a FFF7ECB8 		b	.L1
 2226              	.L87:
 2227              		.loc 1 480 0
 2228 0f0e 4449     		ldr	r1, .L311+36
 2229 0f10 2846     		mov	r0, r5
 2230 0f12 FFF7FEFF 		bl	strcmp
 2231              	.LVL292:
 2232 0f16 90B1     		cbz	r0, .L295
 2233              		.loc 1 483 0
 2234 0f18 4249     		ldr	r1, .L311+40
 2235 0f1a 2846     		mov	r0, r5
 2236 0f1c FFF7FEFF 		bl	strcmp
 2237              	.LVL293:
 2238 0f20 0028     		cmp	r0, #0
 2239 0f22 00F08780 		beq	.L296
 2240              		.loc 1 504 0
 2241 0f26 4049     		ldr	r1, .L311+44
 2242 0f28 2846     		mov	r0, r5
 2243 0f2a FFF7FEFF 		bl	strcmp
 2244              	.LVL294:
 2245 0f2e 98BB     		cbnz	r0, .L98
 2246              		.loc 1 505 0
 2247 0f30 032C     		cmp	r4, #3
 2248 0f32 08D0     		beq	.L297
 2249              	.L99:
 2250              		.loc 1 518 0
 2251 0f34 3D48     		ldr	r0, .L311+48
 2252 0f36 FFF7FEFF 		bl	commands_printf
 2253              	.LVL295:
 2254 0f3a FFF7D4B8 		b	.L1
 2255              	.L295:
 2256              		.loc 1 481 0
 2257 0f3e FFF7FEFF 		bl	mcpwm_foc_print_state
 2258              	.LVL296:
 2259 0f42 FFF78AB9 		b	.L250
 2260              	.L297:
 2261              	.LBB147:
 2262              		.loc 1 506 0
 2263 0f46 10AC     		add	r4, sp, #64
 2264              	.LVL297:
 2265 0f48 2C4B     		ldr	r3, .L311
 2266              		.loc 1 508 0
 2267 0f4a 2D49     		ldr	r1, .L311+4
 2268 0f4c 1998     		ldr	r0, [sp, #100]
 2269              		.loc 1 506 0
 2270 0f4e 1093     		str	r3, [sp, #64]	@ float
 2271              		.loc 1 508 0
 2272 0f50 2246     		mov	r2, r4
 2273              		.loc 1 507 0
 2274 0f52 11AD     		add	r5, sp, #68
 2275 0f54 1193     		str	r3, [sp, #68]	@ float
 2276              		.loc 1 508 0
 2277 0f56 FFF7FEFF 		bl	sscanf
 2278              	.LVL298:
 2279              		.loc 1 509 0
 2280 0f5a 2A46     		mov	r2, r5
ARM GAS  /tmp/ccHCUo6g.s 			page 41


 2281 0f5c 1A98     		ldr	r0, [sp, #104]
 2282 0f5e 2849     		ldr	r1, .L311+4
 2283 0f60 FFF7FEFF 		bl	sscanf
 2284              	.LVL299:
 2285              		.loc 1 511 0
 2286 0f64 D4ED007A 		vldr.32	s15, [r4]
 2287 0f68 F5EEC07A 		vcmpe.f32	s15, #0
 2288 0f6c F1EE10FA 		vmrs	APSR_nzcv, FPSCR
 2289 0f70 FFF6C0A8 		blt	.L248
 2290              		.loc 1 511 0 is_stmt 0 discriminator 1
 2291 0f74 D5ED007A 		vldr.32	s15, [r5]
 2292 0f78 F5EEC07A 		vcmpe.f32	s15, #0
 2293 0f7c F1EE10FA 		vmrs	APSR_nzcv, FPSCR
 2294 0f80 FFF6B8A8 		blt	.L248
 2295              		.loc 1 512 0 is_stmt 1
 2296 0f84 FFF7FEFF 		bl	timeout_reset
 2297              	.LVL300:
 2298              		.loc 1 513 0
 2299 0f88 D5ED000A 		vldr.32	s1, [r5]
 2300 0f8c 94ED000A 		vldr.32	s0, [r4]
 2301 0f90 FFF7FEFF 		bl	mcpwm_foc_set_openloop
 2302              	.LVL301:
 2303 0f94 FFF7A7B8 		b	.L1
 2304              	.LVL302:
 2305              	.L98:
 2306              	.LBE147:
 2307              		.loc 1 520 0
 2308 0f98 2549     		ldr	r1, .L311+52
 2309 0f9a 2846     		mov	r0, r5
 2310 0f9c FFF7FEFF 		bl	strcmp
 2311              	.LVL303:
 2312 0fa0 0028     		cmp	r0, #0
 2313 0fa2 40F08F80 		bne	.L104
 2314              		.loc 1 521 0
 2315 0fa6 032C     		cmp	r4, #3
 2316 0fa8 C4D1     		bne	.L99
 2317              	.LBB148:
 2318              		.loc 1 522 0
 2319 0faa 10AC     		add	r4, sp, #64
 2320              	.LVL304:
 2321 0fac 134B     		ldr	r3, .L311
 2322              		.loc 1 524 0
 2323 0fae 1449     		ldr	r1, .L311+4
 2324 0fb0 1998     		ldr	r0, [sp, #100]
 2325              		.loc 1 522 0
 2326 0fb2 1093     		str	r3, [sp, #64]	@ float
 2327              		.loc 1 524 0
 2328 0fb4 2246     		mov	r2, r4
 2329              		.loc 1 523 0
 2330 0fb6 11AD     		add	r5, sp, #68
 2331 0fb8 1193     		str	r3, [sp, #68]	@ float
 2332              		.loc 1 524 0
 2333 0fba FFF7FEFF 		bl	sscanf
 2334              	.LVL305:
 2335              		.loc 1 525 0
 2336 0fbe 2A46     		mov	r2, r5
 2337 0fc0 1A98     		ldr	r0, [sp, #104]
ARM GAS  /tmp/ccHCUo6g.s 			page 42


 2338 0fc2 0F49     		ldr	r1, .L311+4
 2339 0fc4 FFF7FEFF 		bl	sscanf
 2340              	.LVL306:
 2341              		.loc 1 527 0
 2342 0fc8 D4ED007A 		vldr.32	s15, [r4]
 2343 0fcc F5EEC07A 		vcmpe.f32	s15, #0
 2344 0fd0 F1EE10FA 		vmrs	APSR_nzcv, FPSCR
 2345 0fd4 FFF68EA8 		blt	.L248
 2346              		.loc 1 527 0 is_stmt 0 discriminator 1
 2347 0fd8 D5ED007A 		vldr.32	s15, [r5]
 2348 0fdc F5EEC07A 		vcmpe.f32	s15, #0
 2349 0fe0 F1EE10FA 		vmrs	APSR_nzcv, FPSCR
 2350 0fe4 FFF686A8 		blt	.L248
 2351              		.loc 1 528 0 is_stmt 1
 2352 0fe8 FFF7FEFF 		bl	timeout_reset
 2353              	.LVL307:
 2354              		.loc 1 529 0
 2355 0fec D5ED000A 		vldr.32	s1, [r5]
 2356 0ff0 94ED000A 		vldr.32	s0, [r4]
 2357 0ff4 FFF7FEFF 		bl	mcpwm_foc_set_openloop_duty
 2358              	.LVL308:
 2359 0ff8 FFF775B8 		b	.L1
 2360              	.L312:
 2361              		.align	2
 2362              	.L311:
 2363 0ffc 000080BF 		.word	-1082130432
 2364 1000 50000000 		.word	.LC9
 2365 1004 00000000 		.word	.LANCHOR0
 2366 1008 0AD7A33C 		.word	1017370378
 2367 100c 94090000 		.word	.LC107
 2368 1010 2C0A0000 		.word	.LC113
 2369 1014 E0090000 		.word	.LC110
 2370 1018 F8090000 		.word	.LC111
 2371 101c 00000000 		.word	.LANCHOR1
 2372 1020 480A0000 		.word	.LC114
 2373 1024 540A0000 		.word	.LC115
 2374 1028 040B0000 		.word	.LC122
 2375 102c 140B0000 		.word	.LC123
 2376 1030 3C0B0000 		.word	.LC124
 2377              	.LVL309:
 2378              	.L296:
 2379              	.LBE148:
 2380              	.LBB149:
 2381              		.loc 1 484 0
 2382 1034 3F22     		movs	r2, #63
 2383 1036 0321     		movs	r1, #3
 2384 1038 AD48     		ldr	r0, .L313
 2385 103a FFF7FEFF 		bl	commands_printf
 2386              	.LVL310:
 2387              		.loc 1 486 0
 2388 103e AD49     		ldr	r1, .L313+4
 2389 1040 AD48     		ldr	r0, .L313+8
 2390 1042 FFF7FEFF 		bl	commands_printf
 2391              	.LVL311:
 2392              		.loc 1 491 0
 2393 1046 AD48     		ldr	r0, .L313+12
 2394              		.loc 1 489 0
ARM GAS  /tmp/ccHCUo6g.s 			page 43


 2395 1048 AD4B     		ldr	r3, .L313+16
 2396 104a AE4A     		ldr	r2, .L313+20
 2397 104c AE49     		ldr	r1, .L313+24
 2398              		.loc 1 488 0
 2399 104e 0478     		ldrb	r4, [r0]	@ zero_extendqisi2
 2400              	.LVL312:
 2401 1050 1B78     		ldrb	r3, [r3]	@ zero_extendqisi2
 2402 1052 1278     		ldrb	r2, [r2]	@ zero_extendqisi2
 2403 1054 0978     		ldrb	r1, [r1]	@ zero_extendqisi2
 2404 1056 0894     		str	r4, [sp, #32]
 2405 1058 10F8014C 		ldrb	r4, [r0, #-1]	@ zero_extendqisi2
 2406 105c 0794     		str	r4, [sp, #28]
 2407 105e 10F8024C 		ldrb	r4, [r0, #-2]	@ zero_extendqisi2
 2408 1062 0694     		str	r4, [sp, #24]
 2409 1064 10F8034C 		ldrb	r4, [r0, #-3]	@ zero_extendqisi2
 2410 1068 0594     		str	r4, [sp, #20]
 2411 106a 10F8044C 		ldrb	r4, [r0, #-4]	@ zero_extendqisi2
 2412 106e 0494     		str	r4, [sp, #16]
 2413 1070 10F8054C 		ldrb	r4, [r0, #-5]	@ zero_extendqisi2
 2414 1074 0394     		str	r4, [sp, #12]
 2415 1076 10F8064C 		ldrb	r4, [r0, #-6]	@ zero_extendqisi2
 2416 107a 0294     		str	r4, [sp, #8]
 2417 107c 10F8074C 		ldrb	r4, [r0, #-7]	@ zero_extendqisi2
 2418 1080 0194     		str	r4, [sp, #4]
 2419              		.loc 1 489 0
 2420 1082 0838     		subs	r0, r0, #8
 2421              		.loc 1 488 0
 2422 1084 0078     		ldrb	r0, [r0]	@ zero_extendqisi2
 2423 1086 0090     		str	r0, [sp]
 2424 1088 A048     		ldr	r0, .L313+28
 2425 108a FFF7FEFF 		bl	commands_printf
 2426              	.LVL313:
 2427              		.loc 1 492 0
 2428 108e A04B     		ldr	r3, .L313+32
 2429 1090 A04A     		ldr	r2, .L313+36
 2430 1092 1978     		ldrb	r1, [r3]	@ zero_extendqisi2
 2431 1094 A04B     		ldr	r3, .L313+40
 2432 1096 A148     		ldr	r0, .L313+44
 2433 1098 0029     		cmp	r1, #0
 2434 109a 0CBF     		ite	eq
 2435 109c 1146     		moveq	r1, r2
 2436 109e 1946     		movne	r1, r3
 2437 10a0 FFF7FEFF 		bl	commands_printf
 2438              	.LVL314:
 2439              		.loc 1 498 0
 2440 10a4 11AA     		add	r2, sp, #68
 2441 10a6 10A9     		add	r1, sp, #64
 2442 10a8 0FA8     		add	r0, sp, #60
 2443 10aa FFF7FEFF 		bl	mcpwm_foc_get_current_offsets
 2444              	.LVL315:
 2445              		.loc 1 500 0
 2446 10ae DDE91023 		ldrd	r2, r3, [sp, #64]
 2447 10b2 0F99     		ldr	r1, [sp, #60]
 2448 10b4 9A48     		ldr	r0, .L313+48
 2449 10b6 FFF7FEFF 		bl	commands_printf
 2450              	.LVL316:
 2451              		.loc 1 503 0
ARM GAS  /tmp/ccHCUo6g.s 			page 44


 2452 10ba 9A48     		ldr	r0, .L313+52
 2453 10bc FFF7FEFF 		bl	commands_printf
 2454              	.LVL317:
 2455              	.LBE149:
 2456 10c0 FFF711B8 		b	.L1
 2457              	.LVL318:
 2458              	.L104:
 2459              		.loc 1 536 0
 2460 10c4 9849     		ldr	r1, .L313+56
 2461 10c6 2846     		mov	r0, r5
 2462 10c8 FFF7FEFF 		bl	strcmp
 2463              	.LVL319:
 2464 10cc C8B9     		cbnz	r0, .L109
 2465              		.loc 1 537 0
 2466 10ce 022C     		cmp	r4, #2
 2467 10d0 7FF435AA 		bne	.L47
 2468              	.LBB150:
 2469              		.loc 1 538 0
 2470 10d4 4FF0FF33 		mov	r3, #-1
 2471              		.loc 1 539 0
 2472 10d8 1998     		ldr	r0, [sp, #100]
 2473 10da 9449     		ldr	r1, .L313+60
 2474              		.loc 1 538 0
 2475 10dc 1193     		str	r3, [sp, #68]
 2476              		.loc 1 539 0
 2477 10de 11AA     		add	r2, sp, #68
 2478 10e0 FFF7FEFF 		bl	sscanf
 2479              	.LVL320:
 2480              		.loc 1 541 0
 2481 10e4 119B     		ldr	r3, [sp, #68]
 2482 10e6 002B     		cmp	r3, #0
 2483 10e8 FFF604A8 		blt	.L248
 2484              	.LBB151:
 2485              		.loc 1 543 0
 2486 10ec 3822     		movs	r2, #56
 2487              		.loc 1 545 0
 2488 10ee 10A8     		add	r0, sp, #64
 2489 10f0 0221     		movs	r1, #2
 2490              		.loc 1 544 0
 2491 10f2 8DF84130 		strb	r3, [sp, #65]
 2492              		.loc 1 543 0
 2493 10f6 8DF84020 		strb	r2, [sp, #64]
 2494              		.loc 1 545 0
 2495 10fa FFF7FEFF 		bl	commands_send_packet_nrf
 2496              	.LVL321:
 2497              	.LBE151:
 2498 10fe FEF7F2BF 		b	.L1
 2499              	.L109:
 2500              	.LBE150:
 2501              		.loc 1 552 0
 2502 1102 8B49     		ldr	r1, .L313+64
 2503 1104 2846     		mov	r0, r5
 2504 1106 FFF7FEFF 		bl	strcmp
 2505              	.LVL322:
 2506 110a 68BB     		cbnz	r0, .L112
 2507              		.loc 1 553 0
 2508 110c 022C     		cmp	r4, #2
ARM GAS  /tmp/ccHCUo6g.s 			page 45


 2509 110e 7FF416AA 		bne	.L47
 2510              	.LBB152:
 2511              		.loc 1 554 0
 2512 1112 884B     		ldr	r3, .L313+68
 2513              		.loc 1 555 0
 2514 1114 1998     		ldr	r0, [sp, #100]
 2515 1116 8849     		ldr	r1, .L313+72
 2516              		.loc 1 554 0
 2517 1118 1193     		str	r3, [sp, #68]	@ float
 2518              		.loc 1 555 0
 2519 111a 11AA     		add	r2, sp, #68
 2520 111c FFF7FEFF 		bl	sscanf
 2521              	.LVL323:
 2522              		.loc 1 557 0
 2523 1120 9DED110A 		vldr.32	s0, [sp, #68]
 2524 1124 B5EEC00A 		vcmpe.f32	s0, #0
 2525 1128 F1EE10FA 		vmrs	APSR_nzcv, FPSCR
 2526 112c 7EF7E2AF 		ble	.L248
 2527              		.loc 1 557 0 is_stmt 0 discriminator 1
 2528 1130 824B     		ldr	r3, .L313+76
 2529 1132 D3ED017A 		vldr.32	s15, [r3, #4]
 2530 1136 B4EEE70A 		vcmpe.f32	s0, s15
 2531 113a F1EE10FA 		vmrs	APSR_nzcv, FPSCR
 2532 113e 3EF6D9AF 		bhi	.L248
 2533              	.LBB153:
 2534              		.loc 1 558 0 is_stmt 1
 2535 1142 0121     		movs	r1, #1
 2536 1144 0846     		mov	r0, r1
 2537 1146 FFF7FEFF 		bl	conf_general_autodetect_apply_sensors_foc
 2538              	.LVL324:
 2539              		.loc 1 560 0
 2540 114a 0146     		mov	r1, r0
 2541 114c 0028     		cmp	r0, #0
 2542 114e 00F0C281 		beq	.L255
 2543              		.loc 1 562 0
 2544 1152 0128     		cmp	r0, #1
 2545 1154 00F0B581 		beq	.L254
 2546              		.loc 1 564 0
 2547 1158 0228     		cmp	r0, #2
 2548 115a 00F0B781 		beq	.L253
 2549              	.LVL325:
 2550              	.L257:
 2551              	.LBE153:
 2552              	.LBE152:
 2553              	.LBB154:
 2554              	.LBB82:
 2555              		.loc 1 703 0
 2556 115e 7848     		ldr	r0, .L313+80
 2557 1160 FFF7FEFF 		bl	commands_printf
 2558              	.LVL326:
 2559 1164 FEF7BFBF 		b	.L1
 2560              	.LVL327:
 2561              	.L112:
 2562              	.LBE82:
 2563              	.LBE154:
 2564              		.loc 1 575 0
 2565 1168 7649     		ldr	r1, .L313+84
ARM GAS  /tmp/ccHCUo6g.s 			page 46


 2566 116a 2846     		mov	r0, r5
 2567 116c FFF7FEFF 		bl	strcmp
 2568              	.LVL328:
 2569 1170 0746     		mov	r7, r0
 2570 1172 0028     		cmp	r0, #0
 2571 1174 40F08280 		bne	.L120
 2572              		.loc 1 576 0
 2573 1178 042C     		cmp	r4, #4
 2574 117a 7FF4A1A8 		bne	.L27
 2575              	.LBB155:
 2576              		.loc 1 577 0
 2577 117e 0FAE     		add	r6, sp, #60
 2578              		.loc 1 578 0
 2579 1180 10AC     		add	r4, sp, #64
 2580              	.LVL329:
 2581              		.loc 1 579 0
 2582 1182 11AD     		add	r5, sp, #68
 2583              		.loc 1 577 0
 2584 1184 6B4B     		ldr	r3, .L313+68
 2585              		.loc 1 580 0
 2586 1186 6C49     		ldr	r1, .L313+72
 2587 1188 1998     		ldr	r0, [sp, #100]
 2588              		.loc 1 577 0
 2589 118a 3360     		str	r3, [r6]	@ float
 2590              		.loc 1 580 0
 2591 118c 3246     		mov	r2, r6
 2592              		.loc 1 578 0
 2593 118e 2360     		str	r3, [r4]	@ float
 2594              		.loc 1 579 0
 2595 1190 2B60     		str	r3, [r5]	@ float
 2596              		.loc 1 580 0
 2597 1192 FFF7FEFF 		bl	sscanf
 2598              	.LVL330:
 2599              		.loc 1 581 0
 2600 1196 2246     		mov	r2, r4
 2601 1198 6749     		ldr	r1, .L313+72
 2602 119a 1A98     		ldr	r0, [sp, #104]
 2603 119c FFF7FEFF 		bl	sscanf
 2604              	.LVL331:
 2605              		.loc 1 582 0
 2606 11a0 2A46     		mov	r2, r5
 2607 11a2 1B98     		ldr	r0, [sp, #108]
 2608 11a4 6449     		ldr	r1, .L313+72
 2609 11a6 FFF7FEFF 		bl	sscanf
 2610              	.LVL332:
 2611              		.loc 1 584 0
 2612 11aa D6ED007A 		vldr.32	s15, [r6]
 2613 11ae F5EEC07A 		vcmpe.f32	s15, #0
 2614 11b2 F1EE10FA 		vmrs	APSR_nzcv, FPSCR
 2615 11b6 7EF79DAF 		ble	.L248
 2616              		.loc 1 584 0 is_stmt 0 discriminator 1
 2617 11ba 604B     		ldr	r3, .L313+76
 2618 11bc 93ED017A 		vldr.32	s14, [r3, #4]
 2619 11c0 F4EEC77A 		vcmpe.f32	s15, s14
 2620 11c4 F1EE10FA 		vmrs	APSR_nzcv, FPSCR
 2621 11c8 3EF694AF 		bhi	.L248
 2622              		.loc 1 585 0 is_stmt 1 discriminator 2
ARM GAS  /tmp/ccHCUo6g.s 			page 47


 2623 11cc D5ED007A 		vldr.32	s15, [r5]
 2624              		.loc 1 584 0 discriminator 2
 2625 11d0 F5EEC07A 		vcmpe.f32	s15, #0
 2626 11d4 F1EE10FA 		vmrs	APSR_nzcv, FPSCR
 2627 11d8 FEF68CAF 		blt	.L248
 2628              		.loc 1 585 0
 2629 11dc 9FED5A7A 		vldr.32	s14, .L313+88
 2630 11e0 F4EEC77A 		vcmpe.f32	s15, s14
 2631 11e4 F1EE10FA 		vmrs	APSR_nzcv, FPSCR
 2632 11e8 3EF684AF 		bhi	.L248
 2633              		.loc 1 586 0
 2634 11ec DFED577A 		vldr.32	s15, .L313+92
 2635 11f0 94ED007A 		vldr.32	s14, [r4]
 2636 11f4 B4EEE77A 		vcmpe.f32	s14, s15
 2637 11f8 F1EE10FA 		vmrs	APSR_nzcv, FPSCR
 2638 11fc 31D9     		bls	.L298
 2639              	.LBB156:
 2640              	.LBB157:
 2641              		.loc 1 592 0
 2642 11fe 9FED548A 		vldr.32	s16, .L313+96
 2643              		.loc 1 600 0
 2644 1202 DFF87481 		ldr	r8, .L313+136
 2645              		.loc 1 592 0
 2646 1206 DFED538A 		vldr.32	s17, .L313+100
 2647              	.L126:
 2648              	.LVL333:
 2649              		.loc 1 592 0 is_stmt 0 discriminator 1
 2650 120a D4ED007A 		vldr.32	s15, [r4]
 2651 120e F4EEC87A 		vcmpe.f32	s15, s16
 2652 1212 F1EE10FA 		vmrs	APSR_nzcv, FPSCR
 2653              		.loc 1 597 0 is_stmt 1 discriminator 1
 2654 1216 07F10107 		add	r7, r7, #1
 2655              	.LVL334:
 2656              		.loc 1 592 0 discriminator 1
 2657 121a 1DDD     		ble	.L256
 2658              		.loc 1 593 0
 2659 121c FFF7FEFF 		bl	timeout_reset
 2660              	.LVL335:
 2661              		.loc 1 594 0
 2662 1220 D5ED000A 		vldr.32	s1, [r5]
 2663 1224 96ED000A 		vldr.32	s0, [r6]
 2664 1228 FFF7FEFF 		bl	mcpwm_foc_set_openloop_phase
 2665              	.LVL336:
 2666              		.loc 1 595 0
 2667 122c 1420     		movs	r0, #20
 2668 122e FFF7FEFF 		bl	chThdSleep
 2669              	.LVL337:
 2670              		.loc 1 598 0
 2671 1232 C72F     		cmp	r7, #199
 2672 1234 0DDD     		ble	.L129
 2673              	.LVL338:
 2674              		.loc 1 600 0
 2675 1236 D4ED007A 		vldr.32	s15, [r4]
 2676 123a 77EEC87A 		vsub.f32	s15, s15, s16
 2677              		.loc 1 599 0
 2678 123e 0027     		movs	r7, #0
 2679              		.loc 1 600 0
ARM GAS  /tmp/ccHCUo6g.s 			page 48


 2680 1240 17EE900A 		vmov	r0, s15
 2681 1244 FFF7FEFF 		bl	__aeabi_f2d
 2682              	.LVL339:
 2683 1248 0246     		mov	r2, r0
 2684 124a 0B46     		mov	r3, r1
 2685 124c 4046     		mov	r0, r8
 2686 124e FFF7FEFF 		bl	commands_printf
 2687              	.LVL340:
 2688              	.L129:
 2689              		.loc 1 592 0 discriminator 2
 2690 1252 38EE288A 		vadd.f32	s16, s16, s17
 2691              	.LVL341:
 2692 1256 D8E7     		b	.L126
 2693              	.LVL342:
 2694              	.L256:
 2695              	.LBE157:
 2696              	.LBE156:
 2697              	.LBE155:
 2698              	.LBB158:
 2699              		.loc 1 669 0
 2700 1258 3F48     		ldr	r0, .L313+104
 2701 125a FFF7FEFF 		bl	commands_printf
 2702              	.LVL343:
 2703 125e FEF742BF 		b	.L1
 2704              	.L298:
 2705              	.LBE158:
 2706              	.LBB161:
 2707              		.loc 1 587 0
 2708 1262 FFF7FEFF 		bl	timeout_reset
 2709              	.LVL344:
 2710              		.loc 1 588 0
 2711 1266 D5ED000A 		vldr.32	s1, [r5]
 2712 126a 96ED000A 		vldr.32	s0, [r6]
 2713 126e FFF7FEFF 		bl	mcpwm_foc_set_openloop_phase
 2714              	.LVL345:
 2715              		.loc 1 589 0
 2716 1272 3A48     		ldr	r0, .L313+108
 2717 1274 FFF7FEFF 		bl	commands_printf
 2718              	.LVL346:
 2719 1278 FEF735BF 		b	.L1
 2720              	.LVL347:
 2721              	.L120:
 2722              	.LBE161:
 2723              		.loc 1 612 0
 2724 127c 3849     		ldr	r1, .L313+112
 2725 127e 2846     		mov	r0, r5
 2726 1280 FFF7FEFF 		bl	strcmp
 2727              	.LVL348:
 2728 1284 0028     		cmp	r0, #0
 2729 1286 40F0D780 		bne	.L131
 2730              		.loc 1 613 0
 2731 128a 022C     		cmp	r4, #2
 2732 128c 7FF457A9 		bne	.L47
 2733              	.LBB162:
 2734              		.loc 1 614 0
 2735 1290 284B     		ldr	r3, .L313+68
 2736              		.loc 1 615 0
ARM GAS  /tmp/ccHCUo6g.s 			page 49


 2737 1292 1998     		ldr	r0, [sp, #100]
 2738 1294 2849     		ldr	r1, .L313+72
 2739              		.loc 1 614 0
 2740 1296 1193     		str	r3, [sp, #68]	@ float
 2741              		.loc 1 615 0
 2742 1298 11AA     		add	r2, sp, #68
 2743 129a FFF7FEFF 		bl	sscanf
 2744              	.LVL349:
 2745              		.loc 1 617 0
 2746 129e DDED117A 		vldr.32	s15, [sp, #68]
 2747 12a2 F5EEC07A 		vcmpe.f32	s15, #0
 2748 12a6 F1EE10FA 		vmrs	APSR_nzcv, FPSCR
 2749 12aa 7EF723AF 		ble	.L248
 2750              	.LBB163:
 2751              		.loc 1 618 0
 2752 12ae 2D48     		ldr	r0, .L313+116
 2753 12b0 FFF7FEFF 		bl	commands_printf
 2754              	.LVL350:
 2755              		.loc 1 619 0
 2756 12b4 0121     		movs	r1, #1
 2757 12b6 0846     		mov	r0, r1
 2758 12b8 9DED110A 		vldr.32	s0, [sp, #68]
 2759 12bc FFF7FEFF 		bl	conf_general_detect_apply_all_foc
 2760              	.LVL351:
 2761              	.L269:
 2762              	.LBE163:
 2763              	.LBE162:
 2764              	.LBB164:
 2765              	.LBB83:
 2766              		.loc 1 680 0
 2767 12c0 0546     		mov	r5, r0
 2768              	.LVL352:
 2769              		.loc 1 682 0
 2770 12c2 0146     		mov	r1, r0
 2771 12c4 2848     		ldr	r0, .L313+120
 2772              	.LVL353:
 2773 12c6 FFF7FEFF 		bl	commands_printf
 2774              	.LVL354:
 2775              		.loc 1 684 0
 2776 12ca 002D     		cmp	r5, #0
 2777 12cc 56DA     		bge	.L299
 2778              		.loc 1 706 0
 2779 12ce 15F10A0F 		cmn	r5, #10
 2780 12d2 09D0     		beq	.L300
 2781              		.loc 1 708 0
 2782 12d4 0B35     		adds	r5, r5, #11
 2783              	.LVL355:
 2784 12d6 02D1     		bne	.L158
 2785              		.loc 1 709 0
 2786 12d8 2448     		ldr	r0, .L313+124
 2787 12da FFF7FEFF 		bl	commands_printf
 2788              	.LVL356:
 2789              	.L158:
 2790              		.loc 1 712 0
 2791 12de 2448     		ldr	r0, .L313+128
 2792 12e0 FFF7FEFF 		bl	commands_printf
 2793              	.LVL357:
ARM GAS  /tmp/ccHCUo6g.s 			page 50


 2794 12e4 FEF7FFBE 		b	.L1
 2795              	.LVL358:
 2796              	.L300:
 2797              		.loc 1 707 0
 2798 12e8 2248     		ldr	r0, .L313+132
 2799 12ea FFF7FEFF 		bl	commands_printf
 2800              	.LVL359:
 2801 12ee F6E7     		b	.L158
 2802              	.L314:
 2803              		.align	2
 2804              	.L313:
 2805 12f0 600A0000 		.word	.LC116
 2806 12f4 700A0000 		.word	.LC117
 2807 12f8 780A0000 		.word	.LC118
 2808 12fc 1B7AFF1F 		.word	536836635
 2809 1300 127AFF1F 		.word	536836626
 2810 1304 117AFF1F 		.word	536836625
 2811 1308 107AFF1F 		.word	536836624
 2812 130c 880A0000 		.word	.LC119
 2813 1310 00000000 		.word	conf_general_permanent_nrf_found
 2814 1314 14000000 		.word	.LC3
 2815 1318 10000000 		.word	.LC2
 2816 131c CC0A0000 		.word	.LC120
 2817 1320 E40A0000 		.word	.LC121
 2818 1324 18000000 		.word	.LC4
 2819 1328 500B0000 		.word	.LC125
 2820 132c 640B0000 		.word	.LC126
 2821 1330 680B0000 		.word	.LC127
 2822 1334 000080BF 		.word	-1082130432
 2823 1338 50000000 		.word	.LC9
 2824 133c 00000000 		.word	.LANCHOR0
 2825 1340 F80B0000 		.word	.LC131
 2826 1344 100C0000 		.word	.LC132
 2827 1348 0000B443 		.word	1135869952
 2828 134c BD378635 		.word	897988541
 2829 1350 00000000 		.word	0
 2830 1354 6F12033B 		.word	990057071
 2831 1358 380C0000 		.word	.LC135
 2832 135c 240C0000 		.word	.LC133
 2833 1360 400C0000 		.word	.LC136
 2834 1364 580C0000 		.word	.LC137
 2835 1368 700C0000 		.word	.LC138
 2836 136c 840D0000 		.word	.LC147
 2837 1370 AC0D0000 		.word	.LC148
 2838 1374 640D0000 		.word	.LC146
 2839 1378 280C0000 		.word	.LC134
 2840              	.L299:
 2841              		.loc 1 685 0
 2842 137c 8848     		ldr	r0, .L315
 2843              		.loc 1 686 0
 2844 137e 894C     		ldr	r4, .L315+4
 2845              	.LVL360:
 2846              		.loc 1 688 0
 2847 1380 9FED898A 		vldr.32	s16, .L315+8
 2848              		.loc 1 685 0
 2849 1384 FFF7FEFF 		bl	commands_printf
 2850              	.LVL361:
ARM GAS  /tmp/ccHCUo6g.s 			page 51


 2851              		.loc 1 686 0
 2852 1388 FFF7FEFF 		bl	mc_interface_get_configuration
 2853              	.LVL362:
 2854 138c 4FF4E472 		mov	r2, #456
 2855 1390 0146     		mov	r1, r0
 2856 1392 2046     		mov	r0, r4
 2857 1394 FFF7FEFF 		bl	memcpy
 2858              	.LVL363:
 2859              		.loc 1 687 0
 2860 1398 6068     		ldr	r0, [r4, #4]	@ float
 2861 139a FFF7FEFF 		bl	__aeabi_f2d
 2862              	.LVL364:
 2863 139e 0246     		mov	r2, r0
 2864 13a0 0B46     		mov	r3, r1
 2865 13a2 8248     		ldr	r0, .L315+12
 2866 13a4 FFF7FEFF 		bl	commands_printf
 2867              	.LVL365:
 2868              		.loc 1 688 0
 2869 13a8 D4ED387A 		vldr.32	s15, [r4, #224]
 2870 13ac 67EE887A 		vmul.f32	s15, s15, s16
 2871 13b0 17EE900A 		vmov	r0, s15
 2872 13b4 FFF7FEFF 		bl	__aeabi_f2d
 2873              	.LVL366:
 2874 13b8 0246     		mov	r2, r0
 2875 13ba 0B46     		mov	r3, r1
 2876 13bc 7C48     		ldr	r0, .L315+16
 2877 13be FFF7FEFF 		bl	commands_printf
 2878              	.LVL367:
 2879              		.loc 1 689 0
 2880 13c2 94ED377A 		vldr.32	s14, [r4, #220]
 2881 13c6 DFED7B7A 		vldr.32	s15, .L315+20
 2882 13ca 67EE277A 		vmul.f32	s15, s14, s15
 2883 13ce 17EE900A 		vmov	r0, s15
 2884 13d2 FFF7FEFF 		bl	__aeabi_f2d
 2885              	.LVL368:
 2886 13d6 0246     		mov	r2, r0
 2887 13d8 0B46     		mov	r3, r1
 2888 13da 7748     		ldr	r0, .L315+24
 2889 13dc FFF7FEFF 		bl	commands_printf
 2890              	.LVL369:
 2891              		.loc 1 690 0
 2892 13e0 D4ED397A 		vldr.32	s15, [r4, #228]
 2893 13e4 67EE887A 		vmul.f32	s15, s15, s16
 2894 13e8 17EE900A 		vmov	r0, s15
 2895 13ec FFF7FEFF 		bl	__aeabi_f2d
 2896              	.LVL370:
 2897 13f0 0246     		mov	r2, r0
 2898 13f2 0B46     		mov	r3, r1
 2899 13f4 7148     		ldr	r0, .L315+28
 2900 13f6 FFF7FEFF 		bl	commands_printf
 2901              	.LVL371:
 2902              		.loc 1 691 0
 2903 13fa 714B     		ldr	r3, .L315+32
 2904 13fc 94F82C11 		ldrb	r1, [r4, #300]	@ zero_extendqisi2
 2905 1400 704A     		ldr	r2, .L315+36
 2906 1402 7148     		ldr	r0, .L315+40
 2907 1404 0029     		cmp	r1, #0
ARM GAS  /tmp/ccHCUo6g.s 			page 52


 2908 1406 0CBF     		ite	eq
 2909 1408 1146     		moveq	r1, r2
 2910 140a 1946     		movne	r1, r3
 2911 140c FFF7FEFF 		bl	commands_printf
 2912              	.LVL372:
 2913              		.loc 1 692 0
 2914 1410 94F82C31 		ldrb	r3, [r4, #300]	@ zero_extendqisi2
 2915 1414 43B1     		cbz	r3, .L152
 2916              		.loc 1 693 0
 2917 1416 D4F83001 		ldr	r0, [r4, #304]	@ float
 2918 141a FFF7FEFF 		bl	__aeabi_f2d
 2919              	.LVL373:
 2920 141e 0246     		mov	r2, r0
 2921 1420 0B46     		mov	r3, r1
 2922 1422 6A48     		ldr	r0, .L315+44
 2923 1424 FFF7FEFF 		bl	commands_printf
 2924              	.LVL374:
 2925              	.L152:
 2926              		.loc 1 696 0
 2927 1428 002D     		cmp	r5, #0
 2928 142a 54D0     		beq	.L255
 2929              		.loc 1 698 0
 2930 142c 012D     		cmp	r5, #1
 2931 142e 48D0     		beq	.L254
 2932              		.loc 1 700 0
 2933 1430 022D     		cmp	r5, #2
 2934 1432 4BD0     		beq	.L253
 2935              		.loc 1 703 0
 2936 1434 2946     		mov	r1, r5
 2937 1436 92E6     		b	.L257
 2938              	.LVL375:
 2939              	.L131:
 2940              	.LBE83:
 2941              	.LBE164:
 2942              		.loc 1 659 0
 2943 1438 6549     		ldr	r1, .L315+48
 2944 143a 2846     		mov	r0, r5
 2945 143c FFF7FEFF 		bl	strcmp
 2946              	.LVL376:
 2947 1440 0646     		mov	r6, r0
 2948 1442 B0B9     		cbnz	r0, .L143
 2949              	.LBB165:
 2950              	.LBB159:
 2951              		.loc 1 663 0
 2952 1444 634F     		ldr	r7, .L315+52
 2953              	.LBE159:
 2954              		.loc 1 660 0
 2955 1446 0446     		mov	r4, r0
 2956              	.LVL377:
 2957              	.L145:
 2958              	.LBB160:
 2959              		.loc 1 662 0
 2960 1448 F0B2     		uxtb	r0, r6
 2961 144a FFF7FEFF 		bl	comm_can_ping
 2962              	.LVL378:
 2963 144e 0546     		mov	r5, r0
 2964 1450 20B1     		cbz	r0, .L144
ARM GAS  /tmp/ccHCUo6g.s 			page 53


 2965              		.loc 1 663 0
 2966 1452 3146     		mov	r1, r6
 2967 1454 3846     		mov	r0, r7
 2968 1456 FFF7FEFF 		bl	commands_printf
 2969              	.LVL379:
 2970              		.loc 1 664 0
 2971 145a 2C46     		mov	r4, r5
 2972              	.LVL380:
 2973              	.L144:
 2974              		.loc 1 661 0 discriminator 2
 2975 145c 0136     		adds	r6, r6, #1
 2976              	.LVL381:
 2977 145e FE2E     		cmp	r6, #254
 2978 1460 F2D1     		bne	.L145
 2979              	.LBE160:
 2980              		.loc 1 668 0
 2981 1462 002C     		cmp	r4, #0
 2982 1464 7FF4F8AE 		bne	.L256
 2983              		.loc 1 671 0
 2984 1468 5B48     		ldr	r0, .L315+56
 2985 146a FFF7FEFF 		bl	commands_printf
 2986              	.LVL382:
 2987 146e FEF73ABE 		b	.L1
 2988              	.LVL383:
 2989              	.L143:
 2990              	.LBE165:
 2991              		.loc 1 673 0
 2992 1472 5A49     		ldr	r1, .L315+60
 2993 1474 2846     		mov	r0, r5
 2994 1476 FFF7FEFF 		bl	strcmp
 2995              	.LVL384:
 2996 147a 88BB     		cbnz	r0, .L147
 2997              		.loc 1 674 0
 2998 147c 022C     		cmp	r4, #2
 2999 147e 7FF45EA8 		bne	.L47
 3000              	.LBB166:
 3001              		.loc 1 675 0
 3002 1482 574B     		ldr	r3, .L315+64
 3003              		.loc 1 676 0
 3004 1484 1998     		ldr	r0, [sp, #100]
 3005 1486 5749     		ldr	r1, .L315+68
 3006              		.loc 1 675 0
 3007 1488 1193     		str	r3, [sp, #68]	@ float
 3008              		.loc 1 676 0
 3009 148a 11AA     		add	r2, sp, #68
 3010 148c FFF7FEFF 		bl	sscanf
 3011              	.LVL385:
 3012              		.loc 1 678 0
 3013 1490 DDED117A 		vldr.32	s15, [sp, #68]
 3014 1494 F5EEC07A 		vcmpe.f32	s15, #0
 3015 1498 F1EE10FA 		vmrs	APSR_nzcv, FPSCR
 3016 149c 7EF72AAE 		ble	.L248
 3017              	.LBB84:
 3018              		.loc 1 679 0
 3019 14a0 5148     		ldr	r0, .L315+72
 3020 14a2 FFF7FEFF 		bl	commands_printf
 3021              	.LVL386:
ARM GAS  /tmp/ccHCUo6g.s 			page 54


 3022              		.loc 1 680 0
 3023 14a6 9FED512A 		vldr.32	s4, .L315+76
 3024 14aa 9DED110A 		vldr.32	s0, [sp, #68]
 3025 14ae F0EE421A 		vmov.f32	s3, s4
 3026 14b2 B0EE421A 		vmov.f32	s2, s4
 3027 14b6 F0EE420A 		vmov.f32	s1, s4
 3028 14ba 0120     		movs	r0, #1
 3029 14bc FFF7FEFF 		bl	conf_general_detect_apply_all_foc_can
 3030              	.LVL387:
 3031 14c0 FEE6     		b	.L269
 3032              	.LVL388:
 3033              	.L254:
 3034              		.loc 1 699 0
 3035 14c2 4B48     		ldr	r0, .L315+80
 3036 14c4 FFF7FEFF 		bl	commands_printf
 3037              	.LVL389:
 3038 14c8 FEF70DBE 		b	.L1
 3039              	.L253:
 3040              		.loc 1 701 0
 3041 14cc 4948     		ldr	r0, .L315+84
 3042 14ce FFF7FEFF 		bl	commands_printf
 3043              	.LVL390:
 3044 14d2 FEF708BE 		b	.L1
 3045              	.L255:
 3046              		.loc 1 697 0
 3047 14d6 4848     		ldr	r0, .L315+88
 3048 14d8 FFF7FEFF 		bl	commands_printf
 3049              	.LVL391:
 3050 14dc FEF703BE 		b	.L1
 3051              	.LVL392:
 3052              	.L147:
 3053              	.LBE84:
 3054              	.LBE166:
 3055              		.loc 1 720 0
 3056 14e0 4649     		ldr	r1, .L315+92
 3057 14e2 2846     		mov	r0, r5
 3058 14e4 FFF7FEFF 		bl	strcmp
 3059              	.LVL393:
 3060 14e8 B0BB     		cbnz	r0, .L159
 3061              		.loc 1 721 0
 3062 14ea 2E4C     		ldr	r4, .L315+4
 3063              	.LVL394:
 3064 14ec 94F89831 		ldrb	r3, [r4, #408]	@ zero_extendqisi2
 3065 14f0 9A1E     		subs	r2, r3, #2
 3066 14f2 012A     		cmp	r2, #1
 3067 14f4 40F2A181 		bls	.L160
 3068              		.loc 1 722 0
 3069 14f8 052B     		cmp	r3, #5
 3070 14fa 00F09E81 		beq	.L160
 3071              	.L161:
 3072              		.loc 1 730 0
 3073 14fe 94F89831 		ldrb	r3, [r4, #408]	@ zero_extendqisi2
 3074 1502 042B     		cmp	r3, #4
 3075 1504 7EF4EFAD 		bne	.L1
 3076              		.loc 1 731 0
 3077 1508 FFF7FEFF 		bl	encoder_sincos_get_signal_below_min_error_cnt
 3078              	.LVL395:
ARM GAS  /tmp/ccHCUo6g.s 			page 55


 3079 150c 0446     		mov	r4, r0
 3080              		.loc 1 733 0
 3081 150e FFF7FEFF 		bl	encoder_sincos_get_signal_below_min_error_rate
 3082              	.LVL396:
 3083 1512 10EE100A 		vmov	r0, s0
 3084 1516 FFF7FEFF 		bl	__aeabi_f2d
 3085              	.LVL397:
 3086              		.loc 1 731 0
 3087 151a 0022     		movs	r2, #0
 3088 151c 384B     		ldr	r3, .L315+96
 3089 151e FFF7FEFF 		bl	__aeabi_dmul
 3090              	.LVL398:
 3091 1522 0246     		mov	r2, r0
 3092 1524 0B46     		mov	r3, r1
 3093 1526 3748     		ldr	r0, .L315+100
 3094 1528 2146     		mov	r1, r4
 3095 152a FFF7FEFF 		bl	commands_printf
 3096              	.LVL399:
 3097              		.loc 1 735 0
 3098 152e FFF7FEFF 		bl	encoder_sincos_get_signal_above_max_error_cnt
 3099              	.LVL400:
 3100 1532 0446     		mov	r4, r0
 3101              		.loc 1 737 0
 3102 1534 FFF7FEFF 		bl	encoder_sincos_get_signal_above_max_error_rate
 3103              	.LVL401:
 3104 1538 10EE100A 		vmov	r0, s0
 3105 153c FFF7FEFF 		bl	__aeabi_f2d
 3106              	.LVL402:
 3107              		.loc 1 735 0
 3108 1540 0022     		movs	r2, #0
 3109 1542 2F4B     		ldr	r3, .L315+96
 3110 1544 FFF7FEFF 		bl	__aeabi_dmul
 3111              	.LVL403:
 3112 1548 0246     		mov	r2, r0
 3113 154a 0B46     		mov	r3, r1
 3114 154c 2E48     		ldr	r0, .L315+104
 3115 154e 2146     		mov	r1, r4
 3116 1550 FFF7FEFF 		bl	commands_printf
 3117              	.LVL404:
 3118 1554 FEF7C7BD 		b	.L1
 3119              	.LVL405:
 3120              	.L159:
 3121              		.loc 1 742 0
 3122 1558 2C49     		ldr	r1, .L315+108
 3123 155a 2846     		mov	r0, r5
 3124 155c FFF7FEFF 		bl	strcmp
 3125              	.LVL406:
 3126 1560 0646     		mov	r6, r0
 3127 1562 0028     		cmp	r0, #0
 3128 1564 5AD0     		beq	.L162
 3129              	.LBB167:
 3130              	.LBB168:
 3131              		.loc 1 878 0
 3132 1566 2A4B     		ldr	r3, .L315+112
 3133              		.loc 1 879 0
 3134 1568 DFF8AC80 		ldr	r8, .L315+120
 3135              		.loc 1 878 0
ARM GAS  /tmp/ccHCUo6g.s 			page 56


 3136 156c D3F80090 		ldr	r9, [r3]
 3137 1570 0026     		movs	r6, #0
 3138              	.L163:
 3139              	.LVL407:
 3140 1572 3301     		lsls	r3, r6, #4
 3141              		.loc 1 878 0 is_stmt 0 discriminator 1
 3142 1574 B145     		cmp	r9, r6
 3143              		.loc 1 879 0 is_stmt 1 discriminator 1
 3144 1576 08EB0302 		add	r2, r8, r3
 3145 157a 2846     		mov	r0, r5
 3146              		.loc 1 878 0 discriminator 1
 3147 157c 0ADD     		ble	.L301
 3148              		.loc 1 879 0
 3149 157e D768     		ldr	r7, [r2, #12]
 3150 1580 37B1     		cbz	r7, .L171
 3151              		.loc 1 879 0 is_stmt 0 discriminator 1
 3152 1582 53F80810 		ldr	r1, [r3, r8]
 3153 1586 FFF7FEFF 		bl	strcmp
 3154              	.LVL408:
 3155 158a 0028     		cmp	r0, #0
 3156 158c 00F06D81 		beq	.L302
 3157              	.L171:
 3158              		.loc 1 878 0 is_stmt 1 discriminator 2
 3159 1590 0136     		adds	r6, r6, #1
 3160              	.LVL409:
 3161 1592 EEE7     		b	.L163
 3162              	.L301:
 3163              	.LVL410:
 3164              	.LBE168:
 3165              		.loc 1 887 0
 3166 1594 2946     		mov	r1, r5
 3167 1596 1F48     		ldr	r0, .L315+116
 3168 1598 FFF7FEFF 		bl	commands_printf
 3169              	.LVL411:
 3170 159c FEF7A3BD 		b	.L1
 3171              	.L316:
 3172              		.align	2
 3173              	.L315:
 3174 15a0 780C0000 		.word	.LC139
 3175 15a4 00000000 		.word	.LANCHOR0
 3176 15a8 00007A44 		.word	1148846080
 3177 15ac A40C0000 		.word	.LC140
 3178 15b0 C40C0000 		.word	.LC141
 3179 15b4 00247449 		.word	1232348160
 3180 15b8 E40C0000 		.word	.LC142
 3181 15bc 080D0000 		.word	.LC143
 3182 15c0 00000000 		.word	.LC0
 3183 15c4 08000000 		.word	.LC1
 3184 15c8 280D0000 		.word	.LC144
 3185 15cc 440D0000 		.word	.LC145
 3186 15d0 C00D0000 		.word	.LC149
 3187 15d4 CC0D0000 		.word	.LC150
 3188 15d8 E40D0000 		.word	.LC151
 3189 15dc FC0D0000 		.word	.LC152
 3190 15e0 000080BF 		.word	-1082130432
 3191 15e4 50000000 		.word	.LC9
 3192 15e8 580C0000 		.word	.LC137
ARM GAS  /tmp/ccHCUo6g.s 			page 57


 3193 15ec 00000000 		.word	0
 3194 15f0 B00B0000 		.word	.LC129
 3195 15f4 D40B0000 		.word	.LC130
 3196 15f8 840B0000 		.word	.LC128
 3197 15fc 180E0000 		.word	.LC153
 3198 1600 00005940 		.word	1079574528
 3199 1604 580E0000 		.word	.LC155
 3200 1608 A80E0000 		.word	.LC156
 3201 160c F80E0000 		.word	.LC157
 3202 1610 00000000 		.word	.LANCHOR5
 3203 1614 181A0000 		.word	.LC219
 3204 1618 00000000 		.word	.LANCHOR6
 3205              	.LVL412:
 3206              	.L162:
 3207              	.LBE167:
 3208              		.loc 1 743 0
 3209 161c 9948     		ldr	r0, .L317
 3210 161e 9A4C     		ldr	r4, .L317+4
 3211              	.LVL413:
 3212 1620 DFF8AC93 		ldr	r9, .L317+332
 3213              	.LBB170:
 3214              		.loc 1 871 0
 3215 1624 DFF8AC83 		ldr	r8, .L317+336
 3216              		.loc 1 869 0
 3217 1628 984F     		ldr	r7, .L317+8
 3218              		.loc 1 863 0
 3219 162a 994D     		ldr	r5, .L317+12
 3220              	.LBE170:
 3221              		.loc 1 743 0
 3222 162c FFF7FEFF 		bl	commands_printf
 3223              	.LVL414:
 3224              		.loc 1 744 0
 3225 1630 9848     		ldr	r0, .L317+16
 3226 1632 FFF7FEFF 		bl	commands_printf
 3227              	.LVL415:
 3228              		.loc 1 745 0
 3229 1636 9848     		ldr	r0, .L317+20
 3230 1638 FFF7FEFF 		bl	commands_printf
 3231              	.LVL416:
 3232              		.loc 1 747 0
 3233 163c 9748     		ldr	r0, .L317+24
 3234 163e FFF7FEFF 		bl	commands_printf
 3235              	.LVL417:
 3236              		.loc 1 748 0
 3237 1642 9748     		ldr	r0, .L317+28
 3238 1644 FFF7FEFF 		bl	commands_printf
 3239              	.LVL418:
 3240              		.loc 1 750 0
 3241 1648 9648     		ldr	r0, .L317+32
 3242 164a FFF7FEFF 		bl	commands_printf
 3243              	.LVL419:
 3244              		.loc 1 751 0
 3245 164e 9648     		ldr	r0, .L317+36
 3246 1650 FFF7FEFF 		bl	commands_printf
 3247              	.LVL420:
 3248              		.loc 1 753 0
 3249 1654 9548     		ldr	r0, .L317+40
ARM GAS  /tmp/ccHCUo6g.s 			page 58


 3250 1656 FFF7FEFF 		bl	commands_printf
 3251              	.LVL421:
 3252              		.loc 1 754 0
 3253 165a 9548     		ldr	r0, .L317+44
 3254 165c FFF7FEFF 		bl	commands_printf
 3255              	.LVL422:
 3256              		.loc 1 756 0
 3257 1660 9448     		ldr	r0, .L317+48
 3258 1662 FFF7FEFF 		bl	commands_printf
 3259              	.LVL423:
 3260              		.loc 1 757 0
 3261 1666 9448     		ldr	r0, .L317+52
 3262 1668 FFF7FEFF 		bl	commands_printf
 3263              	.LVL424:
 3264              		.loc 1 759 0
 3265 166c 9348     		ldr	r0, .L317+56
 3266 166e FFF7FEFF 		bl	commands_printf
 3267              	.LVL425:
 3268              		.loc 1 760 0
 3269 1672 9348     		ldr	r0, .L317+60
 3270 1674 FFF7FEFF 		bl	commands_printf
 3271              	.LVL426:
 3272              		.loc 1 762 0
 3273 1678 9248     		ldr	r0, .L317+64
 3274 167a FFF7FEFF 		bl	commands_printf
 3275              	.LVL427:
 3276              		.loc 1 763 0
 3277 167e 9248     		ldr	r0, .L317+68
 3278 1680 FFF7FEFF 		bl	commands_printf
 3279              	.LVL428:
 3280              		.loc 1 765 0
 3281 1684 9148     		ldr	r0, .L317+72
 3282 1686 FFF7FEFF 		bl	commands_printf
 3283              	.LVL429:
 3284              		.loc 1 766 0
 3285 168a 9148     		ldr	r0, .L317+76
 3286 168c FFF7FEFF 		bl	commands_printf
 3287              	.LVL430:
 3288              		.loc 1 768 0
 3289 1690 9048     		ldr	r0, .L317+80
 3290 1692 FFF7FEFF 		bl	commands_printf
 3291              	.LVL431:
 3292              		.loc 1 769 0
 3293 1696 9048     		ldr	r0, .L317+84
 3294 1698 FFF7FEFF 		bl	commands_printf
 3295              	.LVL432:
 3296              		.loc 1 771 0
 3297 169c 8F48     		ldr	r0, .L317+88
 3298 169e FFF7FEFF 		bl	commands_printf
 3299              	.LVL433:
 3300              		.loc 1 772 0
 3301 16a2 8F48     		ldr	r0, .L317+92
 3302 16a4 FFF7FEFF 		bl	commands_printf
 3303              	.LVL434:
 3304              		.loc 1 774 0
 3305 16a8 8E48     		ldr	r0, .L317+96
 3306 16aa FFF7FEFF 		bl	commands_printf
ARM GAS  /tmp/ccHCUo6g.s 			page 59


 3307              	.LVL435:
 3308              		.loc 1 775 0
 3309 16ae 8E48     		ldr	r0, .L317+100
 3310 16b0 FFF7FEFF 		bl	commands_printf
 3311              	.LVL436:
 3312              		.loc 1 777 0
 3313 16b4 8D48     		ldr	r0, .L317+104
 3314 16b6 FFF7FEFF 		bl	commands_printf
 3315              	.LVL437:
 3316              		.loc 1 778 0
 3317 16ba 8D48     		ldr	r0, .L317+108
 3318 16bc FFF7FEFF 		bl	commands_printf
 3319              	.LVL438:
 3320              		.loc 1 780 0
 3321 16c0 8C48     		ldr	r0, .L317+112
 3322 16c2 FFF7FEFF 		bl	commands_printf
 3323              	.LVL439:
 3324              		.loc 1 781 0
 3325 16c6 8C48     		ldr	r0, .L317+116
 3326 16c8 FFF7FEFF 		bl	commands_printf
 3327              	.LVL440:
 3328              		.loc 1 783 0
 3329 16cc 8B48     		ldr	r0, .L317+120
 3330 16ce FFF7FEFF 		bl	commands_printf
 3331              	.LVL441:
 3332              		.loc 1 784 0
 3333 16d2 8B48     		ldr	r0, .L317+124
 3334 16d4 FFF7FEFF 		bl	commands_printf
 3335              	.LVL442:
 3336              		.loc 1 785 0
 3337 16d8 8A48     		ldr	r0, .L317+128
 3338 16da FFF7FEFF 		bl	commands_printf
 3339              	.LVL443:
 3340              		.loc 1 786 0
 3341 16de 8A48     		ldr	r0, .L317+132
 3342 16e0 FFF7FEFF 		bl	commands_printf
 3343              	.LVL444:
 3344              		.loc 1 788 0
 3345 16e4 8948     		ldr	r0, .L317+136
 3346 16e6 FFF7FEFF 		bl	commands_printf
 3347              	.LVL445:
 3348              		.loc 1 789 0
 3349 16ea 8948     		ldr	r0, .L317+140
 3350 16ec FFF7FEFF 		bl	commands_printf
 3351              	.LVL446:
 3352              		.loc 1 791 0
 3353 16f0 8848     		ldr	r0, .L317+144
 3354 16f2 FFF7FEFF 		bl	commands_printf
 3355              	.LVL447:
 3356              		.loc 1 792 0
 3357 16f6 8848     		ldr	r0, .L317+148
 3358 16f8 FFF7FEFF 		bl	commands_printf
 3359              	.LVL448:
 3360              		.loc 1 794 0
 3361 16fc 8748     		ldr	r0, .L317+152
 3362 16fe FFF7FEFF 		bl	commands_printf
 3363              	.LVL449:
ARM GAS  /tmp/ccHCUo6g.s 			page 60


 3364              		.loc 1 795 0
 3365 1702 8748     		ldr	r0, .L317+156
 3366 1704 FFF7FEFF 		bl	commands_printf
 3367              	.LVL450:
 3368              		.loc 1 797 0
 3369 1708 8648     		ldr	r0, .L317+160
 3370 170a FFF7FEFF 		bl	commands_printf
 3371              	.LVL451:
 3372              		.loc 1 798 0
 3373 170e 8648     		ldr	r0, .L317+164
 3374 1710 FFF7FEFF 		bl	commands_printf
 3375              	.LVL452:
 3376              		.loc 1 800 0
 3377 1714 8548     		ldr	r0, .L317+168
 3378 1716 FFF7FEFF 		bl	commands_printf
 3379              	.LVL453:
 3380              		.loc 1 801 0
 3381 171a 8548     		ldr	r0, .L317+172
 3382 171c FFF7FEFF 		bl	commands_printf
 3383              	.LVL454:
 3384              		.loc 1 803 0
 3385 1720 8448     		ldr	r0, .L317+176
 3386 1722 FFF7FEFF 		bl	commands_printf
 3387              	.LVL455:
 3388              		.loc 1 804 0
 3389 1726 8448     		ldr	r0, .L317+180
 3390 1728 FFF7FEFF 		bl	commands_printf
 3391              	.LVL456:
 3392              		.loc 1 806 0
 3393 172c 8348     		ldr	r0, .L317+184
 3394 172e FFF7FEFF 		bl	commands_printf
 3395              	.LVL457:
 3396              		.loc 1 807 0
 3397 1732 8348     		ldr	r0, .L317+188
 3398 1734 FFF7FEFF 		bl	commands_printf
 3399              	.LVL458:
 3400              		.loc 1 808 0
 3401 1738 8248     		ldr	r0, .L317+192
 3402 173a FFF7FEFF 		bl	commands_printf
 3403              	.LVL459:
 3404              		.loc 1 809 0
 3405 173e 8248     		ldr	r0, .L317+196
 3406 1740 FFF7FEFF 		bl	commands_printf
 3407              	.LVL460:
 3408              		.loc 1 811 0
 3409 1744 8148     		ldr	r0, .L317+200
 3410 1746 FFF7FEFF 		bl	commands_printf
 3411              	.LVL461:
 3412              		.loc 1 812 0
 3413 174a 8148     		ldr	r0, .L317+204
 3414 174c FFF7FEFF 		bl	commands_printf
 3415              	.LVL462:
 3416              		.loc 1 814 0
 3417 1750 8048     		ldr	r0, .L317+208
 3418 1752 FFF7FEFF 		bl	commands_printf
 3419              	.LVL463:
 3420              		.loc 1 815 0
ARM GAS  /tmp/ccHCUo6g.s 			page 61


 3421 1756 8048     		ldr	r0, .L317+212
 3422 1758 FFF7FEFF 		bl	commands_printf
 3423              	.LVL464:
 3424              		.loc 1 817 0
 3425 175c 7F48     		ldr	r0, .L317+216
 3426 175e FFF7FEFF 		bl	commands_printf
 3427              	.LVL465:
 3428              		.loc 1 818 0
 3429 1762 7F48     		ldr	r0, .L317+220
 3430 1764 FFF7FEFF 		bl	commands_printf
 3431              	.LVL466:
 3432              		.loc 1 819 0
 3433 1768 7E48     		ldr	r0, .L317+224
 3434 176a FFF7FEFF 		bl	commands_printf
 3435              	.LVL467:
 3436              		.loc 1 820 0
 3437 176e 7648     		ldr	r0, .L317+196
 3438 1770 FFF7FEFF 		bl	commands_printf
 3439              	.LVL468:
 3440              		.loc 1 822 0
 3441 1774 7C48     		ldr	r0, .L317+228
 3442 1776 FFF7FEFF 		bl	commands_printf
 3443              	.LVL469:
 3444              		.loc 1 823 0
 3445 177a 7C48     		ldr	r0, .L317+232
 3446 177c FFF7FEFF 		bl	commands_printf
 3447              	.LVL470:
 3448              		.loc 1 825 0
 3449 1780 7B48     		ldr	r0, .L317+236
 3450 1782 FFF7FEFF 		bl	commands_printf
 3451              	.LVL471:
 3452              		.loc 1 826 0
 3453 1786 7B48     		ldr	r0, .L317+240
 3454 1788 FFF7FEFF 		bl	commands_printf
 3455              	.LVL472:
 3456              		.loc 1 828 0
 3457 178c 7A48     		ldr	r0, .L317+244
 3458 178e FFF7FEFF 		bl	commands_printf
 3459              	.LVL473:
 3460              		.loc 1 829 0
 3461 1792 7A48     		ldr	r0, .L317+248
 3462 1794 FFF7FEFF 		bl	commands_printf
 3463              	.LVL474:
 3464              		.loc 1 831 0
 3465 1798 7948     		ldr	r0, .L317+252
 3466 179a FFF7FEFF 		bl	commands_printf
 3467              	.LVL475:
 3468              		.loc 1 832 0
 3469 179e 7948     		ldr	r0, .L317+256
 3470 17a0 FFF7FEFF 		bl	commands_printf
 3471              	.LVL476:
 3472              		.loc 1 834 0
 3473 17a4 7848     		ldr	r0, .L317+260
 3474 17a6 FFF7FEFF 		bl	commands_printf
 3475              	.LVL477:
 3476              		.loc 1 835 0
 3477 17aa 7848     		ldr	r0, .L317+264
ARM GAS  /tmp/ccHCUo6g.s 			page 62


 3478 17ac FFF7FEFF 		bl	commands_printf
 3479              	.LVL478:
 3480              		.loc 1 837 0
 3481 17b0 7748     		ldr	r0, .L317+268
 3482 17b2 FFF7FEFF 		bl	commands_printf
 3483              	.LVL479:
 3484              		.loc 1 838 0
 3485 17b6 7748     		ldr	r0, .L317+272
 3486 17b8 FFF7FEFF 		bl	commands_printf
 3487              	.LVL480:
 3488              		.loc 1 840 0
 3489 17bc 7648     		ldr	r0, .L317+276
 3490 17be FFF7FEFF 		bl	commands_printf
 3491              	.LVL481:
 3492              		.loc 1 841 0
 3493 17c2 7648     		ldr	r0, .L317+280
 3494 17c4 FFF7FEFF 		bl	commands_printf
 3495              	.LVL482:
 3496              		.loc 1 842 0
 3497 17c8 7548     		ldr	r0, .L317+284
 3498 17ca FFF7FEFF 		bl	commands_printf
 3499              	.LVL483:
 3500              		.loc 1 844 0
 3501 17ce 7548     		ldr	r0, .L317+288
 3502 17d0 FFF7FEFF 		bl	commands_printf
 3503              	.LVL484:
 3504              		.loc 1 845 0
 3505 17d4 7448     		ldr	r0, .L317+292
 3506 17d6 FFF7FEFF 		bl	commands_printf
 3507              	.LVL485:
 3508              		.loc 1 847 0
 3509 17da 7448     		ldr	r0, .L317+296
 3510 17dc FFF7FEFF 		bl	commands_printf
 3511              	.LVL486:
 3512              		.loc 1 848 0
 3513 17e0 7348     		ldr	r0, .L317+300
 3514 17e2 FFF7FEFF 		bl	commands_printf
 3515              	.LVL487:
 3516              		.loc 1 850 0
 3517 17e6 7348     		ldr	r0, .L317+304
 3518 17e8 FFF7FEFF 		bl	commands_printf
 3519              	.LVL488:
 3520              		.loc 1 851 0
 3521 17ec 7248     		ldr	r0, .L317+308
 3522 17ee FFF7FEFF 		bl	commands_printf
 3523              	.LVL489:
 3524              		.loc 1 852 0
 3525 17f2 7248     		ldr	r0, .L317+312
 3526 17f4 FFF7FEFF 		bl	commands_printf
 3527              	.LVL490:
 3528              		.loc 1 854 0
 3529 17f8 7148     		ldr	r0, .L317+316
 3530 17fa FFF7FEFF 		bl	commands_printf
 3531              	.LVL491:
 3532              		.loc 1 855 0
 3533 17fe 7148     		ldr	r0, .L317+320
 3534 1800 FFF7FEFF 		bl	commands_printf
ARM GAS  /tmp/ccHCUo6g.s 			page 63


 3535              	.LVL492:
 3536              	.L164:
 3537              	.LBB171:
 3538              		.loc 1 857 0 discriminator 1
 3539 1804 D9F80030 		ldr	r3, [r9]
 3540 1808 B342     		cmp	r3, r6
 3541              		.loc 1 863 0 discriminator 1
 3542 180a 2846     		mov	r0, r5
 3543              		.loc 1 857 0 discriminator 1
 3544 180c 7EF725AD 		ble	.L250
 3545              		.loc 1 858 0
 3546 1810 E368     		ldr	r3, [r4, #12]
 3547 1812 7BB1     		cbz	r3, .L165
 3548              		.loc 1 862 0
 3549 1814 D4F808C0 		ldr	ip, [r4, #8]
 3550 1818 2368     		ldr	r3, [r4]
 3551              		.loc 1 863 0
 3552 181a 6246     		mov	r2, ip
 3553 181c 1946     		mov	r1, r3
 3554              		.loc 1 862 0
 3555 181e BCF1000F 		cmp	ip, #0
 3556 1822 2BD0     		beq	.L166
 3557              		.loc 1 863 0
 3558 1824 FFF7FEFF 		bl	commands_printf
 3559              	.LVL493:
 3560              	.L167:
 3561              		.loc 1 868 0
 3562 1828 6368     		ldr	r3, [r4, #4]
 3563              		.loc 1 869 0
 3564 182a 3846     		mov	r0, r7
 3565 182c 1946     		mov	r1, r3
 3566              		.loc 1 868 0
 3567 182e 0BB3     		cbz	r3, .L168
 3568              		.loc 1 869 0
 3569 1830 FFF7FEFF 		bl	commands_printf
 3570              	.LVL494:
 3571              	.L165:
 3572              		.loc 1 857 0 discriminator 2
 3573 1834 0136     		adds	r6, r6, #1
 3574              	.LVL495:
 3575 1836 1034     		adds	r4, r4, #16
 3576 1838 E4E7     		b	.L164
 3577              	.LVL496:
 3578              	.L160:
 3579              	.LBE171:
 3580              		.loc 1 725 0
 3581 183a FFF7FEFF 		bl	encoder_spi_get_val
 3582              	.LVL497:
 3583 183e 0546     		mov	r5, r0
 3584              		.loc 1 724 0
 3585 1840 FFF7FEFF 		bl	encoder_spi_get_error_cnt
 3586              	.LVL498:
 3587 1844 0646     		mov	r6, r0
 3588              		.loc 1 727 0
 3589 1846 FFF7FEFF 		bl	encoder_spi_get_error_rate
 3590              	.LVL499:
 3591 184a 10EE100A 		vmov	r0, s0
ARM GAS  /tmp/ccHCUo6g.s 			page 64


 3592 184e FFF7FEFF 		bl	__aeabi_f2d
 3593              	.LVL500:
 3594              		.loc 1 724 0
 3595 1852 0022     		movs	r2, #0
 3596 1854 5C4B     		ldr	r3, .L317+324
 3597 1856 FFF7FEFF 		bl	__aeabi_dmul
 3598              	.LVL501:
 3599 185a 3246     		mov	r2, r6
 3600 185c CDE90001 		strd	r0, [sp]
 3601 1860 2946     		mov	r1, r5
 3602 1862 5A48     		ldr	r0, .L317+328
 3603 1864 FFF7FEFF 		bl	commands_printf
 3604              	.LVL502:
 3605 1868 49E6     		b	.L161
 3606              	.LVL503:
 3607              	.L302:
 3608              	.LBB172:
 3609              	.LBB169:
 3610              		.loc 1 880 0
 3611 186a 18A9     		add	r1, sp, #96
 3612 186c 2046     		mov	r0, r4
 3613 186e B847     		blx	r7
 3614              	.LVL504:
 3615 1870 FEF739BC 		b	.L1
 3616              	.LVL505:
 3617              	.L168:
 3618              	.LBE169:
 3619              	.LBE172:
 3620              	.LBB173:
 3621              		.loc 1 871 0
 3622 1874 4046     		mov	r0, r8
 3623 1876 FFF7FEFF 		bl	commands_printf
 3624              	.LVL506:
 3625 187a DBE7     		b	.L165
 3626              	.L166:
 3627              		.loc 1 865 0
 3628 187c 1846     		mov	r0, r3
 3629 187e FFF7FEFF 		bl	commands_printf
 3630              	.LVL507:
 3631 1882 D1E7     		b	.L167
 3632              	.L318:
 3633              		.align	2
 3634              	.L317:
 3635 1884 000F0000 		.word	.LC158
 3636 1888 00000000 		.word	.LANCHOR6
 3637 188c E0190000 		.word	.LC217
 3638 1890 D8190000 		.word	.LC216
 3639 1894 F80E0000 		.word	.LC157
 3640 1898 140F0000 		.word	.LC159
 3641 189c 34000000 		.word	.LC6
 3642 18a0 280F0000 		.word	.LC160
 3643 18a4 74000000 		.word	.LC12
 3644 18a8 540F0000 		.word	.LC161
 3645 18ac 8C000000 		.word	.LC14
 3646 18b0 680F0000 		.word	.LC162
 3647 18b4 10010000 		.word	.LC18
 3648 18b8 980F0000 		.word	.LC163
ARM GAS  /tmp/ccHCUo6g.s 			page 65


 3649 18bc 34010000 		.word	.LC20
 3650 18c0 BC0F0000 		.word	.LC164
 3651 18c4 8C010000 		.word	.LC24
 3652 18c8 D00F0000 		.word	.LC165
 3653 18cc 44020000 		.word	.LC28
 3654 18d0 E40F0000 		.word	.LC166
 3655 18d4 50020000 		.word	.LC30
 3656 18d8 04100000 		.word	.LC167
 3657 18dc A8040000 		.word	.LC54
 3658 18e0 48100000 		.word	.LC168
 3659 18e4 C8040000 		.word	.LC56
 3660 18e8 6C100000 		.word	.LC169
 3661 18ec E8040000 		.word	.LC58
 3662 18f0 88100000 		.word	.LC170
 3663 18f4 A0050000 		.word	.LC70
 3664 18f8 A8100000 		.word	.LC171
 3665 18fc C4100000 		.word	.LC172
 3666 1900 F0100000 		.word	.LC173
 3667 1904 34110000 		.word	.LC174
 3668 1908 70110000 		.word	.LC175
 3669 190c 24070000 		.word	.LC82
 3670 1910 98110000 		.word	.LC176
 3671 1914 80070000 		.word	.LC86
 3672 1918 B8110000 		.word	.LC177
 3673 191c F4110000 		.word	.LC178
 3674 1920 14120000 		.word	.LC179
 3675 1924 58120000 		.word	.LC180
 3676 1928 70120000 		.word	.LC181
 3677 192c B0120000 		.word	.LC182
 3678 1930 C4120000 		.word	.LC183
 3679 1934 18130000 		.word	.LC184
 3680 1938 44130000 		.word	.LC185
 3681 193c 78130000 		.word	.LC186
 3682 1940 B0130000 		.word	.LC187
 3683 1944 F0130000 		.word	.LC188
 3684 1948 1C140000 		.word	.LC189
 3685 194c D0090000 		.word	.LC109
 3686 1950 54140000 		.word	.LC190
 3687 1954 AC140000 		.word	.LC191
 3688 1958 C8140000 		.word	.LC192
 3689 195c 00150000 		.word	.LC193
 3690 1960 48150000 		.word	.LC194
 3691 1964 88150000 		.word	.LC195
 3692 1968 480A0000 		.word	.LC114
 3693 196c B4150000 		.word	.LC196
 3694 1970 540A0000 		.word	.LC115
 3695 1974 D8150000 		.word	.LC197
 3696 1978 04160000 		.word	.LC198
 3697 197c 24160000 		.word	.LC199
 3698 1980 54160000 		.word	.LC200
 3699 1984 74160000 		.word	.LC201
 3700 1988 A4160000 		.word	.LC202
 3701 198c C4160000 		.word	.LC203
 3702 1990 EC160000 		.word	.LC204
 3703 1994 10170000 		.word	.LC205
 3704 1998 54170000 		.word	.LC206
 3705 199c 8C170000 		.word	.LC207
ARM GAS  /tmp/ccHCUo6g.s 			page 66


 3706 19a0 D8170000 		.word	.LC208
 3707 19a4 00180000 		.word	.LC209
 3708 19a8 28180000 		.word	.LC210
 3709 19ac C00D0000 		.word	.LC149
 3710 19b0 80180000 		.word	.LC211
 3711 19b4 CC180000 		.word	.LC212
 3712 19b8 F8180000 		.word	.LC213
 3713 19bc 54190000 		.word	.LC214
 3714 19c0 180E0000 		.word	.LC153
 3715 19c4 90190000 		.word	.LC215
 3716 19c8 00005940 		.word	1079574528
 3717 19cc 200E0000 		.word	.LC154
 3718 19d0 00000000 		.word	.LANCHOR5
 3719 19d4 E8190000 		.word	.LC218
 3720              	.LBE173:
 3721              		.cfi_endproc
 3722              	.LFE259:
 3723              		.size	terminal_process_string, .-terminal_process_string
 3724              		.section	.text.terminal_add_fault_data,"ax",%progbits
 3725              		.align	1
 3726              		.p2align 4,,15
 3727              		.global	terminal_add_fault_data
 3728              		.syntax unified
 3729              		.thumb
 3730              		.thumb_func
 3731              		.fpu fpv4-sp-d16
 3732              		.type	terminal_add_fault_data, %function
 3733              	terminal_add_fault_data:
 3734              	.LFB260:
 3735              		.loc 1 893 0
 3736              		.cfi_startproc
 3737              		@ args = 0, pretend = 0, frame = 0
 3738              		@ frame_needed = 0, uses_anonymous_args = 0
 3739              	.LVL508:
 3740 0000 38B5     		push	{r3, r4, r5, lr}
 3741              		.cfi_def_cfa_offset 16
 3742              		.cfi_offset 3, -16
 3743              		.cfi_offset 4, -12
 3744              		.cfi_offset 5, -8
 3745              		.cfi_offset 14, -4
 3746              		.loc 1 894 0
 3747 0002 094C     		ldr	r4, .L322
 3748 0004 094A     		ldr	r2, .L322+4
 3749 0006 2368     		ldr	r3, [r4]
 3750 0008 03EB8305 		add	r5, r3, r3, lsl #2
 3751 000c 0146     		mov	r1, r0
 3752 000e 0133     		adds	r3, r3, #1
 3753 0010 02EB0510 		add	r0, r2, r5, lsl #4
 3754              	.LVL509:
 3755 0014 5022     		movs	r2, #80
 3756 0016 2360     		str	r3, [r4]
 3757 0018 FFF7FEFF 		bl	memcpy
 3758              	.LVL510:
 3759              		.loc 1 895 0
 3760 001c 2368     		ldr	r3, [r4]
 3761 001e 182B     		cmp	r3, #24
 3762              		.loc 1 896 0
ARM GAS  /tmp/ccHCUo6g.s 			page 67


 3763 0020 C4BF     		itt	gt
 3764 0022 1823     		movgt	r3, #24
 3765 0024 2360     		strgt	r3, [r4]
 3766              		.loc 1 898 0
 3767 0026 38BD     		pop	{r3, r4, r5, pc}
 3768              	.L323:
 3769              		.align	2
 3770              	.L322:
 3771 0028 00000000 		.word	.LANCHOR3
 3772 002c 00000000 		.word	.LANCHOR4
 3773              		.cfi_endproc
 3774              	.LFE260:
 3775              		.size	terminal_add_fault_data, .-terminal_add_fault_data
 3776              		.section	.text.terminal_get_fault_vec_write,"ax",%progbits
 3777              		.align	1
 3778              		.p2align 4,,15
 3779              		.global	terminal_get_fault_vec_write
 3780              		.syntax unified
 3781              		.thumb
 3782              		.thumb_func
 3783              		.fpu fpv4-sp-d16
 3784              		.type	terminal_get_fault_vec_write, %function
 3785              	terminal_get_fault_vec_write:
 3786              	.LFB261:
 3787              		.loc 1 900 0
 3788              		.cfi_startproc
 3789              		@ args = 0, pretend = 0, frame = 0
 3790              		@ frame_needed = 0, uses_anonymous_args = 0
 3791              		@ link register save eliminated.
 3792              		.loc 1 901 0
 3793 0000 014B     		ldr	r3, .L325
 3794 0002 1868     		ldr	r0, [r3]
 3795              		.loc 1 902 0
 3796 0004 7047     		bx	lr
 3797              	.L326:
 3798 0006 00BF     		.align	2
 3799              	.L325:
 3800 0008 00000000 		.word	.LANCHOR3
 3801              		.cfi_endproc
 3802              	.LFE261:
 3803              		.size	terminal_get_fault_vec_write, .-terminal_get_fault_vec_write
 3804              		.section	.text.terminal_register_command_callback,"ax",%progbits
 3805              		.align	1
 3806              		.p2align 4,,15
 3807              		.global	terminal_register_command_callback
 3808              		.syntax unified
 3809              		.thumb
 3810              		.thumb_func
 3811              		.fpu fpv4-sp-d16
 3812              		.type	terminal_register_command_callback, %function
 3813              	terminal_register_command_callback:
 3814              	.LFB262:
 3815              		.loc 1 925 0
 3816              		.cfi_startproc
 3817              		@ args = 0, pretend = 0, frame = 8
 3818              		@ frame_needed = 0, uses_anonymous_args = 0
 3819              	.LVL511:
ARM GAS  /tmp/ccHCUo6g.s 			page 68


 3820 0000 2DE9F04F 		push	{r4, r5, r6, r7, r8, r9, r10, fp, lr}
 3821              		.cfi_def_cfa_offset 36
 3822              		.cfi_offset 4, -36
 3823              		.cfi_offset 5, -32
 3824              		.cfi_offset 6, -28
 3825              		.cfi_offset 7, -24
 3826              		.cfi_offset 8, -20
 3827              		.cfi_offset 9, -16
 3828              		.cfi_offset 10, -12
 3829              		.cfi_offset 11, -8
 3830              		.cfi_offset 14, -4
 3831              		.loc 1 927 0
 3832 0004 DFF884B0 		ldr	fp, .L346+4
 3833              	.LBB174:
 3834              		.loc 1 931 0
 3835 0008 1F4F     		ldr	r7, .L346
 3836              	.LBE174:
 3837              		.loc 1 927 0
 3838 000a DBF80060 		ldr	r6, [fp]
 3839              	.LVL512:
 3840              		.loc 1 925 0
 3841 000e 83B0     		sub	sp, sp, #12
 3842              		.cfi_def_cfa_offset 48
 3843              	.LBB175:
 3844              		.loc 1 929 0
 3845 0010 002E     		cmp	r6, #0
 3846              	.LBE175:
 3847              		.loc 1 925 0
 3848 0012 0546     		mov	r5, r0
 3849 0014 8A46     		mov	r10, r1
 3850 0016 9146     		mov	r9, r2
 3851 0018 0193     		str	r3, [sp, #4]
 3852              	.LBB176:
 3853              		.loc 1 929 0
 3854 001a 1EDD     		ble	.L328
 3855              		.loc 1 931 0
 3856 001c 3868     		ldr	r0, [r7]
 3857              	.LVL513:
 3858 001e 8542     		cmp	r5, r0
 3859 0020 30D0     		beq	.L334
 3860 0022 B846     		mov	r8, r7
 3861              		.loc 1 929 0
 3862 0024 0024     		movs	r4, #0
 3863 0026 09E0     		b	.L330
 3864              	.LVL514:
 3865              	.L344:
 3866              		.loc 1 943 0
 3867 0028 D8F80C20 		ldr	r2, [r8, #12]
 3868 002c 5AB1     		cbz	r2, .L329
 3869              		.loc 1 929 0 discriminator 2
 3870 002e 0134     		adds	r4, r4, #1
 3871              	.LVL515:
 3872 0030 A642     		cmp	r6, r4
 3873 0032 12D0     		beq	.L328
 3874              		.loc 1 931 0
 3875 0034 58F8100F 		ldr	r0, [r8, #16]!
 3876 0038 A842     		cmp	r0, r5
ARM GAS  /tmp/ccHCUo6g.s 			page 69


 3877 003a 04D0     		beq	.L329
 3878              	.LVL516:
 3879              	.L330:
 3880              		.loc 1 937 0
 3881 003c 2946     		mov	r1, r5
 3882 003e FFF7FEFF 		bl	strcmp
 3883              	.LVL517:
 3884 0042 0028     		cmp	r0, #0
 3885 0044 F0D1     		bne	.L344
 3886              	.LVL518:
 3887              	.L329:
 3888              	.LBE176:
 3889              		.loc 1 949 0
 3890 0046 2401     		lsls	r4, r4, #4
 3891              	.LVL519:
 3892 0048 3B19     		adds	r3, r7, r4
 3893              		.loc 1 952 0
 3894 004a 019A     		ldr	r2, [sp, #4]
 3895              		.loc 1 949 0
 3896 004c 3D51     		str	r5, [r7, r4]
 3897              		.loc 1 951 0
 3898 004e C3E901A9 		strd	r10, r9, [r3, #4]
 3899              		.loc 1 952 0
 3900 0052 DA60     		str	r2, [r3, #12]
 3901              		.loc 1 960 0
 3902 0054 03B0     		add	sp, sp, #12
 3903              		.cfi_remember_state
 3904              		.cfi_def_cfa_offset 36
 3905              		@ sp needed
 3906 0056 BDE8F08F 		pop	{r4, r5, r6, r7, r8, r9, r10, fp, pc}
 3907              	.LVL520:
 3908              	.L328:
 3909              		.cfi_restore_state
 3910              		.loc 1 949 0
 3911 005a 3201     		lsls	r2, r6, #4
 3912 005c BB18     		adds	r3, r7, r2
 3913              		.loc 1 955 0
 3914 005e 0136     		adds	r6, r6, #1
 3915              	.LVL521:
 3916              		.loc 1 949 0
 3917 0060 BD50     		str	r5, [r7, r2]
 3918              		.loc 1 956 0
 3919 0062 272E     		cmp	r6, #39
 3920              		.loc 1 952 0
 3921 0064 019A     		ldr	r2, [sp, #4]
 3922 0066 DA60     		str	r2, [r3, #12]
 3923              		.loc 1 951 0
 3924 0068 C3E901A9 		strd	r10, r9, [r3, #4]
 3925              		.loc 1 956 0
 3926 006c 05DD     		ble	.L345
 3927              		.loc 1 957 0
 3928 006e 0023     		movs	r3, #0
 3929 0070 CBF80030 		str	r3, [fp]
 3930              		.loc 1 960 0
 3931 0074 03B0     		add	sp, sp, #12
 3932              		.cfi_remember_state
 3933              		.cfi_def_cfa_offset 36
ARM GAS  /tmp/ccHCUo6g.s 			page 70


 3934              		@ sp needed
 3935 0076 BDE8F08F 		pop	{r4, r5, r6, r7, r8, r9, r10, fp, pc}
 3936              	.LVL522:
 3937              	.L345:
 3938              		.cfi_restore_state
 3939              		.loc 1 955 0
 3940 007a CBF80060 		str	r6, [fp]
 3941              		.loc 1 960 0
 3942 007e 03B0     		add	sp, sp, #12
 3943              		.cfi_remember_state
 3944              		.cfi_def_cfa_offset 36
 3945              		@ sp needed
 3946 0080 BDE8F08F 		pop	{r4, r5, r6, r7, r8, r9, r10, fp, pc}
 3947              	.LVL523:
 3948              	.L334:
 3949              		.cfi_restore_state
 3950              	.LBB177:
 3951              		.loc 1 929 0
 3952 0084 0024     		movs	r4, #0
 3953 0086 DEE7     		b	.L329
 3954              	.L347:
 3955              		.align	2
 3956              	.L346:
 3957 0088 00000000 		.word	.LANCHOR6
 3958 008c 00000000 		.word	.LANCHOR5
 3959              	.LBE177:
 3960              		.cfi_endproc
 3961              	.LFE262:
 3962              		.size	terminal_register_command_callback, .-terminal_register_command_callback
 3963              		.section	.text.terminal_unregister_callback,"ax",%progbits
 3964              		.align	1
 3965              		.p2align 4,,15
 3966              		.global	terminal_unregister_callback
 3967              		.syntax unified
 3968              		.thumb
 3969              		.thumb_func
 3970              		.fpu fpv4-sp-d16
 3971              		.type	terminal_unregister_callback, %function
 3972              	terminal_unregister_callback:
 3973              	.LFB263:
 3974              		.loc 1 962 0
 3975              		.cfi_startproc
 3976              		@ args = 0, pretend = 0, frame = 0
 3977              		@ frame_needed = 0, uses_anonymous_args = 0
 3978              		@ link register save eliminated.
 3979              	.LVL524:
 3980              	.LBB178:
 3981              		.loc 1 963 0
 3982 0000 094B     		ldr	r3, .L357
 3983 0002 1968     		ldr	r1, [r3]
 3984 0004 0029     		cmp	r1, #0
 3985 0006 0EDD     		ble	.L354
 3986 0008 084B     		ldr	r3, .L357+4
 3987              	.LBE178:
 3988              		.loc 1 962 0
 3989 000a 10B4     		push	{r4}
 3990              		.cfi_def_cfa_offset 4
ARM GAS  /tmp/ccHCUo6g.s 			page 71


 3991              		.cfi_offset 4, -4
 3992 000c 03EB0111 		add	r1, r3, r1, lsl #4
 3993              	.LBB179:
 3994              		.loc 1 965 0
 3995 0010 0024     		movs	r4, #0
 3996              	.LVL525:
 3997              	.L351:
 3998              		.loc 1 964 0
 3999 0012 DA68     		ldr	r2, [r3, #12]
 4000 0014 8242     		cmp	r2, r0
 4001              		.loc 1 965 0
 4002 0016 08BF     		it	eq
 4003 0018 DC60     		streq	r4, [r3, #12]
 4004 001a 1033     		adds	r3, r3, #16
 4005              		.loc 1 963 0
 4006 001c 8B42     		cmp	r3, r1
 4007 001e F8D1     		bne	.L351
 4008              	.LBE179:
 4009              		.loc 1 968 0
 4010 0020 5DF8044B 		ldr	r4, [sp], #4
 4011              		.cfi_restore 4
 4012              		.cfi_def_cfa_offset 0
 4013 0024 7047     		bx	lr
 4014              	.LVL526:
 4015              	.L354:
 4016 0026 7047     		bx	lr
 4017              	.L358:
 4018              		.align	2
 4019              	.L357:
 4020 0028 00000000 		.word	.LANCHOR5
 4021 002c 00000000 		.word	.LANCHOR6
 4022              		.cfi_endproc
 4023              	.LFE263:
 4024              		.size	terminal_unregister_callback, .-terminal_unregister_callback
 4025              		.section	.bss.callback_write,"aw",%nobits
 4026              		.align	2
 4027              		.set	.LANCHOR5,. + 0
 4028              		.type	callback_write, %object
 4029              		.size	callback_write, 4
 4030              	callback_write:
 4031 0000 00000000 		.space	4
 4032              		.section	.bss.callbacks,"aw",%nobits
 4033              		.align	2
 4034              		.set	.LANCHOR6,. + 0
 4035              		.type	callbacks, %object
 4036              		.size	callbacks, 640
 4037              	callbacks:
 4038 0000 00000000 		.space	640
 4038      00000000 
 4038      00000000 
 4038      00000000 
 4038      00000000 
 4039              		.section	.bss.fault_vec,"aw",%nobits
 4040              		.align	2
 4041              		.set	.LANCHOR4,. + 0
 4042              		.type	fault_vec, %object
 4043              		.size	fault_vec, 2000
ARM GAS  /tmp/ccHCUo6g.s 			page 72


 4044              	fault_vec:
 4045 0000 00000000 		.space	2000
 4045      00000000 
 4045      00000000 
 4045      00000000 
 4045      00000000 
 4046              		.section	.bss.fault_vec_write,"aw",%nobits
 4047              		.align	2
 4048              		.set	.LANCHOR3,. + 0
 4049              		.type	fault_vec_write, %object
 4050              		.size	fault_vec_write, 4
 4051              	fault_vec_write:
 4052 0000 00000000 		.space	4
 4053              		.section	.bss.mcconf.13534,"aw",%nobits
 4054              		.align	2
 4055              		.set	.LANCHOR0,. + 0
 4056              		.type	mcconf.13534, %object
 4057              		.size	mcconf.13534, 456
 4058              	mcconf.13534:
 4059 0000 00000000 		.space	456
 4059      00000000 
 4059      00000000 
 4059      00000000 
 4059      00000000 
 4060              		.section	.bss.mcconf_old.13535,"aw",%nobits
 4061              		.align	2
 4062              		.set	.LANCHOR1,. + 0
 4063              		.type	mcconf_old.13535, %object
 4064              		.size	mcconf_old.13535, 456
 4065              	mcconf_old.13535:
 4066 0000 00000000 		.space	456
 4066      00000000 
 4066      00000000 
 4066      00000000 
 4066      00000000 
 4067              		.section	.rodata.states.13540,"a",%progbits
 4068              		.align	2
 4069              		.set	.LANCHOR2,. + 0
 4070              		.type	states.13540, %object
 4071              		.size	states.13540, 64
 4072              	states.13540:
 4073 0000 00000000 		.word	.LC220
 4074 0004 08000000 		.word	.LC221
 4075 0008 10000000 		.word	.LC222
 4076 000c 18000000 		.word	.LC223
 4077 0010 24000000 		.word	.LC224
 4078 0014 2C000000 		.word	.LC225
 4079 0018 34000000 		.word	.LC226
 4080 001c 3C000000 		.word	.LC227
 4081 0020 44000000 		.word	.LC228
 4082 0024 50000000 		.word	.LC229
 4083 0028 58000000 		.word	.LC230
 4084 002c 60000000 		.word	.LC231
 4085 0030 6C000000 		.word	.LC232
 4086 0034 74000000 		.word	.LC233
 4087 0038 7C000000 		.word	.LC234
 4088 003c 84000000 		.word	.LC235
ARM GAS  /tmp/ccHCUo6g.s 			page 73


 4089              		.section	.rodata.str1.4,"aMS",%progbits,1
 4090              		.align	2
 4091              	.LC220:
 4092 0000 52454144 		.ascii	"READY\000"
 4092      5900
 4093 0006 0000     		.space	2
 4094              	.LC221:
 4095 0008 43555252 		.ascii	"CURRENT\000"
 4095      454E5400 
 4096              	.LC222:
 4097 0010 57545354 		.ascii	"WTSTART\000"
 4097      41525400 
 4098              	.LC223:
 4099 0018 53555350 		.ascii	"SUSPENDED\000"
 4099      454E4445 
 4099      4400
 4100 0022 0000     		.space	2
 4101              	.LC224:
 4102 0024 51554555 		.ascii	"QUEUED\000"
 4102      454400
 4103 002b 00       		.space	1
 4104              	.LC225:
 4105 002c 57545345 		.ascii	"WTSEM\000"
 4105      4D00
 4106 0032 0000     		.space	2
 4107              	.LC226:
 4108 0034 57544D54 		.ascii	"WTMTX\000"
 4108      5800
 4109 003a 0000     		.space	2
 4110              	.LC227:
 4111 003c 5754434F 		.ascii	"WTCOND\000"
 4111      4E4400
 4112 0043 00       		.space	1
 4113              	.LC228:
 4114 0044 534C4545 		.ascii	"SLEEPING\000"
 4114      50494E47 
 4114      00
 4115 004d 000000   		.space	3
 4116              	.LC229:
 4117 0050 57544558 		.ascii	"WTEXIT\000"
 4117      495400
 4118 0057 00       		.space	1
 4119              	.LC230:
 4120 0058 57544F52 		.ascii	"WTOREVT\000"
 4120      45565400 
 4121              	.LC231:
 4122 0060 5754414E 		.ascii	"WTANDEVT\000"
 4122      44455654 
 4122      00
 4123 0069 000000   		.space	3
 4124              	.LC232:
 4125 006c 534E444D 		.ascii	"SNDMSGQ\000"
 4125      53475100 
 4126              	.LC233:
 4127 0074 534E444D 		.ascii	"SNDMSG\000"
 4127      534700
 4128 007b 00       		.space	1
ARM GAS  /tmp/ccHCUo6g.s 			page 74


 4129              	.LC234:
 4130 007c 57544D53 		.ascii	"WTMSG\000"
 4130      4700
 4131 0082 0000     		.space	2
 4132              	.LC235:
 4133 0084 46494E41 		.ascii	"FINAL\000"
 4133      4C00
 4134              		.section	.rodata.terminal_process_string.str1.4,"aMS",%progbits,1
 4135              		.align	2
 4136              	.LC0:
 4137 0000 74727565 		.ascii	"true\000"
 4137      00
 4138 0005 000000   		.space	3
 4139              	.LC1:
 4140 0008 66616C73 		.ascii	"false\000"
 4140      6500
 4141 000e 0000     		.space	2
 4142              	.LC2:
 4143 0010 59657300 		.ascii	"Yes\000"
 4144              	.LC3:
 4145 0014 4E6F00   		.ascii	"No\000"
 4146 0017 00       		.space	1
 4147              	.LC4:
 4148 0018 2000     		.ascii	" \000"
 4149 001a 0000     		.space	2
 4150              	.LC5:
 4151 001c 4E6F2063 		.ascii	"No command received\012\000"
 4151      6F6D6D61 
 4151      6E642072 
 4151      65636569 
 4151      7665640A 
 4152 0031 000000   		.space	3
 4153              	.LC6:
 4154 0034 70696E67 		.ascii	"ping\000"
 4154      00
 4155 0039 000000   		.space	3
 4156              	.LC7:
 4157 003c 706F6E67 		.ascii	"pong\012\000"
 4157      0A00
 4158 0042 0000     		.space	2
 4159              	.LC8:
 4160 0044 74616368 		.ascii	"tachoadd\000"
 4160      6F616464 
 4160      00
 4161 004d 000000   		.space	3
 4162              	.LC9:
 4163 0050 256600   		.ascii	"%f\000"
 4164 0053 00       		.space	1
 4165              	.LC10:
 4166 0054 446F6E65 		.ascii	"Done.\012\000"
 4166      2E0A00
 4167 005b 00       		.space	1
 4168              	.LC11:
 4169 005c 496E7661 		.ascii	"Invalid argument(s).\012\000"
 4169      6C696420 
 4169      61726775 
 4169      6D656E74 
ARM GAS  /tmp/ccHCUo6g.s 			page 75


 4169      2873292E 
 4170 0072 0000     		.space	2
 4171              	.LC12:
 4172 0074 73746F70 		.ascii	"stop\000"
 4172      00
 4173 0079 000000   		.space	3
 4174              	.LC13:
 4175 007c 4D6F746F 		.ascii	"Motor stopped\012\000"
 4175      72207374 
 4175      6F707065 
 4175      640A00
 4176 008b 00       		.space	1
 4177              	.LC14:
 4178 008c 6C617374 		.ascii	"last_adc_duration\000"
 4178      5F616463 
 4178      5F647572 
 4178      6174696F 
 4178      6E00
 4179 009e 0000     		.space	2
 4180              	.LC15:
 4181 00a0 4C617465 		.ascii	"Latest ADC duration: %.4f ms\000"
 4181      73742041 
 4181      44432064 
 4181      75726174 
 4181      696F6E3A 
 4182 00bd 000000   		.space	3
 4183              	.LC16:
 4184 00c0 4C617465 		.ascii	"Latest injected ADC duration: %.4f ms\000"
 4184      73742069 
 4184      6E6A6563 
 4184      74656420 
 4184      41444320 
 4185 00e6 0000     		.space	2
 4186              	.LC17:
 4187 00e8 4C617465 		.ascii	"Latest sample ADC duration: %.4f ms\012\000"
 4187      73742073 
 4187      616D706C 
 4187      65204144 
 4187      43206475 
 4188 010d 000000   		.space	3
 4189              	.LC18:
 4190 0110 6B7600   		.ascii	"kv\000"
 4191 0113 00       		.space	1
 4192              	.LC19:
 4193 0114 43616C63 		.ascii	"Calculated KV: %.2f rpm/volt\012\000"
 4193      756C6174 
 4193      6564204B 
 4193      563A2025 
 4193      2E326620 
 4194 0132 0000     		.space	2
 4195              	.LC20:
 4196 0134 6D656D00 		.ascii	"mem\000"
 4197              	.LC21:
 4198 0138 636F7265 		.ascii	"core free memory : %u bytes\000"
 4198      20667265 
 4198      65206D65 
 4198      6D6F7279 
ARM GAS  /tmp/ccHCUo6g.s 			page 76


 4198      203A2025 
 4199              	.LC22:
 4200 0154 68656170 		.ascii	"heap fragments   : %u\000"
 4200      20667261 
 4200      676D656E 
 4200      74732020 
 4200      203A2025 
 4201 016a 0000     		.space	2
 4202              	.LC23:
 4203 016c 68656170 		.ascii	"heap free total  : %u bytes\012\000"
 4203      20667265 
 4203      6520746F 
 4203      74616C20 
 4203      203A2025 
 4204 0189 000000   		.space	3
 4205              	.LC24:
 4206 018c 74687265 		.ascii	"threads\000"
 4206      61647300 
 4207              	.LC25:
 4208 0194 20202020 		.ascii	"    addr    stack prio refs     state           nam"
 4208      61646472 
 4208      20202020 
 4208      73746163 
 4208      6B207072 
 4209 01c7 65207469 		.ascii	"e time    \000"
 4209      6D652020 
 4209      202000
 4210 01d2 0000     		.space	2
 4211              	.LC26:
 4212 01d4 2D2D2D2D 		.ascii	"---------------------------------------------------"
 4212      2D2D2D2D 
 4212      2D2D2D2D 
 4212      2D2D2D2D 
 4212      2D2D2D2D 
 4213 0207 2D2D2D2D 		.ascii	"----------\000"
 4213      2D2D2D2D 
 4213      2D2D00
 4214 0212 0000     		.space	2
 4215              	.LC27:
 4216 0214 252E386C 		.ascii	"%.8lx %.8lx %4lu %4lu %9s %14s %lu (%.1f %%)\000"
 4216      7820252E 
 4216      386C7820 
 4216      25346C75 
 4216      2025346C 
 4217 0241 000000   		.space	3
 4218              	.LC28:
 4219 0244 6661756C 		.ascii	"fault\000"
 4219      7400
 4220 024a 0000     		.space	2
 4221              	.LC29:
 4222 024c 25730A00 		.ascii	"%s\012\000"
 4223              	.LC30:
 4224 0250 6661756C 		.ascii	"faults\000"
 4224      747300
 4225 0257 00       		.space	1
 4226              	.LC31:
 4227 0258 4E6F2066 		.ascii	"No faults registered since startup\012\000"
ARM GAS  /tmp/ccHCUo6g.s 			page 77


 4227      61756C74 
 4227      73207265 
 4227      67697374 
 4227      65726564 
 4228              	.LC32:
 4229 027c 54686520 		.ascii	"The following faults were registered since start:\012"
 4229      666F6C6C 
 4229      6F77696E 
 4229      67206661 
 4229      756C7473 
 4230 02ae 00       		.ascii	"\000"
 4231 02af 00       		.space	1
 4232              	.LC33:
 4233 02b0 4661756C 		.ascii	"Fault#           : %d\000"
 4233      74232020 
 4233      20202020 
 4233      20202020 
 4233      203A2025 
 4234 02c6 0000     		.space	2
 4235              	.LC34:
 4236 02c8 4661756C 		.ascii	"Fault            : %s\000"
 4236      74202020 
 4236      20202020 
 4236      20202020 
 4236      203A2025 
 4237 02de 0000     		.space	2
 4238              	.LC35:
 4239 02e0 43757272 		.ascii	"Current          : %.1f\000"
 4239      656E7420 
 4239      20202020 
 4239      20202020 
 4239      203A2025 
 4240              	.LC36:
 4241 02f8 43757272 		.ascii	"Current filtered : %.1f\000"
 4241      656E7420 
 4241      66696C74 
 4241      65726564 
 4241      203A2025 
 4242              	.LC37:
 4243 0310 566F6C74 		.ascii	"Voltage          : %.2f\000"
 4243      61676520 
 4243      20202020 
 4243      20202020 
 4243      203A2025 
 4244              	.LC38:
 4245 0328 566F6C74 		.ascii	"Voltage Display  : %.2f\000"
 4245      61676520 
 4245      44697370 
 4245      6C617920 
 4245      203A2025 
 4246              	.LC39:
 4247 0340 566F6C74 		.ascii	"Voltage BMS      : %.2f\000"
 4247      61676520 
 4247      424D5320 
 4247      20202020 
 4247      203A2025 
 4248              	.LC40:
ARM GAS  /tmp/ccHCUo6g.s 			page 78


 4249 0358 566F6C74 		.ascii	"Voltage GAS      : %.2f\000"
 4249      61676520 
 4249      47415320 
 4249      20202020 
 4249      203A2025 
 4250              	.LC41:
 4251 0370 566F6C74 		.ascii	"Voltage RECU     : %.2f\000"
 4251      61676520 
 4251      52454355 
 4251      20202020 
 4251      203A2025 
 4252              	.LC42:
 4253 0388 424D5320 		.ascii	"BMS FET Status   : %d\000"
 4253      46455420 
 4253      53746174 
 4253      75732020 
 4253      203A2025 
 4254 039e 0000     		.space	2
 4255              	.LC43:
 4256 03a0 44757479 		.ascii	"Duty             : %.3f\000"
 4256      20202020 
 4256      20202020 
 4256      20202020 
 4256      203A2025 
 4257              	.LC44:
 4258 03b8 52504D20 		.ascii	"RPM              : %.1f\000"
 4258      20202020 
 4258      20202020 
 4258      20202020 
 4258      203A2025 
 4259              	.LC45:
 4260 03d0 54616368 		.ascii	"Tacho            : %d\000"
 4260      6F202020 
 4260      20202020 
 4260      20202020 
 4260      203A2025 
 4261 03e6 0000     		.space	2
 4262              	.LC46:
 4263 03e8 4379636C 		.ascii	"Cycles running   : %d\000"
 4263      65732072 
 4263      756E6E69 
 4263      6E672020 
 4263      203A2025 
 4264 03fe 0000     		.space	2
 4265              	.LC47:
 4266 0400 54494D20 		.ascii	"TIM duty         : %d\000"
 4266      64757479 
 4266      20202020 
 4266      20202020 
 4266      203A2025 
 4267 0416 0000     		.space	2
 4268              	.LC48:
 4269 0418 54494D20 		.ascii	"TIM val samp     : %d\000"
 4269      76616C20 
 4269      73616D70 
 4269      20202020 
 4269      203A2025 
ARM GAS  /tmp/ccHCUo6g.s 			page 79


 4270 042e 0000     		.space	2
 4271              	.LC49:
 4272 0430 54494D20 		.ascii	"TIM current samp : %d\000"
 4272      63757272 
 4272      656E7420 
 4272      73616D70 
 4272      203A2025 
 4273 0446 0000     		.space	2
 4274              	.LC50:
 4275 0448 54494D20 		.ascii	"TIM top          : %d\000"
 4275      746F7020 
 4275      20202020 
 4275      20202020 
 4275      203A2025 
 4276 045e 0000     		.space	2
 4277              	.LC51:
 4278 0460 436F6D6D 		.ascii	"Comm step        : %d\000"
 4278      20737465 
 4278      70202020 
 4278      20202020 
 4278      203A2025 
 4279 0476 0000     		.space	2
 4280              	.LC52:
 4281 0478 54656D70 		.ascii	"Temperature      : %.2f\000"
 4281      65726174 
 4281      75726520 
 4281      20202020 
 4281      203A2025 
 4282              	.LC53:
 4283 0490 44525638 		.ascii	"DRV8350_FAULTS   : %s \000"
 4283      3335305F 
 4283      4641554C 
 4283      54532020 
 4283      203A2025 
 4284 04a7 00       		.space	1
 4285              	.LC54:
 4286 04a8 72706D00 		.ascii	"rpm\000"
 4287              	.LC55:
 4288 04ac 456C6563 		.ascii	"Electrical RPM: %.2f rpm\012\000"
 4288      74726963 
 4288      616C2052 
 4288      504D3A20 
 4288      252E3266 
 4289 04c6 0000     		.space	2
 4290              	.LC56:
 4291 04c8 74616368 		.ascii	"tacho\000"
 4291      6F00
 4292 04ce 0000     		.space	2
 4293              	.LC57:
 4294 04d0 54616368 		.ascii	"Tachometer counts: %i\012\000"
 4294      6F6D6574 
 4294      65722063 
 4294      6F756E74 
 4294      733A2025 
 4295 04e7 00       		.space	1
 4296              	.LC58:
 4297 04e8 74696D00 		.ascii	"tim\000"
ARM GAS  /tmp/ccHCUo6g.s 			page 80


 4298              	.LC59:
 4299 04ec 54696D31 		.ascii	"Tim1 CNT: %i\000"
 4299      20434E54 
 4299      3A202569 
 4299      00
 4300 04f9 000000   		.space	3
 4301              	.LC60:
 4302 04fc 54696D38 		.ascii	"Tim8 CNT: %u\000"
 4302      20434E54 
 4302      3A202575 
 4302      00
 4303 0509 000000   		.space	3
 4304              	.LC61:
 4305 050c 44757479 		.ascii	"Duty cycle1: %u\000"
 4305      20637963 
 4305      6C65313A 
 4305      20257500 
 4306              	.LC62:
 4307 051c 44757479 		.ascii	"Duty cycle2: %u\000"
 4307      20637963 
 4307      6C65323A 
 4307      20257500 
 4308              	.LC63:
 4309 052c 44757479 		.ascii	"Duty cycle3: %u\000"
 4309      20637963 
 4309      6C65333A 
 4309      20257500 
 4310              	.LC64:
 4311 053c 546F703A 		.ascii	"Top: %u\000"
 4311      20257500 
 4312              	.LC65:
 4313 0544 44697231 		.ascii	"Dir1: %u\000"
 4313      3A202575 
 4313      00
 4314 054d 000000   		.space	3
 4315              	.LC66:
 4316 0550 44697238 		.ascii	"Dir8: %u\000"
 4316      3A202575 
 4316      00
 4317 0559 000000   		.space	3
 4318              	.LC67:
 4319 055c 566F6C74 		.ascii	"Voltage sample: %u\000"
 4319      61676520 
 4319      73616D70 
 4319      6C653A20 
 4319      257500
 4320 056f 00       		.space	1
 4321              	.LC68:
 4322 0570 43757272 		.ascii	"Current 1 sample: %u\000"
 4322      656E7420 
 4322      31207361 
 4322      6D706C65 
 4322      3A202575 
 4323 0585 000000   		.space	3
 4324              	.LC69:
 4325 0588 43757272 		.ascii	"Current 2 sample: %u\012\000"
 4325      656E7420 
ARM GAS  /tmp/ccHCUo6g.s 			page 81


 4325      32207361 
 4325      6D706C65 
 4325      3A202575 
 4326 059e 0000     		.space	2
 4327              	.LC70:
 4328 05a0 766F6C74 		.ascii	"volt\000"
 4328      00
 4329 05a5 000000   		.space	3
 4330              	.LC71:
 4331 05a8 496E7075 		.ascii	"Input voltage: %.2f\012\000"
 4331      7420766F 
 4331      6C746167 
 4331      653A2025 
 4331      2E32660A 
 4332 05bd 000000   		.space	3
 4333              	.LC72:
 4334 05c0 70617261 		.ascii	"param_detect\000"
 4334      6D5F6465 
 4334      74656374 
 4334      00
 4335 05cd 000000   		.space	3
 4336              	.LC73:
 4337 05d0 4379636C 		.ascii	"Cycle integrator limit: %.2f\000"
 4337      6520696E 
 4337      74656772 
 4337      61746F72 
 4337      206C696D 
 4338 05ed 000000   		.space	3
 4339              	.LC74:
 4340 05f0 436F7570 		.ascii	"Coupling factor: %.2f\000"
 4340      6C696E67 
 4340      20666163 
 4340      746F723A 
 4340      20252E32 
 4341 0606 0000     		.space	2
 4342              	.LC75:
 4343 0608 44657465 		.ascii	"Detected hall sensor table:\000"
 4343      63746564 
 4343      2068616C 
 4343      6C207365 
 4343      6E736F72 
 4344              	.LC76:
 4345 0624 25692C20 		.ascii	"%i, %i, %i, %i, %i, %i, %i, %i\012\000"
 4345      25692C20 
 4345      25692C20 
 4345      25692C20 
 4345      25692C20 
 4346              	.LC77:
 4347 0644 48616C6C 		.ascii	"Hall sensor detection failed:\000"
 4347      2073656E 
 4347      736F7220 
 4347      64657465 
 4347      6374696F 
 4348 0662 0000     		.space	2
 4349              	.LC78:
 4350 0664 57533238 		.ascii	"WS2811 enabled. Hall sensors cannot be used.\012\000"
 4350      31312065 
ARM GAS  /tmp/ccHCUo6g.s 			page 82


 4350      6E61626C 
 4350      65642E20 
 4350      48616C6C 
 4351 0692 0000     		.space	2
 4352              	.LC79:
 4353 0694 456E636F 		.ascii	"Encoder enabled. Hall sensors cannot be used.\012\000"
 4353      64657220 
 4353      656E6162 
 4353      6C65642E 
 4353      2048616C 
 4354 06c3 00       		.space	1
 4355              	.LC80:
 4356 06c4 44657465 		.ascii	"Detection failed. Try again with different paramete"
 4356      6374696F 
 4356      6E206661 
 4356      696C6564 
 4356      2E205472 
 4357 06f7 72732E0A 		.ascii	"rs.\012\000"
 4357      00
 4358              	.LC81:
 4359 06fc 54686973 		.ascii	"This command requires three arguments.\012\000"
 4359      20636F6D 
 4359      6D616E64 
 4359      20726571 
 4359      75697265 
 4360              	.LC82:
 4361 0724 72706D5F 		.ascii	"rpm_dep\000"
 4361      64657000 
 4362              	.LC83:
 4363 072c 4379636C 		.ascii	"Cycle int limit: %.2f\000"
 4363      6520696E 
 4363      74206C69 
 4363      6D69743A 
 4363      20252E32 
 4364 0742 0000     		.space	2
 4365              	.LC84:
 4366 0744 4379636C 		.ascii	"Cycle int limit running: %.2f\000"
 4366      6520696E 
 4366      74206C69 
 4366      6D697420 
 4366      72756E6E 
 4367 0762 0000     		.space	2
 4368              	.LC85:
 4369 0764 4379636C 		.ascii	"Cycle int limit max: %.2f\012\000"
 4369      6520696E 
 4369      74206C69 
 4369      6D697420 
 4369      6D61783A 
 4370 077f 00       		.space	1
 4371              	.LC86:
 4372 0780 63616E5F 		.ascii	"can_devs\000"
 4372      64657673 
 4372      00
 4373 0789 000000   		.space	3
 4374              	.LC87:
 4375 078c 43414E20 		.ascii	"CAN devices seen on the bus the past second:\012\000"
 4375      64657669 
ARM GAS  /tmp/ccHCUo6g.s 			page 83


 4375      63657320 
 4375      7365656E 
 4375      206F6E20 
 4376 07ba 0000     		.space	2
 4377              	.LC88:
 4378 07bc 49442020 		.ascii	"ID                 : %i\000"
 4378      20202020 
 4378      20202020 
 4378      20202020 
 4378      2020203A 
 4379              	.LC89:
 4380 07d4 52582054 		.ascii	"RX Time            : %i\000"
 4380      696D6520 
 4380      20202020 
 4380      20202020 
 4380      2020203A 
 4381              	.LC90:
 4382 07ec 41676520 		.ascii	"Age (milliseconds) : %.2f\000"
 4382      286D696C 
 4382      6C697365 
 4382      636F6E64 
 4382      7329203A 
 4383 0806 0000     		.space	2
 4384              	.LC91:
 4385 0808 52504D20 		.ascii	"RPM                : %.2f\000"
 4385      20202020 
 4385      20202020 
 4385      20202020 
 4385      2020203A 
 4386 0822 0000     		.space	2
 4387              	.LC92:
 4388 0824 43757272 		.ascii	"Current            : %.2f\000"
 4388      656E7420 
 4388      20202020 
 4388      20202020 
 4388      2020203A 
 4389 083e 0000     		.space	2
 4390              	.LC93:
 4391 0840 44757479 		.ascii	"Duty               : %.2f\012\000"
 4391      20202020 
 4391      20202020 
 4391      20202020 
 4391      2020203A 
 4392 085b 00       		.space	1
 4393              	.LC94:
 4394 085c 666F635F 		.ascii	"foc_encoder_detect\000"
 4394      656E636F 
 4394      6465725F 
 4394      64657465 
 4394      637400
 4395 086f 00       		.space	1
 4396              	.LC95:
 4397 0870 4F666673 		.ascii	"Offset   : %.2f\000"
 4397      65742020 
 4397      203A2025 
 4397      2E326600 
 4398              	.LC96:
ARM GAS  /tmp/ccHCUo6g.s 			page 84


 4399 0880 52617469 		.ascii	"Ratio    : %.2f\000"
 4399      6F202020 
 4399      203A2025 
 4399      2E326600 
 4400              	.LC97:
 4401 0890 496E7665 		.ascii	"Inverted : %s\012\000"
 4401      72746564 
 4401      203A2025 
 4401      730A00
 4402 089f 00       		.space	1
 4403              	.LC98:
 4404 08a0 456E636F 		.ascii	"Encoder not enabled.\012\000"
 4404      64657220 
 4404      6E6F7420 
 4404      656E6162 
 4404      6C65642E 
 4405 08b6 0000     		.space	2
 4406              	.LC99:
 4407 08b8 54686973 		.ascii	"This command requires one argument.\012\000"
 4407      20636F6D 
 4407      6D616E64 
 4407      20726571 
 4407      75697265 
 4408 08dd 000000   		.space	3
 4409              	.LC100:
 4410 08e0 6D656173 		.ascii	"measure_res\000"
 4410      7572655F 
 4410      72657300 
 4411              	.LC101:
 4412 08ec 52657369 		.ascii	"Resistance: %.6f ohm\012\000"
 4412      7374616E 
 4412      63653A20 
 4412      252E3666 
 4412      206F686D 
 4413 0902 0000     		.space	2
 4414              	.LC102:
 4415 0904 6D656173 		.ascii	"measure_ind\000"
 4415      7572655F 
 4415      696E6400 
 4416              	.LC103:
 4417 0910 496E6475 		.ascii	"Inductance: %.2f microhenry (%.2f A)\012\000"
 4417      6374616E 
 4417      63653A20 
 4417      252E3266 
 4417      206D6963 
 4418 0936 0000     		.space	2
 4419              	.LC104:
 4420 0938 6D656173 		.ascii	"measure_ind2\000"
 4420      7572655F 
 4420      696E6432 
 4420      00
 4421 0945 000000   		.space	3
 4422              	.LC105:
 4423 0948 496E6475 		.ascii	"Inductance: %.2f microhenry (%.2f , %.2f A, %.2fV, "
 4423      6374616E 
 4423      63653A20 
 4423      252E3266 
ARM GAS  /tmp/ccHCUo6g.s 			page 85


 4423      206D6963 
 4424 097b 252E3266 		.ascii	"%.2fus)\012\000"
 4424      7573290A 
 4424      00
 4425              	.LC106:
 4426 0984 6D656173 		.ascii	"measure_linkage\000"
 4426      7572655F 
 4426      6C696E6B 
 4426      61676500 
 4427              	.LC107:
 4428 0994 466C7578 		.ascii	"Flux linkage: %.7f\012\000"
 4428      206C696E 
 4428      6B616765 
 4428      3A20252E 
 4428      37660A00 
 4429              	.LC108:
 4430 09a8 54686973 		.ascii	"This command requires four arguments.\012\000"
 4430      20636F6D 
 4430      6D616E64 
 4430      20726571 
 4430      75697265 
 4431 09cf 00       		.space	1
 4432              	.LC109:
 4433 09d0 6D656173 		.ascii	"measure_res_ind\000"
 4433      7572655F 
 4433      7265735F 
 4433      696E6400 
 4434              	.LC110:
 4435 09e0 52657369 		.ascii	"Resistance: %.6f ohm\000"
 4435      7374616E 
 4435      63653A20 
 4435      252E3666 
 4435      206F686D 
 4436 09f5 000000   		.space	3
 4437              	.LC111:
 4438 09f8 496E6475 		.ascii	"Inductance: %.2f microhenry\012\000"
 4438      6374616E 
 4438      63653A20 
 4438      252E3266 
 4438      206D6963 
 4439 0a15 000000   		.space	3
 4440              	.LC112:
 4441 0a18 6D656173 		.ascii	"measure_linkage_foc\000"
 4441      7572655F 
 4441      6C696E6B 
 4441      6167655F 
 4441      666F6300 
 4442              	.LC113:
 4443 0a2c 6D656173 		.ascii	"measure_linkage_openloop\000"
 4443      7572655F 
 4443      6C696E6B 
 4443      6167655F 
 4443      6F70656E 
 4444 0a45 000000   		.space	3
 4445              	.LC114:
 4446 0a48 666F635F 		.ascii	"foc_state\000"
 4446      73746174 
ARM GAS  /tmp/ccHCUo6g.s 			page 86


 4446      6500
 4447 0a52 0000     		.space	2
 4448              	.LC115:
 4449 0a54 68775F73 		.ascii	"hw_status\000"
 4449      74617475 
 4449      7300
 4450 0a5e 0000     		.space	2
 4451              	.LC116:
 4452 0a60 4669726D 		.ascii	"Firmware: %d.%d\000"
 4452      77617265 
 4452      3A202564 
 4452      2E256400 
 4453              	.LC117:
 4454 0a70 53563330 		.ascii	"SV30\000"
 4454      00
 4455 0a75 000000   		.space	3
 4456              	.LC118:
 4457 0a78 48617264 		.ascii	"Hardware: %s\000"
 4457      77617265 
 4457      3A202573 
 4457      00
 4458 0a85 000000   		.space	3
 4459              	.LC119:
 4460 0a88 55554944 		.ascii	"UUID: %02X %02X %02X %02X %02X %02X %02X %02X %02X "
 4460      3A202530 
 4460      32582025 
 4460      30325820 
 4460      25303258 
 4461 0abb 25303258 		.ascii	"%02X %02X %02X\000"
 4461      20253032 
 4461      58202530 
 4461      325800
 4462 0aca 0000     		.space	2
 4463              	.LC120:
 4464 0acc 5065726D 		.ascii	"Permanent NRF found: %s\000"
 4464      616E656E 
 4464      74204E52 
 4464      4620666F 
 4464      756E643A 
 4465              	.LC121:
 4466 0ae4 464F4320 		.ascii	"FOC Current Offsets: %d %d %d\000"
 4466      43757272 
 4466      656E7420 
 4466      4F666673 
 4466      6574733A 
 4467 0b02 0000     		.space	2
 4468              	.LC122:
 4469 0b04 666F635F 		.ascii	"foc_openloop\000"
 4469      6F70656E 
 4469      6C6F6F70 
 4469      00
 4470 0b11 000000   		.space	3
 4471              	.LC123:
 4472 0b14 54686973 		.ascii	"This command requires two arguments.\012\000"
 4472      20636F6D 
 4472      6D616E64 
 4472      20726571 
ARM GAS  /tmp/ccHCUo6g.s 			page 87


 4472      75697265 
 4473 0b3a 0000     		.space	2
 4474              	.LC124:
 4475 0b3c 666F635F 		.ascii	"foc_openloop_duty\000"
 4475      6F70656E 
 4475      6C6F6F70 
 4475      5F647574 
 4475      7900
 4476 0b4e 0000     		.space	2
 4477              	.LC125:
 4478 0b50 6E72665F 		.ascii	"nrf_ext_set_enabled\000"
 4478      6578745F 
 4478      7365745F 
 4478      656E6162 
 4478      6C656400 
 4479              	.LC126:
 4480 0b64 256400   		.ascii	"%d\000"
 4481 0b67 00       		.space	1
 4482              	.LC127:
 4483 0b68 666F635F 		.ascii	"foc_sensors_detect_apply\000"
 4483      73656E73 
 4483      6F72735F 
 4483      64657465 
 4483      63745F61 
 4484 0b81 000000   		.space	3
 4485              	.LC128:
 4486 0b84 4E6F2073 		.ascii	"No sensors found, using sensorless mode.\012\000"
 4486      656E736F 
 4486      72732066 
 4486      6F756E64 
 4486      2C207573 
 4487 0bae 0000     		.space	2
 4488              	.LC129:
 4489 0bb0 466F756E 		.ascii	"Found hall sensors, using them.\012\000"
 4489      64206861 
 4489      6C6C2073 
 4489      656E736F 
 4489      72732C20 
 4490 0bd1 000000   		.space	3
 4491              	.LC130:
 4492 0bd4 466F756E 		.ascii	"Found AS5047 encoder, using it.\012\000"
 4492      64204153 
 4492      35303437 
 4492      20656E63 
 4492      6F646572 
 4493 0bf5 000000   		.space	3
 4494              	.LC131:
 4495 0bf8 44657465 		.ascii	"Detection error: %d\012\000"
 4495      6374696F 
 4495      6E206572 
 4495      726F723A 
 4495      2025640A 
 4496 0c0d 000000   		.space	3
 4497              	.LC132:
 4498 0c10 726F746F 		.ascii	"rotor_lock_openloop\000"
 4498      725F6C6F 
 4498      636B5F6F 
ARM GAS  /tmp/ccHCUo6g.s 			page 88


 4498      70656E6C 
 4498      6F6F7000 
 4499              	.LC133:
 4500 0c24 4F4B0A00 		.ascii	"OK\012\000"
 4501              	.LC134:
 4502 0c28 54206C65 		.ascii	"T left: %.2f s\000"
 4502      66743A20 
 4502      252E3266 
 4502      207300
 4503 0c37 00       		.space	1
 4504              	.LC135:
 4505 0c38 446F6E65 		.ascii	"Done\012\000"
 4505      0A00
 4506 0c3e 0000     		.space	2
 4507              	.LC136:
 4508 0c40 666F635F 		.ascii	"foc_detect_apply_all\000"
 4508      64657465 
 4508      63745F61 
 4508      70706C79 
 4508      5F616C6C 
 4509 0c55 000000   		.space	3
 4510              	.LC137:
 4511 0c58 52756E6E 		.ascii	"Running detection...\000"
 4511      696E6720 
 4511      64657465 
 4511      6374696F 
 4511      6E2E2E2E 
 4512 0c6d 000000   		.space	3
 4513              	.LC138:
 4514 0c70 5265733A 		.ascii	"Res: %d\000"
 4514      20256400 
 4515              	.LC139:
 4516 0c78 44657465 		.ascii	"Detection finished and applied. Results:\000"
 4516      6374696F 
 4516      6E206669 
 4516      6E697368 
 4516      65642061 
 4517 0ca1 000000   		.space	3
 4518              	.LC140:
 4519 0ca4 4D6F746F 		.ascii	"Motor Current       : %.1f A\000"
 4519      72204375 
 4519      7272656E 
 4519      74202020 
 4519      20202020 
 4520 0cc1 000000   		.space	3
 4521              	.LC141:
 4522 0cc4 4D6F746F 		.ascii	"Motor R             : %.2f mOhm\000"
 4522      72205220 
 4522      20202020 
 4522      20202020 
 4522      20202020 
 4523              	.LC142:
 4524 0ce4 4D6F746F 		.ascii	"Motor L             : %.2f microH\000"
 4524      72204C20 
 4524      20202020 
 4524      20202020 
 4524      20202020 
ARM GAS  /tmp/ccHCUo6g.s 			page 89


 4525 0d06 0000     		.space	2
 4526              	.LC143:
 4527 0d08 4D6F746F 		.ascii	"Motor Flux Linkage  : %.3f mWb\000"
 4527      7220466C 
 4527      7578204C 
 4527      696E6B61 
 4527      67652020 
 4528 0d27 00       		.space	1
 4529              	.LC144:
 4530 0d28 54656D70 		.ascii	"Temp Comp           : %s\000"
 4530      20436F6D 
 4530      70202020 
 4530      20202020 
 4530      20202020 
 4531 0d41 000000   		.space	3
 4532              	.LC145:
 4533 0d44 54656D70 		.ascii	"Temp Comp Base Temp : %.1f degC\000"
 4533      20436F6D 
 4533      70204261 
 4533      73652054 
 4533      656D7020 
 4534              	.LC146:
 4535 0d64 436F756C 		.ascii	"Could not measure flux linkage.\000"
 4535      64206E6F 
 4535      74206D65 
 4535      61737572 
 4535      6520666C 
 4536              	.LC147:
 4537 0d84 4661756C 		.ascii	"Fault code occured during detection.\000"
 4537      7420636F 
 4537      6465206F 
 4537      63637572 
 4537      65642064 
 4538 0da9 000000   		.space	3
 4539              	.LC148:
 4540 0dac 44657465 		.ascii	"Detection failed.\012\000"
 4540      6374696F 
 4540      6E206661 
 4540      696C6564 
 4540      2E0A00
 4541 0dbf 00       		.space	1
 4542              	.LC149:
 4543 0dc0 63616E5F 		.ascii	"can_scan\000"
 4543      7363616E 
 4543      00
 4544 0dc9 000000   		.space	3
 4545              	.LC150:
 4546 0dcc 466F756E 		.ascii	"Found VESC with ID: %d\000"
 4546      64205645 
 4546      53432077 
 4546      69746820 
 4546      49443A20 
 4547 0de3 00       		.space	1
 4548              	.LC151:
 4549 0de4 4E6F2043 		.ascii	"No CAN devices found\012\000"
 4549      414E2064 
 4549      65766963 
ARM GAS  /tmp/ccHCUo6g.s 			page 90


 4549      65732066 
 4549      6F756E64 
 4550 0dfa 0000     		.space	2
 4551              	.LC152:
 4552 0dfc 666F635F 		.ascii	"foc_detect_apply_all_can\000"
 4552      64657465 
 4552      63745F61 
 4552      70706C79 
 4552      5F616C6C 
 4553 0e15 000000   		.space	3
 4554              	.LC153:
 4555 0e18 656E636F 		.ascii	"encoder\000"
 4555      64657200 
 4556              	.LC154:
 4557 0e20 53504920 		.ascii	"SPI encoder value: %x, errors: %d, error rate: %.3f"
 4557      656E636F 
 4557      64657220 
 4557      76616C75 
 4557      653A2025 
 4558 0e53 20252500 		.ascii	" %%\000"
 4559 0e57 00       		.space	1
 4560              	.LC155:
 4561 0e58 53696E2F 		.ascii	"Sin/Cos encoder signal below minimum amplitude: err"
 4561      436F7320 
 4561      656E636F 
 4561      64657220 
 4561      7369676E 
 4562 0e8b 6F72733A 		.ascii	"ors: %d, error rate: %.3f %%\000"
 4562      2025642C 
 4562      20657272 
 4562      6F722072 
 4562      6174653A 
 4563              	.LC156:
 4564 0ea8 53696E2F 		.ascii	"Sin/Cos encoder signal above maximum amplitude: err"
 4564      436F7320 
 4564      656E636F 
 4564      64657220 
 4564      7369676E 
 4565 0edb 6F72733A 		.ascii	"ors: %d, error rate: %.3f %%\000"
 4565      2025642C 
 4565      20657272 
 4565      6F722072 
 4565      6174653A 
 4566              	.LC157:
 4567 0ef8 68656C70 		.ascii	"help\000"
 4567      00
 4568 0efd 000000   		.space	3
 4569              	.LC158:
 4570 0f00 56616C69 		.ascii	"Valid commands are:\000"
 4570      6420636F 
 4570      6D6D616E 
 4570      64732061 
 4570      72653A00 
 4571              	.LC159:
 4572 0f14 20205368 		.ascii	"  Show this help\000"
 4572      6F772074 
 4572      68697320 
ARM GAS  /tmp/ccHCUo6g.s 			page 91


 4572      68656C70 
 4572      00
 4573 0f25 000000   		.space	3
 4574              	.LC160:
 4575 0f28 20205072 		.ascii	"  Print pong here to see if the reply works\000"
 4575      696E7420 
 4575      706F6E67 
 4575      20686572 
 4575      6520746F 
 4576              	.LC161:
 4577 0f54 20205374 		.ascii	"  Stop the motor\000"
 4577      6F702074 
 4577      6865206D 
 4577      6F746F72 
 4577      00
 4578 0f65 000000   		.space	3
 4579              	.LC162:
 4580 0f68 20205468 		.ascii	"  The time the latest ADC interrupt consumed\000"
 4580      65207469 
 4580      6D652074 
 4580      6865206C 
 4580      61746573 
 4581 0f95 000000   		.space	3
 4582              	.LC163:
 4583 0f98 20205468 		.ascii	"  The calculated kv of the motor\000"
 4583      65206361 
 4583      6C63756C 
 4583      61746564 
 4583      206B7620 
 4584 0fb9 000000   		.space	3
 4585              	.LC164:
 4586 0fbc 20205368 		.ascii	"  Show memory usage\000"
 4586      6F77206D 
 4586      656D6F72 
 4586      79207573 
 4586      61676500 
 4587              	.LC165:
 4588 0fd0 20204C69 		.ascii	"  List all threads\000"
 4588      73742061 
 4588      6C6C2074 
 4588      68726561 
 4588      647300
 4589 0fe3 00       		.space	1
 4590              	.LC166:
 4591 0fe4 20205072 		.ascii	"  Prints the current fault code\000"
 4591      696E7473 
 4591      20746865 
 4591      20637572 
 4591      72656E74 
 4592              	.LC167:
 4593 1004 20205072 		.ascii	"  Prints all stored fault codes and conditions when"
 4593      696E7473 
 4593      20616C6C 
 4593      2073746F 
 4593      72656420 
 4594 1037 20746865 		.ascii	" they arrived\000"
 4594      79206172 
ARM GAS  /tmp/ccHCUo6g.s 			page 92


 4594      72697665 
 4594      6400
 4595 1045 000000   		.space	3
 4596              	.LC168:
 4597 1048 20205072 		.ascii	"  Prints the current electrical RPM\000"
 4597      696E7473 
 4597      20746865 
 4597      20637572 
 4597      72656E74 
 4598              	.LC169:
 4599 106c 20205072 		.ascii	"  Prints tachometer value\000"
 4599      696E7473 
 4599      20746163 
 4599      686F6D65 
 4599      74657220 
 4600 1086 0000     		.space	2
 4601              	.LC170:
 4602 1088 20205072 		.ascii	"  Prints tim1 and tim8 settings\000"
 4602      696E7473 
 4602      2074696D 
 4602      3120616E 
 4602      64207469 
 4603              	.LC171:
 4604 10a8 20205072 		.ascii	"  Prints different voltages\000"
 4604      696E7473 
 4604      20646966 
 4604      66657265 
 4604      6E742076 
 4605              	.LC172:
 4606 10c4 70617261 		.ascii	"param_detect [current] [min_rpm] [low_duty]\000"
 4606      6D5F6465 
 4606      74656374 
 4606      205B6375 
 4606      7272656E 
 4607              	.LC173:
 4608 10f0 20205370 		.ascii	"  Spin up the motor in COMM_MODE_DELAY and compute "
 4608      696E2075 
 4608      70207468 
 4608      65206D6F 
 4608      746F7220 
 4609 1123 69747320 		.ascii	"its parameters.\000"
 4609      70617261 
 4609      6D657465 
 4609      72732E00 
 4610 1133 00       		.space	1
 4611              	.LC174:
 4612 1134 20205468 		.ascii	"  This test should be performed without load on the"
 4612      69732074 
 4612      65737420 
 4612      73686F75 
 4612      6C642062 
 4613 1167 206D6F74 		.ascii	" motor.\000"
 4613      6F722E00 
 4614 116f 00       		.space	1
 4615              	.LC175:
 4616 1170 20204578 		.ascii	"  Example: param_detect 5.0 600 0.06\000"
 4616      616D706C 
ARM GAS  /tmp/ccHCUo6g.s 			page 93


 4616      653A2070 
 4616      6172616D 
 4616      5F646574 
 4617 1195 000000   		.space	3
 4618              	.LC176:
 4619 1198 20205072 		.ascii	"  Prints some rpm-dep values\000"
 4619      696E7473 
 4619      20736F6D 
 4619      65207270 
 4619      6D2D6465 
 4620 11b5 000000   		.space	3
 4621              	.LC177:
 4622 11b8 20205072 		.ascii	"  Prints all CAN devices seen on the bus the past s"
 4622      696E7473 
 4622      20616C6C 
 4622      2043414E 
 4622      20646576 
 4623 11eb 65636F6E 		.ascii	"econd\000"
 4623      6400
 4624 11f1 000000   		.space	3
 4625              	.LC178:
 4626 11f4 666F635F 		.ascii	"foc_encoder_detect [current]\000"
 4626      656E636F 
 4626      6465725F 
 4626      64657465 
 4626      6374205B 
 4627 1211 000000   		.space	3
 4628              	.LC179:
 4629 1214 20205275 		.ascii	"  Run the motor at 1Hz on open loop and compute enc"
 4629      6E207468 
 4629      65206D6F 
 4629      746F7220 
 4629      61742031 
 4630 1247 6F646572 		.ascii	"oder settings\000"
 4630      20736574 
 4630      74696E67 
 4630      7300
 4631 1255 000000   		.space	3
 4632              	.LC180:
 4633 1258 6D656173 		.ascii	"measure_res [current]\000"
 4633      7572655F 
 4633      72657320 
 4633      5B637572 
 4633      72656E74 
 4634 126e 0000     		.space	2
 4635              	.LC181:
 4636 1270 20204C6F 		.ascii	"  Lock the motor with a current and calculate its r"
 4636      636B2074 
 4636      6865206D 
 4636      6F746F72 
 4636      20776974 
 4637 12a3 65736973 		.ascii	"esistance\000"
 4637      74616E63 
 4637      6500
 4638 12ad 000000   		.space	3
 4639              	.LC182:
 4640 12b0 6D656173 		.ascii	"measure_ind [duty]\000"
ARM GAS  /tmp/ccHCUo6g.s 			page 94


 4640      7572655F 
 4640      696E6420 
 4640      5B647574 
 4640      795D00
 4641 12c3 00       		.space	1
 4642              	.LC183:
 4643 12c4 20205365 		.ascii	"  Send short voltage pulses, measure the current an"
 4643      6E642073 
 4643      686F7274 
 4643      20766F6C 
 4643      74616765 
 4644 12f7 64206361 		.ascii	"d calculate the motor inductance\000"
 4644      6C63756C 
 4644      61746520 
 4644      74686520 
 4644      6D6F746F 
 4645              	.LC184:
 4646 1318 6D656173 		.ascii	"measure_ind2 [duty] [samples] [freqency]\000"
 4646      7572655F 
 4646      696E6432 
 4646      205B6475 
 4646      74795D20 
 4647 1341 000000   		.space	3
 4648              	.LC185:
 4649 1344 20204AC3 		.ascii	"  J\303\266rn spezial :-) calculate the motor induc"
 4649      B6726E20 
 4649      7370657A 
 4649      69616C20 
 4649      3A2D2920 
 4650 1371 74616E63 		.ascii	"tance\000"
 4650      6500
 4651 1377 00       		.space	1
 4652              	.LC186:
 4653 1378 6D656173 		.ascii	"measure_linkage [current] [duty] [min_erpm] [motor_"
 4653      7572655F 
 4653      6C696E6B 
 4653      61676520 
 4653      5B637572 
 4654 13ab 7265735D 		.ascii	"res]\000"
 4654      00
 4655              	.LC187:
 4656 13b0 20205275 		.ascii	"  Run the motor in BLDC delay mode and measure the "
 4656      6E207468 
 4656      65206D6F 
 4656      746F7220 
 4656      696E2042 
 4657 13e3 666C7578 		.ascii	"flux linkage\000"
 4657      206C696E 
 4657      6B616765 
 4657      00
 4658              	.LC188:
 4659 13f0 20206578 		.ascii	"  example measure_linkage 5 0.5 700 0.076\000"
 4659      616D706C 
 4659      65206D65 
 4659      61737572 
 4659      655F6C69 
 4660 141a 0000     		.space	2
ARM GAS  /tmp/ccHCUo6g.s 			page 95


 4661              	.LC189:
 4662 141c 20207469 		.ascii	"  tip: measure the resistance with measure_res firs"
 4662      703A206D 
 4662      65617375 
 4662      72652074 
 4662      68652072 
 4663 144f 7400     		.ascii	"t\000"
 4664 1451 000000   		.space	3
 4665              	.LC190:
 4666 1454 20204D65 		.ascii	"  Measure the motor resistance and inductance with "
 4666      61737572 
 4666      65207468 
 4666      65206D6F 
 4666      746F7220 
 4667 1487 616E2069 		.ascii	"an incremental adaptive algorithm.\000"
 4667      6E637265 
 4667      6D656E74 
 4667      616C2061 
 4667      64617074 
 4668 14aa 0000     		.space	2
 4669              	.LC191:
 4670 14ac 6D656173 		.ascii	"measure_linkage_foc [duty]\000"
 4670      7572655F 
 4670      6C696E6B 
 4670      6167655F 
 4670      666F6320 
 4671 14c7 00       		.space	1
 4672              	.LC192:
 4673 14c8 20205275 		.ascii	"  Run the motor with FOC and measure the flux linka"
 4673      6E207468 
 4673      65206D6F 
 4673      746F7220 
 4673      77697468 
 4674 14fb 67652E00 		.ascii	"ge.\000"
 4675 14ff 00       		.space	1
 4676              	.LC193:
 4677 1500 6D656173 		.ascii	"measure_linkage_openloop [current] [duty] [erpm_per"
 4677      7572655F 
 4677      6C696E6B 
 4677      6167655F 
 4677      6F70656E 
 4678 1533 5F736563 		.ascii	"_sec] [motor_res]\000"
 4678      5D205B6D 
 4678      6F746F72 
 4678      5F726573 
 4678      5D00
 4679 1545 000000   		.space	3
 4680              	.LC194:
 4681 1548 20205275 		.ascii	"  Run the motor in openloop FOC and measure the flu"
 4681      6E207468 
 4681      65206D6F 
 4681      746F7220 
 4681      696E206F 
 4682 157b 78206C69 		.ascii	"x linkage\000"
 4682      6E6B6167 
 4682      6500
 4683 1585 000000   		.space	3
ARM GAS  /tmp/ccHCUo6g.s 			page 96


 4684              	.LC195:
 4685 1588 20206578 		.ascii	"  example measure_linkage 5 0.5 1000 0.076\000"
 4685      616D706C 
 4685      65206D65 
 4685      61737572 
 4685      655F6C69 
 4686 15b3 00       		.space	1
 4687              	.LC196:
 4688 15b4 20205072 		.ascii	"  Print some FOC state variables.\000"
 4688      696E7420 
 4688      736F6D65 
 4688      20464F43 
 4688      20737461 
 4689 15d6 0000     		.space	2
 4690              	.LC197:
 4691 15d8 20205072 		.ascii	"  Print some hardware status information.\000"
 4691      696E7420 
 4691      736F6D65 
 4691      20686172 
 4691      64776172 
 4692 1602 0000     		.space	2
 4693              	.LC198:
 4694 1604 666F635F 		.ascii	"foc_openloop [current] [erpm]\000"
 4694      6F70656E 
 4694      6C6F6F70 
 4694      205B6375 
 4694      7272656E 
 4695 1622 0000     		.space	2
 4696              	.LC199:
 4697 1624 20204372 		.ascii	"  Create an open loop rotating current vector.\000"
 4697      65617465 
 4697      20616E20 
 4697      6F70656E 
 4697      206C6F6F 
 4698 1653 00       		.space	1
 4699              	.LC200:
 4700 1654 666F635F 		.ascii	"foc_openloop_duty [duty] [erpm]\000"
 4700      6F70656E 
 4700      6C6F6F70 
 4700      5F647574 
 4700      79205B64 
 4701              	.LC201:
 4702 1674 20204372 		.ascii	"  Create an open loop rotating voltage vector.\000"
 4702      65617465 
 4702      20616E20 
 4702      6F70656E 
 4702      206C6F6F 
 4703 16a3 00       		.space	1
 4704              	.LC202:
 4705 16a4 6E72665F 		.ascii	"nrf_ext_set_enabled [enabled]\000"
 4705      6578745F 
 4705      7365745F 
 4705      656E6162 
 4705      6C656420 
 4706 16c2 0000     		.space	2
 4707              	.LC203:
 4708 16c4 2020456E 		.ascii	"  Enable or disable external NRF51822.\000"
ARM GAS  /tmp/ccHCUo6g.s 			page 97


 4708      61626C65 
 4708      206F7220 
 4708      64697361 
 4708      626C6520 
 4709 16eb 00       		.space	1
 4710              	.LC204:
 4711 16ec 666F635F 		.ascii	"foc_sensors_detect_apply [current]\000"
 4711      73656E73 
 4711      6F72735F 
 4711      64657465 
 4711      63745F61 
 4712 170f 00       		.space	1
 4713              	.LC205:
 4714 1710 20204175 		.ascii	"  Automatically detect FOC sensors, and apply setti"
 4714      746F6D61 
 4714      74696361 
 4714      6C6C7920 
 4714      64657465 
 4715 1743 6E677320 		.ascii	"ngs on success.\000"
 4715      6F6E2073 
 4715      75636365 
 4715      73732E00 
 4716 1753 00       		.space	1
 4717              	.LC206:
 4718 1754 726F746F 		.ascii	"rotor_lock_openloop [current_A] [time_S] [angle_DEG"
 4718      725F6C6F 
 4718      636B5F6F 
 4718      70656E6C 
 4718      6F6F7020 
 4719 1787 5D00     		.ascii	"]\000"
 4720 1789 000000   		.space	3
 4721              	.LC207:
 4722 178c 20204C6F 		.ascii	"  Lock the motor with a current for a given time. T"
 4722      636B2074 
 4722      6865206D 
 4722      6F746F72 
 4722      20776974 
 4723 17bf 696D6520 		.ascii	"ime 0 means forever, or\000"
 4723      30206D65 
 4723      616E7320 
 4723      666F7265 
 4723      7665722C 
 4724 17d7 00       		.space	1
 4725              	.LC208:
 4726 17d8 20206F72 		.ascii	"  or until the heartbeat packets stop.\000"
 4726      20756E74 
 4726      696C2074 
 4726      68652068 
 4726      65617274 
 4727 17ff 00       		.space	1
 4728              	.LC209:
 4729 1800 666F635F 		.ascii	"foc_detect_apply_all [max_power_loss_W]\000"
 4729      64657465 
 4729      63745F61 
 4729      70706C79 
 4729      5F616C6C 
 4730              	.LC210:
ARM GAS  /tmp/ccHCUo6g.s 			page 98


 4731 1828 20204465 		.ascii	"  Detect and apply all motor settings, based on max"
 4731      74656374 
 4731      20616E64 
 4731      20617070 
 4731      6C792061 
 4732 185b 696D756D 		.ascii	"imum resistive motor power losses.\000"
 4732      20726573 
 4732      69737469 
 4732      7665206D 
 4732      6F746F72 
 4733 187e 0000     		.space	2
 4734              	.LC211:
 4735 1880 20205363 		.ascii	"  Scan CAN-bus using ping commands, and print all d"
 4735      616E2043 
 4735      414E2D62 
 4735      75732075 
 4735      73696E67 
 4736 18b3 65766963 		.ascii	"evices that are found.\000"
 4736      65732074 
 4736      68617420 
 4736      61726520 
 4736      666F756E 
 4737 18ca 0000     		.space	2
 4738              	.LC212:
 4739 18cc 666F635F 		.ascii	"foc_detect_apply_all_can [max_power_loss_W]\000"
 4739      64657465 
 4739      63745F61 
 4739      70706C79 
 4739      5F616C6C 
 4740              	.LC213:
 4741 18f8 20204465 		.ascii	"  Detect and apply all motor settings, based on max"
 4741      74656374 
 4741      20616E64 
 4741      20617070 
 4741      6C792061 
 4742 192b 696D756D 		.ascii	"imum resistive motor power losses. Also\000"
 4742      20726573 
 4742      69737469 
 4742      7665206D 
 4742      6F746F72 
 4743 1953 00       		.space	1
 4744              	.LC214:
 4745 1954 2020696E 		.ascii	"  initiates detection in all VESCs found on the CAN"
 4745      69746961 
 4745      74657320 
 4745      64657465 
 4745      6374696F 
 4746 1987 2D627573 		.ascii	"-bus.\000"
 4746      2E00
 4747 198d 000000   		.space	3
 4748              	.LC215:
 4749 1990 20205072 		.ascii	"  Prints the status of the AS5047, AD2S1205, or TS5"
 4749      696E7473 
 4749      20746865 
 4749      20737461 
 4749      74757320 
 4750 19c3 3730304E 		.ascii	"700N8501 encoder.\000"
ARM GAS  /tmp/ccHCUo6g.s 			page 99


 4750      38353031 
 4750      20656E63 
 4750      6F646572 
 4750      2E00
 4751 19d5 000000   		.space	3
 4752              	.LC216:
 4753 19d8 25732025 		.ascii	"%s %s\000"
 4753      7300
 4754 19de 0000     		.space	2
 4755              	.LC217:
 4756 19e0 20202573 		.ascii	"  %s\000"
 4756      00
 4757 19e5 000000   		.space	3
 4758              	.LC218:
 4759 19e8 20205468 		.ascii	"  There is no help available for this command.\000"
 4759      65726520 
 4759      6973206E 
 4759      6F206865 
 4759      6C702061 
 4760 1a17 00       		.space	1
 4761              	.LC219:
 4762 1a18 496E7661 		.ascii	"Invalid command: %s\012type help to list all availa"
 4762      6C696420 
 4762      636F6D6D 
 4762      616E643A 
 4762      2025730A 
 4763 1a48 626C6520 		.ascii	"ble commands\012\000"
 4763      636F6D6D 
 4763      616E6473 
 4763      0A00
 4764              		.text
 4765              	.Letext0:
 4766              		.file 4 "/usr/lib/gcc/arm-none-eabi/7.3.1/include/stddef.h"
 4767              		.file 5 "/usr/arm-none-eabi/include/machine/_default_types.h"
 4768              		.file 6 "/usr/arm-none-eabi/include/sys/_stdint.h"
 4769              		.file 7 "ChibiOS_3.0.2/os/rt/ports/ARMCMx/compilers/GCC/chtypes.h"
 4770              		.file 8 "ChibiOS_3.0.2/os/rt/include/chsystypes.h"
 4771              		.file 9 "ChibiOS_3.0.2/os/rt/include/chschd.h"
 4772              		.file 10 "ChibiOS_3.0.2/os/ext/CMSIS/include/core_cm4.h"
 4773              		.file 11 "ChibiOS_3.0.2/os/ext/CMSIS/ST/system_stm32f4xx.h"
 4774              		.file 12 "ChibiOS_3.0.2/os/ext/CMSIS/ST/stm32f407xx.h"
 4775              		.file 13 "ChibiOS_3.0.2/os/rt/ports/ARMCMx/chcore.h"
 4776              		.file 14 "ChibiOS_3.0.2/os/rt/ports/ARMCMx/chcore_v7m.h"
 4777              		.file 15 "ChibiOS_3.0.2/os/rt/include/chtm.h"
 4778              		.file 16 "ChibiOS_3.0.2/os/rt/include/chsem.h"
 4779              		.file 17 "ChibiOS_3.0.2/os/rt/include/chmtx.h"
 4780              		.file 18 "ChibiOS_3.0.2/os/rt/include/chregistry.h"
 4781              		.file 19 "ChibiOS_3.0.2/os/rt/include/chevents.h"
 4782              		.file 20 "ChibiOS_3.0.2/os/rt/include/chqueues.h"
 4783              		.file 21 "./datatypes.h"
 4784              		.file 22 "./conf_general.h"
 4785              		.file 23 "ChibiOS_3.0.2/os/hal/ports/STM32/STM32F4xx/stm32_dma.h"
 4786              		.file 24 "ChibiOS_3.0.2/os/hal/ports/STM32/LLD/GPIOv2/pal_lld.h"
 4787              		.file 25 "ChibiOS_3.0.2/os/hal/include/can.h"
 4788              		.file 26 "ChibiOS_3.0.2/os/hal/ports/STM32/LLD/can_lld.h"
 4789              		.file 27 "ChibiOS_3.0.2/os/hal/include/i2c.h"
 4790              		.file 28 "ChibiOS_3.0.2/os/hal/ports/STM32/LLD/I2Cv1/i2c_lld.h"
ARM GAS  /tmp/ccHCUo6g.s 			page 100


 4791              		.file 29 "ChibiOS_3.0.2/os/hal/include/icu.h"
 4792              		.file 30 "ChibiOS_3.0.2/os/hal/ports/STM32/LLD/TIMv1/icu_lld.h"
 4793              		.file 31 "ChibiOS_3.0.2/os/hal/ports/STM32/LLD/TIMv1/stm32_tim.h"
 4794              		.file 32 "ChibiOS_3.0.2/os/hal/include/serial.h"
 4795              		.file 33 "ChibiOS_3.0.2/os/hal/ports/STM32/LLD/USARTv1/serial_lld.h"
 4796              		.file 34 "ChibiOS_3.0.2/os/hal/include/spi.h"
 4797              		.file 35 "ChibiOS_3.0.2/os/hal/ports/STM32/LLD/SPIv1/spi_lld.h"
 4798              		.file 36 "ChibiOS_3.0.2/os/hal/include/usb.h"
 4799              		.file 37 "ChibiOS_3.0.2/os/hal/ports/STM32/LLD/OTGv1/usb_lld.h"
 4800              		.file 38 "ChibiOS_3.0.2/os/hal/ports/STM32/LLD/OTGv1/stm32_otg.h"
 4801              		.file 39 "mcpwm.h"
 4802              		.file 40 "mc_interface.h"
 4803              		.file 41 "/usr/arm-none-eabi/include/sys/lock.h"
 4804              		.file 42 "/usr/arm-none-eabi/include/sys/_types.h"
 4805              		.file 43 "/usr/arm-none-eabi/include/sys/reent.h"
 4806              		.file 44 "/usr/arm-none-eabi/include/math.h"
 4807              		.file 45 "ChibiOS_3.0.2/os/rt/include/chsys.h"
 4808              		.file 46 "/usr/arm-none-eabi/include/string.h"
 4809              		.file 47 "/usr/arm-none-eabi/include/stdio.h"
 4810              		.file 48 "commands.h"
 4811              		.file 49 "ChibiOS_3.0.2/os/rt/include/chheap.h"
 4812              		.file 50 "ChibiOS_3.0.2/os/rt/include/chmemcore.h"
 4813              		.file 51 "hwconf/drv8350.h"
 4814              		.file 52 "comm_can.h"
 4815              		.file 53 "mcpwm_foc.h"
 4816              		.file 54 "encoder.h"
 4817              		.file 55 "ChibiOS_3.0.2/os/rt/include/chthreads.h"
 4818              		.file 56 "timeout.h"
 4819              		.file 57 "<built-in>"