ARM GAS  /tmp/ccQ6D5ZL.s 			page 1


   1              		.cpu cortex-m4
   2              		.eabi_attribute 27, 1
   3              		.eabi_attribute 28, 1
   4              		.eabi_attribute 20, 1
   5              		.eabi_attribute 21, 1
   6              		.eabi_attribute 23, 3
   7              		.eabi_attribute 24, 1
   8              		.eabi_attribute 25, 1
   9              		.eabi_attribute 26, 1
  10              		.eabi_attribute 30, 2
  11              		.eabi_attribute 34, 1
  12              		.eabi_attribute 18, 4
  13              		.file	"app.c"
  14              		.text
  15              	.Ltext0:
  16              		.cfi_sections	.debug_frame
  17              		.section	.text.output_vt_cb,"ax",%progbits
  18              		.align	1
  19              		.p2align 4,,15
  20              		.syntax unified
  21              		.thumb
  22              		.thumb_func
  23              		.fpu fpv4-sp-d16
  24              		.type	output_vt_cb, %function
  25              	output_vt_cb:
  26              	.LFB261:
  27              		.file 1 "applications/app.c"
  28              		.loc 1 180 0
  29              		.cfi_startproc
  30              		@ args = 0, pretend = 0, frame = 0
  31              		@ frame_needed = 0, uses_anonymous_args = 0
  32              		@ link register save eliminated.
  33              	.LVL0:
  34              		.loc 1 182 0
  35 0000 014B     		ldr	r3, .L3
  36 0002 0022     		movs	r2, #0
  37 0004 1A70     		strb	r2, [r3]
  38              		.loc 1 183 0
  39 0006 7047     		bx	lr
  40              	.L4:
  41              		.align	2
  42              	.L3:
  43 0008 00000000 		.word	.LANCHOR0
  44              		.cfi_endproc
  45              	.LFE261:
  46              		.size	output_vt_cb, .-output_vt_cb
  47              		.section	.text.app_get_configuration,"ax",%progbits
  48              		.align	1
  49              		.p2align 4,,15
  50              		.global	app_get_configuration
  51              		.syntax unified
  52              		.thumb
  53              		.thumb_func
  54              		.fpu fpv4-sp-d16
  55              		.type	app_get_configuration, %function
  56              	app_get_configuration:
  57              	.LFB256:
ARM GAS  /tmp/ccQ6D5ZL.s 			page 2


  58              		.loc 1 40 0
  59              		.cfi_startproc
  60              		@ args = 0, pretend = 0, frame = 0
  61              		@ frame_needed = 0, uses_anonymous_args = 0
  62              		@ link register save eliminated.
  63              		.loc 1 42 0
  64 0000 0048     		ldr	r0, .L6
  65 0002 7047     		bx	lr
  66              	.L7:
  67              		.align	2
  68              	.L6:
  69 0004 00000000 		.word	.LANCHOR1
  70              		.cfi_endproc
  71              	.LFE256:
  72              		.size	app_get_configuration, .-app_get_configuration
  73              		.section	.text.custom_get_configuration,"ax",%progbits
  74              		.align	1
  75              		.p2align 4,,15
  76              		.global	custom_get_configuration
  77              		.syntax unified
  78              		.thumb
  79              		.thumb_func
  80              		.fpu fpv4-sp-d16
  81              		.type	custom_get_configuration, %function
  82              	custom_get_configuration:
  83              	.LFB257:
  84              		.loc 1 44 0
  85              		.cfi_startproc
  86              		@ args = 0, pretend = 0, frame = 0
  87              		@ frame_needed = 0, uses_anonymous_args = 0
  88              		@ link register save eliminated.
  89              		.loc 1 46 0
  90 0000 0048     		ldr	r0, .L9
  91 0002 7047     		bx	lr
  92              	.L10:
  93              		.align	2
  94              	.L9:
  95 0004 00000000 		.word	.LANCHOR2
  96              		.cfi_endproc
  97              	.LFE257:
  98              		.size	custom_get_configuration, .-custom_get_configuration
  99              		.section	.text.app_set_configuration,"ax",%progbits
 100              		.align	1
 101              		.p2align 4,,15
 102              		.global	app_set_configuration
 103              		.syntax unified
 104              		.thumb
 105              		.thumb_func
 106              		.fpu fpv4-sp-d16
 107              		.type	app_set_configuration, %function
 108              	app_set_configuration:
 109              	.LFB258:
 110              		.loc 1 55 0
 111              		.cfi_startproc
 112              		@ args = 0, pretend = 0, frame = 0
 113              		@ frame_needed = 0, uses_anonymous_args = 0
 114              	.LVL1:
ARM GAS  /tmp/ccQ6D5ZL.s 			page 3


 115 0000 70B5     		push	{r4, r5, r6, lr}
 116              		.cfi_def_cfa_offset 16
 117              		.cfi_offset 4, -16
 118              		.cfi_offset 5, -12
 119              		.cfi_offset 6, -8
 120              		.cfi_offset 14, -4
 121              		.loc 1 55 0
 122 0002 0546     		mov	r5, r0
 123              		.loc 1 65 0
 124 0004 3C4E     		ldr	r6, .L29
 125              		.loc 1 56 0
 126 0006 3D48     		ldr	r0, .L29+4
 127              	.LVL2:
 128 0008 2946     		mov	r1, r5
 129 000a 4FF4BC72 		mov	r2, #376
 130 000e FFF7FEFF 		bl	memcpy
 131              	.LVL3:
 132              		.loc 1 58 0
 133 0012 FFF7FEFF 		bl	app_ppm_stop
 134              	.LVL4:
 135              		.loc 1 59 0
 136 0016 FFF7FEFF 		bl	app_adc_stop
 137              	.LVL5:
 138              		.loc 1 60 0
 139 001a FFF7FEFF 		bl	app_uartcomm_stop
 140              	.LVL6:
 141              		.loc 1 61 0
 142 001e FFF7FEFF 		bl	app_nunchuk_stop
 143              	.LVL7:
 144              		.loc 1 62 0
 145 0022 FFF7FEFF 		bl	app_balance_stop
 146              	.LVL8:
 147              		.loc 1 63 0
 148 0026 FFF7FEFF 		bl	spicontrol_end
 149              	.LVL9:
 150              		.loc 1 65 0
 151 002a 3378     		ldrb	r3, [r6]	@ zero_extendqisi2
 152 002c 93B3     		cbz	r3, .L28
 153              	.L12:
 154              		.loc 1 80 0
 155 002e 334C     		ldr	r4, .L29+4
 156              		.loc 1 70 0
 157 0030 287D     		ldrb	r0, [r5, #20]	@ zero_extendqisi2
 158 0032 FFF7FEFF 		bl	comm_can_set_baud
 159              	.LVL10:
 160              		.loc 1 77 0
 161 0036 05F59670 		add	r0, r5, #300
 162 003a FFF7FEFF 		bl	imu_init
 163              	.LVL11:
 164              		.loc 1 80 0
 165 003e 04F59671 		add	r1, r4, #300
 166 0042 04F1E400 		add	r0, r4, #228
 167 0046 FFF7FEFF 		bl	app_balance_configure
 168              	.LVL12:
 169              		.loc 1 81 0
 170 004a 04F59672 		add	r2, r4, #300
 171 004e 04F1E401 		add	r1, r4, #228
ARM GAS  /tmp/ccQ6D5ZL.s 			page 4


 172 0052 04F16000 		add	r0, r4, #96
 173 0056 FFF7FEFF 		bl	app_adc_configure
 174              	.LVL13:
 175              		.loc 1 84 0
 176 005a A37E     		ldrb	r3, [r4, #26]	@ zero_extendqisi2
 177 005c 013B     		subs	r3, r3, #1
 178 005e 082B     		cmp	r3, #8
 179 0060 08D8     		bhi	.L13
 180 0062 DFE803F0 		tbb	[pc, r3]
 181              	.L15:
 182 0066 05       		.byte	(.L14-.L15)/2
 183 0067 43       		.byte	(.L16-.L15)/2
 184 0068 20       		.byte	(.L27-.L15)/2
 185 0069 25       		.byte	(.L18-.L15)/2
 186 006a 2C       		.byte	(.L19-.L15)/2
 187 006b 35       		.byte	(.L20-.L15)/2
 188 006c 38       		.byte	(.L21-.L15)/2
 189 006d 40       		.byte	(.L22-.L15)/2
 190 006e 1A       		.byte	(.L23-.L15)/2
 191 006f 00       		.p2align 1
 192              	.L14:
 193              		.loc 1 86 0
 194 0070 FFF7FEFF 		bl	app_ppm_start
 195              	.LVL14:
 196              	.L13:
 197              		.loc 1 139 0
 198 0074 2248     		ldr	r0, .L29+8
 199 0076 FFF7FEFF 		bl	app_ppm_configure
 200              	.LVL15:
 201              		.loc 1 140 0
 202 007a A17D     		ldrb	r1, [r4, #22]	@ zero_extendqisi2
 203 007c D4F8A400 		ldr	r0, [r4, #164]
 204 0080 FFF7FEFF 		bl	app_uartcomm_configure
 205              	.LVL16:
 206              		.loc 1 141 0
 207 0084 1F48     		ldr	r0, .L29+12
 208 0086 FFF7FEFF 		bl	app_nunchuk_configure
 209              	.LVL17:
 210              		.loc 1 147 0
 211 008a 1F48     		ldr	r0, .L29+16
 212              		.loc 1 148 0
 213 008c BDE87040 		pop	{r4, r5, r6, lr}
 214              		.cfi_remember_state
 215              		.cfi_restore 14
 216              		.cfi_restore 6
 217              		.cfi_restore 5
 218              		.cfi_restore 4
 219              		.cfi_def_cfa_offset 0
 220              	.LVL18:
 221              		.loc 1 147 0
 222 0090 FFF7FEBF 		b	rfhelp_update_conf
 223              	.LVL19:
 224              	.L28:
 225              		.cfi_restore_state
 226              		.loc 1 66 0
 227 0094 FFF7FEFF 		bl	nrf_driver_stop
 228              	.LVL20:
ARM GAS  /tmp/ccQ6D5ZL.s 			page 5


 229 0098 C9E7     		b	.L12
 230              	.L23:
 231              		.loc 1 115 0
 232 009a FFF7FEFF 		bl	app_balance_start
 233              	.LVL21:
 234              		.loc 1 116 0
 235 009e 94F82C31 		ldrb	r3, [r4, #300]	@ zero_extendqisi2
 236 00a2 012B     		cmp	r3, #1
 237 00a4 E6D1     		bne	.L13
 238              	.L27:
 239              		.loc 1 117 0
 240 00a6 FFF7FEFF 		bl	hw_stop_i2c
 241              	.LVL22:
 242              		.loc 1 118 0
 243 00aa FFF7FEFF 		bl	app_uartcomm_start
 244              	.LVL23:
 245 00ae E1E7     		b	.L13
 246              	.L18:
 247              		.loc 1 99 0
 248 00b0 FFF7FEFF 		bl	hw_stop_i2c
 249              	.LVL24:
 250              		.loc 1 100 0
 251 00b4 FFF7FEFF 		bl	app_ppm_start
 252              	.LVL25:
 253              		.loc 1 101 0
 254 00b8 FFF7FEFF 		bl	app_uartcomm_start
 255              	.LVL26:
 256              		.loc 1 102 0
 257 00bc DAE7     		b	.L13
 258              	.L19:
 259              		.loc 1 105 0
 260 00be FFF7FEFF 		bl	hw_stop_i2c
 261              	.LVL27:
 262              		.loc 1 106 0
 263 00c2 0021     		movs	r1, #0
 264 00c4 0846     		mov	r0, r1
 265 00c6 FFF7FEFF 		bl	app_adc_start
 266              	.LVL28:
 267              		.loc 1 107 0
 268 00ca FFF7FEFF 		bl	app_uartcomm_start
 269              	.LVL29:
 270              		.loc 1 108 0
 271 00ce D1E7     		b	.L13
 272              	.L20:
 273              		.loc 1 111 0
 274 00d0 FFF7FEFF 		bl	app_nunchuk_start
 275              	.LVL30:
 276              		.loc 1 112 0
 277 00d4 CEE7     		b	.L13
 278              	.L21:
 279              		.loc 1 123 0
 280 00d6 3378     		ldrb	r3, [r6]	@ zero_extendqisi2
 281 00d8 002B     		cmp	r3, #0
 282 00da CBD1     		bne	.L13
 283              		.loc 1 124 0
 284 00dc FFF7FEFF 		bl	nrf_driver_init
 285              	.LVL31:
ARM GAS  /tmp/ccQ6D5ZL.s 			page 6


 286              		.loc 1 125 0
 287 00e0 FFF7FEFF 		bl	rfhelp_restart
 288              	.LVL32:
 289 00e4 C6E7     		b	.L13
 290              	.L22:
 291              		.loc 1 132 0
 292 00e6 FFF7FEFF 		bl	app_spicontrol_init
 293              	.LVL33:
 294              		.loc 1 133 0
 295 00ea C3E7     		b	.L13
 296              	.L16:
 297              		.loc 1 90 0
 298 00ec 0021     		movs	r1, #0
 299 00ee 0120     		movs	r0, #1
 300 00f0 FFF7FEFF 		bl	app_adc_start
 301              	.LVL34:
 302              		.loc 1 91 0
 303 00f4 BEE7     		b	.L13
 304              	.L30:
 305 00f6 00BF     		.align	2
 306              	.L29:
 307 00f8 00000000 		.word	conf_general_permanent_nrf_found
 308 00fc 00000000 		.word	.LANCHOR1
 309 0100 1C000000 		.word	.LANCHOR1+28
 310 0104 A8000000 		.word	.LANCHOR1+168
 311 0108 D8000000 		.word	.LANCHOR1+216
 312              		.cfi_endproc
 313              	.LFE258:
 314              		.size	app_set_configuration, .-app_set_configuration
 315              		.section	.text.app_disable_output,"ax",%progbits
 316              		.align	1
 317              		.p2align 4,,15
 318              		.global	app_disable_output
 319              		.syntax unified
 320              		.thumb
 321              		.thumb_func
 322              		.fpu fpv4-sp-d16
 323              		.type	app_disable_output, %function
 324              	app_disable_output:
 325              	.LFB259:
 326              		.loc 1 159 0
 327              		.cfi_startproc
 328              		@ args = 0, pretend = 0, frame = 0
 329              		@ frame_needed = 0, uses_anonymous_args = 0
 330              	.LVL35:
 331              		.loc 1 160 0
 332 0000 194B     		ldr	r3, .L47
 333 0002 1A78     		ldrb	r2, [r3]	@ zero_extendqisi2
 334              		.loc 1 159 0
 335 0004 10B5     		push	{r4, lr}
 336              		.cfi_def_cfa_offset 8
 337              		.cfi_offset 4, -8
 338              		.cfi_offset 14, -4
 339              		.loc 1 160 0
 340 0006 1AB9     		cbnz	r2, .L32
 341              	.LVL36:
 342              	.LBB97:
ARM GAS  /tmp/ccQ6D5ZL.s 			page 7


 343              	.LBB98:
 344              		.file 2 "ChibiOS_3.0.2/os/rt/include/chvt.h"
 345              		.loc 2 212 0
 346 0008 184C     		ldr	r4, .L47+4
 347              	.LBE98:
 348              	.LBE97:
 349              		.loc 1 162 0
 350 000a 0121     		movs	r1, #1
 351              	.LBB100:
 352              	.LBB99:
 353              		.loc 2 212 0
 354 000c E260     		str	r2, [r4, #12]
 355              	.LBE99:
 356              	.LBE100:
 357              		.loc 1 162 0
 358 000e 1970     		strb	r1, [r3]
 359              	.LVL37:
 360              	.L32:
 361              		.loc 1 165 0
 362 0010 38B3     		cbz	r0, .L46
 363              		.loc 1 167 0
 364 0012 431C     		adds	r3, r0, #1
 365 0014 0AD1     		bne	.L35
 366              		.loc 1 168 0
 367 0016 164B     		ldr	r3, .L47+8
 368 0018 0122     		movs	r2, #1
 369 001a 1A70     		strb	r2, [r3]
 370              	.LVL38:
 371              	.LBB101:
 372              	.LBB102:
 373              	.LBB103:
 374              	.LBB104:
 375              	.LBB105:
 376              		.file 3 "ChibiOS_3.0.2/os/ext/CMSIS/include/core_cmFunc.h"
 377              		.loc 3 342 0
 378              		.syntax unified
 379              	@ 342 "ChibiOS_3.0.2/os/ext/CMSIS/include/core_cmFunc.h" 1
 380 001c 72B6     		cpsid i
 381              	@ 0 "" 2
 382              	.LVL39:
 383              		.thumb
 384              		.syntax unified
 385              	.LBE105:
 386              	.LBE104:
 387              	.LBE103:
 388              	.LBE102:
 389              	.LBB106:
 390              	.LBB107:
 391              		.loc 2 376 0
 392 001e 1348     		ldr	r0, .L47+4
 393              	.LVL40:
 394 0020 C368     		ldr	r3, [r0, #12]
 395 0022 0BB1     		cbz	r3, .L45
 396              		.loc 2 377 0
 397 0024 FFF7FEFF 		bl	chVTDoResetI
 398              	.LVL41:
 399              	.L45:
ARM GAS  /tmp/ccQ6D5ZL.s 			page 8


 400              	.LBE107:
 401              	.LBE106:
 402              	.LBE101:
 403              	.LBB108:
 404              	.LBB109:
 405              	.LBB110:
 406              	.LBB111:
 407              	.LBB112:
 408              	.LBB113:
 409              		.loc 3 331 0
 410              		.syntax unified
 411              	@ 331 "ChibiOS_3.0.2/os/ext/CMSIS/include/core_cmFunc.h" 1
 412 0028 62B6     		cpsie i
 413              	@ 0 "" 2
 414              	.LVL42:
 415              		.thumb
 416              		.syntax unified
 417              	.L31:
 418              	.LBE113:
 419              	.LBE112:
 420              	.LBE111:
 421              	.LBE110:
 422              	.LBE109:
 423              	.LBE108:
 424              		.loc 1 174 0
 425 002a 10BD     		pop	{r4, pc}
 426              	.LVL43:
 427              	.L35:
 428              		.loc 1 172 0
 429 002c 42F21074 		movw	r4, #10000
 430 0030 04FB00F0 		mul	r0, r4, r0
 431              	.LVL44:
 432 0034 0F49     		ldr	r1, .L47+12
 433              		.loc 1 171 0
 434 0036 0E4B     		ldr	r3, .L47+8
 435              	.LVL45:
 436              		.loc 1 172 0
 437 0038 00F2E734 		addw	r4, r0, #999
 438 003c A1FB0424 		umull	r2, r4, r1, r4
 439              		.loc 1 171 0
 440 0040 0122     		movs	r2, #1
 441              		.loc 1 172 0
 442 0042 A409     		lsrs	r4, r4, #6
 443              	.LVL46:
 444              		.loc 1 171 0
 445 0044 1A70     		strb	r2, [r3]
 446              	.LBB127:
 447              	.LBB118:
 448              	.LBB119:
 449              	.LBB120:
 450              	.LBB121:
 451              		.loc 3 342 0
 452              		.syntax unified
 453              	@ 342 "ChibiOS_3.0.2/os/ext/CMSIS/include/core_cmFunc.h" 1
 454 0046 72B6     		cpsid i
 455              	@ 0 "" 2
 456              	.LVL47:
ARM GAS  /tmp/ccQ6D5ZL.s 			page 9


 457              		.thumb
 458              		.syntax unified
 459              	.LBE121:
 460              	.LBE120:
 461              	.LBE119:
 462              	.LBE118:
 463              	.LBB122:
 464              	.LBB123:
 465              	.LBB124:
 466              	.LBB125:
 467              		.loc 2 376 0
 468 0048 0848     		ldr	r0, .L47+4
 469 004a C368     		ldr	r3, [r0, #12]
 470 004c 0BB1     		cbz	r3, .L37
 471              		.loc 2 377 0
 472 004e FFF7FEFF 		bl	chVTDoResetI
 473              	.LVL48:
 474              	.L37:
 475              	.LBE125:
 476              	.LBE124:
 477              		.loc 2 424 0
 478 0052 2146     		mov	r1, r4
 479 0054 0023     		movs	r3, #0
 480 0056 084A     		ldr	r2, .L47+16
 481 0058 0448     		ldr	r0, .L47+4
 482 005a FFF7FEFF 		bl	chVTDoSetI
 483              	.LVL49:
 484              	.LBE123:
 485              	.LBE122:
 486              	.LBB126:
 487              	.LBB117:
 488              	.LBB116:
 489              	.LBB115:
 490              	.LBB114:
 491              		.loc 3 331 0
 492              		.syntax unified
 493              	@ 331 "ChibiOS_3.0.2/os/ext/CMSIS/include/core_cmFunc.h" 1
 494 005e 62B6     		cpsie i
 495              	@ 0 "" 2
 496              		.thumb
 497              		.syntax unified
 498 0060 E3E7     		b	.L31
 499              	.LVL50:
 500              	.L46:
 501              	.LBE114:
 502              	.LBE115:
 503              	.LBE116:
 504              	.LBE117:
 505              	.LBE126:
 506              	.LBE127:
 507              		.loc 1 166 0
 508 0062 034B     		ldr	r3, .L47+8
 509 0064 1870     		strb	r0, [r3]
 510              		.loc 1 174 0
 511 0066 10BD     		pop	{r4, pc}
 512              	.L48:
 513              		.align	2
ARM GAS  /tmp/ccQ6D5ZL.s 			page 10


 514              	.L47:
 515 0068 00000000 		.word	.LANCHOR3
 516 006c 00000000 		.word	.LANCHOR4
 517 0070 00000000 		.word	.LANCHOR0
 518 0074 D34D6210 		.word	274877907
 519 0078 00000000 		.word	output_vt_cb
 520              		.cfi_endproc
 521              	.LFE259:
 522              		.size	app_disable_output, .-app_disable_output
 523              		.section	.text.app_is_output_disabled,"ax",%progbits
 524              		.align	1
 525              		.p2align 4,,15
 526              		.global	app_is_output_disabled
 527              		.syntax unified
 528              		.thumb
 529              		.thumb_func
 530              		.fpu fpv4-sp-d16
 531              		.type	app_is_output_disabled, %function
 532              	app_is_output_disabled:
 533              	.LFB260:
 534              		.loc 1 176 0
 535              		.cfi_startproc
 536              		@ args = 0, pretend = 0, frame = 0
 537              		@ frame_needed = 0, uses_anonymous_args = 0
 538              		@ link register save eliminated.
 539              		.loc 1 177 0
 540 0000 014B     		ldr	r3, .L50
 541 0002 1878     		ldrb	r0, [r3]	@ zero_extendqisi2
 542              		.loc 1 178 0
 543 0004 7047     		bx	lr
 544              	.L51:
 545 0006 00BF     		.align	2
 546              	.L50:
 547 0008 00000000 		.word	.LANCHOR0
 548              		.cfi_endproc
 549              	.LFE260:
 550              		.size	app_is_output_disabled, .-app_is_output_disabled
 551              		.section	.bss.appconf,"aw",%nobits
 552              		.align	2
 553              		.set	.LANCHOR1,. + 0
 554              		.type	appconf, %object
 555              		.size	appconf, 376
 556              	appconf:
 557 0000 00000000 		.space	376
 557      00000000 
 557      00000000 
 557      00000000 
 557      00000000 
 558              		.section	.bss.customconf,"aw",%nobits
 559              		.align	2
 560              		.set	.LANCHOR2,. + 0
 561              		.type	customconf, %object
 562              		.size	customconf, 4
 563              	customconf:
 564 0000 00000000 		.space	4
 565              		.section	.bss.output_disabled_now,"aw",%nobits
 566              		.set	.LANCHOR0,. + 0
ARM GAS  /tmp/ccQ6D5ZL.s 			page 11


 567              		.type	output_disabled_now, %object
 568              		.size	output_disabled_now, 1
 569              	output_disabled_now:
 570 0000 00       		.space	1
 571              		.section	.bss.output_vt,"aw",%nobits
 572              		.align	2
 573              		.set	.LANCHOR4,. + 0
 574              		.type	output_vt, %object
 575              		.size	output_vt, 20
 576              	output_vt:
 577 0000 00000000 		.space	20
 577      00000000 
 577      00000000 
 577      00000000 
 577      00000000 
 578              		.section	.bss.output_vt_init_done,"aw",%nobits
 579              		.set	.LANCHOR3,. + 0
 580              		.type	output_vt_init_done, %object
 581              		.size	output_vt_init_done, 1
 582              	output_vt_init_done:
 583 0000 00       		.space	1
 584              		.text
 585              	.Letext0:
 586              		.file 4 "/usr/arm-none-eabi/include/machine/_default_types.h"
 587              		.file 5 "/usr/arm-none-eabi/include/sys/_stdint.h"
 588              		.file 6 "/usr/lib/gcc/arm-none-eabi/7.3.1/include/stddef.h"
 589              		.file 7 "ChibiOS_3.0.2/os/rt/ports/ARMCMx/compilers/GCC/chtypes.h"
 590              		.file 8 "ChibiOS_3.0.2/os/rt/include/chsystypes.h"
 591              		.file 9 "ChibiOS_3.0.2/os/rt/include/chschd.h"
 592              		.file 10 "ChibiOS_3.0.2/os/ext/CMSIS/include/core_cm4.h"
 593              		.file 11 "ChibiOS_3.0.2/os/ext/CMSIS/ST/system_stm32f4xx.h"
 594              		.file 12 "ChibiOS_3.0.2/os/ext/CMSIS/ST/stm32f407xx.h"
 595              		.file 13 "ChibiOS_3.0.2/os/rt/ports/ARMCMx/chcore.h"
 596              		.file 14 "ChibiOS_3.0.2/os/rt/ports/ARMCMx/chcore_v7m.h"
 597              		.file 15 "ChibiOS_3.0.2/os/rt/include/chtm.h"
 598              		.file 16 "ChibiOS_3.0.2/os/rt/include/chsem.h"
 599              		.file 17 "ChibiOS_3.0.2/os/rt/include/chmtx.h"
 600              		.file 18 "ChibiOS_3.0.2/os/rt/include/chregistry.h"
 601              		.file 19 "ChibiOS_3.0.2/os/rt/include/chevents.h"
 602              		.file 20 "ChibiOS_3.0.2/os/rt/include/chqueues.h"
 603              		.file 21 "./datatypes.h"
 604              		.file 22 "./conf_general.h"
 605              		.file 23 "ChibiOS_3.0.2/os/hal/ports/STM32/STM32F4xx/stm32_dma.h"
 606              		.file 24 "ChibiOS_3.0.2/os/hal/ports/STM32/LLD/GPIOv2/pal_lld.h"
 607              		.file 25 "ChibiOS_3.0.2/os/hal/include/can.h"
 608              		.file 26 "ChibiOS_3.0.2/os/hal/ports/STM32/LLD/can_lld.h"
 609              		.file 27 "ChibiOS_3.0.2/os/hal/include/i2c.h"
 610              		.file 28 "ChibiOS_3.0.2/os/hal/ports/STM32/LLD/I2Cv1/i2c_lld.h"
 611              		.file 29 "ChibiOS_3.0.2/os/hal/include/icu.h"
 612              		.file 30 "ChibiOS_3.0.2/os/hal/ports/STM32/LLD/TIMv1/icu_lld.h"
 613              		.file 31 "ChibiOS_3.0.2/os/hal/ports/STM32/LLD/TIMv1/stm32_tim.h"
 614              		.file 32 "ChibiOS_3.0.2/os/hal/include/serial.h"
 615              		.file 33 "ChibiOS_3.0.2/os/hal/ports/STM32/LLD/USARTv1/serial_lld.h"
 616              		.file 34 "ChibiOS_3.0.2/os/hal/include/spi.h"
 617              		.file 35 "ChibiOS_3.0.2/os/hal/ports/STM32/LLD/SPIv1/spi_lld.h"
 618              		.file 36 "ChibiOS_3.0.2/os/hal/include/usb.h"
 619              		.file 37 "ChibiOS_3.0.2/os/hal/ports/STM32/LLD/OTGv1/usb_lld.h"
ARM GAS  /tmp/ccQ6D5ZL.s 			page 12


 620              		.file 38 "ChibiOS_3.0.2/os/hal/ports/STM32/LLD/OTGv1/stm32_otg.h"
 621              		.file 39 "ChibiOS_3.0.2/os/rt/include/chsys.h"
 622              		.file 40 "applications/app.h"
 623              		.file 41 "applications/app_spicontrol.h"
 624              		.file 42 "./comm_can.h"
 625              		.file 43 "imu/imu.h"
 626              		.file 44 "nrf/rfhelp.h"
 627              		.file 45 "nrf/nrf_driver.h"
 628              		.file 46 "hwconf/hw.h"
 629              		.file 47 "<built-in>"