ARM GAS  /tmp/ccuQ6dqG.s 			page 1


   1              		.cpu cortex-m4
   2              		.eabi_attribute 27, 1
   3              		.eabi_attribute 28, 1
   4              		.eabi_attribute 20, 1
   5              		.eabi_attribute 21, 1
   6              		.eabi_attribute 23, 3
   7              		.eabi_attribute 24, 1
   8              		.eabi_attribute 25, 1
   9              		.eabi_attribute 26, 1
  10              		.eabi_attribute 30, 2
  11              		.eabi_attribute 34, 1
  12              		.eabi_attribute 18, 4
  13              		.file	"app_spicontrol.c"
  14              		.text
  15              	.Ltext0:
  16              		.cfi_sections	.debug_frame
  17              		.section	.text.app_spicontrol_init,"ax",%progbits
  18              		.align	1
  19              		.p2align 4,,15
  20              		.global	app_spicontrol_init
  21              		.syntax unified
  22              		.thumb
  23              		.thumb_func
  24              		.fpu fpv4-sp-d16
  25              		.type	app_spicontrol_init, %function
  26              	app_spicontrol_init:
  27              	.LFB256:
  28              		.file 1 "applications/app_spicontrol.c"
  29              		.loc 1 27 0
  30              		.cfi_startproc
  31              		@ args = 0, pretend = 0, frame = 16
  32              		@ frame_needed = 0, uses_anonymous_args = 0
  33 0000 30B5     		push	{r4, r5, lr}
  34              		.cfi_def_cfa_offset 12
  35              		.cfi_offset 4, -12
  36              		.cfi_offset 5, -8
  37              		.cfi_offset 14, -4
  38              		.loc 1 33 0
  39 0002 224C     		ldr	r4, .L4
  40              		.loc 1 52 0
  41 0004 224D     		ldr	r5, .L4+4
  42              		.loc 1 27 0
  43 0006 87B0     		sub	sp, sp, #28
  44              		.cfi_def_cfa_offset 40
  45              		.loc 1 33 0
  46 0008 2046     		mov	r0, r4
  47 000a 0022     		movs	r2, #0
  48 000c 4021     		movs	r1, #64
  49 000e FFF7FEFF 		bl	_pal_lld_setgroupmode
  50              	.LVL0:
  51              		.loc 1 34 0
  52 0012 2046     		mov	r0, r4
  53 0014 0122     		movs	r2, #1
  54 0016 8021     		movs	r1, #128
  55 0018 FFF7FEFF 		bl	_pal_lld_setgroupmode
  56              	.LVL1:
  57              		.loc 1 35 0
ARM GAS  /tmp/ccuQ6dqG.s 			page 2


  58 001c 2046     		mov	r0, r4
  59 001e 1922     		movs	r2, #25
  60 0020 2021     		movs	r1, #32
  61 0022 FFF7FEFF 		bl	_pal_lld_setgroupmode
  62              	.LVL2:
  63              		.loc 1 36 0
  64 0026 2046     		mov	r0, r4
  65 0028 1922     		movs	r2, #25
  66 002a 1021     		movs	r1, #16
  67 002c FFF7FEFF 		bl	_pal_lld_setgroupmode
  68              	.LVL3:
  69              		.loc 1 40 0
  70 0030 2022     		movs	r2, #32
  71              		.loc 1 41 0
  72 0032 8023     		movs	r3, #128
  73              		.loc 1 39 0
  74 0034 1021     		movs	r1, #16
  75 0036 6183     		strh	r1, [r4, #26]	@ movhi
  76              		.loc 1 44 0
  77 0038 0220     		movs	r0, #2
  78              		.loc 1 40 0
  79 003a 6283     		strh	r2, [r4, #26]	@ movhi
  80              		.loc 1 44 0
  81 003c 0121     		movs	r1, #1
  82              		.loc 1 41 0
  83 003e 6383     		strh	r3, [r4, #26]	@ movhi
  84              		.loc 1 44 0
  85 0040 FFF7FEFF 		bl	RCC_APB1PeriphClockCmd
  86              	.LVL4:
  87              		.loc 1 47 0
  88 0044 0024     		movs	r4, #0
  89              		.loc 1 48 0
  90 0046 40F2A313 		movw	r3, #419
  91              		.loc 1 52 0
  92 004a 2846     		mov	r0, r5
  93 004c 03A9     		add	r1, sp, #12
  94              		.loc 1 48 0
  95 004e 0493     		str	r3, [sp, #16]
  96              		.loc 1 47 0
  97 0050 0394     		str	r4, [sp, #12]
  98              		.loc 1 49 0
  99 0052 ADF81440 		strh	r4, [sp, #20]	@ movhi
 100              		.loc 1 50 0
 101 0056 8DF81640 		strb	r4, [sp, #22]
 102              		.loc 1 52 0
 103 005a FFF7FEFF 		bl	TIM_TimeBaseInit
 104              	.LVL5:
 105              		.loc 1 53 0
 106 005e 0122     		movs	r2, #1
 107 0060 1146     		mov	r1, r2
 108 0062 2846     		mov	r0, r5
 109 0064 FFF7FEFF 		bl	TIM_ITConfig
 110              	.LVL6:
 111              		.loc 1 54 0
 112 0068 2846     		mov	r0, r5
 113 006a 0121     		movs	r1, #1
 114 006c FFF7FEFF 		bl	TIM_Cmd
ARM GAS  /tmp/ccuQ6dqG.s 			page 3


 115              	.LVL7:
 116              		.loc 1 57 0
 117 0070 0621     		movs	r1, #6
 118 0072 1D20     		movs	r0, #29
 119 0074 FFF7FEFF 		bl	nvicEnableVector
 120              	.LVL8:
 121              		.loc 1 60 0
 122 0078 0094     		str	r4, [sp]
 123 007a 064B     		ldr	r3, .L4+8
 124 007c 0648     		ldr	r0, .L4+12
 125 007e 4022     		movs	r2, #64
 126 0080 40F69811 		movw	r1, #2456
 127 0084 FFF7FEFF 		bl	chThdCreateStatic
 128              	.LVL9:
 129              		.loc 1 62 0
 130 0088 07B0     		add	sp, sp, #28
 131              		.cfi_def_cfa_offset 12
 132              		@ sp needed
 133 008a 30BD     		pop	{r4, r5, pc}
 134              	.L5:
 135              		.align	2
 136              	.L4:
 137 008c 00000240 		.word	1073872896
 138 0090 00040040 		.word	1073742848
 139 0094 00000000 		.word	example_thread
 140 0098 00000000 		.word	.LANCHOR0
 141              		.cfi_endproc
 142              	.LFE256:
 143              		.size	app_spicontrol_init, .-app_spicontrol_init
 144              		.section	.text.daten_to_spi,"ax",%progbits
 145              		.align	1
 146              		.p2align 4,,15
 147              		.global	daten_to_spi
 148              		.syntax unified
 149              		.thumb
 150              		.thumb_func
 151              		.fpu fpv4-sp-d16
 152              		.type	daten_to_spi, %function
 153              	daten_to_spi:
 154              	.LFB257:
 155              		.loc 1 67 0
 156              		.cfi_startproc
 157              		@ args = 0, pretend = 0, frame = 0
 158              		@ frame_needed = 0, uses_anonymous_args = 0
 159              		@ link register save eliminated.
 160              	.LVL10:
 161 0000 054B     		ldr	r3, .L7
 162              		.loc 1 72 0
 163 0002 064A     		ldr	r2, .L7+4
 164 0004 9842     		cmp	r0, r3
 165 0006 B8BF     		it	lt
 166 0008 1846     		movlt	r0, r3
 167              	.LVL11:
 168              		.loc 1 70 0
 169 000a 00F6FF70 		addw	r0, r0, #4095
 170              	.LVL12:
 171              		.loc 1 72 0
ARM GAS  /tmp/ccuQ6dqG.s 			page 4


 172 000e 42EA8000 		orr	r0, r2, r0, lsl #2
 173              	.LVL13:
 174              		.loc 1 79 0
 175 0012 40EAC130 		orr	r0, r0, r1, lsl #15
 176 0016 7047     		bx	lr
 177              	.L8:
 178              		.align	2
 179              	.L7:
 180 0018 01F0FFFF 		.word	-4095
 181 001c 02000400 		.word	262146
 182              		.cfi_endproc
 183              	.LFE257:
 184              		.size	daten_to_spi, .-daten_to_spi
 185              		.section	.text.spicontrol_get_val,"ax",%progbits
 186              		.align	1
 187              		.p2align 4,,15
 188              		.global	spicontrol_get_val
 189              		.syntax unified
 190              		.thumb
 191              		.thumb_func
 192              		.fpu fpv4-sp-d16
 193              		.type	spicontrol_get_val, %function
 194              	spicontrol_get_val:
 195              	.LFB259:
 196              		.loc 1 100 0
 197              		.cfi_startproc
 198              		@ args = 0, pretend = 0, frame = 0
 199              		@ frame_needed = 0, uses_anonymous_args = 0
 200              		@ link register save eliminated.
 201              		.loc 1 101 0
 202 0000 014B     		ldr	r3, .L10
 203              		.loc 1 102 0
 204 0002 1868     		ldr	r0, [r3]
 205 0004 7047     		bx	lr
 206              	.L11:
 207 0006 00BF     		.align	2
 208              	.L10:
 209 0008 00000000 		.word	.LANCHOR1
 210              		.cfi_endproc
 211              	.LFE259:
 212              		.size	spicontrol_get_val, .-spicontrol_get_val
 213              		.section	.text.spicontrol_transfer,"ax",%progbits
 214              		.align	1
 215              		.p2align 4,,15
 216              		.global	spicontrol_transfer
 217              		.syntax unified
 218              		.thumb
 219              		.thumb_func
 220              		.fpu fpv4-sp-d16
 221              		.type	spicontrol_transfer, %function
 222              	spicontrol_transfer:
 223              	.LFB260:
 224              		.loc 1 105 0
 225              		.cfi_startproc
 226              		@ args = 0, pretend = 0, frame = 0
 227              		@ frame_needed = 0, uses_anonymous_args = 0
 228              	.LVL14:
ARM GAS  /tmp/ccuQ6dqG.s 			page 5


 229              	.LBB53:
 230              		.loc 1 106 0
 231 0000 002A     		cmp	r2, #0
 232 0002 3FDD     		ble	.L31
 233              	.LBE53:
 234              		.loc 1 105 0
 235 0004 2DE9F043 		push	{r4, r5, r6, r7, r8, r9, lr}
 236              		.cfi_def_cfa_offset 28
 237              		.cfi_offset 4, -28
 238              		.cfi_offset 5, -24
 239              		.cfi_offset 6, -20
 240              		.cfi_offset 7, -16
 241              		.cfi_offset 8, -12
 242              		.cfi_offset 9, -8
 243              		.cfi_offset 14, -4
 244              	.LBB87:
 245              	.LBB54:
 246              	.LBB55:
 247              		.loc 1 111 0
 248 0008 1F4D     		ldr	r5, .L34
 249              	.LBE55:
 250              	.LBE54:
 251              		.loc 1 106 0
 252 000a 4FF0000E 		mov	lr, #0
 253              	.LBB85:
 254              	.LBB83:
 255              		.loc 1 115 0
 256 000e 4FF02008 		mov	r8, #32
 257              	.LVL15:
 258              	.L19:
 259              	.LBE83:
 260              		.loc 1 107 0
 261 0012 0029     		cmp	r1, #0
 262 0014 34D0     		beq	.L20
 263              		.loc 1 107 0 is_stmt 0 discriminator 1
 264 0016 51F82E40 		ldr	r4, [r1, lr, lsl #2]
 265              	.L14:
 266              		.loc 1 107 0
 267 001a 1427     		movs	r7, #20
 268 001c 0026     		movs	r6, #0
 269              	.LBB84:
 270              		.loc 1 115 0 is_stmt 1
 271 001e C446     		mov	ip, r8	@ movhi
 272              	.L17:
 273              	.LVL16:
 274              		.loc 1 111 0
 275 0020 14F4002F 		tst	r4, #524288
 276 0024 4FEA1433 		lsr	r3, r4, #12
 277 0028 14BF     		ite	ne
 278 002a 4FF00009 		movne	r9, #0
 279 002e 4FF40009 		moveq	r9, #8388608
 280 0032 03F08003 		and	r3, r3, #128
 281 0036 43EA0903 		orr	r3, r3, r9
 282 003a AB61     		str	r3, [r5, #24]
 283              		.loc 1 112 0
 284 003c 6400     		lsls	r4, r4, #1
 285              	.LVL17:
ARM GAS  /tmp/ccuQ6dqG.s 			page 6


 286              	.LBB56:
 287              	.LBB57:
 288              	.LBB58:
 289              		.file 2 "ChibiOS_3.0.2/os/ext/CMSIS/include/core_cmInstr.h"
 290              		.loc 2 327 0
 291              		.syntax unified
 292              	@ 327 "ChibiOS_3.0.2/os/ext/CMSIS/include/core_cmInstr.h" 1
 293 003e 00BF     		nop
 294              	@ 0 "" 2
 295              		.thumb
 296              		.syntax unified
 297              	.LBE58:
 298              	.LBE57:
 299              	.LBB59:
 300              	.LBB60:
 301              		.syntax unified
 302              	@ 327 "ChibiOS_3.0.2/os/ext/CMSIS/include/core_cmInstr.h" 1
 303 0040 00BF     		nop
 304              	@ 0 "" 2
 305              		.thumb
 306              		.syntax unified
 307              	.LBE60:
 308              	.LBE59:
 309              	.LBB61:
 310              	.LBB62:
 311              		.syntax unified
 312              	@ 327 "ChibiOS_3.0.2/os/ext/CMSIS/include/core_cmInstr.h" 1
 313 0042 00BF     		nop
 314              	@ 0 "" 2
 315              		.thumb
 316              		.syntax unified
 317              	.LBE62:
 318              	.LBE61:
 319              	.LBB63:
 320              	.LBB64:
 321              		.syntax unified
 322              	@ 327 "ChibiOS_3.0.2/os/ext/CMSIS/include/core_cmInstr.h" 1
 323 0044 00BF     		nop
 324              	@ 0 "" 2
 325              		.thumb
 326              		.syntax unified
 327              	.LBE64:
 328              	.LBE63:
 329              	.LBE56:
 330              		.loc 1 115 0
 331 0046 A5F818C0 		strh	ip, [r5, #24]	@ movhi
 332              	.LBB65:
 333              	.LBB66:
 334              	.LBB67:
 335              		.loc 2 327 0
 336              		.syntax unified
 337              	@ 327 "ChibiOS_3.0.2/os/ext/CMSIS/include/core_cmInstr.h" 1
 338 004a 00BF     		nop
 339              	@ 0 "" 2
 340              		.thumb
 341              		.syntax unified
 342              	.LBE67:
ARM GAS  /tmp/ccuQ6dqG.s 			page 7


 343              	.LBE66:
 344              	.LBB68:
 345              	.LBB69:
 346              		.syntax unified
 347              	@ 327 "ChibiOS_3.0.2/os/ext/CMSIS/include/core_cmInstr.h" 1
 348 004c 00BF     		nop
 349              	@ 0 "" 2
 350              		.thumb
 351              		.syntax unified
 352              	.LBE69:
 353              	.LBE68:
 354              	.LBB70:
 355              	.LBB71:
 356              		.syntax unified
 357              	@ 327 "ChibiOS_3.0.2/os/ext/CMSIS/include/core_cmInstr.h" 1
 358 004e 00BF     		nop
 359              	@ 0 "" 2
 360              		.thumb
 361              		.syntax unified
 362              	.LBE71:
 363              	.LBE70:
 364              	.LBB72:
 365              	.LBB73:
 366              		.syntax unified
 367              	@ 327 "ChibiOS_3.0.2/os/ext/CMSIS/include/core_cmInstr.h" 1
 368 0050 00BF     		nop
 369              	@ 0 "" 2
 370              		.thumb
 371              		.syntax unified
 372              	.LBE73:
 373              	.LBE72:
 374              	.LBE65:
 375              		.loc 1 119 0
 376 0052 2B69     		ldr	r3, [r5, #16]
 377              		.loc 1 123 0
 378 0054 A5F81AC0 		strh	ip, [r5, #26]	@ movhi
 379              		.loc 1 118 0
 380 0058 7600     		lsls	r6, r6, #1
 381              	.LVL18:
 382              		.loc 1 119 0
 383 005a 5B06     		lsls	r3, r3, #25
 384              		.loc 1 120 0
 385 005c 48BF     		it	mi
 386 005e 46F00106 		orrmi	r6, r6, #1
 387              	.LVL19:
 388              	.LBB74:
 389              	.LBB75:
 390              	.LBB76:
 391              		.loc 2 327 0
 392              		.syntax unified
 393              	@ 327 "ChibiOS_3.0.2/os/ext/CMSIS/include/core_cmInstr.h" 1
 394 0062 00BF     		nop
 395              	@ 0 "" 2
 396              		.thumb
 397              		.syntax unified
 398              	.LBE76:
 399              	.LBE75:
ARM GAS  /tmp/ccuQ6dqG.s 			page 8


 400              	.LBB77:
 401              	.LBB78:
 402              		.syntax unified
 403              	@ 327 "ChibiOS_3.0.2/os/ext/CMSIS/include/core_cmInstr.h" 1
 404 0064 00BF     		nop
 405              	@ 0 "" 2
 406              		.thumb
 407              		.syntax unified
 408              	.LBE78:
 409              	.LBE77:
 410              	.LBB79:
 411              	.LBB80:
 412              		.syntax unified
 413              	@ 327 "ChibiOS_3.0.2/os/ext/CMSIS/include/core_cmInstr.h" 1
 414 0066 00BF     		nop
 415              	@ 0 "" 2
 416              		.thumb
 417              		.syntax unified
 418              	.LBE80:
 419              	.LBE79:
 420              	.LBB81:
 421              	.LBB82:
 422              		.syntax unified
 423              	@ 327 "ChibiOS_3.0.2/os/ext/CMSIS/include/core_cmInstr.h" 1
 424 0068 00BF     		nop
 425              	@ 0 "" 2
 426              	.LVL20:
 427              		.thumb
 428              		.syntax unified
 429              	.LBE82:
 430              	.LBE81:
 431              	.LBE74:
 432              		.loc 1 110 0
 433 006a 013F     		subs	r7, r7, #1
 434              	.LVL21:
 435 006c D8D1     		bne	.L17
 436              	.LBE84:
 437              		.loc 1 127 0
 438 006e 08B1     		cbz	r0, .L18
 439              		.loc 1 128 0
 440 0070 40F82E60 		str	r6, [r0, lr, lsl #2]
 441              	.L18:
 442              	.LBE85:
 443              		.loc 1 106 0 discriminator 2
 444 0074 0EF1010E 		add	lr, lr, #1
 445              	.LVL22:
 446 0078 7245     		cmp	r2, lr
 447 007a CAD1     		bne	.L19
 448              	.LBE87:
 449              		.loc 1 131 0
 450 007c BDE8F083 		pop	{r4, r5, r6, r7, r8, r9, pc}
 451              	.LVL23:
 452              	.L20:
 453              	.LBB88:
 454              	.LBB86:
 455              		.loc 1 107 0
 456 0080 024C     		ldr	r4, .L34+4
ARM GAS  /tmp/ccuQ6dqG.s 			page 9


 457 0082 CAE7     		b	.L14
 458              	.LVL24:
 459              	.L31:
 460              		.cfi_def_cfa_offset 0
 461              		.cfi_restore 4
 462              		.cfi_restore 5
 463              		.cfi_restore 6
 464              		.cfi_restore 7
 465              		.cfi_restore 8
 466              		.cfi_restore 9
 467              		.cfi_restore 14
 468 0084 7047     		bx	lr
 469              	.L35:
 470 0086 00BF     		.align	2
 471              	.L34:
 472 0088 00000240 		.word	1073872896
 473 008c FFFF0F00 		.word	1048575
 474              	.LBE86:
 475              	.LBE88:
 476              		.cfi_endproc
 477              	.LFE260:
 478              		.size	spicontrol_transfer, .-spicontrol_transfer
 479              		.section	.text.spicontrol_tim_isr,"ax",%progbits
 480              		.align	1
 481              		.p2align 4,,15
 482              		.global	spicontrol_tim_isr
 483              		.syntax unified
 484              		.thumb
 485              		.thumb_func
 486              		.fpu fpv4-sp-d16
 487              		.type	spicontrol_tim_isr, %function
 488              	spicontrol_tim_isr:
 489              	.LFB258:
 490              		.loc 1 83 0
 491              		.cfi_startproc
 492              		@ args = 0, pretend = 0, frame = 8
 493              		@ frame_needed = 0, uses_anonymous_args = 0
 494 0000 30B5     		push	{r4, r5, lr}
 495              		.cfi_def_cfa_offset 12
 496              		.cfi_offset 4, -12
 497              		.cfi_offset 5, -8
 498              		.cfi_offset 14, -4
 499 0002 83B0     		sub	sp, sp, #12
 500              		.cfi_def_cfa_offset 24
 501              		.loc 1 84 0
 502 0004 02A8     		add	r0, sp, #8
 503              	.LBB89:
 504              	.LBB90:
 505              		.loc 1 135 0
 506 0006 084C     		ldr	r4, .L38
 507              	.LBE90:
 508              	.LBE89:
 509              		.loc 1 90 0
 510 0008 0849     		ldr	r1, .L38+4
 511              		.loc 1 84 0
 512 000a 0023     		movs	r3, #0
 513              	.LBB93:
ARM GAS  /tmp/ccuQ6dqG.s 			page 10


 514              	.LBB91:
 515              		.loc 1 135 0
 516 000c 1025     		movs	r5, #16
 517              	.LBE91:
 518              	.LBE93:
 519              		.loc 1 84 0
 520 000e 40F8043D 		str	r3, [r0, #-4]!
 521              		.loc 1 90 0
 522 0012 0122     		movs	r2, #1
 523              	.LBB94:
 524              	.LBB92:
 525              		.loc 1 135 0
 526 0014 6583     		strh	r5, [r4, #26]	@ movhi
 527              	.LBE92:
 528              	.LBE94:
 529              		.loc 1 90 0
 530 0016 FFF7FEFF 		bl	spicontrol_transfer
 531              	.LVL25:
 532              	.LBB95:
 533              	.LBB96:
 534              		.loc 1 140 0
 535 001a 2583     		strh	r5, [r4, #24]	@ movhi
 536              	.LBE96:
 537              	.LBE95:
 538              		.loc 1 96 0
 539 001c 044B     		ldr	r3, .L38+8
 540 001e 019A     		ldr	r2, [sp, #4]
 541 0020 1A60     		str	r2, [r3]
 542              		.loc 1 97 0
 543 0022 03B0     		add	sp, sp, #12
 544              		.cfi_def_cfa_offset 12
 545              		@ sp needed
 546 0024 30BD     		pop	{r4, r5, pc}
 547              	.L39:
 548 0026 00BF     		.align	2
 549              	.L38:
 550 0028 00000240 		.word	1073872896
 551 002c 00000000 		.word	.LANCHOR2
 552 0030 00000000 		.word	.LANCHOR1
 553              		.cfi_endproc
 554              	.LFE258:
 555              		.size	spicontrol_tim_isr, .-spicontrol_tim_isr
 556              		.section	.text.spicontrol_begin,"ax",%progbits
 557              		.align	1
 558              		.p2align 4,,15
 559              		.global	spicontrol_begin
 560              		.syntax unified
 561              		.thumb
 562              		.thumb_func
 563              		.fpu fpv4-sp-d16
 564              		.type	spicontrol_begin, %function
 565              	spicontrol_begin:
 566              	.LFB261:
 567              		.loc 1 134 0
 568              		.cfi_startproc
 569              		@ args = 0, pretend = 0, frame = 0
 570              		@ frame_needed = 0, uses_anonymous_args = 0
ARM GAS  /tmp/ccuQ6dqG.s 			page 11


 571              		@ link register save eliminated.
 572              		.loc 1 135 0
 573 0000 014B     		ldr	r3, .L41
 574 0002 1022     		movs	r2, #16
 575 0004 5A83     		strh	r2, [r3, #26]	@ movhi
 576              		.loc 1 136 0
 577 0006 7047     		bx	lr
 578              	.L42:
 579              		.align	2
 580              	.L41:
 581 0008 00000240 		.word	1073872896
 582              		.cfi_endproc
 583              	.LFE261:
 584              		.size	spicontrol_begin, .-spicontrol_begin
 585              		.section	.text.spicontrol_end,"ax",%progbits
 586              		.align	1
 587              		.p2align 4,,15
 588              		.global	spicontrol_end
 589              		.syntax unified
 590              		.thumb
 591              		.thumb_func
 592              		.fpu fpv4-sp-d16
 593              		.type	spicontrol_end, %function
 594              	spicontrol_end:
 595              	.LFB262:
 596              		.loc 1 139 0
 597              		.cfi_startproc
 598              		@ args = 0, pretend = 0, frame = 0
 599              		@ frame_needed = 0, uses_anonymous_args = 0
 600              		@ link register save eliminated.
 601              		.loc 1 140 0
 602 0000 014B     		ldr	r3, .L44
 603 0002 1022     		movs	r2, #16
 604 0004 1A83     		strh	r2, [r3, #24]	@ movhi
 605              		.loc 1 141 0
 606 0006 7047     		bx	lr
 607              	.L45:
 608              		.align	2
 609              	.L44:
 610 0008 00000240 		.word	1073872896
 611              		.cfi_endproc
 612              	.LFE262:
 613              		.size	spicontrol_end, .-spicontrol_end
 614              		.section	.text.spicontrol_delay,"ax",%progbits
 615              		.align	1
 616              		.p2align 4,,15
 617              		.global	spicontrol_delay
 618              		.syntax unified
 619              		.thumb
 620              		.thumb_func
 621              		.fpu fpv4-sp-d16
 622              		.type	spicontrol_delay, %function
 623              	spicontrol_delay:
 624              	.LFB263:
 625              		.loc 1 144 0
 626              		.cfi_startproc
 627              		@ args = 0, pretend = 0, frame = 0
ARM GAS  /tmp/ccuQ6dqG.s 			page 12


 628              		@ frame_needed = 0, uses_anonymous_args = 0
 629              		@ link register save eliminated.
 630              	.LBB97:
 631              	.LBB98:
 632              		.loc 2 327 0
 633              		.syntax unified
 634              	@ 327 "ChibiOS_3.0.2/os/ext/CMSIS/include/core_cmInstr.h" 1
 635 0000 00BF     		nop
 636              	@ 0 "" 2
 637              		.thumb
 638              		.syntax unified
 639              	.LBE98:
 640              	.LBE97:
 641              	.LBB99:
 642              	.LBB100:
 643              		.syntax unified
 644              	@ 327 "ChibiOS_3.0.2/os/ext/CMSIS/include/core_cmInstr.h" 1
 645 0002 00BF     		nop
 646              	@ 0 "" 2
 647              		.thumb
 648              		.syntax unified
 649              	.LBE100:
 650              	.LBE99:
 651              	.LBB101:
 652              	.LBB102:
 653              		.syntax unified
 654              	@ 327 "ChibiOS_3.0.2/os/ext/CMSIS/include/core_cmInstr.h" 1
 655 0004 00BF     		nop
 656              	@ 0 "" 2
 657              		.thumb
 658              		.syntax unified
 659              	.LBE102:
 660              	.LBE101:
 661              	.LBB103:
 662              	.LBB104:
 663              		.syntax unified
 664              	@ 327 "ChibiOS_3.0.2/os/ext/CMSIS/include/core_cmInstr.h" 1
 665 0006 00BF     		nop
 666              	@ 0 "" 2
 667              		.thumb
 668              		.syntax unified
 669              	.LBE104:
 670              	.LBE103:
 671              		.loc 1 149 0
 672 0008 7047     		bx	lr
 673              		.cfi_endproc
 674              	.LFE263:
 675              		.size	spicontrol_delay, .-spicontrol_delay
 676 000a 00BF     		.section	.text.spi_to_data,"ax",%progbits
 677              		.align	1
 678              		.p2align 4,,15
 679              		.global	spi_to_data
 680              		.syntax unified
 681              		.thumb
 682              		.thumb_func
 683              		.fpu fpv4-sp-d16
 684              		.type	spi_to_data, %function
ARM GAS  /tmp/ccuQ6dqG.s 			page 13


 685              	spi_to_data:
 686              	.LFB264:
 687              		.loc 1 153 0
 688              		.cfi_startproc
 689              		@ args = 0, pretend = 0, frame = 0
 690              		@ frame_needed = 0, uses_anonymous_args = 0
 691              		@ link register save eliminated.
 692              	.LBB105:
 693              	.LBB106:
 694              		.loc 1 101 0
 695 0000 0F4B     		ldr	r3, .L56
 696 0002 1868     		ldr	r0, [r3]
 697              	.LBE106:
 698              	.LBE105:
 699              		.loc 1 156 0
 700 0004 0103     		lsls	r1, r0, #12
 701 0006 06D5     		bpl	.L48
 702              		.loc 1 157 0
 703 0008 00F00703 		and	r3, r0, #7
 704 000c 042B     		cmp	r3, #4
 705 000e 08D1     		bne	.L54
 706              	.LVL26:
 707              		.loc 1 159 0
 708 0010 C0F3CF00 		ubfx	r0, r0, #3, #16
 709              	.LVL27:
 710              		.loc 1 160 0
 711 0014 7047     		bx	lr
 712              	.LVL28:
 713              	.L48:
 714              		.loc 1 164 0
 715 0016 4203     		lsls	r2, r0, #13
 716 0018 06D5     		bpl	.L50
 717              		.loc 1 165 0
 718 001a 00F00303 		and	r3, r0, #3
 719 001e 022B     		cmp	r3, #2
 720 0020 0BD0     		beq	.L55
 721              	.L54:
 722              		.loc 1 182 0
 723 0022 4FF48050 		mov	r0, #4096
 724              		.loc 1 183 0
 725 0026 7047     		bx	lr
 726              	.L50:
 727              		.loc 1 172 0
 728 0028 8303     		lsls	r3, r0, #14
 729 002a FAD5     		bpl	.L54
 730              		.loc 1 173 0
 731 002c 054B     		ldr	r3, .L56+4
 732 002e 0340     		ands	r3, r3, r0
 733 0030 012B     		cmp	r3, #1
 734 0032 F6D1     		bne	.L54
 735              	.LVL29:
 736              		.loc 1 175 0
 737 0034 C0F34F00 		ubfx	r0, r0, #1, #16
 738              	.LVL30:
 739              		.loc 1 176 0
 740 0038 7047     		bx	lr
 741              	.LVL31:
ARM GAS  /tmp/ccuQ6dqG.s 			page 14


 742              	.L55:
 743              		.loc 1 167 0
 744 003a C0F38F00 		ubfx	r0, r0, #2, #16
 745              	.LVL32:
 746              		.loc 1 168 0
 747 003e 7047     		bx	lr
 748              	.L57:
 749              		.align	2
 750              	.L56:
 751 0040 00000000 		.word	.LANCHOR1
 752 0044 01000C00 		.word	786433
 753              		.cfi_endproc
 754              	.LFE264:
 755              		.size	spi_to_data, .-spi_to_data
 756              		.global	__aeabi_f2d
 757              		.section	.text.example_thread,"ax",%progbits
 758              		.align	1
 759              		.p2align 4,,15
 760              		.syntax unified
 761              		.thumb
 762              		.thumb_func
 763              		.fpu fpv4-sp-d16
 764              		.type	example_thread, %function
 765              	example_thread:
 766              	.LFB265:
 767              		.loc 1 186 0
 768              		.cfi_startproc
 769              		@ args = 0, pretend = 0, frame = 0
 770              		@ frame_needed = 0, uses_anonymous_args = 0
 771              	.LVL33:
 772 0000 2DE9F04D 		push	{r4, r5, r6, r7, r8, r10, fp, lr}
 773              		.cfi_def_cfa_offset 32
 774              		.cfi_offset 4, -32
 775              		.cfi_offset 5, -28
 776              		.cfi_offset 6, -24
 777              		.cfi_offset 7, -20
 778              		.cfi_offset 8, -16
 779              		.cfi_offset 10, -12
 780              		.cfi_offset 11, -8
 781              		.cfi_offset 14, -4
 782              	.LBB107:
 783              	.LBB108:
 784              		.file 3 "ChibiOS_3.0.2/os/rt/include/chregistry.h"
 785              		.loc 3 135 0
 786 0004 2E4B     		ldr	r3, .L66+8
 787 0006 2F4A     		ldr	r2, .L66+12
 788 0008 9B69     		ldr	r3, [r3, #24]
 789 000a 2F4F     		ldr	r7, .L66+16
 790 000c 2F4D     		ldr	r5, .L66+20
 791 000e 304E     		ldr	r6, .L66+24
 792              	.LBE108:
 793              	.LBE107:
 794              		.loc 1 205 0
 795 0010 DFF8D880 		ldr	r8, .L66+52
 796              		.loc 1 186 0
 797 0014 2DED028B 		vpush.64	{d8}
 798              		.cfi_def_cfa_offset 40
ARM GAS  /tmp/ccuQ6dqG.s 			page 15


 799              		.cfi_offset 80, -40
 800              		.cfi_offset 81, -36
 801              		.loc 1 231 0
 802 0018 0FF29C0B 		adr	fp, .L66
 803 001c DBE900AB 		ldrd	r10, [fp]
 804              		.loc 1 206 0
 805 0020 DFED2C8A 		vldr.32	s17, .L66+28
 806              	.LBB110:
 807              	.LBB109:
 808              		.loc 3 135 0
 809 0024 9A61     		str	r2, [r3, #24]
 810              	.LVL34:
 811 0026 1BE0     		b	.L62
 812              	.LVL35:
 813              	.L65:
 814              	.LBE109:
 815              	.LBE110:
 816              		.loc 1 211 0
 817 0028 C5E90043 		strd	r4, r3, [r5]
 818              		.loc 1 220 0
 819 002c FFF7FEFF 		bl	commands_printf
 820              	.LVL36:
 821              		.loc 1 221 0
 822 0030 B0EE480A 		vmov.f32	s0, s16
 823 0034 FFF7FEFF 		bl	mc_interface_set_current
 824              	.LVL37:
 825              	.L61:
 826              		.loc 1 234 0
 827 0038 274B     		ldr	r3, .L66+32
 828              		.loc 1 235 0
 829 003a 2848     		ldr	r0, .L66+36
 830              		.loc 1 234 0
 831 003c 3360     		str	r3, [r6]
 832              		.loc 1 235 0
 833 003e 1EA3     		adr	r3, .L66
 834 0040 D3E90023 		ldrd	r2, [r3]
 835              		.loc 1 231 0
 836 0044 C7E900AB 		strd	r10, [r7]
 837              		.loc 1 235 0
 838 0048 FFF7FEFF 		bl	commands_printf
 839              	.LVL38:
 840              		.loc 1 236 0
 841 004c 3168     		ldr	r1, [r6]
 842 004e 2448     		ldr	r0, .L66+40
 843 0050 FFF7FEFF 		bl	commands_printf
 844              	.LVL39:
 845              		.loc 1 239 0
 846 0054 4FF47A70 		mov	r0, #1000
 847 0058 FFF7FEFF 		bl	chThdSleep
 848              	.LVL40:
 849              		.loc 1 242 0
 850 005c FFF7FEFF 		bl	timeout_reset
 851              	.LVL41:
 852              	.L62:
 853              		.loc 1 200 0
 854 0060 FFF7FEFF 		bl	mcpwm_foc_get_tot_current
 855              	.LVL42:
ARM GAS  /tmp/ccuQ6dqG.s 			page 16


 856 0064 10EE100A 		vmov	r0, s0
 857 0068 FFF7FEFF 		bl	__aeabi_f2d
 858              	.LVL43:
 859 006c C7E90001 		strd	r0, [r7]
 860              		.loc 1 203 0
 861 0070 FFF7FEFF 		bl	spi_to_data
 862              	.LVL44:
 863              		.loc 1 204 0
 864 0074 B0F5805F 		cmp	r0, #4096
 865              		.loc 1 203 0
 866 0078 0446     		mov	r4, r0
 867              	.LVL45:
 868              		.loc 1 204 0
 869 007a 17D3     		bcc	.L64
 870              	.LVL46:
 871              	.L59:
 872              		.loc 1 206 0
 873 007c 07EE904A 		vmov	s15, r4	@ int
 874 0080 F8EE677A 		vcvt.f32.u32	s15, s15
 875 0084 87EEA88A 		vdiv.f32	s16, s15, s17
 876 0088 18EE100A 		vmov	r0, s16
 877 008c FFF7FEFF 		bl	__aeabi_f2d
 878              	.LVL47:
 879 0090 0246     		mov	r2, r0
 880 0092 0B46     		mov	r3, r1
 881 0094 1348     		ldr	r0, .L66+44
 882 0096 FFF7FEFF 		bl	commands_printf
 883              	.LVL48:
 884              		.loc 1 209 0
 885 009a 2A68     		ldr	r2, [r5]
 886              		.loc 1 220 0
 887 009c 1248     		ldr	r0, .L66+48
 888              		.loc 1 211 0
 889 009e 0123     		movs	r3, #1
 890              		.loc 1 209 0
 891 00a0 A242     		cmp	r2, r4
 892              		.loc 1 220 0
 893 00a2 1946     		mov	r1, r3
 894              		.loc 1 209 0
 895 00a4 C0D1     		bne	.L65
 896              		.loc 1 213 0
 897 00a6 0023     		movs	r3, #0
 898 00a8 6B60     		str	r3, [r5, #4]
 899 00aa C5E7     		b	.L61
 900              	.LVL49:
 901              	.L64:
 902              		.loc 1 205 0
 903 00ac 0146     		mov	r1, r0
 904 00ae 4046     		mov	r0, r8
 905              	.LVL50:
 906 00b0 FFF7FEFF 		bl	commands_printf
 907              	.LVL51:
 908 00b4 E2E7     		b	.L59
 909              	.L67:
 910 00b6 00BF     		.align	3
 911              	.L66:
 912 00b8 00000000 		.word	0
ARM GAS  /tmp/ccuQ6dqG.s 			page 17


 913 00bc 00408FC0 		.word	-1064353792
 914 00c0 00000000 		.word	ch
 915 00c4 00000000 		.word	.LC0
 916 00c8 00000000 		.word	.LANCHOR3
 917 00cc 00000000 		.word	.LANCHOR4
 918 00d0 00000000 		.word	.LANCHOR2
 919 00d4 00007A44 		.word	1148846080
 920 00d8 5EB00400 		.word	307294
 921 00dc 40000000 		.word	.LC4
 922 00e0 54000000 		.word	.LC5
 923 00e4 1C000000 		.word	.LC2
 924 00e8 30000000 		.word	.LC3
 925 00ec 0C000000 		.word	.LC1
 926              		.cfi_endproc
 927              	.LFE265:
 928              		.size	example_thread, .-example_thread
 929              		.global	pwm_current
 930              		.global	pwm_rpm
 931              		.global	merker
 932              		.global	testvalue
 933              		.global	spi_val
 934              		.section	.bss.example_thread_wa,"aw",%nobits
 935              		.align	3
 936              		.set	.LANCHOR0,. + 0
 937              		.type	example_thread_wa, %object
 938              		.size	example_thread_wa, 2456
 939              	example_thread_wa:
 940 0000 00000000 		.space	2456
 940      00000000 
 940      00000000 
 940      00000000 
 940      00000000 
 941              		.section	.bss.merker,"aw",%nobits
 942              		.align	2
 943              		.set	.LANCHOR4,. + 0
 944              		.type	merker, %object
 945              		.size	merker, 8
 946              	merker:
 947 0000 00000000 		.space	8
 947      00000000 
 948              		.section	.bss.pwm_current,"aw",%nobits
 949              		.align	3
 950              		.set	.LANCHOR3,. + 0
 951              		.type	pwm_current, %object
 952              		.size	pwm_current, 8
 953              	pwm_current:
 954 0000 00000000 		.space	8
 954      00000000 
 955              		.section	.bss.pwm_rpm,"aw",%nobits
 956              		.align	3
 957              		.type	pwm_rpm, %object
 958              		.size	pwm_rpm, 8
 959              	pwm_rpm:
 960 0000 00000000 		.space	8
 960      00000000 
 961              		.section	.bss.spi_val,"aw",%nobits
 962              		.align	2
ARM GAS  /tmp/ccuQ6dqG.s 			page 18


 963              		.set	.LANCHOR1,. + 0
 964              		.type	spi_val, %object
 965              		.size	spi_val, 4
 966              	spi_val:
 967 0000 00000000 		.space	4
 968              		.section	.bss.testvalue,"aw",%nobits
 969              		.align	2
 970              		.set	.LANCHOR2,. + 0
 971              		.type	testvalue, %object
 972              		.size	testvalue, 4
 973              	testvalue:
 974 0000 00000000 		.space	4
 975              		.section	.rodata.example_thread.str1.4,"aMS",%progbits,1
 976              		.align	2
 977              	.LC0:
 978 0000 4150505F 		.ascii	"APP_EXAMPLE\000"
 978      4558414D 
 978      504C4500 
 979              	.LC1:
 980 000c 53504920 		.ascii	"SPI Receive: %d\000"
 980      52656365 
 980      6976653A 
 980      20256400 
 981              	.LC2:
 982 001c 53504920 		.ascii	"SPI Receive: %lf\000"
 982      52656365 
 982      6976653A 
 982      20256C66 
 982      00
 983 002d 000000   		.space	3
 984              	.LC3:
 985 0030 53657420 		.ascii	"Set Current: %d\000"
 985      43757272 
 985      656E743A 
 985      20256400 
 986              	.LC4:
 987 0040 70776D5F 		.ascii	"pwm_current: %lf\000"
 987      63757272 
 987      656E743A 
 987      20256C66 
 987      00
 988 0051 000000   		.space	3
 989              	.LC5:
 990 0054 53504920 		.ascii	"SPI Send: %d\000"
 990      53656E64 
 990      3A202564 
 990      00
 991              		.text
 992              	.Letext0:
 993              		.file 4 "/usr/lib/gcc/arm-none-eabi/7.3.1/include/stddef.h"
 994              		.file 5 "/usr/arm-none-eabi/include/machine/_default_types.h"
 995              		.file 6 "/usr/arm-none-eabi/include/sys/_stdint.h"
 996              		.file 7 "ChibiOS_3.0.2/os/rt/ports/ARMCMx/compilers/GCC/chtypes.h"
 997              		.file 8 "ChibiOS_3.0.2/os/rt/include/chsystypes.h"
 998              		.file 9 "ChibiOS_3.0.2/os/rt/include/chschd.h"
 999              		.file 10 "ChibiOS_3.0.2/os/ext/CMSIS/include/core_cm4.h"
 1000              		.file 11 "ChibiOS_3.0.2/os/ext/CMSIS/ST/system_stm32f4xx.h"
ARM GAS  /tmp/ccuQ6dqG.s 			page 19


 1001              		.file 12 "ChibiOS_3.0.2/os/ext/CMSIS/ST/stm32f407xx.h"
 1002              		.file 13 "ChibiOS_3.0.2/os/ext/CMSIS/ST/stm32f4xx.h"
 1003              		.file 14 "ChibiOS_3.0.2/os/rt/ports/ARMCMx/chcore.h"
 1004              		.file 15 "ChibiOS_3.0.2/os/rt/ports/ARMCMx/chcore_v7m.h"
 1005              		.file 16 "ChibiOS_3.0.2/os/rt/include/chtm.h"
 1006              		.file 17 "ChibiOS_3.0.2/os/rt/include/chsem.h"
 1007              		.file 18 "ChibiOS_3.0.2/os/rt/include/chmtx.h"
 1008              		.file 19 "ChibiOS_3.0.2/os/rt/include/chevents.h"
 1009              		.file 20 "ChibiOS_3.0.2/os/rt/include/chqueues.h"
 1010              		.file 21 "./conf_general.h"
 1011              		.file 22 "ChibiOS_3.0.2/ext/stdperiph_stm32f4/inc/stm32f4xx_tim.h"
 1012              		.file 23 "ChibiOS_3.0.2/os/hal/ports/STM32/STM32F4xx/stm32_dma.h"
 1013              		.file 24 "ChibiOS_3.0.2/os/hal/ports/STM32/LLD/GPIOv2/pal_lld.h"
 1014              		.file 25 "ChibiOS_3.0.2/os/hal/include/can.h"
 1015              		.file 26 "ChibiOS_3.0.2/os/hal/ports/STM32/LLD/can_lld.h"
 1016              		.file 27 "ChibiOS_3.0.2/os/hal/include/i2c.h"
 1017              		.file 28 "ChibiOS_3.0.2/os/hal/ports/STM32/LLD/I2Cv1/i2c_lld.h"
 1018              		.file 29 "ChibiOS_3.0.2/os/hal/include/icu.h"
 1019              		.file 30 "ChibiOS_3.0.2/os/hal/ports/STM32/LLD/TIMv1/icu_lld.h"
 1020              		.file 31 "ChibiOS_3.0.2/os/hal/ports/STM32/LLD/TIMv1/stm32_tim.h"
 1021              		.file 32 "ChibiOS_3.0.2/os/hal/include/serial.h"
 1022              		.file 33 "ChibiOS_3.0.2/os/hal/ports/STM32/LLD/USARTv1/serial_lld.h"
 1023              		.file 34 "ChibiOS_3.0.2/os/hal/include/spi.h"
 1024              		.file 35 "ChibiOS_3.0.2/os/hal/ports/STM32/LLD/SPIv1/spi_lld.h"
 1025              		.file 36 "ChibiOS_3.0.2/os/hal/include/usb.h"
 1026              		.file 37 "ChibiOS_3.0.2/os/hal/ports/STM32/LLD/OTGv1/usb_lld.h"
 1027              		.file 38 "ChibiOS_3.0.2/os/hal/ports/STM32/LLD/OTGv1/stm32_otg.h"
 1028              		.file 39 "./mc_interface.h"
 1029              		.file 40 "./mcpwm.h"
 1030              		.file 41 "./commands.h"
 1031              		.file 42 "ChibiOS_3.0.2/os/rt/include/chthreads.h"
 1032              		.file 43 "./timeout.h"
 1033              		.file 44 "./mcpwm_foc.h"
 1034              		.file 45 "ChibiOS_3.0.2/ext/stdperiph_stm32f4/inc/stm32f4xx_rcc.h"
 1035              		.file 46 "ChibiOS_3.0.2/os/hal/ports/common/ARMCMx/nvic.h"