ARM GAS  /tmp/ccj2MYXE.s 			page 1


   1              		.cpu cortex-m4
   2              		.eabi_attribute 27, 1
   3              		.eabi_attribute 28, 1
   4              		.eabi_attribute 20, 1
   5              		.eabi_attribute 21, 1
   6              		.eabi_attribute 23, 3
   7              		.eabi_attribute 24, 1
   8              		.eabi_attribute 25, 1
   9              		.eabi_attribute 26, 1
  10              		.eabi_attribute 30, 2
  11              		.eabi_attribute 34, 1
  12              		.eabi_attribute 18, 4
  13              		.file	"comm_can.c"
  14              		.text
  15              	.Ltext0:
  16              		.cfi_sections	.debug_frame
  17              		.section	.text.cancom_read_thread,"ax",%progbits
  18              		.align	1
  19              		.p2align 4,,15
  20              		.syntax unified
  21              		.thumb
  22              		.thumb_func
  23              		.fpu fpv4-sp-d16
  24              		.type	cancom_read_thread, %function
  25              	cancom_read_thread:
  26              	.LFB290:
  27              		.file 1 "comm_can.c"
  28              		.loc 1 738 0
  29              		.cfi_startproc
  30              		@ args = 0, pretend = 0, frame = 40
  31              		@ frame_needed = 0, uses_anonymous_args = 0
  32              	.LVL0:
  33 0000 2DE9F04F 		push	{r4, r5, r6, r7, r8, r9, r10, fp, lr}
  34              		.cfi_def_cfa_offset 36
  35              		.cfi_offset 4, -36
  36              		.cfi_offset 5, -32
  37              		.cfi_offset 6, -28
  38              		.cfi_offset 7, -24
  39              		.cfi_offset 8, -20
  40              		.cfi_offset 9, -16
  41              		.cfi_offset 10, -12
  42              		.cfi_offset 11, -8
  43              		.cfi_offset 14, -4
  44              	.LBB159:
  45              	.LBB160:
  46              		.file 2 "ChibiOS_3.0.2/os/rt/include/chregistry.h"
  47              		.loc 2 135 0
  48 0004 DFF8D4B0 		ldr	fp, .L15+20
  49 0008 2F4A     		ldr	r2, .L15
  50 000a DBF81830 		ldr	r3, [fp, #24]
  51              	.LBE160:
  52              	.LBE159:
  53              	.LBB162:
  54              	.LBB163:
  55              	.LBB164:
  56              		.file 3 "ChibiOS_3.0.2/os/rt/include/chevents.h"
  57              		.loc 3 193 0
ARM GAS  /tmp/ccj2MYXE.s 			page 2


  58 000e 2F48     		ldr	r0, .L15+4
  59              	.LVL1:
  60              	.LBE164:
  61              	.LBE163:
  62              	.LBE162:
  63              	.LBB167:
  64              	.LBB161:
  65              		.loc 2 135 0
  66 0010 9A61     		str	r2, [r3, #24]
  67              	.LVL2:
  68              	.LBE161:
  69              	.LBE167:
  70              		.loc 1 738 0
  71 0012 8BB0     		sub	sp, sp, #44
  72              		.cfi_def_cfa_offset 80
  73              	.LVL3:
  74              	.LBB168:
  75              	.LBB166:
  76              	.LBB165:
  77              		.loc 3 193 0
  78 0014 6946     		mov	r1, sp
  79 0016 4FF0FF33 		mov	r3, #-1
  80 001a 0122     		movs	r2, #1
  81 001c FFF7FEFF 		bl	chEvtRegisterMaskWithFlags
  82              	.LVL4:
  83              	.LBE165:
  84              	.LBE166:
  85              	.LBE168:
  86              	.LBB169:
  87              		.loc 1 755 0
  88 0020 2B4F     		ldr	r7, .L15+8
  89 0022 2C4D     		ldr	r5, .L15+12
  90 0024 DFF8B890 		ldr	r9, .L15+24
  91              	.L3:
  92              	.LBE169:
  93              	.LBB170:
  94              	.LBB171:
  95              		.file 4 "ChibiOS_3.0.2/os/rt/include/chthreads.h"
  96              		.loc 4 233 0
  97 0028 DBF81830 		ldr	r3, [fp, #24]
  98              	.LBE171:
  99              	.LBE170:
 100              		.loc 1 747 0
 101 002c 5B7F     		ldrb	r3, [r3, #29]	@ zero_extendqisi2
 102 002e 13F00404 		ands	r4, r3, #4
 103 0032 42D1     		bne	.L14
 104              	.L7:
 105              	.LBB173:
 106              		.loc 1 749 0
 107 0034 0120     		movs	r0, #1
 108 0036 FFF7FEFF 		bl	timeout_feed_WDT
 109              	.LVL5:
 110              		.loc 1 751 0
 111 003a 6421     		movs	r1, #100
 112 003c 4FF0FF30 		mov	r0, #-1
 113 0040 FFF7FEFF 		bl	chEvtWaitAnyTimeout
 114              	.LVL6:
ARM GAS  /tmp/ccj2MYXE.s 			page 3


 115 0044 0028     		cmp	r0, #0
 116 0046 EFD0     		beq	.L3
 117              		.loc 1 755 0
 118 0048 05AA     		add	r2, sp, #20
 119 004a 2346     		mov	r3, r4
 120 004c 2146     		mov	r1, r4
 121 004e 3846     		mov	r0, r7
 122 0050 FFF7FEFF 		bl	canReceive
 123              	.LVL7:
 124              		.loc 1 757 0
 125 0054 0028     		cmp	r0, #0
 126 0056 E7D1     		bne	.L3
 127 0058 DFF88880 		ldr	r8, .L15+28
 128              		.loc 1 759 0
 129 005c 1E4E     		ldr	r6, .L15+16
 130              		.loc 1 762 0
 131 005e 8246     		mov	r10, r0
 132              	.L6:
 133              	.LVL8:
 134              		.loc 1 759 0
 135 0060 3046     		mov	r0, r6
 136              		.loc 1 760 0
 137 0062 05AC     		add	r4, sp, #20
 138              		.loc 1 759 0
 139 0064 FFF7FEFF 		bl	chMtxLock
 140              	.LVL9:
 141              		.loc 1 760 0
 142 0068 0FCC     		ldmia	r4!, {r0, r1, r2, r3}
 143 006a D5F800C0 		ldr	ip, [r5]
 144 006e D4F800E0 		ldr	lr, [r4]
 145 0072 0CEB8C04 		add	r4, ip, ip, lsl #2
 146 0076 09EB8404 		add	r4, r9, r4, lsl #2
 147 007a 0FC4     		stmia	r4!, {r0, r1, r2, r3}
 148 007c 0CF10103 		add	r3, ip, #1
 149              		.loc 1 761 0
 150 0080 642B     		cmp	r3, #100
 151              		.loc 1 764 0
 152 0082 3046     		mov	r0, r6
 153              		.loc 1 760 0
 154 0084 2B60     		str	r3, [r5]
 155 0086 C4F800E0 		str	lr, [r4]
 156              		.loc 1 762 0
 157 008a 08BF     		it	eq
 158 008c C5F800A0 		streq	r10, [r5]
 159              		.loc 1 764 0
 160 0090 FFF7FEFF 		bl	chMtxUnlock
 161              	.LVL10:
 162              		.loc 1 766 0
 163 0094 0121     		movs	r1, #1
 164 0096 D8F80000 		ldr	r0, [r8]
 165 009a FFF7FEFF 		bl	chEvtSignal
 166              	.LVL11:
 167              		.loc 1 768 0
 168 009e 0023     		movs	r3, #0
 169 00a0 1946     		mov	r1, r3
 170 00a2 05AA     		add	r2, sp, #20
 171 00a4 3846     		mov	r0, r7
ARM GAS  /tmp/ccj2MYXE.s 			page 4


 172 00a6 FFF7FEFF 		bl	canReceive
 173              	.LVL12:
 174              		.loc 1 757 0
 175 00aa 0028     		cmp	r0, #0
 176 00ac D8D0     		beq	.L6
 177              	.LBE173:
 178              	.LBB174:
 179              	.LBB172:
 180              		.loc 4 233 0
 181 00ae DBF81830 		ldr	r3, [fp, #24]
 182              	.LBE172:
 183              	.LBE174:
 184              		.loc 1 747 0
 185 00b2 5B7F     		ldrb	r3, [r3, #29]	@ zero_extendqisi2
 186 00b4 13F00404 		ands	r4, r3, #4
 187 00b8 BCD0     		beq	.L7
 188              	.LVL13:
 189              	.L14:
 190              		.loc 1 772 0
 191 00ba 6946     		mov	r1, sp
 192 00bc 0348     		ldr	r0, .L15+4
 193              	.LVL14:
 194 00be FFF7FEFF 		bl	chEvtUnregister
 195              	.LVL15:
 196              		.loc 1 773 0
 197 00c2 0BB0     		add	sp, sp, #44
 198              		.cfi_def_cfa_offset 36
 199              	.LVL16:
 200              		@ sp needed
 201 00c4 BDE8F08F 		pop	{r4, r5, r6, r7, r8, r9, r10, fp, pc}
 202              	.LVL17:
 203              	.L16:
 204              		.align	2
 205              	.L15:
 206 00c8 00000000 		.word	.LC0
 207 00cc 18000000 		.word	CAND1+24
 208 00d0 00000000 		.word	CAND1
 209 00d4 00000000 		.word	.LANCHOR1
 210 00d8 00000000 		.word	.LANCHOR0
 211 00dc 00000000 		.word	ch
 212 00e0 00000000 		.word	.LANCHOR2
 213 00e4 00000000 		.word	.LANCHOR3
 214              		.cfi_endproc
 215              	.LFE290:
 216              		.size	cancom_read_thread, .-cancom_read_thread
 217              		.section	.text.comm_can_init,"ax",%progbits
 218              		.align	1
 219              		.p2align 4,,15
 220              		.global	comm_can_init
 221              		.syntax unified
 222              		.thumb
 223              		.thumb_func
 224              		.fpu fpv4-sp-d16
 225              		.type	comm_can_init, %function
 226              	comm_can_init:
 227              	.LFB256:
 228              		.loc 1 97 0
ARM GAS  /tmp/ccj2MYXE.s 			page 5


 229              		.cfi_startproc
 230              		@ args = 0, pretend = 0, frame = 0
 231              		@ frame_needed = 0, uses_anonymous_args = 0
 232              	.LVL18:
 233 0000 30B5     		push	{r4, r5, lr}
 234              		.cfi_def_cfa_offset 12
 235              		.cfi_offset 4, -12
 236              		.cfi_offset 5, -8
 237              		.cfi_offset 14, -4
 238 0002 2548     		ldr	r0, .L21
 239 0004 2549     		ldr	r1, .L21+4
 240 0006 264D     		ldr	r5, .L21+8
 241 0008 264C     		ldr	r4, .L21+12
 242 000a 83B0     		sub	sp, sp, #12
 243              		.cfi_def_cfa_offset 24
 244              		.loc 1 97 0
 245 000c 0023     		movs	r3, #0
 246              	.LBB175:
 247              		.loc 1 99 0
 248 000e 4FF0FF32 		mov	r2, #-1
 249              	.LVL19:
 250              	.L18:
 251              		.loc 1 100 0 discriminator 3
 252 0012 EA50     		str	r2, [r5, r3]
 253              		.loc 1 101 0 discriminator 3
 254 0014 E250     		str	r2, [r4, r3]
 255 0016 1033     		adds	r3, r3, #16
 256              		.loc 1 98 0 discriminator 3
 257 0018 A02B     		cmp	r3, #160
 258              		.loc 1 99 0 discriminator 3
 259 001a 40F8142B 		str	r2, [r0], #20
 260              		.loc 1 102 0 discriminator 3
 261 001e 41F8182B 		str	r2, [r1], #24
 262              		.loc 1 98 0 discriminator 3
 263 0022 F6D1     		bne	.L18
 264              	.LBE175:
 265              		.loc 1 107 0
 266 0024 204B     		ldr	r3, .L21+16
 267              		.loc 1 106 0
 268 0026 214A     		ldr	r2, .L21+20
 269              		.loc 1 109 0
 270 0028 2148     		ldr	r0, .L21+24
 271              		.loc 1 106 0
 272 002a 0024     		movs	r4, #0
 273              		.loc 1 107 0
 274 002c 1C60     		str	r4, [r3]
 275              		.loc 1 106 0
 276 002e 1460     		str	r4, [r2]
 277              		.loc 1 109 0
 278 0030 FFF7FEFF 		bl	chMtxObjectInit
 279              	.LVL20:
 280              		.loc 1 110 0
 281 0034 1F48     		ldr	r0, .L21+28
 282 0036 FFF7FEFF 		bl	chMtxObjectInit
 283              	.LVL21:
 284              		.loc 1 112 0
 285 003a 40F28A42 		movw	r2, #1162
ARM GAS  /tmp/ccj2MYXE.s 			page 6


 286 003e 4FF48071 		mov	r1, #256
 287 0042 1D48     		ldr	r0, .L21+32
 288 0044 FFF7FEFF 		bl	_pal_lld_setgroupmode
 289              	.LVL22:
 290              		.loc 1 116 0
 291 0048 40F28A42 		movw	r2, #1162
 292 004c 4FF40071 		mov	r1, #512
 293 0050 1948     		ldr	r0, .L21+32
 294 0052 FFF7FEFF 		bl	_pal_lld_setgroupmode
 295              	.LVL23:
 296              		.loc 1 121 0
 297 0056 1949     		ldr	r1, .L21+36
 298 0058 1948     		ldr	r0, .L21+40
 299 005a FFF7FEFF 		bl	canStart
 300              	.LVL24:
 301              		.loc 1 123 0
 302 005e FFF7FEFF 		bl	canard_driver_init
 303              	.LVL25:
 304              		.loc 1 125 0
 305 0062 0094     		str	r4, [sp]
 306 0064 174B     		ldr	r3, .L21+44
 307 0066 1848     		ldr	r0, .L21+48
 308 0068 4122     		movs	r2, #65
 309 006a 4FF46671 		mov	r1, #920
 310 006e FFF7FEFF 		bl	chThdCreateStatic
 311              	.LVL26:
 312              		.loc 1 127 0
 313 0072 0094     		str	r4, [sp]
 314 0074 154B     		ldr	r3, .L21+52
 315 0076 1648     		ldr	r0, .L21+56
 316 0078 4022     		movs	r2, #64
 317 007a 4FF4B361 		mov	r1, #1432
 318 007e FFF7FEFF 		bl	chThdCreateStatic
 319              	.LVL27:
 320              		.loc 1 129 0
 321 0082 0094     		str	r4, [sp]
 322 0084 134B     		ldr	r3, .L21+60
 323 0086 1448     		ldr	r0, .L21+64
 324 0088 4022     		movs	r2, #64
 325 008a 41F29811 		movw	r1, #4504
 326 008e FFF7FEFF 		bl	chThdCreateStatic
 327              	.LVL28:
 328              		.loc 1 132 0
 329 0092 03B0     		add	sp, sp, #12
 330              		.cfi_def_cfa_offset 12
 331              		@ sp needed
 332 0094 30BD     		pop	{r4, r5, pc}
 333              	.L22:
 334 0096 00BF     		.align	2
 335              	.L21:
 336 0098 00000000 		.word	.LANCHOR4
 337 009c 00000000 		.word	.LANCHOR5
 338 00a0 00000000 		.word	.LANCHOR6
 339 00a4 00000000 		.word	.LANCHOR7
 340 00a8 00000000 		.word	.LANCHOR1
 341 00ac 00000000 		.word	.LANCHOR8
 342 00b0 00000000 		.word	.LANCHOR9
ARM GAS  /tmp/ccj2MYXE.s 			page 7


 343 00b4 00000000 		.word	.LANCHOR0
 344 00b8 00040240 		.word	1073873920
 345 00bc 00000000 		.word	.LANCHOR10
 346 00c0 00000000 		.word	CAND1
 347 00c4 00000000 		.word	cancom_read_thread
 348 00c8 00000000 		.word	.LANCHOR11
 349 00cc 00000000 		.word	cancom_status_thread
 350 00d0 00000000 		.word	.LANCHOR12
 351 00d4 00000000 		.word	cancom_process_thread
 352 00d8 00000000 		.word	cancom_process_thread_wa
 353              		.cfi_endproc
 354              	.LFE256:
 355              		.size	comm_can_init, .-comm_can_init
 356              		.section	.text.comm_can_set_baud,"ax",%progbits
 357              		.align	1
 358              		.p2align 4,,15
 359              		.global	comm_can_set_baud
 360              		.syntax unified
 361              		.thumb
 362              		.thumb_func
 363              		.fpu fpv4-sp-d16
 364              		.type	comm_can_set_baud, %function
 365              	comm_can_set_baud:
 366              	.LFB257:
 367              		.loc 1 134 0
 368              		.cfi_startproc
 369              		@ args = 0, pretend = 0, frame = 0
 370              		@ frame_needed = 0, uses_anonymous_args = 0
 371              	.LVL29:
 372 0000 10B5     		push	{r4, lr}
 373              		.cfi_def_cfa_offset 8
 374              		.cfi_offset 4, -8
 375              		.cfi_offset 14, -4
 376              		.loc 1 135 0
 377 0002 0328     		cmp	r0, #3
 378 0004 18D8     		bhi	.L23
 379 0006 DFE800F0 		tbb	[pc, r0]
 380              	.L26:
 381 000a 14       		.byte	(.L25-.L26)/2
 382 000b 11       		.byte	(.L27-.L26)/2
 383 000c 0E       		.byte	(.L28-.L26)/2
 384 000d 02       		.byte	(.L29-.L26)/2
 385              		.p2align 1
 386              	.L29:
 387              	.LVL30:
 388              	.LBB176:
 389              	.LBB177:
 390              		.loc 1 1461 0
 391 000e 0B4C     		ldr	r4, .L32
 392 0010 0B4B     		ldr	r3, .L32+4
 393              	.LVL31:
 394              	.L31:
 395              		.loc 1 1464 0
 396 0012 0C48     		ldr	r0, .L32+8
 397              	.LVL32:
 398              		.loc 1 1461 0
 399 0014 6360     		str	r3, [r4, #4]
ARM GAS  /tmp/ccj2MYXE.s 			page 8


 400              		.loc 1 1464 0
 401 0016 FFF7FEFF 		bl	canStop
 402              	.LVL33:
 403              		.loc 1 1465 0
 404 001a 2146     		mov	r1, r4
 405 001c 0948     		ldr	r0, .L32+8
 406              	.LBE177:
 407              	.LBE176:
 408              		.loc 1 142 0
 409 001e BDE81040 		pop	{r4, lr}
 410              		.cfi_remember_state
 411              		.cfi_restore 14
 412              		.cfi_restore 4
 413              		.cfi_def_cfa_offset 0
 414              	.LBB179:
 415              	.LBB178:
 416              		.loc 1 1465 0
 417 0022 FFF7FEBF 		b	canStart
 418              	.LVL34:
 419              	.L28:
 420              		.cfi_restore_state
 421              	.LBE178:
 422              	.LBE179:
 423              	.LBB180:
 424              	.LBB181:
 425              		.loc 1 1461 0
 426 0026 054C     		ldr	r4, .L32
 427 0028 074B     		ldr	r3, .L32+12
 428 002a F2E7     		b	.L31
 429              	.LVL35:
 430              	.L27:
 431              	.LBE181:
 432              	.LBE180:
 433              	.LBB182:
 434              	.LBB183:
 435 002c 034C     		ldr	r4, .L32
 436 002e 074B     		ldr	r3, .L32+16
 437 0030 EFE7     		b	.L31
 438              	.LVL36:
 439              	.L25:
 440              	.LBE183:
 441              	.LBE182:
 442              	.LBB184:
 443              	.LBB185:
 444 0032 024C     		ldr	r4, .L32
 445 0034 064B     		ldr	r3, .L32+20
 446 0036 ECE7     		b	.L31
 447              	.LVL37:
 448              	.L23:
 449              	.LBE185:
 450              	.LBE184:
 451              		.loc 1 142 0
 452 0038 10BD     		pop	{r4, pc}
 453              	.L33:
 454 003a 00BF     		.align	2
 455              	.L32:
 456 003c 00000000 		.word	.LANCHOR10
ARM GAS  /tmp/ccj2MYXE.s 			page 9


 457 0040 02002903 		.word	53018626
 458 0044 00000000 		.word	CAND1
 459 0048 05002903 		.word	53018629
 460 004c 07004E03 		.word	55443463
 461 0050 0F004E03 		.word	55443471
 462              		.cfi_endproc
 463              	.LFE257:
 464              		.size	comm_can_set_baud, .-comm_can_set_baud
 465              		.section	.text.comm_can_transmit_eid,"ax",%progbits
 466              		.align	1
 467              		.p2align 4,,15
 468              		.global	comm_can_transmit_eid
 469              		.syntax unified
 470              		.thumb
 471              		.thumb_func
 472              		.fpu fpv4-sp-d16
 473              		.type	comm_can_transmit_eid, %function
 474              	comm_can_transmit_eid:
 475              	.LFB258:
 476              		.loc 1 144 0
 477              		.cfi_startproc
 478              		@ args = 0, pretend = 0, frame = 16
 479              		@ frame_needed = 0, uses_anonymous_args = 0
 480              	.LVL38:
 481 0000 70B5     		push	{r4, r5, r6, lr}
 482              		.cfi_def_cfa_offset 16
 483              		.cfi_offset 4, -16
 484              		.cfi_offset 5, -12
 485              		.cfi_offset 6, -8
 486              		.cfi_offset 14, -4
 487 0002 84B0     		sub	sp, sp, #16
 488              		.cfi_def_cfa_offset 32
 489 0004 082A     		cmp	r2, #8
 490              		.loc 1 151 0
 491 0006 9DF80030 		ldrb	r3, [sp]	@ zero_extendqisi2
 492              		.loc 1 152 0
 493 000a 019E     		ldr	r6, [sp, #4]
 494              		.loc 1 157 0
 495 000c 0F4D     		ldr	r5, .L36
 496              		.loc 1 153 0
 497 000e 43F02003 		orr	r3, r3, #32
 498 0012 28BF     		it	cs
 499 0014 0822     		movcs	r2, #8
 500              	.LVL39:
 501              		.loc 1 154 0
 502 0016 04AC     		add	r4, sp, #16
 503 0018 03F0EF03 		and	r3, r3, #239
 504 001c 62F30303 		bfi	r3, r2, #0, #4
 505 0020 04F8103D 		strb	r3, [r4, #-16]!
 506              		.loc 1 152 0
 507 0024 60F31C06 		bfi	r6, r0, #0, #29
 508              		.loc 1 155 0
 509 0028 02A8     		add	r0, sp, #8
 510              	.LVL40:
 511              		.loc 1 152 0
 512 002a 0196     		str	r6, [sp, #4]
 513              		.loc 1 155 0
ARM GAS  /tmp/ccj2MYXE.s 			page 10


 514 002c FFF7FEFF 		bl	memcpy
 515              	.LVL41:
 516              		.loc 1 157 0
 517 0030 2846     		mov	r0, r5
 518 0032 FFF7FEFF 		bl	chMtxLock
 519              	.LVL42:
 520              		.loc 1 158 0
 521 0036 2246     		mov	r2, r4
 522 0038 3223     		movs	r3, #50
 523 003a 0021     		movs	r1, #0
 524 003c 0448     		ldr	r0, .L36+4
 525 003e FFF7FEFF 		bl	canTransmit
 526              	.LVL43:
 527              		.loc 1 159 0
 528 0042 2846     		mov	r0, r5
 529 0044 FFF7FEFF 		bl	chMtxUnlock
 530              	.LVL44:
 531              		.loc 1 165 0
 532 0048 04B0     		add	sp, sp, #16
 533              		.cfi_def_cfa_offset 16
 534              		@ sp needed
 535 004a 70BD     		pop	{r4, r5, r6, pc}
 536              	.L37:
 537              		.align	2
 538              	.L36:
 539 004c 00000000 		.word	.LANCHOR9
 540 0050 00000000 		.word	CAND1
 541              		.cfi_endproc
 542              	.LFE258:
 543              		.size	comm_can_transmit_eid, .-comm_can_transmit_eid
 544              		.section	.text.cancom_status_thread,"ax",%progbits
 545              		.align	1
 546              		.p2align 4,,15
 547              		.syntax unified
 548              		.thumb
 549              		.thumb_func
 550              		.fpu fpv4-sp-d16
 551              		.type	cancom_status_thread, %function
 552              	cancom_status_thread:
 553              	.LFB292:
 554              		.loc 1 1324 0
 555              		.cfi_startproc
 556              		@ args = 0, pretend = 0, frame = 24
 557              		@ frame_needed = 0, uses_anonymous_args = 0
 558              	.LVL45:
 559 0000 F0B5     		push	{r4, r5, r6, r7, lr}
 560              		.cfi_def_cfa_offset 20
 561              		.cfi_offset 4, -20
 562              		.cfi_offset 5, -16
 563              		.cfi_offset 6, -12
 564              		.cfi_offset 7, -8
 565              		.cfi_offset 14, -4
 566              	.LBB186:
 567              	.LBB187:
 568              		.loc 2 135 0
 569 0002 134B     		ldr	r3, .L52
 570 0004 134A     		ldr	r2, .L52+4
ARM GAS  /tmp/ccj2MYXE.s 			page 11


 571 0006 9B69     		ldr	r3, [r3, #24]
 572 0008 134E     		ldr	r6, .L52+8
 573 000a 144D     		ldr	r5, .L52+12
 574              	.LBE187:
 575              	.LBE186:
 576              		.loc 1 1324 0
 577 000c 2DED088B 		vpush.64	{d8, d9, d10, d11}
 578              		.cfi_def_cfa_offset 52
 579              		.cfi_offset 80, -52
 580              		.cfi_offset 81, -48
 581              		.cfi_offset 82, -44
 582              		.cfi_offset 83, -40
 583              		.cfi_offset 84, -36
 584              		.cfi_offset 85, -32
 585              		.cfi_offset 86, -28
 586              		.cfi_offset 87, -24
 587              	.LBB189:
 588              	.LBB188:
 589              		.loc 2 135 0
 590 0010 9A61     		str	r2, [r3, #24]
 591              	.LVL46:
 592              	.LBE188:
 593              	.LBE189:
 594              		.loc 1 1324 0
 595 0012 87B0     		sub	sp, sp, #28
 596              		.cfi_def_cfa_offset 80
 597              	.LBB190:
 598              		.loc 1 1330 0
 599 0014 FFF7FEFF 		bl	app_get_configuration
 600              	.LVL47:
 601 0018 0078     		ldrb	r0, [r0]	@ zero_extendqisi2
 602 001a 8DF81000 		strb	r0, [sp, #16]
 603              		.loc 1 1331 0
 604 001e 7122     		movs	r2, #113
 605              		.loc 1 1332 0
 606 0020 5A23     		movs	r3, #90
 607              		.loc 1 1331 0
 608 0022 8DF81120 		strb	r2, [sp, #17]
 609              		.loc 1 1333 0
 610 0026 40F49050 		orr	r0, r0, #4608
 611 002a 04A9     		add	r1, sp, #16
 612 002c 0322     		movs	r2, #3
 613              		.loc 1 1332 0
 614 002e 8DF81230 		strb	r3, [sp, #18]
 615              	.LBE190:
 616              	.LBB191:
 617              	.LBB192:
 618              		.loc 1 1398 0
 619 0032 9FED0BAA 		vldr.32	s20, .L52+16
 620              	.LBE192:
 621              	.LBB193:
 622              		.loc 1 1410 0
 623 0036 9FED0BBA 		vldr.32	s22, .L52+20
 624 003a DFED0BAA 		vldr.32	s21, .L52+24
 625              		.loc 1 1411 0
 626 003e DFED0B9A 		vldr.32	s19, .L52+28
 627 0042 9FED0B9A 		vldr.32	s18, .L52+32
ARM GAS  /tmp/ccj2MYXE.s 			page 12


 628 0046 DFED0B8A 		vldr.32	s17, .L52+36
 629              	.LBE193:
 630              	.LBE191:
 631              	.LBB199:
 632              		.loc 1 1333 0
 633 004a FFF7FEFF 		bl	comm_can_transmit_eid
 634              	.LVL48:
 635 004e 2BE0     		b	.L46
 636              	.L53:
 637              		.align	2
 638              	.L52:
 639 0050 00000000 		.word	ch
 640 0054 00000000 		.word	.LC1
 641 0058 00000000 		.word	ADC_Value
 642 005c 00000000 		.word	.LANCHOR13
 643 0060 00004842 		.word	1112014848
 644 0064 C07B523A 		.word	978484160
 645 0068 BAE8B241 		.word	1102244026
 646 006c 00003443 		.word	1127481344
 647 0070 DB0F4940 		.word	1078530011
 648 0074 0000C842 		.word	1120403456
 649 0078 00007A44 		.word	1148846080
 650 007c 00401C46 		.word	1176256512
 651              	.LVL49:
 652              	.L41:
 653              	.LBE199:
 654              	.LBB200:
 655              		.loc 1 1360 0
 656 0080 9A1E     		subs	r2, r3, #2
 657 0082 032A     		cmp	r2, #3
 658 0084 4FD9     		bls	.L49
 659              	.LVL50:
 660              	.L42:
 661              		.loc 1 1373 0
 662 0086 DA1E     		subs	r2, r3, #3
 663 0088 022A     		cmp	r2, #2
 664 008a 76D9     		bls	.L50
 665              	.L43:
 666              		.loc 1 1385 0
 667 008c 043B     		subs	r3, r3, #4
 668 008e 012B     		cmp	r3, #1
 669 0090 40F29E80 		bls	.L51
 670              	.L40:
 671              		.loc 1 1442 0
 672 0094 2369     		ldr	r3, [r4, #16]
 673 0096 42F21070 		movw	r0, #10000
 674 009a B0FBF3F0 		udiv	r0, r0, r3
 675              	.LVL51:
 676              		.loc 1 1444 0
 677 009e 0028     		cmp	r0, #0
 678              	.LVL52:
 679              		.loc 1 1447 0
 680 00a0 08BF     		it	eq
 681 00a2 0120     		moveq	r0, #1
 682              	.LVL53:
 683 00a4 FFF7FEFF 		bl	chThdSleep
 684              	.LVL54:
ARM GAS  /tmp/ccj2MYXE.s 			page 13


 685              	.L46:
 686              		.loc 1 1339 0
 687 00a8 FFF7FEFF 		bl	app_get_configuration
 688              	.LVL55:
 689              		.loc 1 1341 0
 690 00ac 027E     		ldrb	r2, [r0, #24]	@ zero_extendqisi2
 691              		.loc 1 1339 0
 692 00ae 0446     		mov	r4, r0
 693              	.LVL56:
 694              		.loc 1 1341 0
 695 00b0 002A     		cmp	r2, #0
 696 00b2 EFD1     		bne	.L40
 697              		.loc 1 1342 0
 698 00b4 037B     		ldrb	r3, [r0, #12]	@ zero_extendqisi2
 699 00b6 591E     		subs	r1, r3, #1
 700 00b8 0429     		cmp	r1, #4
 701 00ba E1D8     		bhi	.L41
 702              	.LBB194:
 703              		.loc 1 1347 0
 704 00bc 0292     		str	r2, [sp, #8]
 705              		.loc 1 1349 0
 706 00be FFF7FEFF 		bl	mc_interface_get_rpm
 707              	.LVL57:
 708 00c2 FDEEC07A 		vcvt.s32.f32	s15, s0
 709 00c6 02AA     		add	r2, sp, #8
 710 00c8 17EE901A 		vmov	r1, s15	@ int
 711 00cc 04A8     		add	r0, sp, #16
 712 00ce FFF7FEFF 		bl	buffer_append_int32
 713              	.LVL58:
 714              		.loc 1 1351 0
 715 00d2 FFF7FEFF 		bl	mc_interface_get_tot_current_directional_filtered
 716              	.LVL59:
 717 00d6 F2EE047A 		vmov.f32	s15, #1.0e+1
 718 00da 20EE270A 		vmul.f32	s0, s0, s15
 719 00de 02AA     		add	r2, sp, #8
 720 00e0 BDEEC00A 		vcvt.s32.f32	s0, s0
 721 00e4 04A8     		add	r0, sp, #16
 722 00e6 10EE103A 		vmov	r3, s0	@ int
 723 00ea 19B2     		sxth	r1, r3
 724 00ec FFF7FEFF 		bl	buffer_append_int16
 725              	.LVL60:
 726              		.loc 1 1352 0
 727 00f0 FFF7FEFF 		bl	mc_interface_get_duty_cycle_now
 728              	.LVL61:
 729 00f4 5FED207A 		vldr.32	s15, .L52+40
 730 00f8 20EE270A 		vmul.f32	s0, s0, s15
 731 00fc 02AA     		add	r2, sp, #8
 732 00fe BDEEC00A 		vcvt.s32.f32	s0, s0
 733 0102 04A8     		add	r0, sp, #16
 734 0104 10EE103A 		vmov	r3, s0	@ int
 735 0108 19B2     		sxth	r1, r3
 736 010a FFF7FEFF 		bl	buffer_append_int16
 737              	.LVL62:
 738              		.loc 1 1353 0
 739 010e 2078     		ldrb	r0, [r4]	@ zero_extendqisi2
 740 0110 9DF80820 		ldrb	r2, [sp, #8]	@ zero_extendqisi2
 741 0114 40F41060 		orr	r0, r0, #2304
ARM GAS  /tmp/ccj2MYXE.s 			page 14


 742 0118 04A9     		add	r1, sp, #16
 743 011a FFF7FEFF 		bl	comm_can_transmit_eid
 744              	.LVL63:
 745 011e 237B     		ldrb	r3, [r4, #12]	@ zero_extendqisi2
 746              	.LBE194:
 747              		.loc 1 1360 0
 748 0120 9A1E     		subs	r2, r3, #2
 749 0122 032A     		cmp	r2, #3
 750 0124 AFD8     		bhi	.L42
 751              	.L49:
 752              	.LBB195:
 753              		.loc 1 1364 0
 754 0126 0027     		movs	r7, #0
 755              		.loc 1 1366 0
 756 0128 3846     		mov	r0, r7
 757              		.loc 1 1364 0
 758 012a 0297     		str	r7, [sp, #8]
 759              		.loc 1 1366 0
 760 012c FFF7FEFF 		bl	mc_interface_get_amp_hours
 761              	.LVL64:
 762 0130 1FED2E8A 		vldr.32	s16, .L52+44
 763 0134 20EE080A 		vmul.f32	s0, s0, s16
 764 0138 02AA     		add	r2, sp, #8
 765 013a FDEEC07A 		vcvt.s32.f32	s15, s0
 766 013e 04A8     		add	r0, sp, #16
 767 0140 17EE901A 		vmov	r1, s15	@ int
 768 0144 FFF7FEFF 		bl	buffer_append_int32
 769              	.LVL65:
 770              		.loc 1 1367 0
 771 0148 3846     		mov	r0, r7
 772 014a FFF7FEFF 		bl	mc_interface_get_amp_hours_charged
 773              	.LVL66:
 774 014e 20EE080A 		vmul.f32	s0, s0, s16
 775 0152 02AA     		add	r2, sp, #8
 776 0154 FDEEC07A 		vcvt.s32.f32	s15, s0
 777 0158 04A8     		add	r0, sp, #16
 778 015a 17EE901A 		vmov	r1, s15	@ int
 779 015e FFF7FEFF 		bl	buffer_append_int32
 780              	.LVL67:
 781              		.loc 1 1368 0
 782 0162 2078     		ldrb	r0, [r4]	@ zero_extendqisi2
 783 0164 9DF80820 		ldrb	r2, [sp, #8]	@ zero_extendqisi2
 784 0168 40F46060 		orr	r0, r0, #3584
 785 016c 04A9     		add	r1, sp, #16
 786 016e FFF7FEFF 		bl	comm_can_transmit_eid
 787              	.LVL68:
 788 0172 237B     		ldrb	r3, [r4, #12]	@ zero_extendqisi2
 789              	.LBE195:
 790              		.loc 1 1373 0
 791 0174 DA1E     		subs	r2, r3, #3
 792 0176 022A     		cmp	r2, #2
 793 0178 88D8     		bhi	.L43
 794              	.L50:
 795              	.LBB196:
 796              		.loc 1 1376 0
 797 017a 0027     		movs	r7, #0
 798              		.loc 1 1378 0
ARM GAS  /tmp/ccj2MYXE.s 			page 15


 799 017c 3846     		mov	r0, r7
 800              		.loc 1 1376 0
 801 017e 0297     		str	r7, [sp, #8]
 802              		.loc 1 1378 0
 803 0180 FFF7FEFF 		bl	mc_interface_get_watt_hours
 804              	.LVL69:
 805 0184 1FED438A 		vldr.32	s16, .L52+44
 806 0188 20EE080A 		vmul.f32	s0, s0, s16
 807 018c 02AA     		add	r2, sp, #8
 808 018e FDEEC07A 		vcvt.s32.f32	s15, s0
 809 0192 04A8     		add	r0, sp, #16
 810 0194 17EE901A 		vmov	r1, s15	@ int
 811 0198 FFF7FEFF 		bl	buffer_append_int32
 812              	.LVL70:
 813              		.loc 1 1379 0
 814 019c 3846     		mov	r0, r7
 815 019e FFF7FEFF 		bl	mc_interface_get_watt_hours_charged
 816              	.LVL71:
 817 01a2 20EE080A 		vmul.f32	s0, s0, s16
 818 01a6 02AA     		add	r2, sp, #8
 819 01a8 FDEEC07A 		vcvt.s32.f32	s15, s0
 820 01ac 04A8     		add	r0, sp, #16
 821 01ae 17EE901A 		vmov	r1, s15	@ int
 822 01b2 FFF7FEFF 		bl	buffer_append_int32
 823              	.LVL72:
 824              		.loc 1 1380 0
 825 01b6 2078     		ldrb	r0, [r4]	@ zero_extendqisi2
 826 01b8 9DF80820 		ldrb	r2, [sp, #8]	@ zero_extendqisi2
 827 01bc 40F47060 		orr	r0, r0, #3840
 828 01c0 04A9     		add	r1, sp, #16
 829 01c2 FFF7FEFF 		bl	comm_can_transmit_eid
 830              	.LVL73:
 831 01c6 237B     		ldrb	r3, [r4, #12]	@ zero_extendqisi2
 832              	.LBE196:
 833              		.loc 1 1385 0
 834 01c8 043B     		subs	r3, r3, #4
 835 01ca 012B     		cmp	r3, #1
 836 01cc 3FF662AF 		bhi	.L40
 837              	.L51:
 838              	.LBB197:
 839              		.loc 1 1387 0
 840 01d0 0027     		movs	r7, #0
 841 01d2 0297     		str	r7, [sp, #8]
 842              		.loc 1 1389 0
 843 01d4 FFF7FEFF 		bl	mc_interface_temp_fet_filtered
 844              	.LVL74:
 845 01d8 B2EE048A 		vmov.f32	s16, #1.0e+1
 846 01dc 20EE080A 		vmul.f32	s0, s0, s16
 847 01e0 02AA     		add	r2, sp, #8
 848 01e2 BDEEC00A 		vcvt.s32.f32	s0, s0
 849 01e6 04A8     		add	r0, sp, #16
 850 01e8 10EE103A 		vmov	r3, s0	@ int
 851 01ec 19B2     		sxth	r1, r3
 852 01ee FFF7FEFF 		bl	buffer_append_int16
 853              	.LVL75:
 854              		.loc 1 1393 0
 855 01f2 FFF7FEFF 		bl	mc_interface_temp_motor_filtered
ARM GAS  /tmp/ccj2MYXE.s 			page 16


 856              	.LVL76:
 857 01f6 20EE080A 		vmul.f32	s0, s0, s16
 858 01fa 02AA     		add	r2, sp, #8
 859 01fc BDEEC00A 		vcvt.s32.f32	s0, s0
 860 0200 04A8     		add	r0, sp, #16
 861 0202 10EE103A 		vmov	r3, s0	@ int
 862 0206 19B2     		sxth	r1, r3
 863 0208 FFF7FEFF 		bl	buffer_append_int16
 864              	.LVL77:
 865              		.loc 1 1397 0
 866 020c FFF7FEFF 		bl	mc_interface_get_tot_current_in_filtered
 867              	.LVL78:
 868 0210 20EE080A 		vmul.f32	s0, s0, s16
 869 0214 02AA     		add	r2, sp, #8
 870 0216 BDEEC00A 		vcvt.s32.f32	s0, s0
 871 021a 04A8     		add	r0, sp, #16
 872 021c 10EE103A 		vmov	r3, s0	@ int
 873 0220 19B2     		sxth	r1, r3
 874 0222 FFF7FEFF 		bl	buffer_append_int16
 875              	.LVL79:
 876              		.loc 1 1398 0
 877 0226 FFF7FEFF 		bl	mc_interface_get_pid_pos_now
 878              	.LVL80:
 879 022a 20EE0A0A 		vmul.f32	s0, s0, s20
 880 022e 02AA     		add	r2, sp, #8
 881 0230 BDEEC00A 		vcvt.s32.f32	s0, s0
 882 0234 04A8     		add	r0, sp, #16
 883 0236 10EE103A 		vmov	r3, s0	@ int
 884 023a 19B2     		sxth	r1, r3
 885 023c FFF7FEFF 		bl	buffer_append_int16
 886              	.LVL81:
 887              		.loc 1 1399 0
 888 0240 2078     		ldrb	r0, [r4]	@ zero_extendqisi2
 889 0242 9DF80820 		ldrb	r2, [sp, #8]	@ zero_extendqisi2
 890 0246 40F48050 		orr	r0, r0, #4096
 891 024a 04A9     		add	r1, sp, #16
 892 024c FFF7FEFF 		bl	comm_can_transmit_eid
 893              	.LVL82:
 894              	.LBE197:
 895              		.loc 1 1404 0
 896 0250 237B     		ldrb	r3, [r4, #12]	@ zero_extendqisi2
 897 0252 052B     		cmp	r3, #5
 898 0254 7FF41EAF 		bne	.L40
 899              	.LBB198:
 900              		.loc 1 1405 0
 901 0258 0197     		str	r7, [sp, #4]
 902              		.loc 1 1409 0
 903 025a FFF7FEFF 		bl	mc_interface_get_odo_value
 904              	.LVL83:
 905 025e 01AA     		add	r2, sp, #4
 906 0260 0146     		mov	r1, r0
 907 0262 02A8     		add	r0, sp, #8
 908 0264 FFF7FEFF 		bl	buffer_append_uint32
 909              	.LVL84:
 910              		.loc 1 1410 0
 911 0268 F38A     		ldrh	r3, [r6, #22]
 912 026a 07EE903A 		vmov	s15, r3	@ int
ARM GAS  /tmp/ccj2MYXE.s 			page 17


 913 026e F8EE677A 		vcvt.f32.u32	s15, s15
 914 0272 01AA     		add	r2, sp, #4
 915 0274 67EE8B7A 		vmul.f32	s15, s15, s22
 916 0278 02A8     		add	r0, sp, #8
 917 027a 67EEAA7A 		vmul.f32	s15, s15, s21
 918 027e 67EE887A 		vmul.f32	s15, s15, s16
 919 0282 FDEEE77A 		vcvt.s32.f32	s15, s15
 920 0286 17EE903A 		vmov	r3, s15	@ int
 921 028a 19B2     		sxth	r1, r3
 922 028c FFF7FEFF 		bl	buffer_append_int16
 923              	.LVL85:
 924              		.loc 1 1411 0
 925 0290 FFF7FEFF 		bl	imu_get_yaw
 926              	.LVL86:
 927 0294 20EE290A 		vmul.f32	s0, s0, s19
 928 0298 01AA     		add	r2, sp, #4
 929 029a C0EE097A 		vdiv.f32	s15, s0, s18
 930 029e 02A8     		add	r0, sp, #8
 931 02a0 67EEA87A 		vmul.f32	s15, s15, s17
 932 02a4 FDEEE77A 		vcvt.s32.f32	s15, s15
 933 02a8 17EE903A 		vmov	r3, s15	@ int
 934 02ac 19B2     		sxth	r1, r3
 935 02ae FFF7FEFF 		bl	buffer_append_int16
 936              	.LVL87:
 937              		.loc 1 1412 0
 938 02b2 2078     		ldrb	r0, [r4]	@ zero_extendqisi2
 939 02b4 9DF80420 		ldrb	r2, [sp, #4]	@ zero_extendqisi2
 940 02b8 02A9     		add	r1, sp, #8
 941 02ba 40F4D850 		orr	r0, r0, #6912
 942 02be FFF7FEFF 		bl	comm_can_transmit_eid
 943              	.LVL88:
 944              		.loc 1 1417 0
 945 02c2 0197     		str	r7, [sp, #4]
 946              		.loc 1 1418 0
 947 02c4 FFF7FEFF 		bl	mc_interface_get_max_proz_now
 948              	.LVL89:
 949 02c8 20EE080A 		vmul.f32	s0, s0, s16
 950 02cc 01AA     		add	r2, sp, #4
 951 02ce BDEEC00A 		vcvt.s32.f32	s0, s0
 952 02d2 02A8     		add	r0, sp, #8
 953 02d4 10EE103A 		vmov	r3, s0	@ int
 954 02d8 19B2     		sxth	r1, r3
 955 02da FFF7FEFF 		bl	buffer_append_int16
 956              	.LVL90:
 957              		.loc 1 1419 0
 958 02de FFF7FEFF 		bl	mc_interface_get_min_proz_now
 959              	.LVL91:
 960 02e2 20EE080A 		vmul.f32	s0, s0, s16
 961 02e6 01AA     		add	r2, sp, #4
 962 02e8 BDEEC00A 		vcvt.s32.f32	s0, s0
 963 02ec 02A8     		add	r0, sp, #8
 964 02ee 10EE103A 		vmov	r3, s0	@ int
 965 02f2 19B2     		sxth	r1, r3
 966 02f4 FFF7FEFF 		bl	buffer_append_int16
 967              	.LVL92:
 968              		.loc 1 1420 0
 969 02f8 FFF7FEFF 		bl	imu_get_roll
ARM GAS  /tmp/ccj2MYXE.s 			page 18


 970              	.LVL93:
 971 02fc 20EE290A 		vmul.f32	s0, s0, s19
 972 0300 01AA     		add	r2, sp, #4
 973 0302 C0EE097A 		vdiv.f32	s15, s0, s18
 974 0306 02A8     		add	r0, sp, #8
 975 0308 67EEA87A 		vmul.f32	s15, s15, s17
 976 030c FDEEE77A 		vcvt.s32.f32	s15, s15
 977 0310 17EE903A 		vmov	r3, s15	@ int
 978 0314 19B2     		sxth	r1, r3
 979 0316 FFF7FEFF 		bl	buffer_append_int16
 980              	.LVL94:
 981              		.loc 1 1421 0
 982 031a FFF7FEFF 		bl	imu_get_pitch
 983              	.LVL95:
 984 031e 20EE290A 		vmul.f32	s0, s0, s19
 985 0322 01AA     		add	r2, sp, #4
 986 0324 C0EE097A 		vdiv.f32	s15, s0, s18
 987 0328 02A8     		add	r0, sp, #8
 988 032a 67EEA87A 		vmul.f32	s15, s15, s17
 989 032e FDEEE77A 		vcvt.s32.f32	s15, s15
 990 0332 17EE903A 		vmov	r3, s15	@ int
 991 0336 19B2     		sxth	r1, r3
 992 0338 FFF7FEFF 		bl	buffer_append_int16
 993              	.LVL96:
 994              		.loc 1 1422 0
 995 033c 2078     		ldrb	r0, [r4]	@ zero_extendqisi2
 996 033e 9DF80420 		ldrb	r2, [sp, #4]	@ zero_extendqisi2
 997 0342 02A9     		add	r1, sp, #8
 998 0344 40F41450 		orr	r0, r0, #9472
 999 0348 FFF7FEFF 		bl	comm_can_transmit_eid
 1000              	.LVL97:
 1001              		.loc 1 1428 0
 1002 034c 45F67123 		movw	r3, #23153
 1003 0350 ADF81030 		strh	r3, [sp, #16]	@ movhi
 1004              		.loc 1 1430 0
 1005 0354 FFF7FEFF 		bl	mc_interface_get_fault
 1006              	.LVL98:
 1007              		.loc 1 1435 0
 1008 0358 2B78     		ldrb	r3, [r5]	@ zero_extendqisi2
 1009              		.loc 1 1430 0
 1010 035a 8DF81200 		strb	r0, [sp, #18]
 1011              		.loc 1 1431 0
 1012 035e 8DF81370 		strb	r7, [sp, #19]
 1013              		.loc 1 1432 0
 1014 0362 8DF81470 		strb	r7, [sp, #20]
 1015              		.loc 1 1433 0
 1016 0366 8DF81570 		strb	r7, [sp, #21]
 1017              		.loc 1 1434 0
 1018 036a 8DF81670 		strb	r7, [sp, #22]
 1019              		.loc 1 1435 0
 1020 036e 8DF81730 		strb	r3, [sp, #23]
 1021              		.loc 1 1436 0
 1022 0372 2078     		ldrb	r0, [r4]	@ zero_extendqisi2
 1023 0374 0822     		movs	r2, #8
 1024 0376 40F41C50 		orr	r0, r0, #9984
 1025 037a 04A9     		add	r1, sp, #16
 1026 037c FFF7FEFF 		bl	comm_can_transmit_eid
ARM GAS  /tmp/ccj2MYXE.s 			page 19


 1027              	.LVL99:
 1028 0380 88E6     		b	.L40
 1029              	.LBE198:
 1030              	.LBE200:
 1031              		.cfi_endproc
 1032              	.LFE292:
 1033              		.size	cancom_status_thread, .-cancom_status_thread
 1034 0382 00BF     		.section	.text.comm_can_transmit_sid,"ax",%progbits
 1035              		.align	1
 1036              		.p2align 4,,15
 1037              		.global	comm_can_transmit_sid
 1038              		.syntax unified
 1039              		.thumb
 1040              		.thumb_func
 1041              		.fpu fpv4-sp-d16
 1042              		.type	comm_can_transmit_sid, %function
 1043              	comm_can_transmit_sid:
 1044              	.LFB259:
 1045              		.loc 1 167 0
 1046              		.cfi_startproc
 1047              		@ args = 0, pretend = 0, frame = 16
 1048              		@ frame_needed = 0, uses_anonymous_args = 0
 1049              	.LVL100:
 1050 0000 70B5     		push	{r4, r5, r6, lr}
 1051              		.cfi_def_cfa_offset 16
 1052              		.cfi_offset 4, -16
 1053              		.cfi_offset 5, -12
 1054              		.cfi_offset 6, -8
 1055              		.cfi_offset 14, -4
 1056 0002 84B0     		sub	sp, sp, #16
 1057              		.cfi_def_cfa_offset 32
 1058 0004 082A     		cmp	r2, #8
 1059              		.loc 1 174 0
 1060 0006 9DF80030 		ldrb	r3, [sp]	@ zero_extendqisi2
 1061              		.loc 1 175 0
 1062 000a BDF80460 		ldrh	r6, [sp, #4]
 1063              		.loc 1 180 0
 1064 000e 0F4D     		ldr	r5, .L56
 1065 0010 28BF     		it	cs
 1066 0012 0822     		movcs	r2, #8
 1067              	.LVL101:
 1068              		.loc 1 177 0
 1069 0014 04AC     		add	r4, sp, #16
 1070 0016 03F0CF03 		and	r3, r3, #207
 1071 001a 62F30303 		bfi	r3, r2, #0, #4
 1072 001e 04F8103D 		strb	r3, [r4, #-16]!
 1073              		.loc 1 175 0
 1074 0022 60F30A06 		bfi	r6, r0, #0, #11
 1075              		.loc 1 178 0
 1076 0026 02A8     		add	r0, sp, #8
 1077              	.LVL102:
 1078              		.loc 1 175 0
 1079 0028 ADF80460 		strh	r6, [sp, #4]	@ movhi
 1080              		.loc 1 178 0
 1081 002c FFF7FEFF 		bl	memcpy
 1082              	.LVL103:
 1083              		.loc 1 180 0
ARM GAS  /tmp/ccj2MYXE.s 			page 20


 1084 0030 2846     		mov	r0, r5
 1085 0032 FFF7FEFF 		bl	chMtxLock
 1086              	.LVL104:
 1087              		.loc 1 181 0
 1088 0036 2246     		mov	r2, r4
 1089 0038 3223     		movs	r3, #50
 1090 003a 0021     		movs	r1, #0
 1091 003c 0448     		ldr	r0, .L56+4
 1092 003e FFF7FEFF 		bl	canTransmit
 1093              	.LVL105:
 1094              		.loc 1 182 0
 1095 0042 2846     		mov	r0, r5
 1096 0044 FFF7FEFF 		bl	chMtxUnlock
 1097              	.LVL106:
 1098              		.loc 1 188 0
 1099 0048 04B0     		add	sp, sp, #16
 1100              		.cfi_def_cfa_offset 16
 1101              		@ sp needed
 1102 004a 70BD     		pop	{r4, r5, r6, pc}
 1103              	.L57:
 1104              		.align	2
 1105              	.L56:
 1106 004c 00000000 		.word	.LANCHOR9
 1107 0050 00000000 		.word	CAND1
 1108              		.cfi_endproc
 1109              	.LFE259:
 1110              		.size	comm_can_transmit_sid, .-comm_can_transmit_sid
 1111              		.section	.text.comm_can_set_sid_rx_callback,"ax",%progbits
 1112              		.align	1
 1113              		.p2align 4,,15
 1114              		.global	comm_can_set_sid_rx_callback
 1115              		.syntax unified
 1116              		.thumb
 1117              		.thumb_func
 1118              		.fpu fpv4-sp-d16
 1119              		.type	comm_can_set_sid_rx_callback, %function
 1120              	comm_can_set_sid_rx_callback:
 1121              	.LFB260:
 1122              		.loc 1 196 0
 1123              		.cfi_startproc
 1124              		@ args = 0, pretend = 0, frame = 0
 1125              		@ frame_needed = 0, uses_anonymous_args = 0
 1126              		@ link register save eliminated.
 1127              	.LVL107:
 1128              		.loc 1 197 0
 1129 0000 014B     		ldr	r3, .L59
 1130 0002 1860     		str	r0, [r3]
 1131              		.loc 1 198 0
 1132 0004 7047     		bx	lr
 1133              	.L60:
 1134 0006 00BF     		.align	2
 1135              	.L59:
 1136 0008 00000000 		.word	.LANCHOR14
 1137              		.cfi_endproc
 1138              	.LFE260:
 1139              		.size	comm_can_set_sid_rx_callback, .-comm_can_set_sid_rx_callback
 1140              		.section	.text.comm_can_send_buffer,"ax",%progbits
ARM GAS  /tmp/ccj2MYXE.s 			page 21


 1141              		.align	1
 1142              		.p2align 4,,15
 1143              		.global	comm_can_send_buffer
 1144              		.syntax unified
 1145              		.thumb
 1146              		.thumb_func
 1147              		.fpu fpv4-sp-d16
 1148              		.type	comm_can_send_buffer, %function
 1149              	comm_can_send_buffer:
 1150              	.LFB261:
 1151              		.loc 1 220 0
 1152              		.cfi_startproc
 1153              		@ args = 0, pretend = 0, frame = 24
 1154              		@ frame_needed = 0, uses_anonymous_args = 0
 1155              	.LVL108:
 1156 0000 2DE9F04F 		push	{r4, r5, r6, r7, r8, r9, r10, fp, lr}
 1157              		.cfi_def_cfa_offset 36
 1158              		.cfi_offset 4, -36
 1159              		.cfi_offset 5, -32
 1160              		.cfi_offset 6, -28
 1161              		.cfi_offset 7, -24
 1162              		.cfi_offset 8, -20
 1163              		.cfi_offset 9, -16
 1164              		.cfi_offset 10, -12
 1165              		.cfi_offset 11, -8
 1166              		.cfi_offset 14, -4
 1167 0004 87B0     		sub	sp, sp, #28
 1168              		.cfi_def_cfa_offset 64
 1169              		.loc 1 223 0
 1170 0006 062A     		cmp	r2, #6
 1171              		.loc 1 220 0
 1172 0008 1546     		mov	r5, r2
 1173 000a 8246     		mov	r10, r0
 1174 000c 0E46     		mov	r6, r1
 1175 000e 0193     		str	r3, [sp, #4]
 1176              		.loc 1 223 0
 1177 0010 45D9     		bls	.L62
 1178 0012 D3B2     		uxtb	r3, r2
 1179              	.LVL109:
 1180 0014 40F4A067 		orr	r7, r0, #1280
 1181 0018 0293     		str	r3, [sp, #8]
 1182              	.LBB211:
 1183              	.LBB212:
 1184              	.LBB213:
 1185              		.loc 1 232 0
 1186 001a 0021     		movs	r1, #0
 1187              	.LVL110:
 1188              	.LBB214:
 1189              	.LBB215:
 1190              		.loc 1 234 0
 1191 001c 40F20318 		movw	r8, #259
 1192 0020 01E0     		b	.L63
 1193              	.LVL111:
 1194              	.L68:
 1195 0022 4445     		cmp	r4, r8
 1196 0024 53D0     		beq	.L65
 1197              	.LVL112:
ARM GAS  /tmp/ccj2MYXE.s 			page 22


 1198              	.L63:
 1199              		.loc 1 238 0
 1200 0026 CC1D     		adds	r4, r1, #7
 1201              	.LVL113:
 1202 0028 5FFA84F9 		uxtb	r9, r4
 1203              		.loc 1 241 0
 1204 002c A9F10703 		sub	r3, r9, #7
 1205              		.loc 1 243 0
 1206 0030 A542     		cmp	r5, r4
 1207 0032 3144     		add	r1, r1, r6
 1208              		.loc 1 241 0
 1209 0034 8DF81030 		strb	r3, [sp, #16]
 1210              		.loc 1 243 0
 1211 0038 7DD3     		bcc	.L66
 1212              		.loc 1 244 0
 1213 003a 8A88     		ldrh	r2, [r1, #4]	@ unaligned
 1214 003c 0868     		ldr	r0, [r1]	@ unaligned
 1215 003e 8B79     		ldrb	r3, [r1, #6]	@ zero_extendqisi2
 1216 0040 ADF81520 		strh	r2, [sp, #21]	@ unaligned
 1217 0044 CDF81100 		str	r0, [sp, #17]	@ unaligned
 1218 0048 8DF81730 		strb	r3, [sp, #23]
 1219 004c 0822     		movs	r2, #8
 1220              	.LVL114:
 1221              	.L67:
 1222              		.loc 1 250 0
 1223 004e 04A9     		add	r1, sp, #16
 1224 0050 3846     		mov	r0, r7
 1225 0052 FFF7FEFF 		bl	comm_can_transmit_eid
 1226              	.LVL115:
 1227              	.LBE215:
 1228              		.loc 1 233 0
 1229 0056 A542     		cmp	r5, r4
 1230 0058 2146     		mov	r1, r4
 1231 005a E2D8     		bhi	.L68
 1232              	.LVL116:
 1233              	.L69:
 1234              	.LBE214:
 1235              		.loc 1 271 0
 1236 005c FFF7FEFF 		bl	app_get_configuration
 1237              	.LVL117:
 1238              		.loc 1 272 0
 1239 0060 019A     		ldr	r2, [sp, #4]
 1240              		.loc 1 271 0
 1241 0062 0378     		ldrb	r3, [r0]	@ zero_extendqisi2
 1242 0064 8DF81030 		strb	r3, [sp, #16]
 1243              	.LVL118:
 1244              		.loc 1 275 0
 1245 0068 2946     		mov	r1, r5
 1246              		.loc 1 273 0
 1247 006a 2B0A     		lsrs	r3, r5, #8
 1248              		.loc 1 272 0
 1249 006c 8DF81120 		strb	r2, [sp, #17]
 1250              	.LVL119:
 1251              		.loc 1 275 0
 1252 0070 3046     		mov	r0, r6
 1253              		.loc 1 274 0
 1254 0072 029A     		ldr	r2, [sp, #8]
ARM GAS  /tmp/ccj2MYXE.s 			page 23


 1255 0074 8DF81320 		strb	r2, [sp, #19]
 1256              		.loc 1 273 0
 1257 0078 8DF81230 		strb	r3, [sp, #18]
 1258              	.LVL120:
 1259              		.loc 1 275 0
 1260 007c FFF7FEFF 		bl	crc16
 1261              	.LVL121:
 1262              		.loc 1 279 0
 1263 0080 04A9     		add	r1, sp, #16
 1264              		.loc 1 275 0
 1265 0082 0346     		mov	r3, r0
 1266              	.LVL122:
 1267              		.loc 1 276 0
 1268 0084 040A     		lsrs	r4, r0, #8
 1269              		.loc 1 279 0
 1270 0086 0622     		movs	r2, #6
 1271 0088 4AF4E060 		orr	r0, r10, #1792
 1272              	.LVL123:
 1273              		.loc 1 277 0
 1274 008c 8DF81530 		strb	r3, [sp, #21]
 1275              		.loc 1 276 0
 1276 0090 8DF81440 		strb	r4, [sp, #20]
 1277              	.LVL124:
 1278              		.loc 1 279 0
 1279 0094 FFF7FEFF 		bl	comm_can_transmit_eid
 1280              	.LVL125:
 1281              	.LBE213:
 1282              	.LBE212:
 1283              	.LBE211:
 1284              		.loc 1 282 0
 1285 0098 07B0     		add	sp, sp, #28
 1286              		.cfi_remember_state
 1287              		.cfi_def_cfa_offset 36
 1288              		@ sp needed
 1289 009a BDE8F08F 		pop	{r4, r5, r6, r7, r8, r9, r10, fp, pc}
 1290              	.LVL126:
 1291              	.L62:
 1292              		.cfi_restore_state
 1293              	.LBB223:
 1294              		.loc 1 225 0
 1295 009e FFF7FEFF 		bl	app_get_configuration
 1296              	.LVL127:
 1297 00a2 0378     		ldrb	r3, [r0]	@ zero_extendqisi2
 1298 00a4 8DF81030 		strb	r3, [sp, #16]
 1299              	.LVL128:
 1300              		.loc 1 227 0
 1301 00a8 3146     		mov	r1, r6
 1302              		.loc 1 226 0
 1303 00aa 019B     		ldr	r3, [sp, #4]
 1304 00ac 8DF81130 		strb	r3, [sp, #17]
 1305              		.loc 1 227 0
 1306 00b0 2A46     		mov	r2, r5
 1307 00b2 0DF11200 		add	r0, sp, #18
 1308 00b6 FFF7FEFF 		bl	memcpy
 1309              	.LVL129:
 1310              		.loc 1 228 0
 1311 00ba AA1C     		adds	r2, r5, #2
ARM GAS  /tmp/ccj2MYXE.s 			page 24


 1312              	.LVL130:
 1313              		.loc 1 229 0
 1314 00bc D2B2     		uxtb	r2, r2
 1315              	.LVL131:
 1316 00be 4AF40060 		orr	r0, r10, #2048
 1317 00c2 04A9     		add	r1, sp, #16
 1318 00c4 FFF7FEFF 		bl	comm_can_transmit_eid
 1319              	.LVL132:
 1320              	.LBE223:
 1321              		.loc 1 282 0
 1322 00c8 07B0     		add	sp, sp, #28
 1323              		.cfi_remember_state
 1324              		.cfi_def_cfa_offset 36
 1325              		@ sp needed
 1326 00ca BDE8F08F 		pop	{r4, r5, r6, r7, r8, r9, r10, fp, pc}
 1327              	.LVL133:
 1328              	.L65:
 1329              		.cfi_restore_state
 1330              	.LBB224:
 1331              	.LBB222:
 1332              	.LBB221:
 1333              	.LBB217:
 1334              	.LBB218:
 1335              		.loc 1 263 0
 1336 00ce 029B     		ldr	r3, [sp, #8]
 1337 00d0 0396     		str	r6, [sp, #12]
 1338 00d2 9F1D     		adds	r7, r3, #6
 1339 00d4 0833     		adds	r3, r3, #8
 1340 00d6 4AF4C069 		orr	r9, r10, #1536
 1341 00da A6F10608 		sub	r8, r6, #6
 1342 00de 9B46     		mov	fp, r3
 1343 00e0 0CE0     		b	.L72
 1344              	.LVL134:
 1345              	.L76:
 1346              		.loc 1 260 0
 1347 00e2 0A68     		ldr	r2, [r1]	@ unaligned
 1348 00e4 8B88     		ldrh	r3, [r1, #4]	@ unaligned
 1349 00e6 CDF81220 		str	r2, [sp, #18]	@ unaligned
 1350              		.loc 1 266 0
 1351 00ea 04A9     		add	r1, sp, #16
 1352              		.loc 1 260 0
 1353 00ec 0822     		movs	r2, #8
 1354              		.loc 1 266 0
 1355 00ee 4846     		mov	r0, r9
 1356              		.loc 1 260 0
 1357 00f0 ADF81630 		strh	r3, [sp, #22]	@ unaligned
 1358              		.loc 1 266 0
 1359 00f4 FFF7FEFF 		bl	comm_can_transmit_eid
 1360              	.LVL135:
 1361              	.LBE218:
 1362              		.loc 1 254 0
 1363 00f8 A542     		cmp	r5, r4
 1364 00fa 1AD9     		bls	.L75
 1365              	.LVL136:
 1366              	.L72:
 1367              	.LBB219:
 1368              		.loc 1 256 0
ARM GAS  /tmp/ccj2MYXE.s 			page 25


 1369 00fc 220A     		lsrs	r2, r4, #8
 1370              		.loc 1 257 0
 1371 00fe 8DF81140 		strb	r4, [sp, #17]
 1372              		.loc 1 259 0
 1373 0102 0634     		adds	r4, r4, #6
 1374              	.LVL137:
 1375 0104 E6B2     		uxtb	r6, r4
 1376              	.LVL138:
 1377 0106 A542     		cmp	r5, r4
 1378              		.loc 1 256 0
 1379 0108 8DF81020 		strb	r2, [sp, #16]
 1380 010c 08EB0401 		add	r1, r8, r4
 1381              		.loc 1 263 0
 1382 0110 A7EB0602 		sub	r2, r7, r6
 1383              		.loc 1 259 0
 1384 0114 E5D2     		bcs	.L76
 1385              		.loc 1 263 0
 1386 0116 D2B2     		uxtb	r2, r2
 1387 0118 0DF11200 		add	r0, sp, #18
 1388 011c FFF7FEFF 		bl	memcpy
 1389              	.LVL139:
 1390 0120 ABEB0602 		sub	r2, fp, r6
 1391 0124 D2B2     		uxtb	r2, r2
 1392              		.loc 1 266 0
 1393 0126 04A9     		add	r1, sp, #16
 1394 0128 4846     		mov	r0, r9
 1395 012a FFF7FEFF 		bl	comm_can_transmit_eid
 1396              	.LVL140:
 1397              	.LBE219:
 1398              		.loc 1 254 0
 1399 012e A542     		cmp	r5, r4
 1400 0130 E4D8     		bhi	.L72
 1401              	.L75:
 1402 0132 039E     		ldr	r6, [sp, #12]
 1403 0134 92E7     		b	.L69
 1404              	.LVL141:
 1405              	.L66:
 1406              	.LBE217:
 1407              	.LBB220:
 1408              	.LBB216:
 1409              		.loc 1 247 0
 1410 0136 029B     		ldr	r3, [sp, #8]
 1411 0138 C9F10702 		rsb	r2, r9, #7
 1412 013c 1A44     		add	r2, r2, r3
 1413 013e D2B2     		uxtb	r2, r2
 1414 0140 0DF11100 		add	r0, sp, #17
 1415 0144 FFF7FEFF 		bl	memcpy
 1416              	.LVL142:
 1417 0148 029B     		ldr	r3, [sp, #8]
 1418 014a C9F10802 		rsb	r2, r9, #8
 1419 014e 1A44     		add	r2, r2, r3
 1420 0150 D2B2     		uxtb	r2, r2
 1421 0152 7CE7     		b	.L67
 1422              	.LBE216:
 1423              	.LBE220:
 1424              	.LBE221:
 1425              	.LBE222:
ARM GAS  /tmp/ccj2MYXE.s 			page 26


 1426              	.LBE224:
 1427              		.cfi_endproc
 1428              	.LFE261:
 1429              		.size	comm_can_send_buffer, .-comm_can_send_buffer
 1430              		.section	.text.send_packet_wrapper,"ax",%progbits
 1431              		.align	1
 1432              		.p2align 4,,15
 1433              		.syntax unified
 1434              		.thumb
 1435              		.thumb_func
 1436              		.fpu fpv4-sp-d16
 1437              		.type	send_packet_wrapper, %function
 1438              	send_packet_wrapper:
 1439              	.LFB293:
 1440              		.loc 1 1451 0
 1441              		.cfi_startproc
 1442              		@ args = 0, pretend = 0, frame = 0
 1443              		@ frame_needed = 0, uses_anonymous_args = 0
 1444              		@ link register save eliminated.
 1445              	.LVL143:
 1446 0000 10B4     		push	{r4}
 1447              		.cfi_def_cfa_offset 4
 1448              		.cfi_offset 4, -4
 1449              		.loc 1 1452 0
 1450 0002 044C     		ldr	r4, .L79
 1451 0004 0A46     		mov	r2, r1
 1452 0006 0123     		movs	r3, #1
 1453 0008 0146     		mov	r1, r0
 1454              	.LVL144:
 1455 000a 2078     		ldrb	r0, [r4]	@ zero_extendqisi2
 1456              	.LVL145:
 1457              		.loc 1 1453 0
 1458 000c 5DF8044B 		ldr	r4, [sp], #4
 1459              		.cfi_restore 4
 1460              		.cfi_def_cfa_offset 0
 1461              		.loc 1 1452 0
 1462 0010 FFF7FEBF 		b	comm_can_send_buffer
 1463              	.LVL146:
 1464              	.L80:
 1465              		.align	2
 1466              	.L79:
 1467 0014 00000000 		.word	.LANCHOR15
 1468              		.cfi_endproc
 1469              	.LFE293:
 1470              		.size	send_packet_wrapper, .-send_packet_wrapper
 1471              		.section	.text.comm_can_set_duty,"ax",%progbits
 1472              		.align	1
 1473              		.p2align 4,,15
 1474              		.global	comm_can_set_duty
 1475              		.syntax unified
 1476              		.thumb
 1477              		.thumb_func
 1478              		.fpu fpv4-sp-d16
 1479              		.type	comm_can_set_duty, %function
 1480              	comm_can_set_duty:
 1481              	.LFB262:
 1482              		.loc 1 284 0
ARM GAS  /tmp/ccj2MYXE.s 			page 27


 1483              		.cfi_startproc
 1484              		@ args = 0, pretend = 0, frame = 8
 1485              		@ frame_needed = 0, uses_anonymous_args = 0
 1486              	.LVL147:
 1487 0000 10B5     		push	{r4, lr}
 1488              		.cfi_def_cfa_offset 8
 1489              		.cfi_offset 4, -8
 1490              		.cfi_offset 14, -4
 1491              		.loc 1 287 0
 1492 0002 DFED0C7A 		vldr.32	s15, .L83
 1493 0006 20EE270A 		vmul.f32	s0, s0, s15
 1494              	.LVL148:
 1495              		.loc 1 284 0
 1496 000a 82B0     		sub	sp, sp, #8
 1497              		.cfi_def_cfa_offset 16
 1498              		.loc 1 285 0
 1499 000c 02AA     		add	r2, sp, #8
 1500              		.loc 1 287 0
 1501 000e FDEEC07A 		vcvt.s32.f32	s15, s0
 1502              		.loc 1 285 0
 1503 0012 0023     		movs	r3, #0
 1504 0014 42F8083D 		str	r3, [r2, #-8]!
 1505              		.loc 1 287 0
 1506 0018 17EE901A 		vmov	r1, s15	@ int
 1507              		.loc 1 284 0
 1508 001c 0446     		mov	r4, r0
 1509              		.loc 1 287 0
 1510 001e 01A8     		add	r0, sp, #4
 1511              	.LVL149:
 1512 0020 FFF7FEFF 		bl	buffer_append_int32
 1513              	.LVL150:
 1514              		.loc 1 288 0
 1515 0024 01A9     		add	r1, sp, #4
 1516 0026 2046     		mov	r0, r4
 1517 0028 9DF80020 		ldrb	r2, [sp]	@ zero_extendqisi2
 1518 002c FFF7FEFF 		bl	comm_can_transmit_eid
 1519              	.LVL151:
 1520              		.loc 1 290 0
 1521 0030 02B0     		add	sp, sp, #8
 1522              		.cfi_def_cfa_offset 8
 1523              		@ sp needed
 1524 0032 10BD     		pop	{r4, pc}
 1525              	.L84:
 1526              		.align	2
 1527              	.L83:
 1528 0034 0050C347 		.word	1203982336
 1529              		.cfi_endproc
 1530              	.LFE262:
 1531              		.size	comm_can_set_duty, .-comm_can_set_duty
 1532              		.section	.text.comm_can_set_current,"ax",%progbits
 1533              		.align	1
 1534              		.p2align 4,,15
 1535              		.global	comm_can_set_current
 1536              		.syntax unified
 1537              		.thumb
 1538              		.thumb_func
 1539              		.fpu fpv4-sp-d16
ARM GAS  /tmp/ccj2MYXE.s 			page 28


 1540              		.type	comm_can_set_current, %function
 1541              	comm_can_set_current:
 1542              	.LFB263:
 1543              		.loc 1 292 0
 1544              		.cfi_startproc
 1545              		@ args = 0, pretend = 0, frame = 8
 1546              		@ frame_needed = 0, uses_anonymous_args = 0
 1547              	.LVL152:
 1548 0000 10B5     		push	{r4, lr}
 1549              		.cfi_def_cfa_offset 8
 1550              		.cfi_offset 4, -8
 1551              		.cfi_offset 14, -4
 1552              		.loc 1 295 0
 1553 0002 DFED0D7A 		vldr.32	s15, .L87
 1554 0006 20EE270A 		vmul.f32	s0, s0, s15
 1555              	.LVL153:
 1556              		.loc 1 292 0
 1557 000a 82B0     		sub	sp, sp, #8
 1558              		.cfi_def_cfa_offset 16
 1559              		.loc 1 293 0
 1560 000c 02AA     		add	r2, sp, #8
 1561              		.loc 1 295 0
 1562 000e FDEEC07A 		vcvt.s32.f32	s15, s0
 1563              		.loc 1 293 0
 1564 0012 0023     		movs	r3, #0
 1565 0014 42F8083D 		str	r3, [r2, #-8]!
 1566              		.loc 1 295 0
 1567 0018 17EE901A 		vmov	r1, s15	@ int
 1568              		.loc 1 292 0
 1569 001c 0446     		mov	r4, r0
 1570              		.loc 1 295 0
 1571 001e 01A8     		add	r0, sp, #4
 1572              	.LVL154:
 1573 0020 FFF7FEFF 		bl	buffer_append_int32
 1574              	.LVL155:
 1575              		.loc 1 296 0
 1576 0024 01A9     		add	r1, sp, #4
 1577 0026 44F48070 		orr	r0, r4, #256
 1578 002a 9DF80020 		ldrb	r2, [sp]	@ zero_extendqisi2
 1579 002e FFF7FEFF 		bl	comm_can_transmit_eid
 1580              	.LVL156:
 1581              		.loc 1 298 0
 1582 0032 02B0     		add	sp, sp, #8
 1583              		.cfi_def_cfa_offset 8
 1584              		@ sp needed
 1585 0034 10BD     		pop	{r4, pc}
 1586              	.L88:
 1587 0036 00BF     		.align	2
 1588              	.L87:
 1589 0038 00007A44 		.word	1148846080
 1590              		.cfi_endproc
 1591              	.LFE263:
 1592              		.size	comm_can_set_current, .-comm_can_set_current
 1593              		.section	.text.comm_can_set_current_brake,"ax",%progbits
 1594              		.align	1
 1595              		.p2align 4,,15
 1596              		.global	comm_can_set_current_brake
ARM GAS  /tmp/ccj2MYXE.s 			page 29


 1597              		.syntax unified
 1598              		.thumb
 1599              		.thumb_func
 1600              		.fpu fpv4-sp-d16
 1601              		.type	comm_can_set_current_brake, %function
 1602              	comm_can_set_current_brake:
 1603              	.LFB264:
 1604              		.loc 1 300 0
 1605              		.cfi_startproc
 1606              		@ args = 0, pretend = 0, frame = 8
 1607              		@ frame_needed = 0, uses_anonymous_args = 0
 1608              	.LVL157:
 1609 0000 10B5     		push	{r4, lr}
 1610              		.cfi_def_cfa_offset 8
 1611              		.cfi_offset 4, -8
 1612              		.cfi_offset 14, -4
 1613              		.loc 1 303 0
 1614 0002 DFED0D7A 		vldr.32	s15, .L91
 1615 0006 20EE270A 		vmul.f32	s0, s0, s15
 1616              	.LVL158:
 1617              		.loc 1 300 0
 1618 000a 82B0     		sub	sp, sp, #8
 1619              		.cfi_def_cfa_offset 16
 1620              		.loc 1 301 0
 1621 000c 02AA     		add	r2, sp, #8
 1622              		.loc 1 303 0
 1623 000e FDEEC07A 		vcvt.s32.f32	s15, s0
 1624              		.loc 1 301 0
 1625 0012 0023     		movs	r3, #0
 1626 0014 42F8083D 		str	r3, [r2, #-8]!
 1627              		.loc 1 303 0
 1628 0018 17EE901A 		vmov	r1, s15	@ int
 1629              		.loc 1 300 0
 1630 001c 0446     		mov	r4, r0
 1631              		.loc 1 303 0
 1632 001e 01A8     		add	r0, sp, #4
 1633              	.LVL159:
 1634 0020 FFF7FEFF 		bl	buffer_append_int32
 1635              	.LVL160:
 1636              		.loc 1 304 0
 1637 0024 01A9     		add	r1, sp, #4
 1638 0026 44F40070 		orr	r0, r4, #512
 1639 002a 9DF80020 		ldrb	r2, [sp]	@ zero_extendqisi2
 1640 002e FFF7FEFF 		bl	comm_can_transmit_eid
 1641              	.LVL161:
 1642              		.loc 1 306 0
 1643 0032 02B0     		add	sp, sp, #8
 1644              		.cfi_def_cfa_offset 8
 1645              		@ sp needed
 1646 0034 10BD     		pop	{r4, pc}
 1647              	.L92:
 1648 0036 00BF     		.align	2
 1649              	.L91:
 1650 0038 00007A44 		.word	1148846080
 1651              		.cfi_endproc
 1652              	.LFE264:
 1653              		.size	comm_can_set_current_brake, .-comm_can_set_current_brake
ARM GAS  /tmp/ccj2MYXE.s 			page 30


 1654              		.section	.text.comm_can_set_rpm,"ax",%progbits
 1655              		.align	1
 1656              		.p2align 4,,15
 1657              		.global	comm_can_set_rpm
 1658              		.syntax unified
 1659              		.thumb
 1660              		.thumb_func
 1661              		.fpu fpv4-sp-d16
 1662              		.type	comm_can_set_rpm, %function
 1663              	comm_can_set_rpm:
 1664              	.LFB265:
 1665              		.loc 1 308 0
 1666              		.cfi_startproc
 1667              		@ args = 0, pretend = 0, frame = 8
 1668              		@ frame_needed = 0, uses_anonymous_args = 0
 1669              	.LVL162:
 1670 0000 10B5     		push	{r4, lr}
 1671              		.cfi_def_cfa_offset 8
 1672              		.cfi_offset 4, -8
 1673              		.cfi_offset 14, -4
 1674 0002 82B0     		sub	sp, sp, #8
 1675              		.cfi_def_cfa_offset 16
 1676              		.loc 1 309 0
 1677 0004 02AA     		add	r2, sp, #8
 1678              		.loc 1 311 0
 1679 0006 FDEEC07A 		vcvt.s32.f32	s15, s0
 1680              		.loc 1 309 0
 1681 000a 0023     		movs	r3, #0
 1682 000c 42F8083D 		str	r3, [r2, #-8]!
 1683              		.loc 1 311 0
 1684 0010 17EE901A 		vmov	r1, s15	@ int
 1685              		.loc 1 308 0
 1686 0014 0446     		mov	r4, r0
 1687              		.loc 1 311 0
 1688 0016 01A8     		add	r0, sp, #4
 1689              	.LVL163:
 1690 0018 FFF7FEFF 		bl	buffer_append_int32
 1691              	.LVL164:
 1692              		.loc 1 312 0
 1693 001c 01A9     		add	r1, sp, #4
 1694 001e 44F44070 		orr	r0, r4, #768
 1695 0022 9DF80020 		ldrb	r2, [sp]	@ zero_extendqisi2
 1696 0026 FFF7FEFF 		bl	comm_can_transmit_eid
 1697              	.LVL165:
 1698              		.loc 1 314 0
 1699 002a 02B0     		add	sp, sp, #8
 1700              		.cfi_def_cfa_offset 8
 1701              		@ sp needed
 1702 002c 10BD     		pop	{r4, pc}
 1703              		.cfi_endproc
 1704              	.LFE265:
 1705              		.size	comm_can_set_rpm, .-comm_can_set_rpm
 1706 002e 00BF     		.section	.text.comm_can_set_pos,"ax",%progbits
 1707              		.align	1
 1708              		.p2align 4,,15
 1709              		.global	comm_can_set_pos
 1710              		.syntax unified
ARM GAS  /tmp/ccj2MYXE.s 			page 31


 1711              		.thumb
 1712              		.thumb_func
 1713              		.fpu fpv4-sp-d16
 1714              		.type	comm_can_set_pos, %function
 1715              	comm_can_set_pos:
 1716              	.LFB266:
 1717              		.loc 1 316 0
 1718              		.cfi_startproc
 1719              		@ args = 0, pretend = 0, frame = 8
 1720              		@ frame_needed = 0, uses_anonymous_args = 0
 1721              	.LVL166:
 1722 0000 10B5     		push	{r4, lr}
 1723              		.cfi_def_cfa_offset 8
 1724              		.cfi_offset 4, -8
 1725              		.cfi_offset 14, -4
 1726              		.loc 1 319 0
 1727 0002 DFED0D7A 		vldr.32	s15, .L97
 1728 0006 20EE270A 		vmul.f32	s0, s0, s15
 1729              	.LVL167:
 1730              		.loc 1 316 0
 1731 000a 82B0     		sub	sp, sp, #8
 1732              		.cfi_def_cfa_offset 16
 1733              		.loc 1 317 0
 1734 000c 02AA     		add	r2, sp, #8
 1735              		.loc 1 319 0
 1736 000e FDEEC07A 		vcvt.s32.f32	s15, s0
 1737              		.loc 1 317 0
 1738 0012 0023     		movs	r3, #0
 1739 0014 42F8083D 		str	r3, [r2, #-8]!
 1740              		.loc 1 319 0
 1741 0018 17EE901A 		vmov	r1, s15	@ int
 1742              		.loc 1 316 0
 1743 001c 0446     		mov	r4, r0
 1744              		.loc 1 319 0
 1745 001e 01A8     		add	r0, sp, #4
 1746              	.LVL168:
 1747 0020 FFF7FEFF 		bl	buffer_append_int32
 1748              	.LVL169:
 1749              		.loc 1 320 0
 1750 0024 01A9     		add	r1, sp, #4
 1751 0026 44F48060 		orr	r0, r4, #1024
 1752 002a 9DF80020 		ldrb	r2, [sp]	@ zero_extendqisi2
 1753 002e FFF7FEFF 		bl	comm_can_transmit_eid
 1754              	.LVL170:
 1755              		.loc 1 322 0
 1756 0032 02B0     		add	sp, sp, #8
 1757              		.cfi_def_cfa_offset 8
 1758              		@ sp needed
 1759 0034 10BD     		pop	{r4, pc}
 1760              	.L98:
 1761 0036 00BF     		.align	2
 1762              	.L97:
 1763 0038 00247449 		.word	1232348160
 1764              		.cfi_endproc
 1765              	.LFE266:
 1766              		.size	comm_can_set_pos, .-comm_can_set_pos
 1767              		.section	.text.comm_can_set_current_rel,"ax",%progbits
ARM GAS  /tmp/ccj2MYXE.s 			page 32


 1768              		.align	1
 1769              		.p2align 4,,15
 1770              		.global	comm_can_set_current_rel
 1771              		.syntax unified
 1772              		.thumb
 1773              		.thumb_func
 1774              		.fpu fpv4-sp-d16
 1775              		.type	comm_can_set_current_rel, %function
 1776              	comm_can_set_current_rel:
 1777              	.LFB267:
 1778              		.loc 1 333 0
 1779              		.cfi_startproc
 1780              		@ args = 0, pretend = 0, frame = 8
 1781              		@ frame_needed = 0, uses_anonymous_args = 0
 1782              	.LVL171:
 1783 0000 10B5     		push	{r4, lr}
 1784              		.cfi_def_cfa_offset 8
 1785              		.cfi_offset 4, -8
 1786              		.cfi_offset 14, -4
 1787 0002 82B0     		sub	sp, sp, #8
 1788              		.cfi_def_cfa_offset 16
 1789              		.loc 1 334 0
 1790 0004 02A9     		add	r1, sp, #8
 1791 0006 0023     		movs	r3, #0
 1792 0008 41F8083D 		str	r3, [r1, #-8]!
 1793              		.loc 1 333 0
 1794 000c 0446     		mov	r4, r0
 1795              		.loc 1 336 0
 1796 000e DFED070A 		vldr.32	s1, .L101
 1797 0012 01A8     		add	r0, sp, #4
 1798              	.LVL172:
 1799 0014 FFF7FEFF 		bl	buffer_append_float32
 1800              	.LVL173:
 1801              		.loc 1 337 0
 1802 0018 01A9     		add	r1, sp, #4
 1803 001a 44F42060 		orr	r0, r4, #2560
 1804 001e 9DF80020 		ldrb	r2, [sp]	@ zero_extendqisi2
 1805 0022 FFF7FEFF 		bl	comm_can_transmit_eid
 1806              	.LVL174:
 1807              		.loc 1 339 0
 1808 0026 02B0     		add	sp, sp, #8
 1809              		.cfi_def_cfa_offset 8
 1810              		@ sp needed
 1811 0028 10BD     		pop	{r4, pc}
 1812              	.L102:
 1813 002a 00BF     		.align	2
 1814              	.L101:
 1815 002c 0050C347 		.word	1203982336
 1816              		.cfi_endproc
 1817              	.LFE267:
 1818              		.size	comm_can_set_current_rel, .-comm_can_set_current_rel
 1819              		.section	.text.comm_can_set_current_brake_rel,"ax",%progbits
 1820              		.align	1
 1821              		.p2align 4,,15
 1822              		.global	comm_can_set_current_brake_rel
 1823              		.syntax unified
 1824              		.thumb
ARM GAS  /tmp/ccj2MYXE.s 			page 33


 1825              		.thumb_func
 1826              		.fpu fpv4-sp-d16
 1827              		.type	comm_can_set_current_brake_rel, %function
 1828              	comm_can_set_current_brake_rel:
 1829              	.LFB268:
 1830              		.loc 1 350 0
 1831              		.cfi_startproc
 1832              		@ args = 0, pretend = 0, frame = 8
 1833              		@ frame_needed = 0, uses_anonymous_args = 0
 1834              	.LVL175:
 1835 0000 10B5     		push	{r4, lr}
 1836              		.cfi_def_cfa_offset 8
 1837              		.cfi_offset 4, -8
 1838              		.cfi_offset 14, -4
 1839 0002 82B0     		sub	sp, sp, #8
 1840              		.cfi_def_cfa_offset 16
 1841              		.loc 1 351 0
 1842 0004 02A9     		add	r1, sp, #8
 1843 0006 0023     		movs	r3, #0
 1844 0008 41F8083D 		str	r3, [r1, #-8]!
 1845              		.loc 1 350 0
 1846 000c 0446     		mov	r4, r0
 1847              		.loc 1 353 0
 1848 000e DFED070A 		vldr.32	s1, .L105
 1849 0012 01A8     		add	r0, sp, #4
 1850              	.LVL176:
 1851 0014 FFF7FEFF 		bl	buffer_append_float32
 1852              	.LVL177:
 1853              		.loc 1 354 0
 1854 0018 01A9     		add	r1, sp, #4
 1855 001a 44F43060 		orr	r0, r4, #2816
 1856 001e 9DF80020 		ldrb	r2, [sp]	@ zero_extendqisi2
 1857 0022 FFF7FEFF 		bl	comm_can_transmit_eid
 1858              	.LVL178:
 1859              		.loc 1 356 0
 1860 0026 02B0     		add	sp, sp, #8
 1861              		.cfi_def_cfa_offset 8
 1862              		@ sp needed
 1863 0028 10BD     		pop	{r4, pc}
 1864              	.L106:
 1865 002a 00BF     		.align	2
 1866              	.L105:
 1867 002c 0050C347 		.word	1203982336
 1868              		.cfi_endproc
 1869              	.LFE268:
 1870              		.size	comm_can_set_current_brake_rel, .-comm_can_set_current_brake_rel
 1871              		.section	.text.comm_can_set_handbrake,"ax",%progbits
 1872              		.align	1
 1873              		.p2align 4,,15
 1874              		.global	comm_can_set_handbrake
 1875              		.syntax unified
 1876              		.thumb
 1877              		.thumb_func
 1878              		.fpu fpv4-sp-d16
 1879              		.type	comm_can_set_handbrake, %function
 1880              	comm_can_set_handbrake:
 1881              	.LFB269:
ARM GAS  /tmp/ccj2MYXE.s 			page 34


 1882              		.loc 1 367 0
 1883              		.cfi_startproc
 1884              		@ args = 0, pretend = 0, frame = 8
 1885              		@ frame_needed = 0, uses_anonymous_args = 0
 1886              	.LVL179:
 1887 0000 10B5     		push	{r4, lr}
 1888              		.cfi_def_cfa_offset 8
 1889              		.cfi_offset 4, -8
 1890              		.cfi_offset 14, -4
 1891 0002 82B0     		sub	sp, sp, #8
 1892              		.cfi_def_cfa_offset 16
 1893              		.loc 1 368 0
 1894 0004 02A9     		add	r1, sp, #8
 1895 0006 0023     		movs	r3, #0
 1896 0008 41F8083D 		str	r3, [r1, #-8]!
 1897              		.loc 1 367 0
 1898 000c 0446     		mov	r4, r0
 1899              		.loc 1 370 0
 1900 000e DFED070A 		vldr.32	s1, .L109
 1901 0012 01A8     		add	r0, sp, #4
 1902              	.LVL180:
 1903 0014 FFF7FEFF 		bl	buffer_append_float32
 1904              	.LVL181:
 1905              		.loc 1 371 0
 1906 0018 01A9     		add	r1, sp, #4
 1907 001a 44F44060 		orr	r0, r4, #3072
 1908 001e 9DF80020 		ldrb	r2, [sp]	@ zero_extendqisi2
 1909 0022 FFF7FEFF 		bl	comm_can_transmit_eid
 1910              	.LVL182:
 1911              		.loc 1 373 0
 1912 0026 02B0     		add	sp, sp, #8
 1913              		.cfi_def_cfa_offset 8
 1914              		@ sp needed
 1915 0028 10BD     		pop	{r4, pc}
 1916              	.L110:
 1917 002a 00BF     		.align	2
 1918              	.L109:
 1919 002c 00007A44 		.word	1148846080
 1920              		.cfi_endproc
 1921              	.LFE269:
 1922              		.size	comm_can_set_handbrake, .-comm_can_set_handbrake
 1923              		.section	.text.comm_can_set_handbrake_rel,"ax",%progbits
 1924              		.align	1
 1925              		.p2align 4,,15
 1926              		.global	comm_can_set_handbrake_rel
 1927              		.syntax unified
 1928              		.thumb
 1929              		.thumb_func
 1930              		.fpu fpv4-sp-d16
 1931              		.type	comm_can_set_handbrake_rel, %function
 1932              	comm_can_set_handbrake_rel:
 1933              	.LFB270:
 1934              		.loc 1 384 0
 1935              		.cfi_startproc
 1936              		@ args = 0, pretend = 0, frame = 8
 1937              		@ frame_needed = 0, uses_anonymous_args = 0
 1938              	.LVL183:
ARM GAS  /tmp/ccj2MYXE.s 			page 35


 1939 0000 10B5     		push	{r4, lr}
 1940              		.cfi_def_cfa_offset 8
 1941              		.cfi_offset 4, -8
 1942              		.cfi_offset 14, -4
 1943 0002 82B0     		sub	sp, sp, #8
 1944              		.cfi_def_cfa_offset 16
 1945              		.loc 1 385 0
 1946 0004 02A9     		add	r1, sp, #8
 1947 0006 0023     		movs	r3, #0
 1948 0008 41F8083D 		str	r3, [r1, #-8]!
 1949              		.loc 1 384 0
 1950 000c 0446     		mov	r4, r0
 1951              		.loc 1 387 0
 1952 000e DFED070A 		vldr.32	s1, .L113
 1953 0012 01A8     		add	r0, sp, #4
 1954              	.LVL184:
 1955 0014 FFF7FEFF 		bl	buffer_append_float32
 1956              	.LVL185:
 1957              		.loc 1 388 0
 1958 0018 01A9     		add	r1, sp, #4
 1959 001a 44F45060 		orr	r0, r4, #3328
 1960 001e 9DF80020 		ldrb	r2, [sp]	@ zero_extendqisi2
 1961 0022 FFF7FEFF 		bl	comm_can_transmit_eid
 1962              	.LVL186:
 1963              		.loc 1 390 0
 1964 0026 02B0     		add	sp, sp, #8
 1965              		.cfi_def_cfa_offset 8
 1966              		@ sp needed
 1967 0028 10BD     		pop	{r4, pc}
 1968              	.L114:
 1969 002a 00BF     		.align	2
 1970              	.L113:
 1971 002c 0050C347 		.word	1203982336
 1972              		.cfi_endproc
 1973              	.LFE270:
 1974              		.size	comm_can_set_handbrake_rel, .-comm_can_set_handbrake_rel
 1975              		.section	.text.comm_can_ping,"ax",%progbits
 1976              		.align	1
 1977              		.p2align 4,,15
 1978              		.global	comm_can_ping
 1979              		.syntax unified
 1980              		.thumb
 1981              		.thumb_func
 1982              		.fpu fpv4-sp-d16
 1983              		.type	comm_can_ping, %function
 1984              	comm_can_ping:
 1985              	.LFB271:
 1986              		.loc 1 401 0
 1987              		.cfi_startproc
 1988              		@ args = 0, pretend = 0, frame = 8
 1989              		@ frame_needed = 0, uses_anonymous_args = 0
 1990              	.LVL187:
 1991 0000 30B5     		push	{r4, r5, lr}
 1992              		.cfi_def_cfa_offset 12
 1993              		.cfi_offset 4, -12
 1994              		.cfi_offset 5, -8
 1995              		.cfi_offset 14, -4
ARM GAS  /tmp/ccj2MYXE.s 			page 36


 1996              	.LBB225:
 1997              	.LBB226:
 1998              		.loc 4 176 0
 1999 0002 104B     		ldr	r3, .L117
 2000              	.LBE226:
 2001              	.LBE225:
 2002              		.loc 1 403 0
 2003 0004 104C     		ldr	r4, .L117+4
 2004 0006 9B69     		ldr	r3, [r3, #24]
 2005 0008 2360     		str	r3, [r4]
 2006              		.loc 1 401 0
 2007 000a 83B0     		sub	sp, sp, #12
 2008              		.cfi_def_cfa_offset 24
 2009              		.loc 1 401 0
 2010 000c 0546     		mov	r5, r0
 2011              		.loc 1 404 0
 2012 000e 4FF0FF30 		mov	r0, #-1
 2013              	.LVL188:
 2014 0012 FFF7FEFF 		bl	chEvtGetAndClearEvents
 2015              	.LVL189:
 2016              		.loc 1 407 0
 2017 0016 FFF7FEFF 		bl	app_get_configuration
 2018              	.LVL190:
 2019 001a 02A9     		add	r1, sp, #8
 2020 001c 0378     		ldrb	r3, [r0]	@ zero_extendqisi2
 2021 001e 01F8043D 		strb	r3, [r1, #-4]!
 2022              		.loc 1 408 0
 2023 0022 45F48850 		orr	r0, r5, #4352
 2024 0026 0122     		movs	r2, #1
 2025 0028 FFF7FEFF 		bl	comm_can_transmit_eid
 2026              	.LVL191:
 2027              		.loc 1 411 0
 2028 002c 6421     		movs	r1, #100
 2029 002e 4FF00050 		mov	r0, #536870912
 2030 0032 FFF7FEFF 		bl	chEvtWaitAnyTimeout
 2031              	.LVL192:
 2032              		.loc 1 412 0
 2033 0036 0023     		movs	r3, #0
 2034              		.loc 1 418 0
 2035 0038 C01A     		subs	r0, r0, r3
 2036 003a 18BF     		it	ne
 2037 003c 0120     		movne	r0, #1
 2038              	.LVL193:
 2039              		.loc 1 412 0
 2040 003e 2360     		str	r3, [r4]
 2041              		.loc 1 418 0
 2042 0040 03B0     		add	sp, sp, #12
 2043              		.cfi_def_cfa_offset 12
 2044              		@ sp needed
 2045 0042 30BD     		pop	{r4, r5, pc}
 2046              	.L118:
 2047              		.align	2
 2048              	.L117:
 2049 0044 00000000 		.word	ch
 2050 0048 00000000 		.word	.LANCHOR16
 2051              		.cfi_endproc
 2052              	.LFE271:
ARM GAS  /tmp/ccj2MYXE.s 			page 37


 2053              		.size	comm_can_ping, .-comm_can_ping
 2054              		.section	.text.comm_can_detect_apply_all_foc,"ax",%progbits
 2055              		.align	1
 2056              		.p2align 4,,15
 2057              		.global	comm_can_detect_apply_all_foc
 2058              		.syntax unified
 2059              		.thumb
 2060              		.thumb_func
 2061              		.fpu fpv4-sp-d16
 2062              		.type	comm_can_detect_apply_all_foc, %function
 2063              	comm_can_detect_apply_all_foc:
 2064              	.LFB272:
 2065              		.loc 1 432 0
 2066              		.cfi_startproc
 2067              		@ args = 0, pretend = 0, frame = 16
 2068              		@ frame_needed = 0, uses_anonymous_args = 0
 2069              	.LVL194:
 2070 0000 30B5     		push	{r4, r5, lr}
 2071              		.cfi_def_cfa_offset 12
 2072              		.cfi_offset 4, -12
 2073              		.cfi_offset 5, -8
 2074              		.cfi_offset 14, -4
 2075 0002 2DED028B 		vpush.64	{d8}
 2076              		.cfi_def_cfa_offset 20
 2077              		.cfi_offset 80, -20
 2078              		.cfi_offset 81, -16
 2079 0006 85B0     		sub	sp, sp, #20
 2080              		.cfi_def_cfa_offset 40
 2081              		.loc 1 433 0
 2082 0008 0023     		movs	r3, #0
 2083              		.loc 1 432 0
 2084 000a 0D46     		mov	r5, r1
 2085 000c 0446     		mov	r4, r0
 2086 000e B0EE408A 		vmov.f32	s16, s0
 2087              		.loc 1 433 0
 2088 0012 0193     		str	r3, [sp, #4]
 2089              		.loc 1 435 0
 2090 0014 FFF7FEFF 		bl	app_get_configuration
 2091              	.LVL195:
 2092 0018 019B     		ldr	r3, [sp, #4]
 2093 001a 0278     		ldrb	r2, [r0]	@ zero_extendqisi2
 2094              		.loc 1 437 0
 2095 001c DFED0D0A 		vldr.32	s1, .L121
 2096              		.loc 1 436 0
 2097 0020 04A9     		add	r1, sp, #16
 2098 0022 981C     		adds	r0, r3, #2
 2099 0024 41F80C0D 		str	r0, [r1, #-12]!
 2100              		.loc 1 435 0
 2101 0028 04A8     		add	r0, sp, #16
 2102 002a 0344     		add	r3, r3, r0
 2103              		.loc 1 437 0
 2104 002c B0EE480A 		vmov.f32	s0, s16
 2105 0030 02A8     		add	r0, sp, #8
 2106              		.loc 1 435 0
 2107 0032 03F8082C 		strb	r2, [r3, #-8]
 2108              		.loc 1 436 0
 2109 0036 03F8075C 		strb	r5, [r3, #-7]
ARM GAS  /tmp/ccj2MYXE.s 			page 38


 2110              		.loc 1 437 0
 2111 003a FFF7FEFF 		bl	buffer_append_float32
 2112              	.LVL196:
 2113              		.loc 1 438 0
 2114 003e 02A9     		add	r1, sp, #8
 2115 0040 44F49850 		orr	r0, r4, #4864
 2116 0044 9DF80420 		ldrb	r2, [sp, #4]	@ zero_extendqisi2
 2117 0048 FFF7FEFF 		bl	comm_can_transmit_eid
 2118              	.LVL197:
 2119              		.loc 1 440 0
 2120 004c 05B0     		add	sp, sp, #20
 2121              		.cfi_def_cfa_offset 20
 2122              		@ sp needed
 2123 004e BDEC028B 		vldm	sp!, {d8}
 2124              		.cfi_restore 80
 2125              		.cfi_restore 81
 2126              		.cfi_def_cfa_offset 12
 2127              	.LVL198:
 2128 0052 30BD     		pop	{r4, r5, pc}
 2129              	.L122:
 2130              		.align	2
 2131              	.L121:
 2132 0054 00007A44 		.word	1148846080
 2133              		.cfi_endproc
 2134              	.LFE272:
 2135              		.size	comm_can_detect_apply_all_foc, .-comm_can_detect_apply_all_foc
 2136              		.section	.text.comm_can_conf_current_limits,"ax",%progbits
 2137              		.align	1
 2138              		.p2align 4,,15
 2139              		.global	comm_can_conf_current_limits
 2140              		.syntax unified
 2141              		.thumb
 2142              		.thumb_func
 2143              		.fpu fpv4-sp-d16
 2144              		.type	comm_can_conf_current_limits, %function
 2145              	comm_can_conf_current_limits:
 2146              	.LFB273:
 2147              		.loc 1 458 0
 2148              		.cfi_startproc
 2149              		@ args = 0, pretend = 0, frame = 16
 2150              		@ frame_needed = 0, uses_anonymous_args = 0
 2151              	.LVL199:
 2152 0000 70B5     		push	{r4, r5, r6, lr}
 2153              		.cfi_def_cfa_offset 16
 2154              		.cfi_offset 4, -16
 2155              		.cfi_offset 5, -12
 2156              		.cfi_offset 6, -8
 2157              		.cfi_offset 14, -4
 2158 0002 2DED028B 		vpush.64	{d8}
 2159              		.cfi_def_cfa_offset 24
 2160              		.cfi_offset 80, -24
 2161              		.cfi_offset 81, -20
 2162 0006 84B0     		sub	sp, sp, #16
 2163              		.cfi_def_cfa_offset 40
 2164              		.loc 1 459 0
 2165 0008 04AC     		add	r4, sp, #16
 2166 000a 0023     		movs	r3, #0
ARM GAS  /tmp/ccj2MYXE.s 			page 39


 2167 000c 44F80C3D 		str	r3, [r4, #-12]!
 2168              		.loc 1 458 0
 2169 0010 B0EE608A 		vmov.f32	s16, s1
 2170 0014 0546     		mov	r5, r0
 2171 0016 0E46     		mov	r6, r1
 2172              		.loc 1 461 0
 2173 0018 02A8     		add	r0, sp, #8
 2174              	.LVL200:
 2175 001a 2146     		mov	r1, r4
 2176              	.LVL201:
 2177 001c DFED0D0A 		vldr.32	s1, .L127
 2178              	.LVL202:
 2179 0020 FFF7FEFF 		bl	buffer_append_float32
 2180              	.LVL203:
 2181              		.loc 1 462 0
 2182 0024 02A8     		add	r0, sp, #8
 2183 0026 2146     		mov	r1, r4
 2184 0028 B0EE480A 		vmov.f32	s0, s16
 2185 002c DFED090A 		vldr.32	s1, .L127
 2186 0030 FFF7FEFF 		bl	buffer_append_float32
 2187              	.LVL204:
 2188              		.loc 1 465 0
 2189 0034 002E     		cmp	r6, #0
 2190 0036 14BF     		ite	ne
 2191 0038 4FF4B050 		movne	r0, #5632
 2192 003c 4FF4A850 		moveq	r0, #5376
 2193              		.loc 1 463 0
 2194 0040 02A9     		add	r1, sp, #8
 2195 0042 2843     		orrs	r0, r0, r5
 2196 0044 9DF80420 		ldrb	r2, [sp, #4]	@ zero_extendqisi2
 2197 0048 FFF7FEFF 		bl	comm_can_transmit_eid
 2198              	.LVL205:
 2199              		.loc 1 466 0
 2200 004c 04B0     		add	sp, sp, #16
 2201              		.cfi_def_cfa_offset 24
 2202              		@ sp needed
 2203 004e BDEC028B 		vldm	sp!, {d8}
 2204              		.cfi_restore 80
 2205              		.cfi_restore 81
 2206              		.cfi_def_cfa_offset 16
 2207              	.LVL206:
 2208 0052 70BD     		pop	{r4, r5, r6, pc}
 2209              	.L128:
 2210              		.align	2
 2211              	.L127:
 2212 0054 00007A44 		.word	1148846080
 2213              		.cfi_endproc
 2214              	.LFE273:
 2215              		.size	comm_can_conf_current_limits, .-comm_can_conf_current_limits
 2216              		.section	.text.comm_can_conf_current_limits_in,"ax",%progbits
 2217              		.align	1
 2218              		.p2align 4,,15
 2219              		.global	comm_can_conf_current_limits_in
 2220              		.syntax unified
 2221              		.thumb
 2222              		.thumb_func
 2223              		.fpu fpv4-sp-d16
ARM GAS  /tmp/ccj2MYXE.s 			page 40


 2224              		.type	comm_can_conf_current_limits_in, %function
 2225              	comm_can_conf_current_limits_in:
 2226              	.LFB274:
 2227              		.loc 1 484 0
 2228              		.cfi_startproc
 2229              		@ args = 0, pretend = 0, frame = 16
 2230              		@ frame_needed = 0, uses_anonymous_args = 0
 2231              	.LVL207:
 2232 0000 70B5     		push	{r4, r5, r6, lr}
 2233              		.cfi_def_cfa_offset 16
 2234              		.cfi_offset 4, -16
 2235              		.cfi_offset 5, -12
 2236              		.cfi_offset 6, -8
 2237              		.cfi_offset 14, -4
 2238 0002 2DED028B 		vpush.64	{d8}
 2239              		.cfi_def_cfa_offset 24
 2240              		.cfi_offset 80, -24
 2241              		.cfi_offset 81, -20
 2242 0006 84B0     		sub	sp, sp, #16
 2243              		.cfi_def_cfa_offset 40
 2244              		.loc 1 485 0
 2245 0008 04AC     		add	r4, sp, #16
 2246 000a 0023     		movs	r3, #0
 2247 000c 44F80C3D 		str	r3, [r4, #-12]!
 2248              		.loc 1 484 0
 2249 0010 B0EE608A 		vmov.f32	s16, s1
 2250 0014 0546     		mov	r5, r0
 2251 0016 0E46     		mov	r6, r1
 2252              		.loc 1 487 0
 2253 0018 02A8     		add	r0, sp, #8
 2254              	.LVL208:
 2255 001a 2146     		mov	r1, r4
 2256              	.LVL209:
 2257 001c DFED0D0A 		vldr.32	s1, .L133
 2258              	.LVL210:
 2259 0020 FFF7FEFF 		bl	buffer_append_float32
 2260              	.LVL211:
 2261              		.loc 1 488 0
 2262 0024 02A8     		add	r0, sp, #8
 2263 0026 2146     		mov	r1, r4
 2264 0028 B0EE480A 		vmov.f32	s0, s16
 2265 002c DFED090A 		vldr.32	s1, .L133
 2266 0030 FFF7FEFF 		bl	buffer_append_float32
 2267              	.LVL212:
 2268              		.loc 1 491 0
 2269 0034 002E     		cmp	r6, #0
 2270 0036 14BF     		ite	ne
 2271 0038 4FF4C050 		movne	r0, #6144
 2272 003c 4FF4B850 		moveq	r0, #5888
 2273              		.loc 1 489 0
 2274 0040 02A9     		add	r1, sp, #8
 2275 0042 2843     		orrs	r0, r0, r5
 2276 0044 9DF80420 		ldrb	r2, [sp, #4]	@ zero_extendqisi2
 2277 0048 FFF7FEFF 		bl	comm_can_transmit_eid
 2278              	.LVL213:
 2279              		.loc 1 492 0
 2280 004c 04B0     		add	sp, sp, #16
ARM GAS  /tmp/ccj2MYXE.s 			page 41


 2281              		.cfi_def_cfa_offset 24
 2282              		@ sp needed
 2283 004e BDEC028B 		vldm	sp!, {d8}
 2284              		.cfi_restore 80
 2285              		.cfi_restore 81
 2286              		.cfi_def_cfa_offset 16
 2287              	.LVL214:
 2288 0052 70BD     		pop	{r4, r5, r6, pc}
 2289              	.L134:
 2290              		.align	2
 2291              	.L133:
 2292 0054 00007A44 		.word	1148846080
 2293              		.cfi_endproc
 2294              	.LFE274:
 2295              		.size	comm_can_conf_current_limits_in, .-comm_can_conf_current_limits_in
 2296              		.section	.text.comm_can_conf_foc_erpms,"ax",%progbits
 2297              		.align	1
 2298              		.p2align 4,,15
 2299              		.global	comm_can_conf_foc_erpms
 2300              		.syntax unified
 2301              		.thumb
 2302              		.thumb_func
 2303              		.fpu fpv4-sp-d16
 2304              		.type	comm_can_conf_foc_erpms, %function
 2305              	comm_can_conf_foc_erpms:
 2306              	.LFB275:
 2307              		.loc 1 510 0
 2308              		.cfi_startproc
 2309              		@ args = 0, pretend = 0, frame = 16
 2310              		@ frame_needed = 0, uses_anonymous_args = 0
 2311              	.LVL215:
 2312 0000 70B5     		push	{r4, r5, r6, lr}
 2313              		.cfi_def_cfa_offset 16
 2314              		.cfi_offset 4, -16
 2315              		.cfi_offset 5, -12
 2316              		.cfi_offset 6, -8
 2317              		.cfi_offset 14, -4
 2318 0002 2DED028B 		vpush.64	{d8}
 2319              		.cfi_def_cfa_offset 24
 2320              		.cfi_offset 80, -24
 2321              		.cfi_offset 81, -20
 2322 0006 84B0     		sub	sp, sp, #16
 2323              		.cfi_def_cfa_offset 40
 2324              		.loc 1 511 0
 2325 0008 04AC     		add	r4, sp, #16
 2326 000a 0023     		movs	r3, #0
 2327 000c 44F80C3D 		str	r3, [r4, #-12]!
 2328              		.loc 1 510 0
 2329 0010 B0EE608A 		vmov.f32	s16, s1
 2330 0014 0546     		mov	r5, r0
 2331 0016 0E46     		mov	r6, r1
 2332              		.loc 1 513 0
 2333 0018 02A8     		add	r0, sp, #8
 2334              	.LVL216:
 2335 001a 2146     		mov	r1, r4
 2336              	.LVL217:
 2337 001c DFED0D0A 		vldr.32	s1, .L139
ARM GAS  /tmp/ccj2MYXE.s 			page 42


 2338              	.LVL218:
 2339 0020 FFF7FEFF 		bl	buffer_append_float32
 2340              	.LVL219:
 2341              		.loc 1 514 0
 2342 0024 02A8     		add	r0, sp, #8
 2343 0026 2146     		mov	r1, r4
 2344 0028 B0EE480A 		vmov.f32	s0, s16
 2345 002c DFED090A 		vldr.32	s1, .L139
 2346 0030 FFF7FEFF 		bl	buffer_append_float32
 2347              	.LVL220:
 2348              		.loc 1 517 0
 2349 0034 002E     		cmp	r6, #0
 2350 0036 14BF     		ite	ne
 2351 0038 4FF4D050 		movne	r0, #6656
 2352 003c 4FF4C850 		moveq	r0, #6400
 2353              		.loc 1 515 0
 2354 0040 02A9     		add	r1, sp, #8
 2355 0042 2843     		orrs	r0, r0, r5
 2356 0044 9DF80420 		ldrb	r2, [sp, #4]	@ zero_extendqisi2
 2357 0048 FFF7FEFF 		bl	comm_can_transmit_eid
 2358              	.LVL221:
 2359              		.loc 1 518 0
 2360 004c 04B0     		add	sp, sp, #16
 2361              		.cfi_def_cfa_offset 24
 2362              		@ sp needed
 2363 004e BDEC028B 		vldm	sp!, {d8}
 2364              		.cfi_restore 80
 2365              		.cfi_restore 81
 2366              		.cfi_def_cfa_offset 16
 2367              	.LVL222:
 2368 0052 70BD     		pop	{r4, r5, r6, pc}
 2369              	.L140:
 2370              		.align	2
 2371              	.L139:
 2372 0054 00007A44 		.word	1148846080
 2373              		.cfi_endproc
 2374              	.LFE275:
 2375              		.size	comm_can_conf_foc_erpms, .-comm_can_conf_foc_erpms
 2376              		.section	.text.comm_can_detect_all_foc_res,"ax",%progbits
 2377              		.align	1
 2378              		.p2align 4,,15
 2379              		.global	comm_can_detect_all_foc_res
 2380              		.syntax unified
 2381              		.thumb
 2382              		.thumb_func
 2383              		.fpu fpv4-sp-d16
 2384              		.type	comm_can_detect_all_foc_res, %function
 2385              	comm_can_detect_all_foc_res:
 2386              	.LFB276:
 2387              		.loc 1 520 0
 2388              		.cfi_startproc
 2389              		@ args = 0, pretend = 0, frame = 0
 2390              		@ frame_needed = 0, uses_anonymous_args = 0
 2391              		@ link register save eliminated.
 2392              	.LVL223:
 2393              		.loc 1 521 0
 2394 0000 034B     		ldr	r3, .L144
ARM GAS  /tmp/ccj2MYXE.s 			page 43


 2395 0002 1B68     		ldr	r3, [r3]
 2396 0004 8342     		cmp	r3, r0
 2397              		.loc 1 522 0
 2398 0006 86BF     		itte	hi
 2399 0008 024A     		ldrhi	r2, .L144+4
 2400 000a D056     		ldrsbhi	r0, [r2, r3]
 2401              	.LVL224:
 2402              		.loc 1 524 0
 2403 000c 0248     		ldrls	r0, .L144+8
 2404              		.loc 1 526 0
 2405 000e 7047     		bx	lr
 2406              	.L145:
 2407              		.align	2
 2408              	.L144:
 2409 0010 00000000 		.word	.LANCHOR17
 2410 0014 00000000 		.word	.LANCHOR18
 2411 0018 19FCFFFF 		.word	-999
 2412              		.cfi_endproc
 2413              	.LFE276:
 2414              		.size	comm_can_detect_all_foc_res, .-comm_can_detect_all_foc_res
 2415              		.section	.text.comm_can_detect_all_foc_res_size,"ax",%progbits
 2416              		.align	1
 2417              		.p2align 4,,15
 2418              		.global	comm_can_detect_all_foc_res_size
 2419              		.syntax unified
 2420              		.thumb
 2421              		.thumb_func
 2422              		.fpu fpv4-sp-d16
 2423              		.type	comm_can_detect_all_foc_res_size, %function
 2424              	comm_can_detect_all_foc_res_size:
 2425              	.LFB277:
 2426              		.loc 1 528 0
 2427              		.cfi_startproc
 2428              		@ args = 0, pretend = 0, frame = 0
 2429              		@ frame_needed = 0, uses_anonymous_args = 0
 2430              		@ link register save eliminated.
 2431              		.loc 1 529 0
 2432 0000 014B     		ldr	r3, .L147
 2433              		.loc 1 530 0
 2434 0002 1868     		ldr	r0, [r3]
 2435 0004 7047     		bx	lr
 2436              	.L148:
 2437 0006 00BF     		.align	2
 2438              	.L147:
 2439 0008 00000000 		.word	.LANCHOR17
 2440              		.cfi_endproc
 2441              	.LFE277:
 2442              		.size	comm_can_detect_all_foc_res_size, .-comm_can_detect_all_foc_res_size
 2443              		.section	.text.comm_can_detect_all_foc_res_clear,"ax",%progbits
 2444              		.align	1
 2445              		.p2align 4,,15
 2446              		.global	comm_can_detect_all_foc_res_clear
 2447              		.syntax unified
 2448              		.thumb
 2449              		.thumb_func
 2450              		.fpu fpv4-sp-d16
 2451              		.type	comm_can_detect_all_foc_res_clear, %function
ARM GAS  /tmp/ccj2MYXE.s 			page 44


 2452              	comm_can_detect_all_foc_res_clear:
 2453              	.LFB278:
 2454              		.loc 1 532 0
 2455              		.cfi_startproc
 2456              		@ args = 0, pretend = 0, frame = 0
 2457              		@ frame_needed = 0, uses_anonymous_args = 0
 2458              		@ link register save eliminated.
 2459              		.loc 1 533 0
 2460 0000 014B     		ldr	r3, .L150
 2461 0002 0022     		movs	r2, #0
 2462 0004 1A60     		str	r2, [r3]
 2463              		.loc 1 534 0
 2464 0006 7047     		bx	lr
 2465              	.L151:
 2466              		.align	2
 2467              	.L150:
 2468 0008 00000000 		.word	.LANCHOR17
 2469              		.cfi_endproc
 2470              	.LFE278:
 2471              		.size	comm_can_detect_all_foc_res_clear, .-comm_can_detect_all_foc_res_clear
 2472              		.section	.text.comm_can_get_status_msg_index,"ax",%progbits
 2473              		.align	1
 2474              		.p2align 4,,15
 2475              		.global	comm_can_get_status_msg_index
 2476              		.syntax unified
 2477              		.thumb
 2478              		.thumb_func
 2479              		.fpu fpv4-sp-d16
 2480              		.type	comm_can_get_status_msg_index, %function
 2481              	comm_can_get_status_msg_index:
 2482              	.LFB279:
 2483              		.loc 1 545 0
 2484              		.cfi_startproc
 2485              		@ args = 0, pretend = 0, frame = 0
 2486              		@ frame_needed = 0, uses_anonymous_args = 0
 2487              		@ link register save eliminated.
 2488              	.LVL225:
 2489              		.loc 1 546 0
 2490 0000 0928     		cmp	r0, #9
 2491              		.loc 1 547 0
 2492 0002 DDBF     		ittte	le
 2493 0004 034B     		ldrle	r3, .L155
 2494 0006 00EB8000 		addle	r0, r0, r0, lsl #2
 2495              	.LVL226:
 2496 000a 03EB8000 		addle	r0, r3, r0, lsl #2
 2497              		.loc 1 549 0
 2498 000e 0020     		movgt	r0, #0
 2499              		.loc 1 551 0
 2500 0010 7047     		bx	lr
 2501              	.L156:
 2502 0012 00BF     		.align	2
 2503              	.L155:
 2504 0014 00000000 		.word	.LANCHOR4
 2505              		.cfi_endproc
 2506              	.LFE279:
 2507              		.size	comm_can_get_status_msg_index, .-comm_can_get_status_msg_index
 2508              		.section	.text.comm_can_get_status_msg_id,"ax",%progbits
ARM GAS  /tmp/ccj2MYXE.s 			page 45


 2509              		.align	1
 2510              		.p2align 4,,15
 2511              		.global	comm_can_get_status_msg_id
 2512              		.syntax unified
 2513              		.thumb
 2514              		.thumb_func
 2515              		.fpu fpv4-sp-d16
 2516              		.type	comm_can_get_status_msg_id, %function
 2517              	comm_can_get_status_msg_id:
 2518              	.LFB280:
 2519              		.loc 1 562 0
 2520              		.cfi_startproc
 2521              		@ args = 0, pretend = 0, frame = 0
 2522              		@ frame_needed = 0, uses_anonymous_args = 0
 2523              		@ link register save eliminated.
 2524              	.LVL227:
 2525 0000 10B4     		push	{r4}
 2526              		.cfi_def_cfa_offset 4
 2527              		.cfi_offset 4, -4
 2528 0002 0B4C     		ldr	r4, .L164
 2529              	.LBB227:
 2530              		.loc 1 563 0
 2531 0004 0023     		movs	r3, #0
 2532 0006 2246     		mov	r2, r4
 2533              	.LVL228:
 2534              	.L160:
 2535              		.loc 1 564 0
 2536 0008 1168     		ldr	r1, [r2]
 2537 000a 8142     		cmp	r1, r0
 2538 000c 02F11402 		add	r2, r2, #20
 2539 0010 06D0     		beq	.L163
 2540              		.loc 1 563 0 discriminator 2
 2541 0012 0133     		adds	r3, r3, #1
 2542              	.LVL229:
 2543 0014 0A2B     		cmp	r3, #10
 2544 0016 F7D1     		bne	.L160
 2545              	.LBE227:
 2546              		.loc 1 569 0
 2547 0018 0020     		movs	r0, #0
 2548              	.LVL230:
 2549              		.loc 1 570 0
 2550 001a 5DF8044B 		ldr	r4, [sp], #4
 2551              		.cfi_remember_state
 2552              		.cfi_restore 4
 2553              		.cfi_def_cfa_offset 0
 2554 001e 7047     		bx	lr
 2555              	.LVL231:
 2556              	.L163:
 2557              		.cfi_restore_state
 2558              	.LBB228:
 2559              		.loc 1 565 0
 2560 0020 03EB8303 		add	r3, r3, r3, lsl #2
 2561              	.LVL232:
 2562 0024 04EB8300 		add	r0, r4, r3, lsl #2
 2563              	.LVL233:
 2564              	.LBE228:
 2565              		.loc 1 570 0
ARM GAS  /tmp/ccj2MYXE.s 			page 46


 2566 0028 5DF8044B 		ldr	r4, [sp], #4
 2567              		.cfi_restore 4
 2568              		.cfi_def_cfa_offset 0
 2569 002c 7047     		bx	lr
 2570              	.L165:
 2571 002e 00BF     		.align	2
 2572              	.L164:
 2573 0030 00000000 		.word	.LANCHOR4
 2574              		.cfi_endproc
 2575              	.LFE280:
 2576              		.size	comm_can_get_status_msg_id, .-comm_can_get_status_msg_id
 2577              		.section	.text.comm_can_get_status_msg_2_index,"ax",%progbits
 2578              		.align	1
 2579              		.p2align 4,,15
 2580              		.global	comm_can_get_status_msg_2_index
 2581              		.syntax unified
 2582              		.thumb
 2583              		.thumb_func
 2584              		.fpu fpv4-sp-d16
 2585              		.type	comm_can_get_status_msg_2_index, %function
 2586              	comm_can_get_status_msg_2_index:
 2587              	.LFB281:
 2588              		.loc 1 581 0
 2589              		.cfi_startproc
 2590              		@ args = 0, pretend = 0, frame = 0
 2591              		@ frame_needed = 0, uses_anonymous_args = 0
 2592              		@ link register save eliminated.
 2593              	.LVL234:
 2594              		.loc 1 582 0
 2595 0000 0928     		cmp	r0, #9
 2596              		.loc 1 583 0
 2597 0002 DABF     		itte	le
 2598 0004 024B     		ldrle	r3, .L169
 2599 0006 03EB0010 		addle	r0, r3, r0, lsl #4
 2600              	.LVL235:
 2601              		.loc 1 585 0
 2602 000a 0020     		movgt	r0, #0
 2603              		.loc 1 587 0
 2604 000c 7047     		bx	lr
 2605              	.L170:
 2606 000e 00BF     		.align	2
 2607              	.L169:
 2608 0010 00000000 		.word	.LANCHOR6
 2609              		.cfi_endproc
 2610              	.LFE281:
 2611              		.size	comm_can_get_status_msg_2_index, .-comm_can_get_status_msg_2_index
 2612              		.section	.text.comm_can_get_status_msg_2_id,"ax",%progbits
 2613              		.align	1
 2614              		.p2align 4,,15
 2615              		.global	comm_can_get_status_msg_2_id
 2616              		.syntax unified
 2617              		.thumb
 2618              		.thumb_func
 2619              		.fpu fpv4-sp-d16
 2620              		.type	comm_can_get_status_msg_2_id, %function
 2621              	comm_can_get_status_msg_2_id:
 2622              	.LFB282:
ARM GAS  /tmp/ccj2MYXE.s 			page 47


 2623              		.loc 1 598 0
 2624              		.cfi_startproc
 2625              		@ args = 0, pretend = 0, frame = 0
 2626              		@ frame_needed = 0, uses_anonymous_args = 0
 2627              		@ link register save eliminated.
 2628              	.LVL236:
 2629 0000 10B4     		push	{r4}
 2630              		.cfi_def_cfa_offset 4
 2631              		.cfi_offset 4, -4
 2632 0002 084C     		ldr	r4, .L178
 2633              	.LBB229:
 2634              		.loc 1 599 0
 2635 0004 0023     		movs	r3, #0
 2636              	.LVL237:
 2637              	.L174:
 2638 0006 1A01     		lsls	r2, r3, #4
 2639 0008 0133     		adds	r3, r3, #1
 2640              	.LVL238:
 2641              		.loc 1 600 0
 2642 000a A158     		ldr	r1, [r4, r2]
 2643 000c 8142     		cmp	r1, r0
 2644 000e 05D0     		beq	.L177
 2645              		.loc 1 599 0 discriminator 2
 2646 0010 0A2B     		cmp	r3, #10
 2647 0012 F8D1     		bne	.L174
 2648              	.LBE229:
 2649              		.loc 1 605 0
 2650 0014 0020     		movs	r0, #0
 2651              	.LVL239:
 2652              		.loc 1 606 0
 2653 0016 5DF8044B 		ldr	r4, [sp], #4
 2654              		.cfi_remember_state
 2655              		.cfi_restore 4
 2656              		.cfi_def_cfa_offset 0
 2657 001a 7047     		bx	lr
 2658              	.LVL240:
 2659              	.L177:
 2660              		.cfi_restore_state
 2661              	.LBB230:
 2662              		.loc 1 601 0
 2663 001c A018     		adds	r0, r4, r2
 2664              	.LVL241:
 2665              	.LBE230:
 2666              		.loc 1 606 0
 2667 001e 5DF8044B 		ldr	r4, [sp], #4
 2668              		.cfi_restore 4
 2669              		.cfi_def_cfa_offset 0
 2670 0022 7047     		bx	lr
 2671              	.L179:
 2672              		.align	2
 2673              	.L178:
 2674 0024 00000000 		.word	.LANCHOR6
 2675              		.cfi_endproc
 2676              	.LFE282:
 2677              		.size	comm_can_get_status_msg_2_id, .-comm_can_get_status_msg_2_id
 2678              		.section	.text.comm_can_get_status_msg_3_index,"ax",%progbits
 2679              		.align	1
ARM GAS  /tmp/ccj2MYXE.s 			page 48


 2680              		.p2align 4,,15
 2681              		.global	comm_can_get_status_msg_3_index
 2682              		.syntax unified
 2683              		.thumb
 2684              		.thumb_func
 2685              		.fpu fpv4-sp-d16
 2686              		.type	comm_can_get_status_msg_3_index, %function
 2687              	comm_can_get_status_msg_3_index:
 2688              	.LFB283:
 2689              		.loc 1 617 0
 2690              		.cfi_startproc
 2691              		@ args = 0, pretend = 0, frame = 0
 2692              		@ frame_needed = 0, uses_anonymous_args = 0
 2693              		@ link register save eliminated.
 2694              	.LVL242:
 2695              		.loc 1 618 0
 2696 0000 0928     		cmp	r0, #9
 2697              		.loc 1 619 0
 2698 0002 DABF     		itte	le
 2699 0004 024B     		ldrle	r3, .L183
 2700 0006 03EB0010 		addle	r0, r3, r0, lsl #4
 2701              	.LVL243:
 2702              		.loc 1 621 0
 2703 000a 0020     		movgt	r0, #0
 2704              		.loc 1 623 0
 2705 000c 7047     		bx	lr
 2706              	.L184:
 2707 000e 00BF     		.align	2
 2708              	.L183:
 2709 0010 00000000 		.word	.LANCHOR7
 2710              		.cfi_endproc
 2711              	.LFE283:
 2712              		.size	comm_can_get_status_msg_3_index, .-comm_can_get_status_msg_3_index
 2713              		.section	.text.comm_can_get_status_msg_3_id,"ax",%progbits
 2714              		.align	1
 2715              		.p2align 4,,15
 2716              		.global	comm_can_get_status_msg_3_id
 2717              		.syntax unified
 2718              		.thumb
 2719              		.thumb_func
 2720              		.fpu fpv4-sp-d16
 2721              		.type	comm_can_get_status_msg_3_id, %function
 2722              	comm_can_get_status_msg_3_id:
 2723              	.LFB284:
 2724              		.loc 1 634 0
 2725              		.cfi_startproc
 2726              		@ args = 0, pretend = 0, frame = 0
 2727              		@ frame_needed = 0, uses_anonymous_args = 0
 2728              		@ link register save eliminated.
 2729              	.LVL244:
 2730 0000 10B4     		push	{r4}
 2731              		.cfi_def_cfa_offset 4
 2732              		.cfi_offset 4, -4
 2733 0002 084C     		ldr	r4, .L192
 2734              	.LBB231:
 2735              		.loc 1 635 0
 2736 0004 0023     		movs	r3, #0
ARM GAS  /tmp/ccj2MYXE.s 			page 49


 2737              	.LVL245:
 2738              	.L188:
 2739 0006 1A01     		lsls	r2, r3, #4
 2740 0008 0133     		adds	r3, r3, #1
 2741              	.LVL246:
 2742              		.loc 1 636 0
 2743 000a A158     		ldr	r1, [r4, r2]
 2744 000c 8142     		cmp	r1, r0
 2745 000e 05D0     		beq	.L191
 2746              		.loc 1 635 0 discriminator 2
 2747 0010 0A2B     		cmp	r3, #10
 2748 0012 F8D1     		bne	.L188
 2749              	.LBE231:
 2750              		.loc 1 641 0
 2751 0014 0020     		movs	r0, #0
 2752              	.LVL247:
 2753              		.loc 1 642 0
 2754 0016 5DF8044B 		ldr	r4, [sp], #4
 2755              		.cfi_remember_state
 2756              		.cfi_restore 4
 2757              		.cfi_def_cfa_offset 0
 2758 001a 7047     		bx	lr
 2759              	.LVL248:
 2760              	.L191:
 2761              		.cfi_restore_state
 2762              	.LBB232:
 2763              		.loc 1 637 0
 2764 001c A018     		adds	r0, r4, r2
 2765              	.LVL249:
 2766              	.LBE232:
 2767              		.loc 1 642 0
 2768 001e 5DF8044B 		ldr	r4, [sp], #4
 2769              		.cfi_restore 4
 2770              		.cfi_def_cfa_offset 0
 2771 0022 7047     		bx	lr
 2772              	.L193:
 2773              		.align	2
 2774              	.L192:
 2775 0024 00000000 		.word	.LANCHOR7
 2776              		.cfi_endproc
 2777              	.LFE284:
 2778              		.size	comm_can_get_status_msg_3_id, .-comm_can_get_status_msg_3_id
 2779              		.section	.text.comm_can_get_status_msg_4_index,"ax",%progbits
 2780              		.align	1
 2781              		.p2align 4,,15
 2782              		.global	comm_can_get_status_msg_4_index
 2783              		.syntax unified
 2784              		.thumb
 2785              		.thumb_func
 2786              		.fpu fpv4-sp-d16
 2787              		.type	comm_can_get_status_msg_4_index, %function
 2788              	comm_can_get_status_msg_4_index:
 2789              	.LFB285:
 2790              		.loc 1 653 0
 2791              		.cfi_startproc
 2792              		@ args = 0, pretend = 0, frame = 0
 2793              		@ frame_needed = 0, uses_anonymous_args = 0
ARM GAS  /tmp/ccj2MYXE.s 			page 50


 2794              		@ link register save eliminated.
 2795              	.LVL250:
 2796              		.loc 1 654 0
 2797 0000 0928     		cmp	r0, #9
 2798              		.loc 1 655 0
 2799 0002 DDBF     		ittte	le
 2800 0004 034B     		ldrle	r3, .L197
 2801 0006 00EB4000 		addle	r0, r0, r0, lsl #1
 2802              	.LVL251:
 2803 000a 03EBC000 		addle	r0, r3, r0, lsl #3
 2804              		.loc 1 657 0
 2805 000e 0020     		movgt	r0, #0
 2806              		.loc 1 659 0
 2807 0010 7047     		bx	lr
 2808              	.L198:
 2809 0012 00BF     		.align	2
 2810              	.L197:
 2811 0014 00000000 		.word	.LANCHOR5
 2812              		.cfi_endproc
 2813              	.LFE285:
 2814              		.size	comm_can_get_status_msg_4_index, .-comm_can_get_status_msg_4_index
 2815              		.section	.text.comm_can_get_status_msg_4_id,"ax",%progbits
 2816              		.align	1
 2817              		.p2align 4,,15
 2818              		.global	comm_can_get_status_msg_4_id
 2819              		.syntax unified
 2820              		.thumb
 2821              		.thumb_func
 2822              		.fpu fpv4-sp-d16
 2823              		.type	comm_can_get_status_msg_4_id, %function
 2824              	comm_can_get_status_msg_4_id:
 2825              	.LFB286:
 2826              		.loc 1 670 0
 2827              		.cfi_startproc
 2828              		@ args = 0, pretend = 0, frame = 0
 2829              		@ frame_needed = 0, uses_anonymous_args = 0
 2830              		@ link register save eliminated.
 2831              	.LVL252:
 2832 0000 10B4     		push	{r4}
 2833              		.cfi_def_cfa_offset 4
 2834              		.cfi_offset 4, -4
 2835 0002 0B4C     		ldr	r4, .L206
 2836              	.LBB233:
 2837              		.loc 1 671 0
 2838 0004 0023     		movs	r3, #0
 2839 0006 2246     		mov	r2, r4
 2840              	.LVL253:
 2841              	.L202:
 2842              		.loc 1 672 0
 2843 0008 1168     		ldr	r1, [r2]
 2844 000a 8142     		cmp	r1, r0
 2845 000c 02F11802 		add	r2, r2, #24
 2846 0010 06D0     		beq	.L205
 2847              		.loc 1 671 0 discriminator 2
 2848 0012 0133     		adds	r3, r3, #1
 2849              	.LVL254:
 2850 0014 0A2B     		cmp	r3, #10
ARM GAS  /tmp/ccj2MYXE.s 			page 51


 2851 0016 F7D1     		bne	.L202
 2852              	.LBE233:
 2853              		.loc 1 677 0
 2854 0018 0020     		movs	r0, #0
 2855              	.LVL255:
 2856              		.loc 1 678 0
 2857 001a 5DF8044B 		ldr	r4, [sp], #4
 2858              		.cfi_remember_state
 2859              		.cfi_restore 4
 2860              		.cfi_def_cfa_offset 0
 2861 001e 7047     		bx	lr
 2862              	.LVL256:
 2863              	.L205:
 2864              		.cfi_restore_state
 2865              	.LBB234:
 2866              		.loc 1 673 0
 2867 0020 03EB4303 		add	r3, r3, r3, lsl #1
 2868              	.LVL257:
 2869 0024 04EBC300 		add	r0, r4, r3, lsl #3
 2870              	.LVL258:
 2871              	.LBE234:
 2872              		.loc 1 678 0
 2873 0028 5DF8044B 		ldr	r4, [sp], #4
 2874              		.cfi_restore 4
 2875              		.cfi_def_cfa_offset 0
 2876 002c 7047     		bx	lr
 2877              	.L207:
 2878 002e 00BF     		.align	2
 2879              	.L206:
 2880 0030 00000000 		.word	.LANCHOR5
 2881              		.cfi_endproc
 2882              	.LFE286:
 2883              		.size	comm_can_get_status_msg_4_id, .-comm_can_get_status_msg_4_id
 2884              		.section	.text.comm_can_get_status_msg_5_index,"ax",%progbits
 2885              		.align	1
 2886              		.p2align 4,,15
 2887              		.global	comm_can_get_status_msg_5_index
 2888              		.syntax unified
 2889              		.thumb
 2890              		.thumb_func
 2891              		.fpu fpv4-sp-d16
 2892              		.type	comm_can_get_status_msg_5_index, %function
 2893              	comm_can_get_status_msg_5_index:
 2894              	.LFB287:
 2895              		.loc 1 689 0
 2896              		.cfi_startproc
 2897              		@ args = 0, pretend = 0, frame = 0
 2898              		@ frame_needed = 0, uses_anonymous_args = 0
 2899              		@ link register save eliminated.
 2900              	.LVL259:
 2901              		.loc 1 690 0
 2902 0000 0928     		cmp	r0, #9
 2903              		.loc 1 691 0
 2904 0002 DABF     		itte	le
 2905 0004 024B     		ldrle	r3, .L211
 2906 0006 03EB0010 		addle	r0, r3, r0, lsl #4
 2907              	.LVL260:
ARM GAS  /tmp/ccj2MYXE.s 			page 52


 2908              		.loc 1 693 0
 2909 000a 0020     		movgt	r0, #0
 2910              		.loc 1 695 0
 2911 000c 7047     		bx	lr
 2912              	.L212:
 2913 000e 00BF     		.align	2
 2914              	.L211:
 2915 0010 00000000 		.word	.LANCHOR19
 2916              		.cfi_endproc
 2917              	.LFE287:
 2918              		.size	comm_can_get_status_msg_5_index, .-comm_can_get_status_msg_5_index
 2919              		.section	.text.comm_can_get_status_msg_5_id,"ax",%progbits
 2920              		.align	1
 2921              		.p2align 4,,15
 2922              		.global	comm_can_get_status_msg_5_id
 2923              		.syntax unified
 2924              		.thumb
 2925              		.thumb_func
 2926              		.fpu fpv4-sp-d16
 2927              		.type	comm_can_get_status_msg_5_id, %function
 2928              	comm_can_get_status_msg_5_id:
 2929              	.LFB288:
 2930              		.loc 1 706 0
 2931              		.cfi_startproc
 2932              		@ args = 0, pretend = 0, frame = 0
 2933              		@ frame_needed = 0, uses_anonymous_args = 0
 2934              		@ link register save eliminated.
 2935              	.LVL261:
 2936 0000 10B4     		push	{r4}
 2937              		.cfi_def_cfa_offset 4
 2938              		.cfi_offset 4, -4
 2939 0002 084C     		ldr	r4, .L220
 2940              	.LBB235:
 2941              		.loc 1 707 0
 2942 0004 0023     		movs	r3, #0
 2943              	.LVL262:
 2944              	.L216:
 2945 0006 1A01     		lsls	r2, r3, #4
 2946 0008 0133     		adds	r3, r3, #1
 2947              	.LVL263:
 2948              		.loc 1 708 0
 2949 000a A158     		ldr	r1, [r4, r2]
 2950 000c 8142     		cmp	r1, r0
 2951 000e 05D0     		beq	.L219
 2952              		.loc 1 707 0 discriminator 2
 2953 0010 0A2B     		cmp	r3, #10
 2954 0012 F8D1     		bne	.L216
 2955              	.LBE235:
 2956              		.loc 1 713 0
 2957 0014 0020     		movs	r0, #0
 2958              	.LVL264:
 2959              		.loc 1 714 0
 2960 0016 5DF8044B 		ldr	r4, [sp], #4
 2961              		.cfi_remember_state
 2962              		.cfi_restore 4
 2963              		.cfi_def_cfa_offset 0
 2964 001a 7047     		bx	lr
ARM GAS  /tmp/ccj2MYXE.s 			page 53


 2965              	.LVL265:
 2966              	.L219:
 2967              		.cfi_restore_state
 2968              	.LBB236:
 2969              		.loc 1 709 0
 2970 001c A018     		adds	r0, r4, r2
 2971              	.LVL266:
 2972              	.LBE236:
 2973              		.loc 1 714 0
 2974 001e 5DF8044B 		ldr	r4, [sp], #4
 2975              		.cfi_restore 4
 2976              		.cfi_def_cfa_offset 0
 2977 0022 7047     		bx	lr
 2978              	.L221:
 2979              		.align	2
 2980              	.L220:
 2981 0024 00000000 		.word	.LANCHOR19
 2982              		.cfi_endproc
 2983              	.LFE288:
 2984              		.size	comm_can_get_status_msg_5_id, .-comm_can_get_status_msg_5_id
 2985              		.section	.text.comm_can_get_rx_frame,"ax",%progbits
 2986              		.align	1
 2987              		.p2align 4,,15
 2988              		.global	comm_can_get_rx_frame
 2989              		.syntax unified
 2990              		.thumb
 2991              		.thumb_func
 2992              		.fpu fpv4-sp-d16
 2993              		.type	comm_can_get_rx_frame, %function
 2994              	comm_can_get_rx_frame:
 2995              	.LFB289:
 2996              		.loc 1 716 0
 2997              		.cfi_startproc
 2998              		@ args = 0, pretend = 0, frame = 0
 2999              		@ frame_needed = 0, uses_anonymous_args = 0
 3000 0000 10B5     		push	{r4, lr}
 3001              		.cfi_def_cfa_offset 8
 3002              		.cfi_offset 4, -8
 3003              		.cfi_offset 14, -4
 3004              		.loc 1 718 0
 3005 0002 0E48     		ldr	r0, .L229
 3006 0004 FFF7FEFF 		bl	chMtxLock
 3007              	.LVL267:
 3008              		.loc 1 719 0
 3009 0008 0D4A     		ldr	r2, .L229+4
 3010 000a 0E49     		ldr	r1, .L229+8
 3011 000c 1368     		ldr	r3, [r2]
 3012 000e 0968     		ldr	r1, [r1]
 3013 0010 8B42     		cmp	r3, r1
 3014 0012 0ED0     		beq	.L223
 3015              	.LBB237:
 3016              		.loc 1 720 0
 3017 0014 03EB8301 		add	r1, r3, r3, lsl #2
 3018 0018 0133     		adds	r3, r3, #1
 3019 001a 0B4C     		ldr	r4, .L229+12
 3020              		.loc 1 726 0
 3021 001c 0748     		ldr	r0, .L229
ARM GAS  /tmp/ccj2MYXE.s 			page 54


 3022              		.loc 1 722 0
 3023 001e 642B     		cmp	r3, #100
 3024              		.loc 1 723 0
 3025 0020 08BF     		it	eq
 3026 0022 0023     		moveq	r3, #0
 3027              		.loc 1 720 0
 3028 0024 04EB8104 		add	r4, r4, r1, lsl #2
 3029              	.LVL268:
 3030              		.loc 1 723 0
 3031 0028 1360     		str	r3, [r2]
 3032              		.loc 1 726 0
 3033 002a FFF7FEFF 		bl	chMtxUnlock
 3034              	.LVL269:
 3035              	.L222:
 3036              	.LBE237:
 3037              		.loc 1 735 0
 3038 002e 2046     		mov	r0, r4
 3039 0030 10BD     		pop	{r4, pc}
 3040              	.L223:
 3041              		.loc 1 729 0
 3042 0032 0248     		ldr	r0, .L229
 3043 0034 FFF7FEFF 		bl	chMtxUnlock
 3044              	.LVL270:
 3045              		.loc 1 730 0
 3046 0038 0024     		movs	r4, #0
 3047 003a F8E7     		b	.L222
 3048              	.L230:
 3049              		.align	2
 3050              	.L229:
 3051 003c 00000000 		.word	.LANCHOR0
 3052 0040 00000000 		.word	.LANCHOR8
 3053 0044 00000000 		.word	.LANCHOR1
 3054 0048 00000000 		.word	.LANCHOR2
 3055              		.cfi_endproc
 3056              	.LFE289:
 3057              		.size	comm_can_get_rx_frame, .-comm_can_get_rx_frame
 3058              		.section	.text.cancom_process_thread,"ax",%progbits
 3059              		.align	1
 3060              		.p2align 4,,15
 3061              		.syntax unified
 3062              		.thumb
 3063              		.thumb_func
 3064              		.fpu fpv4-sp-d16
 3065              		.type	cancom_process_thread, %function
 3066              	cancom_process_thread:
 3067              	.LFB291:
 3068              		.loc 1 775 0
 3069              		.cfi_startproc
 3070              		@ args = 0, pretend = 0, frame = 496
 3071              		@ frame_needed = 0, uses_anonymous_args = 0
 3072              	.LVL271:
 3073 0000 2DE9F04F 		push	{r4, r5, r6, r7, r8, r9, r10, fp, lr}
 3074              		.cfi_def_cfa_offset 36
 3075              		.cfi_offset 4, -36
 3076              		.cfi_offset 5, -32
 3077              		.cfi_offset 6, -28
 3078              		.cfi_offset 7, -24
ARM GAS  /tmp/ccj2MYXE.s 			page 55


 3079              		.cfi_offset 8, -20
 3080              		.cfi_offset 9, -16
 3081              		.cfi_offset 10, -12
 3082              		.cfi_offset 11, -8
 3083              		.cfi_offset 14, -4
 3084              	.LBB238:
 3085              	.LBB239:
 3086              		.loc 2 135 0
 3087 0004 DFF824A3 		ldr	r10, .L422+40
 3088 0008 BE4A     		ldr	r2, .L422
 3089 000a DAF81830 		ldr	r3, [r10, #24]
 3090              	.LBE239:
 3091              	.LBE238:
 3092              		.loc 1 779 0
 3093 000e BE49     		ldr	r1, .L422+4
 3094 0010 DFF81C83 		ldr	r8, .L422+44
 3095 0014 BD4F     		ldr	r7, .L422+8
 3096 0016 BE4E     		ldr	r6, .L422+12
 3097 0018 DFF81893 		ldr	r9, .L422+48
 3098              	.LBB241:
 3099              	.LBB242:
 3100              	.LBB243:
 3101              		.loc 1 800 0
 3102 001c DFF818B3 		ldr	fp, .L422+52
 3103              	.LBE243:
 3104              	.LBE242:
 3105              	.LBE241:
 3106              		.loc 1 775 0
 3107 0020 2DED088B 		vpush.64	{d8, d9, d10, d11}
 3108              		.cfi_def_cfa_offset 68
 3109              		.cfi_offset 80, -68
 3110              		.cfi_offset 81, -64
 3111              		.cfi_offset 82, -60
 3112              		.cfi_offset 83, -56
 3113              		.cfi_offset 84, -52
 3114              		.cfi_offset 85, -48
 3115              		.cfi_offset 86, -44
 3116              		.cfi_offset 87, -40
 3117 0024 FDB0     		sub	sp, sp, #500
 3118              		.cfi_def_cfa_offset 568
 3119              	.LBB342:
 3120              	.LBB240:
 3121              		.loc 2 135 0
 3122 0026 9A61     		str	r2, [r3, #24]
 3123              	.LVL272:
 3124              	.LBE240:
 3125              	.LBE342:
 3126              	.LBB343:
 3127              	.LBB339:
 3128              	.LBB335:
 3129              	.LBB244:
 3130              	.LBB245:
 3131              		.loc 1 1292 0
 3132 0028 DFEDBAAA 		vldr.32	s21, .L422+16
 3133              	.LBE245:
 3134              	.LBE244:
 3135              	.LBB261:
ARM GAS  /tmp/ccj2MYXE.s 			page 56


 3136              	.LBB262:
 3137              		.loc 1 1275 0
 3138 002c DFEDBA9A 		vldr.32	s19, .L422+20
 3139              	.LBE262:
 3140              	.LBE261:
 3141              	.LBB279:
 3142              	.LBB280:
 3143              		.loc 1 1248 0
 3144 0030 9FEDC68A 		vldr.32	s16, .L422+72
 3145              	.LBE280:
 3146              	.LBE279:
 3147              	.LBE335:
 3148              	.LBE339:
 3149              	.LBE343:
 3150              		.loc 1 779 0
 3151 0034 0B60     		str	r3, [r1]
 3152              		.loc 1 781 0
 3153 0036 0022     		movs	r2, #0
 3154 0038 0492     		str	r2, [sp, #16]
 3155              	.LVL273:
 3156              	.L232:
 3157              	.LBB344:
 3158              		.loc 1 789 0
 3159 003a 0120     		movs	r0, #1
 3160 003c FFF7FEFF 		bl	chEvtWaitAny
 3161              	.LVL274:
 3162              		.loc 1 791 0
 3163 0040 FFF7FEFF 		bl	app_get_configuration
 3164              	.LVL275:
 3165 0044 037E     		ldrb	r3, [r0, #24]	@ zero_extendqisi2
 3166 0046 002B     		cmp	r3, #0
 3167 0048 F7D1     		bne	.L232
 3168              	.LBB340:
 3169              	.LBB336:
 3170              	.LBB296:
 3171              		.loc 1 1214 0
 3172 004a 9FEDB49A 		vldr.32	s18, .L422+24
 3173 004e DFEDB48A 		vldr.32	s17, .L422+28
 3174              	.L233:
 3175              	.LBE296:
 3176              	.LBE336:
 3177              	.LBE340:
 3178              		.loc 1 796 0
 3179 0052 FFF7FEFF 		bl	comm_can_get_rx_frame
 3180              	.LVL276:
 3181 0056 0028     		cmp	r0, #0
 3182 0058 EFD0     		beq	.L232
 3183              	.LBB341:
 3184              		.loc 1 797 0
 3185 005a 0446     		mov	r4, r0
 3186 005c 0FCC     		ldmia	r4!, {r0, r1, r2, r3}
 3187              	.LVL277:
 3188 005e 05AD     		add	r5, sp, #20
 3189 0060 0FC5     		stmia	r5!, {r0, r1, r2, r3}
 3190              		.loc 1 799 0
 3191 0062 9DF81820 		ldrb	r2, [sp, #24]	@ zero_extendqisi2
 3192              		.loc 1 797 0
ARM GAS  /tmp/ccj2MYXE.s 			page 57


 3193 0066 2368     		ldr	r3, [r4]
 3194 0068 2B60     		str	r3, [r5]
 3195              		.loc 1 799 0
 3196 006a 9106     		lsls	r1, r2, #26
 3197 006c 40F13B81 		bpl	.L234
 3198              	.LBB337:
 3199              		.loc 1 800 0
 3200 0070 079B     		ldr	r3, [sp, #28]
 3201 0072 23F06043 		bic	r3, r3, #-536870912
 3202 0076 5B45     		cmp	r3, fp
 3203 0078 00F0A685 		beq	.L402
 3204              	.LVL278:
 3205              	.L236:
 3206              		.loc 1 875 0
 3207 007c 079C     		ldr	r4, [sp, #28]
 3208 007e C4F31C04 		ubfx	r4, r4, #0, #29
 3209 0082 E5B2     		uxtb	r5, r4
 3210              	.LVL279:
 3211              		.loc 1 878 0
 3212 0084 FF2D     		cmp	r5, #255
 3213 0086 C4F30724 		ubfx	r4, r4, #8, #8
 3214              	.LVL280:
 3215 008a 00F06181 		beq	.L285
 3216              		.loc 1 878 0 is_stmt 0 discriminator 1
 3217 008e FFF7FEFF 		bl	app_get_configuration
 3218              	.LVL281:
 3219 0092 0378     		ldrb	r3, [r0]	@ zero_extendqisi2
 3220 0094 AB42     		cmp	r3, r5
 3221 0096 00F05B81 		beq	.L285
 3222              	.L286:
 3223              		.loc 1 1238 0 is_stmt 1
 3224 009a 093C     		subs	r4, r4, #9
 3225 009c 122C     		cmp	r4, #18
 3226 009e D8D8     		bhi	.L233
 3227 00a0 01A3     		adr	r3, .L342
 3228 00a2 53F824F0 		ldr	pc, [r3, r4, lsl #2]
 3229 00a6 00BF     		.p2align 2
 3230              	.L342:
 3231 00a8 65020000 		.word	.L341+1
 3232 00ac 53000000 		.word	.L233+1
 3233 00b0 53000000 		.word	.L233+1
 3234 00b4 53000000 		.word	.L233+1
 3235 00b8 53000000 		.word	.L233+1
 3236 00bc 3F020000 		.word	.L343+1
 3237 00c0 E3010000 		.word	.L344+1
 3238 00c4 45010000 		.word	.L345+1
 3239 00c8 53000000 		.word	.L233+1
 3240 00cc 53000000 		.word	.L233+1
 3241 00d0 53000000 		.word	.L233+1
 3242 00d4 53000000 		.word	.L233+1
 3243 00d8 53000000 		.word	.L233+1
 3244 00dc 53000000 		.word	.L233+1
 3245 00e0 53000000 		.word	.L233+1
 3246 00e4 53000000 		.word	.L233+1
 3247 00e8 53000000 		.word	.L233+1
 3248 00ec 53000000 		.word	.L233+1
 3249 00f0 F5000000 		.word	.L346+1
ARM GAS  /tmp/ccj2MYXE.s 			page 58


 3250              		.p2align 1
 3251              	.L346:
 3252              	.LBB297:
 3253              		.loc 1 1299 0
 3254 00f4 0023     		movs	r3, #0
 3255 00f6 03E0     		b	.L361
 3256              	.LVL282:
 3257              	.L403:
 3258              	.LBB298:
 3259              		.loc 1 1301 0 discriminator 1
 3260 00f8 0132     		adds	r2, r2, #1
 3261 00fa 06D0     		beq	.L359
 3262              	.LBE298:
 3263              		.loc 1 1299 0 discriminator 2
 3264 00fc 0A2B     		cmp	r3, #10
 3265 00fe A8D0     		beq	.L233
 3266              	.LVL283:
 3267              	.L361:
 3268              	.LBB312:
 3269              		.loc 1 1301 0
 3270 0100 1901     		lsls	r1, r3, #4
 3271              	.LBE312:
 3272              		.loc 1 1299 0
 3273 0102 0133     		adds	r3, r3, #1
 3274              	.LVL284:
 3275              	.LBB313:
 3276              		.loc 1 1301 0
 3277 0104 7258     		ldr	r2, [r6, r1]
 3278 0106 AA42     		cmp	r2, r5
 3279 0108 F6D1     		bne	.L403
 3280              	.L359:
 3281              		.loc 1 1302 0
 3282 010a 0023     		movs	r3, #0
 3283              	.LVL285:
 3284              		.loc 1 1303 0
 3285 010c 7550     		str	r5, [r6, r1]
 3286 010e 7418     		adds	r4, r6, r1
 3287              		.loc 1 1302 0
 3288 0110 0493     		str	r3, [sp, #16]
 3289              	.LBB299:
 3290              	.LBB300:
 3291              	.LBB301:
 3292              	.LBB302:
 3293              	.LBB303:
 3294              	.LBB304:
 3295              		.file 5 "ChibiOS_3.0.2/os/ext/CMSIS/include/core_cmFunc.h"
 3296              		.loc 5 342 0
 3297              		.syntax unified
 3298              	@ 342 "ChibiOS_3.0.2/os/ext/CMSIS/include/core_cmFunc.h" 1
 3299 0112 72B6     		cpsid i
 3300              	@ 0 "" 2
 3301              		.thumb
 3302              		.syntax unified
 3303              	.LBE304:
 3304              	.LBE303:
 3305              	.LBE302:
 3306              	.LBE301:
ARM GAS  /tmp/ccj2MYXE.s 			page 59


 3307              	.LBB305:
 3308              	.LBB306:
 3309              		.file 6 "ChibiOS_3.0.2/os/rt/include/chvt.h"
 3310              		.loc 6 231 0
 3311 0114 DAF82830 		ldr	r3, [r10, #40]
 3312              	.LBE306:
 3313              	.LBE305:
 3314              	.LBB307:
 3315              	.LBB308:
 3316              	.LBB309:
 3317              	.LBB310:
 3318              	.LBB311:
 3319              		.loc 5 331 0
 3320              		.syntax unified
 3321              	@ 331 "ChibiOS_3.0.2/os/ext/CMSIS/include/core_cmFunc.h" 1
 3322 0118 62B6     		cpsie i
 3323              	@ 0 "" 2
 3324              		.thumb
 3325              		.syntax unified
 3326              	.LBE311:
 3327              	.LBE310:
 3328              	.LBE309:
 3329              	.LBE308:
 3330              	.LBE307:
 3331              	.LBE300:
 3332              	.LBE299:
 3333              		.loc 1 1305 0
 3334 011a 04A9     		add	r1, sp, #16
 3335              		.loc 1 1304 0
 3336 011c 6360     		str	r3, [r4, #4]
 3337              		.loc 1 1305 0
 3338 011e 08A8     		add	r0, sp, #32
 3339 0120 FFF7FEFF 		bl	buffer_get_int32
 3340              	.LVL286:
 3341              		.loc 1 1306 0
 3342 0124 04A9     		add	r1, sp, #16
 3343              		.loc 1 1305 0
 3344 0126 E060     		str	r0, [r4, #12]
 3345              		.loc 1 1306 0
 3346 0128 08A8     		add	r0, sp, #32
 3347 012a FFF7FEFF 		bl	buffer_get_int16
 3348              	.LVL287:
 3349 012e 07EE900A 		vmov	s15, r0	@ int
 3350 0132 F8EEE76A 		vcvt.f32.s32	s13, s15
 3351 0136 B2EE047A 		vmov.f32	s14, #1.0e+1
 3352 013a C6EE877A 		vdiv.f32	s15, s13, s14
 3353 013e C4ED027A 		vstr.32	s15, [r4, #8]
 3354              		.loc 1 1307 0
 3355 0142 86E7     		b	.L233
 3356              	.L345:
 3357 0144 774A     		ldr	r2, .L422+32
 3358              	.LBE313:
 3359              	.LBE297:
 3360              	.LBB314:
 3361              		.loc 1 1283 0
 3362 0146 0023     		movs	r3, #0
 3363 0148 05E0     		b	.L358
ARM GAS  /tmp/ccj2MYXE.s 			page 60


 3364              	.LVL288:
 3365              	.L404:
 3366              	.LBB259:
 3367              		.loc 1 1285 0 discriminator 1
 3368 014a 0131     		adds	r1, r1, #1
 3369 014c 08D0     		beq	.L356
 3370              	.LBE259:
 3371              		.loc 1 1283 0 discriminator 2
 3372 014e 0133     		adds	r3, r3, #1
 3373              	.LVL289:
 3374 0150 0A2B     		cmp	r3, #10
 3375 0152 3FF47EAF 		beq	.L233
 3376              	.LVL290:
 3377              	.L358:
 3378              	.LBB260:
 3379              		.loc 1 1285 0
 3380 0156 1168     		ldr	r1, [r2]
 3381 0158 A942     		cmp	r1, r5
 3382 015a 02F11802 		add	r2, r2, #24
 3383 015e F4D1     		bne	.L404
 3384              	.L356:
 3385              		.loc 1 1287 0
 3386 0160 03EB4303 		add	r3, r3, r3, lsl #1
 3387              	.LVL291:
 3388 0164 6F49     		ldr	r1, .L422+32
 3389              		.loc 1 1286 0
 3390 0166 0022     		movs	r2, #0
 3391              		.loc 1 1287 0
 3392 0168 41F83350 		str	r5, [r1, r3, lsl #3]
 3393 016c 01EBC304 		add	r4, r1, r3, lsl #3
 3394              		.loc 1 1286 0
 3395 0170 0492     		str	r2, [sp, #16]
 3396              	.LBB246:
 3397              	.LBB247:
 3398              	.LBB248:
 3399              	.LBB249:
 3400              	.LBB250:
 3401              	.LBB251:
 3402              		.loc 5 342 0
 3403              		.syntax unified
 3404              	@ 342 "ChibiOS_3.0.2/os/ext/CMSIS/include/core_cmFunc.h" 1
 3405 0172 72B6     		cpsid i
 3406              	@ 0 "" 2
 3407              		.thumb
 3408              		.syntax unified
 3409              	.LBE251:
 3410              	.LBE250:
 3411              	.LBE249:
 3412              	.LBE248:
 3413              	.LBB252:
 3414              	.LBB253:
 3415              		.loc 6 231 0
 3416 0174 DAF82830 		ldr	r3, [r10, #40]
 3417              	.LBE253:
 3418              	.LBE252:
 3419              	.LBB254:
 3420              	.LBB255:
ARM GAS  /tmp/ccj2MYXE.s 			page 61


 3421              	.LBB256:
 3422              	.LBB257:
 3423              	.LBB258:
 3424              		.loc 5 331 0
 3425              		.syntax unified
 3426              	@ 331 "ChibiOS_3.0.2/os/ext/CMSIS/include/core_cmFunc.h" 1
 3427 0178 62B6     		cpsie i
 3428              	@ 0 "" 2
 3429              		.thumb
 3430              		.syntax unified
 3431              	.LBE258:
 3432              	.LBE257:
 3433              	.LBE256:
 3434              	.LBE255:
 3435              	.LBE254:
 3436              	.LBE247:
 3437              	.LBE246:
 3438              		.loc 1 1288 0
 3439 017a 6360     		str	r3, [r4, #4]
 3440              		.loc 1 1289 0
 3441 017c 04A9     		add	r1, sp, #16
 3442 017e 08A8     		add	r0, sp, #32
 3443 0180 FFF7FEFF 		bl	buffer_get_int16
 3444              	.LVL292:
 3445 0184 07EE900A 		vmov	s15, r0	@ int
 3446 0188 B8EEE77A 		vcvt.f32.s32	s14, s15
 3447 018c B2EE04AA 		vmov.f32	s20, #1.0e+1
 3448 0190 C7EE0A7A 		vdiv.f32	s15, s14, s20
 3449              		.loc 1 1290 0
 3450 0194 04A9     		add	r1, sp, #16
 3451 0196 08A8     		add	r0, sp, #32
 3452              		.loc 1 1289 0
 3453 0198 C4ED027A 		vstr.32	s15, [r4, #8]
 3454              		.loc 1 1290 0
 3455 019c FFF7FEFF 		bl	buffer_get_int16
 3456              	.LVL293:
 3457 01a0 07EE900A 		vmov	s15, r0	@ int
 3458 01a4 B8EEE77A 		vcvt.f32.s32	s14, s15
 3459              		.loc 1 1291 0
 3460 01a8 04A9     		add	r1, sp, #16
 3461              		.loc 1 1290 0
 3462 01aa C7EE0A7A 		vdiv.f32	s15, s14, s20
 3463              		.loc 1 1291 0
 3464 01ae 08A8     		add	r0, sp, #32
 3465              		.loc 1 1290 0
 3466 01b0 C4ED037A 		vstr.32	s15, [r4, #12]
 3467              		.loc 1 1291 0
 3468 01b4 FFF7FEFF 		bl	buffer_get_int16
 3469              	.LVL294:
 3470 01b8 07EE900A 		vmov	s15, r0	@ int
 3471 01bc B8EEE77A 		vcvt.f32.s32	s14, s15
 3472              		.loc 1 1292 0
 3473 01c0 04A9     		add	r1, sp, #16
 3474              		.loc 1 1291 0
 3475 01c2 C7EE0A7A 		vdiv.f32	s15, s14, s20
 3476              		.loc 1 1292 0
 3477 01c6 08A8     		add	r0, sp, #32
ARM GAS  /tmp/ccj2MYXE.s 			page 62


 3478              		.loc 1 1291 0
 3479 01c8 C4ED047A 		vstr.32	s15, [r4, #16]
 3480              		.loc 1 1292 0
 3481 01cc FFF7FEFF 		bl	buffer_get_int16
 3482              	.LVL295:
 3483 01d0 07EE900A 		vmov	s15, r0	@ int
 3484 01d4 B8EEE77A 		vcvt.f32.s32	s14, s15
 3485 01d8 C7EE2A7A 		vdiv.f32	s15, s14, s21
 3486 01dc C4ED057A 		vstr.32	s15, [r4, #20]
 3487              		.loc 1 1293 0
 3488 01e0 37E7     		b	.L233
 3489              	.L344:
 3490              	.LBE260:
 3491              	.LBE314:
 3492              	.LBB315:
 3493              		.loc 1 1269 0
 3494 01e2 0023     		movs	r3, #0
 3495 01e4 04E0     		b	.L355
 3496              	.LVL296:
 3497              	.L405:
 3498              	.LBB276:
 3499              		.loc 1 1271 0 discriminator 1
 3500 01e6 0132     		adds	r2, r2, #1
 3501 01e8 07D0     		beq	.L353
 3502              	.LBE276:
 3503              		.loc 1 1269 0 discriminator 2
 3504 01ea 0A2B     		cmp	r3, #10
 3505 01ec 3FF431AF 		beq	.L233
 3506              	.LVL297:
 3507              	.L355:
 3508              	.LBB277:
 3509              		.loc 1 1271 0
 3510 01f0 1901     		lsls	r1, r3, #4
 3511              	.LBE277:
 3512              		.loc 1 1269 0
 3513 01f2 0133     		adds	r3, r3, #1
 3514              	.LVL298:
 3515              	.LBB278:
 3516              		.loc 1 1271 0
 3517 01f4 7A58     		ldr	r2, [r7, r1]
 3518 01f6 AA42     		cmp	r2, r5
 3519 01f8 F5D1     		bne	.L405
 3520              	.L353:
 3521              		.loc 1 1273 0
 3522 01fa 7D50     		str	r5, [r7, r1]
 3523              		.loc 1 1272 0
 3524 01fc 0023     		movs	r3, #0
 3525              	.LVL299:
 3526              		.loc 1 1273 0
 3527 01fe 7C18     		adds	r4, r7, r1
 3528              	.L400:
 3529              		.loc 1 1272 0
 3530 0200 0493     		str	r3, [sp, #16]
 3531              	.LBB263:
 3532              	.LBB264:
 3533              	.LBB265:
 3534              	.LBB266:
ARM GAS  /tmp/ccj2MYXE.s 			page 63


 3535              	.LBB267:
 3536              	.LBB268:
 3537              		.loc 5 342 0
 3538              		.syntax unified
 3539              	@ 342 "ChibiOS_3.0.2/os/ext/CMSIS/include/core_cmFunc.h" 1
 3540 0202 72B6     		cpsid i
 3541              	@ 0 "" 2
 3542              		.thumb
 3543              		.syntax unified
 3544              	.LBE268:
 3545              	.LBE267:
 3546              	.LBE266:
 3547              	.LBE265:
 3548              	.LBB269:
 3549              	.LBB270:
 3550              		.loc 6 231 0
 3551 0204 DAF82830 		ldr	r3, [r10, #40]
 3552              	.LBE270:
 3553              	.LBE269:
 3554              	.LBB271:
 3555              	.LBB272:
 3556              	.LBB273:
 3557              	.LBB274:
 3558              	.LBB275:
 3559              		.loc 5 331 0
 3560              		.syntax unified
 3561              	@ 331 "ChibiOS_3.0.2/os/ext/CMSIS/include/core_cmFunc.h" 1
 3562 0208 62B6     		cpsie i
 3563              	@ 0 "" 2
 3564              		.thumb
 3565              		.syntax unified
 3566              	.LBE275:
 3567              	.LBE274:
 3568              	.LBE273:
 3569              	.LBE272:
 3570              	.LBE271:
 3571              	.LBE264:
 3572              	.LBE263:
 3573              		.loc 1 1275 0
 3574 020a 04A9     		add	r1, sp, #16
 3575              		.loc 1 1274 0
 3576 020c 6360     		str	r3, [r4, #4]
 3577              		.loc 1 1275 0
 3578 020e 08A8     		add	r0, sp, #32
 3579 0210 FFF7FEFF 		bl	buffer_get_int32
 3580              	.LVL300:
 3581 0214 07EE900A 		vmov	s15, r0	@ int
 3582 0218 B8EEE77A 		vcvt.f32.s32	s14, s15
 3583              		.loc 1 1276 0
 3584 021c 04A9     		add	r1, sp, #16
 3585              		.loc 1 1275 0
 3586 021e C7EE297A 		vdiv.f32	s15, s14, s19
 3587              		.loc 1 1276 0
 3588 0222 08A8     		add	r0, sp, #32
 3589              		.loc 1 1275 0
 3590 0224 C4ED027A 		vstr.32	s15, [r4, #8]
 3591              		.loc 1 1276 0
ARM GAS  /tmp/ccj2MYXE.s 			page 64


 3592 0228 FFF7FEFF 		bl	buffer_get_int32
 3593              	.LVL301:
 3594 022c 07EE900A 		vmov	s15, r0	@ int
 3595 0230 B8EEE77A 		vcvt.f32.s32	s14, s15
 3596 0234 C7EE297A 		vdiv.f32	s15, s14, s19
 3597 0238 C4ED037A 		vstr.32	s15, [r4, #12]
 3598              		.loc 1 1277 0
 3599 023c 09E7     		b	.L233
 3600              	.L343:
 3601              	.LBE278:
 3602              	.LBE315:
 3603              	.LBB316:
 3604              		.loc 1 1255 0
 3605 023e 0023     		movs	r3, #0
 3606 0240 04E0     		b	.L352
 3607              	.LVL302:
 3608              	.L406:
 3609              	.LBB317:
 3610              		.loc 1 1257 0 discriminator 1
 3611 0242 0132     		adds	r2, r2, #1
 3612 0244 08D0     		beq	.L350
 3613              	.LBE317:
 3614              		.loc 1 1255 0 discriminator 2
 3615 0246 0A2B     		cmp	r3, #10
 3616 0248 3FF403AF 		beq	.L233
 3617              	.LVL303:
 3618              	.L352:
 3619              	.LBB318:
 3620              		.loc 1 1257 0
 3621 024c 1901     		lsls	r1, r3, #4
 3622              	.LBE318:
 3623              		.loc 1 1255 0
 3624 024e 0133     		adds	r3, r3, #1
 3625              	.LVL304:
 3626              	.LBB319:
 3627              		.loc 1 1257 0
 3628 0250 58F80120 		ldr	r2, [r8, r1]
 3629 0254 AA42     		cmp	r2, r5
 3630 0256 F4D1     		bne	.L406
 3631              	.L350:
 3632              		.loc 1 1258 0
 3633 0258 0023     		movs	r3, #0
 3634              	.LVL305:
 3635              		.loc 1 1259 0
 3636 025a 48F80150 		str	r5, [r8, r1]
 3637 025e 08EB0104 		add	r4, r8, r1
 3638 0262 CDE7     		b	.L400
 3639              	.L341:
 3640 0264 304A     		ldr	r2, .L422+36
 3641              	.LBE319:
 3642              	.LBE316:
 3643              	.LBB320:
 3644              		.loc 1 1240 0
 3645 0266 0023     		movs	r3, #0
 3646 0268 05E0     		b	.L349
 3647              	.LVL306:
 3648              	.L407:
ARM GAS  /tmp/ccj2MYXE.s 			page 65


 3649              	.LBB294:
 3650              		.loc 1 1242 0 discriminator 1
 3651 026a 0131     		adds	r1, r1, #1
 3652 026c 08D0     		beq	.L347
 3653              	.LBE294:
 3654              		.loc 1 1240 0 discriminator 2
 3655 026e 0133     		adds	r3, r3, #1
 3656              	.LVL307:
 3657 0270 0A2B     		cmp	r3, #10
 3658 0272 3FF4EEAE 		beq	.L233
 3659              	.LVL308:
 3660              	.L349:
 3661              	.LBB295:
 3662              		.loc 1 1242 0
 3663 0276 1168     		ldr	r1, [r2]
 3664 0278 A942     		cmp	r1, r5
 3665 027a 02F11402 		add	r2, r2, #20
 3666 027e F4D1     		bne	.L407
 3667              	.L347:
 3668              		.loc 1 1244 0
 3669 0280 03EB8303 		add	r3, r3, r3, lsl #2
 3670              	.LVL309:
 3671 0284 2849     		ldr	r1, .L422+36
 3672              		.loc 1 1243 0
 3673 0286 0022     		movs	r2, #0
 3674              		.loc 1 1244 0
 3675 0288 41F82350 		str	r5, [r1, r3, lsl #2]
 3676 028c 01EB8304 		add	r4, r1, r3, lsl #2
 3677              		.loc 1 1243 0
 3678 0290 0492     		str	r2, [sp, #16]
 3679              	.LBB281:
 3680              	.LBB282:
 3681              	.LBB283:
 3682              	.LBB284:
 3683              	.LBB285:
 3684              	.LBB286:
 3685              		.loc 5 342 0
 3686              		.syntax unified
 3687              	@ 342 "ChibiOS_3.0.2/os/ext/CMSIS/include/core_cmFunc.h" 1
 3688 0292 72B6     		cpsid i
 3689              	@ 0 "" 2
 3690              		.thumb
 3691              		.syntax unified
 3692              	.LBE286:
 3693              	.LBE285:
 3694              	.LBE284:
 3695              	.LBE283:
 3696              	.LBB287:
 3697              	.LBB288:
 3698              		.loc 6 231 0
 3699 0294 DAF82830 		ldr	r3, [r10, #40]
 3700              	.LBE288:
 3701              	.LBE287:
 3702              	.LBB289:
 3703              	.LBB290:
 3704              	.LBB291:
 3705              	.LBB292:
ARM GAS  /tmp/ccj2MYXE.s 			page 66


 3706              	.LBB293:
 3707              		.loc 5 331 0
 3708              		.syntax unified
 3709              	@ 331 "ChibiOS_3.0.2/os/ext/CMSIS/include/core_cmFunc.h" 1
 3710 0298 62B6     		cpsie i
 3711              	@ 0 "" 2
 3712              		.thumb
 3713              		.syntax unified
 3714              	.LBE293:
 3715              	.LBE292:
 3716              	.LBE291:
 3717              	.LBE290:
 3718              	.LBE289:
 3719              	.LBE282:
 3720              	.LBE281:
 3721              		.loc 1 1245 0
 3722 029a 6360     		str	r3, [r4, #4]
 3723              		.loc 1 1246 0
 3724 029c 04A9     		add	r1, sp, #16
 3725 029e 08A8     		add	r0, sp, #32
 3726 02a0 FFF7FEFF 		bl	buffer_get_int32
 3727              	.LVL310:
 3728 02a4 07EE900A 		vmov	s15, r0	@ int
 3729 02a8 F8EEE77A 		vcvt.f32.s32	s15, s15
 3730              		.loc 1 1247 0
 3731 02ac 04A9     		add	r1, sp, #16
 3732              		.loc 1 1246 0
 3733 02ae C4ED027A 		vstr.32	s15, [r4, #8]
 3734              		.loc 1 1247 0
 3735 02b2 08A8     		add	r0, sp, #32
 3736 02b4 FFF7FEFF 		bl	buffer_get_int16
 3737              	.LVL311:
 3738 02b8 07EE900A 		vmov	s15, r0	@ int
 3739 02bc F8EEE76A 		vcvt.f32.s32	s13, s15
 3740 02c0 B2EE047A 		vmov.f32	s14, #1.0e+1
 3741 02c4 C6EE877A 		vdiv.f32	s15, s13, s14
 3742              		.loc 1 1248 0
 3743 02c8 04A9     		add	r1, sp, #16
 3744 02ca 08A8     		add	r0, sp, #32
 3745              		.loc 1 1247 0
 3746 02cc C4ED037A 		vstr.32	s15, [r4, #12]
 3747              		.loc 1 1248 0
 3748 02d0 FFF7FEFF 		bl	buffer_get_int16
 3749              	.LVL312:
 3750 02d4 07EE900A 		vmov	s15, r0	@ int
 3751 02d8 B8EEE77A 		vcvt.f32.s32	s14, s15
 3752 02dc C7EE087A 		vdiv.f32	s15, s14, s16
 3753 02e0 C4ED047A 		vstr.32	s15, [r4, #16]
 3754              		.loc 1 1249 0
 3755 02e4 B5E6     		b	.L233
 3756              	.LVL313:
 3757              	.L234:
 3758              	.LBE295:
 3759              	.LBE320:
 3760              	.LBE337:
 3761              		.loc 1 1316 0
 3762 02e6 D9F80030 		ldr	r3, [r9]
ARM GAS  /tmp/ccj2MYXE.s 			page 67


 3763 02ea 002B     		cmp	r3, #0
 3764 02ec 3FF4B1AE 		beq	.L233
 3765              		.loc 1 1317 0
 3766 02f0 BDF81C00 		ldrh	r0, [sp, #28]
 3767 02f4 02F00F02 		and	r2, r2, #15
 3768 02f8 C0F30A00 		ubfx	r0, r0, #0, #11
 3769 02fc 08A9     		add	r1, sp, #32
 3770 02fe 9847     		blx	r3
 3771              	.LVL314:
 3772 0300 A7E6     		b	.L233
 3773              	.L423:
 3774 0302 00BF     		.align	2
 3775              	.L422:
 3776 0304 00000000 		.word	.LC2
 3777 0308 00000000 		.word	.LANCHOR3
 3778 030c 00000000 		.word	.LANCHOR7
 3779 0310 00000000 		.word	.LANCHOR19
 3780 0314 00004842 		.word	1112014848
 3781 0318 00401C46 		.word	1176256512
 3782 031c 2E567C47 		.word	1199330862
 3783 0320 005043C8 		.word	3359854592
 3784 0324 00000000 		.word	.LANCHOR5
 3785 0328 00000000 		.word	.LANCHOR4
 3786 032c 00000000 		.word	ch
 3787 0330 00000000 		.word	.LANCHOR6
 3788 0334 00000000 		.word	.LANCHOR14
 3789 0338 01FF1518 		.word	404094721
 3790 033c 0050C347 		.word	1203982336
 3791 0340 00000000 		.word	0
 3792 0344 00007042 		.word	1114636288
 3793 0348 DB0F4940 		.word	1078530011
 3794 034c 00007A44 		.word	1148846080
 3795              	.LVL315:
 3796              	.L285:
 3797              	.LBB338:
 3798              		.loc 1 879 0
 3799 0350 292C     		cmp	r4, #41
 3800 0352 3FF6A2AE 		bhi	.L286
 3801 0356 01A3     		adr	r3, .L254
 3802 0358 53F824F0 		ldr	pc, [r3, r4, lsl #2]
 3803              		.p2align 2
 3804              	.L254:
 3805 035c 910B0000 		.word	.L253+1
 3806 0360 AD0B0000 		.word	.L255+1
 3807 0364 1F0B0000 		.word	.L256+1
 3808 0368 570B0000 		.word	.L257+1
 3809 036c 3B0B0000 		.word	.L258+1
 3810 0370 730B0000 		.word	.L259+1
 3811 0374 F50A0000 		.word	.L260+1
 3812 0378 830A0000 		.word	.L261+1
 3813 037c 490A0000 		.word	.L262+1
 3814 0380 9B000000 		.word	.L286+1
 3815 0384 2D0A0000 		.word	.L263+1
 3816 0388 110A0000 		.word	.L264+1
 3817 038c F5090000 		.word	.L265+1
 3818 0390 D9090000 		.word	.L266+1
 3819 0394 9B000000 		.word	.L286+1
ARM GAS  /tmp/ccj2MYXE.s 			page 68


 3820 0398 9B000000 		.word	.L286+1
 3821 039c 9B000000 		.word	.L286+1
 3822 03a0 BB090000 		.word	.L267+1
 3823 03a4 A5090000 		.word	.L268+1
 3824 03a8 A3080000 		.word	.L269+1
 3825 03ac 81080000 		.word	.L270+1
 3826 03b0 0D090000 		.word	.L271+1
 3827 03b4 0D090000 		.word	.L271+1
 3828 03b8 EB070000 		.word	.L272+1
 3829 03bc EB070000 		.word	.L272+1
 3830 03c0 85070000 		.word	.L273+1
 3831 03c4 85070000 		.word	.L273+1
 3832 03c8 9B000000 		.word	.L286+1
 3833 03cc 53070000 		.word	.L274+1
 3834 03d0 1D070000 		.word	.L275+1
 3835 03d4 AB060000 		.word	.L276+1
 3836 03d8 95060000 		.word	.L277+1
 3837 03dc 9B000000 		.word	.L286+1
 3838 03e0 6B060000 		.word	.L278+1
 3839 03e4 6F050000 		.word	.L279+1
 3840 03e8 5D050000 		.word	.L280+1
 3841 03ec EB040000 		.word	.L281+1
 3842 03f0 9B000000 		.word	.L286+1
 3843 03f4 BD040000 		.word	.L282+1
 3844 03f8 9B000000 		.word	.L286+1
 3845 03fc 2B040000 		.word	.L283+1
 3846 0400 05040000 		.word	.L284+1
 3847              		.p2align 1
 3848              	.L284:
 3849              		.loc 1 1089 0
 3850 0404 0023     		movs	r3, #0
 3851              		.loc 1 1090 0
 3852 0406 04A9     		add	r1, sp, #16
 3853 0408 08A8     		add	r0, sp, #32
 3854 040a 1FED340A 		vldr.32	s0, .L422+56
 3855              		.loc 1 1089 0
 3856 040e 0493     		str	r3, [sp, #16]
 3857              		.loc 1 1090 0
 3858 0410 FFF7FEFF 		bl	buffer_get_float32
 3859              	.LVL316:
 3860 0414 FFF7FEFF 		bl	mc_interface_set_fractional_front
 3861              	.LVL317:
 3862              		.loc 1 1091 0
 3863 0418 04A9     		add	r1, sp, #16
 3864 041a 08A8     		add	r0, sp, #32
 3865 041c 1FED390A 		vldr.32	s0, .L422+56
 3866 0420 FFF7FEFF 		bl	buffer_get_float32
 3867              	.LVL318:
 3868 0424 FFF7FEFF 		bl	mc_interface_set_fractional_rear
 3869              	.LVL319:
 3870              		.loc 1 1092 0
 3871 0428 13E6     		b	.L233
 3872              	.L283:
 3873              	.LBB321:
 3874              		.loc 1 1072 0
 3875 042a 0023     		movs	r3, #0
 3876              		.loc 1 1073 0
ARM GAS  /tmp/ccj2MYXE.s 			page 69


 3877 042c 04A9     		add	r1, sp, #16
 3878 042e 08A8     		add	r0, sp, #32
 3879 0430 1FED3E0A 		vldr.32	s0, .L422+56
 3880              		.loc 1 1072 0
 3881 0434 0493     		str	r3, [sp, #16]
 3882              		.loc 1 1073 0
 3883 0436 FFF7FEFF 		bl	buffer_get_float32
 3884              	.LVL320:
 3885              		.loc 1 1074 0
 3886 043a 04A9     		add	r1, sp, #16
 3887              		.loc 1 1073 0
 3888 043c B0EE40AA 		vmov.f32	s20, s0
 3889              	.LVL321:
 3890              		.loc 1 1074 0
 3891 0440 08A8     		add	r0, sp, #32
 3892 0442 1FED420A 		vldr.32	s0, .L422+56
 3893              	.LVL322:
 3894 0446 FFF7FEFF 		bl	buffer_get_float32
 3895              	.LVL323:
 3896 044a B0EE40BA 		vmov.f32	s22, s0
 3897              	.LVL324:
 3898              		.loc 1 1075 0
 3899 044e FFF7FEFF 		bl	mc_interface_get_configuration
 3900              	.LVL325:
 3901 0452 4FF4E472 		mov	r2, #456
 3902 0456 0146     		mov	r1, r0
 3903 0458 0AA8     		add	r0, sp, #40
 3904 045a FFF7FEFF 		bl	memcpy
 3905              	.LVL326:
 3906              		.loc 1 1077 0
 3907 045e DDED247A 		vldr.32	s15, [sp, #144]
 3908 0462 F4EE4A7A 		vcmp.f32	s15, s20
 3909 0466 F1EE10FA 		vmrs	APSR_nzcv, FPSCR
 3910 046a 07D1     		bne	.L304
 3911              		.loc 1 1077 0 is_stmt 0 discriminator 1
 3912 046c DDED237A 		vldr.32	s15, [sp, #140]
 3913 0470 F4EE4B7A 		vcmp.f32	s15, s22
 3914 0474 F1EE10FA 		vmrs	APSR_nzcv, FPSCR
 3915 0478 3FF4EBAD 		beq	.L233
 3916              	.L304:
 3917              		.loc 1 1078 0 is_stmt 1
 3918 047c B5EEC0AA 		vcmpe.f32	s20, #0
 3919 0480 F1EE10FA 		vmrs	APSR_nzcv, FPSCR
 3920              		.loc 1 1079 0
 3921 0484 B5EEC0BA 		vcmpe.f32	s22, #0
 3922              		.loc 1 1078 0
 3923 0488 C8BF     		it	gt
 3924 048a 8DED24AA 		vstrgt.32	s20, [sp, #144]
 3925              		.loc 1 1081 0
 3926 048e F7EE000A 		vmov.f32	s1, #1.0e+0
 3927              		.loc 1 1079 0
 3928 0492 F1EE10FA 		vmrs	APSR_nzcv, FPSCR
 3929              		.loc 1 1081 0
 3930 0496 1FED560A 		vldr.32	s0, .L422+60
 3931              		.loc 1 1079 0
 3932 049a C8BF     		it	gt
 3933 049c 8DED23BA 		vstrgt.32	s22, [sp, #140]
ARM GAS  /tmp/ccj2MYXE.s 			page 70


 3934              		.loc 1 1081 0
 3935 04a0 24A8     		add	r0, sp, #144
 3936 04a2 FFF7FEFF 		bl	utils_truncate_number
 3937              	.LVL327:
 3938              		.loc 1 1082 0
 3939 04a6 F7EE000A 		vmov.f32	s1, #1.0e+0
 3940 04aa 1FED5B0A 		vldr.32	s0, .L422+60
 3941 04ae 23A8     		add	r0, sp, #140
 3942 04b0 FFF7FEFF 		bl	utils_truncate_number
 3943              	.LVL328:
 3944              		.loc 1 1084 0
 3945 04b4 0AA8     		add	r0, sp, #40
 3946 04b6 FFF7FEFF 		bl	mc_interface_set_configuration
 3947              	.LVL329:
 3948              	.LBE321:
 3949              		.loc 1 1086 0
 3950 04ba CAE5     		b	.L233
 3951              	.LVL330:
 3952              	.L282:
 3953              	.LBB322:
 3954              		.loc 1 1040 0
 3955 04bc 0223     		movs	r3, #2
 3956              		.loc 1 1041 0
 3957 04be 04A9     		add	r1, sp, #16
 3958 04c0 08A8     		add	r0, sp, #32
 3959 04c2 B0EE480A 		vmov.f32	s0, s16
 3960              		.loc 1 1040 0
 3961 04c6 0493     		str	r3, [sp, #16]
 3962              		.loc 1 1041 0
 3963 04c8 FFF7FEFF 		bl	buffer_get_float32
 3964              	.LVL331:
 3965              		.loc 1 1042 0
 3966 04cc 0021     		movs	r1, #0
 3967 04ce 0120     		movs	r0, #1
 3968 04d0 FFF7FEFF 		bl	conf_general_autodetect_apply_sensors_foc
 3969              	.LVL332:
 3970              		.loc 1 1045 0
 3971 04d4 9DF82030 		ldrb	r3, [sp, #32]	@ zero_extendqisi2
 3972              		.loc 1 1044 0
 3973 04d8 8DF82800 		strb	r0, [sp, #40]
 3974              		.loc 1 1045 0
 3975 04dc 0122     		movs	r2, #1
 3976 04de 43F41850 		orr	r0, r3, #9728
 3977              	.LVL333:
 3978 04e2 0AA9     		add	r1, sp, #40
 3979 04e4 FFF7FEFF 		bl	comm_can_transmit_eid
 3980              	.LVL334:
 3981              	.LBE322:
 3982              		.loc 1 1047 0
 3983 04e8 B3E5     		b	.L233
 3984              	.L281:
 3985              	.LBB323:
 3986              		.loc 1 1160 0
 3987 04ea 0023     		movs	r3, #0
 3988 04ec 0493     		str	r3, [sp, #16]
 3989              		.loc 1 1161 0
 3990 04ee FFF7FEFF 		bl	mc_interface_get_configuration
ARM GAS  /tmp/ccj2MYXE.s 			page 71


 3991              	.LVL335:
 3992 04f2 4FF4E472 		mov	r2, #456
 3993 04f6 0146     		mov	r1, r0
 3994 04f8 0AA8     		add	r0, sp, #40
 3995 04fa FFF7FEFF 		bl	memcpy
 3996              	.LVL336:
 3997              		.loc 1 1163 0
 3998 04fe 04A9     		add	r1, sp, #16
 3999 0500 08A8     		add	r0, sp, #32
 4000 0502 B7EE000A 		vmov.f32	s0, #1.0e+0
 4001 0506 FFF7FEFF 		bl	buffer_get_float32
 4002              	.LVL337:
 4003              		.loc 1 1164 0
 4004 050a 04A9     		add	r1, sp, #16
 4005              		.loc 1 1163 0
 4006 050c B0EE40AA 		vmov.f32	s20, s0
 4007              	.LVL338:
 4008              		.loc 1 1164 0
 4009 0510 08A8     		add	r0, sp, #32
 4010 0512 B7EE000A 		vmov.f32	s0, #1.0e+0
 4011              	.LVL339:
 4012 0516 FFF7FEFF 		bl	buffer_get_float32
 4013              	.LVL340:
 4014              		.loc 1 1166 0
 4015 051a DDED227A 		vldr.32	s15, [sp, #136]
 4016 051e F4EE4A7A 		vcmp.f32	s15, s20
 4017 0522 F1EE10FA 		vmrs	APSR_nzcv, FPSCR
 4018 0526 07D1     		bne	.L329
 4019              		.loc 1 1166 0 is_stmt 0 discriminator 1
 4020 0528 DDED217A 		vldr.32	s15, [sp, #132]
 4021 052c F4EE407A 		vcmp.f32	s15, s0
 4022 0530 F1EE10FA 		vmrs	APSR_nzcv, FPSCR
 4023 0534 3FF48DAD 		beq	.L233
 4024              	.L329:
 4025              		.loc 1 1167 0 is_stmt 1
 4026 0538 B5EEC0AA 		vcmpe.f32	s20, #0
 4027 053c F1EE10FA 		vmrs	APSR_nzcv, FPSCR
 4028              		.loc 1 1168 0
 4029 0540 B5EEC00A 		vcmpe.f32	s0, #0
 4030              		.loc 1 1167 0
 4031 0544 48BF     		it	mi
 4032 0546 8DED22AA 		vstrmi.32	s20, [sp, #136]
 4033              		.loc 1 1170 0
 4034 054a 0AA8     		add	r0, sp, #40
 4035              		.loc 1 1168 0
 4036 054c F1EE10FA 		vmrs	APSR_nzcv, FPSCR
 4037 0550 C8BF     		it	gt
 4038 0552 8DED210A 		vstrgt.32	s0, [sp, #132]
 4039              		.loc 1 1170 0
 4040 0556 FFF7FEFF 		bl	mc_interface_set_configuration
 4041              	.LVL341:
 4042              	.LBE323:
 4043              		.loc 1 1173 0
 4044 055a 7AE5     		b	.L233
 4045              	.LVL342:
 4046              	.L280:
 4047              		.loc 1 1176 0
ARM GAS  /tmp/ccj2MYXE.s 			page 72


 4048 055c 0023     		movs	r3, #0
 4049              		.loc 1 1177 0
 4050 055e 04A9     		add	r1, sp, #16
 4051 0560 08A8     		add	r0, sp, #32
 4052              		.loc 1 1176 0
 4053 0562 0493     		str	r3, [sp, #16]
 4054              		.loc 1 1177 0
 4055 0564 FFF7FEFF 		bl	buffer_get_uint16
 4056              	.LVL343:
 4057 0568 FFF7FEFF 		bl	mc_interface_set_brk_reku
 4058              	.LVL344:
 4059              		.loc 1 1178 0
 4060 056c 71E5     		b	.L233
 4061              	.L279:
 4062              	.LBB324:
 4063              		.loc 1 1137 0
 4064 056e 0023     		movs	r3, #0
 4065 0570 0493     		str	r3, [sp, #16]
 4066              		.loc 1 1138 0
 4067 0572 FFF7FEFF 		bl	mc_interface_get_configuration
 4068              	.LVL345:
 4069 0576 4FF4E472 		mov	r2, #456
 4070 057a 0146     		mov	r1, r0
 4071 057c 0AA8     		add	r0, sp, #40
 4072 057e FFF7FEFF 		bl	memcpy
 4073              	.LVL346:
 4074              		.loc 1 1139 0
 4075 0582 9DF8D931 		ldrb	r3, [sp, #473]	@ zero_extendqisi2
 4076 0586 5FED915A 		vldr.32	s11, .L422+64
 4077 058a 9DED787A 		vldr.32	s14, [sp, #480]
 4078 058e 5FED927A 		vldr.32	s15, .L422+68
 4079 0592 DDED776A 		vldr.32	s13, [sp, #476]
 4080              		.loc 1 1141 0
 4081 0596 1FED930A 		vldr.32	s0, .L422+72
 4082              		.loc 1 1139 0
 4083 059a 06EE103A 		vmov	s12, r3	@ int
 4084 059e BAEEEF6A 		vcvt.f32.s32	s12, s12, #1
 4085 05a2 67EE277A 		vmul.f32	s15, s14, s15
 4086 05a6 26EE086A 		vmul.f32	s12, s12, s16
 4087              		.loc 1 1141 0
 4088 05aa 04A9     		add	r1, sp, #16
 4089              		.loc 1 1139 0
 4090 05ac 86EE257A 		vdiv.f32	s14, s12, s11
 4091              		.loc 1 1141 0
 4092 05b0 08A8     		add	r0, sp, #32
 4093              		.loc 1 1139 0
 4094 05b2 27EE267A 		vmul.f32	s14, s14, s13
 4095 05b6 87EE27AA 		vdiv.f32	s20, s14, s15
 4096              	.LVL347:
 4097              		.loc 1 1141 0
 4098 05ba FFF7FEFF 		bl	buffer_get_float32
 4099              	.LVL348:
 4100 05be C84B     		ldr	r3, .L424
 4101              		.loc 1 1142 0
 4102 05c0 04A9     		add	r1, sp, #16
 4103 05c2 08A8     		add	r0, sp, #32
 4104              		.loc 1 1141 0
ARM GAS  /tmp/ccj2MYXE.s 			page 73


 4105 05c4 1C46     		mov	r4, r3
 4106 05c6 60EE0A7A 		vmul.f32	s15, s0, s20
 4107              		.loc 1 1142 0
 4108 05ca 9FEDC60A 		vldr.32	s0, .L424+4
 4109              		.loc 1 1141 0
 4110 05ce C3ED007A 		vstr.32	s15, [r3]
 4111              		.loc 1 1142 0
 4112 05d2 FFF7FEFF 		bl	buffer_get_float32
 4113              	.LVL349:
 4114              		.loc 1 1144 0
 4115 05d6 D4ED007A 		vldr.32	s15, [r4]
 4116 05da 9DED107A 		vldr.32	s14, [sp, #64]
 4117              		.loc 1 1142 0
 4118 05de C24B     		ldr	r3, .L424+8
 4119 05e0 20EE0A0A 		vmul.f32	s0, s0, s20
 4120              		.loc 1 1144 0
 4121 05e4 B4EE677A 		vcmp.f32	s14, s15
 4122 05e8 F1EE10FA 		vmrs	APSR_nzcv, FPSCR
 4123              		.loc 1 1142 0
 4124 05ec 83ED000A 		vstr.32	s0, [r3]
 4125              		.loc 1 1144 0
 4126 05f0 06D1     		bne	.L320
 4127              		.loc 1 1144 0 is_stmt 0 discriminator 1
 4128 05f2 9DED117A 		vldr.32	s14, [sp, #68]
 4129 05f6 B4EE470A 		vcmp.f32	s0, s14
 4130 05fa F1EE10FA 		vmrs	APSR_nzcv, FPSCR
 4131 05fe 2AD0     		beq	.L321
 4132              	.L320:
 4133              		.loc 1 1145 0 is_stmt 1
 4134 0600 F5EEC07A 		vcmpe.f32	s15, #0
 4135 0604 F1EE10FA 		vmrs	APSR_nzcv, FPSCR
 4136              		.loc 1 1146 0
 4137 0608 B5EEC00A 		vcmpe.f32	s0, #0
 4138              		.loc 1 1145 0
 4139 060c 48BF     		it	mi
 4140 060e CDED107A 		vstrmi.32	s15, [sp, #64]
 4141              		.loc 1 1146 0
 4142 0612 F1EE10FA 		vmrs	APSR_nzcv, FPSCR
 4143 0616 08DD     		ble	.L324
 4144              		.loc 1 1146 0 is_stmt 0 discriminator 1
 4145 0618 DDED117A 		vldr.32	s15, [sp, #68]
 4146 061c B4EEE70A 		vcmpe.f32	s0, s15
 4147 0620 F1EE10FA 		vmrs	APSR_nzcv, FPSCR
 4148 0624 48BF     		it	mi
 4149 0626 8DED110A 		vstrmi.32	s0, [sp, #68]
 4150              	.L324:
 4151              		.loc 1 1148 0 is_stmt 1
 4152 062a F0EE490A 		vmov.f32	s1, s18
 4153 062e B0EE680A 		vmov.f32	s0, s17
 4154 0632 10A8     		add	r0, sp, #64
 4155 0634 FFF7FEFF 		bl	utils_truncate_number
 4156              	.LVL350:
 4157              		.loc 1 1149 0
 4158 0638 B0EE680A 		vmov.f32	s0, s17
 4159 063c F0EE490A 		vmov.f32	s1, s18
 4160 0640 11A8     		add	r0, sp, #68
 4161 0642 FFF7FEFF 		bl	utils_truncate_number
ARM GAS  /tmp/ccj2MYXE.s 			page 74


 4162              	.LVL351:
 4163              		.loc 1 1151 0
 4164 0646 0AA8     		add	r0, sp, #40
 4165 0648 FFF7FEFF 		bl	mc_interface_set_configuration
 4166              	.LVL352:
 4167 064c A64B     		ldr	r3, .L424+8
 4168 064e 9DED117A 		vldr.32	s14, [sp, #68]
 4169 0652 93ED000A 		vldr.32	s0, [r3]
 4170              	.L321:
 4171              		.loc 1 1153 0
 4172 0656 B4EEC70A 		vcmpe.f32	s0, s14
 4173 065a F1EE10FA 		vmrs	APSR_nzcv, FPSCR
 4174 065e 7FF7F8AC 		ble	.L233
 4175              		.loc 1 1155 0
 4176 0662 A24A     		ldr	r2, .L424+12
 4177 0664 0123     		movs	r3, #1
 4178 0666 1370     		strb	r3, [r2]
 4179              	.LBE324:
 4180              		.loc 1 1157 0
 4181 0668 F3E4     		b	.L233
 4182              	.LVL353:
 4183              	.L278:
 4184              		.loc 1 1226 0
 4185 066a 0023     		movs	r3, #0
 4186              		.loc 1 1227 0
 4187 066c 04A9     		add	r1, sp, #16
 4188 066e 08A8     		add	r0, sp, #32
 4189 0670 B0EE480A 		vmov.f32	s0, s16
 4190              		.loc 1 1226 0
 4191 0674 0493     		str	r3, [sp, #16]
 4192              		.loc 1 1227 0
 4193 0676 FFF7FEFF 		bl	buffer_get_float16u
 4194              	.LVL354:
 4195 067a 0120     		movs	r0, #1
 4196 067c FFF7FEFF 		bl	mc_interface_set_cell_voltage_bms
 4197              	.LVL355:
 4198              		.loc 1 1228 0
 4199 0680 08A8     		add	r0, sp, #32
 4200 0682 04A9     		add	r1, sp, #16
 4201 0684 B0EE480A 		vmov.f32	s0, s16
 4202 0688 FFF7FEFF 		bl	buffer_get_float16u
 4203              	.LVL356:
 4204 068c 0220     		movs	r0, #2
 4205 068e FFF7FEFF 		bl	mc_interface_set_cell_voltage_bms
 4206              	.LVL357:
 4207              		.loc 1 1229 0
 4208 0692 DEE4     		b	.L233
 4209              	.L277:
 4210              		.loc 1 1221 0
 4211 0694 0223     		movs	r3, #2
 4212              		.loc 1 1222 0
 4213 0696 04A9     		add	r1, sp, #16
 4214 0698 08A8     		add	r0, sp, #32
 4215 069a B0EE480A 		vmov.f32	s0, s16
 4216              		.loc 1 1221 0
 4217 069e 0493     		str	r3, [sp, #16]
 4218              		.loc 1 1222 0
ARM GAS  /tmp/ccj2MYXE.s 			page 75


 4219 06a0 FFF7FEFF 		bl	buffer_get_float16u
 4220              	.LVL358:
 4221 06a4 FFF7FEFF 		bl	mc_interface_set_voltage_display
 4222              	.LVL359:
 4223              		.loc 1 1223 0
 4224 06a8 D3E4     		b	.L233
 4225              	.L276:
 4226              		.loc 1 1205 0
 4227 06aa 0023     		movs	r3, #0
 4228              		.loc 1 1206 0
 4229 06ac 04A9     		add	r1, sp, #16
 4230 06ae 08A8     		add	r0, sp, #32
 4231              		.loc 1 1205 0
 4232 06b0 0493     		str	r3, [sp, #16]
 4233              		.loc 1 1206 0
 4234 06b2 FFF7FEFF 		bl	buffer_get_uint16
 4235              	.LVL360:
 4236 06b6 FFF7FEFF 		bl	mc_interface_set_gas
 4237              	.LVL361:
 4238              		.loc 1 1207 0
 4239 06ba FFF7FEFF 		bl	timeout_reset
 4240              	.LVL362:
 4241              		.loc 1 1211 0
 4242 06be 8B4B     		ldr	r3, .L424+12
 4243 06c0 1B78     		ldrb	r3, [r3]	@ zero_extendqisi2
 4244 06c2 002B     		cmp	r3, #0
 4245 06c4 3FF4C5AC 		beq	.L233
 4246              		.loc 1 1211 0 is_stmt 0 discriminator 1
 4247 06c8 FFF7FEFF 		bl	mc_interface_get_tot_current_filtered
 4248              	.LVL363:
 4249 06cc F2EE047A 		vmov.f32	s15, #1.0e+1
 4250 06d0 B4EEE70A 		vcmpe.f32	s0, s15
 4251 06d4 F1EE10FA 		vmrs	APSR_nzcv, FPSCR
 4252 06d8 7FF5BBAC 		bpl	.L233
 4253              	.LBB325:
 4254              		.loc 1 1212 0 is_stmt 1
 4255 06dc FFF7FEFF 		bl	mc_interface_get_configuration
 4256              	.LVL364:
 4257 06e0 4FF4E472 		mov	r2, #456
 4258 06e4 0146     		mov	r1, r0
 4259 06e6 0AA8     		add	r0, sp, #40
 4260 06e8 FFF7FEFF 		bl	memcpy
 4261              	.LVL365:
 4262              		.loc 1 1213 0
 4263 06ec 7E4B     		ldr	r3, .L424+8
 4264 06ee D3ED007A 		vldr.32	s15, [r3]
 4265 06f2 F5EEC07A 		vcmpe.f32	s15, #0
 4266 06f6 F1EE10FA 		vmrs	APSR_nzcv, FPSCR
 4267              		.loc 1 1214 0
 4268 06fa F0EE490A 		vmov.f32	s1, s18
 4269 06fe B0EE680A 		vmov.f32	s0, s17
 4270 0702 11A8     		add	r0, sp, #68
 4271              		.loc 1 1213 0
 4272 0704 C8BF     		it	gt
 4273 0706 CDED117A 		vstrgt.32	s15, [sp, #68]
 4274              		.loc 1 1214 0
 4275 070a FFF7FEFF 		bl	utils_truncate_number
ARM GAS  /tmp/ccj2MYXE.s 			page 76


 4276              	.LVL366:
 4277              		.loc 1 1215 0
 4278 070e 0AA8     		add	r0, sp, #40
 4279 0710 FFF7FEFF 		bl	mc_interface_set_configuration
 4280              	.LVL367:
 4281              		.loc 1 1216 0
 4282 0714 754A     		ldr	r2, .L424+12
 4283 0716 0023     		movs	r3, #0
 4284 0718 1370     		strb	r3, [r2]
 4285 071a 9AE4     		b	.L233
 4286              	.L275:
 4287              	.LBE325:
 4288              		.loc 1 1194 0
 4289 071c 9DF81830 		ldrb	r3, [sp, #24]	@ zero_extendqisi2
 4290 0720 03F00F03 		and	r3, r3, #15
 4291              		.loc 1 1193 0
 4292 0724 0022     		movs	r2, #0
 4293              		.loc 1 1194 0
 4294 0726 022B     		cmp	r3, #2
 4295              		.loc 1 1193 0
 4296 0728 0492     		str	r2, [sp, #16]
 4297              		.loc 1 1194 0
 4298 072a 00F0A483 		beq	.L408
 4299              	.L336:
 4300              		.loc 1 1197 0
 4301 072e 042B     		cmp	r3, #4
 4302 0730 7FF48FAC 		bne	.L233
 4303              		.loc 1 1198 0
 4304 0734 04A9     		add	r1, sp, #16
 4305 0736 08A8     		add	r0, sp, #32
 4306 0738 FFF7FEFF 		bl	buffer_get_uint16
 4307              	.LVL368:
 4308 073c FFF7FEFF 		bl	mc_interface_set_reku
 4309              	.LVL369:
 4310              		.loc 1 1199 0
 4311 0740 04A9     		add	r1, sp, #16
 4312 0742 08A8     		add	r0, sp, #32
 4313 0744 FFF7FEFF 		bl	buffer_get_uint16
 4314              	.LVL370:
 4315 0748 FFF7FEFF 		bl	mc_interface_set_gas
 4316              	.LVL371:
 4317              		.loc 1 1200 0
 4318 074c FFF7FEFF 		bl	timeout_reset
 4319              	.LVL372:
 4320 0750 7FE4     		b	.L233
 4321              	.L274:
 4322              		.loc 1 1182 0
 4323 0752 9DF81830 		ldrb	r3, [sp, #24]	@ zero_extendqisi2
 4324 0756 03F00F03 		and	r3, r3, #15
 4325              		.loc 1 1181 0
 4326 075a 0022     		movs	r2, #0
 4327              		.loc 1 1182 0
 4328 075c 022B     		cmp	r3, #2
 4329              		.loc 1 1181 0
 4330 075e 0492     		str	r2, [sp, #16]
 4331              		.loc 1 1182 0
 4332 0760 00F07E83 		beq	.L409
ARM GAS  /tmp/ccj2MYXE.s 			page 77


 4333              	.L335:
 4334              		.loc 1 1185 0
 4335 0764 042B     		cmp	r3, #4
 4336 0766 7FF474AC 		bne	.L233
 4337              		.loc 1 1186 0
 4338 076a 04A9     		add	r1, sp, #16
 4339 076c 08A8     		add	r0, sp, #32
 4340 076e FFF7FEFF 		bl	buffer_get_uint16
 4341              	.LVL373:
 4342 0772 FFF7FEFF 		bl	mc_interface_set_enviro
 4343              	.LVL374:
 4344              		.loc 1 1187 0
 4345 0776 04A9     		add	r1, sp, #16
 4346 0778 08A8     		add	r0, sp, #32
 4347 077a FFF7FEFF 		bl	buffer_get_uint16
 4348              	.LVL375:
 4349 077e FFF7FEFF 		bl	mc_interface_set_wheely_crtl
 4350              	.LVL376:
 4351 0782 66E4     		b	.L233
 4352              	.L273:
 4353              	.LBB326:
 4354              		.loc 1 1118 0
 4355 0784 0023     		movs	r3, #0
 4356              		.loc 1 1119 0
 4357 0786 04A9     		add	r1, sp, #16
 4358 0788 08A8     		add	r0, sp, #32
 4359 078a B0EE480A 		vmov.f32	s0, s16
 4360              		.loc 1 1118 0
 4361 078e 0493     		str	r3, [sp, #16]
 4362              		.loc 1 1119 0
 4363 0790 FFF7FEFF 		bl	buffer_get_float32
 4364              	.LVL377:
 4365              		.loc 1 1120 0
 4366 0794 04A9     		add	r1, sp, #16
 4367              		.loc 1 1119 0
 4368 0796 B0EE40AA 		vmov.f32	s20, s0
 4369              	.LVL378:
 4370              		.loc 1 1120 0
 4371 079a 08A8     		add	r0, sp, #32
 4372 079c B0EE480A 		vmov.f32	s0, s16
 4373              	.LVL379:
 4374 07a0 FFF7FEFF 		bl	buffer_get_float32
 4375              	.LVL380:
 4376 07a4 B0EE40BA 		vmov.f32	s22, s0
 4377              	.LVL381:
 4378              		.loc 1 1121 0
 4379 07a8 FFF7FEFF 		bl	mc_interface_get_configuration
 4380              	.LVL382:
 4381 07ac 4FF4E472 		mov	r2, #456
 4382 07b0 0146     		mov	r1, r0
 4383 07b2 0AA8     		add	r0, sp, #40
 4384 07b4 FFF7FEFF 		bl	memcpy
 4385              	.LVL383:
 4386              		.loc 1 1123 0
 4387 07b8 DDED4A7A 		vldr.32	s15, [sp, #296]
 4388 07bc F4EE4A7A 		vcmp.f32	s15, s20
 4389 07c0 F1EE10FA 		vmrs	APSR_nzcv, FPSCR
ARM GAS  /tmp/ccj2MYXE.s 			page 78


 4390 07c4 07D1     		bne	.L317
 4391              		.loc 1 1123 0 is_stmt 0 discriminator 1
 4392 07c6 DDED527A 		vldr.32	s15, [sp, #328]
 4393 07ca F4EE4B7A 		vcmp.f32	s15, s22
 4394 07ce F1EE10FA 		vmrs	APSR_nzcv, FPSCR
 4395 07d2 3FF462AC 		beq	.L286
 4396              	.L317:
 4397              		.loc 1 1128 0 is_stmt 1
 4398 07d6 1A2C     		cmp	r4, #26
 4399              		.loc 1 1125 0
 4400 07d8 8DED4AAA 		vstr.32	s20, [sp, #296]
 4401              		.loc 1 1126 0
 4402 07dc 8DED52BA 		vstr.32	s22, [sp, #328]
 4403              		.loc 1 1128 0
 4404 07e0 4AD0     		beq	.L401
 4405              	.LVL384:
 4406              	.L319:
 4407              		.loc 1 1132 0
 4408 07e2 0AA8     		add	r0, sp, #40
 4409 07e4 FFF7FEFF 		bl	mc_interface_set_configuration
 4410              	.LVL385:
 4411              	.LBE326:
 4412              		.loc 1 1134 0
 4413 07e8 57E4     		b	.L286
 4414              	.L272:
 4415              	.LBB327:
 4416              		.loc 1 1096 0
 4417 07ea 0023     		movs	r3, #0
 4418              		.loc 1 1097 0
 4419 07ec 04A9     		add	r1, sp, #16
 4420 07ee 08A8     		add	r0, sp, #32
 4421 07f0 B0EE480A 		vmov.f32	s0, s16
 4422              		.loc 1 1096 0
 4423 07f4 0493     		str	r3, [sp, #16]
 4424              		.loc 1 1097 0
 4425 07f6 FFF7FEFF 		bl	buffer_get_float32
 4426              	.LVL386:
 4427              		.loc 1 1098 0
 4428 07fa 04A9     		add	r1, sp, #16
 4429              		.loc 1 1097 0
 4430 07fc B0EE40AA 		vmov.f32	s20, s0
 4431              	.LVL387:
 4432              		.loc 1 1098 0
 4433 0800 08A8     		add	r0, sp, #32
 4434 0802 B0EE480A 		vmov.f32	s0, s16
 4435              	.LVL388:
 4436 0806 FFF7FEFF 		bl	buffer_get_float32
 4437              	.LVL389:
 4438 080a B0EE40BA 		vmov.f32	s22, s0
 4439              	.LVL390:
 4440              		.loc 1 1099 0
 4441 080e FFF7FEFF 		bl	mc_interface_get_configuration
 4442              	.LVL391:
 4443 0812 4FF4E472 		mov	r2, #456
 4444 0816 0146     		mov	r1, r0
 4445 0818 0AA8     		add	r0, sp, #40
 4446 081a FFF7FEFF 		bl	memcpy
ARM GAS  /tmp/ccj2MYXE.s 			page 79


 4447              	.LVL392:
 4448              		.loc 1 1101 0
 4449 081e DDED0E7A 		vldr.32	s15, [sp, #56]
 4450 0822 F4EE4A7A 		vcmp.f32	s15, s20
 4451 0826 F1EE10FA 		vmrs	APSR_nzcv, FPSCR
 4452 082a 07D1     		bne	.L310
 4453              		.loc 1 1101 0 is_stmt 0 discriminator 1
 4454 082c DDED0D7A 		vldr.32	s15, [sp, #52]
 4455 0830 F4EE4B7A 		vcmp.f32	s15, s22
 4456 0834 F1EE10FA 		vmrs	APSR_nzcv, FPSCR
 4457 0838 3FF42FAC 		beq	.L286
 4458              	.L310:
 4459              		.loc 1 1102 0 is_stmt 1
 4460 083c B5EEC0AA 		vcmpe.f32	s20, #0
 4461 0840 F1EE10FA 		vmrs	APSR_nzcv, FPSCR
 4462              		.loc 1 1103 0
 4463 0844 B5EEC0BA 		vcmpe.f32	s22, #0
 4464              		.loc 1 1102 0
 4465 0848 48BF     		it	mi
 4466 084a 8DED0EAA 		vstrmi.32	s20, [sp, #56]
 4467              		.loc 1 1105 0
 4468 084e DFED280A 		vldr.32	s1, .L424+16
 4469 0852 9FED280A 		vldr.32	s0, .L424+20
 4470              		.loc 1 1103 0
 4471 0856 F1EE10FA 		vmrs	APSR_nzcv, FPSCR
 4472              		.loc 1 1105 0
 4473 085a 0EA8     		add	r0, sp, #56
 4474              		.loc 1 1103 0
 4475 085c C8BF     		it	gt
 4476 085e 8DED0DBA 		vstrgt.32	s22, [sp, #52]
 4477              		.loc 1 1105 0
 4478 0862 FFF7FEFF 		bl	utils_truncate_number
 4479              	.LVL393:
 4480              		.loc 1 1106 0
 4481 0866 DFED220A 		vldr.32	s1, .L424+16
 4482 086a 9FED220A 		vldr.32	s0, .L424+20
 4483 086e 0DA8     		add	r0, sp, #52
 4484 0870 FFF7FEFF 		bl	utils_truncate_number
 4485              	.LVL394:
 4486              		.loc 1 1108 0
 4487 0874 182C     		cmp	r4, #24
 4488 0876 B4D1     		bne	.L319
 4489              	.LVL395:
 4490              	.L401:
 4491              	.LBE327:
 4492              	.LBB328:
 4493              		.loc 1 1129 0
 4494 0878 0AA8     		add	r0, sp, #40
 4495 087a FFF7FEFF 		bl	conf_general_store_mc_configuration
 4496              	.LVL396:
 4497 087e B0E7     		b	.L319
 4498              	.L270:
 4499              	.LBE328:
 4500              		.loc 1 1035 0
 4501 0880 1D48     		ldr	r0, .L424+24
 4502 0882 1E4C     		ldr	r4, .L424+28
 4503 0884 0268     		ldr	r2, [r0]
ARM GAS  /tmp/ccj2MYXE.s 			page 80


 4504 0886 9DF82010 		ldrb	r1, [sp, #32]	@ zero_extendqisi2
 4505              		.loc 1 1036 0
 4506 088a 1D4B     		ldr	r3, .L424+32
 4507              		.loc 1 1035 0
 4508 088c A154     		strb	r1, [r4, r2]
 4509 088e 0132     		adds	r2, r2, #1
 4510              		.loc 1 1036 0
 4511 0890 A3FB0213 		umull	r1, r3, r3, r2
 4512 0894 1B09     		lsrs	r3, r3, #4
 4513 0896 3221     		movs	r1, #50
 4514 0898 01FB1323 		mls	r3, r1, r3, r2
 4515 089c 0360     		str	r3, [r0]
 4516              		.loc 1 1037 0
 4517 089e FFF7D8BB 		b	.L233
 4518              	.L269:
 4519              	.LBB329:
 4520              		.loc 1 1015 0
 4521 08a2 0223     		movs	r3, #2
 4522              		.loc 1 1016 0
 4523 08a4 04A9     		add	r1, sp, #16
 4524 08a6 08A8     		add	r0, sp, #32
 4525 08a8 B0EE480A 		vmov.f32	s0, s16
 4526              		.loc 1 1015 0
 4527 08ac 0493     		str	r3, [sp, #16]
 4528 08ae 9DF82150 		ldrb	r5, [sp, #33]	@ zero_extendqisi2
 4529              	.LVL397:
 4530              		.loc 1 1016 0
 4531 08b2 FFF7FEFF 		bl	buffer_get_float32
 4532              	.LVL398:
 4533              		.loc 1 1017 0
 4534 08b6 0021     		movs	r1, #0
 4535 08b8 0120     		movs	r0, #1
 4536 08ba FFF7FEFF 		bl	conf_general_detect_apply_all_foc
 4537              	.LVL399:
 4538              		.loc 1 1018 0
 4539 08be 041E     		subs	r4, r0, #0
 4540 08c0 02DB     		blt	.L295
 4541              		.loc 1 1018 0 is_stmt 0 discriminator 1
 4542 08c2 002D     		cmp	r5, #0
 4543 08c4 40F0B582 		bne	.L410
 4544              	.LVL400:
 4545              	.L295:
 4546              		.loc 1 1030 0 is_stmt 1
 4547 08c8 9DF82000 		ldrb	r0, [sp, #32]	@ zero_extendqisi2
 4548              		.loc 1 1029 0
 4549 08cc 8DF82840 		strb	r4, [sp, #40]
 4550              		.loc 1 1030 0
 4551 08d0 40F4A050 		orr	r0, r0, #5120
 4552 08d4 0122     		movs	r2, #1
 4553 08d6 0AA9     		add	r1, sp, #40
 4554 08d8 FFF7FEFF 		bl	comm_can_transmit_eid
 4555              	.LVL401:
 4556              	.LBE329:
 4557              		.loc 1 1032 0
 4558 08dc FFF7B9BB 		b	.L233
 4559              	.L425:
 4560              		.align	2
ARM GAS  /tmp/ccj2MYXE.s 			page 81


 4561              	.L424:
 4562 08e0 00000000 		.word	.LANCHOR23
 4563 08e4 00007A44 		.word	1148846080
 4564 08e8 00000000 		.word	.LANCHOR24
 4565 08ec 00000000 		.word	.LANCHOR13
 4566 08f0 0000C842 		.word	1120403456
 4567 08f4 0000C8C2 		.word	3267887104
 4568 08f8 00000000 		.word	.LANCHOR17
 4569 08fc 00000000 		.word	.LANCHOR18
 4570 0900 1F85EB51 		.word	1374389535
 4571 0904 00009643 		.word	1133903872
 4572 0908 000096C3 		.word	3281387520
 4573              	.LVL402:
 4574              	.L271:
 4575              	.LBB331:
 4576              		.loc 1 1051 0
 4577 090c 0023     		movs	r3, #0
 4578              		.loc 1 1052 0
 4579 090e 04A9     		add	r1, sp, #16
 4580 0910 08A8     		add	r0, sp, #32
 4581 0912 B0EE480A 		vmov.f32	s0, s16
 4582              		.loc 1 1051 0
 4583 0916 0493     		str	r3, [sp, #16]
 4584              		.loc 1 1052 0
 4585 0918 FFF7FEFF 		bl	buffer_get_float32
 4586              	.LVL403:
 4587              		.loc 1 1053 0
 4588 091c 04A9     		add	r1, sp, #16
 4589              		.loc 1 1052 0
 4590 091e B0EE40AA 		vmov.f32	s20, s0
 4591              	.LVL404:
 4592              		.loc 1 1053 0
 4593 0922 08A8     		add	r0, sp, #32
 4594 0924 B0EE480A 		vmov.f32	s0, s16
 4595              	.LVL405:
 4596 0928 FFF7FEFF 		bl	buffer_get_float32
 4597              	.LVL406:
 4598 092c B0EE40BA 		vmov.f32	s22, s0
 4599              	.LVL407:
 4600              		.loc 1 1054 0
 4601 0930 FFF7FEFF 		bl	mc_interface_get_configuration
 4602              	.LVL408:
 4603 0934 4FF4E472 		mov	r2, #456
 4604 0938 0146     		mov	r1, r0
 4605 093a 0AA8     		add	r0, sp, #40
 4606 093c FFF7FEFF 		bl	memcpy
 4607              	.LVL409:
 4608              		.loc 1 1056 0
 4609 0940 DDED0C7A 		vldr.32	s15, [sp, #48]
 4610 0944 F4EE4A7A 		vcmp.f32	s15, s20
 4611 0948 F1EE10FA 		vmrs	APSR_nzcv, FPSCR
 4612 094c 07D1     		bne	.L297
 4613              		.loc 1 1056 0 is_stmt 0 discriminator 1
 4614 094e DDED0B7A 		vldr.32	s15, [sp, #44]
 4615 0952 F4EE4B7A 		vcmp.f32	s15, s22
 4616 0956 F1EE10FA 		vmrs	APSR_nzcv, FPSCR
 4617 095a 3FF49EAB 		beq	.L286
ARM GAS  /tmp/ccj2MYXE.s 			page 82


 4618              	.L297:
 4619              		.loc 1 1057 0 is_stmt 1
 4620 095e B5EEC0AA 		vcmpe.f32	s20, #0
 4621 0962 F1EE10FA 		vmrs	APSR_nzcv, FPSCR
 4622              		.loc 1 1058 0
 4623 0966 B5EEC0BA 		vcmpe.f32	s22, #0
 4624              		.loc 1 1057 0
 4625 096a 48BF     		it	mi
 4626 096c 8DED0CAA 		vstrmi.32	s20, [sp, #48]
 4627              		.loc 1 1060 0
 4628 0970 5FED1C0A 		vldr.32	s1, .L424+36
 4629 0974 1FED1C0A 		vldr.32	s0, .L424+40
 4630              		.loc 1 1058 0
 4631 0978 F1EE10FA 		vmrs	APSR_nzcv, FPSCR
 4632              		.loc 1 1060 0
 4633 097c 0CA8     		add	r0, sp, #48
 4634              		.loc 1 1058 0
 4635 097e C8BF     		it	gt
 4636 0980 8DED0BBA 		vstrgt.32	s22, [sp, #44]
 4637              		.loc 1 1060 0
 4638 0984 FFF7FEFF 		bl	utils_truncate_number
 4639              	.LVL410:
 4640              		.loc 1 1061 0
 4641 0988 5FED220A 		vldr.32	s1, .L424+36
 4642 098c 1FED220A 		vldr.32	s0, .L424+40
 4643 0990 0BA8     		add	r0, sp, #44
 4644 0992 FFF7FEFF 		bl	utils_truncate_number
 4645              	.LVL411:
 4646              		.loc 1 1063 0
 4647 0996 162C     		cmp	r4, #22
 4648 0998 7FF423AF 		bne	.L319
 4649              	.LBE331:
 4650              	.LBB332:
 4651              		.loc 1 1129 0
 4652 099c 0AA8     		add	r0, sp, #40
 4653 099e FFF7FEFF 		bl	conf_general_store_mc_configuration
 4654              	.LVL412:
 4655 09a2 1EE7     		b	.L319
 4656              	.LVL413:
 4657              	.L268:
 4658              	.LBE332:
 4659              		.loc 1 1008 0
 4660 09a4 B34B     		ldr	r3, .L426
 4661 09a6 1868     		ldr	r0, [r3]
 4662 09a8 0028     		cmp	r0, #0
 4663 09aa 3FF452AB 		beq	.L233
 4664              		.loc 1 1009 0
 4665 09ae 4FF00051 		mov	r1, #536870912
 4666 09b2 FFF7FEFF 		bl	chEvtSignal
 4667              	.LVL414:
 4668 09b6 FFF74CBB 		b	.L233
 4669              	.L267:
 4670              	.LBB333:
 4671              		.loc 1 1001 0
 4672 09ba FFF7FEFF 		bl	app_get_configuration
 4673              	.LVL415:
 4674              		.loc 1 1002 0
ARM GAS  /tmp/ccj2MYXE.s 			page 83


 4675 09be 9DF82030 		ldrb	r3, [sp, #32]	@ zero_extendqisi2
 4676              		.loc 1 1001 0
 4677 09c2 0278     		ldrb	r2, [r0]	@ zero_extendqisi2
 4678 09c4 8DF82820 		strb	r2, [sp, #40]
 4679              		.loc 1 1002 0
 4680 09c8 43F49050 		orr	r0, r3, #4608
 4681 09cc 0122     		movs	r2, #1
 4682 09ce 0AA9     		add	r1, sp, #40
 4683 09d0 FFF7FEFF 		bl	comm_can_transmit_eid
 4684              	.LVL416:
 4685              	.LBE333:
 4686              		.loc 1 1004 0
 4687 09d4 FFF73DBB 		b	.L233
 4688              	.L266:
 4689              		.loc 1 994 0
 4690 09d8 0023     		movs	r3, #0
 4691              		.loc 1 995 0
 4692 09da 04A9     		add	r1, sp, #16
 4693 09dc 08A8     		add	r0, sp, #32
 4694 09de 9FEDA60A 		vldr.32	s0, .L426+4
 4695              		.loc 1 994 0
 4696 09e2 0493     		str	r3, [sp, #16]
 4697              		.loc 1 995 0
 4698 09e4 FFF7FEFF 		bl	buffer_get_float32
 4699              	.LVL417:
 4700 09e8 FFF7FEFF 		bl	mc_interface_set_handbrake_rel
 4701              	.LVL418:
 4702              		.loc 1 996 0
 4703 09ec FFF7FEFF 		bl	timeout_reset
 4704              	.LVL419:
 4705              		.loc 1 997 0
 4706 09f0 FFF72FBB 		b	.L233
 4707              	.L265:
 4708              		.loc 1 988 0
 4709 09f4 0023     		movs	r3, #0
 4710              		.loc 1 989 0
 4711 09f6 04A9     		add	r1, sp, #16
 4712 09f8 08A8     		add	r0, sp, #32
 4713 09fa B0EE480A 		vmov.f32	s0, s16
 4714              		.loc 1 988 0
 4715 09fe 0493     		str	r3, [sp, #16]
 4716              		.loc 1 989 0
 4717 0a00 FFF7FEFF 		bl	buffer_get_float32
 4718              	.LVL420:
 4719 0a04 FFF7FEFF 		bl	mc_interface_set_handbrake
 4720              	.LVL421:
 4721              		.loc 1 990 0
 4722 0a08 FFF7FEFF 		bl	timeout_reset
 4723              	.LVL422:
 4724              		.loc 1 991 0
 4725 0a0c FFF721BB 		b	.L233
 4726              	.L264:
 4727              		.loc 1 982 0
 4728 0a10 0023     		movs	r3, #0
 4729              		.loc 1 983 0
 4730 0a12 04A9     		add	r1, sp, #16
 4731 0a14 08A8     		add	r0, sp, #32
ARM GAS  /tmp/ccj2MYXE.s 			page 84


 4732 0a16 9FED980A 		vldr.32	s0, .L426+4
 4733              		.loc 1 982 0
 4734 0a1a 0493     		str	r3, [sp, #16]
 4735              		.loc 1 983 0
 4736 0a1c FFF7FEFF 		bl	buffer_get_float32
 4737              	.LVL423:
 4738 0a20 FFF7FEFF 		bl	mc_interface_set_brake_current_rel
 4739              	.LVL424:
 4740              		.loc 1 984 0
 4741 0a24 FFF7FEFF 		bl	timeout_reset
 4742              	.LVL425:
 4743              		.loc 1 985 0
 4744 0a28 FFF713BB 		b	.L233
 4745              	.L263:
 4746              		.loc 1 976 0
 4747 0a2c 0023     		movs	r3, #0
 4748              		.loc 1 977 0
 4749 0a2e 04A9     		add	r1, sp, #16
 4750 0a30 08A8     		add	r0, sp, #32
 4751 0a32 9FED910A 		vldr.32	s0, .L426+4
 4752              		.loc 1 976 0
 4753 0a36 0493     		str	r3, [sp, #16]
 4754              		.loc 1 977 0
 4755 0a38 FFF7FEFF 		bl	buffer_get_float32
 4756              	.LVL426:
 4757 0a3c FFF7FEFF 		bl	mc_interface_set_current_rel
 4758              	.LVL427:
 4759              		.loc 1 978 0
 4760 0a40 FFF7FEFF 		bl	timeout_reset
 4761              	.LVL428:
 4762              		.loc 1 979 0
 4763 0a44 FFF705BB 		b	.L233
 4764              	.L262:
 4765              		.loc 1 960 0
 4766 0a48 9DF82130 		ldrb	r3, [sp, #33]	@ zero_extendqisi2
 4767              		.loc 1 957 0
 4768 0a4c 8B49     		ldr	r1, .L426+8
 4769 0a4e 9DF82020 		ldrb	r2, [sp, #32]	@ zero_extendqisi2
 4770 0a52 0A60     		str	r2, [r1]
 4771              		.loc 1 960 0
 4772 0a54 012B     		cmp	r3, #1
 4773              		.loc 1 958 0
 4774 0a56 4FF00202 		mov	r2, #2
 4775 0a5a 0492     		str	r2, [sp, #16]
 4776              	.LVL429:
 4777              		.loc 1 960 0
 4778 0a5c 00F0DE81 		beq	.L292
 4779 0a60 C0F0D081 		bcc	.L293
 4780 0a64 9342     		cmp	r3, r2
 4781 0a66 7FF418AB 		bne	.L286
 4782              		.loc 1 968 0
 4783 0a6a 9DF81810 		ldrb	r1, [sp, #24]	@ zero_extendqisi2
 4784 0a6e 01F00F01 		and	r1, r1, #15
 4785 0a72 0239     		subs	r1, r1, #2
 4786 0a74 0022     		movs	r2, #0
 4787 0a76 0DF12200 		add	r0, sp, #34
 4788 0a7a FFF7FEFF 		bl	commands_process_packet
ARM GAS  /tmp/ccj2MYXE.s 			page 85


 4789              	.LVL430:
 4790              		.loc 1 969 0
 4791 0a7e FFF7E8BA 		b	.L233
 4792              	.L261:
 4793              		.loc 1 927 0
 4794 0a82 9DF82330 		ldrb	r3, [sp, #35]	@ zero_extendqisi2
 4795              		.loc 1 926 0
 4796 0a86 9DF82220 		ldrb	r2, [sp, #34]	@ zero_extendqisi2
 4797              		.loc 1 924 0
 4798 0a8a 7C48     		ldr	r0, .L426+8
 4799 0a8c 9DF82010 		ldrb	r1, [sp, #32]	@ zero_extendqisi2
 4800 0a90 0160     		str	r1, [r0]
 4801              		.loc 1 927 0
 4802 0a92 43EA0222 		orr	r2, r3, r2, lsl #8
 4803 0a96 0423     		movs	r3, #4
 4804 0a98 0493     		str	r3, [sp, #16]
 4805              		.loc 1 929 0
 4806 0a9a B2F5007F 		cmp	r2, #512
 4807              		.loc 1 925 0
 4808 0a9e 9DF82130 		ldrb	r3, [sp, #33]	@ zero_extendqisi2
 4809 0aa2 0093     		str	r3, [sp]
 4810              	.LVL431:
 4811              		.loc 1 929 0
 4812 0aa4 3FF6D5AA 		bhi	.L233
 4813              	.LVL432:
 4814              		.loc 1 934 0
 4815 0aa8 0623     		movs	r3, #6
 4816 0aaa 0493     		str	r3, [sp, #16]
 4817              		.loc 1 933 0
 4818 0aac 9DF82430 		ldrb	r3, [sp, #36]	@ zero_extendqisi2
 4819 0ab0 0193     		str	r3, [sp, #4]
 4820              	.LVL433:
 4821              		.loc 1 936 0
 4822 0ab2 1146     		mov	r1, r2
 4823              		.loc 1 934 0
 4824 0ab4 9DF82530 		ldrb	r3, [sp, #37]	@ zero_extendqisi2
 4825              		.loc 1 936 0
 4826 0ab8 7148     		ldr	r0, .L426+12
 4827 0aba 0392     		str	r2, [sp, #12]
 4828              		.loc 1 934 0
 4829 0abc 0293     		str	r3, [sp, #8]
 4830              	.LVL434:
 4831              		.loc 1 936 0
 4832 0abe FFF7FEFF 		bl	crc16
 4833              	.LVL435:
 4834              		.loc 1 938 0
 4835 0ac2 019B     		ldr	r3, [sp, #4]
 4836 0ac4 1A46     		mov	r2, r3
 4837 0ac6 029B     		ldr	r3, [sp, #8]
 4838 0ac8 43EA0223 		orr	r3, r3, r2, lsl #8
 4839              		.loc 1 936 0
 4840 0acc 9842     		cmp	r0, r3
 4841 0ace 039A     		ldr	r2, [sp, #12]
 4842 0ad0 7FF4BFAA 		bne	.L233
 4843              		.loc 1 939 0
 4844 0ad4 009B     		ldr	r3, [sp]
 4845 0ad6 012B     		cmp	r3, #1
ARM GAS  /tmp/ccj2MYXE.s 			page 86


 4846 0ad8 00F05882 		beq	.L289
 4847 0adc C0F04F82 		bcc	.L290
 4848 0ae0 022B     		cmp	r3, #2
 4849 0ae2 7FF4DAAA 		bne	.L286
 4850              		.loc 1 947 0
 4851 0ae6 1146     		mov	r1, r2
 4852 0ae8 6548     		ldr	r0, .L426+12
 4853 0aea 0022     		movs	r2, #0
 4854 0aec FFF7FEFF 		bl	commands_process_packet
 4855              	.LVL436:
 4856              		.loc 1 948 0
 4857 0af0 FFF7AFBA 		b	.L233
 4858              	.LVL437:
 4859              	.L260:
 4860 0af4 BDF82000 		ldrh	r0, [sp, #32]
 4861 0af8 40BA     		rev16	r0, r0
 4862 0afa 80B2     		uxth	r0, r0
 4863              	.LVL438:
 4864              		.loc 1 917 0
 4865 0afc B0F5007F 		cmp	r0, #512
 4866 0b00 BFF4A7AA 		bcs	.L233
 4867              		.loc 1 918 0
 4868 0b04 9DF81820 		ldrb	r2, [sp, #24]	@ zero_extendqisi2
 4869 0b08 5D4B     		ldr	r3, .L426+12
 4870 0b0a 02F00F02 		and	r2, r2, #15
 4871 0b0e 1844     		add	r0, r0, r3
 4872 0b10 023A     		subs	r2, r2, #2
 4873 0b12 0DF12201 		add	r1, sp, #34
 4874 0b16 FFF7FEFF 		bl	memcpy
 4875              	.LVL439:
 4876 0b1a FFF79ABA 		b	.L233
 4877              	.L256:
 4878              		.loc 1 893 0
 4879 0b1e 0023     		movs	r3, #0
 4880              		.loc 1 894 0
 4881 0b20 04A9     		add	r1, sp, #16
 4882 0b22 08A8     		add	r0, sp, #32
 4883 0b24 B0EE480A 		vmov.f32	s0, s16
 4884              		.loc 1 893 0
 4885 0b28 0493     		str	r3, [sp, #16]
 4886              		.loc 1 894 0
 4887 0b2a FFF7FEFF 		bl	buffer_get_float32
 4888              	.LVL440:
 4889 0b2e FFF7FEFF 		bl	mc_interface_set_brake_current
 4890              	.LVL441:
 4891              		.loc 1 895 0
 4892 0b32 FFF7FEFF 		bl	timeout_reset
 4893              	.LVL442:
 4894              		.loc 1 896 0
 4895 0b36 FFF78CBA 		b	.L233
 4896              	.L258:
 4897              		.loc 1 905 0
 4898 0b3a 0023     		movs	r3, #0
 4899              		.loc 1 906 0
 4900 0b3c 04A9     		add	r1, sp, #16
 4901 0b3e 08A8     		add	r0, sp, #32
 4902 0b40 9FED500A 		vldr.32	s0, .L426+16
ARM GAS  /tmp/ccj2MYXE.s 			page 87


 4903              		.loc 1 905 0
 4904 0b44 0493     		str	r3, [sp, #16]
 4905              		.loc 1 906 0
 4906 0b46 FFF7FEFF 		bl	buffer_get_float32
 4907              	.LVL443:
 4908 0b4a FFF7FEFF 		bl	mc_interface_set_pid_pos
 4909              	.LVL444:
 4910              		.loc 1 907 0
 4911 0b4e FFF7FEFF 		bl	timeout_reset
 4912              	.LVL445:
 4913              		.loc 1 908 0
 4914 0b52 FFF77EBA 		b	.L233
 4915              	.L257:
 4916              		.loc 1 899 0
 4917 0b56 0023     		movs	r3, #0
 4918              		.loc 1 900 0
 4919 0b58 04A9     		add	r1, sp, #16
 4920 0b5a 08A8     		add	r0, sp, #32
 4921 0b5c B7EE000A 		vmov.f32	s0, #1.0e+0
 4922              		.loc 1 899 0
 4923 0b60 0493     		str	r3, [sp, #16]
 4924              		.loc 1 900 0
 4925 0b62 FFF7FEFF 		bl	buffer_get_float32
 4926              	.LVL446:
 4927 0b66 FFF7FEFF 		bl	mc_interface_set_pid_speed
 4928              	.LVL447:
 4929              		.loc 1 901 0
 4930 0b6a FFF7FEFF 		bl	timeout_reset
 4931              	.LVL448:
 4932              		.loc 1 902 0
 4933 0b6e FFF770BA 		b	.L233
 4934              	.L259:
 4935              		.loc 1 911 0
 4936 0b72 9DF81820 		ldrb	r2, [sp, #24]	@ zero_extendqisi2
 4937 0b76 9DF82000 		ldrb	r0, [sp, #32]	@ zero_extendqisi2
 4938 0b7a 414B     		ldr	r3, .L426+12
 4939 0b7c 02F00F02 		and	r2, r2, #15
 4940 0b80 013A     		subs	r2, r2, #1
 4941 0b82 1844     		add	r0, r0, r3
 4942 0b84 0DF12101 		add	r1, sp, #33
 4943 0b88 FFF7FEFF 		bl	memcpy
 4944              	.LVL449:
 4945              		.loc 1 912 0
 4946 0b8c FFF761BA 		b	.L233
 4947              	.L253:
 4948              		.loc 1 881 0
 4949 0b90 0023     		movs	r3, #0
 4950              		.loc 1 882 0
 4951 0b92 04A9     		add	r1, sp, #16
 4952 0b94 08A8     		add	r0, sp, #32
 4953 0b96 9FED380A 		vldr.32	s0, .L426+4
 4954              		.loc 1 881 0
 4955 0b9a 0493     		str	r3, [sp, #16]
 4956              		.loc 1 882 0
 4957 0b9c FFF7FEFF 		bl	buffer_get_float32
 4958              	.LVL450:
 4959 0ba0 FFF7FEFF 		bl	mc_interface_set_duty
ARM GAS  /tmp/ccj2MYXE.s 			page 88


 4960              	.LVL451:
 4961              		.loc 1 883 0
 4962 0ba4 FFF7FEFF 		bl	timeout_reset
 4963              	.LVL452:
 4964              		.loc 1 884 0
 4965 0ba8 FFF753BA 		b	.L233
 4966              	.L255:
 4967              		.loc 1 887 0
 4968 0bac 0023     		movs	r3, #0
 4969              		.loc 1 888 0
 4970 0bae 04A9     		add	r1, sp, #16
 4971 0bb0 08A8     		add	r0, sp, #32
 4972 0bb2 B0EE480A 		vmov.f32	s0, s16
 4973              		.loc 1 887 0
 4974 0bb6 0493     		str	r3, [sp, #16]
 4975              		.loc 1 888 0
 4976 0bb8 FFF7FEFF 		bl	buffer_get_float32
 4977              	.LVL453:
 4978 0bbc FFF7FEFF 		bl	mc_interface_set_current
 4979              	.LVL454:
 4980              		.loc 1 889 0
 4981 0bc0 FFF7FEFF 		bl	timeout_reset
 4982              	.LVL455:
 4983              		.loc 1 890 0
 4984 0bc4 FFF745BA 		b	.L233
 4985              	.LVL456:
 4986              	.L402:
 4987              		.loc 1 800 0 discriminator 1
 4988 0bc8 D306     		lsls	r3, r2, #27
 4989 0bca 3FF557AA 		bmi	.L236
 4990              		.loc 1 801 0
 4991 0bce 9DF82030 		ldrb	r3, [sp, #32]	@ zero_extendqisi2
 4992 0bd2 012B     		cmp	r3, #1
 4993 0bd4 49D0     		beq	.L411
 4994              	.L238:
 4995              		.loc 1 804 0
 4996 0bd6 FFF7FEFF 		bl	mc_interface_get_cell_count
 4997              	.LVL457:
 4998 0bda 0E28     		cmp	r0, #14
 4999 0bdc 11D1     		bne	.L239
 5000              		.loc 1 805 0
 5001 0bde 9DF82040 		ldrb	r4, [sp, #32]	@ zero_extendqisi2
 5002              	.LVL458:
 5003 0be2 052C     		cmp	r4, #5
 5004 0be4 54D0     		beq	.L412
 5005              		.loc 1 810 0
 5006 0be6 062C     		cmp	r4, #6
 5007 0be8 70D0     		beq	.L413
 5008              	.L241:
 5009              		.loc 1 816 0
 5010 0bea 072C     		cmp	r4, #7
 5011 0bec 00F08B80 		beq	.L414
 5012              	.L242:
 5013              		.loc 1 822 0
 5014 0bf0 0A2C     		cmp	r4, #10
 5015 0bf2 7FF443AA 		bne	.L236
 5016              		.loc 1 823 0
ARM GAS  /tmp/ccj2MYXE.s 			page 89


 5017 0bf6 9DF82200 		ldrb	r0, [sp, #34]	@ zero_extendqisi2
 5018 0bfa FFF7FEFF 		bl	mc_interface_set_bms_fet_status
 5019              	.LVL459:
 5020 0bfe FFF73DBA 		b	.L236
 5021              	.LVL460:
 5022              	.L239:
 5023              		.loc 1 825 0
 5024 0c02 FFF7FEFF 		bl	mc_interface_get_cell_count
 5025              	.LVL461:
 5026 0c06 0D28     		cmp	r0, #13
 5027 0c08 13D1     		bne	.L243
 5028              		.loc 1 826 0
 5029 0c0a 9DF82030 		ldrb	r3, [sp, #32]	@ zero_extendqisi2
 5030 0c0e 052B     		cmp	r3, #5
 5031 0c10 00F0DB80 		beq	.L415
 5032              	.LVL462:
 5033              	.L244:
 5034              		.loc 1 831 0
 5035 0c14 062B     		cmp	r3, #6
 5036 0c16 00F0B480 		beq	.L416
 5037              	.L245:
 5038              		.loc 1 837 0
 5039 0c1a 072B     		cmp	r3, #7
 5040 0c1c 00F09880 		beq	.L417
 5041              	.L246:
 5042              		.loc 1 841 0
 5043 0c20 092B     		cmp	r3, #9
 5044 0c22 7FF42BAA 		bne	.L236
 5045              		.loc 1 842 0
 5046 0c26 9DF82700 		ldrb	r0, [sp, #39]	@ zero_extendqisi2
 5047 0c2a FFF7FEFF 		bl	mc_interface_set_bms_fet_status
 5048              	.LVL463:
 5049 0c2e FFF725BA 		b	.L236
 5050              	.LVL464:
 5051              	.L243:
 5052              		.loc 1 844 0
 5053 0c32 FFF7FEFF 		bl	mc_interface_get_cell_count
 5054              	.LVL465:
 5055 0c36 0C28     		cmp	r0, #12
 5056 0c38 7FF420AA 		bne	.L236
 5057              		.loc 1 845 0
 5058 0c3c 9DF82030 		ldrb	r3, [sp, #32]	@ zero_extendqisi2
 5059 0c40 042B     		cmp	r3, #4
 5060 0c42 00F08A81 		beq	.L418
 5061              	.L247:
 5062              		.loc 1 849 0
 5063 0c46 052B     		cmp	r3, #5
 5064 0c48 00F02081 		beq	.L419
 5065              		.loc 1 854 0
 5066 0c4c 062B     		cmp	r3, #6
 5067 0c4e 00F03581 		beq	.L420
 5068              	.LVL466:
 5069              	.L249:
 5070              		.loc 1 864 0
 5071 0c52 072B     		cmp	r3, #7
 5072 0c54 00F06481 		beq	.L421
 5073              	.L250:
ARM GAS  /tmp/ccj2MYXE.s 			page 90


 5074              		.loc 1 869 0
 5075 0c58 092B     		cmp	r3, #9
 5076 0c5a 7FF40FAA 		bne	.L236
 5077              		.loc 1 870 0
 5078 0c5e 9DF82500 		ldrb	r0, [sp, #37]	@ zero_extendqisi2
 5079 0c62 FFF7FEFF 		bl	mc_interface_set_bms_fet_status
 5080              	.LVL467:
 5081 0c66 FFF709BA 		b	.L236
 5082              	.LVL468:
 5083              	.L411:
 5084              		.loc 1 802 0
 5085 0c6a 9DF82100 		ldrb	r0, [sp, #33]	@ zero_extendqisi2
 5086 0c6e FFF7FEFF 		bl	mc_interface_set_cell_count
 5087              	.LVL469:
 5088 0c72 B0E7     		b	.L238
 5089              	.L427:
 5090              		.align	2
 5091              	.L426:
 5092 0c74 00000000 		.word	.LANCHOR16
 5093 0c78 0050C347 		.word	1203982336
 5094 0c7c 00000000 		.word	.LANCHOR15
 5095 0c80 00000000 		.word	.LANCHOR22
 5096 0c84 00247449 		.word	1232348160
 5097 0c88 0000C842 		.word	1120403456
 5098 0c8c CD8C8843 		.word	1133022413
 5099              	.LVL470:
 5100              	.L412:
 5101              		.loc 1 806 0
 5102 0c90 0323     		movs	r3, #3
 5103              		.loc 1 807 0
 5104 0c92 04A9     		add	r1, sp, #16
 5105 0c94 08A8     		add	r0, sp, #32
 5106 0c96 B2EE040A 		vmov.f32	s0, #1.0e+1
 5107              		.loc 1 806 0
 5108 0c9a 0493     		str	r3, [sp, #16]
 5109              		.loc 1 807 0
 5110 0c9c FFF7FEFF 		bl	buffer_get_float16u_inv
 5111              	.LVL471:
 5112 0ca0 1FED06AA 		vldr.32	s20, .L426+24
 5113 0ca4 0020     		movs	r0, #0
 5114 0ca6 30EE4A0A 		vsub.f32	s0, s0, s20
 5115 0caa FFF7FEFF 		bl	mc_interface_set_NTC_bms
 5116              	.LVL472:
 5117              		.loc 1 808 0
 5118 0cae 04A9     		add	r1, sp, #16
 5119 0cb0 08A8     		add	r0, sp, #32
 5120 0cb2 B2EE040A 		vmov.f32	s0, #1.0e+1
 5121 0cb6 FFF7FEFF 		bl	buffer_get_float16u_inv
 5122              	.LVL473:
 5123 0cba 0120     		movs	r0, #1
 5124 0cbc 30EE4A0A 		vsub.f32	s0, s0, s20
 5125 0cc0 FFF7FEFF 		bl	mc_interface_set_NTC_bms
 5126              	.LVL474:
 5127 0cc4 9DF82040 		ldrb	r4, [sp, #32]	@ zero_extendqisi2
 5128              		.loc 1 810 0
 5129 0cc8 062C     		cmp	r4, #6
 5130 0cca 8ED1     		bne	.L241
ARM GAS  /tmp/ccj2MYXE.s 			page 91


 5131              	.L413:
 5132              		.loc 1 811 0
 5133 0ccc 0423     		movs	r3, #4
 5134              		.loc 1 812 0
 5135 0cce 04A9     		add	r1, sp, #16
 5136 0cd0 08A8     		add	r0, sp, #32
 5137 0cd2 B2EE040A 		vmov.f32	s0, #1.0e+1
 5138              		.loc 1 811 0
 5139 0cd6 0493     		str	r3, [sp, #16]
 5140              		.loc 1 812 0
 5141 0cd8 FFF7FEFF 		bl	buffer_get_float16u_inv
 5142              	.LVL475:
 5143 0cdc 5FED157A 		vldr.32	s15, .L426+24
 5144 0ce0 0520     		movs	r0, #5
 5145 0ce2 30EE670A 		vsub.f32	s0, s0, s15
 5146 0ce6 FFF7FEFF 		bl	mc_interface_set_NTC_bms
 5147              	.LVL476:
 5148              		.loc 1 814 0
 5149 0cea 04A9     		add	r1, sp, #16
 5150 0cec 08A8     		add	r0, sp, #32
 5151 0cee 1FED1A0A 		vldr.32	s0, .L426+20
 5152              		.loc 1 813 0
 5153 0cf2 0494     		str	r4, [sp, #16]
 5154              		.loc 1 814 0
 5155 0cf4 FFF7FEFF 		bl	buffer_get_float16u_inv
 5156              	.LVL477:
 5157 0cf8 FFF7FEFF 		bl	mc_interface_set_voltage_bms
 5158              	.LVL478:
 5159 0cfc 9DF82040 		ldrb	r4, [sp, #32]	@ zero_extendqisi2
 5160              		.loc 1 816 0
 5161 0d00 072C     		cmp	r4, #7
 5162 0d02 7FF475AF 		bne	.L242
 5163              	.L414:
 5164              		.loc 1 817 0
 5165 0d06 0123     		movs	r3, #1
 5166              		.loc 1 818 0
 5167 0d08 04A9     		add	r1, sp, #16
 5168 0d0a 08A8     		add	r0, sp, #32
 5169 0d0c 1FED220A 		vldr.32	s0, .L426+20
 5170              		.loc 1 817 0
 5171 0d10 0493     		str	r3, [sp, #16]
 5172              		.loc 1 818 0
 5173 0d12 FFF7FEFF 		bl	buffer_get_float16_inv
 5174              	.LVL479:
 5175 0d16 B1EE400A 		vneg.f32	s0, s0
 5176 0d1a FFF7FEFF 		bl	mc_interface_set_current_bms
 5177              	.LVL480:
 5178              		.loc 1 819 0
 5179 0d1e 0423     		movs	r3, #4
 5180              		.loc 1 820 0
 5181 0d20 04A9     		add	r1, sp, #16
 5182 0d22 08A8     		add	r0, sp, #32
 5183 0d24 1FED280A 		vldr.32	s0, .L426+20
 5184              		.loc 1 819 0
 5185 0d28 0493     		str	r3, [sp, #16]
 5186              		.loc 1 820 0
 5187 0d2a FFF7FEFF 		bl	buffer_get_float16u_inv
ARM GAS  /tmp/ccj2MYXE.s 			page 92


 5188              	.LVL481:
 5189 0d2e 04A9     		add	r1, sp, #16
 5190 0d30 B0EE40AA 		vmov.f32	s20, s0
 5191 0d34 08A8     		add	r0, sp, #32
 5192 0d36 1FED2C0A 		vldr.32	s0, .L426+20
 5193 0d3a FFF7FEFF 		bl	buffer_get_float16u_inv
 5194              	.LVL482:
 5195 0d3e F0EE400A 		vmov.f32	s1, s0
 5196 0d42 B0EE4A0A 		vmov.f32	s0, s20
 5197 0d46 FFF7FEFF 		bl	mc_interface_set_battery_level
 5198              	.LVL483:
 5199 0d4a 9DF82040 		ldrb	r4, [sp, #32]	@ zero_extendqisi2
 5200 0d4e 4FE7     		b	.L242
 5201              	.L417:
 5202              		.loc 1 838 0
 5203 0d50 0223     		movs	r3, #2
 5204              		.loc 1 839 0
 5205 0d52 04A9     		add	r1, sp, #16
 5206 0d54 08A8     		add	r0, sp, #32
 5207 0d56 1FED340A 		vldr.32	s0, .L426+20
 5208              		.loc 1 838 0
 5209 0d5a 0493     		str	r3, [sp, #16]
 5210              		.loc 1 839 0
 5211 0d5c FFF7FEFF 		bl	buffer_get_float16u_inv
 5212              	.LVL484:
 5213 0d60 04A9     		add	r1, sp, #16
 5214 0d62 B0EE40AA 		vmov.f32	s20, s0
 5215 0d66 08A8     		add	r0, sp, #32
 5216 0d68 1FED390A 		vldr.32	s0, .L426+20
 5217 0d6c FFF7FEFF 		bl	buffer_get_float16u_inv
 5218              	.LVL485:
 5219 0d70 F0EE400A 		vmov.f32	s1, s0
 5220 0d74 B0EE4A0A 		vmov.f32	s0, s20
 5221 0d78 FFF7FEFF 		bl	mc_interface_set_battery_level
 5222              	.LVL486:
 5223 0d7c 9DF82030 		ldrb	r3, [sp, #32]	@ zero_extendqisi2
 5224 0d80 4EE7     		b	.L246
 5225              	.L416:
 5226              		.loc 1 832 0
 5227 0d82 0223     		movs	r3, #2
 5228              		.loc 1 833 0
 5229 0d84 04A9     		add	r1, sp, #16
 5230 0d86 08A8     		add	r0, sp, #32
 5231 0d88 B2EE040A 		vmov.f32	s0, #1.0e+1
 5232              		.loc 1 832 0
 5233 0d8c 0493     		str	r3, [sp, #16]
 5234              		.loc 1 833 0
 5235 0d8e FFF7FEFF 		bl	buffer_get_float16u_inv
 5236              	.LVL487:
 5237 0d92 5FED427A 		vldr.32	s15, .L426+24
 5238 0d96 0520     		movs	r0, #5
 5239 0d98 30EE670A 		vsub.f32	s0, s0, s15
 5240 0d9c FFF7FEFF 		bl	mc_interface_set_NTC_bms
 5241              	.LVL488:
 5242              		.loc 1 834 0
 5243 0da0 04A9     		add	r1, sp, #16
 5244 0da2 08A8     		add	r0, sp, #32
ARM GAS  /tmp/ccj2MYXE.s 			page 93


 5245 0da4 1FED480A 		vldr.32	s0, .L426+20
 5246 0da8 FFF7FEFF 		bl	buffer_get_float16u_inv
 5247              	.LVL489:
 5248 0dac FFF7FEFF 		bl	mc_interface_set_voltage_bms
 5249              	.LVL490:
 5250              		.loc 1 835 0
 5251 0db0 04A9     		add	r1, sp, #16
 5252 0db2 08A8     		add	r0, sp, #32
 5253 0db4 1FED4C0A 		vldr.32	s0, .L426+20
 5254 0db8 FFF7FEFF 		bl	buffer_get_float16_inv
 5255              	.LVL491:
 5256 0dbc B1EE400A 		vneg.f32	s0, s0
 5257 0dc0 FFF7FEFF 		bl	mc_interface_set_current_bms
 5258              	.LVL492:
 5259 0dc4 9DF82030 		ldrb	r3, [sp, #32]	@ zero_extendqisi2
 5260 0dc8 27E7     		b	.L245
 5261              	.LVL493:
 5262              	.L415:
 5263              		.loc 1 828 0
 5264 0dca 04A9     		add	r1, sp, #16
 5265              		.loc 1 827 0
 5266 0dcc 0124     		movs	r4, #1
 5267              	.LVL494:
 5268              		.loc 1 828 0
 5269 0dce 08A8     		add	r0, sp, #32
 5270 0dd0 B2EE040A 		vmov.f32	s0, #1.0e+1
 5271              		.loc 1 827 0
 5272 0dd4 0494     		str	r4, [sp, #16]
 5273              		.loc 1 828 0
 5274 0dd6 FFF7FEFF 		bl	buffer_get_float16u_inv
 5275              	.LVL495:
 5276 0dda 1FED54AA 		vldr.32	s20, .L426+24
 5277 0dde 0020     		movs	r0, #0
 5278 0de0 30EE4A0A 		vsub.f32	s0, s0, s20
 5279 0de4 FFF7FEFF 		bl	mc_interface_set_NTC_bms
 5280              	.LVL496:
 5281              		.loc 1 829 0
 5282 0de8 04A9     		add	r1, sp, #16
 5283 0dea 08A8     		add	r0, sp, #32
 5284 0dec B2EE040A 		vmov.f32	s0, #1.0e+1
 5285 0df0 FFF7FEFF 		bl	buffer_get_float16u_inv
 5286              	.LVL497:
 5287 0df4 2046     		mov	r0, r4
 5288 0df6 30EE4A0A 		vsub.f32	s0, s0, s20
 5289 0dfa FFF7FEFF 		bl	mc_interface_set_NTC_bms
 5290              	.LVL498:
 5291 0dfe 9DF82030 		ldrb	r3, [sp, #32]	@ zero_extendqisi2
 5292 0e02 07E7     		b	.L244
 5293              	.LVL499:
 5294              	.L293:
 5295              		.loc 1 962 0
 5296 0e04 9DF81810 		ldrb	r1, [sp, #24]	@ zero_extendqisi2
 5297 0e08 634A     		ldr	r2, .L428
 5298 0e0a 01F00F01 		and	r1, r1, #15
 5299 0e0e 0239     		subs	r1, r1, #2
 5300 0e10 0DF12200 		add	r0, sp, #34
 5301 0e14 FFF7FEFF 		bl	commands_process_packet
ARM GAS  /tmp/ccj2MYXE.s 			page 94


 5302              	.LVL500:
 5303              		.loc 1 963 0
 5304 0e18 FFF71BB9 		b	.L233
 5305              	.LVL501:
 5306              	.L292:
 5307              		.loc 1 965 0
 5308 0e1c 9DF81810 		ldrb	r1, [sp, #24]	@ zero_extendqisi2
 5309 0e20 01F00F01 		and	r1, r1, #15
 5310 0e24 0239     		subs	r1, r1, #2
 5311 0e26 0DF12200 		add	r0, sp, #34
 5312 0e2a FFF7FEFF 		bl	commands_send_packet
 5313              	.LVL502:
 5314              		.loc 1 966 0
 5315 0e2e FFF710B9 		b	.L233
 5316              	.LVL503:
 5317              	.L410:
 5318              	.LBB334:
 5319              	.LBB330:
 5320              		.loc 1 1019 0
 5321 0e32 FFF7FEFF 		bl	app_get_configuration
 5322              	.LVL504:
 5323 0e36 4FF4BC72 		mov	r2, #376
 5324 0e3a 0146     		mov	r1, r0
 5325 0e3c 0AA8     		add	r0, sp, #40
 5326 0e3e FFF7FEFF 		bl	memcpy
 5327              	.LVL505:
 5328              		.loc 1 1021 0
 5329 0e42 9DF83430 		ldrb	r3, [sp, #52]	@ zero_extendqisi2
 5330 0e46 052B     		cmp	r3, #5
 5331 0e48 3FF43EAD 		beq	.L295
 5332              		.loc 1 1022 0
 5333 0e4c 0523     		movs	r3, #5
 5334              		.loc 1 1023 0
 5335 0e4e 0AA8     		add	r0, sp, #40
 5336              		.loc 1 1022 0
 5337 0e50 8DF83430 		strb	r3, [sp, #52]
 5338              		.loc 1 1023 0
 5339 0e54 FFF7FEFF 		bl	conf_general_store_app_configuration
 5340              	.LVL506:
 5341              		.loc 1 1024 0
 5342 0e58 0AA8     		add	r0, sp, #40
 5343 0e5a FFF7FEFF 		bl	app_set_configuration
 5344              	.LVL507:
 5345 0e5e 33E5     		b	.L295
 5346              	.LVL508:
 5347              	.L409:
 5348              	.LBE330:
 5349              	.LBE334:
 5350              		.loc 1 1183 0
 5351 0e60 04A9     		add	r1, sp, #16
 5352 0e62 08A8     		add	r0, sp, #32
 5353 0e64 FFF7FEFF 		bl	buffer_get_uint16
 5354              	.LVL509:
 5355 0e68 FFF7FEFF 		bl	mc_interface_set_enviro
 5356              	.LVL510:
 5357 0e6c 9DF81830 		ldrb	r3, [sp, #24]	@ zero_extendqisi2
 5358 0e70 03F00F03 		and	r3, r3, #15
ARM GAS  /tmp/ccj2MYXE.s 			page 95


 5359 0e74 76E4     		b	.L335
 5360              	.L408:
 5361              		.loc 1 1195 0
 5362 0e76 04A9     		add	r1, sp, #16
 5363 0e78 08A8     		add	r0, sp, #32
 5364 0e7a FFF7FEFF 		bl	buffer_get_uint16
 5365              	.LVL511:
 5366 0e7e FFF7FEFF 		bl	mc_interface_set_reku
 5367              	.LVL512:
 5368 0e82 9DF81830 		ldrb	r3, [sp, #24]	@ zero_extendqisi2
 5369 0e86 03F00F03 		and	r3, r3, #15
 5370 0e8a 50E4     		b	.L336
 5371              	.LVL513:
 5372              	.L419:
 5373              		.loc 1 851 0
 5374 0e8c 04A9     		add	r1, sp, #16
 5375              		.loc 1 850 0
 5376 0e8e 0124     		movs	r4, #1
 5377              	.LVL514:
 5378              		.loc 1 851 0
 5379 0e90 08A8     		add	r0, sp, #32
 5380 0e92 B2EE040A 		vmov.f32	s0, #1.0e+1
 5381              		.loc 1 850 0
 5382 0e96 0494     		str	r4, [sp, #16]
 5383              		.loc 1 851 0
 5384 0e98 FFF7FEFF 		bl	buffer_get_float16u_inv
 5385              	.LVL515:
 5386 0e9c DFED3F7A 		vldr.32	s15, .L428+4
 5387 0ea0 2046     		mov	r0, r4
 5388 0ea2 30EE670A 		vsub.f32	s0, s0, s15
 5389 0ea6 FFF7FEFF 		bl	mc_interface_set_NTC_bms
 5390              	.LVL516:
 5391 0eaa 9DF82030 		ldrb	r3, [sp, #32]	@ zero_extendqisi2
 5392              		.loc 1 852 0
 5393 0eae 3C49     		ldr	r1, .L428+8
 5394 0eb0 9DF82720 		ldrb	r2, [sp, #39]	@ zero_extendqisi2
 5395 0eb4 0A70     		strb	r2, [r1]
 5396              		.loc 1 854 0
 5397 0eb6 062B     		cmp	r3, #6
 5398 0eb8 7FF4CBAE 		bne	.L249
 5399              	.L420:
 5400              		.loc 1 855 0
 5401 0ebc 384B     		ldr	r3, .L428+8
 5402 0ebe 1B78     		ldrb	r3, [r3]	@ zero_extendqisi2
 5403 0ec0 8DF82030 		strb	r3, [sp, #32]
 5404              		.loc 1 857 0
 5405 0ec4 04A9     		add	r1, sp, #16
 5406              		.loc 1 856 0
 5407 0ec6 0023     		movs	r3, #0
 5408              		.loc 1 857 0
 5409 0ec8 08A8     		add	r0, sp, #32
 5410 0eca B2EE040A 		vmov.f32	s0, #1.0e+1
 5411              		.loc 1 856 0
 5412 0ece 0493     		str	r3, [sp, #16]
 5413              		.loc 1 857 0
 5414 0ed0 FFF7FEFF 		bl	buffer_get_float16u_inv
 5415              	.LVL517:
ARM GAS  /tmp/ccj2MYXE.s 			page 96


 5416 0ed4 DFED317A 		vldr.32	s15, .L428+4
 5417 0ed8 0520     		movs	r0, #5
 5418 0eda 30EE670A 		vsub.f32	s0, s0, s15
 5419 0ede FFF7FEFF 		bl	mc_interface_set_NTC_bms
 5420              	.LVL518:
 5421              		.loc 1 858 0
 5422 0ee2 0223     		movs	r3, #2
 5423              		.loc 1 859 0
 5424 0ee4 04A9     		add	r1, sp, #16
 5425 0ee6 08A8     		add	r0, sp, #32
 5426 0ee8 9FED2E0A 		vldr.32	s0, .L428+12
 5427              		.loc 1 858 0
 5428 0eec 0493     		str	r3, [sp, #16]
 5429              		.loc 1 859 0
 5430 0eee FFF7FEFF 		bl	buffer_get_float16u_inv
 5431              	.LVL519:
 5432 0ef2 FFF7FEFF 		bl	mc_interface_set_voltage_bms
 5433              	.LVL520:
 5434              		.loc 1 860 0
 5435 0ef6 0423     		movs	r3, #4
 5436              		.loc 1 861 0
 5437 0ef8 04A9     		add	r1, sp, #16
 5438 0efa 08A8     		add	r0, sp, #32
 5439 0efc 9FED290A 		vldr.32	s0, .L428+12
 5440              		.loc 1 860 0
 5441 0f00 0493     		str	r3, [sp, #16]
 5442              		.loc 1 861 0
 5443 0f02 FFF7FEFF 		bl	buffer_get_float16_inv
 5444              	.LVL521:
 5445 0f06 B1EE400A 		vneg.f32	s0, s0
 5446 0f0a FFF7FEFF 		bl	mc_interface_set_current_bms
 5447              	.LVL522:
 5448 0f0e 9DF82030 		ldrb	r3, [sp, #32]	@ zero_extendqisi2
 5449              		.loc 1 862 0
 5450 0f12 2549     		ldr	r1, .L428+16
 5451 0f14 9DF82720 		ldrb	r2, [sp, #39]	@ zero_extendqisi2
 5452 0f18 0A70     		strb	r2, [r1]
 5453              		.loc 1 864 0
 5454 0f1a 072B     		cmp	r3, #7
 5455 0f1c 7FF49CAE 		bne	.L250
 5456              	.L421:
 5457              		.loc 1 865 0
 5458 0f20 214B     		ldr	r3, .L428+16
 5459              		.loc 1 867 0
 5460 0f22 9FED200A 		vldr.32	s0, .L428+12
 5461              		.loc 1 865 0
 5462 0f26 1B78     		ldrb	r3, [r3]	@ zero_extendqisi2
 5463 0f28 8DF82030 		strb	r3, [sp, #32]
 5464              		.loc 1 867 0
 5465 0f2c 04A9     		add	r1, sp, #16
 5466              		.loc 1 866 0
 5467 0f2e 0023     		movs	r3, #0
 5468              		.loc 1 867 0
 5469 0f30 08A8     		add	r0, sp, #32
 5470              		.loc 1 866 0
 5471 0f32 0493     		str	r3, [sp, #16]
 5472              		.loc 1 867 0
ARM GAS  /tmp/ccj2MYXE.s 			page 97


 5473 0f34 FFF7FEFF 		bl	buffer_get_float16u_inv
 5474              	.LVL523:
 5475 0f38 04A9     		add	r1, sp, #16
 5476 0f3a B0EE40AA 		vmov.f32	s20, s0
 5477 0f3e 08A8     		add	r0, sp, #32
 5478 0f40 9FED180A 		vldr.32	s0, .L428+12
 5479 0f44 FFF7FEFF 		bl	buffer_get_float16u_inv
 5480              	.LVL524:
 5481 0f48 F0EE400A 		vmov.f32	s1, s0
 5482 0f4c B0EE4A0A 		vmov.f32	s0, s20
 5483 0f50 FFF7FEFF 		bl	mc_interface_set_battery_level
 5484              	.LVL525:
 5485 0f54 9DF82030 		ldrb	r3, [sp, #32]	@ zero_extendqisi2
 5486 0f58 7EE6     		b	.L250
 5487              	.LVL526:
 5488              	.L418:
 5489              		.loc 1 846 0
 5490 0f5a 0623     		movs	r3, #6
 5491              		.loc 1 847 0
 5492 0f5c 04A9     		add	r1, sp, #16
 5493 0f5e 08A8     		add	r0, sp, #32
 5494 0f60 B2EE040A 		vmov.f32	s0, #1.0e+1
 5495              		.loc 1 846 0
 5496 0f64 0493     		str	r3, [sp, #16]
 5497              		.loc 1 847 0
 5498 0f66 FFF7FEFF 		bl	buffer_get_float16u_inv
 5499              	.LVL527:
 5500 0f6a DFED0C7A 		vldr.32	s15, .L428+4
 5501 0f6e 0020     		movs	r0, #0
 5502 0f70 30EE670A 		vsub.f32	s0, s0, s15
 5503 0f74 FFF7FEFF 		bl	mc_interface_set_NTC_bms
 5504              	.LVL528:
 5505 0f78 9DF82030 		ldrb	r3, [sp, #32]	@ zero_extendqisi2
 5506 0f7c 63E6     		b	.L247
 5507              	.LVL529:
 5508              	.L290:
 5509              		.loc 1 941 0
 5510 0f7e 1146     		mov	r1, r2
 5511 0f80 0A48     		ldr	r0, .L428+20
 5512 0f82 054A     		ldr	r2, .L428
 5513 0f84 FFF7FEFF 		bl	commands_process_packet
 5514              	.LVL530:
 5515              		.loc 1 942 0
 5516 0f88 FFF763B8 		b	.L233
 5517              	.L289:
 5518              		.loc 1 944 0
 5519 0f8c 1146     		mov	r1, r2
 5520 0f8e 0748     		ldr	r0, .L428+20
 5521 0f90 FFF7FEFF 		bl	commands_send_packet
 5522              	.LVL531:
 5523              		.loc 1 945 0
 5524 0f94 FFF75DB8 		b	.L233
 5525              	.L429:
 5526              		.align	2
 5527              	.L428:
 5528 0f98 00000000 		.word	send_packet_wrapper
 5529 0f9c CD8C8843 		.word	1133022413
ARM GAS  /tmp/ccj2MYXE.s 			page 98


 5530 0fa0 00000000 		.word	.LANCHOR20
 5531 0fa4 0000C842 		.word	1120403456
 5532 0fa8 00000000 		.word	.LANCHOR21
 5533 0fac 00000000 		.word	.LANCHOR22
 5534              	.LBE338:
 5535              	.LBE341:
 5536              	.LBE344:
 5537              		.cfi_endproc
 5538              	.LFE291:
 5539              		.size	cancom_process_thread, .-cancom_process_thread
 5540              		.section	.bss.can_mtx,"aw",%nobits
 5541              		.align	2
 5542              		.set	.LANCHOR9,. + 0
 5543              		.type	can_mtx, %object
 5544              		.size	can_mtx, 16
 5545              	can_mtx:
 5546 0000 00000000 		.space	16
 5546      00000000 
 5546      00000000 
 5546      00000000 
 5547              		.section	.bss.can_rx_mtx,"aw",%nobits
 5548              		.align	2
 5549              		.set	.LANCHOR0,. + 0
 5550              		.type	can_rx_mtx, %object
 5551              		.size	can_rx_mtx, 16
 5552              	can_rx_mtx:
 5553 0000 00000000 		.space	16
 5553      00000000 
 5553      00000000 
 5553      00000000 
 5554              		.section	.bss.cancom_process_thread_wa,"aw",%nobits
 5555              		.align	3
 5556              		.type	cancom_process_thread_wa, %object
 5557              		.size	cancom_process_thread_wa, 4504
 5558              	cancom_process_thread_wa:
 5559 0000 00000000 		.space	4504
 5559      00000000 
 5559      00000000 
 5559      00000000 
 5559      00000000 
 5560              		.section	.bss.cancom_read_thread_wa,"aw",%nobits
 5561              		.align	3
 5562              		.set	.LANCHOR11,. + 0
 5563              		.type	cancom_read_thread_wa, %object
 5564              		.size	cancom_read_thread_wa, 920
 5565              	cancom_read_thread_wa:
 5566 0000 00000000 		.space	920
 5566      00000000 
 5566      00000000 
 5566      00000000 
 5566      00000000 
 5567              		.section	.bss.cancom_status_thread_wa,"aw",%nobits
 5568              		.align	3
 5569              		.set	.LANCHOR12,. + 0
 5570              		.type	cancom_status_thread_wa, %object
 5571              		.size	cancom_status_thread_wa, 1432
 5572              	cancom_status_thread_wa:
ARM GAS  /tmp/ccj2MYXE.s 			page 99


 5573 0000 00000000 		.space	1432
 5573      00000000 
 5573      00000000 
 5573      00000000 
 5573      00000000 
 5574              		.section	.bss.detect_all_foc_res,"aw",%nobits
 5575              		.align	2
 5576              		.set	.LANCHOR18,. + 0
 5577              		.type	detect_all_foc_res, %object
 5578              		.size	detect_all_foc_res, 50
 5579              	detect_all_foc_res:
 5580 0000 00000000 		.space	50
 5580      00000000 
 5580      00000000 
 5580      00000000 
 5580      00000000 
 5581              		.section	.bss.detect_all_foc_res_index,"aw",%nobits
 5582              		.align	2
 5583              		.set	.LANCHOR17,. + 0
 5584              		.type	detect_all_foc_res_index, %object
 5585              		.size	detect_all_foc_res_index, 4
 5586              	detect_all_foc_res_index:
 5587 0000 00000000 		.space	4
 5588              		.section	.bss.helper_uint8_id05,"aw",%nobits
 5589              		.set	.LANCHOR20,. + 0
 5590              		.type	helper_uint8_id05, %object
 5591              		.size	helper_uint8_id05, 1
 5592              	helper_uint8_id05:
 5593 0000 00       		.space	1
 5594              		.section	.bss.helper_uint8_id06,"aw",%nobits
 5595              		.set	.LANCHOR21,. + 0
 5596              		.type	helper_uint8_id06, %object
 5597              		.size	helper_uint8_id06, 1
 5598              	helper_uint8_id06:
 5599 0000 00       		.space	1
 5600              		.section	.bss.max_speed_target,"aw",%nobits
 5601              		.align	2
 5602              		.set	.LANCHOR24,. + 0
 5603              		.type	max_speed_target, %object
 5604              		.size	max_speed_target, 4
 5605              	max_speed_target:
 5606 0000 00000000 		.space	4
 5607              		.section	.bss.min_speed_target,"aw",%nobits
 5608              		.align	2
 5609              		.set	.LANCHOR23,. + 0
 5610              		.type	min_speed_target, %object
 5611              		.size	min_speed_target, 4
 5612              	min_speed_target:
 5613 0000 00000000 		.space	4
 5614              		.section	.bss.ping_tp,"aw",%nobits
 5615              		.align	2
 5616              		.set	.LANCHOR16,. + 0
 5617              		.type	ping_tp, %object
 5618              		.size	ping_tp, 4
 5619              	ping_tp:
 5620 0000 00000000 		.space	4
 5621              		.section	.bss.process_tp,"aw",%nobits
ARM GAS  /tmp/ccj2MYXE.s 			page 100


 5622              		.align	2
 5623              		.set	.LANCHOR3,. + 0
 5624              		.type	process_tp, %object
 5625              		.size	process_tp, 4
 5626              	process_tp:
 5627 0000 00000000 		.space	4
 5628              		.section	.bss.rx_buffer,"aw",%nobits
 5629              		.align	2
 5630              		.set	.LANCHOR22,. + 0
 5631              		.type	rx_buffer, %object
 5632              		.size	rx_buffer, 512
 5633              	rx_buffer:
 5634 0000 00000000 		.space	512
 5634      00000000 
 5634      00000000 
 5634      00000000 
 5634      00000000 
 5635              		.section	.bss.rx_buffer_last_id,"aw",%nobits
 5636              		.align	2
 5637              		.set	.LANCHOR15,. + 0
 5638              		.type	rx_buffer_last_id, %object
 5639              		.size	rx_buffer_last_id, 4
 5640              	rx_buffer_last_id:
 5641 0000 00000000 		.space	4
 5642              		.section	.bss.rx_frame_read,"aw",%nobits
 5643              		.align	2
 5644              		.set	.LANCHOR8,. + 0
 5645              		.type	rx_frame_read, %object
 5646              		.size	rx_frame_read, 4
 5647              	rx_frame_read:
 5648 0000 00000000 		.space	4
 5649              		.section	.bss.rx_frame_write,"aw",%nobits
 5650              		.align	2
 5651              		.set	.LANCHOR1,. + 0
 5652              		.type	rx_frame_write, %object
 5653              		.size	rx_frame_write, 4
 5654              	rx_frame_write:
 5655 0000 00000000 		.space	4
 5656              		.section	.bss.rx_frames,"aw",%nobits
 5657              		.align	2
 5658              		.set	.LANCHOR2,. + 0
 5659              		.type	rx_frames, %object
 5660              		.size	rx_frames, 2000
 5661              	rx_frames:
 5662 0000 00000000 		.space	2000
 5662      00000000 
 5662      00000000 
 5662      00000000 
 5662      00000000 
 5663              		.section	.bss.sid_callback,"aw",%nobits
 5664              		.align	2
 5665              		.set	.LANCHOR14,. + 0
 5666              		.type	sid_callback, %object
 5667              		.size	sid_callback, 4
 5668              	sid_callback:
 5669 0000 00000000 		.space	4
 5670              		.section	.bss.speed_before_was_smaller,"aw",%nobits
ARM GAS  /tmp/ccj2MYXE.s 			page 101


 5671              		.set	.LANCHOR13,. + 0
 5672              		.type	speed_before_was_smaller, %object
 5673              		.size	speed_before_was_smaller, 1
 5674              	speed_before_was_smaller:
 5675 0000 00       		.space	1
 5676              		.section	.bss.stat_msgs,"aw",%nobits
 5677              		.align	2
 5678              		.set	.LANCHOR4,. + 0
 5679              		.type	stat_msgs, %object
 5680              		.size	stat_msgs, 200
 5681              	stat_msgs:
 5682 0000 00000000 		.space	200
 5682      00000000 
 5682      00000000 
 5682      00000000 
 5682      00000000 
 5683              		.section	.bss.stat_msgs_2,"aw",%nobits
 5684              		.align	2
 5685              		.set	.LANCHOR6,. + 0
 5686              		.type	stat_msgs_2, %object
 5687              		.size	stat_msgs_2, 160
 5688              	stat_msgs_2:
 5689 0000 00000000 		.space	160
 5689      00000000 
 5689      00000000 
 5689      00000000 
 5689      00000000 
 5690              		.section	.bss.stat_msgs_3,"aw",%nobits
 5691              		.align	2
 5692              		.set	.LANCHOR7,. + 0
 5693              		.type	stat_msgs_3, %object
 5694              		.size	stat_msgs_3, 160
 5695              	stat_msgs_3:
 5696 0000 00000000 		.space	160
 5696      00000000 
 5696      00000000 
 5696      00000000 
 5696      00000000 
 5697              		.section	.bss.stat_msgs_4,"aw",%nobits
 5698              		.align	2
 5699              		.set	.LANCHOR5,. + 0
 5700              		.type	stat_msgs_4, %object
 5701              		.size	stat_msgs_4, 240
 5702              	stat_msgs_4:
 5703 0000 00000000 		.space	240
 5703      00000000 
 5703      00000000 
 5703      00000000 
 5703      00000000 
 5704              		.section	.bss.stat_msgs_5,"aw",%nobits
 5705              		.align	2
 5706              		.set	.LANCHOR19,. + 0
 5707              		.type	stat_msgs_5, %object
 5708              		.size	stat_msgs_5, 160
 5709              	stat_msgs_5:
 5710 0000 00000000 		.space	160
 5710      00000000 
ARM GAS  /tmp/ccj2MYXE.s 			page 102


 5710      00000000 
 5710      00000000 
 5710      00000000 
 5711              		.section	.data.cancfg,"aw",%progbits
 5712              		.align	2
 5713              		.set	.LANCHOR10,. + 0
 5714              		.type	cancfg, %object
 5715              		.size	cancfg, 8
 5716              	cancfg:
 5717 0000 64000000 		.word	100
 5718 0004 05002903 		.word	53018629
 5719              		.section	.rodata.cancom_process_thread.str1.4,"aMS",%progbits,1
 5720              		.align	2
 5721              	.LC2:
 5722 0000 43414E20 		.ascii	"CAN process\000"
 5722      70726F63 
 5722      65737300 
 5723              		.section	.rodata.cancom_read_thread.str1.4,"aMS",%progbits,1
 5724              		.align	2
 5725              	.LC0:
 5726 0000 43414E20 		.ascii	"CAN read\000"
 5726      72656164 
 5726      00
 5727              		.section	.rodata.cancom_status_thread.str1.4,"aMS",%progbits,1
 5728              		.align	2
 5729              	.LC1:
 5730 0000 43414E20 		.ascii	"CAN status\000"
 5730      73746174 
 5730      757300
 5731              		.text
 5732              	.Letext0:
 5733              		.file 7 "/usr/lib/gcc/arm-none-eabi/7.3.1/include/stddef.h"
 5734              		.file 8 "/usr/arm-none-eabi/include/machine/_default_types.h"
 5735              		.file 9 "/usr/arm-none-eabi/include/sys/lock.h"
 5736              		.file 10 "/usr/arm-none-eabi/include/sys/_types.h"
 5737              		.file 11 "/usr/arm-none-eabi/include/sys/reent.h"
 5738              		.file 12 "/usr/arm-none-eabi/include/math.h"
 5739              		.file 13 "/usr/arm-none-eabi/include/sys/_stdint.h"
 5740              		.file 14 "ChibiOS_3.0.2/os/rt/ports/ARMCMx/compilers/GCC/chtypes.h"
 5741              		.file 15 "ChibiOS_3.0.2/os/rt/include/chsystypes.h"
 5742              		.file 16 "ChibiOS_3.0.2/os/rt/include/chschd.h"
 5743              		.file 17 "ChibiOS_3.0.2/os/ext/CMSIS/include/core_cm4.h"
 5744              		.file 18 "ChibiOS_3.0.2/os/ext/CMSIS/ST/system_stm32f4xx.h"
 5745              		.file 19 "ChibiOS_3.0.2/os/ext/CMSIS/ST/stm32f407xx.h"
 5746              		.file 20 "ChibiOS_3.0.2/os/rt/ports/ARMCMx/chcore.h"
 5747              		.file 21 "ChibiOS_3.0.2/os/rt/ports/ARMCMx/chcore_v7m.h"
 5748              		.file 22 "ChibiOS_3.0.2/os/rt/include/chtm.h"
 5749              		.file 23 "ChibiOS_3.0.2/os/rt/include/chsem.h"
 5750              		.file 24 "ChibiOS_3.0.2/os/rt/include/chmtx.h"
 5751              		.file 25 "ChibiOS_3.0.2/os/rt/include/chqueues.h"
 5752              		.file 26 "datatypes.h"
 5753              		.file 27 "conf_general.h"
 5754              		.file 28 "ChibiOS_3.0.2/os/hal/ports/STM32/STM32F4xx/stm32_dma.h"
 5755              		.file 29 "ChibiOS_3.0.2/os/hal/ports/STM32/LLD/GPIOv2/pal_lld.h"
 5756              		.file 30 "ChibiOS_3.0.2/os/hal/include/can.h"
 5757              		.file 31 "ChibiOS_3.0.2/os/hal/ports/STM32/LLD/can_lld.h"
 5758              		.file 32 "ChibiOS_3.0.2/os/hal/include/i2c.h"
ARM GAS  /tmp/ccj2MYXE.s 			page 103


 5759              		.file 33 "ChibiOS_3.0.2/os/hal/ports/STM32/LLD/I2Cv1/i2c_lld.h"
 5760              		.file 34 "ChibiOS_3.0.2/os/hal/include/icu.h"
 5761              		.file 35 "ChibiOS_3.0.2/os/hal/ports/STM32/LLD/TIMv1/icu_lld.h"
 5762              		.file 36 "ChibiOS_3.0.2/os/hal/ports/STM32/LLD/TIMv1/stm32_tim.h"
 5763              		.file 37 "ChibiOS_3.0.2/os/hal/include/serial.h"
 5764              		.file 38 "ChibiOS_3.0.2/os/hal/ports/STM32/LLD/USARTv1/serial_lld.h"
 5765              		.file 39 "ChibiOS_3.0.2/os/hal/include/spi.h"
 5766              		.file 40 "ChibiOS_3.0.2/os/hal/ports/STM32/LLD/SPIv1/spi_lld.h"
 5767              		.file 41 "ChibiOS_3.0.2/os/hal/include/usb.h"
 5768              		.file 42 "ChibiOS_3.0.2/os/hal/ports/STM32/LLD/OTGv1/usb_lld.h"
 5769              		.file 43 "ChibiOS_3.0.2/os/hal/ports/STM32/LLD/OTGv1/stm32_otg.h"
 5770              		.file 44 "mc_interface.h"
 5771              		.file 45 "timeout.h"
 5772              		.file 46 "ChibiOS_3.0.2/os/rt/include/chsys.h"
 5773              		.file 47 "applications/app.h"
 5774              		.file 48 "buffer.h"
 5775              		.file 49 "imu/imu.h"
 5776              		.file 50 "utils.h"
 5777              		.file 51 "commands.h"
 5778              		.file 52 "crc.h"
 5779              		.file 53 "libcanard/canard_driver.h"
 5780              		.file 54 "<built-in>"