ARM GAS  /tmp/ccACoy8P.s 			page 1


   1              		.cpu cortex-m4
   2              		.eabi_attribute 27, 1
   3              		.eabi_attribute 28, 1
   4              		.eabi_attribute 20, 1
   5              		.eabi_attribute 21, 1
   6              		.eabi_attribute 23, 3
   7              		.eabi_attribute 24, 1
   8              		.eabi_attribute 25, 1
   9              		.eabi_attribute 26, 1
  10              		.eabi_attribute 30, 2
  11              		.eabi_attribute 34, 1
  12              		.eabi_attribute 18, 4
  13              		.file	"encoder.c"
  14              		.text
  15              	.Ltext0:
  16              		.cfi_sections	.debug_frame
  17              		.section	.text.encoder_spi_get_error_cnt,"ax",%progbits
  18              		.align	1
  19              		.p2align 4,,15
  20              		.global	encoder_spi_get_error_cnt
  21              		.syntax unified
  22              		.thumb
  23              		.thumb_func
  24              		.fpu fpv4-sp-d16
  25              		.type	encoder_spi_get_error_cnt, %function
  26              	encoder_spi_get_error_cnt:
  27              	.LFB256:
  28              		.file 1 "encoder.c"
  29              		.loc 1 116 0
  30              		.cfi_startproc
  31              		@ args = 0, pretend = 0, frame = 0
  32              		@ frame_needed = 0, uses_anonymous_args = 0
  33              		@ link register save eliminated.
  34              		.loc 1 117 0
  35 0000 014B     		ldr	r3, .L3
  36              		.loc 1 118 0
  37 0002 1868     		ldr	r0, [r3]
  38 0004 7047     		bx	lr
  39              	.L4:
  40 0006 00BF     		.align	2
  41              	.L3:
  42 0008 00000000 		.word	.LANCHOR0
  43              		.cfi_endproc
  44              	.LFE256:
  45              		.size	encoder_spi_get_error_cnt, .-encoder_spi_get_error_cnt
  46              		.section	.text.encoder_spi_get_val,"ax",%progbits
  47              		.align	1
  48              		.p2align 4,,15
  49              		.global	encoder_spi_get_val
  50              		.syntax unified
  51              		.thumb
  52              		.thumb_func
  53              		.fpu fpv4-sp-d16
  54              		.type	encoder_spi_get_val, %function
  55              	encoder_spi_get_val:
  56              	.LFB257:
  57              		.loc 1 120 0
ARM GAS  /tmp/ccACoy8P.s 			page 2


  58              		.cfi_startproc
  59              		@ args = 0, pretend = 0, frame = 0
  60              		@ frame_needed = 0, uses_anonymous_args = 0
  61              		@ link register save eliminated.
  62              		.loc 1 121 0
  63 0000 014B     		ldr	r3, .L6
  64              		.loc 1 122 0
  65 0002 1888     		ldrh	r0, [r3]
  66 0004 7047     		bx	lr
  67              	.L7:
  68 0006 00BF     		.align	2
  69              	.L6:
  70 0008 00000000 		.word	.LANCHOR1
  71              		.cfi_endproc
  72              	.LFE257:
  73              		.size	encoder_spi_get_val, .-encoder_spi_get_val
  74              		.section	.text.encoder_spi_get_error_rate,"ax",%progbits
  75              		.align	1
  76              		.p2align 4,,15
  77              		.global	encoder_spi_get_error_rate
  78              		.syntax unified
  79              		.thumb
  80              		.thumb_func
  81              		.fpu fpv4-sp-d16
  82              		.type	encoder_spi_get_error_rate, %function
  83              	encoder_spi_get_error_rate:
  84              	.LFB258:
  85              		.loc 1 124 0
  86              		.cfi_startproc
  87              		@ args = 0, pretend = 0, frame = 0
  88              		@ frame_needed = 0, uses_anonymous_args = 0
  89              		@ link register save eliminated.
  90              		.loc 1 125 0
  91 0000 014B     		ldr	r3, .L9
  92              		.loc 1 126 0
  93 0002 93ED000A 		vldr.32	s0, [r3]
  94 0006 7047     		bx	lr
  95              	.L10:
  96              		.align	2
  97              	.L9:
  98 0008 00000000 		.word	.LANCHOR2
  99              		.cfi_endproc
 100              	.LFE258:
 101              		.size	encoder_spi_get_error_rate, .-encoder_spi_get_error_rate
 102              		.section	.text.encoder_sincos_get_signal_below_min_error_cnt,"ax",%progbits
 103              		.align	1
 104              		.p2align 4,,15
 105              		.global	encoder_sincos_get_signal_below_min_error_cnt
 106              		.syntax unified
 107              		.thumb
 108              		.thumb_func
 109              		.fpu fpv4-sp-d16
 110              		.type	encoder_sincos_get_signal_below_min_error_cnt, %function
 111              	encoder_sincos_get_signal_below_min_error_cnt:
 112              	.LFB259:
 113              		.loc 1 128 0
 114              		.cfi_startproc
ARM GAS  /tmp/ccACoy8P.s 			page 3


 115              		@ args = 0, pretend = 0, frame = 0
 116              		@ frame_needed = 0, uses_anonymous_args = 0
 117              		@ link register save eliminated.
 118              		.loc 1 129 0
 119 0000 014B     		ldr	r3, .L12
 120              		.loc 1 130 0
 121 0002 1868     		ldr	r0, [r3]
 122 0004 7047     		bx	lr
 123              	.L13:
 124 0006 00BF     		.align	2
 125              	.L12:
 126 0008 00000000 		.word	.LANCHOR3
 127              		.cfi_endproc
 128              	.LFE259:
 129              		.size	encoder_sincos_get_signal_below_min_error_cnt, .-encoder_sincos_get_signal_below_min_error_c
 130              		.section	.text.encoder_sincos_get_signal_above_max_error_cnt,"ax",%progbits
 131              		.align	1
 132              		.p2align 4,,15
 133              		.global	encoder_sincos_get_signal_above_max_error_cnt
 134              		.syntax unified
 135              		.thumb
 136              		.thumb_func
 137              		.fpu fpv4-sp-d16
 138              		.type	encoder_sincos_get_signal_above_max_error_cnt, %function
 139              	encoder_sincos_get_signal_above_max_error_cnt:
 140              	.LFB260:
 141              		.loc 1 132 0
 142              		.cfi_startproc
 143              		@ args = 0, pretend = 0, frame = 0
 144              		@ frame_needed = 0, uses_anonymous_args = 0
 145              		@ link register save eliminated.
 146              		.loc 1 133 0
 147 0000 014B     		ldr	r3, .L15
 148              		.loc 1 134 0
 149 0002 1868     		ldr	r0, [r3]
 150 0004 7047     		bx	lr
 151              	.L16:
 152 0006 00BF     		.align	2
 153              	.L15:
 154 0008 00000000 		.word	.LANCHOR4
 155              		.cfi_endproc
 156              	.LFE260:
 157              		.size	encoder_sincos_get_signal_above_max_error_cnt, .-encoder_sincos_get_signal_above_max_error_c
 158              		.section	.text.encoder_sincos_get_signal_below_min_error_rate,"ax",%progbits
 159              		.align	1
 160              		.p2align 4,,15
 161              		.global	encoder_sincos_get_signal_below_min_error_rate
 162              		.syntax unified
 163              		.thumb
 164              		.thumb_func
 165              		.fpu fpv4-sp-d16
 166              		.type	encoder_sincos_get_signal_below_min_error_rate, %function
 167              	encoder_sincos_get_signal_below_min_error_rate:
 168              	.LFB261:
 169              		.loc 1 136 0
 170              		.cfi_startproc
 171              		@ args = 0, pretend = 0, frame = 0
ARM GAS  /tmp/ccACoy8P.s 			page 4


 172              		@ frame_needed = 0, uses_anonymous_args = 0
 173              		@ link register save eliminated.
 174              		.loc 1 137 0
 175 0000 014B     		ldr	r3, .L18
 176              		.loc 1 138 0
 177 0002 93ED000A 		vldr.32	s0, [r3]
 178 0006 7047     		bx	lr
 179              	.L19:
 180              		.align	2
 181              	.L18:
 182 0008 00000000 		.word	.LANCHOR5
 183              		.cfi_endproc
 184              	.LFE261:
 185              		.size	encoder_sincos_get_signal_below_min_error_rate, .-encoder_sincos_get_signal_below_min_error_
 186              		.section	.text.encoder_sincos_get_signal_above_max_error_rate,"ax",%progbits
 187              		.align	1
 188              		.p2align 4,,15
 189              		.global	encoder_sincos_get_signal_above_max_error_rate
 190              		.syntax unified
 191              		.thumb
 192              		.thumb_func
 193              		.fpu fpv4-sp-d16
 194              		.type	encoder_sincos_get_signal_above_max_error_rate, %function
 195              	encoder_sincos_get_signal_above_max_error_rate:
 196              	.LFB262:
 197              		.loc 1 140 0
 198              		.cfi_startproc
 199              		@ args = 0, pretend = 0, frame = 0
 200              		@ frame_needed = 0, uses_anonymous_args = 0
 201              		@ link register save eliminated.
 202              		.loc 1 141 0
 203 0000 014B     		ldr	r3, .L21
 204              		.loc 1 142 0
 205 0002 93ED000A 		vldr.32	s0, [r3]
 206 0006 7047     		bx	lr
 207              	.L22:
 208              		.align	2
 209              	.L21:
 210 0008 00000000 		.word	.LANCHOR6
 211              		.cfi_endproc
 212              	.LFE262:
 213              		.size	encoder_sincos_get_signal_above_max_error_rate, .-encoder_sincos_get_signal_above_max_error_
 214              		.section	.text.encoder_deinit,"ax",%progbits
 215              		.align	1
 216              		.p2align 4,,15
 217              		.global	encoder_deinit
 218              		.syntax unified
 219              		.thumb
 220              		.thumb_func
 221              		.fpu fpv4-sp-d16
 222              		.type	encoder_deinit, %function
 223              	encoder_deinit:
 224              	.LFB263:
 225              		.loc 1 144 0
 226              		.cfi_startproc
 227              		@ args = 0, pretend = 0, frame = 0
 228              		@ frame_needed = 0, uses_anonymous_args = 0
ARM GAS  /tmp/ccACoy8P.s 			page 5


 229 0000 38B5     		push	{r3, r4, r5, lr}
 230              		.cfi_def_cfa_offset 16
 231              		.cfi_offset 3, -16
 232              		.cfi_offset 4, -12
 233              		.cfi_offset 5, -8
 234              		.cfi_offset 14, -4
 235              		.loc 1 145 0
 236 0002 1720     		movs	r0, #23
 237 0004 FFF7FEFF 		bl	nvicDisableVector
 238              	.LVL0:
 239              		.loc 1 146 0
 240 0008 1D20     		movs	r0, #29
 241 000a FFF7FEFF 		bl	nvicDisableVector
 242              	.LVL1:
 243              		.loc 1 148 0
 244 000e 2448     		ldr	r0, .L33
 245              		.loc 1 157 0
 246 0010 244C     		ldr	r4, .L33+4
 247              		.loc 1 148 0
 248 0012 FFF7FEFF 		bl	TIM_DeInit
 249              	.LVL2:
 250              		.loc 1 150 0
 251 0016 2022     		movs	r2, #32
 252 0018 8021     		movs	r1, #128
 253 001a 2348     		ldr	r0, .L33+8
 254 001c FFF7FEFF 		bl	_pal_lld_setgroupmode
 255              	.LVL3:
 256              		.loc 1 151 0
 257 0020 2022     		movs	r2, #32
 258 0022 4021     		movs	r1, #64
 259 0024 2048     		ldr	r0, .L33+8
 260 0026 FFF7FEFF 		bl	_pal_lld_setgroupmode
 261              	.LVL4:
 262              		.loc 1 152 0
 263 002a 2022     		movs	r2, #32
 264 002c 4FF48071 		mov	r1, #256
 265 0030 1D48     		ldr	r0, .L33+8
 266 0032 FFF7FEFF 		bl	_pal_lld_setgroupmode
 267              	.LVL5:
 268              		.loc 1 154 0
 269 0036 2022     		movs	r2, #32
 270 0038 4021     		movs	r1, #64
 271 003a 1B48     		ldr	r0, .L33+8
 272 003c FFF7FEFF 		bl	_pal_lld_setgroupmode
 273              	.LVL6:
 274              		.loc 1 155 0
 275 0040 2022     		movs	r2, #32
 276 0042 8021     		movs	r1, #128
 277 0044 1848     		ldr	r0, .L33+8
 278 0046 FFF7FEFF 		bl	_pal_lld_setgroupmode
 279              	.LVL7:
 280              		.loc 1 157 0
 281 004a 2378     		ldrb	r3, [r4]	@ zero_extendqisi2
 282 004c 052B     		cmp	r3, #5
 283 004e 0DD0     		beq	.L32
 284              	.L24:
 285              		.loc 1 172 0
ARM GAS  /tmp/ccACoy8P.s 			page 6


 286 0050 164A     		ldr	r2, .L33+12
 287              		.loc 1 170 0
 288 0052 1749     		ldr	r1, .L33+16
 289              		.loc 1 173 0
 290 0054 174D     		ldr	r5, .L33+20
 291              		.loc 1 174 0
 292 0056 1848     		ldr	r0, .L33+24
 293              		.loc 1 172 0
 294 0058 0023     		movs	r3, #0
 295 005a 1360     		str	r3, [r2]	@ float
 296              		.loc 1 170 0
 297 005c 0022     		movs	r2, #0
 298 005e 0A70     		strb	r2, [r1]
 299              		.loc 1 175 0
 300 0060 1649     		ldr	r1, .L33+28
 301              		.loc 1 171 0
 302 0062 2270     		strb	r2, [r4]
 303              		.loc 1 173 0
 304 0064 2B60     		str	r3, [r5]	@ float
 305              		.loc 1 174 0
 306 0066 0360     		str	r3, [r0]	@ float
 307              		.loc 1 175 0
 308 0068 0B60     		str	r3, [r1]	@ float
 309              		.loc 1 176 0
 310 006a 38BD     		pop	{r3, r4, r5, pc}
 311              	.L32:
 312              		.loc 1 158 0
 313 006c 144B     		ldr	r3, .L33+32
 314              		.loc 1 159 0
 315 006e 154D     		ldr	r5, .L33+36
 316              		.loc 1 158 0
 317 0070 0122     		movs	r2, #1
 318 0072 1A70     		strb	r2, [r3]
 319              		.loc 1 159 0
 320 0074 2B78     		ldrb	r3, [r5]	@ zero_extendqisi2
 321 0076 2BB1     		cbz	r3, .L25
 322              	.L26:
 323              		.loc 1 160 0
 324 0078 0A20     		movs	r0, #10
 325 007a FFF7FEFF 		bl	chThdSleep
 326              	.LVL8:
 327              		.loc 1 159 0
 328 007e 2B78     		ldrb	r3, [r5]	@ zero_extendqisi2
 329 0080 002B     		cmp	r3, #0
 330 0082 F9D1     		bne	.L26
 331              	.L25:
 332              		.loc 1 163 0
 333 0084 2022     		movs	r2, #32
 334 0086 4FF48061 		mov	r1, #1024
 335 008a 0F48     		ldr	r0, .L33+40
 336 008c FFF7FEFF 		bl	_pal_lld_setgroupmode
 337              	.LVL9:
 338              		.loc 1 164 0
 339 0090 2022     		movs	r2, #32
 340 0092 4FF40061 		mov	r1, #2048
 341 0096 0C48     		ldr	r0, .L33+40
 342 0098 FFF7FEFF 		bl	_pal_lld_setgroupmode
ARM GAS  /tmp/ccACoy8P.s 			page 7


 343              	.LVL10:
 344 009c D8E7     		b	.L24
 345              	.L34:
 346 009e 00BF     		.align	2
 347              	.L33:
 348 00a0 00040040 		.word	1073742848
 349 00a4 00000000 		.word	.LANCHOR7
 350 00a8 00080240 		.word	1073874944
 351 00ac 00000000 		.word	.LANCHOR11
 352 00b0 00000000 		.word	.LANCHOR10
 353 00b4 00000000 		.word	.LANCHOR2
 354 00b8 00000000 		.word	.LANCHOR5
 355 00bc 00000000 		.word	.LANCHOR6
 356 00c0 00000000 		.word	.LANCHOR8
 357 00c4 00000000 		.word	.LANCHOR9
 358 00c8 00040240 		.word	1073873920
 359              		.cfi_endproc
 360              	.LFE263:
 361              		.size	encoder_deinit, .-encoder_deinit
 362              		.section	.text.encoder_init_abi,"ax",%progbits
 363              		.align	1
 364              		.p2align 4,,15
 365              		.global	encoder_init_abi
 366              		.syntax unified
 367              		.thumb
 368              		.thumb_func
 369              		.fpu fpv4-sp-d16
 370              		.type	encoder_init_abi, %function
 371              	encoder_init_abi:
 372              	.LFB264:
 373              		.loc 1 178 0
 374              		.cfi_startproc
 375              		@ args = 0, pretend = 0, frame = 8
 376              		@ frame_needed = 0, uses_anonymous_args = 0
 377              	.LVL11:
 378 0000 70B5     		push	{r4, r5, r6, lr}
 379              		.cfi_def_cfa_offset 16
 380              		.cfi_offset 4, -16
 381              		.cfi_offset 5, -12
 382              		.cfi_offset 6, -8
 383              		.cfi_offset 14, -4
 384              		.loc 1 183 0
 385 0002 284E     		ldr	r6, .L37
 386              		.loc 1 185 0
 387 0004 284C     		ldr	r4, .L37+4
 388              		.loc 1 182 0
 389 0006 294B     		ldr	r3, .L37+8
 390              		.loc 1 183 0
 391 0008 3060     		str	r0, [r6]
 392              		.loc 1 178 0
 393 000a 82B0     		sub	sp, sp, #8
 394              		.cfi_def_cfa_offset 24
 395              		.loc 1 182 0
 396 000c 0025     		movs	r5, #0
 397              		.loc 1 185 0
 398 000e 2046     		mov	r0, r4
 399              	.LVL12:
ARM GAS  /tmp/ccACoy8P.s 			page 8


 400 0010 4FF48172 		mov	r2, #258
 401 0014 4021     		movs	r1, #64
 402              		.loc 1 182 0
 403 0016 1D70     		strb	r5, [r3]
 404              		.loc 1 185 0
 405 0018 FFF7FEFF 		bl	_pal_lld_setgroupmode
 406              	.LVL13:
 407              		.loc 1 186 0
 408 001c 4FF48172 		mov	r2, #258
 409 0020 2046     		mov	r0, r4
 410 0022 8021     		movs	r1, #128
 411 0024 FFF7FEFF 		bl	_pal_lld_setgroupmode
 412              	.LVL14:
 413              		.loc 1 190 0
 414 0028 0121     		movs	r1, #1
 415 002a 0220     		movs	r0, #2
 416              		.loc 1 195 0
 417 002c A4F50134 		sub	r4, r4, #132096
 418              		.loc 1 190 0
 419 0030 FFF7FEFF 		bl	RCC_APB1PeriphClockCmd
 420              	.LVL15:
 421              		.loc 1 193 0
 422 0034 0121     		movs	r1, #1
 423 0036 4FF48040 		mov	r0, #16384
 424 003a FFF7FEFF 		bl	RCC_APB2PeriphClockCmd
 425              	.LVL16:
 426              		.loc 1 195 0
 427 003e 2A46     		mov	r2, r5
 428 0040 2B46     		mov	r3, r5
 429 0042 2046     		mov	r0, r4
 430 0044 0321     		movs	r1, #3
 431 0046 FFF7FEFF 		bl	TIM_EncoderInterfaceConfig
 432              	.LVL17:
 433              		.loc 1 198 0
 434 004a 3168     		ldr	r1, [r6]
 435 004c 2046     		mov	r0, r4
 436 004e 0139     		subs	r1, r1, #1
 437 0050 FFF7FEFF 		bl	TIM_SetAutoreload
 438              	.LVL18:
 439              		.loc 1 201 0
 440 0054 A369     		ldr	r3, [r4, #24]
 441 0056 43F4C043 		orr	r3, r3, #24576
 442 005a 43F06003 		orr	r3, r3, #96
 443 005e A361     		str	r3, [r4, #24]
 444              		.loc 1 202 0
 445 0060 E369     		ldr	r3, [r4, #28]
 446 0062 43F06003 		orr	r3, r3, #96
 447 0066 E361     		str	r3, [r4, #28]
 448              		.loc 1 204 0
 449 0068 2046     		mov	r0, r4
 450 006a 0121     		movs	r1, #1
 451 006c FFF7FEFF 		bl	TIM_Cmd
 452              	.LVL19:
 453              		.loc 1 209 0
 454 0070 0821     		movs	r1, #8
 455 0072 0220     		movs	r0, #2
 456 0074 FFF7FEFF 		bl	SYSCFG_EXTILineConfig
ARM GAS  /tmp/ccACoy8P.s 			page 9


 457              	.LVL20:
 458              		.loc 1 215 0
 459 0078 0124     		movs	r4, #1
 460              		.loc 1 212 0
 461 007a 4FF48072 		mov	r2, #256
 462              		.loc 1 214 0
 463 007e 0823     		movs	r3, #8
 464              		.loc 1 216 0
 465 0080 6846     		mov	r0, sp
 466              		.loc 1 214 0
 467 0082 8DF80530 		strb	r3, [sp, #5]
 468              		.loc 1 212 0
 469 0086 0092     		str	r2, [sp]
 470              		.loc 1 213 0
 471 0088 8DF80450 		strb	r5, [sp, #4]
 472              		.loc 1 215 0
 473 008c 8DF80640 		strb	r4, [sp, #6]
 474              		.loc 1 216 0
 475 0090 FFF7FEFF 		bl	EXTI_Init
 476              	.LVL21:
 477              		.loc 1 219 0
 478 0094 2946     		mov	r1, r5
 479 0096 1720     		movs	r0, #23
 480 0098 FFF7FEFF 		bl	nvicEnableVector
 481              	.LVL22:
 482              		.loc 1 221 0
 483 009c 044B     		ldr	r3, .L37+12
 484 009e 1C70     		strb	r4, [r3]
 485              		.loc 1 222 0
 486 00a0 02B0     		add	sp, sp, #8
 487              		.cfi_def_cfa_offset 16
 488              		@ sp needed
 489 00a2 70BD     		pop	{r4, r5, r6, pc}
 490              	.L38:
 491              		.align	2
 492              	.L37:
 493 00a4 00000000 		.word	.LANCHOR12
 494 00a8 00080240 		.word	1073874944
 495 00ac 00000000 		.word	.LANCHOR10
 496 00b0 00000000 		.word	.LANCHOR7
 497              		.cfi_endproc
 498              	.LFE264:
 499              		.size	encoder_init_abi, .-encoder_init_abi
 500              		.section	.text.encoder_init_as5047p_spi,"ax",%progbits
 501              		.align	1
 502              		.p2align 4,,15
 503              		.global	encoder_init_as5047p_spi
 504              		.syntax unified
 505              		.thumb
 506              		.thumb_func
 507              		.fpu fpv4-sp-d16
 508              		.type	encoder_init_as5047p_spi, %function
 509              	encoder_init_as5047p_spi:
 510              	.LFB265:
 511              		.loc 1 224 0
 512              		.cfi_startproc
 513              		@ args = 0, pretend = 0, frame = 16
ARM GAS  /tmp/ccACoy8P.s 			page 10


 514              		@ frame_needed = 0, uses_anonymous_args = 0
 515 0000 30B5     		push	{r4, r5, lr}
 516              		.cfi_def_cfa_offset 12
 517              		.cfi_offset 4, -12
 518              		.cfi_offset 5, -8
 519              		.cfi_offset 14, -4
 520              		.loc 1 227 0
 521 0002 1E4D     		ldr	r5, .L41
 522              		.loc 1 246 0
 523 0004 1E4C     		ldr	r4, .L41+4
 524              		.loc 1 224 0
 525 0006 85B0     		sub	sp, sp, #20
 526              		.cfi_def_cfa_offset 32
 527              		.loc 1 227 0
 528 0008 2846     		mov	r0, r5
 529 000a 0022     		movs	r2, #0
 530 000c 8021     		movs	r1, #128
 531 000e FFF7FEFF 		bl	_pal_lld_setgroupmode
 532              	.LVL23:
 533              		.loc 1 228 0
 534 0012 2846     		mov	r0, r5
 535 0014 1922     		movs	r2, #25
 536 0016 4021     		movs	r1, #64
 537 0018 FFF7FEFF 		bl	_pal_lld_setgroupmode
 538              	.LVL24:
 539              		.loc 1 229 0
 540 001c 2846     		mov	r0, r5
 541 001e 1922     		movs	r2, #25
 542 0020 4FF48071 		mov	r1, #256
 543 0024 FFF7FEFF 		bl	_pal_lld_setgroupmode
 544              	.LVL25:
 545              		.loc 1 238 0
 546 0028 0121     		movs	r1, #1
 547 002a 0220     		movs	r0, #2
 548 002c FFF7FEFF 		bl	RCC_APB1PeriphClockCmd
 549              	.LVL26:
 550              		.loc 1 241 0
 551 0030 0023     		movs	r3, #0
 552              		.loc 1 246 0
 553 0032 2046     		mov	r0, r4
 554              		.loc 1 242 0
 555 0034 41F26702 		movw	r2, #4199
 556              		.loc 1 246 0
 557 0038 01A9     		add	r1, sp, #4
 558              		.loc 1 241 0
 559 003a 0193     		str	r3, [sp, #4]
 560              		.loc 1 243 0
 561 003c ADF80C30 		strh	r3, [sp, #12]	@ movhi
 562              		.loc 1 244 0
 563 0040 8DF80E30 		strb	r3, [sp, #14]
 564              		.loc 1 242 0
 565 0044 0292     		str	r2, [sp, #8]
 566              		.loc 1 246 0
 567 0046 FFF7FEFF 		bl	TIM_TimeBaseInit
 568              	.LVL27:
 569              		.loc 1 249 0
 570 004a 0122     		movs	r2, #1
ARM GAS  /tmp/ccACoy8P.s 			page 11


 571 004c 1146     		mov	r1, r2
 572 004e 2046     		mov	r0, r4
 573 0050 FFF7FEFF 		bl	TIM_ITConfig
 574              	.LVL28:
 575              		.loc 1 252 0
 576 0054 2046     		mov	r0, r4
 577 0056 0121     		movs	r1, #1
 578 0058 FFF7FEFF 		bl	TIM_Cmd
 579              	.LVL29:
 580              		.loc 1 254 0
 581 005c 0621     		movs	r1, #6
 582 005e 1D20     		movs	r0, #29
 583 0060 FFF7FEFF 		bl	nvicEnableVector
 584              	.LVL30:
 585              		.loc 1 256 0
 586 0064 074C     		ldr	r4, .L41+8
 587              		.loc 1 257 0
 588 0066 0849     		ldr	r1, .L41+12
 589              		.loc 1 258 0
 590 0068 084B     		ldr	r3, .L41+16
 591 006a 0022     		movs	r2, #0
 592              		.loc 1 256 0
 593 006c 0225     		movs	r5, #2
 594              		.loc 1 257 0
 595 006e 0120     		movs	r0, #1
 596              		.loc 1 256 0
 597 0070 2570     		strb	r5, [r4]
 598              		.loc 1 257 0
 599 0072 0870     		strb	r0, [r1]
 600              		.loc 1 258 0
 601 0074 1A60     		str	r2, [r3]	@ float
 602              		.loc 1 259 0
 603 0076 05B0     		add	sp, sp, #20
 604              		.cfi_def_cfa_offset 12
 605              		@ sp needed
 606 0078 30BD     		pop	{r4, r5, pc}
 607              	.L42:
 608 007a 00BF     		.align	2
 609              	.L41:
 610 007c 00080240 		.word	1073874944
 611 0080 00040040 		.word	1073742848
 612 0084 00000000 		.word	.LANCHOR7
 613 0088 00000000 		.word	.LANCHOR10
 614 008c 00000000 		.word	.LANCHOR2
 615              		.cfi_endproc
 616              	.LFE265:
 617              		.size	encoder_init_as5047p_spi, .-encoder_init_as5047p_spi
 618              		.section	.text.encoder_init_ad2s1205_spi,"ax",%progbits
 619              		.align	1
 620              		.p2align 4,,15
 621              		.global	encoder_init_ad2s1205_spi
 622              		.syntax unified
 623              		.thumb
 624              		.thumb_func
 625              		.fpu fpv4-sp-d16
 626              		.type	encoder_init_ad2s1205_spi, %function
 627              	encoder_init_ad2s1205_spi:
ARM GAS  /tmp/ccACoy8P.s 			page 12


 628              	.LFB266:
 629              		.loc 1 261 0
 630              		.cfi_startproc
 631              		@ args = 0, pretend = 0, frame = 16
 632              		@ frame_needed = 0, uses_anonymous_args = 0
 633 0000 30B5     		push	{r4, r5, lr}
 634              		.cfi_def_cfa_offset 12
 635              		.cfi_offset 4, -12
 636              		.cfi_offset 5, -8
 637              		.cfi_offset 14, -4
 638              		.loc 1 264 0
 639 0002 1C4D     		ldr	r5, .L45
 640              		.loc 1 293 0
 641 0004 1C4C     		ldr	r4, .L45+4
 642              		.loc 1 261 0
 643 0006 85B0     		sub	sp, sp, #20
 644              		.cfi_def_cfa_offset 32
 645              		.loc 1 264 0
 646 0008 2846     		mov	r0, r5
 647 000a 0022     		movs	r2, #0
 648 000c 8021     		movs	r1, #128
 649 000e FFF7FEFF 		bl	_pal_lld_setgroupmode
 650              	.LVL31:
 651              		.loc 1 265 0
 652 0012 2846     		mov	r0, r5
 653 0014 1922     		movs	r2, #25
 654 0016 4021     		movs	r1, #64
 655 0018 FFF7FEFF 		bl	_pal_lld_setgroupmode
 656              	.LVL32:
 657              		.loc 1 266 0
 658 001c 2846     		mov	r0, r5
 659 001e 1922     		movs	r2, #25
 660 0020 4FF48071 		mov	r1, #256
 661 0024 FFF7FEFF 		bl	_pal_lld_setgroupmode
 662              	.LVL33:
 663              		.loc 1 285 0
 664 0028 0121     		movs	r1, #1
 665 002a 0220     		movs	r0, #2
 666 002c FFF7FEFF 		bl	RCC_APB1PeriphClockCmd
 667              	.LVL34:
 668              		.loc 1 288 0
 669 0030 0023     		movs	r3, #0
 670              		.loc 1 293 0
 671 0032 2046     		mov	r0, r4
 672              		.loc 1 289 0
 673 0034 41F26702 		movw	r2, #4199
 674              		.loc 1 293 0
 675 0038 01A9     		add	r1, sp, #4
 676              		.loc 1 288 0
 677 003a 0193     		str	r3, [sp, #4]
 678              		.loc 1 290 0
 679 003c ADF80C30 		strh	r3, [sp, #12]	@ movhi
 680              		.loc 1 291 0
 681 0040 8DF80E30 		strb	r3, [sp, #14]
 682              		.loc 1 289 0
 683 0044 0292     		str	r2, [sp, #8]
 684              		.loc 1 293 0
ARM GAS  /tmp/ccACoy8P.s 			page 13


 685 0046 FFF7FEFF 		bl	TIM_TimeBaseInit
 686              	.LVL35:
 687              		.loc 1 296 0
 688 004a 0122     		movs	r2, #1
 689 004c 1146     		mov	r1, r2
 690 004e 2046     		mov	r0, r4
 691 0050 FFF7FEFF 		bl	TIM_ITConfig
 692              	.LVL36:
 693              		.loc 1 299 0
 694 0054 2046     		mov	r0, r4
 695 0056 0121     		movs	r1, #1
 696 0058 FFF7FEFF 		bl	TIM_Cmd
 697              	.LVL37:
 698              		.loc 1 301 0
 699 005c 0621     		movs	r1, #6
 700 005e 1D20     		movs	r0, #29
 701 0060 FFF7FEFF 		bl	nvicEnableVector
 702              	.LVL38:
 703              		.loc 1 303 0
 704 0064 0549     		ldr	r1, .L45+8
 705              		.loc 1 304 0
 706 0066 064B     		ldr	r3, .L45+12
 707              		.loc 1 303 0
 708 0068 0320     		movs	r0, #3
 709              		.loc 1 304 0
 710 006a 0122     		movs	r2, #1
 711              		.loc 1 303 0
 712 006c 0870     		strb	r0, [r1]
 713              		.loc 1 304 0
 714 006e 1A70     		strb	r2, [r3]
 715              		.loc 1 305 0
 716 0070 05B0     		add	sp, sp, #20
 717              		.cfi_def_cfa_offset 12
 718              		@ sp needed
 719 0072 30BD     		pop	{r4, r5, pc}
 720              	.L46:
 721              		.align	2
 722              	.L45:
 723 0074 00080240 		.word	1073874944
 724 0078 00040040 		.word	1073742848
 725 007c 00000000 		.word	.LANCHOR7
 726 0080 00000000 		.word	.LANCHOR10
 727              		.cfi_endproc
 728              	.LFE266:
 729              		.size	encoder_init_ad2s1205_spi, .-encoder_init_ad2s1205_spi
 730              		.section	.text.encoder_init_sincos,"ax",%progbits
 731              		.align	1
 732              		.p2align 4,,15
 733              		.global	encoder_init_sincos
 734              		.syntax unified
 735              		.thumb
 736              		.thumb_func
 737              		.fpu fpv4-sp-d16
 738              		.type	encoder_init_sincos, %function
 739              	encoder_init_sincos:
 740              	.LFB267:
 741              		.loc 1 308 0
ARM GAS  /tmp/ccACoy8P.s 			page 14


 742              		.cfi_startproc
 743              		@ args = 0, pretend = 0, frame = 0
 744              		@ frame_needed = 0, uses_anonymous_args = 0
 745              		@ link register save eliminated.
 746              	.LVL39:
 747 0000 70B4     		push	{r4, r5, r6}
 748              		.cfi_def_cfa_offset 12
 749              		.cfi_offset 4, -12
 750              		.cfi_offset 5, -8
 751              		.cfi_offset 6, -4
 752              		.loc 1 318 0
 753 0002 084B     		ldr	r3, .L49
 754              		.loc 1 316 0
 755 0004 084E     		ldr	r6, .L49+4
 756              		.loc 1 317 0
 757 0006 094D     		ldr	r5, .L49+8
 758              		.loc 1 326 0
 759 0008 094C     		ldr	r4, .L49+12
 760              		.loc 1 327 0
 761 000a 0A48     		ldr	r0, .L49+16
 762              		.loc 1 319 0
 763 000c 0A49     		ldr	r1, .L49+20
 764              		.loc 1 318 0
 765 000e 0022     		movs	r2, #0
 766 0010 1A60     		str	r2, [r3]	@ float
 767              		.loc 1 316 0
 768 0012 0023     		movs	r3, #0
 769 0014 3360     		str	r3, [r6]
 770              		.loc 1 317 0
 771 0016 2B60     		str	r3, [r5]
 772              		.loc 1 326 0
 773 0018 2370     		strb	r3, [r4]
 774              		.loc 1 327 0
 775 001a 0370     		strb	r3, [r0]
 776              		.loc 1 319 0
 777 001c 0A60     		str	r2, [r1]	@ float
 778              		.loc 1 329 0
 779 001e 70BC     		pop	{r4, r5, r6}
 780              		.cfi_restore 6
 781              		.cfi_restore 5
 782              		.cfi_restore 4
 783              		.cfi_def_cfa_offset 0
 784 0020 7047     		bx	lr
 785              	.L50:
 786 0022 00BF     		.align	2
 787              	.L49:
 788 0024 00000000 		.word	.LANCHOR5
 789 0028 00000000 		.word	.LANCHOR3
 790 002c 00000000 		.word	.LANCHOR4
 791 0030 00000000 		.word	.LANCHOR7
 792 0034 00000000 		.word	.LANCHOR10
 793 0038 00000000 		.word	.LANCHOR6
 794              		.cfi_endproc
 795              	.LFE267:
 796              		.size	encoder_init_sincos, .-encoder_init_sincos
 797              		.section	.text.encoder_init_ts5700n8501,"ax",%progbits
 798              		.align	1
ARM GAS  /tmp/ccACoy8P.s 			page 15


 799              		.p2align 4,,15
 800              		.global	encoder_init_ts5700n8501
 801              		.syntax unified
 802              		.thumb
 803              		.thumb_func
 804              		.fpu fpv4-sp-d16
 805              		.type	encoder_init_ts5700n8501, %function
 806              	encoder_init_ts5700n8501:
 807              	.LFB268:
 808              		.loc 1 331 0
 809              		.cfi_startproc
 810              		@ args = 0, pretend = 0, frame = 0
 811              		@ frame_needed = 0, uses_anonymous_args = 0
 812 0000 30B5     		push	{r4, r5, lr}
 813              		.cfi_def_cfa_offset 12
 814              		.cfi_offset 4, -12
 815              		.cfi_offset 5, -8
 816              		.cfi_offset 14, -4
 817              		.loc 1 334 0
 818 0002 0D4B     		ldr	r3, .L53
 819              		.loc 1 336 0
 820 0004 0D4D     		ldr	r5, .L53+4
 821              		.loc 1 333 0
 822 0006 0E49     		ldr	r1, .L53+8
 823              		.loc 1 332 0
 824 0008 0E4A     		ldr	r2, .L53+12
 825              		.loc 1 335 0
 826 000a 0F48     		ldr	r0, .L53+16
 827              		.loc 1 331 0
 828 000c 83B0     		sub	sp, sp, #12
 829              		.cfi_def_cfa_offset 24
 830              		.loc 1 334 0
 831 000e 0024     		movs	r4, #0
 832 0010 1C60     		str	r4, [r3]	@ float
 833              		.loc 1 335 0
 834 0012 0024     		movs	r4, #0
 835              		.loc 1 333 0
 836 0014 0123     		movs	r3, #1
 837              		.loc 1 339 0
 838 0016 0094     		str	r4, [sp]
 839              		.loc 1 336 0
 840 0018 2B70     		strb	r3, [r5]
 841              		.loc 1 337 0
 842 001a 0C4D     		ldr	r5, .L53+20
 843              		.loc 1 333 0
 844 001c 0B70     		strb	r3, [r1]
 845              		.loc 1 332 0
 846 001e 0521     		movs	r1, #5
 847 0020 1170     		strb	r1, [r2]
 848              		.loc 1 335 0
 849 0022 0460     		str	r4, [r0]
 850              		.loc 1 339 0
 851 0024 0A4B     		ldr	r3, .L53+24
 852              		.loc 1 337 0
 853 0026 2C70     		strb	r4, [r5]
 854              		.loc 1 339 0
 855 0028 3622     		movs	r2, #54
ARM GAS  /tmp/ccACoy8P.s 			page 16


 856 002a 4FF46671 		mov	r1, #920
 857 002e 0948     		ldr	r0, .L53+28
 858 0030 FFF7FEFF 		bl	chThdCreateStatic
 859              	.LVL40:
 860              		.loc 1 341 0
 861 0034 03B0     		add	sp, sp, #12
 862              		.cfi_def_cfa_offset 12
 863              		@ sp needed
 864 0036 30BD     		pop	{r4, r5, pc}
 865              	.L54:
 866              		.align	2
 867              	.L53:
 868 0038 00000000 		.word	.LANCHOR2
 869 003c 00000000 		.word	.LANCHOR9
 870 0040 00000000 		.word	.LANCHOR10
 871 0044 00000000 		.word	.LANCHOR7
 872 0048 00000000 		.word	.LANCHOR0
 873 004c 00000000 		.word	.LANCHOR8
 874 0050 00000000 		.word	ts5700n8501_thread
 875 0054 00000000 		.word	.LANCHOR13
 876              		.cfi_endproc
 877              	.LFE268:
 878              		.size	encoder_init_ts5700n8501, .-encoder_init_ts5700n8501
 879              		.section	.text.encoder_is_configured,"ax",%progbits
 880              		.align	1
 881              		.p2align 4,,15
 882              		.global	encoder_is_configured
 883              		.syntax unified
 884              		.thumb
 885              		.thumb_func
 886              		.fpu fpv4-sp-d16
 887              		.type	encoder_is_configured, %function
 888              	encoder_is_configured:
 889              	.LFB269:
 890              		.loc 1 343 0
 891              		.cfi_startproc
 892              		@ args = 0, pretend = 0, frame = 0
 893              		@ frame_needed = 0, uses_anonymous_args = 0
 894              		@ link register save eliminated.
 895              		.loc 1 344 0
 896 0000 024B     		ldr	r3, .L56
 897 0002 1878     		ldrb	r0, [r3]	@ zero_extendqisi2
 898              		.loc 1 345 0
 899 0004 0030     		adds	r0, r0, #0
 900 0006 18BF     		it	ne
 901 0008 0120     		movne	r0, #1
 902 000a 7047     		bx	lr
 903              	.L57:
 904              		.align	2
 905              	.L56:
 906 000c 00000000 		.word	.LANCHOR7
 907              		.cfi_endproc
 908              	.LFE269:
 909              		.size	encoder_is_configured, .-encoder_is_configured
 910              		.section	.text.encoder_read_deg,"ax",%progbits
 911              		.align	1
 912              		.p2align 4,,15
ARM GAS  /tmp/ccACoy8P.s 			page 17


 913              		.global	encoder_read_deg
 914              		.syntax unified
 915              		.thumb
 916              		.thumb_func
 917              		.fpu fpv4-sp-d16
 918              		.type	encoder_read_deg, %function
 919              	encoder_read_deg:
 920              	.LFB270:
 921              		.loc 1 353 0
 922              		.cfi_startproc
 923              		@ args = 0, pretend = 0, frame = 0
 924              		@ frame_needed = 0, uses_anonymous_args = 0
 925              		@ link register save eliminated.
 926              		.loc 1 356 0
 927 0000 144B     		ldr	r3, .L64
 928 0002 1B78     		ldrb	r3, [r3]	@ zero_extendqisi2
 929 0004 013B     		subs	r3, r3, #1
 930 0006 042B     		cmp	r3, #4
 931 0008 1FD8     		bhi	.L59
 932 000a DFE803F0 		tbb	[pc, r3]
 933              	.L61:
 934 000e 0A       		.byte	(.L60-.L61)/2
 935 000f 03       		.byte	(.L62-.L61)/2
 936 0010 03       		.byte	(.L62-.L61)/2
 937 0011 1E       		.byte	(.L59-.L61)/2
 938 0012 03       		.byte	(.L62-.L61)/2
 939 0013 00       		.p2align 1
 940              	.L62:
 941              		.loc 1 364 0
 942 0014 104A     		ldr	r2, .L64+4
 943 0016 114B     		ldr	r3, .L64+8
 944 0018 92ED000A 		vldr.32	s0, [r2]
 945 001c 83ED000A 		vstr.32	s0, [r3]
 946              		.loc 1 404 0
 947 0020 7047     		bx	lr
 948              	.L60:
 949              		.loc 1 358 0
 950 0022 0F4A     		ldr	r2, .L64+12
 951 0024 0F4B     		ldr	r3, .L64+16
 952 0026 D2ED097A 		vldr.32	s15, [r2, #36]	@ int
 953 002a 93ED007A 		vldr.32	s14, [r3]	@ int
 954 002e DFED0E6A 		vldr.32	s13, .L64+20
 955 0032 0A4B     		ldr	r3, .L64+8
 956 0034 F8EE677A 		vcvt.f32.u32	s15, s15
 957 0038 B8EE477A 		vcvt.f32.u32	s14, s14
 958 003c 67EEA67A 		vmul.f32	s15, s15, s13
 959 0040 87EE870A 		vdiv.f32	s0, s15, s14
 960 0044 83ED000A 		vstr.32	s0, [r3]
 961              		.loc 1 359 0
 962 0048 7047     		bx	lr
 963              	.L59:
 964 004a 044B     		ldr	r3, .L64+8
 965 004c 93ED000A 		vldr.32	s0, [r3]
 966 0050 7047     		bx	lr
 967              	.L65:
 968 0052 00BF     		.align	2
 969              	.L64:
ARM GAS  /tmp/ccACoy8P.s 			page 18


 970 0054 00000000 		.word	.LANCHOR7
 971 0058 00000000 		.word	.LANCHOR11
 972 005c 00000000 		.word	.LANCHOR14
 973 0060 00040040 		.word	1073742848
 974 0064 00000000 		.word	.LANCHOR12
 975 0068 0000B443 		.word	1135869952
 976              		.cfi_endproc
 977              	.LFE270:
 978              		.size	encoder_read_deg, .-encoder_read_deg
 979              		.section	.text.encoder_reset,"ax",%progbits
 980              		.align	1
 981              		.p2align 4,,15
 982              		.global	encoder_reset
 983              		.syntax unified
 984              		.thumb
 985              		.thumb_func
 986              		.fpu fpv4-sp-d16
 987              		.type	encoder_reset, %function
 988              	encoder_reset:
 989              	.LFB271:
 990              		.loc 1 409 0
 991              		.cfi_startproc
 992              		@ args = 0, pretend = 0, frame = 0
 993              		@ frame_needed = 0, uses_anonymous_args = 0
 994              		@ link register save eliminated.
 995              	.LBB240:
 996              	.LBB241:
 997              		.file 2 "ChibiOS_3.0.2/os/ext/CMSIS/include/core_cmInstr.h"
 998              		.loc 2 327 0
 999              		.syntax unified
 1000              	@ 327 "ChibiOS_3.0.2/os/ext/CMSIS/include/core_cmInstr.h" 1
 1001 0000 00BF     		nop
 1002              	@ 0 "" 2
 1003              		.thumb
 1004              		.syntax unified
 1005              	.LBE241:
 1006              	.LBE240:
 1007              	.LBB242:
 1008              	.LBB243:
 1009              		.syntax unified
 1010              	@ 327 "ChibiOS_3.0.2/os/ext/CMSIS/include/core_cmInstr.h" 1
 1011 0002 00BF     		nop
 1012              	@ 0 "" 2
 1013              		.thumb
 1014              		.syntax unified
 1015              	.LBE243:
 1016              	.LBE242:
 1017              	.LBB244:
 1018              	.LBB245:
 1019              		.syntax unified
 1020              	@ 327 "ChibiOS_3.0.2/os/ext/CMSIS/include/core_cmInstr.h" 1
 1021 0004 00BF     		nop
 1022              	@ 0 "" 2
 1023              		.thumb
 1024              		.syntax unified
 1025              	.LBE245:
 1026              	.LBE244:
ARM GAS  /tmp/ccACoy8P.s 			page 19


 1027              	.LBB246:
 1028              	.LBB247:
 1029              		.syntax unified
 1030              	@ 327 "ChibiOS_3.0.2/os/ext/CMSIS/include/core_cmInstr.h" 1
 1031 0006 00BF     		nop
 1032              	@ 0 "" 2
 1033              		.thumb
 1034              		.syntax unified
 1035              	.LBE247:
 1036              	.LBE246:
 1037              		.loc 1 416 0
 1038 0008 144B     		ldr	r3, .L73
 1039 000a 1B69     		ldr	r3, [r3, #16]
 1040 000c DB05     		lsls	r3, r3, #23
 1041 000e 1DD5     		bpl	.L66
 1042              	.LBB248:
 1043              		.loc 1 421 0
 1044 0010 134A     		ldr	r2, .L73+4
 1045              		.loc 1 417 0
 1046 0012 1449     		ldr	r1, .L73+8
 1047              		.loc 1 421 0
 1048 0014 1378     		ldrb	r3, [r2]	@ zero_extendqisi2
 1049              		.loc 1 417 0
 1050 0016 486A     		ldr	r0, [r1, #36]
 1051              	.LVL41:
 1052              		.loc 1 421 0
 1053 0018 9BB1     		cbz	r3, .L69
 1054              		.loc 1 419 0
 1055 001a 1349     		ldr	r1, .L73+12
 1056 001c 134B     		ldr	r3, .L73+16
 1057 001e 0968     		ldr	r1, [r1]
 1058 0020 A3FB01C3 		umull	ip, r3, r3, r1
 1059 0024 1B09     		lsrs	r3, r3, #4
 1060              		.loc 1 423 0
 1061 0026 C91A     		subs	r1, r1, r3
 1062 0028 8142     		cmp	r1, r0
 1063 002a 10D3     		bcc	.L70
 1064              		.loc 1 423 0 is_stmt 0 discriminator 1
 1065 002c 9842     		cmp	r0, r3
 1066 002e 0ED3     		bcc	.L70
 1067              		.loc 1 427 0 is_stmt 1
 1068 0030 0F49     		ldr	r1, .L73+20
 1069 0032 0B68     		ldr	r3, [r1]
 1070 0034 0133     		adds	r3, r3, #1
 1071              		.loc 1 429 0
 1072 0036 052B     		cmp	r3, #5
 1073              		.loc 1 427 0
 1074 0038 0B60     		str	r3, [r1]
 1075              		.loc 1 429 0
 1076 003a 07DD     		ble	.L66
 1077              		.loc 1 430 0
 1078 003c 0023     		movs	r3, #0
 1079 003e 1370     		strb	r3, [r2]
 1080 0040 7047     		bx	lr
 1081              	.L69:
 1082              		.loc 1 436 0
 1083 0042 0B48     		ldr	r0, .L73+20
ARM GAS  /tmp/ccACoy8P.s 			page 20


 1084              	.LVL42:
 1085              		.loc 1 434 0
 1086 0044 4B62     		str	r3, [r1, #36]
 1087              	.LVL43:
 1088              		.loc 1 435 0
 1089 0046 0121     		movs	r1, #1
 1090              		.loc 1 436 0
 1091 0048 0360     		str	r3, [r0]
 1092              		.loc 1 435 0
 1093 004a 1170     		strb	r1, [r2]
 1094              	.L66:
 1095              	.LBE248:
 1096              		.loc 1 439 0
 1097 004c 7047     		bx	lr
 1098              	.LVL44:
 1099              	.L70:
 1100              	.LBB249:
 1101              		.loc 1 424 0
 1102 004e 0549     		ldr	r1, .L73+8
 1103              		.loc 1 425 0
 1104 0050 074A     		ldr	r2, .L73+20
 1105              		.loc 1 424 0
 1106 0052 0023     		movs	r3, #0
 1107 0054 4B62     		str	r3, [r1, #36]
 1108              	.LVL45:
 1109              		.loc 1 425 0
 1110 0056 1360     		str	r3, [r2]
 1111 0058 7047     		bx	lr
 1112              	.L74:
 1113 005a 00BF     		.align	2
 1114              	.L73:
 1115 005c 00080240 		.word	1073874944
 1116 0060 00000000 		.word	.LANCHOR10
 1117 0064 00040040 		.word	1073742848
 1118 0068 00000000 		.word	.LANCHOR12
 1119 006c CDCCCCCC 		.word	-858993459
 1120 0070 00000000 		.word	.LANCHOR15
 1121              	.LBE249:
 1122              		.cfi_endproc
 1123              	.LFE271:
 1124              		.size	encoder_reset, .-encoder_reset
 1125              		.section	.text.spi_check_parity,"ax",%progbits
 1126              		.align	1
 1127              		.p2align 4,,15
 1128              		.global	spi_check_parity
 1129              		.syntax unified
 1130              		.thumb
 1131              		.thumb_func
 1132              		.fpu fpv4-sp-d16
 1133              		.type	spi_check_parity, %function
 1134              	spi_check_parity:
 1135              	.LFB272:
 1136              		.loc 1 442 0
 1137              		.cfi_startproc
 1138              		@ args = 0, pretend = 0, frame = 0
 1139              		@ frame_needed = 0, uses_anonymous_args = 0
 1140              		@ link register save eliminated.
ARM GAS  /tmp/ccACoy8P.s 			page 21


 1141              	.LVL46:
 1142              		.loc 1 443 0
 1143 0000 80EA1020 		eor	r0, r0, r0, lsr #8
 1144              	.LVL47:
 1145              		.loc 1 444 0
 1146 0004 80EA1010 		eor	r0, r0, r0, lsr #4
 1147              	.LVL48:
 1148              		.loc 1 445 0
 1149 0008 80EA9000 		eor	r0, r0, r0, lsr #2
 1150              	.LVL49:
 1151              		.loc 1 446 0
 1152 000c 80EA5000 		eor	r0, r0, r0, lsr #1
 1153              	.LVL50:
 1154              		.loc 1 447 0
 1155 0010 C043     		mvns	r0, r0
 1156              		.loc 1 448 0
 1157 0012 00F00100 		and	r0, r0, #1
 1158 0016 7047     		bx	lr
 1159              		.cfi_endproc
 1160              	.LFE272:
 1161              		.size	spi_check_parity, .-spi_check_parity
 1162              		.section	.text.encoder_tim_isr,"ax",%progbits
 1163              		.align	1
 1164              		.p2align 4,,15
 1165              		.global	encoder_tim_isr
 1166              		.syntax unified
 1167              		.thumb
 1168              		.thumb_func
 1169              		.fpu fpv4-sp-d16
 1170              		.type	encoder_tim_isr, %function
 1171              	encoder_tim_isr:
 1172              	.LFB273:
 1173              		.loc 1 453 0
 1174              		.cfi_startproc
 1175              		@ args = 0, pretend = 0, frame = 8
 1176              		@ frame_needed = 0, uses_anonymous_args = 0
 1177 0000 30B5     		push	{r4, r5, lr}
 1178              		.cfi_def_cfa_offset 12
 1179              		.cfi_offset 4, -12
 1180              		.cfi_offset 5, -8
 1181              		.cfi_offset 14, -4
 1182              		.loc 1 456 0
 1183 0002 384B     		ldr	r3, .L88
 1184 0004 1B78     		ldrb	r3, [r3]	@ zero_extendqisi2
 1185 0006 022B     		cmp	r3, #2
 1186              		.loc 1 453 0
 1187 0008 83B0     		sub	sp, sp, #12
 1188              		.cfi_def_cfa_offset 24
 1189              		.loc 1 456 0
 1190 000a 25D0     		beq	.L86
 1191              		.loc 1 472 0
 1192 000c 032B     		cmp	r3, #3
 1193 000e 01D0     		beq	.L87
 1194              	.L76:
 1195              		.loc 1 496 0
 1196 0010 03B0     		add	sp, sp, #12
 1197              		.cfi_remember_state
ARM GAS  /tmp/ccACoy8P.s 			page 22


 1198              		.cfi_def_cfa_offset 12
 1199              		@ sp needed
 1200 0012 30BD     		pop	{r4, r5, pc}
 1201              	.L87:
 1202              		.cfi_restore_state
 1203              	.LBB250:
 1204              	.LBB251:
 1205              	.LBB252:
 1206              		.loc 1 562 0
 1207 0014 344C     		ldr	r4, .L88+4
 1208 0016 4FF48075 		mov	r5, #256
 1209 001a 6583     		strh	r5, [r4, #26]	@ movhi
 1210              	.LBE252:
 1211              	.LBE251:
 1212              		.loc 1 480 0
 1213 001c 0DF10600 		add	r0, sp, #6
 1214 0020 FFF7FEFF 		bl	spi_transfer.isra.0.constprop.1
 1215              	.LVL51:
 1216              	.LBB253:
 1217              	.LBB254:
 1218              		.loc 1 566 0
 1219 0024 2583     		strh	r5, [r4, #24]	@ movhi
 1220              	.LBE254:
 1221              	.LBE253:
 1222              		.loc 1 483 0
 1223 0026 BDF80630 		ldrh	r3, [sp, #6]
 1224              	.LVL52:
 1225              		.loc 1 492 0
 1226 002a 03F00C02 		and	r2, r3, #12
 1227 002e 0C2A     		cmp	r2, #12
 1228 0030 EED1     		bne	.L76
 1229              		.loc 1 492 0 is_stmt 0 discriminator 2
 1230 0032 9A07     		lsls	r2, r3, #30
 1231 0034 ECD5     		bpl	.L76
 1232              		.loc 1 493 0 is_stmt 1
 1233 0036 1B09     		lsrs	r3, r3, #4
 1234              	.LVL53:
 1235 0038 07EE903A 		vmov	s15, r3	@ int
 1236 003c DFED2B6A 		vldr.32	s13, .L88+8
 1237 0040 9FED2B7A 		vldr.32	s14, .L88+12
 1238 0044 2B4B     		ldr	r3, .L88+16
 1239 0046 F8EE677A 		vcvt.f32.u32	s15, s15
 1240 004a 67EEA67A 		vmul.f32	s15, s15, s13
 1241 004e 67EE877A 		vmul.f32	s15, s15, s14
 1242 0052 C3ED007A 		vstr.32	s15, [r3]
 1243              	.LBE250:
 1244              		.loc 1 496 0
 1245 0056 DBE7     		b	.L76
 1246              	.LVL54:
 1247              	.L86:
 1248              	.LBB255:
 1249              	.LBB256:
 1250              		.loc 1 562 0
 1251 0058 234C     		ldr	r4, .L88+4
 1252 005a 4FF48075 		mov	r5, #256
 1253              	.LBE256:
 1254              	.LBE255:
ARM GAS  /tmp/ccACoy8P.s 			page 23


 1255              		.loc 1 458 0
 1256 005e 0DF10600 		add	r0, sp, #6
 1257              	.LBB258:
 1258              	.LBB257:
 1259              		.loc 1 562 0
 1260 0062 6583     		strh	r5, [r4, #26]	@ movhi
 1261              	.LBE257:
 1262              	.LBE258:
 1263              		.loc 1 458 0
 1264 0064 FFF7FEFF 		bl	spi_transfer.isra.0.constprop.1
 1265              	.LVL55:
 1266              	.LBB259:
 1267              	.LBB260:
 1268              		.loc 1 566 0
 1269 0068 2583     		strh	r5, [r4, #24]	@ movhi
 1270              	.LBE260:
 1271              	.LBE259:
 1272              		.loc 1 461 0
 1273 006a BDF80620 		ldrh	r2, [sp, #6]
 1274 006e 224B     		ldr	r3, .L88+20
 1275 0070 2249     		ldr	r1, .L88+24
 1276 0072 1A80     		strh	r2, [r3]	@ movhi
 1277              	.LVL56:
 1278              	.LBB261:
 1279              	.LBB262:
 1280              		.loc 1 443 0
 1281 0074 82EA1223 		eor	r3, r2, r2, lsr #8
 1282              	.LVL57:
 1283              		.loc 1 444 0
 1284 0078 83EA1313 		eor	r3, r3, r3, lsr #4
 1285              	.LVL58:
 1286              		.loc 1 445 0
 1287 007c 83EA9303 		eor	r3, r3, r3, lsr #2
 1288              	.LVL59:
 1289              		.loc 1 446 0
 1290 0080 83EA5303 		eor	r3, r3, r3, lsr #1
 1291              	.LBE262:
 1292              	.LBE261:
 1293              		.loc 1 462 0
 1294 0084 D807     		lsls	r0, r3, #31
 1295 0086 91ED007A 		vldr.32	s14, [r1]
 1296 008a 1BD4     		bmi	.L78
 1297              		.loc 1 462 0 is_stmt 0 discriminator 1
 1298 008c 4FF6FF73 		movw	r3, #65535
 1299 0090 9A42     		cmp	r2, r3
 1300 0092 17D0     		beq	.L78
 1301              	.LVL60:
 1302              		.loc 1 464 0 is_stmt 1
 1303 0094 C2F30D03 		ubfx	r3, r2, #0, #14
 1304 0098 07EE903A 		vmov	s15, r3	@ int
 1305 009c DFED135A 		vldr.32	s11, .L88+8
 1306              		.loc 1 465 0
 1307 00a0 9FED176A 		vldr.32	s12, .L88+28
 1308              		.loc 1 464 0
 1309 00a4 DFED176A 		vldr.32	s13, .L88+32
 1310 00a8 124B     		ldr	r3, .L88+16
 1311 00aa F8EE677A 		vcvt.f32.u32	s15, s15
ARM GAS  /tmp/ccACoy8P.s 			page 24


 1312              		.loc 1 465 0
 1313 00ae A7EE467A 		vfms.f32	s14, s14, s12
 1314              		.loc 1 464 0
 1315 00b2 67EEA57A 		vmul.f32	s15, s15, s11
 1316              		.loc 1 465 0
 1317 00b6 81ED007A 		vstr.32	s14, [r1]
 1318              		.loc 1 464 0
 1319 00ba 67EEA67A 		vmul.f32	s15, s15, s13
 1320 00be C3ED007A 		vstr.32	s15, [r3]
 1321              		.loc 1 465 0
 1322 00c2 A5E7     		b	.L76
 1323              	.LVL61:
 1324              	.L78:
 1325              		.loc 1 468 0
 1326 00c4 F7EE007A 		vmov.f32	s15, #1.0e+0
 1327 00c8 77EE677A 		vsub.f32	s15, s14, s15
 1328 00cc DFED0C6A 		vldr.32	s13, .L88+28
 1329              		.loc 1 467 0
 1330 00d0 0D4A     		ldr	r2, .L88+36
 1331              		.loc 1 468 0
 1332 00d2 A7EEE67A 		vfms.f32	s14, s15, s13
 1333              		.loc 1 467 0
 1334 00d6 1368     		ldr	r3, [r2]
 1335 00d8 0133     		adds	r3, r3, #1
 1336              		.loc 1 468 0
 1337 00da 81ED007A 		vstr.32	s14, [r1]
 1338              		.loc 1 467 0
 1339 00de 1360     		str	r3, [r2]
 1340              		.loc 1 496 0
 1341 00e0 03B0     		add	sp, sp, #12
 1342              		.cfi_def_cfa_offset 12
 1343              		@ sp needed
 1344 00e2 30BD     		pop	{r4, r5, pc}
 1345              	.L89:
 1346              		.align	2
 1347              	.L88:
 1348 00e4 00000000 		.word	.LANCHOR7
 1349 00e8 00080240 		.word	1073874944
 1350 00ec 0000B443 		.word	1135869952
 1351 00f0 00008039 		.word	964689920
 1352 00f4 00000000 		.word	.LANCHOR11
 1353 00f8 00000000 		.word	.LANCHOR1
 1354 00fc 00000000 		.word	.LANCHOR2
 1355 0100 17B75138 		.word	944879383
 1356 0104 00008038 		.word	947912704
 1357 0108 00000000 		.word	.LANCHOR0
 1358              		.cfi_endproc
 1359              	.LFE273:
 1360              		.size	encoder_tim_isr, .-encoder_tim_isr
 1361              		.section	.text.encoder_set_counts,"ax",%progbits
 1362              		.align	1
 1363              		.p2align 4,,15
 1364              		.global	encoder_set_counts
 1365              		.syntax unified
 1366              		.thumb
 1367              		.thumb_func
 1368              		.fpu fpv4-sp-d16
ARM GAS  /tmp/ccACoy8P.s 			page 25


 1369              		.type	encoder_set_counts, %function
 1370              	encoder_set_counts:
 1371              	.LFB274:
 1372              		.loc 1 504 0
 1373              		.cfi_startproc
 1374              		@ args = 0, pretend = 0, frame = 0
 1375              		@ frame_needed = 0, uses_anonymous_args = 0
 1376              	.LVL62:
 1377              		.loc 1 505 0
 1378 0000 074A     		ldr	r2, .L93
 1379              		.loc 1 504 0
 1380 0002 08B5     		push	{r3, lr}
 1381              		.cfi_def_cfa_offset 8
 1382              		.cfi_offset 3, -8
 1383              		.cfi_offset 14, -4
 1384              		.loc 1 505 0
 1385 0004 1368     		ldr	r3, [r2]
 1386 0006 8342     		cmp	r3, r0
 1387 0008 08D0     		beq	.L90
 1388 000a 0346     		mov	r3, r0
 1389              		.loc 1 507 0
 1390 000c 411E     		subs	r1, r0, #1
 1391 000e 0548     		ldr	r0, .L93+4
 1392              	.LVL63:
 1393              		.loc 1 506 0
 1394 0010 1360     		str	r3, [r2]
 1395              		.loc 1 507 0
 1396 0012 FFF7FEFF 		bl	TIM_SetAutoreload
 1397              	.LVL64:
 1398              		.loc 1 508 0
 1399 0016 044B     		ldr	r3, .L93+8
 1400 0018 0022     		movs	r2, #0
 1401 001a 1A70     		strb	r2, [r3]
 1402              	.L90:
 1403              		.loc 1 510 0
 1404 001c 08BD     		pop	{r3, pc}
 1405              	.L94:
 1406 001e 00BF     		.align	2
 1407              	.L93:
 1408 0020 00000000 		.word	.LANCHOR12
 1409 0024 00040040 		.word	1073742848
 1410 0028 00000000 		.word	.LANCHOR10
 1411              		.cfi_endproc
 1412              	.LFE274:
 1413              		.size	encoder_set_counts, .-encoder_set_counts
 1414              		.section	.text.encoder_index_found,"ax",%progbits
 1415              		.align	1
 1416              		.p2align 4,,15
 1417              		.global	encoder_index_found
 1418              		.syntax unified
 1419              		.thumb
 1420              		.thumb_func
 1421              		.fpu fpv4-sp-d16
 1422              		.type	encoder_index_found, %function
 1423              	encoder_index_found:
 1424              	.LFB275:
 1425              		.loc 1 518 0
ARM GAS  /tmp/ccACoy8P.s 			page 26


 1426              		.cfi_startproc
 1427              		@ args = 0, pretend = 0, frame = 0
 1428              		@ frame_needed = 0, uses_anonymous_args = 0
 1429              		@ link register save eliminated.
 1430              		.loc 1 519 0
 1431 0000 014B     		ldr	r3, .L96
 1432              		.loc 1 520 0
 1433 0002 1878     		ldrb	r0, [r3]	@ zero_extendqisi2
 1434 0004 7047     		bx	lr
 1435              	.L97:
 1436 0006 00BF     		.align	2
 1437              	.L96:
 1438 0008 00000000 		.word	.LANCHOR10
 1439              		.cfi_endproc
 1440              	.LFE275:
 1441              		.size	encoder_index_found, .-encoder_index_found
 1442              		.section	.text.TS5700N8501_delay_uart,"ax",%progbits
 1443              		.align	1
 1444              		.p2align 4
 1445              		.global	TS5700N8501_delay_uart
 1446              		.syntax unified
 1447              		.thumb
 1448              		.thumb_func
 1449              		.fpu fpv4-sp-d16
 1450              		.type	TS5700N8501_delay_uart, %function
 1451              	TS5700N8501_delay_uart:
 1452              	.LFB280:
 1453              		.loc 1 579 0
 1454              		.cfi_startproc
 1455              		@ args = 0, pretend = 0, frame = 0
 1456              		@ frame_needed = 1, uses_anonymous_args = 0
 1457              		@ link register save eliminated.
 1458 0000 80B4     		push	{r7}
 1459              		.cfi_def_cfa_offset 4
 1460              		.cfi_offset 7, -4
 1461 0002 00AF     		add	r7, sp, #0
 1462              		.cfi_def_cfa_register 7
 1463              	.LBB263:
 1464              	.LBB264:
 1465              		.loc 2 327 0
 1466              		.syntax unified
 1467              	@ 327 "ChibiOS_3.0.2/os/ext/CMSIS/include/core_cmInstr.h" 1
 1468 0004 00BF     		nop
 1469              	@ 0 "" 2
 1470              		.thumb
 1471              		.syntax unified
 1472              	.LBE264:
 1473              	.LBE263:
 1474              	.LBB265:
 1475              	.LBB266:
 1476              		.syntax unified
 1477              	@ 327 "ChibiOS_3.0.2/os/ext/CMSIS/include/core_cmInstr.h" 1
 1478 0006 00BF     		nop
 1479              	@ 0 "" 2
 1480              		.thumb
 1481              		.syntax unified
 1482              	.LBE266:
ARM GAS  /tmp/ccACoy8P.s 			page 27


 1483              	.LBE265:
 1484              	.LBB267:
 1485              	.LBB268:
 1486              		.syntax unified
 1487              	@ 327 "ChibiOS_3.0.2/os/ext/CMSIS/include/core_cmInstr.h" 1
 1488 0008 00BF     		nop
 1489              	@ 0 "" 2
 1490              		.thumb
 1491              		.syntax unified
 1492              	.LBE268:
 1493              	.LBE267:
 1494              	.LBB269:
 1495              	.LBB270:
 1496              		.syntax unified
 1497              	@ 327 "ChibiOS_3.0.2/os/ext/CMSIS/include/core_cmInstr.h" 1
 1498 000a 00BF     		nop
 1499              	@ 0 "" 2
 1500              		.thumb
 1501              		.syntax unified
 1502              	.LBE270:
 1503              	.LBE269:
 1504              	.LBB271:
 1505              	.LBB272:
 1506              		.syntax unified
 1507              	@ 327 "ChibiOS_3.0.2/os/ext/CMSIS/include/core_cmInstr.h" 1
 1508 000c 00BF     		nop
 1509              	@ 0 "" 2
 1510              		.thumb
 1511              		.syntax unified
 1512              	.LBE272:
 1513              	.LBE271:
 1514              	.LBB273:
 1515              	.LBB274:
 1516              		.syntax unified
 1517              	@ 327 "ChibiOS_3.0.2/os/ext/CMSIS/include/core_cmInstr.h" 1
 1518 000e 00BF     		nop
 1519              	@ 0 "" 2
 1520              		.thumb
 1521              		.syntax unified
 1522              	.LBE274:
 1523              	.LBE273:
 1524              	.LBB275:
 1525              	.LBB276:
 1526              		.syntax unified
 1527              	@ 327 "ChibiOS_3.0.2/os/ext/CMSIS/include/core_cmInstr.h" 1
 1528 0010 00BF     		nop
 1529              	@ 0 "" 2
 1530              		.thumb
 1531              		.syntax unified
 1532              	.LBE276:
 1533              	.LBE275:
 1534              	.LBB277:
 1535              	.LBB278:
 1536              		.syntax unified
 1537              	@ 327 "ChibiOS_3.0.2/os/ext/CMSIS/include/core_cmInstr.h" 1
 1538 0012 00BF     		nop
 1539              	@ 0 "" 2
ARM GAS  /tmp/ccACoy8P.s 			page 28


 1540              		.thumb
 1541              		.syntax unified
 1542              	.LBE278:
 1543              	.LBE277:
 1544              	.LBB279:
 1545              	.LBB280:
 1546              		.syntax unified
 1547              	@ 327 "ChibiOS_3.0.2/os/ext/CMSIS/include/core_cmInstr.h" 1
 1548 0014 00BF     		nop
 1549              	@ 0 "" 2
 1550              		.thumb
 1551              		.syntax unified
 1552              	.LBE280:
 1553              	.LBE279:
 1554              	.LBB281:
 1555              	.LBB282:
 1556              		.syntax unified
 1557              	@ 327 "ChibiOS_3.0.2/os/ext/CMSIS/include/core_cmInstr.h" 1
 1558 0016 00BF     		nop
 1559              	@ 0 "" 2
 1560              		.thumb
 1561              		.syntax unified
 1562              	.LBE282:
 1563              	.LBE281:
 1564              	.LBB283:
 1565              	.LBB284:
 1566              		.syntax unified
 1567              	@ 327 "ChibiOS_3.0.2/os/ext/CMSIS/include/core_cmInstr.h" 1
 1568 0018 00BF     		nop
 1569              	@ 0 "" 2
 1570              		.thumb
 1571              		.syntax unified
 1572              	.LBE284:
 1573              	.LBE283:
 1574              	.LBB285:
 1575              	.LBB286:
 1576              		.syntax unified
 1577              	@ 327 "ChibiOS_3.0.2/os/ext/CMSIS/include/core_cmInstr.h" 1
 1578 001a 00BF     		nop
 1579              	@ 0 "" 2
 1580              		.thumb
 1581              		.syntax unified
 1582              	.LBE286:
 1583              	.LBE285:
 1584              	.LBB287:
 1585              	.LBB288:
 1586              		.syntax unified
 1587              	@ 327 "ChibiOS_3.0.2/os/ext/CMSIS/include/core_cmInstr.h" 1
 1588 001c 00BF     		nop
 1589              	@ 0 "" 2
 1590              		.thumb
 1591              		.syntax unified
 1592              	.LBE288:
 1593              	.LBE287:
 1594              	.LBB289:
 1595              	.LBB290:
 1596              		.syntax unified
ARM GAS  /tmp/ccACoy8P.s 			page 29


 1597              	@ 327 "ChibiOS_3.0.2/os/ext/CMSIS/include/core_cmInstr.h" 1
 1598 001e 00BF     		nop
 1599              	@ 0 "" 2
 1600              		.thumb
 1601              		.syntax unified
 1602              	.LBE290:
 1603              	.LBE289:
 1604              	.LBB291:
 1605              	.LBB292:
 1606              		.syntax unified
 1607              	@ 327 "ChibiOS_3.0.2/os/ext/CMSIS/include/core_cmInstr.h" 1
 1608 0020 00BF     		nop
 1609              	@ 0 "" 2
 1610              		.thumb
 1611              		.syntax unified
 1612              	.LBE292:
 1613              	.LBE291:
 1614              	.LBB293:
 1615              	.LBB294:
 1616              		.syntax unified
 1617              	@ 327 "ChibiOS_3.0.2/os/ext/CMSIS/include/core_cmInstr.h" 1
 1618 0022 00BF     		nop
 1619              	@ 0 "" 2
 1620              		.thumb
 1621              		.syntax unified
 1622              	.LBE294:
 1623              	.LBE293:
 1624              	.LBB295:
 1625              	.LBB296:
 1626              		.syntax unified
 1627              	@ 327 "ChibiOS_3.0.2/os/ext/CMSIS/include/core_cmInstr.h" 1
 1628 0024 00BF     		nop
 1629              	@ 0 "" 2
 1630              		.thumb
 1631              		.syntax unified
 1632              	.LBE296:
 1633              	.LBE295:
 1634              		.loc 1 586 0
 1635 0026 00BF     		nop
 1636 0028 BD46     		mov	sp, r7
 1637              		.cfi_def_cfa_register 13
 1638              		@ sp needed
 1639 002a 5DF8047B 		ldr	r7, [sp], #4
 1640              		.cfi_restore 7
 1641              		.cfi_def_cfa_offset 0
 1642 002e 7047     		bx	lr
 1643              		.cfi_endproc
 1644              	.LFE280:
 1645              		.size	TS5700N8501_delay_uart, .-TS5700N8501_delay_uart
 1646              		.section	.text.TS5700N8501_send_byte,"ax",%progbits
 1647              		.align	1
 1648              		.p2align 4
 1649              		.global	TS5700N8501_send_byte
 1650              		.syntax unified
 1651              		.thumb
 1652              		.thumb_func
 1653              		.fpu fpv4-sp-d16
ARM GAS  /tmp/ccACoy8P.s 			page 30


 1654              		.type	TS5700N8501_send_byte, %function
 1655              	TS5700N8501_send_byte:
 1656              	.LFB281:
 1657              		.loc 1 595 0
 1658              		.cfi_startproc
 1659              		@ args = 0, pretend = 0, frame = 16
 1660              		@ frame_needed = 1, uses_anonymous_args = 0
 1661              	.LVL65:
 1662 0000 80B5     		push	{r7, lr}
 1663              		.cfi_def_cfa_offset 8
 1664              		.cfi_offset 7, -8
 1665              		.cfi_offset 14, -4
 1666 0002 84B0     		sub	sp, sp, #16
 1667              		.cfi_def_cfa_offset 24
 1668 0004 00AF     		add	r7, sp, #0
 1669              		.cfi_def_cfa_register 7
 1670 0006 0346     		mov	r3, r0
 1671 0008 FB71     		strb	r3, [r7, #7]
 1672              		.loc 1 596 0
 1673 000a FFF7FEFF 		bl	utils_sys_lock_cnt
 1674              	.LVL66:
 1675              		.loc 1 600 0
 1676 000e FFF7FEFF 		bl	TS5700N8501_delay_uart
 1677              	.LVL67:
 1678              		.loc 1 601 0
 1679 0012 2B4B     		ldr	r3, .L106
 1680 0014 4FF08062 		mov	r2, #67108864
 1681 0018 9A61     		str	r2, [r3, #24]
 1682              	.LBB297:
 1683              	.LBB298:
 1684              		.loc 2 327 0
 1685              		.syntax unified
 1686              	@ 327 "ChibiOS_3.0.2/os/ext/CMSIS/include/core_cmInstr.h" 1
 1687 001a 00BF     		nop
 1688              	@ 0 "" 2
 1689              		.thumb
 1690              		.syntax unified
 1691              	.LBE298:
 1692              	.LBE297:
 1693              	.LBB299:
 1694              	.LBB300:
 1695              		.syntax unified
 1696              	@ 327 "ChibiOS_3.0.2/os/ext/CMSIS/include/core_cmInstr.h" 1
 1697 001c 00BF     		nop
 1698              	@ 0 "" 2
 1699              		.thumb
 1700              		.syntax unified
 1701              	.LBE300:
 1702              	.LBE299:
 1703              	.LBB301:
 1704              	.LBB302:
 1705              		.syntax unified
 1706              	@ 327 "ChibiOS_3.0.2/os/ext/CMSIS/include/core_cmInstr.h" 1
 1707 001e 00BF     		nop
 1708              	@ 0 "" 2
 1709              		.thumb
 1710              		.syntax unified
ARM GAS  /tmp/ccACoy8P.s 			page 31


 1711              	.LBE302:
 1712              	.LBE301:
 1713              	.LBB303:
 1714              	.LBB304:
 1715              		.syntax unified
 1716              	@ 327 "ChibiOS_3.0.2/os/ext/CMSIS/include/core_cmInstr.h" 1
 1717 0020 00BF     		nop
 1718              	@ 0 "" 2
 1719              		.thumb
 1720              		.syntax unified
 1721              	.LBE304:
 1722              	.LBE303:
 1723              	.LBB305:
 1724              	.LBB306:
 1725              		.syntax unified
 1726              	@ 327 "ChibiOS_3.0.2/os/ext/CMSIS/include/core_cmInstr.h" 1
 1727 0022 00BF     		nop
 1728              	@ 0 "" 2
 1729              		.thumb
 1730              		.syntax unified
 1731              	.LBE306:
 1732              	.LBE305:
 1733              	.LBB307:
 1734              	.LBB308:
 1735              		.syntax unified
 1736              	@ 327 "ChibiOS_3.0.2/os/ext/CMSIS/include/core_cmInstr.h" 1
 1737 0024 00BF     		nop
 1738              	@ 0 "" 2
 1739              		.thumb
 1740              		.syntax unified
 1741              	.LBE308:
 1742              	.LBE307:
 1743              	.LBB309:
 1744              	.LBB310:
 1745              		.syntax unified
 1746              	@ 327 "ChibiOS_3.0.2/os/ext/CMSIS/include/core_cmInstr.h" 1
 1747 0026 00BF     		nop
 1748              	@ 0 "" 2
 1749              		.thumb
 1750              		.syntax unified
 1751              	.LBE310:
 1752              	.LBE309:
 1753              	.LBB311:
 1754              	.LBB312:
 1755              		.syntax unified
 1756              	@ 327 "ChibiOS_3.0.2/os/ext/CMSIS/include/core_cmInstr.h" 1
 1757 0028 00BF     		nop
 1758              	@ 0 "" 2
 1759              		.thumb
 1760              		.syntax unified
 1761              	.LBE312:
 1762              	.LBE311:
 1763              	.LBB313:
 1764              	.LBB314:
 1765              		.syntax unified
 1766              	@ 327 "ChibiOS_3.0.2/os/ext/CMSIS/include/core_cmInstr.h" 1
 1767 002a 00BF     		nop
ARM GAS  /tmp/ccACoy8P.s 			page 32


 1768              	@ 0 "" 2
 1769              		.thumb
 1770              		.syntax unified
 1771              	.LBE314:
 1772              	.LBE313:
 1773              	.LBB315:
 1774              	.LBB316:
 1775              		.syntax unified
 1776              	@ 327 "ChibiOS_3.0.2/os/ext/CMSIS/include/core_cmInstr.h" 1
 1777 002c 00BF     		nop
 1778              	@ 0 "" 2
 1779              		.thumb
 1780              		.syntax unified
 1781              	.LBE316:
 1782              	.LBE315:
 1783              	.LBB317:
 1784              	.LBB318:
 1785              		.syntax unified
 1786              	@ 327 "ChibiOS_3.0.2/os/ext/CMSIS/include/core_cmInstr.h" 1
 1787 002e 00BF     		nop
 1788              	@ 0 "" 2
 1789              		.thumb
 1790              		.syntax unified
 1791              	.LBE318:
 1792              	.LBE317:
 1793              	.LBB319:
 1794              	.LBB320:
 1795              		.syntax unified
 1796              	@ 327 "ChibiOS_3.0.2/os/ext/CMSIS/include/core_cmInstr.h" 1
 1797 0030 00BF     		nop
 1798              	@ 0 "" 2
 1799              		.thumb
 1800              		.syntax unified
 1801              	.LBE320:
 1802              	.LBE319:
 1803              	.LBB321:
 1804              	.LBB322:
 1805              		.syntax unified
 1806              	@ 327 "ChibiOS_3.0.2/os/ext/CMSIS/include/core_cmInstr.h" 1
 1807 0032 00BF     		nop
 1808              	@ 0 "" 2
 1809              		.thumb
 1810              		.syntax unified
 1811              	.LBE322:
 1812              	.LBE321:
 1813              	.LBB323:
 1814              	.LBB324:
 1815              		.syntax unified
 1816              	@ 327 "ChibiOS_3.0.2/os/ext/CMSIS/include/core_cmInstr.h" 1
 1817 0034 00BF     		nop
 1818              	@ 0 "" 2
 1819              		.thumb
 1820              		.syntax unified
 1821              	.LBE324:
 1822              	.LBE323:
 1823              	.LBB325:
 1824              	.LBB326:
ARM GAS  /tmp/ccACoy8P.s 			page 33


 1825              		.syntax unified
 1826              	@ 327 "ChibiOS_3.0.2/os/ext/CMSIS/include/core_cmInstr.h" 1
 1827 0036 00BF     		nop
 1828              	@ 0 "" 2
 1829              		.thumb
 1830              		.syntax unified
 1831              	.LBE326:
 1832              	.LBE325:
 1833              	.LBB327:
 1834              		.loc 1 607 0
 1835 0038 0023     		movs	r3, #0
 1836 003a FB60     		str	r3, [r7, #12]
 1837              	.LVL68:
 1838 003c 1FE0     		b	.L100
 1839              	.L105:
 1840              		.loc 1 608 0
 1841 003e FA79     		ldrb	r2, [r7, #7]	@ zero_extendqisi2
 1842 0040 8021     		movs	r1, #128
 1843 0042 FB68     		ldr	r3, [r7, #12]
 1844              	.LVL69:
 1845 0044 41FA03F3 		asr	r3, r1, r3
 1846 0048 1340     		ands	r3, r3, r2
 1847 004a 002B     		cmp	r3, #0
 1848 004c 02D1     		bne	.L101
 1849              		.loc 1 608 0 is_stmt 0 discriminator 1
 1850 004e 4FF08062 		mov	r2, #67108864
 1851 0052 00E0     		b	.L102
 1852              	.L101:
 1853              		.loc 1 608 0 discriminator 2
 1854 0054 0022     		movs	r2, #0
 1855              	.L102:
 1856              		.loc 1 608 0 discriminator 4
 1857 0056 F979     		ldrb	r1, [r7, #7]	@ zero_extendqisi2
 1858 0058 8020     		movs	r0, #128
 1859 005a FB68     		ldr	r3, [r7, #12]
 1860 005c 40FA03F3 		asr	r3, r0, r3
 1861 0060 0B40     		ands	r3, r3, r1
 1862 0062 002B     		cmp	r3, #0
 1863 0064 02D0     		beq	.L103
 1864              		.loc 1 608 0 discriminator 5
 1865 0066 4FF48063 		mov	r3, #1024
 1866 006a 00E0     		b	.L104
 1867              	.L103:
 1868              		.loc 1 608 0 discriminator 6
 1869 006c 0023     		movs	r3, #0
 1870              	.L104:
 1871              		.loc 1 608 0 discriminator 8
 1872 006e 1449     		ldr	r1, .L106
 1873 0070 1343     		orrs	r3, r3, r2
 1874 0072 8B61     		str	r3, [r1, #24]
 1875              		.loc 1 610 0 is_stmt 1 discriminator 8
 1876 0074 FFF7FEFF 		bl	TS5700N8501_delay_uart
 1877              	.LVL70:
 1878              		.loc 1 607 0 discriminator 8
 1879 0078 FB68     		ldr	r3, [r7, #12]
 1880 007a 0133     		adds	r3, r3, #1
 1881 007c FB60     		str	r3, [r7, #12]
ARM GAS  /tmp/ccACoy8P.s 			page 34


 1882              	.LVL71:
 1883              	.L100:
 1884              		.loc 1 607 0 is_stmt 0 discriminator 2
 1885 007e FB68     		ldr	r3, [r7, #12]
 1886 0080 072B     		cmp	r3, #7
 1887 0082 DCDD     		ble	.L105
 1888              	.LBE327:
 1889              	.LBB328:
 1890              	.LBB329:
 1891              		.loc 2 327 0 is_stmt 1
 1892              		.syntax unified
 1893              	@ 327 "ChibiOS_3.0.2/os/ext/CMSIS/include/core_cmInstr.h" 1
 1894 0084 00BF     		nop
 1895              	@ 0 "" 2
 1896              		.thumb
 1897              		.syntax unified
 1898              	.LBE329:
 1899              	.LBE328:
 1900              	.LBB330:
 1901              	.LBB331:
 1902              		.syntax unified
 1903              	@ 327 "ChibiOS_3.0.2/os/ext/CMSIS/include/core_cmInstr.h" 1
 1904 0086 00BF     		nop
 1905              	@ 0 "" 2
 1906              		.thumb
 1907              		.syntax unified
 1908              	.LBE331:
 1909              	.LBE330:
 1910              	.LBB332:
 1911              	.LBB333:
 1912              		.syntax unified
 1913              	@ 327 "ChibiOS_3.0.2/os/ext/CMSIS/include/core_cmInstr.h" 1
 1914 0088 00BF     		nop
 1915              	@ 0 "" 2
 1916              		.thumb
 1917              		.syntax unified
 1918              	.LBE333:
 1919              	.LBE332:
 1920              	.LBB334:
 1921              	.LBB335:
 1922              		.syntax unified
 1923              	@ 327 "ChibiOS_3.0.2/os/ext/CMSIS/include/core_cmInstr.h" 1
 1924 008a 00BF     		nop
 1925              	@ 0 "" 2
 1926              		.thumb
 1927              		.syntax unified
 1928              	.LBE335:
 1929              	.LBE334:
 1930              	.LBB336:
 1931              	.LBB337:
 1932              		.syntax unified
 1933              	@ 327 "ChibiOS_3.0.2/os/ext/CMSIS/include/core_cmInstr.h" 1
 1934 008c 00BF     		nop
 1935              	@ 0 "" 2
 1936              		.thumb
 1937              		.syntax unified
 1938              	.LBE337:
ARM GAS  /tmp/ccACoy8P.s 			page 35


 1939              	.LBE336:
 1940              	.LBB338:
 1941              	.LBB339:
 1942              		.syntax unified
 1943              	@ 327 "ChibiOS_3.0.2/os/ext/CMSIS/include/core_cmInstr.h" 1
 1944 008e 00BF     		nop
 1945              	@ 0 "" 2
 1946              		.thumb
 1947              		.syntax unified
 1948              	.LBE339:
 1949              	.LBE338:
 1950              	.LBB340:
 1951              	.LBB341:
 1952              		.syntax unified
 1953              	@ 327 "ChibiOS_3.0.2/os/ext/CMSIS/include/core_cmInstr.h" 1
 1954 0090 00BF     		nop
 1955              	@ 0 "" 2
 1956              		.thumb
 1957              		.syntax unified
 1958              	.LBE341:
 1959              	.LBE340:
 1960              	.LBB342:
 1961              	.LBB343:
 1962              		.syntax unified
 1963              	@ 327 "ChibiOS_3.0.2/os/ext/CMSIS/include/core_cmInstr.h" 1
 1964 0092 00BF     		nop
 1965              	@ 0 "" 2
 1966              		.thumb
 1967              		.syntax unified
 1968              	.LBE343:
 1969              	.LBE342:
 1970              	.LBB344:
 1971              	.LBB345:
 1972              		.syntax unified
 1973              	@ 327 "ChibiOS_3.0.2/os/ext/CMSIS/include/core_cmInstr.h" 1
 1974 0094 00BF     		nop
 1975              	@ 0 "" 2
 1976              		.thumb
 1977              		.syntax unified
 1978              	.LBE345:
 1979              	.LBE344:
 1980              	.LBB346:
 1981              	.LBB347:
 1982              		.syntax unified
 1983              	@ 327 "ChibiOS_3.0.2/os/ext/CMSIS/include/core_cmInstr.h" 1
 1984 0096 00BF     		nop
 1985              	@ 0 "" 2
 1986              		.thumb
 1987              		.syntax unified
 1988              	.LBE347:
 1989              	.LBE346:
 1990              	.LBB348:
 1991              	.LBB349:
 1992              		.syntax unified
 1993              	@ 327 "ChibiOS_3.0.2/os/ext/CMSIS/include/core_cmInstr.h" 1
 1994 0098 00BF     		nop
 1995              	@ 0 "" 2
ARM GAS  /tmp/ccACoy8P.s 			page 36


 1996              		.thumb
 1997              		.syntax unified
 1998              	.LBE349:
 1999              	.LBE348:
 2000              	.LBB350:
 2001              	.LBB351:
 2002              		.syntax unified
 2003              	@ 327 "ChibiOS_3.0.2/os/ext/CMSIS/include/core_cmInstr.h" 1
 2004 009a 00BF     		nop
 2005              	@ 0 "" 2
 2006              		.thumb
 2007              		.syntax unified
 2008              	.LBE351:
 2009              	.LBE350:
 2010              	.LBB352:
 2011              	.LBB353:
 2012              		.syntax unified
 2013              	@ 327 "ChibiOS_3.0.2/os/ext/CMSIS/include/core_cmInstr.h" 1
 2014 009c 00BF     		nop
 2015              	@ 0 "" 2
 2016              		.thumb
 2017              		.syntax unified
 2018              	.LBE353:
 2019              	.LBE352:
 2020              	.LBB354:
 2021              	.LBB355:
 2022              		.syntax unified
 2023              	@ 327 "ChibiOS_3.0.2/os/ext/CMSIS/include/core_cmInstr.h" 1
 2024 009e 00BF     		nop
 2025              	@ 0 "" 2
 2026              		.thumb
 2027              		.syntax unified
 2028              	.LBE355:
 2029              	.LBE354:
 2030              	.LBB356:
 2031              	.LBB357:
 2032              		.syntax unified
 2033              	@ 327 "ChibiOS_3.0.2/os/ext/CMSIS/include/core_cmInstr.h" 1
 2034 00a0 00BF     		nop
 2035              	@ 0 "" 2
 2036              		.thumb
 2037              		.syntax unified
 2038              	.LBE357:
 2039              	.LBE356:
 2040              	.LBB358:
 2041              	.LBB359:
 2042              		.syntax unified
 2043              	@ 327 "ChibiOS_3.0.2/os/ext/CMSIS/include/core_cmInstr.h" 1
 2044 00a2 00BF     		nop
 2045              	@ 0 "" 2
 2046              		.thumb
 2047              		.syntax unified
 2048              	.LBE359:
 2049              	.LBE358:
 2050              	.LBB360:
 2051              	.LBB361:
 2052              		.syntax unified
ARM GAS  /tmp/ccACoy8P.s 			page 37


 2053              	@ 327 "ChibiOS_3.0.2/os/ext/CMSIS/include/core_cmInstr.h" 1
 2054 00a4 00BF     		nop
 2055              	@ 0 "" 2
 2056              		.thumb
 2057              		.syntax unified
 2058              	.LBE361:
 2059              	.LBE360:
 2060              	.LBB362:
 2061              	.LBB363:
 2062              		.syntax unified
 2063              	@ 327 "ChibiOS_3.0.2/os/ext/CMSIS/include/core_cmInstr.h" 1
 2064 00a6 00BF     		nop
 2065              	@ 0 "" 2
 2066              		.thumb
 2067              		.syntax unified
 2068              	.LBE363:
 2069              	.LBE362:
 2070              		.loc 1 618 0
 2071 00a8 054B     		ldr	r3, .L106
 2072 00aa 4FF48062 		mov	r2, #1024
 2073 00ae 9A61     		str	r2, [r3, #24]
 2074              		.loc 1 619 0
 2075 00b0 FFF7FEFF 		bl	TS5700N8501_delay_uart
 2076              	.LVL72:
 2077              		.loc 1 623 0
 2078 00b4 FFF7FEFF 		bl	utils_sys_unlock_cnt
 2079              	.LVL73:
 2080              		.loc 1 624 0
 2081 00b8 00BF     		nop
 2082 00ba 1037     		adds	r7, r7, #16
 2083              		.cfi_def_cfa_offset 8
 2084 00bc BD46     		mov	sp, r7
 2085              		.cfi_def_cfa_register 13
 2086              	.LVL74:
 2087              		@ sp needed
 2088 00be 80BD     		pop	{r7, pc}
 2089              	.L107:
 2090              		.align	2
 2091              	.L106:
 2092 00c0 00040240 		.word	1073873920
 2093              		.cfi_endproc
 2094              	.LFE281:
 2095              		.size	TS5700N8501_send_byte, .-TS5700N8501_send_byte
 2096              		.section	.text.ts5700n8501_thread,"ax",%progbits
 2097              		.align	1
 2098              		.p2align 4,,15
 2099              		.syntax unified
 2100              		.thumb
 2101              		.thumb_func
 2102              		.fpu fpv4-sp-d16
 2103              		.type	ts5700n8501_thread, %function
 2104              	ts5700n8501_thread:
 2105              	.LFB282:
 2106              		.loc 1 628 0
 2107              		.cfi_startproc
 2108              		@ args = 0, pretend = 0, frame = 8
 2109              		@ frame_needed = 0, uses_anonymous_args = 0
ARM GAS  /tmp/ccACoy8P.s 			page 38


 2110              	.LVL75:
 2111 0000 F0B5     		push	{r4, r5, r6, r7, lr}
 2112              		.cfi_def_cfa_offset 20
 2113              		.cfi_offset 4, -20
 2114              		.cfi_offset 5, -16
 2115              		.cfi_offset 6, -12
 2116              		.cfi_offset 7, -8
 2117              		.cfi_offset 14, -4
 2118              	.LBB364:
 2119              	.LBB365:
 2120              		.file 3 "ChibiOS_3.0.2/os/rt/include/chregistry.h"
 2121              		.loc 3 135 0
 2122 0002 454B     		ldr	r3, .L125
 2123 0004 454A     		ldr	r2, .L125+4
 2124 0006 9B69     		ldr	r3, [r3, #24]
 2125              	.LBE365:
 2126              	.LBE364:
 2127              		.loc 1 633 0
 2128 0008 4549     		ldr	r1, .L125+8
 2129 000a 4648     		ldr	r0, .L125+12
 2130              	.LVL76:
 2131              	.LBB367:
 2132              		.loc 1 648 0
 2133 000c 464E     		ldr	r6, .L125+16
 2134              	.LBE367:
 2135              		.loc 1 628 0
 2136 000e 2DED048B 		vpush.64	{d8, d9}
 2137              		.cfi_def_cfa_offset 36
 2138              		.cfi_offset 80, -36
 2139              		.cfi_offset 81, -32
 2140              		.cfi_offset 82, -28
 2141              		.cfi_offset 83, -24
 2142              	.LBB371:
 2143              	.LBB366:
 2144              		.loc 3 135 0
 2145 0012 9A61     		str	r2, [r3, #24]
 2146              	.LVL77:
 2147              	.LBE366:
 2148              	.LBE371:
 2149              		.loc 1 628 0
 2150 0014 83B0     		sub	sp, sp, #12
 2151              		.cfi_def_cfa_offset 48
 2152              		.loc 1 633 0
 2153 0016 FFF7FEFF 		bl	sdStart
 2154              	.LVL78:
 2155              		.loc 1 634 0
 2156 001a 3922     		movs	r2, #57
 2157 001c 4FF48061 		mov	r1, #1024
 2158 0020 4248     		ldr	r0, .L125+20
 2159 0022 FFF7FEFF 		bl	_pal_lld_setgroupmode
 2160              	.LVL79:
 2161              		.loc 1 637 0
 2162 0026 40F2BA32 		movw	r2, #954
 2163 002a 4FF40061 		mov	r1, #2048
 2164 002e 3F48     		ldr	r0, .L125+20
 2165 0030 FFF7FEFF 		bl	_pal_lld_setgroupmode
 2166              	.LVL80:
ARM GAS  /tmp/ccACoy8P.s 			page 39


 2167              	.LBB372:
 2168              		.loc 1 648 0
 2169 0034 3378     		ldrb	r3, [r6]	@ zero_extendqisi2
 2170 0036 002B     		cmp	r3, #0
 2171 0038 44D1     		bne	.L117
 2172 003a 3D4D     		ldr	r5, .L125+24
 2173              		.loc 1 679 0
 2174 003c 9FED3D8A 		vldr.32	s16, .L125+28
 2175              	.LBB368:
 2176              		.loc 1 675 0
 2177 0040 9FED3D9A 		vldr.32	s18, .L125+32
 2178 0044 DFED3D8A 		vldr.32	s17, .L125+36
 2179              	.L109:
 2180              	.LBE368:
 2181              		.loc 1 653 0
 2182 0048 4020     		movs	r0, #64
 2183 004a FFF7FEFF 		bl	TS5700N8501_send_byte
 2184              	.LVL81:
 2185              		.loc 1 655 0
 2186 004e 0120     		movs	r0, #1
 2187 0050 FFF7FEFF 		bl	chThdSleep
 2188              	.LVL82:
 2189              		.loc 1 660 0
 2190 0054 0021     		movs	r1, #0
 2191 0056 3A48     		ldr	r0, .L125+40
 2192 0058 FFF7FEFF 		bl	chIQGetTimeout
 2193              	.LVL83:
 2194              		.loc 1 661 0
 2195 005c 411C     		adds	r1, r0, #1
 2196              		.loc 1 660 0
 2197 005e 0346     		mov	r3, r0
 2198              	.LVL84:
 2199              		.loc 1 661 0
 2200 0060 55D0     		beq	.L110
 2201              		.loc 1 665 0
 2202 0062 374F     		ldr	r7, .L125+40
 2203              		.loc 1 658 0
 2204 0064 0024     		movs	r4, #0
 2205              	.LVL85:
 2206              	.L112:
 2207              		.loc 1 662 0
 2208 0066 052C     		cmp	r4, #5
 2209              		.loc 1 665 0
 2210 0068 4FF00001 		mov	r1, #0
 2211 006c 3846     		mov	r0, r7
 2212              	.LVL86:
 2213              		.loc 1 662 0
 2214 006e 04DC     		bgt	.L111
 2215              		.loc 1 663 0
 2216 0070 02AA     		add	r2, sp, #8
 2217 0072 2244     		add	r2, r2, r4
 2218 0074 0134     		adds	r4, r4, #1
 2219              	.LVL87:
 2220 0076 02F8083C 		strb	r3, [r2, #-8]
 2221              	.LVL88:
 2222              	.L111:
 2223              		.loc 1 665 0
ARM GAS  /tmp/ccACoy8P.s 			page 40


 2224 007a FFF7FEFF 		bl	chIQGetTimeout
 2225              	.LVL89:
 2226              		.loc 1 661 0
 2227 007e 421C     		adds	r2, r0, #1
 2228              		.loc 1 665 0
 2229 0080 0346     		mov	r3, r0
 2230              	.LVL90:
 2231              		.loc 1 661 0
 2232 0082 F0D1     		bne	.L112
 2233              	.LVL91:
 2234              	.LBB369:
 2235              		.loc 1 669 0
 2236 0084 012C     		cmp	r4, #1
 2237 0086 45D0     		beq	.L118
 2238 0088 0DF1FF33 		add	r3, sp, #-1
 2239 008c 1819     		adds	r0, r3, r4
 2240              	.LVL92:
 2241 008e 0022     		movs	r2, #0
 2242              	.LVL93:
 2243 0090 6B46     		mov	r3, sp
 2244              	.LVL94:
 2245              	.L114:
 2246              		.loc 1 670 0 discriminator 3
 2247 0092 13F8011B 		ldrb	r1, [r3], #1	@ zero_extendqisi2
 2248              	.LVL95:
 2249              		.loc 1 669 0 discriminator 3
 2250 0096 9842     		cmp	r0, r3
 2251              		.loc 1 670 0 discriminator 3
 2252 0098 82EA0102 		eor	r2, r2, r1
 2253              	.LVL96:
 2254              		.loc 1 669 0 discriminator 3
 2255 009c F9D1     		bne	.L114
 2256              	.LVL97:
 2257              	.L113:
 2258              	.LBE369:
 2259              		.loc 1 673 0
 2260 009e 062C     		cmp	r4, #6
 2261 00a0 D5ED007A 		vldr.32	s15, [r5]
 2262 00a4 15D0     		beq	.L124
 2263              	.LVL98:
 2264              	.L115:
 2265              		.loc 1 679 0
 2266 00a6 B7EE007A 		vmov.f32	s14, #1.0e+0
 2267 00aa 37EEC77A 		vsub.f32	s14, s15, s14
 2268              		.loc 1 678 0
 2269 00ae 254A     		ldr	r2, .L125+44
 2270              		.loc 1 679 0
 2271 00b0 E7EE487A 		vfms.f32	s15, s14, s16
 2272              		.loc 1 678 0
 2273 00b4 1368     		ldr	r3, [r2]
 2274 00b6 0133     		adds	r3, r3, #1
 2275 00b8 1360     		str	r3, [r2]
 2276              		.loc 1 679 0
 2277 00ba C5ED007A 		vstr.32	s15, [r5]
 2278              	.L116:
 2279              		.loc 1 648 0
 2280 00be 3378     		ldrb	r3, [r6]	@ zero_extendqisi2
ARM GAS  /tmp/ccACoy8P.s 			page 41


 2281 00c0 002B     		cmp	r3, #0
 2282 00c2 C1D0     		beq	.L109
 2283              	.L117:
 2284              		.loc 1 649 0
 2285 00c4 204B     		ldr	r3, .L125+48
 2286 00c6 0022     		movs	r2, #0
 2287 00c8 1A70     		strb	r2, [r3]
 2288              	.LBE372:
 2289              		.loc 1 682 0
 2290 00ca 03B0     		add	sp, sp, #12
 2291              		.cfi_remember_state
 2292              		.cfi_def_cfa_offset 36
 2293              		@ sp needed
 2294 00cc BDEC048B 		vldm	sp!, {d8-d9}
 2295              		.cfi_restore 82
 2296              		.cfi_restore 83
 2297              		.cfi_restore 80
 2298              		.cfi_restore 81
 2299              		.cfi_def_cfa_offset 20
 2300 00d0 F0BD     		pop	{r4, r5, r6, r7, pc}
 2301              	.LVL99:
 2302              	.L124:
 2303              		.cfi_restore_state
 2304              	.LBB373:
 2305              		.loc 1 673 0 discriminator 1
 2306 00d2 9DF80530 		ldrb	r3, [sp, #5]	@ zero_extendqisi2
 2307 00d6 9342     		cmp	r3, r2
 2308 00d8 E5D1     		bne	.L115
 2309              	.LVL100:
 2310              	.LBB370:
 2311              		.loc 1 674 0
 2312 00da 9DF80430 		ldrb	r3, [sp, #4]	@ zero_extendqisi2
 2313 00de 9DF80300 		ldrb	r0, [sp, #3]	@ zero_extendqisi2
 2314 00e2 9DF80210 		ldrb	r1, [sp, #2]	@ zero_extendqisi2
 2315              		.loc 1 675 0
 2316 00e6 194A     		ldr	r2, .L125+52
 2317              		.loc 1 674 0
 2318 00e8 1B04     		lsls	r3, r3, #16
 2319 00ea 03EB0023 		add	r3, r3, r0, lsl #8
 2320 00ee 0B44     		add	r3, r3, r1
 2321 00f0 07EE103A 		vmov	s14, r3	@ int
 2322              		.loc 1 676 0
 2323 00f4 E7EEC87A 		vfms.f32	s15, s15, s16
 2324              		.loc 1 675 0
 2325 00f8 B8EEC77A 		vcvt.f32.s32	s14, s14
 2326              		.loc 1 676 0
 2327 00fc C5ED007A 		vstr.32	s15, [r5]
 2328              		.loc 1 675 0
 2329 0100 27EE097A 		vmul.f32	s14, s14, s18
 2330 0104 67EE287A 		vmul.f32	s15, s14, s17
 2331 0108 C2ED007A 		vstr.32	s15, [r2]
 2332              	.LBE370:
 2333              		.loc 1 673 0
 2334 010c D7E7     		b	.L116
 2335              	.LVL101:
 2336              	.L110:
 2337 010e D5ED007A 		vldr.32	s15, [r5]
ARM GAS  /tmp/ccACoy8P.s 			page 42


 2338 0112 C8E7     		b	.L115
 2339              	.LVL102:
 2340              	.L118:
 2341              		.loc 1 668 0
 2342 0114 0022     		movs	r2, #0
 2343 0116 C2E7     		b	.L113
 2344              	.L126:
 2345              		.align	2
 2346              	.L125:
 2347 0118 00000000 		.word	ch
 2348 011c 00000000 		.word	.LANCHOR16
 2349 0120 00000000 		.word	.LANCHOR17
 2350 0124 00000000 		.word	SD3
 2351 0128 00000000 		.word	.LANCHOR8
 2352 012c 00040240 		.word	1073873920
 2353 0130 00000000 		.word	.LANCHOR2
 2354 0134 17B75138 		.word	944879383
 2355 0138 00000037 		.word	922746880
 2356 013c 0000B443 		.word	1135869952
 2357 0140 0C000000 		.word	SD3+12
 2358 0144 00000000 		.word	.LANCHOR0
 2359 0148 00000000 		.word	.LANCHOR9
 2360 014c 00000000 		.word	.LANCHOR11
 2361              	.LBE373:
 2362              		.cfi_endproc
 2363              	.LFE282:
 2364              		.size	ts5700n8501_thread, .-ts5700n8501_thread
 2365              		.section	.text.spi_transfer.isra.0.constprop.1,"ax",%progbits
 2366              		.align	1
 2367              		.p2align 4,,15
 2368              		.syntax unified
 2369              		.thumb
 2370              		.thumb_func
 2371              		.fpu fpv4-sp-d16
 2372              		.type	spi_transfer.isra.0.constprop.1, %function
 2373              	spi_transfer.isra.0.constprop.1:
 2374              	.LFB284:
 2375              		.loc 1 523 0
 2376              		.cfi_startproc
 2377              		@ args = 0, pretend = 0, frame = 0
 2378              		@ frame_needed = 0, uses_anonymous_args = 0
 2379              	.LVL103:
 2380              	.LBB374:
 2381              	.LBB375:
 2382              	.LBB376:
 2383              	.LBB377:
 2384              		.loc 1 532 0
 2385 0000 194A     		ldr	r2, .L135
 2386              	.LBE377:
 2387              	.LBE376:
 2388              	.LBE375:
 2389              	.LBE374:
 2390              		.loc 1 523 0
 2391 0002 F0B5     		push	{r4, r5, r6, r7, lr}
 2392              		.cfi_def_cfa_offset 20
 2393              		.cfi_offset 4, -20
 2394              		.cfi_offset 5, -16
ARM GAS  /tmp/ccACoy8P.s 			page 43


 2395              		.cfi_offset 6, -12
 2396              		.cfi_offset 7, -8
 2397              		.cfi_offset 14, -4
 2398              		.loc 1 523 0
 2399 0004 0021     		movs	r1, #0
 2400 0006 8646     		mov	lr, r0
 2401 0008 1026     		movs	r6, #16
 2402              	.LBB407:
 2403              	.LBB406:
 2404              	.LBB405:
 2405              	.LBB404:
 2406              		.loc 1 532 0
 2407 000a 4FF04007 		mov	r7, #64	@ movhi
 2408              	.LVL104:
 2409              	.L129:
 2410 000e 1783     		strh	r7, [r2, #24]	@ movhi
 2411              	.LBB378:
 2412              	.LBB379:
 2413              	.LBB380:
 2414              		.loc 2 327 0
 2415              		.syntax unified
 2416              	@ 327 "ChibiOS_3.0.2/os/ext/CMSIS/include/core_cmInstr.h" 1
 2417 0010 00BF     		nop
 2418              	@ 0 "" 2
 2419              		.thumb
 2420              		.syntax unified
 2421              	.LBE380:
 2422              	.LBE379:
 2423              	.LBB381:
 2424              	.LBB382:
 2425              		.syntax unified
 2426              	@ 327 "ChibiOS_3.0.2/os/ext/CMSIS/include/core_cmInstr.h" 1
 2427 0012 00BF     		nop
 2428              	@ 0 "" 2
 2429              		.thumb
 2430              		.syntax unified
 2431              	.LBE382:
 2432              	.LBE381:
 2433              	.LBB383:
 2434              	.LBB384:
 2435              		.syntax unified
 2436              	@ 327 "ChibiOS_3.0.2/os/ext/CMSIS/include/core_cmInstr.h" 1
 2437 0014 00BF     		nop
 2438              	@ 0 "" 2
 2439              		.thumb
 2440              		.syntax unified
 2441              	.LBE384:
 2442              	.LBE383:
 2443              	.LBB385:
 2444              	.LBB386:
 2445              		.syntax unified
 2446              	@ 327 "ChibiOS_3.0.2/os/ext/CMSIS/include/core_cmInstr.h" 1
 2447 0016 00BF     		nop
 2448              	@ 0 "" 2
 2449              	.LVL105:
 2450              		.thumb
 2451              		.syntax unified
ARM GAS  /tmp/ccACoy8P.s 			page 44


 2452              	.LBE386:
 2453              	.LBE385:
 2454              	.LBE378:
 2455              		.loc 1 536 0
 2456 0018 1369     		ldr	r3, [r2, #16]
 2457              	.LVL106:
 2458              	.LBB387:
 2459              	.LBB388:
 2460              		.loc 2 327 0
 2461              		.syntax unified
 2462              	@ 327 "ChibiOS_3.0.2/os/ext/CMSIS/include/core_cmInstr.h" 1
 2463 001a 00BF     		nop
 2464              	@ 0 "" 2
 2465              		.thumb
 2466              		.syntax unified
 2467              	.LBE388:
 2468              	.LBE387:
 2469              		.loc 1 538 0
 2470 001c 1069     		ldr	r0, [r2, #16]
 2471              	.LVL107:
 2472              	.LBB389:
 2473              	.LBB390:
 2474              		.loc 2 327 0
 2475              		.syntax unified
 2476              	@ 327 "ChibiOS_3.0.2/os/ext/CMSIS/include/core_cmInstr.h" 1
 2477 001e 00BF     		nop
 2478              	@ 0 "" 2
 2479              		.thumb
 2480              		.syntax unified
 2481              	.LBE390:
 2482              	.LBE389:
 2483              		.loc 1 540 0
 2484 0020 1469     		ldr	r4, [r2, #16]
 2485              	.LVL108:
 2486              	.LBB391:
 2487              	.LBB392:
 2488              		.loc 2 327 0
 2489              		.syntax unified
 2490              	@ 327 "ChibiOS_3.0.2/os/ext/CMSIS/include/core_cmInstr.h" 1
 2491 0022 00BF     		nop
 2492              	@ 0 "" 2
 2493              		.thumb
 2494              		.syntax unified
 2495              	.LBE392:
 2496              	.LBE391:
 2497              		.loc 1 542 0
 2498 0024 1569     		ldr	r5, [r2, #16]
 2499              	.LVL109:
 2500              	.LBB393:
 2501              	.LBB394:
 2502              		.loc 2 327 0
 2503              		.syntax unified
 2504              	@ 327 "ChibiOS_3.0.2/os/ext/CMSIS/include/core_cmInstr.h" 1
 2505 0026 00BF     		nop
 2506              	@ 0 "" 2
 2507              		.thumb
 2508              		.syntax unified
ARM GAS  /tmp/ccACoy8P.s 			page 45


 2509              	.LBE394:
 2510              	.LBE393:
 2511              		.loc 1 538 0
 2512 0028 C0F3C01C 		ubfx	ip, r0, #7, #1
 2513              		.loc 1 536 0
 2514 002c C3F3C013 		ubfx	r3, r3, #7, #1
 2515              	.LVL110:
 2516              		.loc 1 538 0
 2517 0030 6344     		add	r3, r3, ip
 2518              		.loc 1 540 0
 2519 0032 C4F3C01C 		ubfx	ip, r4, #7, #1
 2520              		.loc 1 544 0
 2521 0036 1469     		ldr	r4, [r2, #16]
 2522              		.loc 1 540 0
 2523 0038 6344     		add	r3, r3, ip
 2524              		.loc 1 542 0
 2525 003a C5F3C015 		ubfx	r5, r5, #7, #1
 2526 003e 2B44     		add	r3, r3, r5
 2527              		.loc 1 544 0
 2528 0040 C4F3C014 		ubfx	r4, r4, #7, #1
 2529 0044 2344     		add	r3, r3, r4
 2530              		.loc 1 546 0
 2531 0046 4900     		lsls	r1, r1, #1
 2532              	.LVL111:
 2533              		.loc 1 547 0
 2534 0048 022B     		cmp	r3, #2
 2535              		.loc 1 546 0
 2536 004a 89B2     		uxth	r1, r1
 2537              	.LVL112:
 2538              		.loc 1 547 0
 2539 004c 01D9     		bls	.L131
 2540              		.loc 1 548 0
 2541 004e 41F00101 		orr	r1, r1, #1
 2542              	.LVL113:
 2543              	.L131:
 2544              		.loc 1 551 0
 2545 0052 5783     		strh	r7, [r2, #26]	@ movhi
 2546              	.LBB395:
 2547              	.LBB396:
 2548              	.LBB397:
 2549              		.loc 2 327 0
 2550              		.syntax unified
 2551              	@ 327 "ChibiOS_3.0.2/os/ext/CMSIS/include/core_cmInstr.h" 1
 2552 0054 00BF     		nop
 2553              	@ 0 "" 2
 2554              		.thumb
 2555              		.syntax unified
 2556              	.LBE397:
 2557              	.LBE396:
 2558              	.LBB398:
 2559              	.LBB399:
 2560              		.syntax unified
 2561              	@ 327 "ChibiOS_3.0.2/os/ext/CMSIS/include/core_cmInstr.h" 1
 2562 0056 00BF     		nop
 2563              	@ 0 "" 2
 2564              		.thumb
 2565              		.syntax unified
ARM GAS  /tmp/ccACoy8P.s 			page 46


 2566              	.LBE399:
 2567              	.LBE398:
 2568              	.LBB400:
 2569              	.LBB401:
 2570              		.syntax unified
 2571              	@ 327 "ChibiOS_3.0.2/os/ext/CMSIS/include/core_cmInstr.h" 1
 2572 0058 00BF     		nop
 2573              	@ 0 "" 2
 2574              		.thumb
 2575              		.syntax unified
 2576              	.LBE401:
 2577              	.LBE400:
 2578              	.LBB402:
 2579              	.LBB403:
 2580              		.syntax unified
 2581              	@ 327 "ChibiOS_3.0.2/os/ext/CMSIS/include/core_cmInstr.h" 1
 2582 005a 00BF     		nop
 2583              	@ 0 "" 2
 2584              	.LVL114:
 2585              		.thumb
 2586              		.syntax unified
 2587              	.LBE403:
 2588              	.LBE402:
 2589              	.LBE395:
 2590              	.LBE404:
 2591              		.loc 1 528 0
 2592 005c 013E     		subs	r6, r6, #1
 2593              	.LVL115:
 2594 005e D6D1     		bne	.L129
 2595              	.LBE405:
 2596              		.loc 1 556 0
 2597 0060 AEF80010 		strh	r1, [lr]	@ movhi
 2598              	.LVL116:
 2599              	.LBE406:
 2600              	.LBE407:
 2601              		.loc 1 559 0
 2602 0064 F0BD     		pop	{r4, r5, r6, r7, pc}
 2603              	.LVL117:
 2604              	.L136:
 2605 0066 00BF     		.align	2
 2606              	.L135:
 2607 0068 00080240 		.word	1073874944
 2608              		.cfi_endproc
 2609              	.LFE284:
 2610              		.size	spi_transfer.isra.0.constprop.1, .-spi_transfer.isra.0.constprop.1
 2611              		.section	.rodata
 2612              		.align	2
 2613              		.set	.LANCHOR16,. + 0
 2614              	.LC0:
 2615 0000 54533537 		.ascii	"TS5700N8501\000"
 2615      30304E38 
 2615      35303100 
 2616              		.section	.bss.angle.11921,"aw",%nobits
 2617              		.align	2
 2618              		.set	.LANCHOR14,. + 0
 2619              		.type	angle.11921, %object
 2620              		.size	angle.11921, 4
ARM GAS  /tmp/ccACoy8P.s 			page 47


 2621              	angle.11921:
 2622 0000 00000000 		.space	4
 2623              		.section	.bss.bad_pulses.11932,"aw",%nobits
 2624              		.align	2
 2625              		.set	.LANCHOR15,. + 0
 2626              		.type	bad_pulses.11932, %object
 2627              		.size	bad_pulses.11932, 4
 2628              	bad_pulses.11932:
 2629 0000 00000000 		.space	4
 2630              		.section	.bss.cos_gain,"aw",%nobits
 2631              		.align	2
 2632              		.type	cos_gain, %object
 2633              		.size	cos_gain, 4
 2634              	cos_gain:
 2635 0000 00000000 		.space	4
 2636              		.section	.bss.cos_offset,"aw",%nobits
 2637              		.align	2
 2638              		.type	cos_offset, %object
 2639              		.size	cos_offset, 4
 2640              	cos_offset:
 2641 0000 00000000 		.space	4
 2642              		.section	.bss.index_found,"aw",%nobits
 2643              		.set	.LANCHOR10,. + 0
 2644              		.type	index_found, %object
 2645              		.size	index_found, 1
 2646              	index_found:
 2647 0000 00       		.space	1
 2648              		.section	.bss.last_enc_angle,"aw",%nobits
 2649              		.align	2
 2650              		.set	.LANCHOR11,. + 0
 2651              		.type	last_enc_angle, %object
 2652              		.size	last_enc_angle, 4
 2653              	last_enc_angle:
 2654 0000 00000000 		.space	4
 2655              		.section	.bss.mode,"aw",%nobits
 2656              		.set	.LANCHOR7,. + 0
 2657              		.type	mode, %object
 2658              		.size	mode, 1
 2659              	mode:
 2660 0000 00       		.space	1
 2661              		.section	.bss.sin_gain,"aw",%nobits
 2662              		.align	2
 2663              		.type	sin_gain, %object
 2664              		.size	sin_gain, 4
 2665              	sin_gain:
 2666 0000 00000000 		.space	4
 2667              		.section	.bss.sin_offset,"aw",%nobits
 2668              		.align	2
 2669              		.type	sin_offset, %object
 2670              		.size	sin_offset, 4
 2671              	sin_offset:
 2672 0000 00000000 		.space	4
 2673              		.section	.bss.sincos_filter_constant,"aw",%nobits
 2674              		.align	2
 2675              		.type	sincos_filter_constant, %object
 2676              		.size	sincos_filter_constant, 4
 2677              	sincos_filter_constant:
ARM GAS  /tmp/ccACoy8P.s 			page 48


 2678 0000 00000000 		.space	4
 2679              		.section	.bss.sincos_signal_above_max_error_cnt,"aw",%nobits
 2680              		.align	2
 2681              		.set	.LANCHOR4,. + 0
 2682              		.type	sincos_signal_above_max_error_cnt, %object
 2683              		.size	sincos_signal_above_max_error_cnt, 4
 2684              	sincos_signal_above_max_error_cnt:
 2685 0000 00000000 		.space	4
 2686              		.section	.bss.sincos_signal_above_max_error_rate,"aw",%nobits
 2687              		.align	2
 2688              		.set	.LANCHOR6,. + 0
 2689              		.type	sincos_signal_above_max_error_rate, %object
 2690              		.size	sincos_signal_above_max_error_rate, 4
 2691              	sincos_signal_above_max_error_rate:
 2692 0000 00000000 		.space	4
 2693              		.section	.bss.sincos_signal_below_min_error_cnt,"aw",%nobits
 2694              		.align	2
 2695              		.set	.LANCHOR3,. + 0
 2696              		.type	sincos_signal_below_min_error_cnt, %object
 2697              		.size	sincos_signal_below_min_error_cnt, 4
 2698              	sincos_signal_below_min_error_cnt:
 2699 0000 00000000 		.space	4
 2700              		.section	.bss.sincos_signal_low_error_rate,"aw",%nobits
 2701              		.align	2
 2702              		.set	.LANCHOR5,. + 0
 2703              		.type	sincos_signal_low_error_rate, %object
 2704              		.size	sincos_signal_low_error_rate, 4
 2705              	sincos_signal_low_error_rate:
 2706 0000 00000000 		.space	4
 2707              		.section	.bss.spi_error_cnt,"aw",%nobits
 2708              		.align	2
 2709              		.set	.LANCHOR0,. + 0
 2710              		.type	spi_error_cnt, %object
 2711              		.size	spi_error_cnt, 4
 2712              	spi_error_cnt:
 2713 0000 00000000 		.space	4
 2714              		.section	.bss.spi_error_rate,"aw",%nobits
 2715              		.align	2
 2716              		.set	.LANCHOR2,. + 0
 2717              		.type	spi_error_rate, %object
 2718              		.size	spi_error_rate, 4
 2719              	spi_error_rate:
 2720 0000 00000000 		.space	4
 2721              		.section	.bss.spi_val,"aw",%nobits
 2722              		.align	1
 2723              		.set	.LANCHOR1,. + 0
 2724              		.type	spi_val, %object
 2725              		.size	spi_val, 2
 2726              	spi_val:
 2727 0000 0000     		.space	2
 2728              		.section	.bss.ts5700n8501_is_running,"aw",%nobits
 2729              		.set	.LANCHOR9,. + 0
 2730              		.type	ts5700n8501_is_running, %object
 2731              		.size	ts5700n8501_is_running, 1
 2732              	ts5700n8501_is_running:
 2733 0000 00       		.space	1
 2734              		.section	.bss.ts5700n8501_thread_wa,"aw",%nobits
ARM GAS  /tmp/ccACoy8P.s 			page 49


 2735              		.align	3
 2736              		.set	.LANCHOR13,. + 0
 2737              		.type	ts5700n8501_thread_wa, %object
 2738              		.size	ts5700n8501_thread_wa, 920
 2739              	ts5700n8501_thread_wa:
 2740 0000 00000000 		.space	920
 2740      00000000 
 2740      00000000 
 2740      00000000 
 2740      00000000 
 2741              		.section	.data.TS5700N8501_uart_cfg,"aw",%progbits
 2742              		.align	2
 2743              		.set	.LANCHOR17,. + 0
 2744              		.type	TS5700N8501_uart_cfg, %object
 2745              		.size	TS5700N8501_uart_cfg, 12
 2746              	TS5700N8501_uart_cfg:
 2747 0000 A0252600 		.word	2500000
 2748 0004 0000     		.short	0
 2749 0006 0040     		.short	16384
 2750 0008 0000     		.short	0
 2751 000a 0000     		.space	2
 2752              		.section	.data.enc_counts,"aw",%progbits
 2753              		.align	2
 2754              		.set	.LANCHOR12,. + 0
 2755              		.type	enc_counts, %object
 2756              		.size	enc_counts, 4
 2757              	enc_counts:
 2758 0000 10270000 		.word	10000
 2759              		.section	.data.ts5700n8501_stop_now,"aw",%progbits
 2760              		.set	.LANCHOR8,. + 0
 2761              		.type	ts5700n8501_stop_now, %object
 2762              		.size	ts5700n8501_stop_now, 1
 2763              	ts5700n8501_stop_now:
 2764 0000 01       		.byte	1
 2765              		.text
 2766              	.Letext0:
 2767              		.file 4 "/usr/arm-none-eabi/include/machine/_default_types.h"
 2768              		.file 5 "/usr/arm-none-eabi/include/sys/_stdint.h"
 2769              		.file 6 "/usr/lib/gcc/arm-none-eabi/7.3.1/include/stddef.h"
 2770              		.file 7 "ChibiOS_3.0.2/os/rt/ports/ARMCMx/compilers/GCC/chtypes.h"
 2771              		.file 8 "ChibiOS_3.0.2/os/rt/include/chsystypes.h"
 2772              		.file 9 "ChibiOS_3.0.2/os/rt/include/chschd.h"
 2773              		.file 10 "ChibiOS_3.0.2/os/ext/CMSIS/include/core_cm4.h"
 2774              		.file 11 "ChibiOS_3.0.2/os/ext/CMSIS/ST/system_stm32f4xx.h"
 2775              		.file 12 "ChibiOS_3.0.2/os/ext/CMSIS/ST/stm32f407xx.h"
 2776              		.file 13 "ChibiOS_3.0.2/os/ext/CMSIS/ST/stm32f4xx.h"
 2777              		.file 14 "ChibiOS_3.0.2/os/rt/ports/ARMCMx/chcore.h"
 2778              		.file 15 "ChibiOS_3.0.2/os/rt/ports/ARMCMx/chcore_v7m.h"
 2779              		.file 16 "ChibiOS_3.0.2/os/rt/include/chtm.h"
 2780              		.file 17 "ChibiOS_3.0.2/os/rt/include/chsem.h"
 2781              		.file 18 "ChibiOS_3.0.2/os/rt/include/chmtx.h"
 2782              		.file 19 "ChibiOS_3.0.2/os/rt/include/chevents.h"
 2783              		.file 20 "ChibiOS_3.0.2/os/rt/include/chqueues.h"
 2784              		.file 21 "ChibiOS_3.0.2/ext/stdperiph_stm32f4/inc/stm32f4xx_exti.h"
 2785              		.file 22 "ChibiOS_3.0.2/ext/stdperiph_stm32f4/inc/stm32f4xx_tim.h"
 2786              		.file 23 "conf_general.h"
 2787              		.file 24 "ChibiOS_3.0.2/os/hal/ports/STM32/STM32F4xx/stm32_dma.h"
ARM GAS  /tmp/ccACoy8P.s 			page 50


 2788              		.file 25 "ChibiOS_3.0.2/os/hal/ports/STM32/LLD/GPIOv2/pal_lld.h"
 2789              		.file 26 "ChibiOS_3.0.2/os/hal/include/can.h"
 2790              		.file 27 "ChibiOS_3.0.2/os/hal/ports/STM32/LLD/can_lld.h"
 2791              		.file 28 "ChibiOS_3.0.2/os/hal/include/i2c.h"
 2792              		.file 29 "ChibiOS_3.0.2/os/hal/ports/STM32/LLD/I2Cv1/i2c_lld.h"
 2793              		.file 30 "ChibiOS_3.0.2/os/hal/include/icu.h"
 2794              		.file 31 "ChibiOS_3.0.2/os/hal/ports/STM32/LLD/TIMv1/icu_lld.h"
 2795              		.file 32 "ChibiOS_3.0.2/os/hal/ports/STM32/LLD/TIMv1/stm32_tim.h"
 2796              		.file 33 "ChibiOS_3.0.2/os/hal/include/serial.h"
 2797              		.file 34 "ChibiOS_3.0.2/os/hal/ports/STM32/LLD/USARTv1/serial_lld.h"
 2798              		.file 35 "ChibiOS_3.0.2/os/hal/include/spi.h"
 2799              		.file 36 "ChibiOS_3.0.2/os/hal/ports/STM32/LLD/SPIv1/spi_lld.h"
 2800              		.file 37 "ChibiOS_3.0.2/os/hal/include/usb.h"
 2801              		.file 38 "ChibiOS_3.0.2/os/hal/ports/STM32/LLD/OTGv1/usb_lld.h"
 2802              		.file 39 "ChibiOS_3.0.2/os/hal/ports/STM32/LLD/OTGv1/stm32_otg.h"
 2803              		.file 40 "mc_interface.h"
 2804              		.file 41 "/usr/arm-none-eabi/include/sys/lock.h"
 2805              		.file 42 "/usr/arm-none-eabi/include/sys/_types.h"
 2806              		.file 43 "/usr/arm-none-eabi/include/sys/reent.h"
 2807              		.file 44 "/usr/arm-none-eabi/include/math.h"
 2808              		.file 45 "ChibiOS_3.0.2/os/rt/include/chthreads.h"
 2809              		.file 46 "utils.h"
 2810              		.file 47 "ChibiOS_3.0.2/ext/stdperiph_stm32f4/inc/stm32f4xx_rcc.h"
 2811              		.file 48 "ChibiOS_3.0.2/os/hal/ports/common/ARMCMx/nvic.h"
 2812              		.file 49 "ChibiOS_3.0.2/ext/stdperiph_stm32f4/inc/stm32f4xx_syscfg.h"