ARM GAS  /tmp/ccL9nFWH.s 			page 1


   1              		.cpu cortex-m4
   2              		.eabi_attribute 27, 1
   3              		.eabi_attribute 28, 1
   4              		.eabi_attribute 20, 1
   5              		.eabi_attribute 21, 1
   6              		.eabi_attribute 23, 3
   7              		.eabi_attribute 24, 1
   8              		.eabi_attribute 25, 1
   9              		.eabi_attribute 26, 1
  10              		.eabi_attribute 30, 2
  11              		.eabi_attribute 34, 1
  12              		.eabi_attribute 18, 4
  13              		.file	"usb_lld.c"
  14              		.text
  15              	.Ltext0:
  16              		.cfi_sections	.debug_frame
  17              		.section	.text.usb_lld_pump,"ax",%progbits
  18              		.align	1
  19              		.p2align 4,,15
  20              		.global	usb_lld_pump
  21              		.syntax unified
  22              		.thumb
  23              		.thumb_func
  24              		.fpu fpv4-sp-d16
  25              		.type	usb_lld_pump, %function
  26              	usb_lld_pump:
  27              	.LFB292:
  28              		.file 1 "ChibiOS_3.0.2/os/hal/ports/STM32/LLD/OTGv1/usb_lld.c"
  29              		.loc 1 1294 0
  30              		.cfi_startproc
  31              		@ args = 0, pretend = 0, frame = 24
  32              		@ frame_needed = 0, uses_anonymous_args = 0
  33              	.LVL0:
  34 0000 2DE9F04F 		push	{r4, r5, r6, r7, r8, r9, r10, fp, lr}
  35              		.cfi_def_cfa_offset 36
  36              		.cfi_offset 4, -36
  37              		.cfi_offset 5, -32
  38              		.cfi_offset 6, -28
  39              		.cfi_offset 7, -24
  40              		.cfi_offset 8, -20
  41              		.cfi_offset 9, -16
  42              		.cfi_offset 10, -12
  43              		.cfi_offset 11, -8
  44              		.cfi_offset 14, -4
  45              	.LBB422:
  46              	.LBB423:
  47              		.file 2 "ChibiOS_3.0.2/os/rt/include/chregistry.h"
  48              		.loc 2 135 0
  49 0004 AC4B     		ldr	r3, .L115
  50 0006 AD4A     		ldr	r2, .L115+4
  51 0008 9B69     		ldr	r3, [r3, #24]
  52              	.LVL1:
  53              	.LBE423:
  54              	.LBE422:
  55              		.loc 1 1296 0
  56 000a 056D     		ldr	r5, [r0, #80]
  57              	.LVL2:
ARM GAS  /tmp/ccL9nFWH.s 			page 2


  58              	.LBB425:
  59              	.LBB424:
  60              		.loc 2 135 0
  61 000c 9A61     		str	r2, [r3, #24]
  62              	.LVL3:
  63              	.LBE424:
  64              	.LBE425:
  65              		.loc 1 1294 0
  66 000e 87B0     		sub	sp, sp, #28
  67              		.cfi_def_cfa_offset 64
  68              	.LBB426:
  69              	.LBB427:
  70              	.LBB428:
  71              	.LBB429:
  72              	.LBB430:
  73              		.file 3 "ChibiOS_3.0.2/os/ext/CMSIS/include/core_cmFunc.h"
  74              		.loc 3 342 0
  75              		.syntax unified
  76              	@ 342 "ChibiOS_3.0.2/os/ext/CMSIS/include/core_cmFunc.h" 1
  77 0010 72B6     		cpsid i
  78              	@ 0 "" 2
  79              		.thumb
  80              		.syntax unified
  81 0012 00F16003 		add	r3, r0, #96
  82 0016 A946     		mov	r9, r5
  83 0018 0593     		str	r3, [sp, #20]
  84 001a 0546     		mov	r5, r0
  85              	.LVL4:
  86              	.L51:
  87              	.LBE430:
  88              	.LBE429:
  89              	.LBE428:
  90              	.LBE427:
  91              	.LBE426:
  92              	.LBB431:
  93              		.loc 1 1307 0
  94 001c 2B78     		ldrb	r3, [r5]	@ zero_extendqisi2
  95 001e 012B     		cmp	r3, #1
  96 0020 05D0     		beq	.L2
  97              		.loc 1 1307 0 is_stmt 0 discriminator 1
  98 0022 EB6D     		ldr	r3, [r5, #92]
  99 0024 63B9     		cbnz	r3, .L3
 100              		.loc 1 1308 0 is_stmt 1
 101 0026 D9F81430 		ldr	r3, [r9, #20]
 102 002a DA06     		lsls	r2, r3, #27
 103 002c 08D4     		bmi	.L3
 104              	.L2:
 105              		.loc 1 1309 0
 106 002e D9F81830 		ldr	r3, [r9, #24]
 107              	.LBB432:
 108              	.LBB433:
 109              		.file 4 "ChibiOS_3.0.2/os/hal/osal/rt/osal.h"
 110              		.loc 4 688 0
 111 0032 0598     		ldr	r0, [sp, #20]
 112              	.LBE433:
 113              	.LBE432:
 114              		.loc 1 1309 0
ARM GAS  /tmp/ccL9nFWH.s 			page 3


 115 0034 43F01003 		orr	r3, r3, #16
 116 0038 C9F81830 		str	r3, [r9, #24]
 117              	.LBB435:
 118              	.LBB434:
 119              		.loc 4 688 0
 120 003c FFF7FEFF 		bl	chThdSuspendS
 121              	.LVL5:
 122              	.L3:
 123              	.LBE434:
 124              	.LBE435:
 125              	.LBB436:
 126              	.LBB437:
 127              	.LBB438:
 128              	.LBB439:
 129              	.LBB440:
 130              	.LBB441:
 131              		.loc 3 331 0
 132              		.syntax unified
 133              	@ 331 "ChibiOS_3.0.2/os/ext/CMSIS/include/core_cmFunc.h" 1
 134 0040 62B6     		cpsie i
 135              	@ 0 "" 2
 136              	.LVL6:
 137              		.thumb
 138              		.syntax unified
 139              	.LBE441:
 140              	.LBE440:
 141              	.LBE439:
 142              	.LBE438:
 143              	.LBE437:
 144              	.LBE436:
 145              		.loc 1 1315 0
 146 0042 4FF0000A 		mov	r10, #0
 147              	.LVL7:
 148              	.L5:
 149              		.loc 1 1318 0
 150 0046 D9F81430 		ldr	r3, [r9, #20]
 151 004a DB06     		lsls	r3, r3, #27
 152 004c 57D5     		bpl	.L108
 153              	.L25:
 154              	.LVL8:
 155              	.LBB442:
 156              	.LBB443:
 157              		.loc 1 437 0
 158 004e 2A6D     		ldr	r2, [r5, #80]
 159 0050 136A     		ldr	r3, [r2, #32]
 160              	.LVL9:
 161              		.loc 1 438 0
 162 0052 03F4F011 		and	r1, r3, #1966080
 163 0056 B1F5802F 		cmp	r1, #262144
 164 005a 24D0     		beq	.L6
 165 005c B1F5402F 		cmp	r1, #786432
 166 0060 F1D1     		bne	.L5
 167              	.LVL10:
 168              		.loc 1 443 0
 169 0062 03F00F01 		and	r1, r3, #15
 170              	.LVL11:
 171              		.loc 1 444 0
ARM GAS  /tmp/ccL9nFWH.s 			page 4


 172 0066 05EB8101 		add	r1, r5, r1, lsl #2
 173              	.LVL12:
 174              		.loc 1 442 0
 175 006a C3F30A13 		ubfx	r3, r3, #4, #11
 176              	.LVL13:
 177              		.loc 1 444 0
 178 006e C968     		ldr	r1, [r1, #12]
 179              	.LBB444:
 180              	.LBB445:
 181              		.loc 1 356 0
 182 0070 0333     		adds	r3, r3, #3
 183              		.loc 1 358 0
 184 0072 9B08     		lsrs	r3, r3, #2
 185              	.LBE445:
 186              	.LBE444:
 187              		.loc 1 444 0
 188 0074 0C6A     		ldr	r4, [r1, #32]
 189              	.LVL14:
 190              	.LBB450:
 191              	.LBB449:
 192              		.loc 1 358 0
 193 0076 E6D0     		beq	.L5
 194 0078 02F58052 		add	r2, r2, #4096
 195              	.LVL15:
 196              		.loc 1 357 0
 197 007c 0221     		movs	r1, #2
 198              	.LVL16:
 199              	.LBB446:
 200              		.loc 1 359 0
 201 007e 1668     		ldr	r6, [r2]
 202              	.LVL17:
 203 0080 581E     		subs	r0, r3, #1
 204              		.loc 1 360 0
 205 0082 49B1     		cbz	r1, .L109
 206              	.L10:
 207              		.loc 1 365 0
 208 0084 0346     		mov	r3, r0
 209              		.loc 1 363 0
 210 0086 44F8046B 		str	r6, [r4], #4
 211              	.LVL18:
 212              		.loc 1 365 0
 213 008a 0139     		subs	r1, r1, #1
 214              	.LVL19:
 215              	.LBE446:
 216              		.loc 1 358 0
 217 008c 002B     		cmp	r3, #0
 218 008e DAD0     		beq	.L5
 219              	.LVL20:
 220              	.L107:
 221              	.LBB447:
 222              		.loc 1 359 0
 223 0090 1668     		ldr	r6, [r2]
 224              	.LVL21:
 225 0092 581E     		subs	r0, r3, #1
 226              		.loc 1 360 0
 227 0094 0029     		cmp	r1, #0
 228 0096 F5D1     		bne	.L10
ARM GAS  /tmp/ccL9nFWH.s 			page 5


 229              	.L109:
 230              	.LVL22:
 231              	.LBE447:
 232              		.loc 1 358 0
 233 0098 0028     		cmp	r0, #0
 234 009a D4D0     		beq	.L5
 235 009c 023B     		subs	r3, r3, #2
 236              	.LBB448:
 237              		.loc 1 359 0
 238 009e 1068     		ldr	r0, [r2]
 239              	.LVL23:
 240              	.LBE448:
 241              		.loc 1 358 0
 242 00a0 002B     		cmp	r3, #0
 243 00a2 F5D1     		bne	.L107
 244 00a4 CFE7     		b	.L5
 245              	.LVL24:
 246              	.L6:
 247              	.LBE449:
 248              	.LBE450:
 249              		.loc 1 449 0
 250 00a6 03F00F06 		and	r6, r3, #15
 251 00aa 05EB8606 		add	r6, r5, r6, lsl #2
 252              		.loc 1 448 0
 253 00ae C3F30A14 		ubfx	r4, r3, #4, #11
 254              	.LVL25:
 255              		.loc 1 450 0
 256 00b2 F368     		ldr	r3, [r6, #12]
 257              	.LVL26:
 258 00b4 9F69     		ldr	r7, [r3, #24]
 259 00b6 3B78     		ldrb	r3, [r7]	@ zero_extendqisi2
 260 00b8 F868     		ldr	r0, [r7, #12]
 261 00ba 002B     		cmp	r3, #0
 262 00bc 38D1     		bne	.L110
 263              		.loc 1 461 0
 264 00be D7E9011C 		ldrd	r1, ip, [r7, #4]
 265              	.LVL27:
 266              	.LBB451:
 267              	.LBB452:
 268              		.loc 1 357 0
 269 00c2 CE1C     		adds	r6, r1, #3
 270              		.loc 1 356 0
 271 00c4 E11C     		adds	r1, r4, #3
 272              	.LVL28:
 273              		.loc 1 357 0
 274 00c6 A6EB0C06 		sub	r6, r6, ip
 275              		.loc 1 358 0
 276 00ca 8908     		lsrs	r1, r1, #2
 277              		.loc 1 357 0
 278 00cc 4FEA9606 		lsr	r6, r6, #2
 279              	.LVL29:
 280              		.loc 1 358 0
 281 00d0 0DD0     		beq	.L21
 282 00d2 02F58052 		add	r2, r2, #4096
 283              	.LVL30:
 284 00d6 8646     		mov	lr, r0
 285 00d8 9046     		mov	r8, r2
ARM GAS  /tmp/ccL9nFWH.s 			page 6


 286              	.LVL31:
 287              	.L24:
 288              	.LBB453:
 289              		.loc 1 359 0
 290 00da D8F80020 		ldr	r2, [r8]
 291              	.LVL32:
 292 00de 4B1E     		subs	r3, r1, #1
 293              		.loc 1 360 0
 294 00e0 F6B1     		cbz	r6, .L111
 295              		.loc 1 365 0
 296 00e2 1946     		mov	r1, r3
 297              	.LVL33:
 298              		.loc 1 363 0
 299 00e4 4EF8042B 		str	r2, [lr], #4
 300              	.LVL34:
 301              		.loc 1 365 0
 302 00e8 013E     		subs	r6, r6, #1
 303              	.LVL35:
 304              	.LBE453:
 305              		.loc 1 358 0
 306 00ea 0029     		cmp	r1, #0
 307 00ec F5D1     		bne	.L24
 308              	.LVL36:
 309              	.L21:
 310              	.LBE452:
 311              	.LBE451:
 312              		.loc 1 462 0
 313 00ee 2044     		add	r0, r0, r4
 314 00f0 F860     		str	r0, [r7, #12]
 315              	.L20:
 316              	.LBE443:
 317              	.LBE442:
 318              		.loc 1 1318 0
 319 00f2 D9F81430 		ldr	r3, [r9, #20]
 320              	.LBB479:
 321              	.LBB476:
 322              		.loc 1 464 0
 323 00f6 6444     		add	r4, r4, ip
 324              	.LVL37:
 325              	.LBE476:
 326              	.LBE479:
 327              		.loc 1 1318 0
 328 00f8 DB06     		lsls	r3, r3, #27
 329              	.LBB480:
 330              	.LBB477:
 331              		.loc 1 464 0
 332 00fa BC60     		str	r4, [r7, #8]
 333              	.LBE477:
 334              	.LBE480:
 335              		.loc 1 1318 0
 336 00fc A7D4     		bmi	.L25
 337              	.LVL38:
 338              	.L108:
 339              		.loc 1 1323 0
 340 00fe EB6D     		ldr	r3, [r5, #92]
 341              		.loc 1 1322 0
 342 0100 0122     		movs	r2, #1
ARM GAS  /tmp/ccL9nFWH.s 			page 7


 343 0102 02FA0AF6 		lsl	r6, r2, r10
 344              	.LVL39:
 345              		.loc 1 1323 0
 346 0106 1E42     		tst	r6, r3
 347 0108 4AD1     		bne	.L100
 348 010a 0AEB0203 		add	r3, r10, r2
 349 010e 0293     		str	r3, [sp, #8]
 350              	.LVL40:
 351              	.L26:
 352              		.loc 1 1315 0 discriminator 2
 353 0110 6B6D     		ldr	r3, [r5, #84]
 354 0112 9DF808A0 		ldrb	r10, [sp, #8]	@ zero_extendqisi2
 355              	.LVL41:
 356 0116 9B68     		ldr	r3, [r3, #8]
 357 0118 9A45     		cmp	r10, r3
 358 011a 94D9     		bls	.L5
 359              	.LBB481:
 360              	.LBB482:
 361              	.LBB483:
 362              	.LBB484:
 363              	.LBB485:
 364              		.loc 3 342 0
 365              		.syntax unified
 366              	@ 342 "ChibiOS_3.0.2/os/ext/CMSIS/include/core_cmFunc.h" 1
 367 011c 72B6     		cpsid i
 368              	@ 0 "" 2
 369              		.thumb
 370              		.syntax unified
 371 011e 7DE7     		b	.L51
 372              	.LVL42:
 373              	.L111:
 374              	.LBE485:
 375              	.LBE484:
 376              	.LBE483:
 377              	.LBE482:
 378              	.LBE481:
 379              	.LBB486:
 380              	.LBB478:
 381              	.LBB456:
 382              	.LBB455:
 383              		.loc 1 358 0
 384 0120 002B     		cmp	r3, #0
 385 0122 E4D0     		beq	.L21
 386 0124 0239     		subs	r1, r1, #2
 387              	.LVL43:
 388              	.LBB454:
 389              		.loc 1 359 0
 390 0126 D8F80030 		ldr	r3, [r8]
 391              	.LVL44:
 392              	.LBE454:
 393              		.loc 1 358 0
 394 012a 0029     		cmp	r1, #0
 395 012c D5D1     		bne	.L24
 396 012e DEE7     		b	.L21
 397              	.LVL45:
 398              	.L110:
 399              	.LBE455:
ARM GAS  /tmp/ccL9nFWH.s 			page 8


 400              	.LBE456:
 401              	.LBB457:
 402              	.LBB458:
 403              		.loc 1 386 0
 404 0130 3CB3     		cbz	r4, .L14
 405 0132 4169     		ldr	r1, [r0, #20]
 406 0134 02F58052 		add	r2, r2, #4096
 407              	.LVL46:
 408 0138 A446     		mov	ip, r4
 409              	.LVL47:
 410              	.L15:
 411              	.LBB459:
 412              		.loc 1 390 0
 413 013a BCF1030F 		cmp	ip, #3
 414 013e 07D9     		bls	.L16
 415              	.LVL48:
 416              	.L112:
 417              	.LBB460:
 418              		.loc 1 396 0
 419 0140 0369     		ldr	r3, [r0, #16]
 420 0142 8B42     		cmp	r3, r1
 421 0144 04D8     		bhi	.L16
 422              		.loc 1 397 0
 423 0146 C168     		ldr	r1, [r0, #12]
 424 0148 4161     		str	r1, [r0, #20]
 425              	.LVL49:
 426              	.LBE460:
 427              		.loc 1 390 0
 428 014a BCF1030F 		cmp	ip, #3
 429 014e F7D8     		bhi	.L112
 430              	.LVL50:
 431              	.L16:
 432              		.loc 1 408 0
 433 0150 D2F800E0 		ldr	lr, [r2]
 434              	.LVL51:
 435 0154 0023     		movs	r3, #0
 436              	.LVL52:
 437              	.L19:
 438              		.loc 1 411 0
 439 0156 2EFA03F7 		lsr	r7, lr, r3
 440 015a 01F10108 		add	r8, r1, #1
 441 015e C0F81480 		str	r8, [r0, #20]
 442 0162 0F70     		strb	r7, [r1]
 443              		.loc 1 412 0
 444 0164 D0E90417 		ldrd	r1, r7, [r0, #16]
 445 0168 8F42     		cmp	r7, r1
 446              		.loc 1 413 0
 447 016a 24BF     		itt	cs
 448 016c C168     		ldrcs	r1, [r0, #12]
 449 016e 4161     		strcs	r1, [r0, #20]
 450              		.loc 1 410 0
 451 0170 BCF1010C 		subs	ip, ip, #1
 452              	.LVL53:
 453 0174 03F10803 		add	r3, r3, #8
 454 0178 03D0     		beq	.L14
 455 017a 202B     		cmp	r3, #32
 456 017c 4169     		ldr	r1, [r0, #20]
ARM GAS  /tmp/ccL9nFWH.s 			page 9


 457 017e EAD1     		bne	.L19
 458 0180 DBE7     		b	.L15
 459              	.LVL54:
 460              	.L14:
 461              	.LBE459:
 462              	.LBB461:
 463              	.LBB462:
 464              	.LBB463:
 465              	.LBB464:
 466              	.LBB465:
 467              		.loc 3 342 0
 468              		.syntax unified
 469              	@ 342 "ChibiOS_3.0.2/os/ext/CMSIS/include/core_cmFunc.h" 1
 470 0182 72B6     		cpsid i
 471              	@ 0 "" 2
 472              		.thumb
 473              		.syntax unified
 474              	.LBE465:
 475              	.LBE464:
 476              	.LBE463:
 477              	.LBE462:
 478              	.LBE461:
 479              		.loc 1 421 0
 480 0184 8368     		ldr	r3, [r0, #8]
 481 0186 2344     		add	r3, r3, r4
 482 0188 8360     		str	r3, [r0, #8]
 483              	.LVL55:
 484              	.LBB466:
 485              	.LBB467:
 486              		.loc 4 810 0
 487 018a 0021     		movs	r1, #0
 488 018c FFF7FEFF 		bl	chThdDequeueAllI
 489              	.LVL56:
 490              	.LBE467:
 491              	.LBE466:
 492              	.LBB468:
 493              	.LBB469:
 494              		.loc 4 600 0
 495 0190 FFF7FEFF 		bl	chSchRescheduleS
 496              	.LVL57:
 497              	.LBE469:
 498              	.LBE468:
 499              	.LBB470:
 500              	.LBB471:
 501              	.LBB472:
 502              	.LBB473:
 503              	.LBB474:
 504              	.LBB475:
 505              		.loc 3 331 0
 506              		.syntax unified
 507              	@ 331 "ChibiOS_3.0.2/os/ext/CMSIS/include/core_cmFunc.h" 1
 508 0194 62B6     		cpsie i
 509              	@ 0 "" 2
 510              		.thumb
 511              		.syntax unified
 512 0196 F368     		ldr	r3, [r6, #12]
 513 0198 9F69     		ldr	r7, [r3, #24]
ARM GAS  /tmp/ccL9nFWH.s 			page 10


 514 019a D7F808C0 		ldr	ip, [r7, #8]
 515 019e A8E7     		b	.L20
 516              	.LVL58:
 517              	.L100:
 518              	.LBE475:
 519              	.LBE474:
 520              	.LBE473:
 521              	.LBE472:
 522              	.LBE471:
 523              	.LBE470:
 524              	.LBE458:
 525              	.LBE457:
 526              	.LBE478:
 527              	.LBE486:
 528              	.LBB487:
 529              	.LBB488:
 530              	.LBB489:
 531              	.LBB490:
 532              	.LBB491:
 533              	.LBB492:
 534              		.loc 3 342 0
 535              		.syntax unified
 536              	@ 342 "ChibiOS_3.0.2/os/ext/CMSIS/include/core_cmFunc.h" 1
 537 01a0 72B6     		cpsid i
 538              	@ 0 "" 2
 539              		.thumb
 540              		.syntax unified
 541              	.LBE492:
 542              	.LBE491:
 543              	.LBE490:
 544              	.LBE489:
 545              	.LBE488:
 546              		.loc 1 1334 0
 547 01a2 D9F80820 		ldr	r2, [r9, #8]
 548              		.loc 1 1335 0
 549 01a6 EB6D     		ldr	r3, [r5, #92]
 550              		.loc 1 1334 0
 551 01a8 22F00102 		bic	r2, r2, #1
 552              		.loc 1 1335 0
 553 01ac 23EA0603 		bic	r3, r3, r6
 554              		.loc 1 1334 0
 555 01b0 C9F80820 		str	r2, [r9, #8]
 556              		.loc 1 1335 0
 557 01b4 EB65     		str	r3, [r5, #92]
 558              	.LBB493:
 559              	.LBB494:
 560              	.LBB495:
 561              	.LBB496:
 562              	.LBB497:
 563              	.LBB498:
 564              		.loc 3 331 0
 565              		.syntax unified
 566              	@ 331 "ChibiOS_3.0.2/os/ext/CMSIS/include/core_cmFunc.h" 1
 567 01b6 62B6     		cpsie i
 568              	@ 0 "" 2
 569              	.LVL59:
 570              		.thumb
ARM GAS  /tmp/ccL9nFWH.s 			page 11


 571              		.syntax unified
 572 01b8 05EB8A03 		add	r3, r5, r10, lsl #2
 573 01bc 1F46     		mov	r7, r3
 574              	.LBE498:
 575              	.LBE497:
 576              	.LBE496:
 577              	.LBE495:
 578              	.LBE494:
 579              	.LBE493:
 580              	.LBB499:
 581              	.LBB500:
 582              		.loc 1 488 0
 583 01be D968     		ldr	r1, [r3, #12]
 584 01c0 4A69     		ldr	r2, [r1, #20]
 585 01c2 D2E90130 		ldrd	r3, r0, [r2, #4]
 586 01c6 9842     		cmp	r0, r3
 587 01c8 80F0AD80 		bcs	.L113
 588              		.loc 1 498 0
 589 01cc D5F850E0 		ldr	lr, [r5, #80]
 590              		.loc 1 493 0
 591 01d0 0C8A     		ldrh	r4, [r1, #16]
 592              		.loc 1 498 0
 593 01d2 4FEA4A18 		lsl	r8, r10, #5
 594 01d6 0EEB080C 		add	ip, lr, r8
 595              		.loc 1 492 0
 596 01da 1B1A     		subs	r3, r3, r0
 597              	.LVL60:
 598              		.loc 1 498 0
 599 01dc DCF81809 		ldr	r0, [ip, #2328]
 600 01e0 9C42     		cmp	r4, r3
 601 01e2 28BF     		it	cs
 602 01e4 1C46     		movcs	r4, r3
 603              	.LVL61:
 604 01e6 83B2     		uxth	r3, r0
 605 01e8 B4EB830F 		cmp	r4, r3, lsl #2
 606 01ec 00F2A680 		bhi	.L29
 607 01f0 0AF10103 		add	r3, r10, #1
 608 01f4 0293     		str	r3, [sp, #8]
 609 01f6 1B03     		lsls	r3, r3, #12
 610 01f8 CDE90396 		strd	r9, r6, [sp, #12]
 611 01fc 0193     		str	r3, [sp, #4]
 612 01fe B946     		mov	r9, r7
 613              	.LVL62:
 614              	.L30:
 615 0200 019E     		ldr	r6, [sp, #4]
 616              		.loc 1 505 0
 617 0202 1378     		ldrb	r3, [r2]	@ zero_extendqisi2
 618 0204 D068     		ldr	r0, [r2, #12]
 619 0206 B644     		add	lr, lr, r6
 620 0208 002B     		cmp	r3, #0
 621 020a 75D0     		beq	.L33
 622              	.LVL63:
 623              	.LBB501:
 624              	.LBB502:
 625              		.loc 1 274 0
 626 020c FCB1     		cbz	r4, .L34
 627 020e D0F810B0 		ldr	fp, [r0, #16]
ARM GAS  /tmp/ccL9nFWH.s 			page 12


 628              	.LBB503:
 629              	.LBB504:
 630              		.loc 1 280 0
 631 0212 2246     		mov	r2, r4
 632              	.LVL64:
 633              	.L44:
 634              	.LBE504:
 635              		.loc 1 278 0
 636 0214 9708     		lsrs	r7, r2, #2
 637              	.LVL65:
 638 0216 8369     		ldr	r3, [r0, #24]
 639 0218 55D0     		beq	.L35
 640              	.LVL66:
 641              	.LBB509:
 642              		.loc 1 280 0
 643 021a BBEB0301 		subs	r1, fp, r3
 644 021e 48BF     		it	mi
 645 0220 0331     		addmi	r1, r1, #3
 646 0222 8E10     		asrs	r6, r1, #2
 647              		.loc 1 282 0
 648 0224 BE42     		cmp	r6, r7
 649 0226 28BF     		it	cs
 650 0228 3E46     		movcs	r6, r7
 651              	.LVL67:
 652 022a B100     		lsls	r1, r6, #2
 653 022c 521A     		subs	r2, r2, r1
 654              	.LVL68:
 655              	.LBB505:
 656              	.LBB506:
 657              		.loc 1 233 0
 658 022e 002E     		cmp	r6, #0
 659 0230 73D0     		beq	.L54
 660 0232 1944     		add	r1, r1, r3
 661              	.LVL69:
 662              	.L38:
 663              		.loc 1 236 0
 664 0234 53F8046B 		ldr	r6, [r3], #4
 665              	.LVL70:
 666 0238 CEF80060 		str	r6, [lr]
 667              	.LVL71:
 668              		.loc 1 233 0
 669 023c 8B42     		cmp	r3, r1
 670 023e F9D1     		bne	.L38
 671              	.LVL72:
 672              	.L37:
 673              	.LBE506:
 674              	.LBE505:
 675              		.loc 1 284 0
 676 0240 5945     		cmp	r1, fp
 677              		.loc 1 283 0
 678 0242 8161     		str	r1, [r0, #24]
 679              	.LVL73:
 680              		.loc 1 284 0
 681 0244 3CD3     		bcc	.L39
 682              		.loc 1 285 0
 683 0246 C368     		ldr	r3, [r0, #12]
 684 0248 8361     		str	r3, [r0, #24]
ARM GAS  /tmp/ccL9nFWH.s 			page 13


 685              	.LBE509:
 686              	.LBE503:
 687              		.loc 1 274 0
 688 024a 002A     		cmp	r2, #0
 689 024c E2D1     		bne	.L44
 690              	.LVL74:
 691              	.L34:
 692              	.LBB511:
 693              	.LBB512:
 694              	.LBB513:
 695              	.LBB514:
 696              	.LBB515:
 697              		.loc 3 342 0
 698              		.syntax unified
 699              	@ 342 "ChibiOS_3.0.2/os/ext/CMSIS/include/core_cmFunc.h" 1
 700 024e 72B6     		cpsid i
 701              	@ 0 "" 2
 702              		.thumb
 703              		.syntax unified
 704              	.LBE515:
 705              	.LBE514:
 706              	.LBE513:
 707              	.LBE512:
 708              	.LBE511:
 709              		.loc 1 310 0
 710 0250 8368     		ldr	r3, [r0, #8]
 711 0252 2344     		add	r3, r3, r4
 712 0254 8360     		str	r3, [r0, #8]
 713              	.LVL75:
 714              	.LBB516:
 715              	.LBB517:
 716              		.loc 4 810 0
 717 0256 0021     		movs	r1, #0
 718 0258 FFF7FEFF 		bl	chThdDequeueAllI
 719              	.LVL76:
 720              	.LBE517:
 721              	.LBE516:
 722              	.LBB518:
 723              	.LBB519:
 724              		.loc 4 600 0
 725 025c FFF7FEFF 		bl	chSchRescheduleS
 726              	.LVL77:
 727              	.LBE519:
 728              	.LBE518:
 729              	.LBB520:
 730              	.LBB521:
 731              	.LBB522:
 732              	.LBB523:
 733              	.LBB524:
 734              	.LBB525:
 735              		.loc 3 331 0
 736              		.syntax unified
 737              	@ 331 "ChibiOS_3.0.2/os/ext/CMSIS/include/core_cmFunc.h" 1
 738 0260 62B6     		cpsie i
 739              	@ 0 "" 2
 740              		.thumb
 741              		.syntax unified
ARM GAS  /tmp/ccL9nFWH.s 			page 14


 742 0262 D9F80C10 		ldr	r1, [r9, #12]
 743              	.LVL78:
 744              	.L45:
 745              	.LBE525:
 746              	.LBE524:
 747              	.LBE523:
 748              	.LBE522:
 749              	.LBE521:
 750              	.LBE520:
 751              	.LBE502:
 752              	.LBE501:
 753              		.loc 1 521 0
 754 0266 4A69     		ldr	r2, [r1, #20]
 755              		.loc 1 488 0
 756 0268 D2E90103 		ldrd	r0, r3, [r2, #4]
 757              		.loc 1 521 0
 758 026c 1C44     		add	r4, r4, r3
 759              	.LVL79:
 760              		.loc 1 488 0
 761 026e A042     		cmp	r0, r4
 762              		.loc 1 521 0
 763 0270 9460     		str	r4, [r2, #8]
 764              		.loc 1 488 0
 765 0272 54D9     		bls	.L114
 766              		.loc 1 498 0
 767 0274 D5F850E0 		ldr	lr, [r5, #80]
 768              		.loc 1 493 0
 769 0278 B1F810C0 		ldrh	ip, [r1, #16]
 770              		.loc 1 498 0
 771 027c 0EEB080A 		add	r10, lr, r8
 772              		.loc 1 492 0
 773 0280 041B     		subs	r4, r0, r4
 774              	.LVL80:
 775              		.loc 1 498 0
 776 0282 DAF81839 		ldr	r3, [r10, #2328]
 777 0286 6445     		cmp	r4, ip
 778 0288 28BF     		it	cs
 779 028a 6446     		movcs	r4, ip
 780              	.LVL81:
 781 028c 9BB2     		uxth	r3, r3
 782 028e B4EB830F 		cmp	r4, r3, lsl #2
 783 0292 B5D9     		bls	.L30
 784 0294 DDE90396 		ldrd	r9, r6, [sp, #12]
 785              		.loc 1 499 0
 786 0298 0022     		movs	r2, #0
 787              	.LVL82:
 788              	.L32:
 789              	.LBE500:
 790              	.LBE499:
 791              	.LBB537:
 792              	.LBB538:
 793              	.LBB539:
 794              	.LBB540:
 795              	.LBB541:
 796              		.loc 3 342 0
 797              		.syntax unified
 798              	@ 342 "ChibiOS_3.0.2/os/ext/CMSIS/include/core_cmFunc.h" 1
ARM GAS  /tmp/ccL9nFWH.s 			page 15


 799 029a 72B6     		cpsid i
 800              	@ 0 "" 2
 801              		.thumb
 802              		.syntax unified
 803              	.LBE541:
 804              	.LBE540:
 805              	.LBE539:
 806              	.LBE538:
 807              	.LBE537:
 808              		.loc 1 1341 0
 809 029c D9F80830 		ldr	r3, [r9, #8]
 810 02a0 43F00103 		orr	r3, r3, #1
 811 02a4 C9F80830 		str	r3, [r9, #8]
 812              		.loc 1 1342 0
 813 02a8 22B9     		cbnz	r2, .L28
 814              	.LVL83:
 815              	.L31:
 816              		.loc 1 1343 0
 817 02aa D9F83438 		ldr	r3, [r9, #2100]
 818 02ae 1E43     		orrs	r6, r6, r3
 819 02b0 C9F83468 		str	r6, [r9, #2100]
 820              	.L28:
 821              	.LBB550:
 822              	.LBB551:
 823              	.LBB552:
 824              	.LBB553:
 825              	.LBB554:
 826              	.LBB555:
 827              		.loc 3 331 0
 828              		.syntax unified
 829              	@ 331 "ChibiOS_3.0.2/os/ext/CMSIS/include/core_cmFunc.h" 1
 830 02b4 62B6     		cpsie i
 831              	@ 0 "" 2
 832              		.thumb
 833              		.syntax unified
 834 02b6 2BE7     		b	.L26
 835              	.L116:
 836              		.align	2
 837              	.L115:
 838 02b8 00000000 		.word	ch
 839 02bc 00000000 		.word	.LC0
 840              	.LVL84:
 841              	.L39:
 842              	.LBE555:
 843              	.LBE554:
 844              	.LBE553:
 845              	.LBE552:
 846              	.LBE551:
 847              	.LBE550:
 848              	.LBB556:
 849              	.LBB536:
 850              	.LBB530:
 851              	.LBB528:
 852              	.LBB526:
 853              		.loc 1 292 0
 854 02c0 002A     		cmp	r2, #0
 855 02c2 C4D0     		beq	.L34
ARM GAS  /tmp/ccL9nFWH.s 			page 16


 856 02c4 0B46     		mov	r3, r1
 857              	.L35:
 858 02c6 0021     		movs	r1, #0
 859 02c8 0E46     		mov	r6, r1
 860              	.LVL85:
 861              	.L43:
 862              		.loc 1 299 0
 863 02ca 5F1C     		adds	r7, r3, #1
 864 02cc 8761     		str	r7, [r0, #24]
 865 02ce 1B78     		ldrb	r3, [r3]	@ zero_extendqisi2
 866              		.loc 1 300 0
 867 02d0 5F45     		cmp	r7, fp
 868              		.loc 1 299 0
 869 02d2 03FA01F3 		lsl	r3, r3, r1
 870 02d6 46EA0306 		orr	r6, r6, r3
 871              	.LVL86:
 872              		.loc 1 301 0
 873 02da 24BF     		itt	cs
 874 02dc C368     		ldrcs	r3, [r0, #12]
 875 02de 8361     		strcs	r3, [r0, #24]
 876              		.loc 1 298 0
 877 02e0 013A     		subs	r2, r2, #1
 878              	.LVL87:
 879 02e2 04D0     		beq	.L42
 880 02e4 1829     		cmp	r1, #24
 881 02e6 02D0     		beq	.L42
 882 02e8 0831     		adds	r1, r1, #8
 883 02ea 8369     		ldr	r3, [r0, #24]
 884 02ec EDE7     		b	.L43
 885              	.L42:
 886              		.loc 1 305 0
 887 02ee CEF80060 		str	r6, [lr]
 888              	.LBE526:
 889              		.loc 1 274 0
 890 02f2 002A     		cmp	r2, #0
 891 02f4 8ED1     		bne	.L44
 892 02f6 AAE7     		b	.L34
 893              	.LVL88:
 894              	.L33:
 895              	.LBE528:
 896              	.LBE530:
 897              	.LBB531:
 898              	.LBB532:
 899              		.loc 1 256 0
 900 02f8 E31C     		adds	r3, r4, #3
 901              	.LVL89:
 902              	.LBB533:
 903              	.LBB534:
 904              		.loc 1 233 0
 905 02fa 9B08     		lsrs	r3, r3, #2
 906              	.LVL90:
 907 02fc 0AD0     		beq	.L46
 908 02fe 00EB8301 		add	r1, r0, r3, lsl #2
 909 0302 0346     		mov	r3, r0
 910              	.LVL91:
 911              	.L47:
 912              		.loc 1 236 0
ARM GAS  /tmp/ccL9nFWH.s 			page 17


 913 0304 53F8046B 		ldr	r6, [r3], #4
 914              	.LVL92:
 915 0308 CEF80060 		str	r6, [lr]
 916              	.LVL93:
 917              		.loc 1 233 0
 918 030c 8B42     		cmp	r3, r1
 919 030e F9D1     		bne	.L47
 920 0310 D9F80C10 		ldr	r1, [r9, #12]
 921              	.LVL94:
 922              	.L46:
 923              	.LBE534:
 924              	.LBE533:
 925              	.LBE532:
 926              	.LBE531:
 927              		.loc 1 516 0
 928 0314 2044     		add	r0, r0, r4
 929 0316 D060     		str	r0, [r2, #12]
 930 0318 A5E7     		b	.L45
 931              	.LVL95:
 932              	.L54:
 933              	.LBB535:
 934              	.LBB529:
 935              	.LBB527:
 936              	.LBB510:
 937              	.LBB508:
 938              	.LBB507:
 939              		.loc 1 233 0
 940 031a 1946     		mov	r1, r3
 941 031c 90E7     		b	.L37
 942              	.LVL96:
 943              	.L114:
 944 031e DDE90396 		ldrd	r9, r6, [sp, #12]
 945              	.LBE507:
 946              	.LBE508:
 947              	.LBE510:
 948              	.LBE527:
 949              	.LBE529:
 950              	.LBE535:
 951              		.loc 1 489 0
 952 0322 0122     		movs	r2, #1
 953 0324 B9E7     		b	.L32
 954              	.LVL97:
 955              	.L113:
 956              	.LBE536:
 957              	.LBE556:
 958              	.LBB557:
 959              	.LBB548:
 960              	.LBB546:
 961              	.LBB544:
 962              	.LBB542:
 963              		.loc 3 342 0
 964              		.syntax unified
 965              	@ 342 "ChibiOS_3.0.2/os/ext/CMSIS/include/core_cmFunc.h" 1
 966 0326 72B6     		cpsid i
 967              	@ 0 "" 2
 968              		.thumb
 969              		.syntax unified
ARM GAS  /tmp/ccL9nFWH.s 			page 18


 970              	.LBE542:
 971              	.LBE544:
 972              	.LBE546:
 973              	.LBE548:
 974              	.LBE557:
 975              		.loc 1 1341 0
 976 0328 D9F80830 		ldr	r3, [r9, #8]
 977 032c 0AF10102 		add	r2, r10, #1
 978 0330 43F00103 		orr	r3, r3, #1
 979 0334 0292     		str	r2, [sp, #8]
 980 0336 C9F80830 		str	r3, [r9, #8]
 981 033a BBE7     		b	.L28
 982              	.LVL98:
 983              	.L29:
 984              	.LBB558:
 985              	.LBB549:
 986              	.LBB547:
 987              	.LBB545:
 988              	.LBB543:
 989              		.loc 3 342 0
 990              		.syntax unified
 991              	@ 342 "ChibiOS_3.0.2/os/ext/CMSIS/include/core_cmFunc.h" 1
 992 033c 72B6     		cpsid i
 993              	@ 0 "" 2
 994              		.thumb
 995              		.syntax unified
 996              	.LBE543:
 997              	.LBE545:
 998              	.LBE547:
 999              	.LBE549:
 1000              	.LBE558:
 1001              		.loc 1 1341 0
 1002 033e D9F80830 		ldr	r3, [r9, #8]
 1003 0342 0AF10102 		add	r2, r10, #1
 1004 0346 43F00103 		orr	r3, r3, #1
 1005 034a 0292     		str	r2, [sp, #8]
 1006 034c C9F80830 		str	r3, [r9, #8]
 1007 0350 ABE7     		b	.L31
 1008              	.LBE487:
 1009              	.LBE431:
 1010              		.cfi_endproc
 1011              	.LFE292:
 1012              		.size	usb_lld_pump, .-usb_lld_pump
 1013 0352 00BF     		.section	.text.otg_disable_ep.isra.0,"ax",%progbits
 1014              		.align	1
 1015              		.p2align 4,,15
 1016              		.syntax unified
 1017              		.thumb
 1018              		.thumb_func
 1019              		.fpu fpv4-sp-d16
 1020              		.type	otg_disable_ep.isra.0, %function
 1021              	otg_disable_ep.isra.0:
 1022              	.LFB293:
 1023              		.loc 1 132 0
 1024              		.cfi_startproc
 1025              		@ args = 0, pretend = 0, frame = 0
 1026              		@ frame_needed = 0, uses_anonymous_args = 0
ARM GAS  /tmp/ccL9nFWH.s 			page 19


 1027              	.LVL99:
 1028 0000 8B68     		ldr	r3, [r1, #8]
 1029 0002 F0B5     		push	{r4, r5, r6, r7, lr}
 1030              		.cfi_def_cfa_offset 20
 1031              		.cfi_offset 4, -20
 1032              		.cfi_offset 5, -16
 1033              		.cfi_offset 6, -12
 1034              		.cfi_offset 7, -8
 1035              		.cfi_offset 14, -4
 1036              		.loc 1 136 0
 1037 0004 0024     		movs	r4, #0
 1038 0006 03F1010C 		add	ip, r3, #1
 1039              		.loc 1 147 0
 1040 000a 2546     		mov	r5, r4
 1041              		.loc 1 141 0
 1042 000c 4FF0804E 		mov	lr, #1073741824
 1043              		.loc 1 149 0
 1044 0010 4FF0FF36 		mov	r6, #-1
 1045 0014 14E0     		b	.L124
 1046              	.LVL100:
 1047              	.L118:
 1048              		.loc 1 147 0
 1049 0016 C2F80059 		str	r5, [r2, #2304]
 1050              	.L120:
 1051              		.loc 1 148 0
 1052 001a C118     		adds	r1, r0, r3
 1053 001c C1F81059 		str	r5, [r1, #2320]
 1054              		.loc 1 149 0
 1055 0020 C1F80869 		str	r6, [r1, #2312]
 1056              		.loc 1 155 0
 1057 0024 D2F8007B 		ldr	r7, [r2, #2816]
 1058 0028 002F     		cmp	r7, #0
 1059 002a 17DB     		blt	.L131
 1060              		.loc 1 162 0
 1061 002c C2F8005B 		str	r5, [r2, #2816]
 1062              	.L123:
 1063              		.loc 1 163 0
 1064 0030 0344     		add	r3, r3, r0
 1065              		.loc 1 136 0
 1066 0032 0134     		adds	r4, r4, #1
 1067              	.LVL101:
 1068 0034 6445     		cmp	r4, ip
 1069              		.loc 1 163 0
 1070 0036 C3F8105B 		str	r5, [r3, #2832]
 1071              		.loc 1 164 0
 1072 003a C3F8086B 		str	r6, [r3, #2824]
 1073              		.loc 1 136 0
 1074 003e 14D0     		beq	.L132
 1075              	.LVL102:
 1076              	.L124:
 1077 0040 6301     		lsls	r3, r4, #5
 1078 0042 C218     		adds	r2, r0, r3
 1079              		.loc 1 140 0
 1080 0044 D2F80019 		ldr	r1, [r2, #2304]
 1081 0048 0029     		cmp	r1, #0
 1082 004a E4DA     		bge	.L118
 1083              		.loc 1 141 0
ARM GAS  /tmp/ccL9nFWH.s 			page 20


 1084 004c C2F800E9 		str	lr, [r2, #2304]
 1085              		.loc 1 143 0
 1086 0050 1746     		mov	r7, r2
 1087              	.L119:
 1088 0052 D7F80819 		ldr	r1, [r7, #2312]
 1089 0056 8907     		lsls	r1, r1, #30
 1090 0058 FBD5     		bpl	.L119
 1091 005a DEE7     		b	.L120
 1092              	.L131:
 1093              		.loc 1 156 0
 1094 005c C2F800EB 		str	lr, [r2, #2816]
 1095              	.L122:
 1096              		.loc 1 158 0
 1097 0060 D1F8082B 		ldr	r2, [r1, #2824]
 1098 0064 D206     		lsls	r2, r2, #27
 1099 0066 FBD5     		bpl	.L122
 1100 0068 E2E7     		b	.L123
 1101              	.L132:
 1102              		.loc 1 166 0
 1103 006a 4FF00113 		mov	r3, #65537
 1104 006e C0F81C38 		str	r3, [r0, #2076]
 1105              		.loc 1 167 0
 1106 0072 F0BD     		pop	{r4, r5, r6, r7, pc}
 1107              		.cfi_endproc
 1108              	.LFE293:
 1109              		.size	otg_disable_ep.isra.0, .-otg_disable_ep.isra.0
 1110              		.section	.text.usb_lld_init,"ax",%progbits
 1111              		.align	1
 1112              		.p2align 4,,15
 1113              		.global	usb_lld_init
 1114              		.syntax unified
 1115              		.thumb
 1116              		.thumb_func
 1117              		.fpu fpv4-sp-d16
 1118              		.type	usb_lld_init, %function
 1119              	usb_lld_init:
 1120              	.LFB274:
 1121              		.loc 1 744 0
 1122              		.cfi_startproc
 1123              		@ args = 0, pretend = 0, frame = 0
 1124              		@ frame_needed = 0, uses_anonymous_args = 0
 1125 0000 10B5     		push	{r4, lr}
 1126              		.cfi_def_cfa_offset 8
 1127              		.cfi_offset 4, -8
 1128              		.cfi_offset 14, -4
 1129              		.loc 1 748 0
 1130 0002 064C     		ldr	r4, .L135
 1131 0004 2046     		mov	r0, r4
 1132 0006 FFF7FEFF 		bl	usbObjectInit
 1133              	.LVL103:
 1134              		.loc 1 750 0
 1135 000a 4FF0A043 		mov	r3, #1342177280
 1136              		.loc 1 751 0
 1137 000e 044A     		ldr	r2, .L135+4
 1138              		.loc 1 750 0
 1139 0010 2365     		str	r3, [r4, #80]
 1140              		.loc 1 749 0
ARM GAS  /tmp/ccL9nFWH.s 			page 21


 1141 0012 0023     		movs	r3, #0
 1142              		.loc 1 751 0
 1143 0014 6265     		str	r2, [r4, #84]
 1144              		.loc 1 754 0
 1145 0016 C4E91833 		strd	r3, r3, [r4, #96]
 1146              		.loc 1 794 0
 1147 001a 10BD     		pop	{r4, pc}
 1148              	.L136:
 1149              		.align	2
 1150              	.L135:
 1151 001c 00000000 		.word	.LANCHOR0
 1152 0020 00000000 		.word	.LANCHOR1
 1153              		.cfi_endproc
 1154              	.LFE274:
 1155              		.size	usb_lld_init, .-usb_lld_init
 1156              		.section	.text.usb_lld_start,"ax",%progbits
 1157              		.align	1
 1158              		.p2align 4,,15
 1159              		.global	usb_lld_start
 1160              		.syntax unified
 1161              		.thumb
 1162              		.thumb_func
 1163              		.fpu fpv4-sp-d16
 1164              		.type	usb_lld_start, %function
 1165              	usb_lld_start:
 1166              	.LFB275:
 1167              		.loc 1 806 0
 1168              		.cfi_startproc
 1169              		@ args = 0, pretend = 0, frame = 0
 1170              		@ frame_needed = 0, uses_anonymous_args = 0
 1171              	.LVL104:
 1172              		.loc 1 809 0
 1173 0000 0378     		ldrb	r3, [r0]	@ zero_extendqisi2
 1174 0002 012B     		cmp	r3, #1
 1175 0004 00D0     		beq	.L152
 1176 0006 7047     		bx	lr
 1177              	.L152:
 1178              		.loc 1 806 0
 1179 0008 70B5     		push	{r4, r5, r6, lr}
 1180              		.cfi_def_cfa_offset 16
 1181              		.cfi_offset 4, -16
 1182              		.cfi_offset 5, -12
 1183              		.cfi_offset 6, -8
 1184              		.cfi_offset 14, -4
 1185              		.loc 1 812 0
 1186 000a 314B     		ldr	r3, .L156
 1187              		.loc 1 807 0
 1188 000c 066D     		ldr	r6, [r0, #80]
 1189              		.loc 1 812 0
 1190 000e 9842     		cmp	r0, r3
 1191              		.loc 1 806 0
 1192 0010 82B0     		sub	sp, sp, #8
 1193              		.cfi_def_cfa_offset 24
 1194 0012 0546     		mov	r5, r0
 1195              		.loc 1 812 0
 1196 0014 3BD0     		beq	.L153
 1197              		.loc 1 807 0
ARM GAS  /tmp/ccL9nFWH.s 			page 22


 1198 0016 3446     		mov	r4, r6
 1199              	.LVL105:
 1200              	.L139:
 1201              		.loc 1 836 0
 1202 0018 0023     		movs	r3, #0
 1203              		.loc 1 841 0
 1204 001a 2E4A     		ldr	r2, .L156+4
 1205              		.loc 1 836 0
 1206 001c EB65     		str	r3, [r5, #92]
 1207              		.loc 1 844 0
 1208 001e 2E49     		ldr	r1, .L156+8
 1209              		.loc 1 841 0
 1210 0020 F260     		str	r2, [r6, #12]
 1211              		.loc 1 851 0
 1212 0022 4FF43412 		mov	r2, #2949120
 1213              		.loc 1 844 0
 1214 0026 C6F80018 		str	r1, [r6, #2048]
 1215              	.LBB567:
 1216              	.LBB568:
 1217              	.LBB569:
 1218              	.LBB570:
 1219              		.loc 4 573 0
 1220 002a 2020     		movs	r0, #32
 1221              	.LBE570:
 1222              	.LBE569:
 1223              	.LBE568:
 1224              	.LBE567:
 1225              		.loc 1 847 0
 1226 002c C6F8003E 		str	r3, [r6, #3584]
 1227              		.loc 1 851 0
 1228 0030 B263     		str	r2, [r6, #56]
 1229              	.LVL106:
 1230              	.LBB576:
 1231              	.LBB575:
 1232              	.LBB572:
 1233              	.LBB571:
 1234              		.loc 4 573 0
 1235 0032 FFF7FEFF 		bl	chSysPolledDelayX
 1236              	.LVL107:
 1237              	.LBE571:
 1238              	.LBE572:
 1239              		.loc 1 121 0
 1240 0036 0123     		movs	r3, #1
 1241 0038 2361     		str	r3, [r4, #16]
 1242              	.L140:
 1243              		.loc 1 122 0
 1244 003a 2369     		ldr	r3, [r4, #16]
 1245 003c DB07     		lsls	r3, r3, #31
 1246 003e FCD4     		bmi	.L140
 1247              	.LVL108:
 1248              	.LBB573:
 1249              	.LBB574:
 1250              		.loc 4 573 0
 1251 0040 0C20     		movs	r0, #12
 1252 0042 FFF7FEFF 		bl	chSysPolledDelayX
 1253              	.LVL109:
 1254              	.L141:
ARM GAS  /tmp/ccL9nFWH.s 			page 23


 1255              	.LBE574:
 1256              	.LBE573:
 1257              		.loc 1 128 0
 1258 0046 2369     		ldr	r3, [r4, #16]
 1259 0048 002B     		cmp	r3, #0
 1260 004a FCDA     		bge	.L141
 1261              	.LBE575:
 1262              	.LBE576:
 1263              		.loc 1 861 0
 1264 004c 0024     		movs	r4, #0
 1265 004e B460     		str	r4, [r6, #8]
 1266              		.loc 1 864 0
 1267 0050 D5E91401 		ldrd	r0, r1, [r5, #80]
 1268 0054 FFF7FEFF 		bl	otg_disable_ep.isra.0
 1269              	.LVL110:
 1270              		.loc 1 871 0
 1271 0058 6B68     		ldr	r3, [r5, #4]
 1272              		.loc 1 868 0
 1273 005a C6F81048 		str	r4, [r6, #2064]
 1274              		.loc 1 871 0
 1275 005e DB68     		ldr	r3, [r3, #12]
 1276              		.loc 1 869 0
 1277 0060 C6F81448 		str	r4, [r6, #2068]
 1278              		.loc 1 870 0
 1279 0064 C6F81C48 		str	r4, [r6, #2076]
 1280              		.loc 1 871 0
 1281 0068 6BB1     		cbz	r3, .L154
 1282              		.loc 1 875 0
 1283 006a 43F20803 		movw	r3, #12296
 1284 006e B361     		str	r3, [r6, #24]
 1285              	.L143:
 1286              		.loc 1 881 0
 1287 0070 6B6E     		ldr	r3, [r5, #100]
 1288              		.loc 1 877 0
 1289 0072 4FF0FF32 		mov	r2, #-1
 1290 0076 7261     		str	r2, [r6, #20]
 1291              		.loc 1 881 0
 1292 0078 D3B1     		cbz	r3, .L155
 1293              	.L144:
 1294              		.loc 1 891 0
 1295 007a B368     		ldr	r3, [r6, #8]
 1296 007c 43F00103 		orr	r3, r3, #1
 1297 0080 B360     		str	r3, [r6, #8]
 1298              		.loc 1 893 0
 1299 0082 02B0     		add	sp, sp, #8
 1300              		.cfi_remember_state
 1301              		.cfi_def_cfa_offset 16
 1302              		@ sp needed
 1303 0084 70BD     		pop	{r4, r5, r6, pc}
 1304              	.LVL111:
 1305              	.L154:
 1306              		.cfi_restore_state
 1307              		.loc 1 872 0
 1308 0086 4FF44053 		mov	r3, #12288
 1309 008a B361     		str	r3, [r6, #24]
 1310 008c F0E7     		b	.L143
 1311              	.LVL112:
ARM GAS  /tmp/ccL9nFWH.s 			page 24


 1312              	.L153:
 1313              		.loc 1 814 0
 1314 008e 134B     		ldr	r3, .L156+12
 1315 0090 5A6B     		ldr	r2, [r3, #52]
 1316 0092 42F08002 		orr	r2, r2, #128
 1317 0096 5A63     		str	r2, [r3, #52]
 1318              		.loc 1 815 0
 1319 0098 5A69     		ldr	r2, [r3, #20]
 1320 009a 0020     		movs	r0, #0
 1321              	.LVL113:
 1322 009c 42F08002 		orr	r2, r2, #128
 1323 00a0 5A61     		str	r2, [r3, #20]
 1324              		.loc 1 818 0
 1325 00a2 0E21     		movs	r1, #14
 1326              		.loc 1 815 0
 1327 00a4 5861     		str	r0, [r3, #20]
 1328              		.loc 1 818 0
 1329 00a6 4320     		movs	r0, #67
 1330 00a8 FFF7FEFF 		bl	nvicEnableVector
 1331              	.LVL114:
 1332 00ac 2C6D     		ldr	r4, [r5, #80]
 1333 00ae B3E7     		b	.L139
 1334              	.LVL115:
 1335              	.L155:
 1336              		.loc 1 882 0
 1337 00b0 0B4B     		ldr	r3, .L156+16
 1338 00b2 0095     		str	r5, [sp]
 1339 00b4 0222     		movs	r2, #2
 1340 00b6 4FF40671 		mov	r1, #536
 1341 00ba 05F16800 		add	r0, r5, #104
 1342 00be FFF7FEFF 		bl	chThdCreateI
 1343              	.LVL116:
 1344 00c2 6866     		str	r0, [r5, #100]
 1345              	.LVL117:
 1346              	.LBB577:
 1347              	.LBB578:
 1348              		.file 5 "ChibiOS_3.0.2/os/rt/include/chthreads.h"
 1349              		.loc 5 249 0
 1350 00c4 FFF7FEFF 		bl	chSchReadyI
 1351              	.LVL118:
 1352              	.LBE578:
 1353              	.LBE577:
 1354              		.loc 1 886 0
 1355 00c8 FFF7FEFF 		bl	chSchRescheduleS
 1356              	.LVL119:
 1357 00cc D5E7     		b	.L144
 1358              	.L157:
 1359 00ce 00BF     		.align	2
 1360              	.L156:
 1361 00d0 00000000 		.word	.LANCHOR0
 1362 00d4 40140040 		.word	1073747008
 1363 00d8 03002002 		.word	35651587
 1364 00dc 00380240 		.word	1073887232
 1365 00e0 00000000 		.word	usb_lld_pump
 1366              		.cfi_endproc
 1367              	.LFE275:
 1368              		.size	usb_lld_start, .-usb_lld_start
ARM GAS  /tmp/ccL9nFWH.s 			page 25


 1369              		.section	.text.usb_lld_stop,"ax",%progbits
 1370              		.align	1
 1371              		.p2align 4,,15
 1372              		.global	usb_lld_stop
 1373              		.syntax unified
 1374              		.thumb
 1375              		.thumb_func
 1376              		.fpu fpv4-sp-d16
 1377              		.type	usb_lld_stop, %function
 1378              	usb_lld_stop:
 1379              	.LFB276:
 1380              		.loc 1 902 0
 1381              		.cfi_startproc
 1382              		@ args = 0, pretend = 0, frame = 0
 1383              		@ frame_needed = 0, uses_anonymous_args = 0
 1384              	.LVL120:
 1385 0000 38B5     		push	{r3, r4, r5, lr}
 1386              		.cfi_def_cfa_offset 16
 1387              		.cfi_offset 3, -16
 1388              		.cfi_offset 4, -12
 1389              		.cfi_offset 5, -8
 1390              		.cfi_offset 14, -4
 1391              		.loc 1 906 0
 1392 0002 0378     		ldrb	r3, [r0]	@ zero_extendqisi2
 1393 0004 012B     		cmp	r3, #1
 1394 0006 0ED0     		beq	.L158
 1395              		.loc 1 910 0
 1396 0008 D0E91451 		ldrd	r5, r1, [r0, #80]
 1397 000c 0446     		mov	r4, r0
 1398 000e 2846     		mov	r0, r5
 1399              	.LVL121:
 1400 0010 FFF7FEFF 		bl	otg_disable_ep.isra.0
 1401              	.LVL122:
 1402              		.loc 1 919 0
 1403 0014 094A     		ldr	r2, .L164
 1404              		.loc 1 912 0
 1405 0016 0023     		movs	r3, #0
 1406              		.loc 1 919 0
 1407 0018 9442     		cmp	r4, r2
 1408              		.loc 1 912 0
 1409 001a E365     		str	r3, [r4, #92]
 1410              		.loc 1 914 0
 1411 001c C5F81C38 		str	r3, [r5, #2076]
 1412              		.loc 1 915 0
 1413 0020 AB60     		str	r3, [r5, #8]
 1414              		.loc 1 916 0
 1415 0022 AB63     		str	r3, [r5, #56]
 1416              		.loc 1 919 0
 1417 0024 00D0     		beq	.L163
 1418              	.LVL123:
 1419              	.L158:
 1420              		.loc 1 932 0
 1421 0026 38BD     		pop	{r3, r4, r5, pc}
 1422              	.LVL124:
 1423              	.L163:
 1424              		.loc 1 920 0
 1425 0028 4320     		movs	r0, #67
ARM GAS  /tmp/ccL9nFWH.s 			page 26


 1426 002a FFF7FEFF 		bl	nvicDisableVector
 1427              	.LVL125:
 1428              		.loc 1 921 0
 1429 002e 044A     		ldr	r2, .L164+4
 1430 0030 536B     		ldr	r3, [r2, #52]
 1431 0032 23F08003 		bic	r3, r3, #128
 1432 0036 5363     		str	r3, [r2, #52]
 1433              		.loc 1 932 0
 1434 0038 38BD     		pop	{r3, r4, r5, pc}
 1435              	.LVL126:
 1436              	.L165:
 1437 003a 00BF     		.align	2
 1438              	.L164:
 1439 003c 00000000 		.word	.LANCHOR0
 1440 0040 00380240 		.word	1073887232
 1441              		.cfi_endproc
 1442              	.LFE276:
 1443              		.size	usb_lld_stop, .-usb_lld_stop
 1444              		.section	.text.usb_lld_reset,"ax",%progbits
 1445              		.align	1
 1446              		.p2align 4,,15
 1447              		.global	usb_lld_reset
 1448              		.syntax unified
 1449              		.thumb
 1450              		.thumb_func
 1451              		.fpu fpv4-sp-d16
 1452              		.type	usb_lld_reset, %function
 1453              	usb_lld_reset:
 1454              	.LFB277:
 1455              		.loc 1 941 0
 1456              		.cfi_startproc
 1457              		@ args = 0, pretend = 0, frame = 0
 1458              		@ frame_needed = 0, uses_anonymous_args = 0
 1459              	.LVL127:
 1460 0000 F8B5     		push	{r3, r4, r5, r6, r7, lr}
 1461              		.cfi_def_cfa_offset 24
 1462              		.cfi_offset 3, -24
 1463              		.cfi_offset 4, -20
 1464              		.cfi_offset 5, -16
 1465              		.cfi_offset 6, -12
 1466              		.cfi_offset 7, -8
 1467              		.cfi_offset 14, -4
 1468              		.loc 1 943 0
 1469 0002 056D     		ldr	r5, [r0, #80]
 1470              	.LVL128:
 1471              	.LBB579:
 1472              	.LBB580:
 1473              		.loc 1 182 0
 1474 0004 2023     		movs	r3, #32
 1475              	.LBE580:
 1476              	.LBE579:
 1477              		.loc 1 941 0
 1478 0006 0646     		mov	r6, r0
 1479              	.LVL129:
 1480              	.LBB584:
 1481              	.LBB583:
 1482              		.loc 1 182 0
ARM GAS  /tmp/ccL9nFWH.s 			page 27


 1483 0008 2B61     		str	r3, [r5, #16]
 1484              	.L167:
 1485              		.loc 1 183 0
 1486 000a 2C69     		ldr	r4, [r5, #16]
 1487 000c 14F02004 		ands	r4, r4, #32
 1488 0010 FBD1     		bne	.L167
 1489              	.LVL130:
 1490              	.LBB581:
 1491              	.LBB582:
 1492              		.loc 4 573 0
 1493 0012 0C20     		movs	r0, #12
 1494              	.LVL131:
 1495 0014 FFF7FEFF 		bl	chSysPolledDelayX
 1496              	.LVL132:
 1497              	.LBE582:
 1498              	.LBE581:
 1499              	.LBE583:
 1500              	.LBE584:
 1501              		.loc 1 949 0
 1502 0018 776D     		ldr	r7, [r6, #84]
 1503 001a BA68     		ldr	r2, [r7, #8]
 1504 001c 2346     		mov	r3, r4
 1505              		.loc 1 950 0
 1506 001e 4FF00060 		mov	r0, #134217728
 1507 0022 541C     		adds	r4, r2, #1
 1508              		.loc 1 952 0
 1509 0024 FF21     		movs	r1, #255
 1510              	.LVL133:
 1511              	.L168:
 1512 0026 05EB4312 		add	r2, r5, r3, lsl #5
 1513              		.loc 1 949 0 discriminator 3
 1514 002a 0133     		adds	r3, r3, #1
 1515              	.LVL134:
 1516 002c 9C42     		cmp	r4, r3
 1517              		.loc 1 950 0 discriminator 3
 1518 002e C2F80009 		str	r0, [r2, #2304]
 1519              		.loc 1 951 0 discriminator 3
 1520 0032 C2F8000B 		str	r0, [r2, #2816]
 1521              		.loc 1 952 0 discriminator 3
 1522 0036 C2F80819 		str	r1, [r2, #2312]
 1523              		.loc 1 953 0 discriminator 3
 1524 003a C2F8081B 		str	r1, [r2, #2824]
 1525              		.loc 1 949 0 discriminator 3
 1526 003e F2D1     		bne	.L168
 1527              	.LBB585:
 1528              	.LBB586:
 1529              		.loc 1 198 0
 1530 0040 3B68     		ldr	r3, [r7]
 1531              	.LVL135:
 1532              	.LBE586:
 1533              	.LBE585:
 1534              		.loc 1 958 0
 1535 0042 4FF00112 		mov	r2, #65537
 1536              		.loc 1 957 0
 1537 0046 4FF0FF31 		mov	r1, #-1
 1538 004a C5F81818 		str	r1, [r5, #2072]
 1539              		.loc 1 958 0
ARM GAS  /tmp/ccL9nFWH.s 			page 28


 1540 004e C5F81C28 		str	r2, [r5, #2076]
 1541              	.LVL136:
 1542              	.LBB588:
 1543              	.LBB587:
 1544              		.loc 1 198 0
 1545 0052 B365     		str	r3, [r6, #88]
 1546              	.LBE587:
 1547              	.LBE588:
 1548              		.loc 1 964 0
 1549 0054 3B68     		ldr	r3, [r7]
 1550              		.loc 1 965 0
 1551 0056 326D     		ldr	r2, [r6, #80]
 1552              	.LVL137:
 1553              		.loc 1 964 0
 1554 0058 6B62     		str	r3, [r5, #36]
 1555              	.LBB589:
 1556              	.LBB590:
 1557              		.loc 1 172 0
 1558 005a 1023     		movs	r3, #16
 1559 005c 1361     		str	r3, [r2, #16]
 1560              	.L169:
 1561              		.loc 1 173 0
 1562 005e 1469     		ldr	r4, [r2, #16]
 1563 0060 14F01004 		ands	r4, r4, #16
 1564 0064 FBD1     		bne	.L169
 1565              	.LVL138:
 1566              	.LBB591:
 1567              	.LBB592:
 1568              		.loc 4 573 0
 1569 0066 0C20     		movs	r0, #12
 1570 0068 FFF7FEFF 		bl	chSysPolledDelayX
 1571              	.LVL139:
 1572              	.LBE592:
 1573              	.LBE591:
 1574              	.LBE590:
 1575              	.LBE589:
 1576              		.loc 1 968 0
 1577 006c D5F80038 		ldr	r3, [r5, #2048]
 1578              		.loc 1 978 0
 1579 0070 104A     		ldr	r2, .L174
 1580              		.loc 1 976 0
 1581 0072 1149     		ldr	r1, .L174+4
 1582              		.loc 1 968 0
 1583 0074 23F4FE63 		bic	r3, r3, #2032
 1584 0078 C5F80038 		str	r3, [r5, #2048]
 1585              		.loc 1 971 0
 1586 007c AB69     		ldr	r3, [r5, #24]
 1587 007e 43F44023 		orr	r3, r3, #786432
 1588 0082 43F01003 		orr	r3, r3, #16
 1589 0086 AB61     		str	r3, [r5, #24]
 1590              		.loc 1 972 0
 1591 0088 0923     		movs	r3, #9
 1592 008a C5F81038 		str	r3, [r5, #2064]
 1593              		.loc 1 973 0
 1594 008e C5F81438 		str	r3, [r5, #2068]
 1595              		.loc 1 976 0
 1596 0092 F160     		str	r1, [r6, #12]
ARM GAS  /tmp/ccL9nFWH.s 			page 29


 1597              		.loc 1 977 0
 1598 0094 C5F8104B 		str	r4, [r5, #2832]
 1599              		.loc 1 978 0
 1600 0098 C5F8002B 		str	r2, [r5, #2816]
 1601              		.loc 1 980 0
 1602 009c C5F81049 		str	r4, [r5, #2320]
 1603              		.loc 1 981 0
 1604 00a0 C5F80029 		str	r2, [r5, #2304]
 1605              	.LVL140:
 1606              	.LBB593:
 1607              	.LBB594:
 1608              		.loc 1 212 0
 1609 00a4 B36D     		ldr	r3, [r6, #88]
 1610              	.LVL141:
 1611              		.loc 1 213 0
 1612 00a6 03F11002 		add	r2, r3, #16
 1613              	.LBE594:
 1614              	.LBE593:
 1615              		.loc 1 983 0
 1616 00aa 43F48013 		orr	r3, r3, #1048576
 1617              	.LVL142:
 1618              	.LBB596:
 1619              	.LBB595:
 1620              		.loc 1 213 0
 1621 00ae B265     		str	r2, [r6, #88]
 1622              	.LVL143:
 1623              	.LBE595:
 1624              	.LBE596:
 1625              		.loc 1 983 0
 1626 00b0 AB62     		str	r3, [r5, #40]
 1627              		.loc 1 986 0
 1628 00b2 F8BD     		pop	{r3, r4, r5, r6, r7, pc}
 1629              	.LVL144:
 1630              	.L175:
 1631              		.align	2
 1632              	.L174:
 1633 00b4 40800010 		.word	268468288
 1634 00b8 00000000 		.word	.LANCHOR2
 1635              		.cfi_endproc
 1636              	.LFE277:
 1637              		.size	usb_lld_reset, .-usb_lld_reset
 1638              		.section	.text.usb_lld_set_address,"ax",%progbits
 1639              		.align	1
 1640              		.p2align 4,,15
 1641              		.global	usb_lld_set_address
 1642              		.syntax unified
 1643              		.thumb
 1644              		.thumb_func
 1645              		.fpu fpv4-sp-d16
 1646              		.type	usb_lld_set_address, %function
 1647              	usb_lld_set_address:
 1648              	.LFB278:
 1649              		.loc 1 995 0
 1650              		.cfi_startproc
 1651              		@ args = 0, pretend = 0, frame = 0
 1652              		@ frame_needed = 0, uses_anonymous_args = 0
 1653              		@ link register save eliminated.
ARM GAS  /tmp/ccL9nFWH.s 			page 30


 1654              	.LVL145:
 1655              		.loc 1 996 0
 1656 0000 026D     		ldr	r2, [r0, #80]
 1657              	.LVL146:
 1658              		.loc 1 998 0
 1659 0002 90F84E10 		ldrb	r1, [r0, #78]	@ zero_extendqisi2
 1660 0006 D2F80038 		ldr	r3, [r2, #2048]
 1661 000a 23F4FE63 		bic	r3, r3, #2032
 1662 000e 43EA0113 		orr	r3, r3, r1, lsl #4
 1663 0012 C2F80038 		str	r3, [r2, #2048]
 1664              		.loc 1 999 0
 1665 0016 7047     		bx	lr
 1666              		.cfi_endproc
 1667              	.LFE278:
 1668              		.size	usb_lld_set_address, .-usb_lld_set_address
 1669              		.section	.text.usb_lld_init_endpoint,"ax",%progbits
 1670              		.align	1
 1671              		.p2align 4,,15
 1672              		.global	usb_lld_init_endpoint
 1673              		.syntax unified
 1674              		.thumb
 1675              		.thumb_func
 1676              		.fpu fpv4-sp-d16
 1677              		.type	usb_lld_init_endpoint, %function
 1678              	usb_lld_init_endpoint:
 1679              	.LFB279:
 1680              		.loc 1 1009 0
 1681              		.cfi_startproc
 1682              		@ args = 0, pretend = 0, frame = 0
 1683              		@ frame_needed = 0, uses_anonymous_args = 0
 1684              	.LVL147:
 1685 0000 2DE9F843 		push	{r3, r4, r5, r6, r7, r8, r9, lr}
 1686              		.cfi_def_cfa_offset 32
 1687              		.cfi_offset 3, -32
 1688              		.cfi_offset 4, -28
 1689              		.cfi_offset 5, -24
 1690              		.cfi_offset 6, -20
 1691              		.cfi_offset 7, -16
 1692              		.cfi_offset 8, -12
 1693              		.cfi_offset 9, -8
 1694              		.cfi_offset 14, -4
 1695 0004 0FFA81F8 		sxth	r8, r1
 1696 0008 00EB8807 		add	r7, r0, r8, lsl #2
 1697              		.loc 1 1009 0
 1698 000c 0D46     		mov	r5, r1
 1699              	.LVL148:
 1700              		.loc 1 1014 0
 1701 000e FB68     		ldr	r3, [r7, #12]
 1702 0010 1A68     		ldr	r2, [r3]
 1703 0012 02F00302 		and	r2, r2, #3
 1704 0016 022A     		cmp	r2, #2
 1705 0018 00F09780 		beq	.L179
 1706 001c 032A     		cmp	r2, #3
 1707 001e 00F09180 		beq	.L180
 1708              		.loc 1 1016 0
 1709 0022 4B4C     		ldr	r4, .L193
 1710 0024 4B49     		ldr	r1, .L193+4
ARM GAS  /tmp/ccL9nFWH.s 			page 31


 1711              	.LVL149:
 1712 0026 012A     		cmp	r2, #1
 1713 0028 0CBF     		ite	eq
 1714 002a A146     		moveq	r9, r4
 1715 002c 8946     		movne	r9, r1
 1716              	.L181:
 1717              		.loc 1 1011 0
 1718 002e 046D     		ldr	r4, [r0, #80]
 1719              	.LVL150:
 1720              		.loc 1 1033 0
 1721 0030 DE68     		ldr	r6, [r3, #12]
 1722              		.loc 1 1032 0
 1723 0032 6901     		lsls	r1, r5, #5
 1724 0034 6218     		adds	r2, r4, r1
 1725 0036 4FF0000C 		mov	ip, #0
 1726 003a C2F810CB 		str	ip, [r2, #2832]
 1727 003e 05F11002 		add	r2, r5, #16
 1728 0042 4FF0010C 		mov	ip, #1
 1729 0046 0CFA02F2 		lsl	r2, ip, r2
 1730              		.loc 1 1033 0
 1731 004a 002E     		cmp	r6, #0
 1732 004c 4BD0     		beq	.L182
 1733              		.loc 1 1034 0
 1734 004e B3F812C0 		ldrh	ip, [r3, #18]
 1735 0052 05F15806 		add	r6, r5, #88
 1736 0056 7601     		lsls	r6, r6, #5
 1737 0058 4CEA090C 		orr	ip, ip, r9
 1738 005c 44F806C0 		str	ip, [r4, r6]
 1739              		.loc 1 1035 0
 1740 0060 D4F81C68 		ldr	r6, [r4, #2076]
 1741 0064 3243     		orrs	r2, r2, r6
 1742 0066 C4F81C28 		str	r2, [r4, #2076]
 1743              	.L183:
 1744              		.loc 1 1043 0
 1745 006a 6618     		adds	r6, r4, r1
 1746              		.loc 1 1044 0
 1747 006c D3F808C0 		ldr	ip, [r3, #8]
 1748              		.loc 1 1043 0
 1749 0070 0022     		movs	r2, #0
 1750 0072 A901     		lsls	r1, r5, #6
 1751 0074 C6F81029 		str	r2, [r6, #2320]
 1752 0078 41F02001 		orr	r1, r1, #32
 1753 007c 6A1E     		subs	r2, r5, #1
 1754              		.loc 1 1044 0
 1755 007e BCF1000F 		cmp	ip, #0
 1756 0082 3FD0     		beq	.L184
 1757              		.loc 1 1047 0
 1758 0084 B3F81CC0 		ldrh	ip, [r3, #28]
 1759              		.loc 1 1046 0
 1760 0088 1E8A     		ldrh	r6, [r3, #16]
 1761              		.loc 1 1047 0
 1762 008a BCF1010F 		cmp	ip, #1
 1763              		.loc 1 1046 0
 1764 008e 4FEA9603 		lsr	r3, r6, #2
 1765              	.LVL151:
 1766              		.loc 1 1049 0
 1767 0092 02F14002 		add	r2, r2, #64
ARM GAS  /tmp/ccL9nFWH.s 			page 32


 1768              	.LBB597:
 1769              	.LBB598:
 1770              		.loc 1 212 0
 1771 0096 866D     		ldr	r6, [r0, #88]
 1772              	.LBE598:
 1773              	.LBE597:
 1774              		.loc 1 1048 0
 1775 0098 88BF     		it	hi
 1776 009a 0CFB03F3 		mulhi	r3, ip, r3
 1777              	.LVL152:
 1778              		.loc 1 1049 0
 1779 009e 04EB8202 		add	r2, r4, r2, lsl #2
 1780              	.LBB601:
 1781              	.LBB599:
 1782              		.loc 1 213 0
 1783 00a2 03EB060C 		add	ip, r3, r6
 1784              	.LBE599:
 1785              	.LBE601:
 1786              		.loc 1 1049 0
 1787 00a6 46EA0343 		orr	r3, r6, r3, lsl #16
 1788              	.LVL153:
 1789              	.LBB602:
 1790              	.LBB600:
 1791              		.loc 1 213 0
 1792 00aa C0F858C0 		str	ip, [r0, #88]
 1793              	.LVL154:
 1794              	.LBE600:
 1795              	.LBE602:
 1796              		.loc 1 1049 0
 1797 00ae 5360     		str	r3, [r2, #4]
 1798              	.LVL155:
 1799              	.LBB603:
 1800              	.LBB604:
 1801              		.loc 1 182 0
 1802 00b0 2161     		str	r1, [r4, #16]
 1803              	.L186:
 1804              		.loc 1 183 0
 1805 00b2 2369     		ldr	r3, [r4, #16]
 1806 00b4 9A06     		lsls	r2, r3, #26
 1807 00b6 FCD4     		bmi	.L186
 1808              	.LVL156:
 1809              	.LBB605:
 1810              	.LBB606:
 1811              		.loc 4 573 0
 1812 00b8 0C20     		movs	r0, #12
 1813              	.LVL157:
 1814 00ba FFF7FEFF 		bl	chSysPolledDelayX
 1815              	.LVL158:
 1816              	.LBE606:
 1817              	.LBE605:
 1818              	.LBE604:
 1819              	.LBE603:
 1820              		.loc 1 1055 0
 1821 00be FB68     		ldr	r3, [r7, #12]
 1822 00c0 1A8A     		ldrh	r2, [r3, #16]
 1823              		.loc 1 1053 0
 1824 00c2 05F14803 		add	r3, r5, #72
ARM GAS  /tmp/ccL9nFWH.s 			page 33


 1825              		.loc 1 1054 0
 1826 00c6 42EA8552 		orr	r2, r2, r5, lsl #22
 1827              		.loc 1 1053 0
 1828 00ca 5B01     		lsls	r3, r3, #5
 1829              		.loc 1 1054 0
 1830 00cc 42EA0902 		orr	r2, r2, r9
 1831              		.loc 1 1053 0
 1832 00d0 E250     		str	r2, [r4, r3]
 1833              		.loc 1 1056 0
 1834 00d2 0121     		movs	r1, #1
 1835 00d4 D4F81C38 		ldr	r3, [r4, #2076]
 1836 00d8 01FA05F5 		lsl	r5, r1, r5
 1837 00dc 1D43     		orrs	r5, r5, r3
 1838 00de C4F81C58 		str	r5, [r4, #2076]
 1839              		.loc 1 1064 0
 1840 00e2 BDE8F883 		pop	{r3, r4, r5, r6, r7, r8, r9, pc}
 1841              	.LVL159:
 1842              	.L182:
 1843 00e6 04EB481C 		add	ip, r4, r8, lsl #5
 1844              		.loc 1 1038 0
 1845 00ea DCF8006B 		ldr	r6, [ip, #2816]
 1846 00ee 26F40046 		bic	r6, r6, #32768
 1847 00f2 CCF8006B 		str	r6, [ip, #2816]
 1848              		.loc 1 1039 0
 1849 00f6 D4F81C68 		ldr	r6, [r4, #2076]
 1850 00fa 26EA0202 		bic	r2, r6, r2
 1851 00fe C4F81C28 		str	r2, [r4, #2076]
 1852 0102 B2E7     		b	.L183
 1853              	.L184:
 1854              		.loc 1 1059 0
 1855 0104 05F13F03 		add	r3, r5, #63
 1856 0108 04EB8303 		add	r3, r4, r3, lsl #2
 1857 010c 124A     		ldr	r2, .L193+8
 1858 010e 5A60     		str	r2, [r3, #4]
 1859              	.LVL160:
 1860              	.LBB607:
 1861              	.LBB608:
 1862              		.loc 1 182 0
 1863 0110 2161     		str	r1, [r4, #16]
 1864              	.L188:
 1865              		.loc 1 183 0
 1866 0112 2369     		ldr	r3, [r4, #16]
 1867 0114 9B06     		lsls	r3, r3, #26
 1868 0116 FCD4     		bmi	.L188
 1869              	.LVL161:
 1870 0118 04EB4818 		add	r8, r4, r8, lsl #5
 1871              	.LBB609:
 1872              	.LBB610:
 1873              		.loc 4 573 0
 1874 011c 0C20     		movs	r0, #12
 1875              	.LVL162:
 1876 011e FFF7FEFF 		bl	chSysPolledDelayX
 1877              	.LVL163:
 1878              	.LBE610:
 1879              	.LBE609:
 1880              	.LBE608:
 1881              	.LBE607:
ARM GAS  /tmp/ccL9nFWH.s 			page 34


 1882              		.loc 1 1061 0
 1883 0122 D8F80039 		ldr	r3, [r8, #2304]
 1884 0126 23F40043 		bic	r3, r3, #32768
 1885 012a C8F80039 		str	r3, [r8, #2304]
 1886              		.loc 1 1062 0
 1887 012e D4F81C38 		ldr	r3, [r4, #2076]
 1888 0132 0121     		movs	r1, #1
 1889 0134 01FA05F5 		lsl	r5, r1, r5
 1890 0138 23EA0505 		bic	r5, r3, r5
 1891 013c C4F81C58 		str	r5, [r4, #2076]
 1892              		.loc 1 1064 0
 1893 0140 BDE8F883 		pop	{r3, r4, r5, r6, r7, r8, r9, pc}
 1894              	.LVL164:
 1895              	.L180:
 1896              		.loc 1 1025 0
 1897 0144 DFF81490 		ldr	r9, .L193+12
 1898              		.loc 1 1026 0
 1899 0148 71E7     		b	.L181
 1900              	.LVL165:
 1901              	.L179:
 1902              		.loc 1 1022 0
 1903 014a DFF81490 		ldr	r9, .L193+16
 1904              		.loc 1 1023 0
 1905 014e 6EE7     		b	.L181
 1906              	.L194:
 1907              		.align	2
 1908              	.L193:
 1909 0150 00800410 		.word	268730368
 1910 0154 00800010 		.word	268468224
 1911 0158 00040002 		.word	33555456
 1912 015c 00800C10 		.word	269254656
 1913 0160 00800810 		.word	268992512
 1914              		.cfi_endproc
 1915              	.LFE279:
 1916              		.size	usb_lld_init_endpoint, .-usb_lld_init_endpoint
 1917              		.section	.text.usb_lld_disable_endpoints,"ax",%progbits
 1918              		.align	1
 1919              		.p2align 4,,15
 1920              		.global	usb_lld_disable_endpoints
 1921              		.syntax unified
 1922              		.thumb
 1923              		.thumb_func
 1924              		.fpu fpv4-sp-d16
 1925              		.type	usb_lld_disable_endpoints, %function
 1926              	usb_lld_disable_endpoints:
 1927              	.LFB280:
 1928              		.loc 1 1073 0
 1929              		.cfi_startproc
 1930              		@ args = 0, pretend = 0, frame = 0
 1931              		@ frame_needed = 0, uses_anonymous_args = 0
 1932              		@ link register save eliminated.
 1933              	.LVL166:
 1934              		.loc 1 1073 0
 1935 0000 0346     		mov	r3, r0
 1936              		.loc 1 1079 0
 1937 0002 D0E91401 		ldrd	r0, r1, [r0, #80]
 1938              	.LVL167:
ARM GAS  /tmp/ccL9nFWH.s 			page 35


 1939              	.LBB611:
 1940              	.LBB612:
 1941              		.loc 1 198 0
 1942 0006 0A68     		ldr	r2, [r1]
 1943 0008 9A65     		str	r2, [r3, #88]
 1944              	.LBE612:
 1945              	.LBE611:
 1946              		.loc 1 1079 0
 1947 000a FFF7FEBF 		b	otg_disable_ep.isra.0
 1948              	.LVL168:
 1949              		.cfi_endproc
 1950              	.LFE280:
 1951              		.size	usb_lld_disable_endpoints, .-usb_lld_disable_endpoints
 1952 000e 00BF     		.section	.text.usb_lld_get_status_out,"ax",%progbits
 1953              		.align	1
 1954              		.p2align 4,,15
 1955              		.global	usb_lld_get_status_out
 1956              		.syntax unified
 1957              		.thumb
 1958              		.thumb_func
 1959              		.fpu fpv4-sp-d16
 1960              		.type	usb_lld_get_status_out, %function
 1961              	usb_lld_get_status_out:
 1962              	.LFB281:
 1963              		.loc 1 1094 0
 1964              		.cfi_startproc
 1965              		@ args = 0, pretend = 0, frame = 0
 1966              		@ frame_needed = 0, uses_anonymous_args = 0
 1967              		@ link register save eliminated.
 1968              	.LVL169:
 1969              		.loc 1 1099 0
 1970 0000 5831     		adds	r1, r1, #88
 1971              	.LVL170:
 1972 0002 036D     		ldr	r3, [r0, #80]
 1973 0004 4901     		lsls	r1, r1, #5
 1974 0006 5B58     		ldr	r3, [r3, r1]
 1975              	.LVL171:
 1976              		.loc 1 1100 0
 1977 0008 13F40040 		ands	r0, r3, #32768
 1978              	.LVL172:
 1979 000c 04D0     		beq	.L197
 1980              		.loc 1 1102 0
 1981 000e 13F4001F 		tst	r3, #2097152
 1982              		.loc 1 1104 0
 1983 0012 14BF     		ite	ne
 1984 0014 0120     		movne	r0, #1
 1985 0016 0220     		moveq	r0, #2
 1986              	.L197:
 1987              		.loc 1 1105 0
 1988 0018 7047     		bx	lr
 1989              		.cfi_endproc
 1990              	.LFE281:
 1991              		.size	usb_lld_get_status_out, .-usb_lld_get_status_out
 1992 001a 00BF     		.section	.text.usb_lld_get_status_in,"ax",%progbits
 1993              		.align	1
 1994              		.p2align 4,,15
 1995              		.global	usb_lld_get_status_in
ARM GAS  /tmp/ccL9nFWH.s 			page 36


 1996              		.syntax unified
 1997              		.thumb
 1998              		.thumb_func
 1999              		.fpu fpv4-sp-d16
 2000              		.type	usb_lld_get_status_in, %function
 2001              	usb_lld_get_status_in:
 2002              	.LFB282:
 2003              		.loc 1 1119 0
 2004              		.cfi_startproc
 2005              		@ args = 0, pretend = 0, frame = 0
 2006              		@ frame_needed = 0, uses_anonymous_args = 0
 2007              		@ link register save eliminated.
 2008              	.LVL173:
 2009              		.loc 1 1124 0
 2010 0000 4831     		adds	r1, r1, #72
 2011              	.LVL174:
 2012 0002 036D     		ldr	r3, [r0, #80]
 2013 0004 4901     		lsls	r1, r1, #5
 2014 0006 5B58     		ldr	r3, [r3, r1]
 2015              	.LVL175:
 2016              		.loc 1 1125 0
 2017 0008 13F40040 		ands	r0, r3, #32768
 2018              	.LVL176:
 2019 000c 04D0     		beq	.L201
 2020              		.loc 1 1127 0
 2021 000e 13F4001F 		tst	r3, #2097152
 2022              		.loc 1 1129 0
 2023 0012 14BF     		ite	ne
 2024 0014 0120     		movne	r0, #1
 2025 0016 0220     		moveq	r0, #2
 2026              	.L201:
 2027              		.loc 1 1130 0
 2028 0018 7047     		bx	lr
 2029              		.cfi_endproc
 2030              	.LFE282:
 2031              		.size	usb_lld_get_status_in, .-usb_lld_get_status_in
 2032 001a 00BF     		.section	.text.usb_lld_read_setup,"ax",%progbits
 2033              		.align	1
 2034              		.p2align 4,,15
 2035              		.global	usb_lld_read_setup
 2036              		.syntax unified
 2037              		.thumb
 2038              		.thumb_func
 2039              		.fpu fpv4-sp-d16
 2040              		.type	usb_lld_read_setup, %function
 2041              	usb_lld_read_setup:
 2042              	.LFB283:
 2043              		.loc 1 1146 0
 2044              		.cfi_startproc
 2045              		@ args = 0, pretend = 0, frame = 0
 2046              		@ frame_needed = 0, uses_anonymous_args = 0
 2047              		@ link register save eliminated.
 2048              	.LVL177:
 2049              		.loc 1 1148 0
 2050 0000 00EB8101 		add	r1, r0, r1, lsl #2
 2051              	.LVL178:
 2052 0004 CB68     		ldr	r3, [r1, #12]
ARM GAS  /tmp/ccL9nFWH.s 			page 37


 2053 0006 1B6A     		ldr	r3, [r3, #32]
 2054 0008 1968     		ldr	r1, [r3]	@ unaligned
 2055 000a 5B68     		ldr	r3, [r3, #4]	@ unaligned
 2056 000c 5360     		str	r3, [r2, #4]	@ unaligned
 2057 000e 1160     		str	r1, [r2]	@ unaligned
 2058              		.loc 1 1149 0
 2059 0010 7047     		bx	lr
 2060              		.cfi_endproc
 2061              	.LFE283:
 2062              		.size	usb_lld_read_setup, .-usb_lld_read_setup
 2063 0012 00BF     		.section	.text.usb_lld_prepare_receive,"ax",%progbits
 2064              		.align	1
 2065              		.p2align 4,,15
 2066              		.global	usb_lld_prepare_receive
 2067              		.syntax unified
 2068              		.thumb
 2069              		.thumb_func
 2070              		.fpu fpv4-sp-d16
 2071              		.type	usb_lld_prepare_receive, %function
 2072              	usb_lld_prepare_receive:
 2073              	.LFB284:
 2074              		.loc 1 1159 0
 2075              		.cfi_startproc
 2076              		@ args = 0, pretend = 0, frame = 0
 2077              		@ frame_needed = 0, uses_anonymous_args = 0
 2078              		@ link register save eliminated.
 2079              	.LVL179:
 2080              		.loc 1 1161 0
 2081 0000 00EB8103 		add	r3, r0, r1, lsl #2
 2082              		.loc 1 1159 0
 2083 0004 70B4     		push	{r4, r5, r6}
 2084              		.cfi_def_cfa_offset 12
 2085              		.cfi_offset 4, -12
 2086              		.cfi_offset 5, -8
 2087              		.cfi_offset 6, -4
 2088              		.loc 1 1161 0
 2089 0006 DE68     		ldr	r6, [r3, #12]
 2090 0008 B569     		ldr	r5, [r6, #24]
 2091              	.LVL180:
 2092              		.loc 1 1164 0
 2093 000a 6A68     		ldr	r2, [r5, #4]
 2094 000c 2A61     		str	r2, [r5, #16]
 2095              		.loc 1 1165 0
 2096 000e 29B9     		cbnz	r1, .L210
 2097              		.loc 1 1165 0 is_stmt 0 discriminator 1
 2098 0010 402A     		cmp	r2, #64
 2099 0012 03D9     		bls	.L210
 2100              		.loc 1 1166 0 is_stmt 1
 2101 0014 4022     		movs	r2, #64
 2102 0016 094C     		ldr	r4, .L211
 2103 0018 6A60     		str	r2, [r5, #4]
 2104 001a 01E0     		b	.L207
 2105              	.L210:
 2106 001c 42F0C044 		orr	r4, r2, #1610612736
 2107              	.L207:
 2108              		.loc 1 1168 0
 2109 0020 758A     		ldrh	r5, [r6, #18]
ARM GAS  /tmp/ccL9nFWH.s 			page 38


 2110              	.LVL181:
 2111              		.loc 1 1170 0
 2112 0022 006D     		ldr	r0, [r0, #80]
 2113              	.LVL182:
 2114              		.loc 1 1168 0
 2115 0024 6B1E     		subs	r3, r5, #1
 2116              		.loc 1 1170 0
 2117 0026 00EB4111 		add	r1, r0, r1, lsl #5
 2118              	.LVL183:
 2119              		.loc 1 1168 0
 2120 002a 1344     		add	r3, r3, r2
 2121 002c B3FBF5F3 		udiv	r3, r3, r5
 2122              		.loc 1 1170 0
 2123 0030 44EAC343 		orr	r3, r4, r3, lsl #19
 2124 0034 C1F8103B 		str	r3, [r1, #2832]
 2125              		.loc 1 1173 0
 2126 0038 70BC     		pop	{r4, r5, r6}
 2127              		.cfi_restore 6
 2128              		.cfi_restore 5
 2129              		.cfi_restore 4
 2130              		.cfi_def_cfa_offset 0
 2131              	.LVL184:
 2132 003a 7047     		bx	lr
 2133              	.L212:
 2134              		.align	2
 2135              	.L211:
 2136 003c 40000060 		.word	1610612800
 2137              		.cfi_endproc
 2138              	.LFE284:
 2139              		.size	usb_lld_prepare_receive, .-usb_lld_prepare_receive
 2140              		.section	.text.otg_epout_handler.constprop.7,"ax",%progbits
 2141              		.align	1
 2142              		.p2align 4,,15
 2143              		.syntax unified
 2144              		.thumb
 2145              		.thumb_func
 2146              		.fpu fpv4-sp-d16
 2147              		.type	otg_epout_handler.constprop.7, %function
 2148              	otg_epout_handler.constprop.7:
 2149              	.LFB300:
 2150              		.loc 1 581 0
 2151              		.cfi_startproc
 2152              		@ args = 0, pretend = 0, frame = 0
 2153              		@ frame_needed = 0, uses_anonymous_args = 0
 2154              	.LVL185:
 2155 0000 2DE9F041 		push	{r4, r5, r6, r7, r8, lr}
 2156              		.cfi_def_cfa_offset 24
 2157              		.cfi_offset 4, -24
 2158              		.cfi_offset 5, -20
 2159              		.cfi_offset 6, -16
 2160              		.cfi_offset 7, -12
 2161              		.cfi_offset 8, -8
 2162              		.cfi_offset 14, -4
 2163              		.loc 1 582 0
 2164 0004 224E     		ldr	r6, .L231
 2165 0006 376D     		ldr	r7, [r6, #80]
 2166              	.LVL186:
ARM GAS  /tmp/ccL9nFWH.s 			page 39


 2167              		.loc 1 583 0
 2168 0008 07EB4013 		add	r3, r7, r0, lsl #5
 2169              		.loc 1 581 0
 2170 000c 0546     		mov	r5, r0
 2171              		.loc 1 583 0
 2172 000e D3F8084B 		ldr	r4, [r3, #2824]
 2173              	.LVL187:
 2174              		.loc 1 586 0
 2175 0012 C3F8084B 		str	r4, [r3, #2824]
 2176              		.loc 1 588 0
 2177 0016 2007     		lsls	r0, r4, #28
 2178              	.LVL188:
 2179 0018 0AD5     		bpl	.L214
 2180 001a D7F81438 		ldr	r3, [r7, #2068]
 2181 001e 1907     		lsls	r1, r3, #28
 2182 0020 06D5     		bpl	.L214
 2183              		.loc 1 591 0
 2184 0022 06EB8503 		add	r3, r6, r5, lsl #2
 2185 0026 2946     		mov	r1, r5
 2186 0028 DB68     		ldr	r3, [r3, #12]
 2187 002a 3046     		mov	r0, r6
 2188 002c 5B68     		ldr	r3, [r3, #4]
 2189 002e 9847     		blx	r3
 2190              	.LVL189:
 2191              	.L214:
 2192              		.loc 1 594 0
 2193 0030 E207     		lsls	r2, r4, #31
 2194 0032 2BD5     		bpl	.L213
 2195 0034 D7F81438 		ldr	r3, [r7, #2068]
 2196 0038 DB07     		lsls	r3, r3, #31
 2197 003a 27D5     		bpl	.L213
 2198              	.LBB613:
 2199              		.loc 1 596 0
 2200 003c 06EB8503 		add	r3, r6, r5, lsl #2
 2201 0040 D968     		ldr	r1, [r3, #12]
 2202 0042 8B69     		ldr	r3, [r1, #24]
 2203              	.LVL190:
 2204              		.loc 1 598 0
 2205 0044 5868     		ldr	r0, [r3, #4]
 2206 0046 1A69     		ldr	r2, [r3, #16]
 2207 0048 9042     		cmp	r0, r2
 2208 004a 0CD3     		bcc	.L230
 2209              		.loc 1 611 0
 2210 004c 7389     		ldrh	r3, [r6, #10]
 2211              	.LVL191:
 2212 004e CC68     		ldr	r4, [r1, #12]
 2213              	.LVL192:
 2214 0050 0F48     		ldr	r0, .L231
 2215 0052 0122     		movs	r2, #1
 2216 0054 AA40     		lsls	r2, r2, r5
 2217 0056 23EA0203 		bic	r3, r3, r2
 2218 005a 7381     		strh	r3, [r6, #10]	@ movhi
 2219 005c 2946     		mov	r1, r5
 2220              	.LVL193:
 2221 005e 2346     		mov	r3, r4
 2222              	.LBE613:
 2223              		.loc 1 614 0
ARM GAS  /tmp/ccL9nFWH.s 			page 40


 2224 0060 BDE8F041 		pop	{r4, r5, r6, r7, r8, lr}
 2225              		.cfi_remember_state
 2226              		.cfi_restore 14
 2227              		.cfi_restore 8
 2228              		.cfi_restore 7
 2229              		.cfi_restore 6
 2230              		.cfi_restore 5
 2231              		.cfi_restore 4
 2232              		.cfi_def_cfa_offset 0
 2233              	.LVL194:
 2234              	.LBB626:
 2235              		.loc 1 611 0
 2236 0064 1847     		bx	r3	@ indirect register sibling call
 2237              	.LVL195:
 2238              	.L230:
 2239              		.cfi_restore_state
 2240              		.loc 1 602 0
 2241 0066 121A     		subs	r2, r2, r0
 2242              		.loc 1 603 0
 2243 0068 0021     		movs	r1, #0
 2244 006a C3E90121 		strd	r2, r1, [r3, #4]
 2245              		.loc 1 604 0
 2246 006e 0848     		ldr	r0, .L231
 2247 0070 2946     		mov	r1, r5
 2248 0072 FFF7FEFF 		bl	usb_lld_prepare_receive
 2249              	.LVL196:
 2250              	.LBB614:
 2251              	.LBB615:
 2252              	.LBB616:
 2253              	.LBB617:
 2254              	.LBB618:
 2255              		.loc 3 342 0
 2256              		.syntax unified
 2257              	@ 342 "ChibiOS_3.0.2/os/ext/CMSIS/include/core_cmFunc.h" 1
 2258 0076 72B6     		cpsid i
 2259              	@ 0 "" 2
 2260              	.LVL197:
 2261              		.thumb
 2262              		.syntax unified
 2263 0078 336D     		ldr	r3, [r6, #80]
 2264 007a 03EB4515 		add	r5, r3, r5, lsl #5
 2265              	.LVL198:
 2266              	.LBE618:
 2267              	.LBE617:
 2268              	.LBE616:
 2269              	.LBE615:
 2270              	.LBE614:
 2271              	.LBB619:
 2272              	.LBB620:
 2273              		.loc 1 1214 0
 2274 007e D5F8003B 		ldr	r3, [r5, #2816]
 2275 0082 43F08063 		orr	r3, r3, #67108864
 2276 0086 C5F8003B 		str	r3, [r5, #2816]
 2277              	.LVL199:
 2278              	.LBE620:
 2279              	.LBE619:
 2280              	.LBB621:
ARM GAS  /tmp/ccL9nFWH.s 			page 41


 2281              	.LBB622:
 2282              	.LBB623:
 2283              	.LBB624:
 2284              	.LBB625:
 2285              		.loc 3 331 0
 2286              		.syntax unified
 2287              	@ 331 "ChibiOS_3.0.2/os/ext/CMSIS/include/core_cmFunc.h" 1
 2288 008a 62B6     		cpsie i
 2289              	@ 0 "" 2
 2290              		.thumb
 2291              		.syntax unified
 2292              	.L213:
 2293              	.LBE625:
 2294              	.LBE624:
 2295              	.LBE623:
 2296              	.LBE622:
 2297              	.LBE621:
 2298              	.LBE626:
 2299              		.loc 1 614 0
 2300 008c BDE8F081 		pop	{r4, r5, r6, r7, r8, pc}
 2301              	.LVL200:
 2302              	.L232:
 2303              		.align	2
 2304              	.L231:
 2305 0090 00000000 		.word	.LANCHOR0
 2306              		.cfi_endproc
 2307              	.LFE300:
 2308              		.size	otg_epout_handler.constprop.7, .-otg_epout_handler.constprop.7
 2309              		.section	.text.usb_lld_prepare_transmit,"ax",%progbits
 2310              		.align	1
 2311              		.p2align 4,,15
 2312              		.global	usb_lld_prepare_transmit
 2313              		.syntax unified
 2314              		.thumb
 2315              		.thumb_func
 2316              		.fpu fpv4-sp-d16
 2317              		.type	usb_lld_prepare_transmit, %function
 2318              	usb_lld_prepare_transmit:
 2319              	.LFB285:
 2320              		.loc 1 1183 0
 2321              		.cfi_startproc
 2322              		@ args = 0, pretend = 0, frame = 0
 2323              		@ frame_needed = 0, uses_anonymous_args = 0
 2324              		@ link register save eliminated.
 2325              	.LVL201:
 2326              		.loc 1 1184 0
 2327 0000 00EB8103 		add	r3, r0, r1, lsl #2
 2328              		.loc 1 1183 0
 2329 0004 10B4     		push	{r4}
 2330              		.cfi_def_cfa_offset 4
 2331              		.cfi_offset 4, -4
 2332              		.loc 1 1184 0
 2333 0006 DC68     		ldr	r4, [r3, #12]
 2334 0008 026D     		ldr	r2, [r0, #80]
 2335 000a 6069     		ldr	r0, [r4, #20]
 2336              	.LVL202:
 2337              		.loc 1 1187 0
ARM GAS  /tmp/ccL9nFWH.s 			page 42


 2338 000c 4368     		ldr	r3, [r0, #4]
 2339 000e 0361     		str	r3, [r0, #16]
 2340              		.loc 1 1188 0
 2341 0010 9BB1     		cbz	r3, .L238
 2342              	.LBB627:
 2343              		.loc 1 1193 0
 2344 0012 69B1     		cbz	r1, .L239
 2345              	.L236:
 2346              		.loc 1 1197 0
 2347 0014 208A     		ldrh	r0, [r4, #16]
 2348              	.LVL203:
 2349              	.LBE627:
 2350              		.loc 1 1202 0
 2351 0016 5DF8044B 		ldr	r4, [sp], #4
 2352              		.cfi_remember_state
 2353              		.cfi_restore 4
 2354              		.cfi_def_cfa_offset 0
 2355              	.LVL204:
 2356              	.LBB628:
 2357              		.loc 1 1199 0
 2358 001a 02EB4112 		add	r2, r2, r1, lsl #5
 2359              		.loc 1 1197 0
 2360 001e 411E     		subs	r1, r0, #1
 2361              	.LVL205:
 2362 0020 1944     		add	r1, r1, r3
 2363 0022 B1FBF0F1 		udiv	r1, r1, r0
 2364              		.loc 1 1199 0
 2365 0026 43EAC143 		orr	r3, r3, r1, lsl #19
 2366              	.LVL206:
 2367 002a C2F81039 		str	r3, [r2, #2320]
 2368              	.LBE628:
 2369              		.loc 1 1202 0
 2370 002e 7047     		bx	lr
 2371              	.LVL207:
 2372              	.L239:
 2373              		.cfi_restore_state
 2374              	.LBB629:
 2375              		.loc 1 1193 0 discriminator 1
 2376 0030 402B     		cmp	r3, #64
 2377              		.loc 1 1194 0 discriminator 1
 2378 0032 84BF     		itt	hi
 2379 0034 4023     		movhi	r3, #64
 2380 0036 4360     		strhi	r3, [r0, #4]
 2381 0038 ECE7     		b	.L236
 2382              	.L238:
 2383              	.LBE629:
 2384              		.loc 1 1190 0
 2385 003a 02EB4112 		add	r2, r2, r1, lsl #5
 2386 003e 4FF40023 		mov	r3, #524288
 2387 0042 C2F81039 		str	r3, [r2, #2320]
 2388              		.loc 1 1202 0
 2389 0046 5DF8044B 		ldr	r4, [sp], #4
 2390              		.cfi_restore 4
 2391              		.cfi_def_cfa_offset 0
 2392 004a 7047     		bx	lr
 2393              		.cfi_endproc
 2394              	.LFE285:
ARM GAS  /tmp/ccL9nFWH.s 			page 43


 2395              		.size	usb_lld_prepare_transmit, .-usb_lld_prepare_transmit
 2396              		.section	.text.otg_epin_handler.constprop.8,"ax",%progbits
 2397              		.align	1
 2398              		.p2align 4,,15
 2399              		.syntax unified
 2400              		.thumb
 2401              		.thumb_func
 2402              		.fpu fpv4-sp-d16
 2403              		.type	otg_epin_handler.constprop.8, %function
 2404              	otg_epin_handler.constprop.8:
 2405              	.LFB299:
 2406              		.loc 1 533 0
 2407              		.cfi_startproc
 2408              		@ args = 0, pretend = 0, frame = 0
 2409              		@ frame_needed = 0, uses_anonymous_args = 0
 2410              	.LVL208:
 2411 0000 2DE9F041 		push	{r4, r5, r6, r7, r8, lr}
 2412              		.cfi_def_cfa_offset 24
 2413              		.cfi_offset 4, -24
 2414              		.cfi_offset 5, -20
 2415              		.cfi_offset 6, -16
 2416              		.cfi_offset 7, -12
 2417              		.cfi_offset 8, -8
 2418              		.cfi_offset 14, -4
 2419              		.loc 1 534 0
 2420 0004 2C4E     		ldr	r6, .L259
 2421 0006 356D     		ldr	r5, [r6, #80]
 2422              	.LVL209:
 2423              		.loc 1 535 0
 2424 0008 05EB4013 		add	r3, r5, r0, lsl #5
 2425              		.loc 1 533 0
 2426 000c 0746     		mov	r7, r0
 2427              		.loc 1 535 0
 2428 000e D3F80849 		ldr	r4, [r3, #2312]
 2429              	.LVL210:
 2430              		.loc 1 537 0
 2431 0012 C3F80849 		str	r4, [r3, #2312]
 2432              		.loc 1 542 0
 2433 0016 E107     		lsls	r1, r4, #31
 2434 0018 16D5     		bpl	.L241
 2435 001a D5F81038 		ldr	r3, [r5, #2064]
 2436 001e DA07     		lsls	r2, r3, #31
 2437 0020 12D5     		bpl	.L241
 2438              	.LBB630:
 2439              		.loc 1 544 0
 2440 0022 06EB8003 		add	r3, r6, r0, lsl #2
 2441 0026 D968     		ldr	r1, [r3, #12]
 2442 0028 4B69     		ldr	r3, [r1, #20]
 2443              	.LVL211:
 2444              		.loc 1 546 0
 2445 002a 5868     		ldr	r0, [r3, #4]
 2446              	.LVL212:
 2447 002c 1A69     		ldr	r2, [r3, #16]
 2448 002e 9042     		cmp	r0, r2
 2449 0030 26D3     		bcc	.L257
 2450              		.loc 1 559 0
 2451 0032 3389     		ldrh	r3, [r6, #8]
ARM GAS  /tmp/ccL9nFWH.s 			page 44


 2452              	.LVL213:
 2453 0034 D1F80880 		ldr	r8, [r1, #8]
 2454 0038 0122     		movs	r2, #1
 2455 003a BA40     		lsls	r2, r2, r7
 2456 003c 23EA0203 		bic	r3, r3, r2
 2457 0040 3381     		strh	r3, [r6, #8]	@ movhi
 2458 0042 3946     		mov	r1, r7
 2459              	.LVL214:
 2460 0044 3046     		mov	r0, r6
 2461 0046 C047     		blx	r8
 2462              	.LVL215:
 2463              	.L241:
 2464              	.LBE630:
 2465              		.loc 1 562 0
 2466 0048 2306     		lsls	r3, r4, #24
 2467 004a 06D5     		bpl	.L240
 2468              		.loc 1 563 0
 2469 004c 0123     		movs	r3, #1
 2470 004e D5F83428 		ldr	r2, [r5, #2100]
 2471 0052 03FA07F7 		lsl	r7, r3, r7
 2472              		.loc 1 562 0
 2473 0056 1742     		tst	r7, r2
 2474 0058 01D1     		bne	.L258
 2475              	.L240:
 2476              		.loc 1 571 0
 2477 005a BDE8F081 		pop	{r4, r5, r6, r7, r8, pc}
 2478              	.LVL216:
 2479              	.L258:
 2480              	.LBB645:
 2481              	.LBB646:
 2482              	.LBB647:
 2483              	.LBB648:
 2484              	.LBB649:
 2485              	.LBB650:
 2486              		.loc 3 342 0
 2487              		.syntax unified
 2488              	@ 342 "ChibiOS_3.0.2/os/ext/CMSIS/include/core_cmFunc.h" 1
 2489 005e 72B6     		cpsid i
 2490              	@ 0 "" 2
 2491              		.thumb
 2492              		.syntax unified
 2493              	.LBE650:
 2494              	.LBE649:
 2495              	.LBE648:
 2496              	.LBE647:
 2497              	.LBE646:
 2498              	.LBE645:
 2499              		.loc 1 567 0
 2500 0060 D5F83428 		ldr	r2, [r5, #2100]
 2501              		.loc 1 566 0
 2502 0064 F36D     		ldr	r3, [r6, #92]
 2503              	.LBB651:
 2504              	.LBB652:
 2505              		.loc 4 728 0
 2506 0066 1548     		ldr	r0, .L259+4
 2507              	.LBE652:
 2508              	.LBE651:
ARM GAS  /tmp/ccL9nFWH.s 			page 45


 2509              		.loc 1 567 0
 2510 0068 22EA0702 		bic	r2, r2, r7
 2511 006c C5F83428 		str	r2, [r5, #2100]
 2512              	.LVL217:
 2513              		.loc 1 566 0
 2514 0070 1F43     		orrs	r7, r7, r3
 2515              	.LBB655:
 2516              	.LBB653:
 2517              		.loc 4 728 0
 2518 0072 0021     		movs	r1, #0
 2519              	.LBE653:
 2520              	.LBE655:
 2521              		.loc 1 566 0
 2522 0074 F765     		str	r7, [r6, #92]
 2523              	.LBB656:
 2524              	.LBB654:
 2525              		.loc 4 728 0
 2526 0076 FFF7FEFF 		bl	chThdResumeI
 2527              	.LVL218:
 2528              	.LBE654:
 2529              	.LBE656:
 2530              	.LBB657:
 2531              	.LBB658:
 2532              	.LBB659:
 2533              	.LBB660:
 2534              	.LBB661:
 2535              	.LBB662:
 2536              		.loc 3 331 0
 2537              		.syntax unified
 2538              	@ 331 "ChibiOS_3.0.2/os/ext/CMSIS/include/core_cmFunc.h" 1
 2539 007a 62B6     		cpsie i
 2540              	@ 0 "" 2
 2541              		.thumb
 2542              		.syntax unified
 2543              	.LBE662:
 2544              	.LBE661:
 2545              	.LBE660:
 2546              	.LBE659:
 2547              	.LBE658:
 2548              	.LBE657:
 2549              		.loc 1 571 0
 2550 007c BDE8F081 		pop	{r4, r5, r6, r7, r8, pc}
 2551              	.LVL219:
 2552              	.L257:
 2553              	.LBB663:
 2554              		.loc 1 550 0
 2555 0080 121A     		subs	r2, r2, r0
 2556              		.loc 1 551 0
 2557 0082 0021     		movs	r1, #0
 2558 0084 C3E90121 		strd	r2, r1, [r3, #4]
 2559              		.loc 1 552 0
 2560 0088 3046     		mov	r0, r6
 2561 008a 3946     		mov	r1, r7
 2562 008c FFF7FEFF 		bl	usb_lld_prepare_transmit
 2563              	.LVL220:
 2564              	.LBB631:
 2565              	.LBB632:
ARM GAS  /tmp/ccL9nFWH.s 			page 46


 2566              	.LBB633:
 2567              	.LBB634:
 2568              	.LBB635:
 2569              	.LBB636:
 2570              		.loc 3 342 0
 2571              		.syntax unified
 2572              	@ 342 "ChibiOS_3.0.2/os/ext/CMSIS/include/core_cmFunc.h" 1
 2573 0090 72B6     		cpsid i
 2574              	@ 0 "" 2
 2575              	.LVL221:
 2576              		.thumb
 2577              		.syntax unified
 2578              	.LBE636:
 2579              	.LBE635:
 2580              	.LBE634:
 2581              	.LBE633:
 2582              	.LBE632:
 2583              	.LBE631:
 2584              	.LBB637:
 2585              	.LBB638:
 2586              		.loc 1 1227 0
 2587 0092 326D     		ldr	r2, [r6, #80]
 2588 0094 02EB4710 		add	r0, r2, r7, lsl #5
 2589              		.loc 1 1228 0
 2590 0098 0123     		movs	r3, #1
 2591              		.loc 1 1227 0
 2592 009a D0F80019 		ldr	r1, [r0, #2304]
 2593 009e 41F00441 		orr	r1, r1, #-2080374784
 2594 00a2 C0F80019 		str	r1, [r0, #2304]
 2595              		.loc 1 1228 0
 2596 00a6 D2F83418 		ldr	r1, [r2, #2100]
 2597 00aa BB40     		lsls	r3, r3, r7
 2598 00ac 0B43     		orrs	r3, r3, r1
 2599 00ae C2F83438 		str	r3, [r2, #2100]
 2600              	.LVL222:
 2601              	.LBE638:
 2602              	.LBE637:
 2603              	.LBB639:
 2604              	.LBB640:
 2605              	.LBB641:
 2606              	.LBB642:
 2607              	.LBB643:
 2608              	.LBB644:
 2609              		.loc 3 331 0
 2610              		.syntax unified
 2611              	@ 331 "ChibiOS_3.0.2/os/ext/CMSIS/include/core_cmFunc.h" 1
 2612 00b2 62B6     		cpsie i
 2613              	@ 0 "" 2
 2614              		.thumb
 2615              		.syntax unified
 2616 00b4 C8E7     		b	.L241
 2617              	.L260:
 2618 00b6 00BF     		.align	2
 2619              	.L259:
 2620 00b8 00000000 		.word	.LANCHOR0
 2621 00bc 60000000 		.word	.LANCHOR0+96
 2622              	.LBE644:
ARM GAS  /tmp/ccL9nFWH.s 			page 47


 2623              	.LBE643:
 2624              	.LBE642:
 2625              	.LBE641:
 2626              	.LBE640:
 2627              	.LBE639:
 2628              	.LBE663:
 2629              		.cfi_endproc
 2630              	.LFE299:
 2631              		.size	otg_epin_handler.constprop.8, .-otg_epin_handler.constprop.8
 2632              		.section	.text.Vector14C,"ax",%progbits
 2633              		.align	1
 2634              		.p2align 4,,15
 2635              		.global	Vector14C
 2636              		.syntax unified
 2637              		.thumb
 2638              		.thumb_func
 2639              		.fpu fpv4-sp-d16
 2640              		.type	Vector14C, %function
 2641              	Vector14C:
 2642              	.LFB273:
 2643              		.loc 1 706 0
 2644              		.cfi_startproc
 2645              		@ args = 0, pretend = 0, frame = 0
 2646              		@ frame_needed = 0, uses_anonymous_args = 0
 2647              	.LVL223:
 2648 0000 70B5     		push	{r4, r5, r6, lr}
 2649              		.cfi_def_cfa_offset 16
 2650              		.cfi_offset 4, -16
 2651              		.cfi_offset 5, -12
 2652              		.cfi_offset 6, -8
 2653              		.cfi_offset 14, -4
 2654              	.LBB680:
 2655              	.LBB681:
 2656              		.loc 1 624 0
 2657 0002 384D     		ldr	r5, .L330
 2658 0004 2E6D     		ldr	r6, [r5, #80]
 2659              	.LVL224:
 2660              		.loc 1 627 0
 2661 0006 7469     		ldr	r4, [r6, #20]
 2662              	.LVL225:
 2663              		.loc 1 628 0
 2664 0008 B369     		ldr	r3, [r6, #24]
 2665 000a 1C40     		ands	r4, r4, r3
 2666              	.LVL226:
 2667              		.loc 1 632 0
 2668 000c E104     		lsls	r1, r4, #19
 2669              		.loc 1 629 0
 2670 000e 7461     		str	r4, [r6, #20]
 2671              		.loc 1 632 0
 2672 0010 26D4     		bmi	.L320
 2673              	.L263:
 2674              		.loc 1 638 0
 2675 0012 A204     		lsls	r2, r4, #18
 2676              		.loc 1 639 0
 2677 0014 48BF     		it	mi
 2678 0016 D6F80838 		ldrmi	r3, [r6, #2056]
 2679              		.loc 1 643 0
ARM GAS  /tmp/ccL9nFWH.s 			page 48


 2680 001a 2307     		lsls	r3, r4, #28
 2681 001c 04D5     		bpl	.L266
 2682              		.loc 1 644 0
 2683 001e 6B68     		ldr	r3, [r5, #4]
 2684 0020 DB68     		ldr	r3, [r3, #12]
 2685 0022 0BB1     		cbz	r3, .L266
 2686 0024 2F48     		ldr	r0, .L330
 2687 0026 9847     		blx	r3
 2688              	.LVL227:
 2689              	.L266:
 2690              		.loc 1 648 0
 2691 0028 E506     		lsls	r5, r4, #27
 2692 002a 24D4     		bmi	.L321
 2693              	.L267:
 2694              		.loc 1 659 0
 2695 002c 6003     		lsls	r0, r4, #13
 2696              		.loc 1 658 0
 2697 002e D6F81858 		ldr	r5, [r6, #2072]
 2698              	.LVL228:
 2699              		.loc 1 659 0
 2700 0032 07D5     		bpl	.L269
 2701              		.loc 1 660 0
 2702 0034 E907     		lsls	r1, r5, #31
 2703 0036 4BD4     		bmi	.L322
 2704              		.loc 1 662 0
 2705 0038 AA07     		lsls	r2, r5, #30
 2706 003a 3ED4     		bmi	.L323
 2707              	.L271:
 2708              		.loc 1 664 0
 2709 003c 6B07     		lsls	r3, r5, #29
 2710 003e 41D4     		bmi	.L324
 2711              	.L272:
 2712              		.loc 1 666 0
 2713 0040 2E07     		lsls	r6, r5, #28
 2714              	.LVL229:
 2715 0042 4BD4     		bmi	.L325
 2716              	.L269:
 2717              		.loc 1 675 0
 2718 0044 2403     		lsls	r4, r4, #12
 2719              	.LVL230:
 2720 0046 07D5     		bpl	.L275
 2721              		.loc 1 676 0
 2722 0048 E803     		lsls	r0, r5, #15
 2723 004a 26D4     		bmi	.L326
 2724              		.loc 1 678 0
 2725 004c A903     		lsls	r1, r5, #14
 2726 004e 29D4     		bmi	.L327
 2727              	.L277:
 2728              		.loc 1 680 0
 2729 0050 6A03     		lsls	r2, r5, #13
 2730 0052 2CD4     		bmi	.L328
 2731              	.L278:
 2732              		.loc 1 682 0
 2733 0054 2B03     		lsls	r3, r5, #12
 2734 0056 19D4     		bmi	.L329
 2735              	.L275:
 2736              	.LVL231:
ARM GAS  /tmp/ccL9nFWH.s 			page 49


 2737              	.LBE681:
 2738              	.LBE680:
 2739              		.loc 1 713 0
 2740 0058 BDE87040 		pop	{r4, r5, r6, lr}
 2741              		.cfi_remember_state
 2742              		.cfi_restore 14
 2743              		.cfi_restore 6
 2744              		.cfi_restore 5
 2745              		.cfi_restore 4
 2746              		.cfi_def_cfa_offset 0
 2747              		.loc 1 712 0
 2748 005c FFF7FEBF 		b	_port_irq_epilogue
 2749              	.LVL232:
 2750              	.L320:
 2751              		.cfi_restore_state
 2752              	.LBB700:
 2753              	.LBB698:
 2754              		.loc 1 633 0
 2755 0060 2846     		mov	r0, r5
 2756 0062 FFF7FEFF 		bl	_usb_reset
 2757              	.LVL233:
 2758              		.loc 1 634 0
 2759 0066 6B68     		ldr	r3, [r5, #4]
 2760 0068 1B68     		ldr	r3, [r3]
 2761 006a 002B     		cmp	r3, #0
 2762 006c D1D0     		beq	.L263
 2763 006e 0021     		movs	r1, #0
 2764 0070 2846     		mov	r0, r5
 2765 0072 9847     		blx	r3
 2766              	.LVL234:
 2767 0074 CDE7     		b	.L263
 2768              	.L321:
 2769              	.LBB682:
 2770              	.LBB683:
 2771              	.LBB684:
 2772              	.LBB685:
 2773              	.LBB686:
 2774              	.LBB687:
 2775              		.loc 3 342 0
 2776              		.syntax unified
 2777              	@ 342 "ChibiOS_3.0.2/os/ext/CMSIS/include/core_cmFunc.h" 1
 2778 0076 72B6     		cpsid i
 2779              	@ 0 "" 2
 2780              		.thumb
 2781              		.syntax unified
 2782              	.LBE687:
 2783              	.LBE686:
 2784              	.LBE685:
 2785              	.LBE684:
 2786              	.LBE683:
 2787              	.LBE682:
 2788              		.loc 1 652 0
 2789 0078 B369     		ldr	r3, [r6, #24]
 2790              	.LBB688:
 2791              	.LBB689:
 2792              		.loc 4 728 0
 2793 007a 1B48     		ldr	r0, .L330+4
ARM GAS  /tmp/ccL9nFWH.s 			page 50


 2794              	.LBE689:
 2795              	.LBE688:
 2796              		.loc 1 652 0
 2797 007c 23F01003 		bic	r3, r3, #16
 2798 0080 B361     		str	r3, [r6, #24]
 2799              	.LVL235:
 2800              	.LBB691:
 2801              	.LBB690:
 2802              		.loc 4 728 0
 2803 0082 0021     		movs	r1, #0
 2804 0084 FFF7FEFF 		bl	chThdResumeI
 2805              	.LVL236:
 2806              	.LBE690:
 2807              	.LBE691:
 2808              	.LBB692:
 2809              	.LBB693:
 2810              	.LBB694:
 2811              	.LBB695:
 2812              	.LBB696:
 2813              	.LBB697:
 2814              		.loc 3 331 0
 2815              		.syntax unified
 2816              	@ 331 "ChibiOS_3.0.2/os/ext/CMSIS/include/core_cmFunc.h" 1
 2817 0088 62B6     		cpsie i
 2818              	@ 0 "" 2
 2819              		.thumb
 2820              		.syntax unified
 2821 008a CFE7     		b	.L267
 2822              	.LVL237:
 2823              	.L329:
 2824              	.LBE697:
 2825              	.LBE696:
 2826              	.LBE695:
 2827              	.LBE694:
 2828              	.LBE693:
 2829              	.LBE692:
 2830              		.loc 1 683 0
 2831 008c 0320     		movs	r0, #3
 2832 008e FFF7FEFF 		bl	otg_epout_handler.constprop.7
 2833              	.LVL238:
 2834              	.LBE698:
 2835              	.LBE700:
 2836              		.loc 1 713 0
 2837 0092 BDE87040 		pop	{r4, r5, r6, lr}
 2838              		.cfi_remember_state
 2839              		.cfi_restore 14
 2840              		.cfi_restore 6
 2841              		.cfi_restore 5
 2842              		.cfi_restore 4
 2843              		.cfi_def_cfa_offset 0
 2844              		.loc 1 712 0
 2845 0096 FFF7FEBF 		b	_port_irq_epilogue
 2846              	.LVL239:
 2847              	.L326:
 2848              		.cfi_restore_state
 2849              	.LBB701:
 2850              	.LBB699:
ARM GAS  /tmp/ccL9nFWH.s 			page 51


 2851              		.loc 1 677 0
 2852 009a 0020     		movs	r0, #0
 2853 009c FFF7FEFF 		bl	otg_epout_handler.constprop.7
 2854              	.LVL240:
 2855              		.loc 1 678 0
 2856 00a0 A903     		lsls	r1, r5, #14
 2857 00a2 D5D5     		bpl	.L277
 2858              	.L327:
 2859              		.loc 1 679 0
 2860 00a4 0120     		movs	r0, #1
 2861 00a6 FFF7FEFF 		bl	otg_epout_handler.constprop.7
 2862              	.LVL241:
 2863              		.loc 1 680 0
 2864 00aa 6A03     		lsls	r2, r5, #13
 2865 00ac D2D5     		bpl	.L278
 2866              	.L328:
 2867              		.loc 1 681 0
 2868 00ae 0220     		movs	r0, #2
 2869 00b0 FFF7FEFF 		bl	otg_epout_handler.constprop.7
 2870              	.LVL242:
 2871              		.loc 1 682 0
 2872 00b4 2B03     		lsls	r3, r5, #12
 2873 00b6 CFD5     		bpl	.L275
 2874 00b8 E8E7     		b	.L329
 2875              	.LVL243:
 2876              	.L323:
 2877              		.loc 1 663 0
 2878 00ba 0120     		movs	r0, #1
 2879 00bc FFF7FEFF 		bl	otg_epin_handler.constprop.8
 2880              	.LVL244:
 2881              		.loc 1 664 0
 2882 00c0 6B07     		lsls	r3, r5, #29
 2883 00c2 BDD5     		bpl	.L272
 2884              	.L324:
 2885              		.loc 1 665 0
 2886 00c4 0220     		movs	r0, #2
 2887 00c6 FFF7FEFF 		bl	otg_epin_handler.constprop.8
 2888              	.LVL245:
 2889              		.loc 1 666 0
 2890 00ca 2E07     		lsls	r6, r5, #28
 2891              	.LVL246:
 2892 00cc BAD5     		bpl	.L269
 2893 00ce 05E0     		b	.L325
 2894              	.LVL247:
 2895              	.L322:
 2896              		.loc 1 661 0
 2897 00d0 0020     		movs	r0, #0
 2898 00d2 FFF7FEFF 		bl	otg_epin_handler.constprop.8
 2899              	.LVL248:
 2900              		.loc 1 662 0
 2901 00d6 AA07     		lsls	r2, r5, #30
 2902 00d8 B0D5     		bpl	.L271
 2903 00da EEE7     		b	.L323
 2904              	.LVL249:
 2905              	.L325:
 2906              		.loc 1 667 0
 2907 00dc 0320     		movs	r0, #3
ARM GAS  /tmp/ccL9nFWH.s 			page 52


 2908 00de FFF7FEFF 		bl	otg_epin_handler.constprop.8
 2909              	.LVL250:
 2910 00e2 AFE7     		b	.L269
 2911              	.L331:
 2912              		.align	2
 2913              	.L330:
 2914 00e4 00000000 		.word	.LANCHOR0
 2915 00e8 60000000 		.word	.LANCHOR0+96
 2916              	.LBE699:
 2917              	.LBE701:
 2918              		.cfi_endproc
 2919              	.LFE273:
 2920              		.size	Vector14C, .-Vector14C
 2921              		.section	.text.usb_lld_start_out,"ax",%progbits
 2922              		.align	1
 2923              		.p2align 4,,15
 2924              		.global	usb_lld_start_out
 2925              		.syntax unified
 2926              		.thumb
 2927              		.thumb_func
 2928              		.fpu fpv4-sp-d16
 2929              		.type	usb_lld_start_out, %function
 2930              	usb_lld_start_out:
 2931              	.LFB286:
 2932              		.loc 1 1212 0
 2933              		.cfi_startproc
 2934              		@ args = 0, pretend = 0, frame = 0
 2935              		@ frame_needed = 0, uses_anonymous_args = 0
 2936              		@ link register save eliminated.
 2937              	.LVL251:
 2938 0000 036D     		ldr	r3, [r0, #80]
 2939 0002 03EB4111 		add	r1, r3, r1, lsl #5
 2940              	.LVL252:
 2941              		.loc 1 1214 0
 2942 0006 D1F8003B 		ldr	r3, [r1, #2816]
 2943 000a 43F08063 		orr	r3, r3, #67108864
 2944 000e C1F8003B 		str	r3, [r1, #2816]
 2945              		.loc 1 1215 0
 2946 0012 7047     		bx	lr
 2947              		.cfi_endproc
 2948              	.LFE286:
 2949              		.size	usb_lld_start_out, .-usb_lld_start_out
 2950              		.section	.text.usb_lld_start_in,"ax",%progbits
 2951              		.align	1
 2952              		.p2align 4,,15
 2953              		.global	usb_lld_start_in
 2954              		.syntax unified
 2955              		.thumb
 2956              		.thumb_func
 2957              		.fpu fpv4-sp-d16
 2958              		.type	usb_lld_start_in, %function
 2959              	usb_lld_start_in:
 2960              	.LFB287:
 2961              		.loc 1 1225 0
 2962              		.cfi_startproc
 2963              		@ args = 0, pretend = 0, frame = 0
 2964              		@ frame_needed = 0, uses_anonymous_args = 0
ARM GAS  /tmp/ccL9nFWH.s 			page 53


 2965              		@ link register save eliminated.
 2966              	.LVL253:
 2967              		.loc 1 1227 0
 2968 0000 026D     		ldr	r2, [r0, #80]
 2969              		.loc 1 1225 0
 2970 0002 10B4     		push	{r4}
 2971              		.cfi_def_cfa_offset 4
 2972              		.cfi_offset 4, -4
 2973 0004 02EB4114 		add	r4, r2, r1, lsl #5
 2974              		.loc 1 1228 0
 2975 0008 0123     		movs	r3, #1
 2976              		.loc 1 1227 0
 2977 000a D4F80009 		ldr	r0, [r4, #2304]
 2978              	.LVL254:
 2979 000e 40F00440 		orr	r0, r0, #-2080374784
 2980 0012 C4F80009 		str	r0, [r4, #2304]
 2981              		.loc 1 1228 0
 2982 0016 D2F83408 		ldr	r0, [r2, #2100]
 2983              		.loc 1 1229 0
 2984 001a 5DF8044B 		ldr	r4, [sp], #4
 2985              		.cfi_restore 4
 2986              		.cfi_def_cfa_offset 0
 2987              		.loc 1 1228 0
 2988 001e 03FA01F1 		lsl	r1, r3, r1
 2989              	.LVL255:
 2990 0022 0143     		orrs	r1, r1, r0
 2991 0024 C2F83418 		str	r1, [r2, #2100]
 2992              		.loc 1 1229 0
 2993 0028 7047     		bx	lr
 2994              		.cfi_endproc
 2995              	.LFE287:
 2996              		.size	usb_lld_start_in, .-usb_lld_start_in
 2997 002a 00BF     		.section	.text.usb_lld_stall_out,"ax",%progbits
 2998              		.align	1
 2999              		.p2align 4,,15
 3000              		.global	usb_lld_stall_out
 3001              		.syntax unified
 3002              		.thumb
 3003              		.thumb_func
 3004              		.fpu fpv4-sp-d16
 3005              		.type	usb_lld_stall_out, %function
 3006              	usb_lld_stall_out:
 3007              	.LFB288:
 3008              		.loc 1 1239 0
 3009              		.cfi_startproc
 3010              		@ args = 0, pretend = 0, frame = 0
 3011              		@ frame_needed = 0, uses_anonymous_args = 0
 3012              		@ link register save eliminated.
 3013              	.LVL256:
 3014 0000 036D     		ldr	r3, [r0, #80]
 3015 0002 03EB4111 		add	r1, r3, r1, lsl #5
 3016              	.LVL257:
 3017              		.loc 1 1241 0
 3018 0006 D1F8003B 		ldr	r3, [r1, #2816]
 3019 000a 43F40013 		orr	r3, r3, #2097152
 3020 000e C1F8003B 		str	r3, [r1, #2816]
 3021              		.loc 1 1242 0
ARM GAS  /tmp/ccL9nFWH.s 			page 54


 3022 0012 7047     		bx	lr
 3023              		.cfi_endproc
 3024              	.LFE288:
 3025              		.size	usb_lld_stall_out, .-usb_lld_stall_out
 3026              		.section	.text.usb_lld_stall_in,"ax",%progbits
 3027              		.align	1
 3028              		.p2align 4,,15
 3029              		.global	usb_lld_stall_in
 3030              		.syntax unified
 3031              		.thumb
 3032              		.thumb_func
 3033              		.fpu fpv4-sp-d16
 3034              		.type	usb_lld_stall_in, %function
 3035              	usb_lld_stall_in:
 3036              	.LFB289:
 3037              		.loc 1 1252 0
 3038              		.cfi_startproc
 3039              		@ args = 0, pretend = 0, frame = 0
 3040              		@ frame_needed = 0, uses_anonymous_args = 0
 3041              		@ link register save eliminated.
 3042              	.LVL258:
 3043 0000 036D     		ldr	r3, [r0, #80]
 3044 0002 03EB4111 		add	r1, r3, r1, lsl #5
 3045              	.LVL259:
 3046              		.loc 1 1254 0
 3047 0006 D1F80039 		ldr	r3, [r1, #2304]
 3048 000a 43F40013 		orr	r3, r3, #2097152
 3049 000e C1F80039 		str	r3, [r1, #2304]
 3050              		.loc 1 1255 0
 3051 0012 7047     		bx	lr
 3052              		.cfi_endproc
 3053              	.LFE289:
 3054              		.size	usb_lld_stall_in, .-usb_lld_stall_in
 3055              		.section	.text.usb_lld_clear_out,"ax",%progbits
 3056              		.align	1
 3057              		.p2align 4,,15
 3058              		.global	usb_lld_clear_out
 3059              		.syntax unified
 3060              		.thumb
 3061              		.thumb_func
 3062              		.fpu fpv4-sp-d16
 3063              		.type	usb_lld_clear_out, %function
 3064              	usb_lld_clear_out:
 3065              	.LFB290:
 3066              		.loc 1 1265 0
 3067              		.cfi_startproc
 3068              		@ args = 0, pretend = 0, frame = 0
 3069              		@ frame_needed = 0, uses_anonymous_args = 0
 3070              		@ link register save eliminated.
 3071              	.LVL260:
 3072 0000 036D     		ldr	r3, [r0, #80]
 3073 0002 03EB4111 		add	r1, r3, r1, lsl #5
 3074              	.LVL261:
 3075              		.loc 1 1267 0
 3076 0006 D1F8003B 		ldr	r3, [r1, #2816]
 3077 000a 23F40013 		bic	r3, r3, #2097152
 3078 000e C1F8003B 		str	r3, [r1, #2816]
ARM GAS  /tmp/ccL9nFWH.s 			page 55


 3079              		.loc 1 1268 0
 3080 0012 7047     		bx	lr
 3081              		.cfi_endproc
 3082              	.LFE290:
 3083              		.size	usb_lld_clear_out, .-usb_lld_clear_out
 3084              		.section	.text.usb_lld_clear_in,"ax",%progbits
 3085              		.align	1
 3086              		.p2align 4,,15
 3087              		.global	usb_lld_clear_in
 3088              		.syntax unified
 3089              		.thumb
 3090              		.thumb_func
 3091              		.fpu fpv4-sp-d16
 3092              		.type	usb_lld_clear_in, %function
 3093              	usb_lld_clear_in:
 3094              	.LFB291:
 3095              		.loc 1 1278 0
 3096              		.cfi_startproc
 3097              		@ args = 0, pretend = 0, frame = 0
 3098              		@ frame_needed = 0, uses_anonymous_args = 0
 3099              		@ link register save eliminated.
 3100              	.LVL262:
 3101 0000 036D     		ldr	r3, [r0, #80]
 3102 0002 03EB4111 		add	r1, r3, r1, lsl #5
 3103              	.LVL263:
 3104              		.loc 1 1280 0
 3105 0006 D1F80039 		ldr	r3, [r1, #2304]
 3106 000a 23F40013 		bic	r3, r3, #2097152
 3107 000e C1F80039 		str	r3, [r1, #2304]
 3108              		.loc 1 1281 0
 3109 0012 7047     		bx	lr
 3110              		.cfi_endproc
 3111              	.LFE291:
 3112              		.size	usb_lld_clear_in, .-usb_lld_clear_in
 3113              		.global	USBD1
 3114              		.section	.bss.USBD1,"aw",%nobits
 3115              		.align	3
 3116              		.set	.LANCHOR0,. + 0
 3117              		.type	USBD1, %object
 3118              		.size	USBD1, 640
 3119              	USBD1:
 3120 0000 00000000 		.space	640
 3120      00000000 
 3120      00000000 
 3120      00000000 
 3120      00000000 
 3121              		.section	.bss.ep0_state,"aw",%nobits
 3122              		.align	2
 3123              		.type	ep0_state, %object
 3124              		.size	ep0_state, 20
 3125              	ep0_state:
 3126 0000 00000000 		.space	20
 3126      00000000 
 3126      00000000 
 3126      00000000 
 3126      00000000 
 3127              		.section	.bss.ep0setup_buffer,"aw",%nobits
ARM GAS  /tmp/ccL9nFWH.s 			page 56


 3128              		.align	2
 3129              		.type	ep0setup_buffer, %object
 3130              		.size	ep0setup_buffer, 8
 3131              	ep0setup_buffer:
 3132 0000 00000000 		.space	8
 3132      00000000 
 3133              		.section	.rodata.ep0config,"a",%progbits
 3134              		.align	2
 3135              		.set	.LANCHOR2,. + 0
 3136              		.type	ep0config, %object
 3137              		.size	ep0config, 36
 3138              	ep0config:
 3139 0000 00000000 		.word	0
 3140 0004 00000000 		.word	_usb_ep0setup
 3141 0008 00000000 		.word	_usb_ep0in
 3142 000c 00000000 		.word	_usb_ep0out
 3143 0010 4000     		.short	64
 3144 0012 4000     		.short	64
 3145 0014 00000000 		.word	ep0_state
 3146 0018 00000000 		.word	ep0_state
 3147 001c 0100     		.short	1
 3148 001e 0000     		.space	2
 3149 0020 00000000 		.word	ep0setup_buffer
 3150              		.section	.rodata.fsparams,"a",%progbits
 3151              		.align	2
 3152              		.set	.LANCHOR1,. + 0
 3153              		.type	fsparams, %object
 3154              		.size	fsparams, 12
 3155              	fsparams:
 3156 0000 00010000 		.word	256
 3157 0004 40010000 		.word	320
 3158 0008 03000000 		.word	3
 3159              		.section	.rodata.usb_lld_pump.str1.4,"aMS",%progbits,1
 3160              		.align	2
 3161              	.LC0:
 3162 0000 7573625F 		.ascii	"usb_lld_pump\000"
 3162      6C6C645F 
 3162      70756D70 
 3162      00
 3163              		.text
 3164              	.Letext0:
 3165              		.file 6 "/usr/lib/gcc/arm-none-eabi/7.3.1/include/stddef.h"
 3166              		.file 7 "/usr/arm-none-eabi/include/machine/_default_types.h"
 3167              		.file 8 "/usr/arm-none-eabi/include/sys/lock.h"
 3168              		.file 9 "/usr/arm-none-eabi/include/sys/_types.h"
 3169              		.file 10 "/usr/arm-none-eabi/include/sys/reent.h"
 3170              		.file 11 "/usr/arm-none-eabi/include/sys/_stdint.h"
 3171              		.file 12 "ChibiOS_3.0.2/os/rt/ports/ARMCMx/compilers/GCC/chtypes.h"
 3172              		.file 13 "ChibiOS_3.0.2/os/rt/include/chsystypes.h"
 3173              		.file 14 "ChibiOS_3.0.2/os/rt/include/chschd.h"
 3174              		.file 15 "ChibiOS_3.0.2/os/ext/CMSIS/include/core_cm4.h"
 3175              		.file 16 "ChibiOS_3.0.2/os/ext/CMSIS/ST/system_stm32f4xx.h"
 3176              		.file 17 "ChibiOS_3.0.2/os/ext/CMSIS/ST/stm32f407xx.h"
 3177              		.file 18 "ChibiOS_3.0.2/os/rt/ports/ARMCMx/chcore.h"
 3178              		.file 19 "ChibiOS_3.0.2/os/rt/ports/ARMCMx/chcore_v7m.h"
 3179              		.file 20 "ChibiOS_3.0.2/os/rt/include/chtm.h"
 3180              		.file 21 "ChibiOS_3.0.2/os/rt/include/chsem.h"
ARM GAS  /tmp/ccL9nFWH.s 			page 57


 3181              		.file 22 "ChibiOS_3.0.2/os/rt/include/chmtx.h"
 3182              		.file 23 "ChibiOS_3.0.2/os/rt/include/chevents.h"
 3183              		.file 24 "ChibiOS_3.0.2/os/rt/include/chqueues.h"
 3184              		.file 25 "./conf_general.h"
 3185              		.file 26 "ChibiOS_3.0.2/os/hal/ports/STM32/STM32F4xx/stm32_dma.h"
 3186              		.file 27 "ChibiOS_3.0.2/os/hal/ports/STM32/LLD/GPIOv2/pal_lld.h"
 3187              		.file 28 "ChibiOS_3.0.2/os/hal/include/can.h"
 3188              		.file 29 "ChibiOS_3.0.2/os/hal/ports/STM32/LLD/can_lld.h"
 3189              		.file 30 "ChibiOS_3.0.2/os/hal/include/i2c.h"
 3190              		.file 31 "ChibiOS_3.0.2/os/hal/ports/STM32/LLD/I2Cv1/i2c_lld.h"
 3191              		.file 32 "ChibiOS_3.0.2/os/hal/include/icu.h"
 3192              		.file 33 "ChibiOS_3.0.2/os/hal/ports/STM32/LLD/TIMv1/icu_lld.h"
 3193              		.file 34 "ChibiOS_3.0.2/os/hal/ports/STM32/LLD/TIMv1/stm32_tim.h"
 3194              		.file 35 "ChibiOS_3.0.2/os/hal/include/serial.h"
 3195              		.file 36 "ChibiOS_3.0.2/os/hal/ports/STM32/LLD/USARTv1/serial_lld.h"
 3196              		.file 37 "ChibiOS_3.0.2/os/hal/include/spi.h"
 3197              		.file 38 "ChibiOS_3.0.2/os/hal/ports/STM32/LLD/SPIv1/spi_lld.h"
 3198              		.file 39 "ChibiOS_3.0.2/os/hal/include/usb.h"
 3199              		.file 40 "ChibiOS_3.0.2/os/hal/ports/STM32/LLD/OTGv1/usb_lld.h"
 3200              		.file 41 "ChibiOS_3.0.2/os/hal/ports/STM32/LLD/OTGv1/stm32_otg.h"
 3201              		.file 42 "ChibiOS_3.0.2/os/rt/include/chsys.h"
 3202              		.file 43 "ChibiOS_3.0.2/os/hal/ports/common/ARMCMx/nvic.h"