ARM GAS  /tmp/ccNxvlrf.s 			page 1


   1              		.cpu cortex-m4
   2              		.eabi_attribute 27, 1
   3              		.eabi_attribute 28, 1
   4              		.eabi_attribute 20, 1
   5              		.eabi_attribute 21, 1
   6              		.eabi_attribute 23, 3
   7              		.eabi_attribute 24, 1
   8              		.eabi_attribute 25, 1
   9              		.eabi_attribute 26, 1
  10              		.eabi_attribute 30, 2
  11              		.eabi_attribute 34, 1
  12              		.eabi_attribute 18, 4
  13              		.file	"app_spicontrol.c"
  14              		.text
  15              	.Ltext0:
  16              		.cfi_sections	.debug_frame
  17              		.section	.text.app_spicontrol_init,"ax",%progbits
  18              		.align	1
  19              		.p2align 4,,15
  20              		.global	app_spicontrol_init
  21              		.syntax unified
  22              		.thumb
  23              		.thumb_func
  24              		.fpu fpv4-sp-d16
  25              		.type	app_spicontrol_init, %function
  26              	app_spicontrol_init:
  27              	.LFB256:
  28              		.file 1 "applications/app_spicontrol.c"
  29              		.loc 1 44 0
  30              		.cfi_startproc
  31              		@ args = 0, pretend = 0, frame = 16
  32              		@ frame_needed = 0, uses_anonymous_args = 0
  33 0000 30B5     		push	{r4, r5, lr}
  34              		.cfi_def_cfa_offset 12
  35              		.cfi_offset 4, -12
  36              		.cfi_offset 5, -8
  37              		.cfi_offset 14, -4
  38              		.loc 1 50 0
  39 0002 224C     		ldr	r4, .L4
  40              		.loc 1 69 0
  41 0004 224D     		ldr	r5, .L4+4
  42              		.loc 1 44 0
  43 0006 87B0     		sub	sp, sp, #28
  44              		.cfi_def_cfa_offset 40
  45              		.loc 1 50 0
  46 0008 2046     		mov	r0, r4
  47 000a 0022     		movs	r2, #0
  48 000c 4021     		movs	r1, #64
  49 000e FFF7FEFF 		bl	_pal_lld_setgroupmode
  50              	.LVL0:
  51              		.loc 1 51 0
  52 0012 2046     		mov	r0, r4
  53 0014 0122     		movs	r2, #1
  54 0016 8021     		movs	r1, #128
  55 0018 FFF7FEFF 		bl	_pal_lld_setgroupmode
  56              	.LVL1:
  57              		.loc 1 52 0
ARM GAS  /tmp/ccNxvlrf.s 			page 2


  58 001c 2046     		mov	r0, r4
  59 001e 1922     		movs	r2, #25
  60 0020 2021     		movs	r1, #32
  61 0022 FFF7FEFF 		bl	_pal_lld_setgroupmode
  62              	.LVL2:
  63              		.loc 1 53 0
  64 0026 2046     		mov	r0, r4
  65 0028 1922     		movs	r2, #25
  66 002a 1021     		movs	r1, #16
  67 002c FFF7FEFF 		bl	_pal_lld_setgroupmode
  68              	.LVL3:
  69              		.loc 1 57 0
  70 0030 2022     		movs	r2, #32
  71              		.loc 1 58 0
  72 0032 8023     		movs	r3, #128
  73              		.loc 1 56 0
  74 0034 1021     		movs	r1, #16
  75 0036 6183     		strh	r1, [r4, #26]	@ movhi
  76              		.loc 1 61 0
  77 0038 0220     		movs	r0, #2
  78              		.loc 1 57 0
  79 003a 6283     		strh	r2, [r4, #26]	@ movhi
  80              		.loc 1 61 0
  81 003c 0121     		movs	r1, #1
  82              		.loc 1 58 0
  83 003e 6383     		strh	r3, [r4, #26]	@ movhi
  84              		.loc 1 61 0
  85 0040 FFF7FEFF 		bl	RCC_APB1PeriphClockCmd
  86              	.LVL4:
  87              		.loc 1 64 0
  88 0044 0024     		movs	r4, #0
  89              		.loc 1 65 0
  90 0046 134B     		ldr	r3, .L4+8
  91 0048 0493     		str	r3, [sp, #16]
  92              		.loc 1 69 0
  93 004a 2846     		mov	r0, r5
  94 004c 03A9     		add	r1, sp, #12
  95              		.loc 1 64 0
  96 004e 0394     		str	r4, [sp, #12]
  97              		.loc 1 66 0
  98 0050 ADF81440 		strh	r4, [sp, #20]	@ movhi
  99              		.loc 1 67 0
 100 0054 8DF81640 		strb	r4, [sp, #22]
 101              		.loc 1 69 0
 102 0058 FFF7FEFF 		bl	TIM_TimeBaseInit
 103              	.LVL5:
 104              		.loc 1 70 0
 105 005c 0122     		movs	r2, #1
 106 005e 1146     		mov	r1, r2
 107 0060 2846     		mov	r0, r5
 108 0062 FFF7FEFF 		bl	TIM_ITConfig
 109              	.LVL6:
 110              		.loc 1 71 0
 111 0066 2846     		mov	r0, r5
 112 0068 0121     		movs	r1, #1
 113 006a FFF7FEFF 		bl	TIM_Cmd
 114              	.LVL7:
ARM GAS  /tmp/ccNxvlrf.s 			page 3


 115              		.loc 1 74 0
 116 006e 0621     		movs	r1, #6
 117 0070 1D20     		movs	r0, #29
 118 0072 FFF7FEFF 		bl	nvicEnableVector
 119              	.LVL8:
 120              		.loc 1 77 0
 121 0076 0094     		str	r4, [sp]
 122 0078 074B     		ldr	r3, .L4+12
 123 007a 0848     		ldr	r0, .L4+16
 124 007c 4022     		movs	r2, #64
 125 007e 40F69811 		movw	r1, #2456
 126 0082 FFF7FEFF 		bl	chThdCreateStatic
 127              	.LVL9:
 128              		.loc 1 79 0
 129 0086 07B0     		add	sp, sp, #28
 130              		.cfi_def_cfa_offset 12
 131              		@ sp needed
 132 0088 30BD     		pop	{r4, r5, pc}
 133              	.L5:
 134 008a 00BF     		.align	2
 135              	.L4:
 136 008c 00000240 		.word	1073872896
 137 0090 00040040 		.word	1073742848
 138 0094 1F480100 		.word	83999
 139 0098 00000000 		.word	example_thread
 140 009c 00000000 		.word	.LANCHOR0
 141              		.cfi_endproc
 142              	.LFE256:
 143              		.size	app_spicontrol_init, .-app_spicontrol_init
 144              		.section	.text.daten_to_spi,"ax",%progbits
 145              		.align	1
 146              		.p2align 4,,15
 147              		.global	daten_to_spi
 148              		.syntax unified
 149              		.thumb
 150              		.thumb_func
 151              		.fpu fpv4-sp-d16
 152              		.type	daten_to_spi, %function
 153              	daten_to_spi:
 154              	.LFB257:
 155              		.loc 1 84 0
 156              		.cfi_startproc
 157              		@ args = 0, pretend = 0, frame = 0
 158              		@ frame_needed = 0, uses_anonymous_args = 0
 159              		@ link register save eliminated.
 160              	.LVL10:
 161 0000 054B     		ldr	r3, .L7
 162              		.loc 1 89 0
 163 0002 064A     		ldr	r2, .L7+4
 164 0004 9842     		cmp	r0, r3
 165 0006 B8BF     		it	lt
 166 0008 1846     		movlt	r0, r3
 167              	.LVL11:
 168              		.loc 1 87 0
 169 000a 00F6FF70 		addw	r0, r0, #4095
 170              	.LVL12:
 171              		.loc 1 89 0
ARM GAS  /tmp/ccNxvlrf.s 			page 4


 172 000e 42EA8000 		orr	r0, r2, r0, lsl #2
 173              	.LVL13:
 174              		.loc 1 96 0
 175 0012 40EAC130 		orr	r0, r0, r1, lsl #15
 176 0016 7047     		bx	lr
 177              	.L8:
 178              		.align	2
 179              	.L7:
 180 0018 01F0FFFF 		.word	-4095
 181 001c 02000400 		.word	262146
 182              		.cfi_endproc
 183              	.LFE257:
 184              		.size	daten_to_spi, .-daten_to_spi
 185              		.section	.text.spicontrol_get_val,"ax",%progbits
 186              		.align	1
 187              		.p2align 4,,15
 188              		.global	spicontrol_get_val
 189              		.syntax unified
 190              		.thumb
 191              		.thumb_func
 192              		.fpu fpv4-sp-d16
 193              		.type	spicontrol_get_val, %function
 194              	spicontrol_get_val:
 195              	.LFB259:
 196              		.loc 1 117 0
 197              		.cfi_startproc
 198              		@ args = 0, pretend = 0, frame = 0
 199              		@ frame_needed = 0, uses_anonymous_args = 0
 200              		@ link register save eliminated.
 201              		.loc 1 118 0
 202 0000 014B     		ldr	r3, .L10
 203              		.loc 1 119 0
 204 0002 1868     		ldr	r0, [r3]
 205 0004 7047     		bx	lr
 206              	.L11:
 207 0006 00BF     		.align	2
 208              	.L10:
 209 0008 00000000 		.word	.LANCHOR1
 210              		.cfi_endproc
 211              	.LFE259:
 212              		.size	spicontrol_get_val, .-spicontrol_get_val
 213              		.section	.text.spicontrol_transfer,"ax",%progbits
 214              		.align	1
 215              		.p2align 4,,15
 216              		.global	spicontrol_transfer
 217              		.syntax unified
 218              		.thumb
 219              		.thumb_func
 220              		.fpu fpv4-sp-d16
 221              		.type	spicontrol_transfer, %function
 222              	spicontrol_transfer:
 223              	.LFB260:
 224              		.loc 1 122 0
 225              		.cfi_startproc
 226              		@ args = 0, pretend = 0, frame = 0
 227              		@ frame_needed = 0, uses_anonymous_args = 0
 228              	.LVL14:
ARM GAS  /tmp/ccNxvlrf.s 			page 5


 229              	.LBB53:
 230              		.loc 1 123 0
 231 0000 002A     		cmp	r2, #0
 232 0002 3FDD     		ble	.L31
 233              	.LBE53:
 234              		.loc 1 122 0
 235 0004 2DE9F043 		push	{r4, r5, r6, r7, r8, r9, lr}
 236              		.cfi_def_cfa_offset 28
 237              		.cfi_offset 4, -28
 238              		.cfi_offset 5, -24
 239              		.cfi_offset 6, -20
 240              		.cfi_offset 7, -16
 241              		.cfi_offset 8, -12
 242              		.cfi_offset 9, -8
 243              		.cfi_offset 14, -4
 244              	.LBB87:
 245              	.LBB54:
 246              	.LBB55:
 247              		.loc 1 128 0
 248 0008 1F4D     		ldr	r5, .L34
 249              	.LBE55:
 250              	.LBE54:
 251              		.loc 1 123 0
 252 000a 4FF0000E 		mov	lr, #0
 253              	.LBB85:
 254              	.LBB83:
 255              		.loc 1 132 0
 256 000e 4FF02008 		mov	r8, #32
 257              	.LVL15:
 258              	.L19:
 259              	.LBE83:
 260              		.loc 1 124 0
 261 0012 0029     		cmp	r1, #0
 262 0014 34D0     		beq	.L20
 263              		.loc 1 124 0 is_stmt 0 discriminator 1
 264 0016 51F82E40 		ldr	r4, [r1, lr, lsl #2]
 265              	.L14:
 266              		.loc 1 124 0
 267 001a 1427     		movs	r7, #20
 268 001c 0026     		movs	r6, #0
 269              	.LBB84:
 270              		.loc 1 132 0 is_stmt 1
 271 001e C446     		mov	ip, r8	@ movhi
 272              	.L17:
 273              	.LVL16:
 274              		.loc 1 128 0
 275 0020 14F4002F 		tst	r4, #524288
 276 0024 4FEA1433 		lsr	r3, r4, #12
 277 0028 14BF     		ite	ne
 278 002a 4FF00009 		movne	r9, #0
 279 002e 4FF40009 		moveq	r9, #8388608
 280 0032 03F08003 		and	r3, r3, #128
 281 0036 43EA0903 		orr	r3, r3, r9
 282 003a AB61     		str	r3, [r5, #24]
 283              		.loc 1 129 0
 284 003c 6400     		lsls	r4, r4, #1
 285              	.LVL17:
ARM GAS  /tmp/ccNxvlrf.s 			page 6


 286              	.LBB56:
 287              	.LBB57:
 288              	.LBB58:
 289              		.file 2 "ChibiOS_3.0.2/os/ext/CMSIS/include/core_cmInstr.h"
 290              		.loc 2 327 0
 291              		.syntax unified
 292              	@ 327 "ChibiOS_3.0.2/os/ext/CMSIS/include/core_cmInstr.h" 1
 293 003e 00BF     		nop
 294              	@ 0 "" 2
 295              		.thumb
 296              		.syntax unified
 297              	.LBE58:
 298              	.LBE57:
 299              	.LBB59:
 300              	.LBB60:
 301              		.syntax unified
 302              	@ 327 "ChibiOS_3.0.2/os/ext/CMSIS/include/core_cmInstr.h" 1
 303 0040 00BF     		nop
 304              	@ 0 "" 2
 305              		.thumb
 306              		.syntax unified
 307              	.LBE60:
 308              	.LBE59:
 309              	.LBB61:
 310              	.LBB62:
 311              		.syntax unified
 312              	@ 327 "ChibiOS_3.0.2/os/ext/CMSIS/include/core_cmInstr.h" 1
 313 0042 00BF     		nop
 314              	@ 0 "" 2
 315              		.thumb
 316              		.syntax unified
 317              	.LBE62:
 318              	.LBE61:
 319              	.LBB63:
 320              	.LBB64:
 321              		.syntax unified
 322              	@ 327 "ChibiOS_3.0.2/os/ext/CMSIS/include/core_cmInstr.h" 1
 323 0044 00BF     		nop
 324              	@ 0 "" 2
 325              		.thumb
 326              		.syntax unified
 327              	.LBE64:
 328              	.LBE63:
 329              	.LBE56:
 330              		.loc 1 132 0
 331 0046 A5F818C0 		strh	ip, [r5, #24]	@ movhi
 332              	.LBB65:
 333              	.LBB66:
 334              	.LBB67:
 335              		.loc 2 327 0
 336              		.syntax unified
 337              	@ 327 "ChibiOS_3.0.2/os/ext/CMSIS/include/core_cmInstr.h" 1
 338 004a 00BF     		nop
 339              	@ 0 "" 2
 340              		.thumb
 341              		.syntax unified
 342              	.LBE67:
ARM GAS  /tmp/ccNxvlrf.s 			page 7


 343              	.LBE66:
 344              	.LBB68:
 345              	.LBB69:
 346              		.syntax unified
 347              	@ 327 "ChibiOS_3.0.2/os/ext/CMSIS/include/core_cmInstr.h" 1
 348 004c 00BF     		nop
 349              	@ 0 "" 2
 350              		.thumb
 351              		.syntax unified
 352              	.LBE69:
 353              	.LBE68:
 354              	.LBB70:
 355              	.LBB71:
 356              		.syntax unified
 357              	@ 327 "ChibiOS_3.0.2/os/ext/CMSIS/include/core_cmInstr.h" 1
 358 004e 00BF     		nop
 359              	@ 0 "" 2
 360              		.thumb
 361              		.syntax unified
 362              	.LBE71:
 363              	.LBE70:
 364              	.LBB72:
 365              	.LBB73:
 366              		.syntax unified
 367              	@ 327 "ChibiOS_3.0.2/os/ext/CMSIS/include/core_cmInstr.h" 1
 368 0050 00BF     		nop
 369              	@ 0 "" 2
 370              		.thumb
 371              		.syntax unified
 372              	.LBE73:
 373              	.LBE72:
 374              	.LBE65:
 375              		.loc 1 136 0
 376 0052 2B69     		ldr	r3, [r5, #16]
 377              		.loc 1 140 0
 378 0054 A5F81AC0 		strh	ip, [r5, #26]	@ movhi
 379              		.loc 1 135 0
 380 0058 7600     		lsls	r6, r6, #1
 381              	.LVL18:
 382              		.loc 1 136 0
 383 005a 5B06     		lsls	r3, r3, #25
 384              		.loc 1 137 0
 385 005c 48BF     		it	mi
 386 005e 46F00106 		orrmi	r6, r6, #1
 387              	.LVL19:
 388              	.LBB74:
 389              	.LBB75:
 390              	.LBB76:
 391              		.loc 2 327 0
 392              		.syntax unified
 393              	@ 327 "ChibiOS_3.0.2/os/ext/CMSIS/include/core_cmInstr.h" 1
 394 0062 00BF     		nop
 395              	@ 0 "" 2
 396              		.thumb
 397              		.syntax unified
 398              	.LBE76:
 399              	.LBE75:
ARM GAS  /tmp/ccNxvlrf.s 			page 8


 400              	.LBB77:
 401              	.LBB78:
 402              		.syntax unified
 403              	@ 327 "ChibiOS_3.0.2/os/ext/CMSIS/include/core_cmInstr.h" 1
 404 0064 00BF     		nop
 405              	@ 0 "" 2
 406              		.thumb
 407              		.syntax unified
 408              	.LBE78:
 409              	.LBE77:
 410              	.LBB79:
 411              	.LBB80:
 412              		.syntax unified
 413              	@ 327 "ChibiOS_3.0.2/os/ext/CMSIS/include/core_cmInstr.h" 1
 414 0066 00BF     		nop
 415              	@ 0 "" 2
 416              		.thumb
 417              		.syntax unified
 418              	.LBE80:
 419              	.LBE79:
 420              	.LBB81:
 421              	.LBB82:
 422              		.syntax unified
 423              	@ 327 "ChibiOS_3.0.2/os/ext/CMSIS/include/core_cmInstr.h" 1
 424 0068 00BF     		nop
 425              	@ 0 "" 2
 426              	.LVL20:
 427              		.thumb
 428              		.syntax unified
 429              	.LBE82:
 430              	.LBE81:
 431              	.LBE74:
 432              		.loc 1 127 0
 433 006a 013F     		subs	r7, r7, #1
 434              	.LVL21:
 435 006c D8D1     		bne	.L17
 436              	.LBE84:
 437              		.loc 1 144 0
 438 006e 08B1     		cbz	r0, .L18
 439              		.loc 1 145 0
 440 0070 40F82E60 		str	r6, [r0, lr, lsl #2]
 441              	.L18:
 442              	.LBE85:
 443              		.loc 1 123 0 discriminator 2
 444 0074 0EF1010E 		add	lr, lr, #1
 445              	.LVL22:
 446 0078 7245     		cmp	r2, lr
 447 007a CAD1     		bne	.L19
 448              	.LBE87:
 449              		.loc 1 148 0
 450 007c BDE8F083 		pop	{r4, r5, r6, r7, r8, r9, pc}
 451              	.LVL23:
 452              	.L20:
 453              	.LBB88:
 454              	.LBB86:
 455              		.loc 1 124 0
 456 0080 024C     		ldr	r4, .L34+4
ARM GAS  /tmp/ccNxvlrf.s 			page 9


 457 0082 CAE7     		b	.L14
 458              	.LVL24:
 459              	.L31:
 460              		.cfi_def_cfa_offset 0
 461              		.cfi_restore 4
 462              		.cfi_restore 5
 463              		.cfi_restore 6
 464              		.cfi_restore 7
 465              		.cfi_restore 8
 466              		.cfi_restore 9
 467              		.cfi_restore 14
 468 0084 7047     		bx	lr
 469              	.L35:
 470 0086 00BF     		.align	2
 471              	.L34:
 472 0088 00000240 		.word	1073872896
 473 008c FFFF0F00 		.word	1048575
 474              	.LBE86:
 475              	.LBE88:
 476              		.cfi_endproc
 477              	.LFE260:
 478              		.size	spicontrol_transfer, .-spicontrol_transfer
 479              		.section	.text.spicontrol_tim_isr,"ax",%progbits
 480              		.align	1
 481              		.p2align 4,,15
 482              		.global	spicontrol_tim_isr
 483              		.syntax unified
 484              		.thumb
 485              		.thumb_func
 486              		.fpu fpv4-sp-d16
 487              		.type	spicontrol_tim_isr, %function
 488              	spicontrol_tim_isr:
 489              	.LFB258:
 490              		.loc 1 100 0
 491              		.cfi_startproc
 492              		@ args = 0, pretend = 0, frame = 8
 493              		@ frame_needed = 0, uses_anonymous_args = 0
 494 0000 30B5     		push	{r4, r5, lr}
 495              		.cfi_def_cfa_offset 12
 496              		.cfi_offset 4, -12
 497              		.cfi_offset 5, -8
 498              		.cfi_offset 14, -4
 499 0002 83B0     		sub	sp, sp, #12
 500              		.cfi_def_cfa_offset 24
 501              		.loc 1 101 0
 502 0004 02A8     		add	r0, sp, #8
 503              	.LBB89:
 504              	.LBB90:
 505              		.loc 1 152 0
 506 0006 084C     		ldr	r4, .L38
 507              	.LBE90:
 508              	.LBE89:
 509              		.loc 1 107 0
 510 0008 0849     		ldr	r1, .L38+4
 511              		.loc 1 101 0
 512 000a 0023     		movs	r3, #0
 513              	.LBB93:
ARM GAS  /tmp/ccNxvlrf.s 			page 10


 514              	.LBB91:
 515              		.loc 1 152 0
 516 000c 1025     		movs	r5, #16
 517              	.LBE91:
 518              	.LBE93:
 519              		.loc 1 101 0
 520 000e 40F8043D 		str	r3, [r0, #-4]!
 521              		.loc 1 107 0
 522 0012 0122     		movs	r2, #1
 523              	.LBB94:
 524              	.LBB92:
 525              		.loc 1 152 0
 526 0014 6583     		strh	r5, [r4, #26]	@ movhi
 527              	.LBE92:
 528              	.LBE94:
 529              		.loc 1 107 0
 530 0016 FFF7FEFF 		bl	spicontrol_transfer
 531              	.LVL25:
 532              	.LBB95:
 533              	.LBB96:
 534              		.loc 1 157 0
 535 001a 2583     		strh	r5, [r4, #24]	@ movhi
 536              	.LBE96:
 537              	.LBE95:
 538              		.loc 1 113 0
 539 001c 044B     		ldr	r3, .L38+8
 540 001e 019A     		ldr	r2, [sp, #4]
 541 0020 1A60     		str	r2, [r3]
 542              		.loc 1 114 0
 543 0022 03B0     		add	sp, sp, #12
 544              		.cfi_def_cfa_offset 12
 545              		@ sp needed
 546 0024 30BD     		pop	{r4, r5, pc}
 547              	.L39:
 548 0026 00BF     		.align	2
 549              	.L38:
 550 0028 00000240 		.word	1073872896
 551 002c 00000000 		.word	.LANCHOR2
 552 0030 00000000 		.word	.LANCHOR1
 553              		.cfi_endproc
 554              	.LFE258:
 555              		.size	spicontrol_tim_isr, .-spicontrol_tim_isr
 556              		.section	.text.spicontrol_begin,"ax",%progbits
 557              		.align	1
 558              		.p2align 4,,15
 559              		.global	spicontrol_begin
 560              		.syntax unified
 561              		.thumb
 562              		.thumb_func
 563              		.fpu fpv4-sp-d16
 564              		.type	spicontrol_begin, %function
 565              	spicontrol_begin:
 566              	.LFB261:
 567              		.loc 1 151 0
 568              		.cfi_startproc
 569              		@ args = 0, pretend = 0, frame = 0
 570              		@ frame_needed = 0, uses_anonymous_args = 0
ARM GAS  /tmp/ccNxvlrf.s 			page 11


 571              		@ link register save eliminated.
 572              		.loc 1 152 0
 573 0000 014B     		ldr	r3, .L41
 574 0002 1022     		movs	r2, #16
 575 0004 5A83     		strh	r2, [r3, #26]	@ movhi
 576              		.loc 1 153 0
 577 0006 7047     		bx	lr
 578              	.L42:
 579              		.align	2
 580              	.L41:
 581 0008 00000240 		.word	1073872896
 582              		.cfi_endproc
 583              	.LFE261:
 584              		.size	spicontrol_begin, .-spicontrol_begin
 585              		.section	.text.spicontrol_end,"ax",%progbits
 586              		.align	1
 587              		.p2align 4,,15
 588              		.global	spicontrol_end
 589              		.syntax unified
 590              		.thumb
 591              		.thumb_func
 592              		.fpu fpv4-sp-d16
 593              		.type	spicontrol_end, %function
 594              	spicontrol_end:
 595              	.LFB262:
 596              		.loc 1 156 0
 597              		.cfi_startproc
 598              		@ args = 0, pretend = 0, frame = 0
 599              		@ frame_needed = 0, uses_anonymous_args = 0
 600              		@ link register save eliminated.
 601              		.loc 1 157 0
 602 0000 014B     		ldr	r3, .L44
 603 0002 1022     		movs	r2, #16
 604 0004 1A83     		strh	r2, [r3, #24]	@ movhi
 605              		.loc 1 158 0
 606 0006 7047     		bx	lr
 607              	.L45:
 608              		.align	2
 609              	.L44:
 610 0008 00000240 		.word	1073872896
 611              		.cfi_endproc
 612              	.LFE262:
 613              		.size	spicontrol_end, .-spicontrol_end
 614              		.section	.text.spicontrol_delay,"ax",%progbits
 615              		.align	1
 616              		.p2align 4,,15
 617              		.global	spicontrol_delay
 618              		.syntax unified
 619              		.thumb
 620              		.thumb_func
 621              		.fpu fpv4-sp-d16
 622              		.type	spicontrol_delay, %function
 623              	spicontrol_delay:
 624              	.LFB263:
 625              		.loc 1 161 0
 626              		.cfi_startproc
 627              		@ args = 0, pretend = 0, frame = 0
ARM GAS  /tmp/ccNxvlrf.s 			page 12


 628              		@ frame_needed = 0, uses_anonymous_args = 0
 629              		@ link register save eliminated.
 630              	.LBB97:
 631              	.LBB98:
 632              		.loc 2 327 0
 633              		.syntax unified
 634              	@ 327 "ChibiOS_3.0.2/os/ext/CMSIS/include/core_cmInstr.h" 1
 635 0000 00BF     		nop
 636              	@ 0 "" 2
 637              		.thumb
 638              		.syntax unified
 639              	.LBE98:
 640              	.LBE97:
 641              	.LBB99:
 642              	.LBB100:
 643              		.syntax unified
 644              	@ 327 "ChibiOS_3.0.2/os/ext/CMSIS/include/core_cmInstr.h" 1
 645 0002 00BF     		nop
 646              	@ 0 "" 2
 647              		.thumb
 648              		.syntax unified
 649              	.LBE100:
 650              	.LBE99:
 651              	.LBB101:
 652              	.LBB102:
 653              		.syntax unified
 654              	@ 327 "ChibiOS_3.0.2/os/ext/CMSIS/include/core_cmInstr.h" 1
 655 0004 00BF     		nop
 656              	@ 0 "" 2
 657              		.thumb
 658              		.syntax unified
 659              	.LBE102:
 660              	.LBE101:
 661              	.LBB103:
 662              	.LBB104:
 663              		.syntax unified
 664              	@ 327 "ChibiOS_3.0.2/os/ext/CMSIS/include/core_cmInstr.h" 1
 665 0006 00BF     		nop
 666              	@ 0 "" 2
 667              		.thumb
 668              		.syntax unified
 669              	.LBE104:
 670              	.LBE103:
 671              		.loc 1 166 0
 672 0008 7047     		bx	lr
 673              		.cfi_endproc
 674              	.LFE263:
 675              		.size	spicontrol_delay, .-spicontrol_delay
 676 000a 00BF     		.section	.text.spi_to_data,"ax",%progbits
 677              		.align	1
 678              		.p2align 4,,15
 679              		.global	spi_to_data
 680              		.syntax unified
 681              		.thumb
 682              		.thumb_func
 683              		.fpu fpv4-sp-d16
 684              		.type	spi_to_data, %function
ARM GAS  /tmp/ccNxvlrf.s 			page 13


 685              	spi_to_data:
 686              	.LFB264:
 687              		.loc 1 170 0
 688              		.cfi_startproc
 689              		@ args = 0, pretend = 0, frame = 0
 690              		@ frame_needed = 0, uses_anonymous_args = 0
 691              		@ link register save eliminated.
 692              	.LBB105:
 693              	.LBB106:
 694              		.loc 1 118 0
 695 0000 0F4B     		ldr	r3, .L56
 696 0002 1868     		ldr	r0, [r3]
 697              	.LBE106:
 698              	.LBE105:
 699              		.loc 1 173 0
 700 0004 0103     		lsls	r1, r0, #12
 701 0006 06D5     		bpl	.L48
 702              		.loc 1 174 0
 703 0008 00F00703 		and	r3, r0, #7
 704 000c 042B     		cmp	r3, #4
 705 000e 08D1     		bne	.L54
 706              	.LVL26:
 707              		.loc 1 176 0
 708 0010 C0F3CF00 		ubfx	r0, r0, #3, #16
 709              	.LVL27:
 710              		.loc 1 177 0
 711 0014 7047     		bx	lr
 712              	.LVL28:
 713              	.L48:
 714              		.loc 1 181 0
 715 0016 4203     		lsls	r2, r0, #13
 716 0018 06D5     		bpl	.L50
 717              		.loc 1 182 0
 718 001a 00F00303 		and	r3, r0, #3
 719 001e 022B     		cmp	r3, #2
 720 0020 0BD0     		beq	.L55
 721              	.L54:
 722              		.loc 1 199 0
 723 0022 4FF48050 		mov	r0, #4096
 724              		.loc 1 200 0
 725 0026 7047     		bx	lr
 726              	.L50:
 727              		.loc 1 189 0
 728 0028 8303     		lsls	r3, r0, #14
 729 002a FAD5     		bpl	.L54
 730              		.loc 1 190 0
 731 002c 054B     		ldr	r3, .L56+4
 732 002e 0340     		ands	r3, r3, r0
 733 0030 012B     		cmp	r3, #1
 734 0032 F6D1     		bne	.L54
 735              	.LVL29:
 736              		.loc 1 192 0
 737 0034 C0F34F00 		ubfx	r0, r0, #1, #16
 738              	.LVL30:
 739              		.loc 1 193 0
 740 0038 7047     		bx	lr
 741              	.LVL31:
ARM GAS  /tmp/ccNxvlrf.s 			page 14


 742              	.L55:
 743              		.loc 1 184 0
 744 003a C0F38F00 		ubfx	r0, r0, #2, #16
 745              	.LVL32:
 746              		.loc 1 185 0
 747 003e 7047     		bx	lr
 748              	.L57:
 749              		.align	2
 750              	.L56:
 751 0040 00000000 		.word	.LANCHOR1
 752 0044 01000C00 		.word	786433
 753              		.cfi_endproc
 754              	.LFE264:
 755              		.size	spi_to_data, .-spi_to_data
 756              		.global	__aeabi_f2d
 757              		.global	__aeabi_ui2d
 758              		.global	__aeabi_ddiv
 759              		.global	__aeabi_dmul
 760              		.global	__aeabi_d2iz
 761              		.section	.text.example_thread,"ax",%progbits
 762              		.align	1
 763              		.p2align 4,,15
 764              		.syntax unified
 765              		.thumb
 766              		.thumb_func
 767              		.fpu fpv4-sp-d16
 768              		.type	example_thread, %function
 769              	example_thread:
 770              	.LFB265:
 771              		.loc 1 203 0
 772              		.cfi_startproc
 773              		@ args = 0, pretend = 0, frame = 0
 774              		@ frame_needed = 0, uses_anonymous_args = 0
 775              	.LVL33:
 776 0000 2DE9F84F 		push	{r3, r4, r5, r6, r7, r8, r9, r10, fp, lr}
 777              		.cfi_def_cfa_offset 40
 778              		.cfi_offset 3, -40
 779              		.cfi_offset 4, -36
 780              		.cfi_offset 5, -32
 781              		.cfi_offset 6, -28
 782              		.cfi_offset 7, -24
 783              		.cfi_offset 8, -20
 784              		.cfi_offset 9, -16
 785              		.cfi_offset 10, -12
 786              		.cfi_offset 11, -8
 787              		.cfi_offset 14, -4
 788              	.LBB107:
 789              	.LBB108:
 790              		.file 3 "ChibiOS_3.0.2/os/rt/include/chregistry.h"
 791              		.loc 3 135 0
 792 0004 364B     		ldr	r3, .L66
 793 0006 374A     		ldr	r2, .L66+4
 794 0008 9B69     		ldr	r3, [r3, #24]
 795 000a 374C     		ldr	r4, .L66+8
 796 000c 374D     		ldr	r5, .L66+12
 797 000e DFF8FC80 		ldr	r8, .L66+44
 798              	.LBE108:
ARM GAS  /tmp/ccNxvlrf.s 			page 15


 799              	.LBE107:
 800              		.loc 1 222 0
 801 0012 DFF8FC90 		ldr	r9, .L66+48
 802              		.loc 1 223 0
 803 0016 364F     		ldr	r7, .L66+16
 804              		.loc 1 203 0
 805 0018 2DED028B 		vpush.64	{d8}
 806              		.cfi_def_cfa_offset 48
 807              		.cfi_offset 80, -48
 808              		.cfi_offset 81, -44
 809              		.loc 1 223 0
 810 001c 0026     		movs	r6, #0
 811              		.loc 1 238 0
 812 001e 9FED358A 		vldr.32	s16, .L66+20
 813              	.LBB110:
 814              	.LBB109:
 815              		.loc 3 135 0
 816 0022 9A61     		str	r2, [r3, #24]
 817              	.LVL34:
 818 0024 34E0     		b	.L62
 819              	.LVL35:
 820              	.L65:
 821              	.LBE109:
 822              	.LBE110:
 823              		.loc 1 228 0
 824 0026 C5E900A3 		strd	r10, r3, [r5]
 825              		.loc 1 237 0
 826 002a FFF7FEFF 		bl	commands_printf
 827              	.LVL36:
 828              		.loc 1 238 0
 829 002e 07EE90AA 		vmov	s15, r10	@ int
 830 0032 B8EE670A 		vcvt.f32.u32	s0, s15
 831 0036 80EE080A 		vdiv.f32	s0, s0, s16
 832 003a FFF7FEFF 		bl	mc_interface_set_current
 833              	.LVL37:
 834              	.L61:
 835              		.loc 1 248 0
 836 003e 3246     		mov	r2, r6
 837 0040 3B46     		mov	r3, r7
 838 0042 D4E90001 		ldrd	r0, [r4]
 839 0046 FFF7FEFF 		bl	__aeabi_dmul
 840              	.LVL38:
 841 004a 8B46     		mov	fp, r1
 842 004c 8246     		mov	r10, r0
 843              	.LVL39:
 844 004e C4E900AB 		strd	r10, [r4]
 845              	.LVL40:
 846              		.loc 1 251 0
 847 0052 FFF7FEFF 		bl	__aeabi_d2iz
 848              	.LVL41:
 849 0056 2849     		ldr	r1, .L66+24
 850 0058 8142     		cmp	r1, r0
 851 005a B8BF     		it	lt
 852 005c 0146     		movlt	r1, r0
 853              	.LVL42:
 854              	.LBB111:
 855              	.LBB112:
ARM GAS  /tmp/ccNxvlrf.s 			page 16


 856              		.loc 1 87 0
 857 005e 01F6FF71 		addw	r1, r1, #4095
 858              	.LVL43:
 859              		.loc 1 89 0
 860 0062 8900     		lsls	r1, r1, #2
 861              		.loc 1 93 0
 862 0064 41F49021 		orr	r1, r1, #294912
 863              	.LBE112:
 864              	.LBE111:
 865              		.loc 1 252 0
 866 0068 5246     		mov	r2, r10
 867 006a 5B46     		mov	r3, fp
 868              	.LBB114:
 869              	.LBB113:
 870              		.loc 1 93 0
 871 006c 41F00201 		orr	r1, r1, #2
 872              	.LBE113:
 873              	.LBE114:
 874              		.loc 1 252 0
 875 0070 2248     		ldr	r0, .L66+28
 876              		.loc 1 251 0
 877 0072 C8F80010 		str	r1, [r8]
 878              		.loc 1 252 0
 879 0076 FFF7FEFF 		bl	commands_printf
 880              	.LVL44:
 881              		.loc 1 253 0
 882 007a D8F80010 		ldr	r1, [r8]
 883 007e 2048     		ldr	r0, .L66+32
 884 0080 FFF7FEFF 		bl	commands_printf
 885              	.LVL45:
 886              		.loc 1 256 0
 887 0084 4FF47A70 		mov	r0, #1000
 888 0088 FFF7FEFF 		bl	chThdSleep
 889              	.LVL46:
 890              		.loc 1 259 0
 891 008c FFF7FEFF 		bl	timeout_reset
 892              	.LVL47:
 893              	.L62:
 894              		.loc 1 217 0
 895 0090 FFF7FEFF 		bl	mcpwm_foc_get_tot_current
 896              	.LVL48:
 897 0094 10EE100A 		vmov	r0, s0
 898 0098 FFF7FEFF 		bl	__aeabi_f2d
 899              	.LVL49:
 900 009c C4E90001 		strd	r0, [r4]
 901              		.loc 1 220 0
 902 00a0 FFF7FEFF 		bl	spi_to_data
 903              	.LVL50:
 904              		.loc 1 221 0
 905 00a4 B0F5805F 		cmp	r0, #4096
 906              		.loc 1 220 0
 907 00a8 8246     		mov	r10, r0
 908              	.LVL51:
 909              		.loc 1 221 0
 910 00aa 14D3     		bcc	.L64
 911              	.LVL52:
 912              	.L59:
ARM GAS  /tmp/ccNxvlrf.s 			page 17


 913              		.loc 1 223 0
 914 00ac 5046     		mov	r0, r10
 915 00ae FFF7FEFF 		bl	__aeabi_ui2d
 916              	.LVL53:
 917 00b2 3246     		mov	r2, r6
 918 00b4 3B46     		mov	r3, r7
 919 00b6 FFF7FEFF 		bl	__aeabi_ddiv
 920              	.LVL54:
 921 00ba 0246     		mov	r2, r0
 922 00bc 0B46     		mov	r3, r1
 923 00be 1148     		ldr	r0, .L66+36
 924 00c0 FFF7FEFF 		bl	commands_printf
 925              	.LVL55:
 926              		.loc 1 226 0
 927 00c4 2A68     		ldr	r2, [r5]
 928              		.loc 1 237 0
 929 00c6 1048     		ldr	r0, .L66+40
 930              		.loc 1 228 0
 931 00c8 0123     		movs	r3, #1
 932              		.loc 1 226 0
 933 00ca 5245     		cmp	r2, r10
 934              		.loc 1 237 0
 935 00cc 1946     		mov	r1, r3
 936              		.loc 1 226 0
 937 00ce AAD1     		bne	.L65
 938              		.loc 1 230 0
 939 00d0 0023     		movs	r3, #0
 940 00d2 6B60     		str	r3, [r5, #4]
 941 00d4 B3E7     		b	.L61
 942              	.LVL56:
 943              	.L64:
 944              		.loc 1 222 0
 945 00d6 0146     		mov	r1, r0
 946 00d8 4846     		mov	r0, r9
 947              	.LVL57:
 948 00da FFF7FEFF 		bl	commands_printf
 949              	.LVL58:
 950 00de E5E7     		b	.L59
 951              	.L67:
 952              		.align	2
 953              	.L66:
 954 00e0 00000000 		.word	ch
 955 00e4 00000000 		.word	.LC0
 956 00e8 00000000 		.word	.LANCHOR3
 957 00ec 00000000 		.word	.LANCHOR4
 958 00f0 00408F40 		.word	1083129856
 959 00f4 00007A44 		.word	1148846080
 960 00f8 01F0FFFF 		.word	-4095
 961 00fc 40000000 		.word	.LC4
 962 0100 58000000 		.word	.LC5
 963 0104 1C000000 		.word	.LC2
 964 0108 30000000 		.word	.LC3
 965 010c 00000000 		.word	.LANCHOR2
 966 0110 0C000000 		.word	.LC1
 967              		.cfi_endproc
 968              	.LFE265:
 969              		.size	example_thread, .-example_thread
ARM GAS  /tmp/ccNxvlrf.s 			page 18


 970              		.global	pwm_current
 971              		.global	pwm_rpm
 972              		.global	merker
 973              		.global	testvalue
 974              		.global	spi_val
 975              		.section	.bss.example_thread_wa,"aw",%nobits
 976              		.align	3
 977              		.set	.LANCHOR0,. + 0
 978              		.type	example_thread_wa, %object
 979              		.size	example_thread_wa, 2456
 980              	example_thread_wa:
 981 0000 00000000 		.space	2456
 981      00000000 
 981      00000000 
 981      00000000 
 981      00000000 
 982              		.section	.bss.merker,"aw",%nobits
 983              		.align	2
 984              		.set	.LANCHOR4,. + 0
 985              		.type	merker, %object
 986              		.size	merker, 8
 987              	merker:
 988 0000 00000000 		.space	8
 988      00000000 
 989              		.section	.bss.pwm_current,"aw",%nobits
 990              		.align	3
 991              		.set	.LANCHOR3,. + 0
 992              		.type	pwm_current, %object
 993              		.size	pwm_current, 8
 994              	pwm_current:
 995 0000 00000000 		.space	8
 995      00000000 
 996              		.section	.bss.pwm_rpm,"aw",%nobits
 997              		.align	3
 998              		.type	pwm_rpm, %object
 999              		.size	pwm_rpm, 8
 1000              	pwm_rpm:
 1001 0000 00000000 		.space	8
 1001      00000000 
 1002              		.section	.bss.spi_val,"aw",%nobits
 1003              		.align	2
 1004              		.set	.LANCHOR1,. + 0
 1005              		.type	spi_val, %object
 1006              		.size	spi_val, 4
 1007              	spi_val:
 1008 0000 00000000 		.space	4
 1009              		.section	.bss.testvalue,"aw",%nobits
 1010              		.align	2
 1011              		.set	.LANCHOR2,. + 0
 1012              		.type	testvalue, %object
 1013              		.size	testvalue, 4
 1014              	testvalue:
 1015 0000 00000000 		.space	4
 1016              		.section	.rodata.example_thread.str1.4,"aMS",%progbits,1
 1017              		.align	2
 1018              	.LC0:
 1019 0000 4150505F 		.ascii	"APP_EXAMPLE\000"
ARM GAS  /tmp/ccNxvlrf.s 			page 19


 1019      4558414D 
 1019      504C4500 
 1020              	.LC1:
 1021 000c 53504920 		.ascii	"SPI Receive: %d\000"
 1021      52656365 
 1021      6976653A 
 1021      20256400 
 1022              	.LC2:
 1023 001c 53504920 		.ascii	"SPI Receive: %lf\000"
 1023      52656365 
 1023      6976653A 
 1023      20256C66 
 1023      00
 1024 002d 000000   		.space	3
 1025              	.LC3:
 1026 0030 53657420 		.ascii	"Set Current: %d\000"
 1026      43757272 
 1026      656E743A 
 1026      20256400 
 1027              	.LC4:
 1028 0040 70776D5F 		.ascii	"pwm_current      : %lf\000"
 1028      63757272 
 1028      656E7420 
 1028      20202020 
 1028      203A2025 
 1029 0057 00       		.space	1
 1030              	.LC5:
 1031 0058 53504920 		.ascii	"SPI Send: %d\000"
 1031      53656E64 
 1031      3A202564 
 1031      00
 1032              		.text
 1033              	.Letext0:
 1034              		.file 4 "/usr/lib/gcc/arm-none-eabi/7.3.1/include/stddef.h"
 1035              		.file 5 "/usr/arm-none-eabi/include/machine/_default_types.h"
 1036              		.file 6 "/usr/arm-none-eabi/include/sys/_stdint.h"
 1037              		.file 7 "ChibiOS_3.0.2/os/rt/ports/ARMCMx/compilers/GCC/chtypes.h"
 1038              		.file 8 "ChibiOS_3.0.2/os/rt/include/chsystypes.h"
 1039              		.file 9 "ChibiOS_3.0.2/os/rt/include/chschd.h"
 1040              		.file 10 "ChibiOS_3.0.2/os/ext/CMSIS/include/core_cm4.h"
 1041              		.file 11 "ChibiOS_3.0.2/os/ext/CMSIS/ST/system_stm32f4xx.h"
 1042              		.file 12 "ChibiOS_3.0.2/os/ext/CMSIS/ST/stm32f407xx.h"
 1043              		.file 13 "ChibiOS_3.0.2/os/ext/CMSIS/ST/stm32f4xx.h"
 1044              		.file 14 "ChibiOS_3.0.2/os/rt/ports/ARMCMx/chcore.h"
 1045              		.file 15 "ChibiOS_3.0.2/os/rt/ports/ARMCMx/chcore_v7m.h"
 1046              		.file 16 "ChibiOS_3.0.2/os/rt/include/chtm.h"
 1047              		.file 17 "ChibiOS_3.0.2/os/rt/include/chsem.h"
 1048              		.file 18 "ChibiOS_3.0.2/os/rt/include/chmtx.h"
 1049              		.file 19 "ChibiOS_3.0.2/os/rt/include/chevents.h"
 1050              		.file 20 "ChibiOS_3.0.2/os/rt/include/chqueues.h"
 1051              		.file 21 "./conf_general.h"
 1052              		.file 22 "ChibiOS_3.0.2/ext/stdperiph_stm32f4/inc/stm32f4xx_tim.h"
 1053              		.file 23 "ChibiOS_3.0.2/os/hal/ports/STM32/STM32F4xx/stm32_dma.h"
 1054              		.file 24 "ChibiOS_3.0.2/os/hal/ports/STM32/LLD/GPIOv2/pal_lld.h"
 1055              		.file 25 "ChibiOS_3.0.2/os/hal/include/can.h"
 1056              		.file 26 "ChibiOS_3.0.2/os/hal/ports/STM32/LLD/can_lld.h"
 1057              		.file 27 "ChibiOS_3.0.2/os/hal/include/i2c.h"
ARM GAS  /tmp/ccNxvlrf.s 			page 20


 1058              		.file 28 "ChibiOS_3.0.2/os/hal/ports/STM32/LLD/I2Cv1/i2c_lld.h"
 1059              		.file 29 "ChibiOS_3.0.2/os/hal/include/icu.h"
 1060              		.file 30 "ChibiOS_3.0.2/os/hal/ports/STM32/LLD/TIMv1/icu_lld.h"
 1061              		.file 31 "ChibiOS_3.0.2/os/hal/ports/STM32/LLD/TIMv1/stm32_tim.h"
 1062              		.file 32 "ChibiOS_3.0.2/os/hal/include/serial.h"
 1063              		.file 33 "ChibiOS_3.0.2/os/hal/ports/STM32/LLD/USARTv1/serial_lld.h"
 1064              		.file 34 "ChibiOS_3.0.2/os/hal/include/spi.h"
 1065              		.file 35 "ChibiOS_3.0.2/os/hal/ports/STM32/LLD/SPIv1/spi_lld.h"
 1066              		.file 36 "ChibiOS_3.0.2/os/hal/include/usb.h"
 1067              		.file 37 "ChibiOS_3.0.2/os/hal/ports/STM32/LLD/OTGv1/usb_lld.h"
 1068              		.file 38 "ChibiOS_3.0.2/os/hal/ports/STM32/LLD/OTGv1/stm32_otg.h"
 1069              		.file 39 "./mc_interface.h"
 1070              		.file 40 "./mcpwm.h"
 1071              		.file 41 "./commands.h"
 1072              		.file 42 "ChibiOS_3.0.2/os/rt/include/chthreads.h"
 1073              		.file 43 "./timeout.h"
 1074              		.file 44 "./mcpwm_foc.h"
 1075              		.file 45 "ChibiOS_3.0.2/ext/stdperiph_stm32f4/inc/stm32f4xx_rcc.h"
 1076              		.file 46 "ChibiOS_3.0.2/os/hal/ports/common/ARMCMx/nvic.h"