ARM GAS  /tmp/ccXDsUE2.s 			page 1


   1              		.cpu cortex-m4
   2              		.eabi_attribute 27, 1
   3              		.eabi_attribute 28, 1
   4              		.eabi_attribute 20, 1
   5              		.eabi_attribute 21, 1
   6              		.eabi_attribute 23, 3
   7              		.eabi_attribute 24, 1
   8              		.eabi_attribute 25, 1
   9              		.eabi_attribute 26, 1
  10              		.eabi_attribute 30, 2
  11              		.eabi_attribute 34, 1
  12              		.eabi_attribute 18, 4
  13              		.file	"commands.c"
  14              		.text
  15              	.Ltext0:
  16              		.cfi_sections	.debug_frame
  17              		.section	.text.commands_send_packet,"ax",%progbits
  18              		.align	1
  19              		.p2align 4,,15
  20              		.global	commands_send_packet
  21              		.syntax unified
  22              		.thumb
  23              		.thumb_func
  24              		.fpu fpv4-sp-d16
  25              		.type	commands_send_packet, %function
  26              	commands_send_packet:
  27              	.LFB260:
  28              		.file 1 "commands.c"
  29              		.loc 1 90 0
  30              		.cfi_startproc
  31              		@ args = 0, pretend = 0, frame = 0
  32              		@ frame_needed = 0, uses_anonymous_args = 0
  33              		@ link register save eliminated.
  34              	.LVL0:
  35              		.loc 1 91 0
  36 0000 024B     		ldr	r3, .L4
  37 0002 1A68     		ldr	r2, [r3]
  38 0004 0AB1     		cbz	r2, .L1
  39              		.loc 1 92 0
  40 0006 1B68     		ldr	r3, [r3]
  41 0008 1847     		bx	r3	@ indirect register sibling call
  42              	.LVL1:
  43              	.L1:
  44              		.loc 1 94 0
  45 000a 7047     		bx	lr
  46              	.L5:
  47              		.align	2
  48              	.L4:
  49 000c 00000000 		.word	.LANCHOR0
  50              		.cfi_endproc
  51              	.LFE260:
  52              		.size	commands_send_packet, .-commands_send_packet
  53              		.section	.text.blocking_thread,"ax",%progbits
  54              		.align	1
  55              		.p2align 4,,15
  56              		.syntax unified
  57              		.thumb
ARM GAS  /tmp/ccXDsUE2.s 			page 2


  58              		.thumb_func
  59              		.fpu fpv4-sp-d16
  60              		.type	blocking_thread, %function
  61              	blocking_thread:
  62              	.LFB278:
  63              		.loc 1 1214 0
  64              		.cfi_startproc
  65              		@ args = 0, pretend = 0, frame = 32
  66              		@ frame_needed = 0, uses_anonymous_args = 0
  67              	.LVL2:
  68 0000 2DE9F04F 		push	{r4, r5, r6, r7, r8, r9, r10, fp, lr}
  69              		.cfi_def_cfa_offset 36
  70              		.cfi_offset 4, -36
  71              		.cfi_offset 5, -32
  72              		.cfi_offset 6, -28
  73              		.cfi_offset 7, -24
  74              		.cfi_offset 8, -20
  75              		.cfi_offset 9, -16
  76              		.cfi_offset 10, -12
  77              		.cfi_offset 11, -8
  78              		.cfi_offset 14, -4
  79              	.LBB154:
  80              	.LBB155:
  81              		.file 2 "ChibiOS_3.0.2/os/rt/include/chregistry.h"
  82              		.loc 2 135 0
  83 0004 844B     		ldr	r3, .L124
  84              	.LBE155:
  85              	.LBE154:
  86              		.loc 1 1219 0
  87 0006 854A     		ldr	r2, .L124+4
  88              	.LBB158:
  89              	.LBB156:
  90              		.loc 2 135 0
  91 0008 9B69     		ldr	r3, [r3, #24]
  92 000a 8549     		ldr	r1, .L124+8
  93 000c 854F     		ldr	r7, .L124+12
  94 000e 864D     		ldr	r5, .L124+16
  95 0010 DFF83C92 		ldr	r9, .L124+56
  96 0014 854E     		ldr	r6, .L124+20
  97 0016 DFF83C82 		ldr	r8, .L124+60
  98              	.LBE156:
  99              	.LBE158:
 100              		.loc 1 1214 0
 101 001a 2DED0A8B 		vpush.64	{d8, d9, d10, d11, d12}
 102              		.cfi_def_cfa_offset 76
 103              		.cfi_offset 80, -76
 104              		.cfi_offset 81, -72
 105              		.cfi_offset 82, -68
 106              		.cfi_offset 83, -64
 107              		.cfi_offset 84, -60
 108              		.cfi_offset 85, -56
 109              		.cfi_offset 86, -52
 110              		.cfi_offset 87, -48
 111              		.cfi_offset 88, -44
 112              		.cfi_offset 89, -40
 113              	.LBB159:
 114              	.LBB160:
ARM GAS  /tmp/ccXDsUE2.s 			page 3


 115              		.loc 1 1419 0
 116 001e 9FED848A 		vldr.32	s16, .L124+24
 117              	.LBE160:
 118              	.LBB161:
 119              		.loc 1 1399 0
 120 0022 9FED849A 		vldr.32	s18, .L124+28
 121              		.loc 1 1410 0
 122 0026 DFED849A 		vldr.32	s19, .L124+32
 123              		.loc 1 1405 0
 124 002a DFED848A 		vldr.32	s17, .L124+36
 125              	.LBE161:
 126              	.LBB162:
 127              		.loc 1 1364 0
 128 002e DFED84CA 		vldr.32	s25, .L124+40
 129              		.loc 1 1365 0
 130 0032 9FED84CA 		vldr.32	s24, .L124+44
 131              	.LBE162:
 132              	.LBE159:
 133              	.LBB189:
 134              	.LBB157:
 135              		.loc 2 135 0
 136 0036 9961     		str	r1, [r3, #24]
 137              	.LVL3:
 138              	.LBE157:
 139              	.LBE189:
 140              		.loc 1 1214 0
 141 0038 8BB0     		sub	sp, sp, #44
 142              		.cfi_def_cfa_offset 120
 143              		.loc 1 1219 0
 144 003a 1360     		str	r3, [r2]
 145              	.LVL4:
 146              	.L56:
 147              	.LBB190:
 148              		.loc 1 1222 0
 149 003c 0120     		movs	r0, #1
 150 003e FFF7FEFF 		bl	chEvtWaitAny
 151              	.LVL5:
 152              		.loc 1 1231 0
 153 0042 3C78     		ldrb	r4, [r7]	@ zero_extendqisi2
 154              		.loc 1 1225 0
 155 0044 D9F80020 		ldr	r2, [r9]
 156              	.LVL6:
 157              		.loc 1 1234 0
 158 0048 A4F11403 		sub	r3, r4, #20
 159 004c 3F2B     		cmp	r3, #63
 160 004e 69D8     		bhi	.L7
 161 0050 DFE813F0 		tbh	[pc, r3, lsl #1]
 162              	.L9:
 163 0054 7602     		.2byte	(.L8-.L9)/2
 164 0056 6800     		.2byte	(.L7-.L9)/2
 165 0058 6800     		.2byte	(.L7-.L9)/2
 166 005a 6800     		.2byte	(.L7-.L9)/2
 167 005c C502     		.2byte	(.L10-.L9)/2
 168 005e 3B02     		.2byte	(.L11-.L9)/2
 169 0060 9202     		.2byte	(.L12-.L9)/2
 170 0062 DE01     		.2byte	(.L13-.L9)/2
 171 0064 9501     		.2byte	(.L14-.L9)/2
ARM GAS  /tmp/ccXDsUE2.s 			page 4


 172 0066 6800     		.2byte	(.L7-.L9)/2
 173 0068 6800     		.2byte	(.L7-.L9)/2
 174 006a 6800     		.2byte	(.L7-.L9)/2
 175 006c 6800     		.2byte	(.L7-.L9)/2
 176 006e 6800     		.2byte	(.L7-.L9)/2
 177 0070 6800     		.2byte	(.L7-.L9)/2
 178 0072 6800     		.2byte	(.L7-.L9)/2
 179 0074 6800     		.2byte	(.L7-.L9)/2
 180 0076 6800     		.2byte	(.L7-.L9)/2
 181 0078 6800     		.2byte	(.L7-.L9)/2
 182 007a 6800     		.2byte	(.L7-.L9)/2
 183 007c 6800     		.2byte	(.L7-.L9)/2
 184 007e 6800     		.2byte	(.L7-.L9)/2
 185 0080 6800     		.2byte	(.L7-.L9)/2
 186 0082 6800     		.2byte	(.L7-.L9)/2
 187 0084 6800     		.2byte	(.L7-.L9)/2
 188 0086 6800     		.2byte	(.L7-.L9)/2
 189 0088 6800     		.2byte	(.L7-.L9)/2
 190 008a 6800     		.2byte	(.L7-.L9)/2
 191 008c 6800     		.2byte	(.L7-.L9)/2
 192 008e 6800     		.2byte	(.L7-.L9)/2
 193 0090 6800     		.2byte	(.L7-.L9)/2
 194 0092 6800     		.2byte	(.L7-.L9)/2
 195 0094 6800     		.2byte	(.L7-.L9)/2
 196 0096 6800     		.2byte	(.L7-.L9)/2
 197 0098 6800     		.2byte	(.L7-.L9)/2
 198 009a 6800     		.2byte	(.L7-.L9)/2
 199 009c 6800     		.2byte	(.L7-.L9)/2
 200 009e 5201     		.2byte	(.L15-.L9)/2
 201 00a0 0201     		.2byte	(.L16-.L9)/2
 202 00a2 6800     		.2byte	(.L7-.L9)/2
 203 00a4 6800     		.2byte	(.L7-.L9)/2
 204 00a6 6800     		.2byte	(.L7-.L9)/2
 205 00a8 CB00     		.2byte	(.L17-.L9)/2
 206 00aa 6800     		.2byte	(.L7-.L9)/2
 207 00ac 6800     		.2byte	(.L7-.L9)/2
 208 00ae 6800     		.2byte	(.L7-.L9)/2
 209 00b0 4B01     		.2byte	(.L18-.L9)/2
 210 00b2 C400     		.2byte	(.L19-.L9)/2
 211 00b4 A700     		.2byte	(.L20-.L9)/2
 212 00b6 9800     		.2byte	(.L21-.L9)/2
 213 00b8 8C00     		.2byte	(.L22-.L9)/2
 214 00ba 7D00     		.2byte	(.L23-.L9)/2
 215 00bc 6C00     		.2byte	(.L24-.L9)/2
 216 00be 6800     		.2byte	(.L7-.L9)/2
 217 00c0 6800     		.2byte	(.L7-.L9)/2
 218 00c2 6800     		.2byte	(.L7-.L9)/2
 219 00c4 6800     		.2byte	(.L7-.L9)/2
 220 00c6 6800     		.2byte	(.L7-.L9)/2
 221 00c8 6800     		.2byte	(.L7-.L9)/2
 222 00ca 6800     		.2byte	(.L7-.L9)/2
 223 00cc 4000     		.2byte	(.L25-.L9)/2
 224 00ce 6800     		.2byte	(.L7-.L9)/2
 225 00d0 6800     		.2byte	(.L7-.L9)/2
 226 00d2 A700     		.2byte	(.L20-.L9)/2
 227              		.p2align 1
 228              	.L25:
ARM GAS  /tmp/ccXDsUE2.s 			page 5


 229              	.LBB163:
 230              		.loc 1 1547 0
 231 00d4 0023     		movs	r3, #0
 232              		.loc 1 1548 0
 233 00d6 08A9     		add	r1, sp, #32
 234 00d8 5B48     		ldr	r0, .L124+48
 235              		.loc 1 1547 0
 236 00da 0893     		str	r3, [sp, #32]
 237              		.loc 1 1548 0
 238 00dc FFF7FEFF 		bl	buffer_get_uint32
 239              	.LVL7:
 240              		.loc 1 1549 0
 241 00e0 08A9     		add	r1, sp, #32
 242              		.loc 1 1548 0
 243 00e2 8246     		mov	r10, r0
 244              	.LVL8:
 245              		.loc 1 1549 0
 246 00e4 5848     		ldr	r0, .L124+48
 247              	.LVL9:
 248 00e6 FFF7FEFF 		bl	buffer_get_uint16
 249              	.LVL10:
 250 00ea 40F2FD14 		movw	r4, #509
 251              	.LVL11:
 252 00ee 8442     		cmp	r4, r0
 253 00f0 28BF     		it	cs
 254 00f2 0446     		movcs	r4, r0
 255 00f4 A4B2     		uxth	r4, r4
 256              	.LVL12:
 257              		.loc 1 1555 0
 258 00f6 2246     		mov	r2, r4
 259 00f8 5449     		ldr	r1, .L124+52
 260 00fa 5046     		mov	r0, r10
 261 00fc FFF7FEFF 		bl	bm_mem_read
 262              	.LVL13:
 263              		.loc 1 1558 0
 264 0100 5023     		movs	r3, #80
 265 0102 4FF0010C 		mov	ip, #1
 266              		.loc 1 1559 0
 267 0106 01B2     		sxth	r1, r0
 268 0108 08AA     		add	r2, sp, #32
 269 010a 4748     		ldr	r0, .L124+16
 270              	.LVL14:
 271              		.loc 1 1558 0
 272 010c 2B70     		strb	r3, [r5]
 273 010e CDF820C0 		str	ip, [sp, #32]
 274              		.loc 1 1559 0
 275 0112 FFF7FEFF 		bl	buffer_append_int16
 276              	.LVL15:
 277              		.loc 1 1560 0
 278 0116 3368     		ldr	r3, [r6]
 279 0118 23B1     		cbz	r3, .L7
 280              		.loc 1 1561 0
 281 011a 0899     		ldr	r1, [sp, #32]
 282 011c 3368     		ldr	r3, [r6]
 283 011e 4248     		ldr	r0, .L124+16
 284 0120 2144     		add	r1, r1, r4
 285 0122 9847     		blx	r3
ARM GAS  /tmp/ccXDsUE2.s 			page 6


 286              	.LVL16:
 287              	.L7:
 288              	.LBE163:
 289              		.loc 1 1569 0
 290 0124 0023     		movs	r3, #0
 291 0126 88F80030 		strb	r3, [r8]
 292              	.LBE190:
 293              		.loc 1 1221 0
 294 012a 87E7     		b	.L56
 295              	.LVL17:
 296              	.L24:
 297              	.LBB191:
 298              	.LBB164:
 299              		.loc 1 1531 0
 300 012c 0120     		movs	r0, #1
 301 012e 4823     		movs	r3, #72
 302 0130 0890     		str	r0, [sp, #32]
 303              		.loc 1 1538 0
 304 0132 08AA     		add	r2, sp, #32
 305              	.LVL18:
 306 0134 0021     		movs	r1, #0
 307 0136 3C48     		ldr	r0, .L124+16
 308              		.loc 1 1531 0
 309 0138 2B70     		strb	r3, [r5]
 310              		.loc 1 1538 0
 311 013a FFF7FEFF 		bl	buffer_append_int16
 312              	.LVL19:
 313              		.loc 1 1540 0
 314 013e 3368     		ldr	r3, [r6]
 315 0140 002B     		cmp	r3, #0
 316 0142 EFD0     		beq	.L7
 317              	.LVL20:
 318              	.L115:
 319              		.loc 1 1541 0
 320 0144 3368     		ldr	r3, [r6]
 321 0146 0899     		ldr	r1, [sp, #32]
 322 0148 3748     		ldr	r0, .L124+16
 323 014a 9847     		blx	r3
 324              	.LVL21:
 325              	.LBE164:
 326              		.loc 1 1543 0
 327 014c EAE7     		b	.L7
 328              	.LVL22:
 329              	.L23:
 330              	.LBB165:
 331              		.loc 1 1520 0
 332 014e FFF7FEFF 		bl	bm_default_swd_pins
 333              	.LVL23:
 334              		.loc 1 1522 0
 335 0152 0123     		movs	r3, #1
 336              		.loc 1 1523 0
 337 0154 1946     		mov	r1, r3
 338              		.loc 1 1522 0
 339 0156 4724     		movs	r4, #71
 340              	.LVL24:
 341              		.loc 1 1523 0
 342 0158 08AA     		add	r2, sp, #32
ARM GAS  /tmp/ccXDsUE2.s 			page 7


 343 015a 3348     		ldr	r0, .L124+16
 344              		.loc 1 1522 0
 345 015c 0893     		str	r3, [sp, #32]
 346 015e 2C70     		strb	r4, [r5]
 347              		.loc 1 1523 0
 348 0160 FFF7FEFF 		bl	buffer_append_int16
 349              	.LVL25:
 350              		.loc 1 1524 0
 351 0164 3368     		ldr	r3, [r6]
 352 0166 002B     		cmp	r3, #0
 353 0168 ECD1     		bne	.L115
 354 016a DBE7     		b	.L7
 355              	.LVL26:
 356              	.L22:
 357              	.LBE165:
 358              	.LBB166:
 359              		.loc 1 1510 0
 360 016c FFF7FEFF 		bl	bm_disconnect
 361              	.LVL27:
 362              		.loc 1 1514 0
 363 0170 3368     		ldr	r3, [r6]
 364              		.loc 1 1513 0
 365 0172 4622     		movs	r2, #70
 366 0174 2A70     		strb	r2, [r5]
 367              		.loc 1 1514 0
 368 0176 002B     		cmp	r3, #0
 369 0178 D4D0     		beq	.L7
 370              		.loc 1 1515 0
 371 017a 3368     		ldr	r3, [r6]
 372 017c 2A48     		ldr	r0, .L124+16
 373 017e 0121     		movs	r1, #1
 374 0180 9847     		blx	r3
 375              	.LVL28:
 376 0182 CFE7     		b	.L7
 377              	.LVL29:
 378              	.L21:
 379              	.LBE166:
 380              	.LBB167:
 381              		.loc 1 1502 0
 382 0184 0122     		movs	r2, #1
 383              	.LVL30:
 384 0186 4523     		movs	r3, #69
 385 0188 0892     		str	r2, [sp, #32]
 386 018a 2B70     		strb	r3, [r5]
 387              		.loc 1 1503 0
 388 018c FFF7FEFF 		bl	bm_reboot
 389              	.LVL31:
 390              	.L122:
 391 0190 01B2     		sxth	r1, r0
 392 0192 08AA     		add	r2, sp, #32
 393 0194 2448     		ldr	r0, .L124+16
 394 0196 FFF7FEFF 		bl	buffer_append_int16
 395              	.LVL32:
 396              		.loc 1 1504 0
 397 019a 3368     		ldr	r3, [r6]
 398 019c 002B     		cmp	r3, #0
 399 019e D1D1     		bne	.L115
ARM GAS  /tmp/ccXDsUE2.s 			page 8


 400 01a0 C0E7     		b	.L7
 401              	.LVL33:
 402              	.L20:
 403              	.LBE167:
 404              	.LBB168:
 405              		.loc 1 1479 0
 406 01a2 532C     		cmp	r4, #83
 407 01a4 00F0B482 		beq	.L123
 408              	.L50:
 409              	.LVL34:
 410              		.loc 1 1487 0
 411 01a8 0023     		movs	r3, #0
 412              		.loc 1 1488 0
 413 01aa 08A9     		add	r1, sp, #32
 414 01ac 2648     		ldr	r0, .L124+48
 415 01ae 0392     		str	r2, [sp, #12]
 416              	.LVL35:
 417              		.loc 1 1487 0
 418 01b0 0893     		str	r3, [sp, #32]
 419              		.loc 1 1488 0
 420 01b2 FFF7FEFF 		bl	buffer_get_uint32
 421              	.LVL36:
 422              		.loc 1 1490 0
 423 01b6 0899     		ldr	r1, [sp, #32]
 424 01b8 234B     		ldr	r3, .L124+48
 425 01ba 039A     		ldr	r2, [sp, #12]
 426 01bc 521A     		subs	r2, r2, r1
 427 01be 1944     		add	r1, r1, r3
 428 01c0 FFF7FEFF 		bl	bm_write_flash
 429              	.LVL37:
 430              		.loc 1 1493 0
 431 01c4 0123     		movs	r3, #1
 432              		.loc 1 1494 0
 433 01c6 01B2     		sxth	r1, r0
 434 01c8 08AA     		add	r2, sp, #32
 435 01ca 1748     		ldr	r0, .L124+16
 436              	.LVL38:
 437              		.loc 1 1493 0
 438 01cc 0893     		str	r3, [sp, #32]
 439 01ce 2C70     		strb	r4, [r5]
 440              		.loc 1 1494 0
 441 01d0 FFF7FEFF 		bl	buffer_append_int16
 442              	.LVL39:
 443              		.loc 1 1495 0
 444 01d4 3368     		ldr	r3, [r6]
 445 01d6 002B     		cmp	r3, #0
 446 01d8 B4D1     		bne	.L115
 447 01da A3E7     		b	.L7
 448              	.LVL40:
 449              	.L19:
 450              	.LBE168:
 451              	.LBB170:
 452              		.loc 1 1470 0
 453 01dc 0122     		movs	r2, #1
 454              	.LVL41:
 455 01de 4323     		movs	r3, #67
 456 01e0 0892     		str	r2, [sp, #32]
ARM GAS  /tmp/ccXDsUE2.s 			page 9


 457 01e2 2B70     		strb	r3, [r5]
 458              		.loc 1 1471 0
 459 01e4 FFF7FEFF 		bl	bm_erase_flash_all
 460              	.LVL42:
 461 01e8 D2E7     		b	.L122
 462              	.LVL43:
 463              	.L17:
 464              	.LBE170:
 465              	.LBB171:
 466              		.loc 1 1445 0
 467 01ea 3E23     		movs	r3, #62
 468 01ec 2B70     		strb	r3, [r5]
 469              	.LVL44:
 470 01ee 0024     		movs	r4, #0
 471              	.LVL45:
 472 01f0 4FF0010B 		mov	fp, #1
 473              	.LVL46:
 474              	.L46:
 475 01f4 5FFA84FA 		uxtb	r10, r4
 476              	.LVL47:
 477              	.LBB172:
 478              		.loc 1 1448 0
 479 01f8 5046     		mov	r0, r10
 480 01fa FFF7FEFF 		bl	comm_can_ping
 481              	.LVL48:
 482 01fe 0134     		adds	r4, r4, #1
 483              	.LVL49:
 484 0200 18B1     		cbz	r0, .L45
 485              		.loc 1 1449 0
 486 0202 05F80BA0 		strb	r10, [r5, fp]
 487 0206 0BF1010B 		add	fp, fp, #1
 488              	.LVL50:
 489              	.L45:
 490              		.loc 1 1447 0 discriminator 2
 491 020a FF2C     		cmp	r4, #255
 492 020c F2D1     		bne	.L46
 493              	.LBE172:
 494              		.loc 1 1453 0
 495 020e 3368     		ldr	r3, [r6]
 496 0210 002B     		cmp	r3, #0
 497 0212 87D0     		beq	.L7
 498              		.loc 1 1454 0
 499 0214 5946     		mov	r1, fp
 500 0216 54E1     		b	.L114
 501              	.L125:
 502              		.align	2
 503              	.L124:
 504 0218 00000000 		.word	ch
 505 021c 00000000 		.word	.LANCHOR1
 506 0220 00000000 		.word	.LC0
 507 0224 00000000 		.word	.LANCHOR3
 508 0228 00000000 		.word	.LANCHOR4
 509 022c 00000000 		.word	.LANCHOR5
 510 0230 00007A44 		.word	1148846080
 511 0234 00247449 		.word	1232348160
 512 0238 8096184B 		.word	1259902592
 513 023c 00000000 		.word	0
ARM GAS  /tmp/ccXDsUE2.s 			page 10


 514 0240 00401C46 		.word	1176256512
 515 0244 0AD7233C 		.word	1008981770
 516 0248 01000000 		.word	.LANCHOR3+1
 517 024c 03000000 		.word	.LANCHOR4+3
 518 0250 00000000 		.word	.LANCHOR2
 519 0254 00000000 		.word	.LANCHOR9
 520              	.LVL51:
 521              	.L16:
 522              	.LBE171:
 523              	.LBB173:
 524              		.loc 1 1418 0
 525 0258 7C78     		ldrb	r4, [r7, #1]	@ zero_extendqisi2
 526              	.LVL52:
 527              		.loc 1 1419 0
 528 025a C048     		ldr	r0, .L126
 529              		.loc 1 1418 0
 530 025c 0034     		adds	r4, r4, #0
 531 025e 4FF0010A 		mov	r10, #1
 532              		.loc 1 1419 0
 533 0262 08A9     		add	r1, sp, #32
 534 0264 B0EE480A 		vmov.f32	s0, s16
 535              		.loc 1 1418 0
 536 0268 18BF     		it	ne
 537 026a 0124     		movne	r4, #1
 538              	.LVL53:
 539 026c CDF820A0 		str	r10, [sp, #32]
 540              		.loc 1 1419 0
 541 0270 FFF7FEFF 		bl	buffer_get_float32
 542              	.LVL54:
 543              		.loc 1 1420 0
 544 0274 08A9     		add	r1, sp, #32
 545              		.loc 1 1419 0
 546 0276 B0EE40AA 		vmov.f32	s20, s0
 547              	.LVL55:
 548              		.loc 1 1420 0
 549 027a B848     		ldr	r0, .L126
 550 027c B0EE480A 		vmov.f32	s0, s16
 551              	.LVL56:
 552 0280 FFF7FEFF 		bl	buffer_get_float32
 553              	.LVL57:
 554              		.loc 1 1421 0
 555 0284 08A9     		add	r1, sp, #32
 556              		.loc 1 1420 0
 557 0286 F0EE40AA 		vmov.f32	s21, s0
 558              	.LVL58:
 559              		.loc 1 1421 0
 560 028a B448     		ldr	r0, .L126
 561 028c B0EE480A 		vmov.f32	s0, s16
 562              	.LVL59:
 563 0290 FFF7FEFF 		bl	buffer_get_float32
 564              	.LVL60:
 565              		.loc 1 1422 0
 566 0294 08A9     		add	r1, sp, #32
 567              		.loc 1 1421 0
 568 0296 B0EE40BA 		vmov.f32	s22, s0
 569              	.LVL61:
 570              		.loc 1 1422 0
ARM GAS  /tmp/ccXDsUE2.s 			page 11


 571 029a B048     		ldr	r0, .L126
 572 029c B0EE480A 		vmov.f32	s0, s16
 573              	.LVL62:
 574 02a0 FFF7FEFF 		bl	buffer_get_float32
 575              	.LVL63:
 576              		.loc 1 1423 0
 577 02a4 08A9     		add	r1, sp, #32
 578              		.loc 1 1422 0
 579 02a6 F0EE40BA 		vmov.f32	s23, s0
 580              	.LVL64:
 581              		.loc 1 1423 0
 582 02aa AC48     		ldr	r0, .L126
 583 02ac B0EE480A 		vmov.f32	s0, s16
 584              	.LVL65:
 585 02b0 FFF7FEFF 		bl	buffer_get_float32
 586              	.LVL66:
 587              		.loc 1 1425 0
 588 02b4 F0EE6B1A 		vmov.f32	s3, s23
 589 02b8 B0EE402A 		vmov.f32	s4, s0
 590 02bc B0EE4B1A 		vmov.f32	s2, s22
 591 02c0 F0EE6A0A 		vmov.f32	s1, s21
 592 02c4 B0EE4A0A 		vmov.f32	s0, s20
 593              	.LVL67:
 594 02c8 2046     		mov	r0, r4
 595 02ca FFF7FEFF 		bl	conf_general_detect_apply_all_foc_can
 596              	.LVL68:
 597              		.loc 1 1429 0
 598 02ce 3A23     		movs	r3, #58
 599              		.loc 1 1430 0
 600 02d0 01B2     		sxth	r1, r0
 601 02d2 08AA     		add	r2, sp, #32
 602 02d4 A248     		ldr	r0, .L126+4
 603              	.LVL69:
 604              		.loc 1 1429 0
 605 02d6 2B70     		strb	r3, [r5]
 606 02d8 CDF820A0 		str	r10, [sp, #32]
 607              		.loc 1 1430 0
 608 02dc FFF7FEFF 		bl	buffer_append_int16
 609              	.LVL70:
 610              		.loc 1 1431 0
 611 02e0 3368     		ldr	r3, [r6]
 612 02e2 002B     		cmp	r3, #0
 613 02e4 7FF42EAF 		bne	.L115
 614 02e8 1CE7     		b	.L7
 615              	.LVL71:
 616              	.L18:
 617              	.LBE173:
 618              	.LBB174:
 619              		.loc 1 1461 0
 620 02ea 0122     		movs	r2, #1
 621              	.LVL72:
 622 02ec 4223     		movs	r3, #66
 623 02ee 0892     		str	r2, [sp, #32]
 624 02f0 2B70     		strb	r3, [r5]
 625              		.loc 1 1462 0
 626 02f2 FFF7FEFF 		bl	bm_connect
 627              	.LVL73:
ARM GAS  /tmp/ccXDsUE2.s 			page 12


 628 02f6 4BE7     		b	.L122
 629              	.LVL74:
 630              	.L15:
 631              	.LBE174:
 632              	.LBB175:
 633              		.loc 1 1395 0
 634 02f8 0023     		movs	r3, #0
 635              		.loc 1 1396 0
 636 02fa 07A9     		add	r1, sp, #28
 637 02fc 9748     		ldr	r0, .L126
 638              		.loc 1 1395 0
 639 02fe 0793     		str	r3, [sp, #28]
 640              		.loc 1 1396 0
 641 0300 B0EE480A 		vmov.f32	s0, s16
 642 0304 FFF7FEFF 		bl	buffer_get_float32
 643              	.LVL75:
 644              		.loc 1 1397 0
 645 0308 07A9     		add	r1, sp, #28
 646              		.loc 1 1396 0
 647 030a B0EE40AA 		vmov.f32	s20, s0
 648              	.LVL76:
 649              		.loc 1 1397 0
 650 030e 9348     		ldr	r0, .L126
 651 0310 B0EE480A 		vmov.f32	s0, s16
 652              	.LVL77:
 653 0314 FFF7FEFF 		bl	buffer_get_float32
 654              	.LVL78:
 655              		.loc 1 1398 0
 656 0318 07A9     		add	r1, sp, #28
 657              		.loc 1 1397 0
 658 031a B0EE40BA 		vmov.f32	s22, s0
 659              	.LVL79:
 660              		.loc 1 1398 0
 661 031e 8F48     		ldr	r0, .L126
 662 0320 B0EE480A 		vmov.f32	s0, s16
 663              	.LVL80:
 664 0324 FFF7FEFF 		bl	buffer_get_float32
 665              	.LVL81:
 666              		.loc 1 1399 0
 667 0328 8C48     		ldr	r0, .L126
 668              		.loc 1 1398 0
 669 032a F0EE40AA 		vmov.f32	s21, s0
 670              	.LVL82:
 671              		.loc 1 1399 0
 672 032e 07A9     		add	r1, sp, #28
 673 0330 B0EE490A 		vmov.f32	s0, s18
 674              	.LVL83:
 675 0334 FFF7FEFF 		bl	buffer_get_float32
 676              	.LVL84:
 677              		.loc 1 1402 0
 678 0338 08A8     		add	r0, sp, #32
 679 033a F0EE401A 		vmov.f32	s3, s0
 680 033e B0EE4B1A 		vmov.f32	s2, s22
 681 0342 F0EE6A0A 		vmov.f32	s1, s21
 682 0346 B0EE4A0A 		vmov.f32	s0, s20
 683              	.LVL85:
 684 034a FFF7FEFF 		bl	conf_general_measure_flux_linkage_openloop
ARM GAS  /tmp/ccXDsUE2.s 			page 13


 685              	.LVL86:
 686              		.loc 1 1404 0
 687 034e 0028     		cmp	r0, #0
 688 0350 00F0B081 		beq	.L41
 689 0354 9DED080A 		vldr.32	s0, [sp, #32]
 690              	.L42:
 691              		.loc 1 1409 0
 692 0358 0122     		movs	r2, #1
 693 035a 3923     		movs	r3, #57
 694              	.LVL87:
 695              	.L118:
 696              		.loc 1 1410 0
 697 035c F0EE690A 		vmov.f32	s1, s19
 698 0360 07A9     		add	r1, sp, #28
 699 0362 7F48     		ldr	r0, .L126+4
 700              		.loc 1 1409 0
 701 0364 2B70     		strb	r3, [r5]
 702 0366 0792     		str	r2, [sp, #28]
 703              		.loc 1 1410 0
 704 0368 FFF7FEFF 		bl	buffer_append_float32
 705              	.LVL88:
 706              		.loc 1 1411 0
 707 036c 3368     		ldr	r3, [r6]
 708 036e 002B     		cmp	r3, #0
 709 0370 3FF4D8AE 		beq	.L7
 710              		.loc 1 1412 0
 711 0374 3368     		ldr	r3, [r6]
 712 0376 0799     		ldr	r1, [sp, #28]
 713 0378 7948     		ldr	r0, .L126+4
 714 037a 9847     		blx	r3
 715              	.LVL89:
 716              	.LBE175:
 717              		.loc 1 1414 0
 718 037c D2E6     		b	.L7
 719              	.LVL90:
 720              	.L14:
 721              		.loc 1 1356 0
 722 037e FFF7FEFF 		bl	mc_interface_get_configuration
 723              	.LVL91:
 724 0382 4FF4E472 		mov	r2, #456
 725 0386 0146     		mov	r1, r0
 726 0388 7648     		ldr	r0, .L126+8
 727 038a FFF7FEFF 		bl	memcpy
 728              	.LVL92:
 729              		.loc 1 1358 0
 730 038e 754B     		ldr	r3, .L126+8
 731 0390 93F89841 		ldrb	r4, [r3, #408]	@ zero_extendqisi2
 732              	.LVL93:
 733 0394 002C     		cmp	r4, #0
 734 0396 40F07881 		bne	.L38
 735              	.LBB176:
 736              		.loc 1 1359 0
 737 039a 1946     		mov	r1, r3
 738 039c 4FF4E472 		mov	r2, #456
 739 03a0 7148     		ldr	r0, .L126+12
 740 03a2 FFF7FEFF 		bl	memcpy
 741              	.LVL94:
ARM GAS  /tmp/ccXDsUE2.s 			page 14


 742              		.loc 1 1361 0
 743 03a6 07AA     		add	r2, sp, #28
 744 03a8 1146     		mov	r1, r2
 745 03aa 6C48     		ldr	r0, .L126
 746              		.loc 1 1360 0
 747 03ac 0794     		str	r4, [sp, #28]
 748              		.loc 1 1361 0
 749 03ae B0EE480A 		vmov.f32	s0, s16
 750 03b2 FFF7FEFF 		bl	buffer_get_float32
 751              	.LVL95:
 752              		.loc 1 1367 0
 753 03b6 6B48     		ldr	r0, .L126+8
 754              		.loc 1 1366 0
 755 03b8 6C4B     		ldr	r3, .L126+16
 756 03ba C0F8B030 		str	r3, [r0, #176]	@ float
 757              		.loc 1 1363 0
 758 03be 0222     		movs	r2, #2
 759              		.loc 1 1361 0
 760 03c0 B0EE40AA 		vmov.f32	s20, s0
 761              	.LVL96:
 762              		.loc 1 1363 0
 763 03c4 8270     		strb	r2, [r0, #2]
 764              		.loc 1 1364 0
 765 03c6 C0ED2DCA 		vstr.32	s25, [r0, #180]
 766              		.loc 1 1365 0
 767 03ca 80ED2BCA 		vstr.32	s24, [r0, #172]
 768              		.loc 1 1367 0
 769 03ce FFF7FEFF 		bl	mc_interface_set_configuration
 770              	.LVL97:
 771              		.loc 1 1370 0
 772 03d2 B0EE4A0A 		vmov.f32	s0, s20
 773 03d6 08A8     		add	r0, sp, #32
 774 03d8 FFF7FEFF 		bl	mcpwm_foc_hall_detect
 775              	.LVL98:
 776 03dc 0446     		mov	r4, r0
 777              	.LVL99:
 778              		.loc 1 1371 0
 779 03de 6248     		ldr	r0, .L126+12
 780 03e0 FFF7FEFF 		bl	mc_interface_set_configuration
 781              	.LVL100:
 782              		.loc 1 1375 0
 783 03e4 08AB     		add	r3, sp, #32
 784 03e6 03CB     		ldmia	r3!, {r0, r1}
 785              		.loc 1 1377 0
 786 03e8 84F00104 		eor	r4, r4, #1
 787              	.LVL101:
 788              		.loc 1 1375 0
 789 03ec 604B     		ldr	r3, .L126+20
 790              		.loc 1 1377 0
 791 03ee 6C72     		strb	r4, [r5, #9]
 792              		.loc 1 1379 0
 793 03f0 3268     		ldr	r2, [r6]
 794              		.loc 1 1375 0
 795 03f2 5F4C     		ldr	r4, .L126+20
 796 03f4 1860     		str	r0, [r3]	@ unaligned
 797              		.loc 1 1374 0
 798 03f6 1C20     		movs	r0, #28
ARM GAS  /tmp/ccXDsUE2.s 			page 15


 799              		.loc 1 1377 0
 800 03f8 0A23     		movs	r3, #10
 801              		.loc 1 1375 0
 802 03fa 6160     		str	r1, [r4, #4]	@ unaligned
 803              		.loc 1 1377 0
 804 03fc 0793     		str	r3, [sp, #28]
 805              		.loc 1 1374 0
 806 03fe 2870     		strb	r0, [r5]
 807              		.loc 1 1379 0
 808 0400 002A     		cmp	r2, #0
 809 0402 3FF48FAE 		beq	.L7
 810              		.loc 1 1380 0
 811 0406 1946     		mov	r1, r3
 812 0408 601E     		subs	r0, r4, #1
 813 040a 3368     		ldr	r3, [r6]
 814 040c 9847     		blx	r3
 815              	.LVL102:
 816 040e 89E6     		b	.L7
 817              	.LVL103:
 818              	.L13:
 819              	.LBE176:
 820              		.loc 1 1314 0
 821 0410 FFF7FEFF 		bl	encoder_is_configured
 822              	.LVL104:
 823 0414 0446     		mov	r4, r0
 824              	.LVL105:
 825 0416 0028     		cmp	r0, #0
 826 0418 00F05881 		beq	.L35
 827              	.LBB177:
 828              		.loc 1 1315 0
 829 041c FFF7FEFF 		bl	mc_interface_get_configuration
 830              	.LVL106:
 831 0420 4FF4E472 		mov	r2, #456
 832 0424 0146     		mov	r1, r0
 833 0426 4F48     		ldr	r0, .L126+8
 834 0428 FFF7FEFF 		bl	memcpy
 835              	.LVL107:
 836              		.loc 1 1316 0
 837 042c 4FF4E472 		mov	r2, #456
 838 0430 4C49     		ldr	r1, .L126+8
 839 0432 4D48     		ldr	r0, .L126+12
 840 0434 FFF7FEFF 		bl	memcpy
 841              	.LVL108:
 842              		.loc 1 1318 0
 843 0438 0024     		movs	r4, #0
 844              		.loc 1 1319 0
 845 043a 06A9     		add	r1, sp, #24
 846 043c 4748     		ldr	r0, .L126
 847              		.loc 1 1318 0
 848 043e 0694     		str	r4, [sp, #24]
 849              		.loc 1 1319 0
 850 0440 B0EE480A 		vmov.f32	s0, s16
 851 0444 FFF7FEFF 		bl	buffer_get_float32
 852              	.LVL109:
 853              		.loc 1 1325 0
 854 0448 4648     		ldr	r0, .L126+8
 855              		.loc 1 1324 0
ARM GAS  /tmp/ccXDsUE2.s 			page 16


 856 044a 484B     		ldr	r3, .L126+16
 857 044c C0F8B030 		str	r3, [r0, #176]	@ float
 858              		.loc 1 1321 0
 859 0450 0222     		movs	r2, #2
 860              		.loc 1 1319 0
 861 0452 B0EE40AA 		vmov.f32	s20, s0
 862              	.LVL110:
 863              		.loc 1 1321 0
 864 0456 8270     		strb	r2, [r0, #2]
 865              		.loc 1 1322 0
 866 0458 C0ED2DCA 		vstr.32	s25, [r0, #180]
 867              		.loc 1 1323 0
 868 045c 80ED2BCA 		vstr.32	s24, [r0, #172]
 869              		.loc 1 1325 0
 870 0460 FFF7FEFF 		bl	mc_interface_set_configuration
 871              	.LVL111:
 872              		.loc 1 1330 0
 873 0464 B0EE4A0A 		vmov.f32	s0, s20
 874 0468 05AB     		add	r3, sp, #20
 875 046a 08AA     		add	r2, sp, #32
 876 046c 07A9     		add	r1, sp, #28
 877 046e 2046     		mov	r0, r4
 878              		.loc 1 1329 0
 879 0470 8DF81440 		strb	r4, [sp, #20]
 880              		.loc 1 1327 0
 881 0474 CDED078A 		vstr.32	s17, [sp, #28]
 882              		.loc 1 1328 0
 883 0478 CDED088A 		vstr.32	s17, [sp, #32]
 884              		.loc 1 1330 0
 885 047c FFF7FEFF 		bl	mcpwm_foc_encoder_detect
 886              	.LVL112:
 887              		.loc 1 1331 0
 888 0480 3948     		ldr	r0, .L126+12
 889 0482 FFF7FEFF 		bl	mc_interface_set_configuration
 890              	.LVL113:
 891              		.loc 1 1334 0
 892 0486 0122     		movs	r2, #1
 893 0488 1B23     		movs	r3, #27
 894              		.loc 1 1335 0
 895 048a 06A9     		add	r1, sp, #24
 896 048c F0EE490A 		vmov.f32	s1, s18
 897 0490 9DED070A 		vldr.32	s0, [sp, #28]
 898 0494 3248     		ldr	r0, .L126+4
 899              		.loc 1 1334 0
 900 0496 0692     		str	r2, [sp, #24]
 901 0498 2B70     		strb	r3, [r5]
 902              		.loc 1 1335 0
 903 049a FFF7FEFF 		bl	buffer_append_float32
 904              	.LVL114:
 905              		.loc 1 1336 0
 906 049e 06A9     		add	r1, sp, #24
 907 04a0 F0EE490A 		vmov.f32	s1, s18
 908 04a4 9DED080A 		vldr.32	s0, [sp, #32]
 909 04a8 2D48     		ldr	r0, .L126+4
 910 04aa FFF7FEFF 		bl	buffer_append_float32
 911              	.LVL115:
 912              		.loc 1 1337 0
ARM GAS  /tmp/ccXDsUE2.s 			page 17


 913 04ae 069B     		ldr	r3, [sp, #24]
 914 04b0 9DF81410 		ldrb	r1, [sp, #20]	@ zero_extendqisi2
 915              		.loc 1 1339 0
 916 04b4 3268     		ldr	r2, [r6]
 917              		.loc 1 1337 0
 918 04b6 E954     		strb	r1, [r5, r3]
 919 04b8 591C     		adds	r1, r3, #1
 920 04ba 0691     		str	r1, [sp, #24]
 921              		.loc 1 1339 0
 922 04bc 002A     		cmp	r2, #0
 923 04be 3FF431AE 		beq	.L7
 924              	.LVL116:
 925              	.L114:
 926              	.LBE177:
 927              	.LBB178:
 928              		.loc 1 1454 0
 929 04c2 3368     		ldr	r3, [r6]
 930 04c4 2648     		ldr	r0, .L126+4
 931 04c6 9847     		blx	r3
 932              	.LVL117:
 933 04c8 2CE6     		b	.L7
 934              	.LVL118:
 935              	.L11:
 936              	.LBE178:
 937              	.LBB179:
 938              		.loc 1 1266 0
 939 04ca FFF7FEFF 		bl	mc_interface_get_configuration
 940              	.LVL119:
 941 04ce 4FF4E472 		mov	r2, #456
 942 04d2 0146     		mov	r1, r0
 943 04d4 2348     		ldr	r0, .L126+8
 944 04d6 FFF7FEFF 		bl	memcpy
 945              	.LVL120:
 946              		.loc 1 1267 0
 947 04da 4FF4E472 		mov	r2, #456
 948 04de 2149     		ldr	r1, .L126+8
 949 04e0 2148     		ldr	r0, .L126+12
 950 04e2 FFF7FEFF 		bl	memcpy
 951              	.LVL121:
 952              		.loc 1 1270 0
 953 04e6 1F48     		ldr	r0, .L126+8
 954              		.loc 1 1269 0
 955 04e8 0223     		movs	r3, #2
 956 04ea 8370     		strb	r3, [r0, #2]
 957              		.loc 1 1270 0
 958 04ec FFF7FEFF 		bl	mc_interface_set_configuration
 959              	.LVL122:
 960              		.loc 1 1274 0
 961 04f0 07A9     		add	r1, sp, #28
 962 04f2 06A8     		add	r0, sp, #24
 963              		.loc 1 1272 0
 964 04f4 CDED068A 		vstr.32	s17, [sp, #24]
 965              		.loc 1 1273 0
 966 04f8 CDED078A 		vstr.32	s17, [sp, #28]
 967              		.loc 1 1274 0
 968 04fc FFF7FEFF 		bl	mcpwm_foc_measure_res_ind
 969              	.LVL123:
ARM GAS  /tmp/ccXDsUE2.s 			page 18


 970 0500 0446     		mov	r4, r0
 971              	.LVL124:
 972              		.loc 1 1275 0
 973 0502 1948     		ldr	r0, .L126+12
 974 0504 FFF7FEFF 		bl	mc_interface_set_configuration
 975              	.LVL125:
 976              		.loc 1 1277 0
 977 0508 002C     		cmp	r4, #0
 978 050a 00F0D880 		beq	.L29
 979 050e 9DED060A 		vldr.32	s0, [sp, #24]
 980              	.L30:
 981              		.loc 1 1284 0
 982 0512 1348     		ldr	r0, .L126+4
 983              		.loc 1 1283 0
 984 0514 1923     		movs	r3, #25
 985 0516 0122     		movs	r2, #1
 986              		.loc 1 1284 0
 987 0518 F0EE490A 		vmov.f32	s1, s18
 988 051c 08A9     		add	r1, sp, #32
 989              		.loc 1 1283 0
 990 051e 2B70     		strb	r3, [r5]
 991 0520 0892     		str	r2, [sp, #32]
 992              		.loc 1 1284 0
 993 0522 FFF7FEFF 		bl	buffer_append_float32
 994              	.LVL126:
 995              		.loc 1 1285 0
 996 0526 08A9     		add	r1, sp, #32
 997 0528 F0EE480A 		vmov.f32	s1, s16
 998 052c 9DED070A 		vldr.32	s0, [sp, #28]
 999 0530 0B48     		ldr	r0, .L126+4
 1000 0532 FFF7FEFF 		bl	buffer_append_float32
 1001              	.LVL127:
 1002              		.loc 1 1286 0
 1003 0536 3368     		ldr	r3, [r6]
 1004 0538 002B     		cmp	r3, #0
 1005 053a 7FF403AE 		bne	.L115
 1006 053e F1E5     		b	.L7
 1007              	.LVL128:
 1008              	.L8:
 1009              	.LBE179:
 1010              		.loc 1 1437 0
 1011 0540 3A44     		add	r2, r2, r7
 1012              	.LVL129:
 1013 0542 0023     		movs	r3, #0
 1014 0544 5370     		strb	r3, [r2, #1]
 1015              		.loc 1 1438 0
 1016 0546 0B48     		ldr	r0, .L126+24
 1017 0548 FFF7FEFF 		bl	chMtxLock
 1018              	.LVL130:
 1019              		.loc 1 1439 0
 1020 054c 0348     		ldr	r0, .L126
 1021 054e FFF7FEFF 		bl	terminal_process_string
 1022              	.LVL131:
 1023              		.loc 1 1440 0
 1024 0552 0848     		ldr	r0, .L126+24
 1025 0554 FFF7FEFF 		bl	chMtxUnlock
 1026              	.LVL132:
ARM GAS  /tmp/ccXDsUE2.s 			page 19


 1027              		.loc 1 1441 0
 1028 0558 E4E5     		b	.L7
 1029              	.L127:
 1030 055a 00BF     		.align	2
 1031              	.L126:
 1032 055c 01000000 		.word	.LANCHOR3+1
 1033 0560 00000000 		.word	.LANCHOR4
 1034 0564 00000000 		.word	.LANCHOR6
 1035 0568 00000000 		.word	.LANCHOR7
 1036 056c 00002041 		.word	1092616192
 1037 0570 01000000 		.word	.LANCHOR4+1
 1038 0574 00000000 		.word	.LANCHOR8
 1039              	.LVL133:
 1040              	.L12:
 1041              	.LBB180:
 1042              		.loc 1 1292 0
 1043 0578 0023     		movs	r3, #0
 1044              		.loc 1 1293 0
 1045 057a 07A9     		add	r1, sp, #28
 1046 057c 7148     		ldr	r0, .L128
 1047              		.loc 1 1292 0
 1048 057e 0793     		str	r3, [sp, #28]
 1049              		.loc 1 1293 0
 1050 0580 B0EE480A 		vmov.f32	s0, s16
 1051 0584 FFF7FEFF 		bl	buffer_get_float32
 1052              	.LVL134:
 1053              		.loc 1 1294 0
 1054 0588 07A9     		add	r1, sp, #28
 1055              		.loc 1 1293 0
 1056 058a B0EE40AA 		vmov.f32	s20, s0
 1057              	.LVL135:
 1058              		.loc 1 1294 0
 1059 058e 6D48     		ldr	r0, .L128
 1060 0590 B0EE480A 		vmov.f32	s0, s16
 1061              	.LVL136:
 1062 0594 FFF7FEFF 		bl	buffer_get_float32
 1063              	.LVL137:
 1064              		.loc 1 1295 0
 1065 0598 07A9     		add	r1, sp, #28
 1066              		.loc 1 1294 0
 1067 059a B0EE40BA 		vmov.f32	s22, s0
 1068              	.LVL138:
 1069              		.loc 1 1295 0
 1070 059e 6948     		ldr	r0, .L128
 1071 05a0 B0EE480A 		vmov.f32	s0, s16
 1072              	.LVL139:
 1073 05a4 FFF7FEFF 		bl	buffer_get_float32
 1074              	.LVL140:
 1075              		.loc 1 1296 0
 1076 05a8 6648     		ldr	r0, .L128
 1077              		.loc 1 1295 0
 1078 05aa F0EE40AA 		vmov.f32	s21, s0
 1079              	.LVL141:
 1080              		.loc 1 1296 0
 1081 05ae 07A9     		add	r1, sp, #28
 1082 05b0 B0EE490A 		vmov.f32	s0, s18
 1083              	.LVL142:
ARM GAS  /tmp/ccXDsUE2.s 			page 20


 1084 05b4 FFF7FEFF 		bl	buffer_get_float32
 1085              	.LVL143:
 1086              		.loc 1 1299 0
 1087 05b8 08A8     		add	r0, sp, #32
 1088 05ba F0EE401A 		vmov.f32	s3, s0
 1089 05be B0EE4B1A 		vmov.f32	s2, s22
 1090 05c2 F0EE6A0A 		vmov.f32	s1, s21
 1091 05c6 B0EE4A0A 		vmov.f32	s0, s20
 1092              	.LVL144:
 1093 05ca FFF7FEFF 		bl	conf_general_measure_flux_linkage
 1094              	.LVL145:
 1095              		.loc 1 1301 0
 1096 05ce 0028     		cmp	r0, #0
 1097 05d0 00F09980 		beq	.L32
 1098 05d4 9DED080A 		vldr.32	s0, [sp, #32]
 1099              	.L33:
 1100              		.loc 1 1306 0
 1101 05d8 0122     		movs	r2, #1
 1102 05da 1A23     		movs	r3, #26
 1103 05dc BEE6     		b	.L118
 1104              	.LVL146:
 1105              	.L10:
 1106              	.LBE180:
 1107              	.LBB181:
 1108              		.loc 1 1236 0
 1109 05de 0023     		movs	r3, #0
 1110              		.loc 1 1237 0
 1111 05e0 04A9     		add	r1, sp, #16
 1112 05e2 5848     		ldr	r0, .L128
 1113 05e4 9FED580A 		vldr.32	s0, .L128+4
 1114              		.loc 1 1236 0
 1115 05e8 0493     		str	r3, [sp, #16]
 1116              		.loc 1 1237 0
 1117 05ea FFF7FEFF 		bl	buffer_get_float32
 1118              	.LVL147:
 1119              		.loc 1 1238 0
 1120 05ee 04A9     		add	r1, sp, #16
 1121              		.loc 1 1237 0
 1122 05f0 B0EE40AA 		vmov.f32	s20, s0
 1123              	.LVL148:
 1124              		.loc 1 1238 0
 1125 05f4 5348     		ldr	r0, .L128
 1126 05f6 9FED540A 		vldr.32	s0, .L128+4
 1127              	.LVL149:
 1128 05fa FFF7FEFF 		bl	buffer_get_float32
 1129              	.LVL150:
 1130              		.loc 1 1239 0
 1131 05fe 04A9     		add	r1, sp, #16
 1132              		.loc 1 1238 0
 1133 0600 F0EE40AA 		vmov.f32	s21, s0
 1134              	.LVL151:
 1135              		.loc 1 1239 0
 1136 0604 4F48     		ldr	r0, .L128
 1137 0606 9FED500A 		vldr.32	s0, .L128+4
 1138              	.LVL152:
 1139 060a FFF7FEFF 		bl	buffer_get_float32
 1140              	.LVL153:
ARM GAS  /tmp/ccXDsUE2.s 			page 21


 1141              		.loc 1 1245 0
 1142 060e 07AB     		add	r3, sp, #28
 1143 0610 B0EE401A 		vmov.f32	s2, s0
 1144 0614 08AA     		add	r2, sp, #32
 1145 0616 06A9     		add	r1, sp, #24
 1146 0618 05A8     		add	r0, sp, #20
 1147 061a F0EE6A0A 		vmov.f32	s1, s21
 1148 061e B0EE4A0A 		vmov.f32	s0, s20
 1149              	.LVL154:
 1150 0622 FFF7FEFF 		bl	conf_general_detect_motor_param
 1151              	.LVL155:
 1152 0626 0028     		cmp	r0, #0
 1153 0628 3ED0     		beq	.L26
 1154 062a DDED057A 		vldr.32	s15, [sp, #20]
 1155 062e 67EE887A 		vmul.f32	s15, s15, s16
 1156 0632 FDEEE77A 		vcvt.s32.f32	s15, s15
 1157 0636 CDED037A 		vstr.32	s15, [sp, #12]	@ int
 1158              	.L27:
 1159              		.loc 1 1253 0
 1160 063a 0120     		movs	r0, #1
 1161 063c 1823     		movs	r3, #24
 1162              		.loc 1 1254 0
 1163 063e 04AA     		add	r2, sp, #16
 1164 0640 0399     		ldr	r1, [sp, #12]
 1165              		.loc 1 1253 0
 1166 0642 0490     		str	r0, [sp, #16]
 1167              		.loc 1 1254 0
 1168 0644 4148     		ldr	r0, .L128+8
 1169              		.loc 1 1253 0
 1170 0646 2B70     		strb	r3, [r5]
 1171              		.loc 1 1254 0
 1172 0648 FFF7FEFF 		bl	buffer_append_int32
 1173              	.LVL156:
 1174              		.loc 1 1255 0
 1175 064c DDED067A 		vldr.32	s15, [sp, #24]
 1176 0650 3E48     		ldr	r0, .L128+8
 1177 0652 67EE887A 		vmul.f32	s15, s15, s16
 1178 0656 04AA     		add	r2, sp, #16
 1179 0658 FDEEE77A 		vcvt.s32.f32	s15, s15
 1180 065c 17EE901A 		vmov	r1, s15	@ int
 1181 0660 FFF7FEFF 		bl	buffer_append_int32
 1182              	.LVL157:
 1183              		.loc 1 1256 0
 1184 0664 049B     		ldr	r3, [sp, #16]
 1185              		.loc 1 1260 0
 1186 0666 3468     		ldr	r4, [r6]
 1187              	.LVL158:
 1188              		.loc 1 1256 0
 1189 0668 08AA     		add	r2, sp, #32
 1190 066a 03CA     		ldmia	r2!, {r0, r1}
 1191 066c EA18     		adds	r2, r5, r3
 1192 066e E850     		str	r0, [r5, r3]	@ unaligned
 1193              		.loc 1 1258 0
 1194 0670 0933     		adds	r3, r3, #9
 1195              		.loc 1 1256 0
 1196 0672 5160     		str	r1, [r2, #4]	@ unaligned
 1197              		.loc 1 1258 0
ARM GAS  /tmp/ccXDsUE2.s 			page 22


 1198 0674 0799     		ldr	r1, [sp, #28]
 1199 0676 0493     		str	r3, [sp, #16]
 1200 0678 1172     		strb	r1, [r2, #8]
 1201              		.loc 1 1260 0
 1202 067a 002C     		cmp	r4, #0
 1203 067c 3FF452AD 		beq	.L7
 1204              		.loc 1 1261 0
 1205 0680 1946     		mov	r1, r3
 1206 0682 3248     		ldr	r0, .L128+8
 1207 0684 3368     		ldr	r3, [r6]
 1208 0686 9847     		blx	r3
 1209              	.LVL159:
 1210              	.LBE181:
 1211              		.loc 1 1263 0
 1212 0688 4CE5     		b	.L7
 1213              	.LVL160:
 1214              	.L38:
 1215              	.LBB182:
 1216              		.loc 1 1385 0
 1217 068a 4FF0FF33 		mov	r3, #-1
 1218              		.loc 1 1388 0
 1219 068e 3268     		ldr	r2, [r6]
 1220              		.loc 1 1385 0
 1221 0690 C5E90033 		strd	r3, r3, [r5]
 1222              	.LVL161:
 1223              		.loc 1 1387 0
 1224 0694 0023     		movs	r3, #0
 1225 0696 6B72     		strb	r3, [r5, #9]
 1226              		.loc 1 1388 0
 1227 0698 002A     		cmp	r2, #0
 1228 069a 3FF443AD 		beq	.L7
 1229              		.loc 1 1389 0
 1230 069e 3368     		ldr	r3, [r6]
 1231 06a0 2A48     		ldr	r0, .L128+8
 1232 06a2 0A21     		movs	r1, #10
 1233 06a4 9847     		blx	r3
 1234              	.LVL162:
 1235 06a6 3DE5     		b	.L7
 1236              	.LVL163:
 1237              	.L26:
 1238              	.LBE182:
 1239              	.LBB183:
 1240              		.loc 1 1248 0
 1241 06a8 CDED058A 		vstr.32	s17, [sp, #20]
 1242              		.loc 1 1249 0
 1243 06ac CDED068A 		vstr.32	s17, [sp, #24]
 1244 06b0 0390     		str	r0, [sp, #12]
 1245 06b2 C2E7     		b	.L27
 1246              	.LVL164:
 1247              	.L41:
 1248              	.LBE183:
 1249              	.LBB184:
 1250              		.loc 1 1405 0
 1251 06b4 9FED260A 		vldr.32	s0, .L128+12
 1252 06b8 CDED088A 		vstr.32	s17, [sp, #32]
 1253 06bc 4CE6     		b	.L42
 1254              	.LVL165:
ARM GAS  /tmp/ccXDsUE2.s 			page 23


 1255              	.L29:
 1256              	.LBE184:
 1257              	.LBB185:
 1258              		.loc 1 1279 0
 1259 06be B0EE680A 		vmov.f32	s0, s17
 1260              		.loc 1 1278 0
 1261 06c2 CDED068A 		vstr.32	s17, [sp, #24]
 1262              		.loc 1 1279 0
 1263 06c6 CDED078A 		vstr.32	s17, [sp, #28]
 1264 06ca 22E7     		b	.L30
 1265              	.LVL166:
 1266              	.L35:
 1267              	.LBE185:
 1268              	.LBB186:
 1269              		.loc 1 1344 0
 1270 06cc 0122     		movs	r2, #1
 1271 06ce 1B23     		movs	r3, #27
 1272              		.loc 1 1345 0
 1273 06d0 F0EE490A 		vmov.f32	s1, s18
 1274 06d4 9FED1F0A 		vldr.32	s0, .L128+16
 1275 06d8 1C48     		ldr	r0, .L128+8
 1276              		.loc 1 1344 0
 1277 06da 0892     		str	r2, [sp, #32]
 1278              		.loc 1 1345 0
 1279 06dc 08A9     		add	r1, sp, #32
 1280              		.loc 1 1344 0
 1281 06de 2B70     		strb	r3, [r5]
 1282              		.loc 1 1345 0
 1283 06e0 FFF7FEFF 		bl	buffer_append_float32
 1284              	.LVL167:
 1285              		.loc 1 1346 0
 1286 06e4 08A9     		add	r1, sp, #32
 1287 06e6 F0EE490A 		vmov.f32	s1, s18
 1288 06ea B0EE680A 		vmov.f32	s0, s17
 1289 06ee 1748     		ldr	r0, .L128+8
 1290 06f0 FFF7FEFF 		bl	buffer_append_float32
 1291              	.LVL168:
 1292              		.loc 1 1347 0
 1293 06f4 0899     		ldr	r1, [sp, #32]
 1294              		.loc 1 1349 0
 1295 06f6 3268     		ldr	r2, [r6]
 1296              		.loc 1 1347 0
 1297 06f8 6C54     		strb	r4, [r5, r1]
 1298 06fa 0131     		adds	r1, r1, #1
 1299 06fc 0891     		str	r1, [sp, #32]
 1300              		.loc 1 1349 0
 1301 06fe 002A     		cmp	r2, #0
 1302 0700 7FF4DFAE 		bne	.L114
 1303 0704 0EE5     		b	.L7
 1304              	.LVL169:
 1305              	.L32:
 1306              	.LBE186:
 1307              	.LBB187:
 1308              		.loc 1 1302 0
 1309 0706 9FED120A 		vldr.32	s0, .L128+12
 1310 070a CDED088A 		vstr.32	s17, [sp, #32]
 1311 070e 63E7     		b	.L33
ARM GAS  /tmp/ccXDsUE2.s 			page 24


 1312              	.LVL170:
 1313              	.L123:
 1314              	.LBE187:
 1315              	.LBB188:
 1316              	.LBB169:
 1317              		.loc 1 1480 0
 1318 0710 A2F1060A 		sub	r10, r2, #6
 1319 0714 5246     		mov	r2, r10
 1320              	.LVL171:
 1321 0716 1049     		ldr	r1, .L128+20
 1322 0718 0C48     		ldr	r0, .L128+8
 1323 071a FFF7FEFF 		bl	memcpy
 1324              	.LVL172:
 1325              		.loc 1 1481 0
 1326 071e 0423     		movs	r3, #4
 1327              		.loc 1 1482 0
 1328 0720 07A9     		add	r1, sp, #28
 1329 0722 0848     		ldr	r0, .L128
 1330              		.loc 1 1481 0
 1331 0724 0793     		str	r3, [sp, #28]
 1332              		.loc 1 1482 0
 1333 0726 FFF7FEFF 		bl	buffer_get_uint16
 1334              	.LVL173:
 1335              		.loc 1 1483 0
 1336 072a 0023     		movs	r3, #0
 1337              		.loc 1 1482 0
 1338 072c 0890     		str	r0, [sp, #32]
 1339              		.loc 1 1483 0
 1340 072e 0093     		str	r3, [sp]
 1341 0730 0A4A     		ldr	r2, .L128+24
 1342 0732 0648     		ldr	r0, .L128+8
 1343 0734 5146     		mov	r1, r10
 1344 0736 08AB     		add	r3, sp, #32
 1345 0738 FFF7FEFF 		bl	lzo1x_decompress_safe
 1346              	.LVL174:
 1347              		.loc 1 1484 0
 1348 073c 089A     		ldr	r2, [sp, #32]
 1349 073e 0432     		adds	r2, r2, #4
 1350              	.LVL175:
 1351 0740 32E5     		b	.L50
 1352              	.L129:
 1353 0742 00BF     		.align	2
 1354              	.L128:
 1355 0744 01000000 		.word	.LANCHOR3+1
 1356 0748 00007A44 		.word	1148846080
 1357 074c 00000000 		.word	.LANCHOR4
 1358 0750 00000000 		.word	0
 1359 0754 00407A44 		.word	1148862464
 1360 0758 07000000 		.word	.LANCHOR3+7
 1361 075c 05000000 		.word	.LANCHOR3+5
 1362              	.LBE169:
 1363              	.LBE188:
 1364              	.LBE191:
 1365              		.cfi_endproc
 1366              	.LFE278:
 1367              		.size	blocking_thread, .-blocking_thread
 1368              		.section	.text.commands_init,"ax",%progbits
ARM GAS  /tmp/ccXDsUE2.s 			page 25


 1369              		.align	1
 1370              		.p2align 4,,15
 1371              		.global	commands_init
 1372              		.syntax unified
 1373              		.thumb
 1374              		.thumb_func
 1375              		.fpu fpv4-sp-d16
 1376              		.type	commands_init, %function
 1377              	commands_init:
 1378              	.LFB259:
 1379              		.loc 1 74 0
 1380              		.cfi_startproc
 1381              		@ args = 0, pretend = 0, frame = 0
 1382              		@ frame_needed = 0, uses_anonymous_args = 0
 1383 0000 00B5     		push	{lr}
 1384              		.cfi_def_cfa_offset 4
 1385              		.cfi_offset 14, -4
 1386              		.loc 1 75 0
 1387 0002 0B48     		ldr	r0, .L132
 1388              		.loc 1 74 0
 1389 0004 83B0     		sub	sp, sp, #12
 1390              		.cfi_def_cfa_offset 16
 1391              		.loc 1 75 0
 1392 0006 FFF7FEFF 		bl	chMtxObjectInit
 1393              	.LVL176:
 1394              		.loc 1 76 0
 1395 000a 0A48     		ldr	r0, .L132+4
 1396 000c FFF7FEFF 		bl	chMtxObjectInit
 1397              	.LVL177:
 1398              		.loc 1 77 0
 1399 0010 0948     		ldr	r0, .L132+8
 1400 0012 FFF7FEFF 		bl	chMtxObjectInit
 1401              	.LVL178:
 1402              		.loc 1 78 0
 1403 0016 0023     		movs	r3, #0
 1404 0018 0093     		str	r3, [sp]
 1405 001a 4022     		movs	r2, #64
 1406 001c 074B     		ldr	r3, .L132+12
 1407 001e 0848     		ldr	r0, .L132+16
 1408 0020 40F69811 		movw	r1, #2456
 1409 0024 FFF7FEFF 		bl	chThdCreateStatic
 1410              	.LVL179:
 1411              		.loc 1 79 0
 1412 0028 03B0     		add	sp, sp, #12
 1413              		.cfi_def_cfa_offset 4
 1414              		@ sp needed
 1415 002a 5DF804FB 		ldr	pc, [sp], #4
 1416              	.L133:
 1417 002e 00BF     		.align	2
 1418              	.L132:
 1419 0030 00000000 		.word	.LANCHOR10
 1420 0034 00000000 		.word	.LANCHOR11
 1421 0038 00000000 		.word	.LANCHOR8
 1422 003c 00000000 		.word	blocking_thread
 1423 0040 00000000 		.word	.LANCHOR12
 1424              		.cfi_endproc
 1425              	.LFE259:
ARM GAS  /tmp/ccXDsUE2.s 			page 26


 1426              		.size	commands_init, .-commands_init
 1427              		.section	.text.commands_send_packet_nrf,"ax",%progbits
 1428              		.align	1
 1429              		.p2align 4,,15
 1430              		.global	commands_send_packet_nrf
 1431              		.syntax unified
 1432              		.thumb
 1433              		.thumb_func
 1434              		.fpu fpv4-sp-d16
 1435              		.type	commands_send_packet_nrf, %function
 1436              	commands_send_packet_nrf:
 1437              	.LFB261:
 1438              		.loc 1 110 0
 1439              		.cfi_startproc
 1440              		@ args = 0, pretend = 0, frame = 0
 1441              		@ frame_needed = 0, uses_anonymous_args = 0
 1442              		@ link register save eliminated.
 1443              	.LVL180:
 1444              		.loc 1 111 0
 1445 0000 024B     		ldr	r3, .L136
 1446 0002 1A68     		ldr	r2, [r3]
 1447 0004 0AB1     		cbz	r2, .L134
 1448              		.loc 1 112 0
 1449 0006 1B68     		ldr	r3, [r3]
 1450 0008 1847     		bx	r3	@ indirect register sibling call
 1451              	.LVL181:
 1452              	.L134:
 1453              		.loc 1 114 0
 1454 000a 7047     		bx	lr
 1455              	.L137:
 1456              		.align	2
 1457              	.L136:
 1458 000c 00000000 		.word	.LANCHOR13
 1459              		.cfi_endproc
 1460              	.LFE261:
 1461              		.size	commands_send_packet_nrf, .-commands_send_packet_nrf
 1462              		.section	.text.commands_send_packet_last_blocking,"ax",%progbits
 1463              		.align	1
 1464              		.p2align 4,,15
 1465              		.global	commands_send_packet_last_blocking
 1466              		.syntax unified
 1467              		.thumb
 1468              		.thumb_func
 1469              		.fpu fpv4-sp-d16
 1470              		.type	commands_send_packet_last_blocking, %function
 1471              	commands_send_packet_last_blocking:
 1472              	.LFB262:
 1473              		.loc 1 125 0
 1474              		.cfi_startproc
 1475              		@ args = 0, pretend = 0, frame = 0
 1476              		@ frame_needed = 0, uses_anonymous_args = 0
 1477              		@ link register save eliminated.
 1478              	.LVL182:
 1479              		.loc 1 126 0
 1480 0000 024B     		ldr	r3, .L140
 1481 0002 1A68     		ldr	r2, [r3]
 1482 0004 0AB1     		cbz	r2, .L138
ARM GAS  /tmp/ccXDsUE2.s 			page 27


 1483              		.loc 1 127 0
 1484 0006 1B68     		ldr	r3, [r3]
 1485 0008 1847     		bx	r3	@ indirect register sibling call
 1486              	.LVL183:
 1487              	.L138:
 1488              		.loc 1 129 0
 1489 000a 7047     		bx	lr
 1490              	.L141:
 1491              		.align	2
 1492              	.L140:
 1493 000c 00000000 		.word	.LANCHOR5
 1494              		.cfi_endproc
 1495              	.LFE262:
 1496              		.size	commands_send_packet_last_blocking, .-commands_send_packet_last_blocking
 1497              		.section	.text.commands_printf,"ax",%progbits
 1498              		.align	1
 1499              		.p2align 4,,15
 1500              		.global	commands_printf
 1501              		.syntax unified
 1502              		.thumb
 1503              		.thumb_func
 1504              		.fpu fpv4-sp-d16
 1505              		.type	commands_printf, %function
 1506              	commands_printf:
 1507              	.LFB264:
 1508              		.loc 1 1035 0
 1509              		.cfi_startproc
 1510              		@ args = 4, pretend = 16, frame = 8
 1511              		@ frame_needed = 0, uses_anonymous_args = 1
 1512              	.LVL184:
 1513 0000 0FB4     		push	{r0, r1, r2, r3}
 1514              		.cfi_def_cfa_offset 16
 1515              		.cfi_offset 0, -16
 1516              		.cfi_offset 1, -12
 1517              		.cfi_offset 2, -8
 1518              		.cfi_offset 3, -4
 1519 0002 70B5     		push	{r4, r5, r6, lr}
 1520              		.cfi_def_cfa_offset 32
 1521              		.cfi_offset 4, -32
 1522              		.cfi_offset 5, -28
 1523              		.cfi_offset 6, -24
 1524              		.cfi_offset 14, -20
 1525 0004 82B0     		sub	sp, sp, #8
 1526              		.cfi_def_cfa_offset 40
 1527              		.loc 1 1035 0
 1528 0006 06AC     		add	r4, sp, #24
 1529              		.loc 1 1043 0
 1530 0008 114D     		ldr	r5, .L148
 1531              		.loc 1 1036 0
 1532 000a 1248     		ldr	r0, .L148+4
 1533              		.loc 1 1035 0
 1534 000c 54F8046B 		ldr	r6, [r4], #4
 1535              		.loc 1 1036 0
 1536 0010 FFF7FEFF 		bl	chMtxLock
 1537              	.LVL185:
 1538              		.loc 1 1043 0
 1539 0014 2846     		mov	r0, r5
ARM GAS  /tmp/ccXDsUE2.s 			page 28


 1540 0016 1523     		movs	r3, #21
 1541 0018 00F8013B 		strb	r3, [r0], #1
 1542              		.loc 1 1044 0
 1543 001c 3246     		mov	r2, r6
 1544 001e 2346     		mov	r3, r4
 1545 0020 FE21     		movs	r1, #254
 1546              		.loc 1 1039 0
 1547 0022 0194     		str	r4, [sp, #4]
 1548              		.loc 1 1044 0
 1549 0024 FFF7FEFF 		bl	vsnprintf
 1550              	.LVL186:
 1551              		.loc 1 1047 0
 1552 0028 0028     		cmp	r0, #0
 1553 002a 09DD     		ble	.L143
 1554              	.LBB192:
 1555              	.LBB193:
 1556              		.loc 1 126 0
 1557 002c 0A4B     		ldr	r3, .L148+8
 1558              	.LBE193:
 1559              	.LBE192:
 1560              		.loc 1 1049 0
 1561 002e FE28     		cmp	r0, #254
 1562              	.LBB196:
 1563              	.LBB194:
 1564              		.loc 1 126 0
 1565 0030 1A68     		ldr	r2, [r3]
 1566              	.LBE194:
 1567              	.LBE196:
 1568              		.loc 1 1049 0
 1569 0032 A8BF     		it	ge
 1570 0034 FE20     		movge	r0, #254
 1571              	.LVL187:
 1572 0036 411C     		adds	r1, r0, #1
 1573              	.LVL188:
 1574              	.LBB197:
 1575              	.LBB195:
 1576              		.loc 1 126 0
 1577 0038 12B1     		cbz	r2, .L143
 1578              		.loc 1 127 0
 1579 003a 1B68     		ldr	r3, [r3]
 1580 003c 2846     		mov	r0, r5
 1581 003e 9847     		blx	r3
 1582              	.LVL189:
 1583              	.L143:
 1584              	.LBE195:
 1585              	.LBE197:
 1586              		.loc 1 1052 0
 1587 0040 0448     		ldr	r0, .L148+4
 1588 0042 FFF7FEFF 		bl	chMtxUnlock
 1589              	.LVL190:
 1590              		.loc 1 1053 0
 1591 0046 02B0     		add	sp, sp, #8
 1592              		.cfi_def_cfa_offset 32
 1593              		@ sp needed
 1594 0048 BDE87040 		pop	{r4, r5, r6, lr}
 1595              		.cfi_restore 14
 1596              		.cfi_restore 6
ARM GAS  /tmp/ccXDsUE2.s 			page 29


 1597              		.cfi_restore 5
 1598              		.cfi_restore 4
 1599              		.cfi_def_cfa_offset 16
 1600 004c 04B0     		add	sp, sp, #16
 1601              		.cfi_restore 3
 1602              		.cfi_restore 2
 1603              		.cfi_restore 1
 1604              		.cfi_restore 0
 1605              		.cfi_def_cfa_offset 0
 1606 004e 7047     		bx	lr
 1607              	.L149:
 1608              		.align	2
 1609              	.L148:
 1610 0050 00000000 		.word	.LANCHOR14
 1611 0054 00000000 		.word	.LANCHOR10
 1612 0058 00000000 		.word	.LANCHOR5
 1613              		.cfi_endproc
 1614              	.LFE264:
 1615              		.size	commands_printf, .-commands_printf
 1616              		.section	.text.commands_send_rotor_pos,"ax",%progbits
 1617              		.align	1
 1618              		.p2align 4,,15
 1619              		.global	commands_send_rotor_pos
 1620              		.syntax unified
 1621              		.thumb
 1622              		.thumb_func
 1623              		.fpu fpv4-sp-d16
 1624              		.type	commands_send_rotor_pos, %function
 1625              	commands_send_rotor_pos:
 1626              	.LFB265:
 1627              		.loc 1 1055 0
 1628              		.cfi_startproc
 1629              		@ args = 0, pretend = 0, frame = 16
 1630              		@ frame_needed = 0, uses_anonymous_args = 0
 1631              	.LVL191:
 1632 0000 10B5     		push	{r4, lr}
 1633              		.cfi_def_cfa_offset 8
 1634              		.cfi_offset 4, -8
 1635              		.cfi_offset 14, -4
 1636              		.loc 1 1059 0
 1637 0002 DFED0D7A 		vldr.32	s15, .L156
 1638 0006 20EE270A 		vmul.f32	s0, s0, s15
 1639              	.LVL192:
 1640              		.loc 1 1055 0
 1641 000a 84B0     		sub	sp, sp, #16
 1642              		.cfi_def_cfa_offset 24
 1643              		.loc 1 1059 0
 1644 000c FDEEC07A 		vcvt.s32.f32	s15, s0
 1645              		.loc 1 1058 0
 1646 0010 1623     		movs	r3, #22
 1647              		.loc 1 1059 0
 1648 0012 17EE901A 		vmov	r1, s15	@ int
 1649 0016 01AA     		add	r2, sp, #4
 1650 0018 02A8     		add	r0, sp, #8
 1651              		.loc 1 1058 0
 1652 001a 0124     		movs	r4, #1
 1653 001c 8DF80830 		strb	r3, [sp, #8]
ARM GAS  /tmp/ccXDsUE2.s 			page 30


 1654 0020 0194     		str	r4, [sp, #4]
 1655              		.loc 1 1059 0
 1656 0022 FFF7FEFF 		bl	buffer_append_int32
 1657              	.LVL193:
 1658              	.LBB198:
 1659              	.LBB199:
 1660              		.loc 1 91 0
 1661 0026 054B     		ldr	r3, .L156+4
 1662              	.LBE199:
 1663              	.LBE198:
 1664              		.loc 1 1060 0
 1665 0028 0199     		ldr	r1, [sp, #4]
 1666              	.LVL194:
 1667              	.LBB201:
 1668              	.LBB200:
 1669              		.loc 1 91 0
 1670 002a 1A68     		ldr	r2, [r3]
 1671 002c 12B1     		cbz	r2, .L150
 1672              		.loc 1 92 0
 1673 002e 1B68     		ldr	r3, [r3]
 1674 0030 02A8     		add	r0, sp, #8
 1675              	.LVL195:
 1676 0032 9847     		blx	r3
 1677              	.LVL196:
 1678              	.L150:
 1679              	.LBE200:
 1680              	.LBE201:
 1681              		.loc 1 1061 0
 1682 0034 04B0     		add	sp, sp, #16
 1683              		.cfi_def_cfa_offset 8
 1684              		@ sp needed
 1685 0036 10BD     		pop	{r4, pc}
 1686              	.L157:
 1687              		.align	2
 1688              	.L156:
 1689 0038 0050C347 		.word	1203982336
 1690 003c 00000000 		.word	.LANCHOR0
 1691              		.cfi_endproc
 1692              	.LFE265:
 1693              		.size	commands_send_rotor_pos, .-commands_send_rotor_pos
 1694              		.section	.text.commands_send_experiment_samples,"ax",%progbits
 1695              		.align	1
 1696              		.p2align 4,,15
 1697              		.global	commands_send_experiment_samples
 1698              		.syntax unified
 1699              		.thumb
 1700              		.thumb_func
 1701              		.fpu fpv4-sp-d16
 1702              		.type	commands_send_experiment_samples, %function
 1703              	commands_send_experiment_samples:
 1704              	.LFB266:
 1705              		.loc 1 1063 0
 1706              		.cfi_startproc
 1707              		@ args = 0, pretend = 0, frame = 8
 1708              		@ frame_needed = 1, uses_anonymous_args = 0
 1709              	.LVL197:
 1710 0000 2DE9F041 		push	{r4, r5, r6, r7, r8, lr}
ARM GAS  /tmp/ccXDsUE2.s 			page 31


 1711              		.cfi_def_cfa_offset 24
 1712              		.cfi_offset 4, -24
 1713              		.cfi_offset 5, -20
 1714              		.cfi_offset 6, -16
 1715              		.cfi_offset 7, -12
 1716              		.cfi_offset 8, -8
 1717              		.cfi_offset 14, -4
 1718 0004 2DED028B 		vpush.64	{d8}
 1719              		.cfi_def_cfa_offset 32
 1720              		.cfi_offset 80, -32
 1721              		.cfi_offset 81, -28
 1722              		.loc 1 1064 0
 1723 0008 8D00     		lsls	r5, r1, #2
 1724              		.loc 1 1063 0
 1725 000a 82B0     		sub	sp, sp, #8
 1726              		.cfi_def_cfa_offset 40
 1727              		.loc 1 1064 0
 1728 000c FF2D     		cmp	r5, #255
 1729              		.loc 1 1063 0
 1730 000e 00AF     		add	r7, sp, #0
 1731              		.cfi_def_cfa_register 7
 1732              		.loc 1 1064 0
 1733 0010 28DC     		bgt	.L158
 1734              	.LVL198:
 1735              		.loc 1 1068 0
 1736 0012 05F10803 		add	r3, r5, #8
 1737 0016 23F00703 		bic	r3, r3, #7
 1738 001a E846     		mov	r8, sp
 1739 001c ADEB030D 		sub	sp, sp, r3
 1740              		.loc 1 1071 0
 1741 0020 1722     		movs	r2, #23
 1742 0022 0123     		movs	r3, #1
 1743              	.LBB202:
 1744              		.loc 1 1073 0
 1745 0024 0029     		cmp	r1, #0
 1746              	.LBE202:
 1747              		.loc 1 1071 0
 1748 0026 8DF80020 		strb	r2, [sp]
 1749              		.loc 1 1068 0
 1750 002a 6E46     		mov	r6, sp
 1751              	.LVL199:
 1752              		.loc 1 1071 0
 1753 002c 7B60     		str	r3, [r7, #4]
 1754              	.LBB203:
 1755              		.loc 1 1073 0
 1756 002e 1FDD     		ble	.L164
 1757              		.loc 1 1074 0
 1758 0030 9FED108A 		vldr.32	s16, .L170
 1759 0034 0446     		mov	r4, r0
 1760 0036 0544     		add	r5, r5, r0
 1761              	.LVL200:
 1762              	.L161:
 1763              		.loc 1 1074 0 is_stmt 0 discriminator 3
 1764 0038 F4EC017A 		vldmia.32	r4!, {s15}
 1765 003c 67EE887A 		vmul.f32	s15, s15, s16
 1766 0040 3A1D     		adds	r2, r7, #4
 1767 0042 FDEEE77A 		vcvt.s32.f32	s15, s15
ARM GAS  /tmp/ccXDsUE2.s 			page 32


 1768 0046 3046     		mov	r0, r6
 1769 0048 17EE901A 		vmov	r1, s15	@ int
 1770 004c FFF7FEFF 		bl	buffer_append_int32
 1771              	.LVL201:
 1772              		.loc 1 1073 0 is_stmt 1 discriminator 3
 1773 0050 A542     		cmp	r5, r4
 1774 0052 F1D1     		bne	.L161
 1775 0054 7968     		ldr	r1, [r7, #4]
 1776              	.L160:
 1777              	.LVL202:
 1778              	.LBE203:
 1779              	.LBB204:
 1780              	.LBB205:
 1781              		.loc 1 91 0
 1782 0056 084B     		ldr	r3, .L170+4
 1783 0058 1A68     		ldr	r2, [r3]
 1784 005a 12B1     		cbz	r2, .L162
 1785              		.loc 1 92 0
 1786 005c 1B68     		ldr	r3, [r3]
 1787 005e 3046     		mov	r0, r6
 1788 0060 9847     		blx	r3
 1789              	.LVL203:
 1790              	.L162:
 1791 0062 C546     		mov	sp, r8
 1792              	.LVL204:
 1793              	.L158:
 1794              	.LBE205:
 1795              	.LBE204:
 1796              		.loc 1 1078 0
 1797 0064 0837     		adds	r7, r7, #8
 1798              		.cfi_remember_state
 1799              		.cfi_def_cfa_offset 32
 1800 0066 BD46     		mov	sp, r7
 1801              		.cfi_def_cfa_register 13
 1802              		@ sp needed
 1803 0068 BDEC028B 		vldm	sp!, {d8}
 1804              		.cfi_restore 80
 1805              		.cfi_restore 81
 1806              		.cfi_def_cfa_offset 24
 1807 006c BDE8F081 		pop	{r4, r5, r6, r7, r8, pc}
 1808              	.LVL205:
 1809              	.L164:
 1810              		.cfi_restore_state
 1811              	.LBB206:
 1812              		.loc 1 1073 0
 1813 0070 1946     		mov	r1, r3
 1814              	.LVL206:
 1815 0072 F0E7     		b	.L160
 1816              	.L171:
 1817              		.align	2
 1818              	.L170:
 1819 0074 00401C46 		.word	1176256512
 1820 0078 00000000 		.word	.LANCHOR0
 1821              	.LBE206:
 1822              		.cfi_endproc
 1823              	.LFE266:
 1824              		.size	commands_send_experiment_samples, .-commands_send_experiment_samples
ARM GAS  /tmp/ccXDsUE2.s 			page 33


 1825              		.section	.text.commands_get_disp_pos_mode,"ax",%progbits
 1826              		.align	1
 1827              		.p2align 4,,15
 1828              		.global	commands_get_disp_pos_mode
 1829              		.syntax unified
 1830              		.thumb
 1831              		.thumb_func
 1832              		.fpu fpv4-sp-d16
 1833              		.type	commands_get_disp_pos_mode, %function
 1834              	commands_get_disp_pos_mode:
 1835              	.LFB267:
 1836              		.loc 1 1080 0
 1837              		.cfi_startproc
 1838              		@ args = 0, pretend = 0, frame = 0
 1839              		@ frame_needed = 0, uses_anonymous_args = 0
 1840              		@ link register save eliminated.
 1841              		.loc 1 1081 0
 1842 0000 014B     		ldr	r3, .L173
 1843              		.loc 1 1082 0
 1844 0002 1878     		ldrb	r0, [r3]	@ zero_extendqisi2
 1845 0004 7047     		bx	lr
 1846              	.L174:
 1847 0006 00BF     		.align	2
 1848              	.L173:
 1849 0008 00000000 		.word	.LANCHOR15
 1850              		.cfi_endproc
 1851              	.LFE267:
 1852              		.size	commands_get_disp_pos_mode, .-commands_get_disp_pos_mode
 1853              		.section	.text.commands_set_app_data_handler,"ax",%progbits
 1854              		.align	1
 1855              		.p2align 4,,15
 1856              		.global	commands_set_app_data_handler
 1857              		.syntax unified
 1858              		.thumb
 1859              		.thumb_func
 1860              		.fpu fpv4-sp-d16
 1861              		.type	commands_set_app_data_handler, %function
 1862              	commands_set_app_data_handler:
 1863              	.LFB268:
 1864              		.loc 1 1084 0
 1865              		.cfi_startproc
 1866              		@ args = 0, pretend = 0, frame = 0
 1867              		@ frame_needed = 0, uses_anonymous_args = 0
 1868              		@ link register save eliminated.
 1869              	.LVL207:
 1870              		.loc 1 1085 0
 1871 0000 014B     		ldr	r3, .L176
 1872 0002 1860     		str	r0, [r3]
 1873              		.loc 1 1086 0
 1874 0004 7047     		bx	lr
 1875              	.L177:
 1876 0006 00BF     		.align	2
 1877              	.L176:
 1878 0008 00000000 		.word	.LANCHOR16
 1879              		.cfi_endproc
 1880              	.LFE268:
 1881              		.size	commands_set_app_data_handler, .-commands_set_app_data_handler
ARM GAS  /tmp/ccXDsUE2.s 			page 34


 1882              		.section	.text.commands_send_app_data,"ax",%progbits
 1883              		.align	1
 1884              		.p2align 4,,15
 1885              		.global	commands_send_app_data
 1886              		.syntax unified
 1887              		.thumb
 1888              		.thumb_func
 1889              		.fpu fpv4-sp-d16
 1890              		.type	commands_send_app_data, %function
 1891              	commands_send_app_data:
 1892              	.LFB269:
 1893              		.loc 1 1088 0
 1894              		.cfi_startproc
 1895              		@ args = 0, pretend = 0, frame = 0
 1896              		@ frame_needed = 0, uses_anonymous_args = 0
 1897              	.LVL208:
 1898 0000 70B5     		push	{r4, r5, r6, lr}
 1899              		.cfi_def_cfa_offset 16
 1900              		.cfi_offset 4, -16
 1901              		.cfi_offset 5, -12
 1902              		.cfi_offset 6, -8
 1903              		.cfi_offset 14, -4
 1904              		.loc 1 1091 0
 1905 0002 0D4D     		ldr	r5, .L184
 1906              		.loc 1 1088 0
 1907 0004 0646     		mov	r6, r0
 1908              		.loc 1 1090 0
 1909 0006 0D48     		ldr	r0, .L184+4
 1910              	.LVL209:
 1911              		.loc 1 1088 0
 1912 0008 0C46     		mov	r4, r1
 1913              		.loc 1 1090 0
 1914 000a FFF7FEFF 		bl	chMtxLock
 1915              	.LVL210:
 1916              		.loc 1 1091 0
 1917 000e 2846     		mov	r0, r5
 1918 0010 2423     		movs	r3, #36
 1919 0012 00F8013B 		strb	r3, [r0], #1
 1920              		.loc 1 1092 0
 1921 0016 2246     		mov	r2, r4
 1922 0018 3146     		mov	r1, r6
 1923 001a FFF7FEFF 		bl	memcpy
 1924              	.LVL211:
 1925              	.LBB207:
 1926              	.LBB208:
 1927              		.loc 1 91 0
 1928 001e 084B     		ldr	r3, .L184+8
 1929 0020 1A68     		ldr	r2, [r3]
 1930              	.LVL212:
 1931 0022 1AB1     		cbz	r2, .L179
 1932 0024 611C     		adds	r1, r4, #1
 1933              	.LVL213:
 1934              		.loc 1 92 0
 1935 0026 1B68     		ldr	r3, [r3]
 1936 0028 2846     		mov	r0, r5
 1937 002a 9847     		blx	r3
 1938              	.LVL214:
ARM GAS  /tmp/ccXDsUE2.s 			page 35


 1939              	.L179:
 1940              	.LBE208:
 1941              	.LBE207:
 1942              		.loc 1 1095 0
 1943 002c 0348     		ldr	r0, .L184+4
 1944              		.loc 1 1096 0
 1945 002e BDE87040 		pop	{r4, r5, r6, lr}
 1946              		.cfi_restore 14
 1947              		.cfi_restore 6
 1948              		.cfi_restore 5
 1949              		.cfi_restore 4
 1950              		.cfi_def_cfa_offset 0
 1951              	.LVL215:
 1952              		.loc 1 1095 0
 1953 0032 FFF7FEBF 		b	chMtxUnlock
 1954              	.LVL216:
 1955              	.L185:
 1956 0036 00BF     		.align	2
 1957              	.L184:
 1958 0038 00000000 		.word	.LANCHOR17
 1959 003c 00000000 		.word	.LANCHOR11
 1960 0040 00000000 		.word	.LANCHOR0
 1961              		.cfi_endproc
 1962              	.LFE269:
 1963              		.size	commands_send_app_data, .-commands_send_app_data
 1964              		.section	.text.commands_send_gpd_buffer_notify,"ax",%progbits
 1965              		.align	1
 1966              		.p2align 4,,15
 1967              		.global	commands_send_gpd_buffer_notify
 1968              		.syntax unified
 1969              		.thumb
 1970              		.thumb_func
 1971              		.fpu fpv4-sp-d16
 1972              		.type	commands_send_gpd_buffer_notify, %function
 1973              	commands_send_gpd_buffer_notify:
 1974              	.LFB270:
 1975              		.loc 1 1098 0
 1976              		.cfi_startproc
 1977              		@ args = 0, pretend = 0, frame = 8
 1978              		@ frame_needed = 0, uses_anonymous_args = 0
 1979              	.LVL217:
 1980 0000 00B5     		push	{lr}
 1981              		.cfi_def_cfa_offset 4
 1982              		.cfi_offset 14, -4
 1983              	.LBB209:
 1984              	.LBB210:
 1985              		.loc 1 91 0
 1986 0002 074B     		ldr	r3, .L192
 1987              	.LBE210:
 1988              	.LBE209:
 1989              		.loc 1 1098 0
 1990 0004 83B0     		sub	sp, sp, #12
 1991              		.cfi_def_cfa_offset 16
 1992              	.LBB213:
 1993              	.LBB211:
 1994              		.loc 1 91 0
 1995 0006 1A68     		ldr	r2, [r3]
ARM GAS  /tmp/ccXDsUE2.s 			page 36


 1996              	.LBE211:
 1997              	.LBE213:
 1998              		.loc 1 1101 0
 1999 0008 2721     		movs	r1, #39
 2000 000a 8DF80410 		strb	r1, [sp, #4]
 2001              	.LVL218:
 2002              	.LBB214:
 2003              	.LBB212:
 2004              		.loc 1 91 0
 2005 000e 1AB1     		cbz	r2, .L186
 2006              		.loc 1 92 0
 2007 0010 1B68     		ldr	r3, [r3]
 2008 0012 0121     		movs	r1, #1
 2009 0014 01A8     		add	r0, sp, #4
 2010              	.LVL219:
 2011 0016 9847     		blx	r3
 2012              	.LVL220:
 2013              	.L186:
 2014              	.LBE212:
 2015              	.LBE214:
 2016              		.loc 1 1103 0
 2017 0018 03B0     		add	sp, sp, #12
 2018              		.cfi_def_cfa_offset 4
 2019              		@ sp needed
 2020 001a 5DF804FB 		ldr	pc, [sp], #4
 2021              	.L193:
 2022 001e 00BF     		.align	2
 2023              	.L192:
 2024 0020 00000000 		.word	.LANCHOR0
 2025              		.cfi_endproc
 2026              	.LFE270:
 2027              		.size	commands_send_gpd_buffer_notify, .-commands_send_gpd_buffer_notify
 2028              		.section	.text.commands_send_mcconf,"ax",%progbits
 2029              		.align	1
 2030              		.p2align 4,,15
 2031              		.global	commands_send_mcconf
 2032              		.syntax unified
 2033              		.thumb
 2034              		.thumb_func
 2035              		.fpu fpv4-sp-d16
 2036              		.type	commands_send_mcconf, %function
 2037              	commands_send_mcconf:
 2038              	.LFB271:
 2039              		.loc 1 1105 0
 2040              		.cfi_startproc
 2041              		@ args = 0, pretend = 0, frame = 0
 2042              		@ frame_needed = 0, uses_anonymous_args = 0
 2043              	.LVL221:
 2044 0000 70B5     		push	{r4, r5, r6, lr}
 2045              		.cfi_def_cfa_offset 16
 2046              		.cfi_offset 4, -16
 2047              		.cfi_offset 5, -12
 2048              		.cfi_offset 6, -8
 2049              		.cfi_offset 14, -4
 2050              		.loc 1 1107 0
 2051 0002 0C4C     		ldr	r4, .L200
 2052              		.loc 1 1105 0
ARM GAS  /tmp/ccXDsUE2.s 			page 37


 2053 0004 0546     		mov	r5, r0
 2054              		.loc 1 1106 0
 2055 0006 0C48     		ldr	r0, .L200+4
 2056              	.LVL222:
 2057              		.loc 1 1105 0
 2058 0008 0E46     		mov	r6, r1
 2059              		.loc 1 1106 0
 2060 000a FFF7FEFF 		bl	chMtxLock
 2061              	.LVL223:
 2062              		.loc 1 1107 0
 2063 000e 2046     		mov	r0, r4
 2064              		.loc 1 1108 0
 2065 0010 3146     		mov	r1, r6
 2066              		.loc 1 1107 0
 2067 0012 00F8015B 		strb	r5, [r0], #1
 2068              		.loc 1 1108 0
 2069 0016 FFF7FEFF 		bl	confgenerator_serialize_mcconf
 2070              	.LVL224:
 2071              	.LBB215:
 2072              	.LBB216:
 2073              		.loc 1 91 0
 2074 001a 084B     		ldr	r3, .L200+8
 2075 001c 1A68     		ldr	r2, [r3]
 2076              	.LVL225:
 2077 001e 1AB1     		cbz	r2, .L195
 2078 0020 411C     		adds	r1, r0, #1
 2079              	.LVL226:
 2080              		.loc 1 92 0
 2081 0022 1B68     		ldr	r3, [r3]
 2082 0024 2046     		mov	r0, r4
 2083              	.LVL227:
 2084 0026 9847     		blx	r3
 2085              	.LVL228:
 2086              	.L195:
 2087              	.LBE216:
 2088              	.LBE215:
 2089              		.loc 1 1110 0
 2090 0028 0348     		ldr	r0, .L200+4
 2091              		.loc 1 1111 0
 2092 002a BDE87040 		pop	{r4, r5, r6, lr}
 2093              		.cfi_restore 14
 2094              		.cfi_restore 6
 2095              		.cfi_restore 5
 2096              		.cfi_restore 4
 2097              		.cfi_def_cfa_offset 0
 2098              	.LVL229:
 2099              		.loc 1 1110 0
 2100 002e FFF7FEBF 		b	chMtxUnlock
 2101              	.LVL230:
 2102              	.L201:
 2103 0032 00BF     		.align	2
 2104              	.L200:
 2105 0034 00000000 		.word	.LANCHOR17
 2106 0038 00000000 		.word	.LANCHOR11
 2107 003c 00000000 		.word	.LANCHOR0
 2108              		.cfi_endproc
 2109              	.LFE271:
ARM GAS  /tmp/ccXDsUE2.s 			page 38


 2110              		.size	commands_send_mcconf, .-commands_send_mcconf
 2111              		.section	.text.commands_send_appconf,"ax",%progbits
 2112              		.align	1
 2113              		.p2align 4,,15
 2114              		.global	commands_send_appconf
 2115              		.syntax unified
 2116              		.thumb
 2117              		.thumb_func
 2118              		.fpu fpv4-sp-d16
 2119              		.type	commands_send_appconf, %function
 2120              	commands_send_appconf:
 2121              	.LFB272:
 2122              		.loc 1 1113 0
 2123              		.cfi_startproc
 2124              		@ args = 0, pretend = 0, frame = 0
 2125              		@ frame_needed = 0, uses_anonymous_args = 0
 2126              	.LVL231:
 2127 0000 70B5     		push	{r4, r5, r6, lr}
 2128              		.cfi_def_cfa_offset 16
 2129              		.cfi_offset 4, -16
 2130              		.cfi_offset 5, -12
 2131              		.cfi_offset 6, -8
 2132              		.cfi_offset 14, -4
 2133              		.loc 1 1115 0
 2134 0002 0C4C     		ldr	r4, .L208
 2135              		.loc 1 1113 0
 2136 0004 0546     		mov	r5, r0
 2137              		.loc 1 1114 0
 2138 0006 0C48     		ldr	r0, .L208+4
 2139              	.LVL232:
 2140              		.loc 1 1113 0
 2141 0008 0E46     		mov	r6, r1
 2142              		.loc 1 1114 0
 2143 000a FFF7FEFF 		bl	chMtxLock
 2144              	.LVL233:
 2145              		.loc 1 1115 0
 2146 000e 2046     		mov	r0, r4
 2147              		.loc 1 1116 0
 2148 0010 3146     		mov	r1, r6
 2149              		.loc 1 1115 0
 2150 0012 00F8015B 		strb	r5, [r0], #1
 2151              		.loc 1 1116 0
 2152 0016 FFF7FEFF 		bl	confgenerator_serialize_appconf
 2153              	.LVL234:
 2154              	.LBB217:
 2155              	.LBB218:
 2156              		.loc 1 91 0
 2157 001a 084B     		ldr	r3, .L208+8
 2158 001c 1A68     		ldr	r2, [r3]
 2159              	.LVL235:
 2160 001e 1AB1     		cbz	r2, .L203
 2161 0020 411C     		adds	r1, r0, #1
 2162              	.LVL236:
 2163              		.loc 1 92 0
 2164 0022 1B68     		ldr	r3, [r3]
 2165 0024 2046     		mov	r0, r4
 2166              	.LVL237:
ARM GAS  /tmp/ccXDsUE2.s 			page 39


 2167 0026 9847     		blx	r3
 2168              	.LVL238:
 2169              	.L203:
 2170              	.LBE218:
 2171              	.LBE217:
 2172              		.loc 1 1118 0
 2173 0028 0348     		ldr	r0, .L208+4
 2174              		.loc 1 1119 0
 2175 002a BDE87040 		pop	{r4, r5, r6, lr}
 2176              		.cfi_restore 14
 2177              		.cfi_restore 6
 2178              		.cfi_restore 5
 2179              		.cfi_restore 4
 2180              		.cfi_def_cfa_offset 0
 2181              	.LVL239:
 2182              		.loc 1 1118 0
 2183 002e FFF7FEBF 		b	chMtxUnlock
 2184              	.LVL240:
 2185              	.L209:
 2186 0032 00BF     		.align	2
 2187              	.L208:
 2188 0034 00000000 		.word	.LANCHOR17
 2189 0038 00000000 		.word	.LANCHOR11
 2190 003c 00000000 		.word	.LANCHOR0
 2191              		.cfi_endproc
 2192              	.LFE272:
 2193              		.size	commands_send_appconf, .-commands_send_appconf
 2194              		.section	.text.commands_apply_mcconf_hw_limits,"ax",%progbits
 2195              		.align	1
 2196              		.p2align 4,,15
 2197              		.global	commands_apply_mcconf_hw_limits
 2198              		.syntax unified
 2199              		.thumb
 2200              		.thumb_func
 2201              		.fpu fpv4-sp-d16
 2202              		.type	commands_apply_mcconf_hw_limits, %function
 2203              	commands_apply_mcconf_hw_limits:
 2204              	.LFB273:
 2205              		.loc 1 1121 0
 2206              		.cfi_startproc
 2207              		@ args = 0, pretend = 0, frame = 0
 2208              		@ frame_needed = 0, uses_anonymous_args = 0
 2209              	.LVL241:
 2210 0000 10B5     		push	{r4, lr}
 2211              		.cfi_def_cfa_offset 8
 2212              		.cfi_offset 4, -8
 2213              		.cfi_offset 14, -4
 2214              		.loc 1 1122 0
 2215 0002 F7EE000A 		vmov.f32	s1, #1.0e+0
 2216              		.loc 1 1121 0
 2217 0006 0446     		mov	r4, r0
 2218              		.loc 1 1122 0
 2219 0008 9FED480A 		vldr.32	s0, .L215
 2220 000c 6430     		adds	r0, r0, #100
 2221              	.LVL242:
 2222 000e FFF7FEFF 		bl	utils_truncate_number
 2223              	.LVL243:
ARM GAS  /tmp/ccXDsUE2.s 			page 40


 2224              		.loc 1 1123 0
 2225 0012 04F16800 		add	r0, r4, #104
 2226 0016 F7EE000A 		vmov.f32	s1, #1.0e+0
 2227 001a 9FED440A 		vldr.32	s0, .L215
 2228 001e FFF7FEFF 		bl	utils_truncate_number
 2229              	.LVL244:
 2230              		.loc 1 1128 0
 2231 0022 94F82431 		ldrb	r3, [r4, #292]	@ zero_extendqisi2
 2232 0026 04F1B400 		add	r0, r4, #180
 2233 002a 002B     		cmp	r3, #0
 2234 002c 76D1     		bne	.L214
 2235              		.loc 1 1132 0
 2236 002e DFED400A 		vldr.32	s1, .L215+4
 2237 0032 9FED400A 		vldr.32	s0, .L215+8
 2238 0036 FFF7FEFF 		bl	utils_truncate_number
 2239              	.LVL245:
 2240              	.L212:
 2241              		.loc 1 1138 0
 2242 003a DFED3F0A 		vldr.32	s1, .L215+12
 2243 003e 9FED3F0A 		vldr.32	s0, .L215+16
 2244 0042 201D     		adds	r0, r4, #4
 2245 0044 FFF7FEFF 		bl	utils_truncate_number
 2246              	.LVL246:
 2247              		.loc 1 1139 0
 2248 0048 DFED3B0A 		vldr.32	s1, .L215+12
 2249 004c 9FED3B0A 		vldr.32	s0, .L215+16
 2250 0050 04F10800 		add	r0, r4, #8
 2251 0054 FFF7FEFF 		bl	utils_truncate_number
 2252              	.LVL247:
 2253              		.loc 1 1142 0
 2254 0058 DFED390A 		vldr.32	s1, .L215+20
 2255 005c 9FED390A 		vldr.32	s0, .L215+24
 2256 0060 04F10C00 		add	r0, r4, #12
 2257 0064 FFF7FEFF 		bl	utils_truncate_number
 2258              	.LVL248:
 2259              		.loc 1 1143 0
 2260 0068 DFED350A 		vldr.32	s1, .L215+20
 2261 006c 9FED350A 		vldr.32	s0, .L215+24
 2262 0070 04F11000 		add	r0, r4, #16
 2263 0074 FFF7FEFF 		bl	utils_truncate_number
 2264              	.LVL249:
 2265              		.loc 1 1146 0
 2266 0078 DFED330A 		vldr.32	s1, .L215+28
 2267 007c 9FED2B0A 		vldr.32	s0, .L215
 2268 0080 04F11400 		add	r0, r4, #20
 2269 0084 FFF7FEFF 		bl	utils_truncate_number
 2270              	.LVL250:
 2271              		.loc 1 1149 0
 2272 0088 DFED300A 		vldr.32	s1, .L215+32
 2273 008c B1EE080A 		vmov.f32	s0, #6.0e+0
 2274 0090 04F13000 		add	r0, r4, #48
 2275 0094 FFF7FEFF 		bl	utils_truncate_number
 2276              	.LVL251:
 2277              		.loc 1 1150 0
 2278 0098 DFED2C0A 		vldr.32	s1, .L215+32
 2279 009c B1EE080A 		vmov.f32	s0, #6.0e+0
 2280 00a0 04F12C00 		add	r0, r4, #44
ARM GAS  /tmp/ccXDsUE2.s 			page 41


 2281 00a4 FFF7FEFF 		bl	utils_truncate_number
 2282              	.LVL252:
 2283              		.loc 1 1153 0
 2284 00a8 DFED290A 		vldr.32	s1, .L215+36
 2285 00ac 9FED290A 		vldr.32	s0, .L215+40
 2286 00b0 04F11C00 		add	r0, r4, #28
 2287 00b4 FFF7FEFF 		bl	utils_truncate_number
 2288              	.LVL253:
 2289              		.loc 1 1154 0
 2290 00b8 DFED250A 		vldr.32	s1, .L215+36
 2291 00bc 9FED250A 		vldr.32	s0, .L215+40
 2292 00c0 04F11800 		add	r0, r4, #24
 2293 00c4 FFF7FEFF 		bl	utils_truncate_number
 2294              	.LVL254:
 2295              		.loc 1 1157 0
 2296 00c8 DFED230A 		vldr.32	s1, .L215+44
 2297 00cc 9FED170A 		vldr.32	s0, .L215
 2298 00d0 04F15400 		add	r0, r4, #84
 2299 00d4 FFF7FEFF 		bl	utils_truncate_number
 2300              	.LVL255:
 2301              		.loc 1 1160 0
 2302 00d8 DFED200A 		vldr.32	s1, .L215+48
 2303 00dc 9FED130A 		vldr.32	s0, .L215
 2304 00e0 04F15800 		add	r0, r4, #88
 2305 00e4 FFF7FEFF 		bl	utils_truncate_number
 2306              	.LVL256:
 2307              		.loc 1 1163 0
 2308 00e8 DFED1D0A 		vldr.32	s1, .L215+52
 2309 00ec 9FED1D0A 		vldr.32	s0, .L215+56
 2310 00f0 04F14000 		add	r0, r4, #64
 2311 00f4 FFF7FEFF 		bl	utils_truncate_number
 2312              	.LVL257:
 2313              		.loc 1 1164 0
 2314 00f8 DFED190A 		vldr.32	s1, .L215+52
 2315 00fc 9FED190A 		vldr.32	s0, .L215+56
 2316 0100 04F14400 		add	r0, r4, #68
 2317 0104 FFF7FEFF 		bl	utils_truncate_number
 2318              	.LVL258:
 2319              		.loc 1 1167 0
 2320 0108 04F59A70 		add	r0, r4, #308
 2321 010c F7EE000A 		vmov.f32	s1, #1.0e+0
 2322 0110 9FED150A 		vldr.32	s0, .L215+60
 2323              		.loc 1 1170 0
 2324 0114 BDE81040 		pop	{r4, lr}
 2325              		.cfi_remember_state
 2326              		.cfi_restore 14
 2327              		.cfi_restore 4
 2328              		.cfi_def_cfa_offset 0
 2329              	.LVL259:
 2330              		.loc 1 1167 0
 2331 0118 FFF7FEBF 		b	utils_truncate_number
 2332              	.LVL260:
 2333              	.L214:
 2334              		.cfi_restore_state
 2335              		.loc 1 1130 0
 2336 011c DFED130A 		vldr.32	s1, .L215+64
 2337 0120 9FED040A 		vldr.32	s0, .L215+8
ARM GAS  /tmp/ccXDsUE2.s 			page 42


 2338 0124 FFF7FEFF 		bl	utils_truncate_number
 2339              	.LVL261:
 2340 0128 87E7     		b	.L212
 2341              	.L216:
 2342 012a 00BF     		.align	2
 2343              	.L215:
 2344 012c 00000000 		.word	0
 2345 0130 00606A47 		.word	1198153728
 2346 0134 00803B45 		.word	1161527296
 2347 0138 00009643 		.word	1133903872
 2348 013c 000096C3 		.word	3281387520
 2349 0140 0000C842 		.word	1120403456
 2350 0144 0000C8C2 		.word	3267887104
 2351 0148 0000AF43 		.word	1135542272
 2352 014c 00009642 		.word	1117126656
 2353 0150 2E567C47 		.word	1199330862
 2354 0154 005043C8 		.word	3359854592
 2355 0158 CDCCCC3D 		.word	1036831949
 2356 015c A4707D3F 		.word	1065185444
 2357 0160 0000FA42 		.word	1123680256
 2358 0164 000020C2 		.word	3256877056
 2359 0168 CDCC4C3D 		.word	1028443341
 2360 016c 0060EA46 		.word	1189765120
 2361              		.cfi_endproc
 2362              	.LFE273:
 2363              		.size	commands_apply_mcconf_hw_limits, .-commands_apply_mcconf_hw_limits
 2364              		.section	.text.commands_process_packet,"ax",%progbits
 2365              		.align	1
 2366              		.p2align 4,,15
 2367              		.global	commands_process_packet
 2368              		.syntax unified
 2369              		.thumb
 2370              		.thumb_func
 2371              		.fpu fpv4-sp-d16
 2372              		.type	commands_process_packet, %function
 2373              	commands_process_packet:
 2374              	.LFB263:
 2375              		.loc 1 141 0
 2376              		.cfi_startproc
 2377              		@ args = 0, pretend = 0, frame = 152
 2378              		@ frame_needed = 0, uses_anonymous_args = 0
 2379              	.LVL262:
 2380              		.loc 1 143 0
 2381 0000 0029     		cmp	r1, #0
 2382 0002 00F0D880 		beq	.L592
 2383              		.loc 1 141 0
 2384 0006 2DE9F04F 		push	{r4, r5, r6, r7, r8, r9, r10, fp, lr}
 2385              		.cfi_def_cfa_offset 36
 2386              		.cfi_offset 4, -36
 2387              		.cfi_offset 5, -32
 2388              		.cfi_offset 6, -28
 2389              		.cfi_offset 7, -24
 2390              		.cfi_offset 8, -20
 2391              		.cfi_offset 9, -16
 2392              		.cfi_offset 10, -12
 2393              		.cfi_offset 11, -8
 2394              		.cfi_offset 14, -4
ARM GAS  /tmp/ccXDsUE2.s 			page 43


 2395 000a 2DED048B 		vpush.64	{d8, d9}
 2396              		.cfi_def_cfa_offset 52
 2397              		.cfi_offset 80, -52
 2398              		.cfi_offset 81, -48
 2399              		.cfi_offset 82, -44
 2400              		.cfi_offset 83, -40
 2401              		.loc 1 153 0
 2402 000e 0446     		mov	r4, r0
 2403              		.loc 1 141 0
 2404 0010 A9B0     		sub	sp, sp, #164
 2405              		.cfi_def_cfa_offset 216
 2406              		.loc 1 153 0
 2407 0012 14F8019B 		ldrb	r9, [r4], #1	@ zero_extendqisi2
 2408              	.LVL263:
 2409              		.loc 1 159 0
 2410 0016 B9F1340F 		cmp	r9, #52
 2411 001a 0546     		mov	r5, r0
 2412 001c 1746     		mov	r7, r2
 2413 001e 8846     		mov	r8, r1
 2414              		.loc 1 155 0
 2415 0020 01F1FF3B 		add	fp, r1, #-1
 2416              	.LVL264:
 2417              		.loc 1 159 0
 2418 0024 62D0     		beq	.L220
 2419              		.loc 1 159 0 is_stmt 0 discriminator 1
 2420 0026 B9F1370F 		cmp	r9, #55
 2421 002a 5FD0     		beq	.L220
 2422              		.loc 1 163 0 is_stmt 1
 2423 002c A64B     		ldr	r3, .L662
 2424 002e 1A60     		str	r2, [r3]
 2425              	.L222:
 2426              		.loc 1 169 0
 2427 0030 A64B     		ldr	r3, .L662+4
 2428 0032 002F     		cmp	r7, #0
 2429 0034 08BF     		it	eq
 2430 0036 1F46     		moveq	r7, r3
 2431              	.LVL265:
 2432              		.loc 1 172 0
 2433 0038 B9F1530F 		cmp	r9, #83
 2434 003c 00F2B680 		bhi	.L217
 2435 0040 DFE819F0 		tbh	[pc, r9, lsl #1]
 2436              	.L225:
 2437 0044 DE04     		.2byte	(.L224-.L225)/2
 2438 0046 EE00     		.2byte	(.L226-.L225)/2
 2439 0048 0101     		.2byte	(.L227-.L225)/2
 2440 004a BA03     		.2byte	(.L445-.L225)/2
 2441 004c 5700     		.2byte	(.L229-.L225)/2
 2442 004e B304     		.2byte	(.L230-.L225)/2
 2443 0050 F602     		.2byte	(.L231-.L225)/2
 2444 0052 0A03     		.2byte	(.L232-.L225)/2
 2445 0054 3003     		.2byte	(.L233-.L225)/2
 2446 0056 4003     		.2byte	(.L234-.L225)/2
 2447 0058 5403     		.2byte	(.L235-.L225)/2
 2448 005a 1F01     		.2byte	(.L236-.L225)/2
 2449 005c B400     		.2byte	(.L217-.L225)/2
 2450 005e 6203     		.2byte	(.L237-.L225)/2
 2451 0060 AE03     		.2byte	(.L238-.L225)/2
ARM GAS  /tmp/ccXDsUE2.s 			page 44


 2452 0062 AE03     		.2byte	(.L238-.L225)/2
 2453 0064 9901     		.2byte	(.L239-.L225)/2
 2454 0066 BF01     		.2byte	(.L240-.L225)/2
 2455 0068 BF01     		.2byte	(.L240-.L225)/2
 2456 006a CB01     		.2byte	(.L241-.L225)/2
 2457 006c DC01     		.2byte	(.L242-.L225)/2
 2458 006e B400     		.2byte	(.L217-.L225)/2
 2459 0070 B400     		.2byte	(.L217-.L225)/2
 2460 0072 B400     		.2byte	(.L217-.L225)/2
 2461 0074 DC01     		.2byte	(.L242-.L225)/2
 2462 0076 DC01     		.2byte	(.L242-.L225)/2
 2463 0078 DC01     		.2byte	(.L242-.L225)/2
 2464 007a DC01     		.2byte	(.L242-.L225)/2
 2465 007c DC01     		.2byte	(.L242-.L225)/2
 2466 007e 3F02     		.2byte	(.L243-.L225)/2
 2467 0080 3401     		.2byte	(.L244-.L225)/2
 2468 0082 F301     		.2byte	(.L245-.L225)/2
 2469 0084 1102     		.2byte	(.L246-.L225)/2
 2470 0086 8802     		.2byte	(.L247-.L225)/2
 2471 0088 4802     		.2byte	(.L248-.L225)/2
 2472 008a 5002     		.2byte	(.L249-.L225)/2
 2473 008c 3701     		.2byte	(.L250-.L225)/2
 2474 008e 5201     		.2byte	(.L251-.L225)/2
 2475 0090 6601     		.2byte	(.L252-.L225)/2
 2476 0092 B400     		.2byte	(.L217-.L225)/2
 2477 0094 7601     		.2byte	(.L253-.L225)/2
 2478 0096 8601     		.2byte	(.L254-.L225)/2
 2479 0098 2605     		.2byte	(.L255-.L225)/2
 2480 009a FC04     		.2byte	(.L256-.L225)/2
 2481 009c 1605     		.2byte	(.L257-.L225)/2
 2482 009e 9604     		.2byte	(.L258-.L225)/2
 2483 00a0 A904     		.2byte	(.L259-.L225)/2
 2484 00a2 3305     		.2byte	(.L260-.L225)/2
 2485 00a4 A005     		.2byte	(.L261-.L225)/2
 2486 00a6 A005     		.2byte	(.L261-.L225)/2
 2487 00a8 5700     		.2byte	(.L229-.L225)/2
 2488 00aa 3305     		.2byte	(.L260-.L225)/2
 2489 00ac 4F04     		.2byte	(.L262-.L225)/2
 2490 00ae B400     		.2byte	(.L217-.L225)/2
 2491 00b0 B400     		.2byte	(.L217-.L225)/2
 2492 00b2 7A04     		.2byte	(.L263-.L225)/2
 2493 00b4 B400     		.2byte	(.L217-.L225)/2
 2494 00b6 DC01     		.2byte	(.L242-.L225)/2
 2495 00b8 DC01     		.2byte	(.L242-.L225)/2
 2496 00ba E200     		.2byte	(.L264-.L225)/2
 2497 00bc F100     		.2byte	(.L265-.L225)/2
 2498 00be 8004     		.2byte	(.L266-.L225)/2
 2499 00c0 DC01     		.2byte	(.L242-.L225)/2
 2500 00c2 C804     		.2byte	(.L267-.L225)/2
 2501 00c4 E603     		.2byte	(.L268-.L225)/2
 2502 00c6 9F02     		.2byte	(.L269-.L225)/2
 2503 00c8 DC01     		.2byte	(.L242-.L225)/2
 2504 00ca DC01     		.2byte	(.L242-.L225)/2
 2505 00cc DC01     		.2byte	(.L242-.L225)/2
 2506 00ce DC01     		.2byte	(.L242-.L225)/2
 2507 00d0 DC01     		.2byte	(.L242-.L225)/2
 2508 00d2 DC01     		.2byte	(.L242-.L225)/2
ARM GAS  /tmp/ccXDsUE2.s 			page 45


 2509 00d4 DC01     		.2byte	(.L242-.L225)/2
 2510 00d6 CB00     		.2byte	(.L270-.L225)/2
 2511 00d8 BA00     		.2byte	(.L271-.L225)/2
 2512 00da B400     		.2byte	(.L217-.L225)/2
 2513 00dc B400     		.2byte	(.L217-.L225)/2
 2514 00de B400     		.2byte	(.L217-.L225)/2
 2515 00e0 B400     		.2byte	(.L217-.L225)/2
 2516 00e2 F303     		.2byte	(.L272-.L225)/2
 2517 00e4 DC01     		.2byte	(.L242-.L225)/2
 2518 00e6 BA03     		.2byte	(.L445-.L225)/2
 2519 00e8 8004     		.2byte	(.L266-.L225)/2
 2520 00ea DC01     		.2byte	(.L242-.L225)/2
 2521              	.LVL266:
 2522              		.p2align 1
 2523              	.L220:
 2524              		.loc 1 161 0
 2525 00ec 784B     		ldr	r3, .L662+8
 2526 00ee 1F60     		str	r7, [r3]
 2527 00f0 9EE7     		b	.L222
 2528              	.LVL267:
 2529              	.L229:
 2530              	.LBB219:
 2531              		.loc 1 276 0
 2532 00f2 0025     		movs	r5, #0
 2533              		.loc 1 277 0
 2534 00f4 7748     		ldr	r0, .L662+12
 2535              		.loc 1 276 0
 2536 00f6 1295     		str	r5, [sp, #72]
 2537              		.loc 1 277 0
 2538 00f8 FFF7FEFF 		bl	chMtxLock
 2539              	.LVL268:
 2540              		.loc 1 279 0
 2541 00fc 129B     		ldr	r3, [sp, #72]
 2542 00fe DFF8D881 		ldr	r8, .L662+16
 2543 0102 5A1C     		adds	r2, r3, #1
 2544              		.loc 1 282 0
 2545 0104 B9F1320F 		cmp	r9, #50
 2546              		.loc 1 279 0
 2547 0108 1292     		str	r2, [sp, #72]
 2548 010a 08F80390 		strb	r9, [r8, r3]
 2549              	.LVL269:
 2550              		.loc 1 282 0
 2551 010e 00F0CD87 		beq	.L597
 2552              		.loc 1 281 0
 2553 0112 4FF0FF34 		mov	r4, #-1
 2554              	.LVL270:
 2555 0116 12AE     		add	r6, sp, #72
 2556              	.LVL271:
 2557              	.L279:
 2558              		.loc 1 289 0
 2559 0118 FFF7FEFF 		bl	mc_interface_temp_fet_filtered
 2560              	.LVL272:
 2561 011c 3146     		mov	r1, r6
 2562 011e F2EE040A 		vmov.f32	s1, #1.0e+1
 2563 0122 6D48     		ldr	r0, .L662+16
 2564 0124 FFF7FEFF 		bl	buffer_append_float16
 2565              	.LVL273:
ARM GAS  /tmp/ccXDsUE2.s 			page 46


 2566              	.L280:
 2567              		.loc 1 291 0
 2568 0128 A107     		lsls	r1, r4, #30
 2569 012a 00F1B587 		bmi	.L598
 2570              	.L281:
 2571              		.loc 1 294 0
 2572 012e 6207     		lsls	r2, r4, #29
 2573 0130 00F1A887 		bmi	.L599
 2574              	.L282:
 2575              		.loc 1 297 0
 2576 0134 2307     		lsls	r3, r4, #28
 2577 0136 00F19B87 		bmi	.L600
 2578              	.L283:
 2579              		.loc 1 300 0
 2580 013a E506     		lsls	r5, r4, #27
 2581 013c 00F18E87 		bmi	.L601
 2582              	.L284:
 2583              		.loc 1 303 0
 2584 0140 A006     		lsls	r0, r4, #26
 2585 0142 00F18187 		bmi	.L602
 2586              	.L285:
 2587              		.loc 1 306 0
 2588 0146 6106     		lsls	r1, r4, #25
 2589 0148 00F17487 		bmi	.L603
 2590              	.L286:
 2591              		.loc 1 309 0
 2592 014c 2206     		lsls	r2, r4, #24
 2593 014e 00F16787 		bmi	.L604
 2594              	.L287:
 2595              		.loc 1 312 0
 2596 0152 E305     		lsls	r3, r4, #23
 2597 0154 00F14E87 		bmi	.L605
 2598              	.L288:
 2599              		.loc 1 315 0
 2600 0158 A505     		lsls	r5, r4, #22
 2601 015a 00F14087 		bmi	.L606
 2602              	.L289:
 2603              		.loc 1 318 0
 2604 015e 6005     		lsls	r0, r4, #21
 2605 0160 00F13287 		bmi	.L607
 2606              	.L290:
 2607              		.loc 1 321 0
 2608 0164 2105     		lsls	r1, r4, #20
 2609 0166 00F12487 		bmi	.L608
 2610              	.L291:
 2611              		.loc 1 324 0
 2612 016a E204     		lsls	r2, r4, #19
 2613 016c 00F11687 		bmi	.L609
 2614              	.L292:
 2615              		.loc 1 327 0
 2616 0170 A304     		lsls	r3, r4, #18
 2617 0172 00F10987 		bmi	.L610
 2618              	.L293:
 2619              		.loc 1 330 0
 2620 0176 6504     		lsls	r5, r4, #17
 2621 0178 00F1FC86 		bmi	.L611
 2622              	.L294:
ARM GAS  /tmp/ccXDsUE2.s 			page 47


 2623              		.loc 1 333 0
 2624 017c 2004     		lsls	r0, r4, #16
 2625 017e 00F1F086 		bmi	.L612
 2626              	.L295:
 2627              		.loc 1 336 0
 2628 0182 E103     		lsls	r1, r4, #15
 2629 0184 00F1E386 		bmi	.L613
 2630              	.L296:
 2631              		.loc 1 346 0
 2632 0188 A203     		lsls	r2, r4, #14
 2633 018a 00F1D686 		bmi	.L614
 2634              	.L297:
 2635              		.loc 1 355 0
 2636 018e 6303     		lsls	r3, r4, #13
 2637 0190 00F1B686 		bmi	.L615
 2638              	.L298:
 2639              		.loc 1 364 0
 2640 0194 2503     		lsls	r5, r4, #12
 2641 0196 00F1A986 		bmi	.L616
 2642              	.L299:
 2643              		.loc 1 367 0
 2644 019a E002     		lsls	r0, r4, #11
 2645 019c 00F19C86 		bmi	.L617
 2646              	.L300:
 2647              		.loc 1 371 0
 2648 01a0 4D48     		ldr	r0, .L662+16
 2649 01a2 1299     		ldr	r1, [sp, #72]
 2650 01a4 B847     		blx	r7
 2651              	.LVL274:
 2652              		.loc 1 372 0
 2653 01a6 4B48     		ldr	r0, .L662+12
 2654 01a8 FFF7FEFF 		bl	chMtxUnlock
 2655              	.LVL275:
 2656              	.L217:
 2657              	.LBE219:
 2658              		.loc 1 1033 0
 2659 01ac 29B0     		add	sp, sp, #164
 2660              		.cfi_def_cfa_offset 52
 2661              		@ sp needed
 2662 01ae BDEC048B 		vldm	sp!, {d8-d9}
 2663              		.cfi_restore 82
 2664              		.cfi_restore 83
 2665              		.cfi_restore 80
 2666              		.cfi_restore 81
 2667              		.cfi_def_cfa_offset 36
 2668 01b2 BDE8F08F 		pop	{r4, r5, r6, r7, r8, r9, r10, fp, pc}
 2669              	.LVL276:
 2670              	.L592:
 2671              		.cfi_def_cfa_offset 0
 2672              		.cfi_restore 4
 2673              		.cfi_restore 5
 2674              		.cfi_restore 6
 2675              		.cfi_restore 7
 2676              		.cfi_restore 8
 2677              		.cfi_restore 9
 2678              		.cfi_restore 10
 2679              		.cfi_restore 11
ARM GAS  /tmp/ccXDsUE2.s 			page 48


 2680              		.cfi_restore 14
 2681 01b6 7047     		bx	lr
 2682              	.LVL277:
 2683              	.L271:
 2684              		.cfi_def_cfa_offset 216
 2685              		.cfi_offset 4, -36
 2686              		.cfi_offset 5, -32
 2687              		.cfi_offset 6, -28
 2688              		.cfi_offset 7, -24
 2689              		.cfi_offset 8, -20
 2690              		.cfi_offset 9, -16
 2691              		.cfi_offset 10, -12
 2692              		.cfi_offset 11, -8
 2693              		.cfi_offset 14, -4
 2694              		.cfi_offset 80, -52
 2695              		.cfi_offset 81, -48
 2696              		.cfi_offset 82, -44
 2697              		.cfi_offset 83, -40
 2698              		.loc 1 976 0
 2699 01b8 FFF7FEFF 		bl	nrf_driver_ext_nrf_running
 2700              	.LVL278:
 2701 01bc 0028     		cmp	r0, #0
 2702 01be 40F08586 		bne	.L618
 2703              	.L369:
 2704              		.loc 1 980 0
 2705 01c2 4923     		movs	r3, #73
 2706 01c4 2B70     		strb	r3, [r5]
 2707              		.loc 1 981 0
 2708 01c6 FF20     		movs	r0, #255
 2709 01c8 4246     		mov	r2, r8
 2710 01ca 2946     		mov	r1, r5
 2711 01cc 0223     		movs	r3, #2
 2712 01ce FFF7FEFF 		bl	comm_can_send_buffer
 2713              	.LVL279:
 2714              		.loc 1 982 0
 2715 01d2 43F69820 		movw	r0, #15000
 2716 01d6 FFF7FEFF 		bl	chThdSleep
 2717              	.LVL280:
 2718              	.L270:
 2719              	.LBB221:
 2720              		.loc 1 988 0
 2721 01da FFF7FEFF 		bl	nrf_driver_ext_nrf_running
 2722              	.LVL281:
 2723 01de 18B1     		cbz	r0, .L370
 2724              		.loc 1 989 0
 2725 01e0 41F27070 		movw	r0, #6000
 2726 01e4 FFF7FEFF 		bl	nrf_driver_pause
 2727              	.LVL282:
 2728              	.L370:
 2729              		.loc 1 991 0
 2730 01e8 FFF7FEFF 		bl	flash_helper_erase_bootloader
 2731              	.LVL283:
 2732              		.loc 1 996 0
 2733 01ec A0F10902 		sub	r2, r0, #9
 2734 01f0 B2FA82F2 		clz	r2, r2
 2735              		.loc 1 995 0
 2736 01f4 4923     		movs	r3, #73
ARM GAS  /tmp/ccXDsUE2.s 			page 49


 2737              		.loc 1 996 0
 2738 01f6 5209     		lsrs	r2, r2, #5
 2739              		.loc 1 997 0
 2740 01f8 0221     		movs	r1, #2
 2741 01fa 16A8     		add	r0, sp, #88
 2742              	.LVL284:
 2743              		.loc 1 996 0
 2744 01fc 8DF85920 		strb	r2, [sp, #89]
 2745              		.loc 1 995 0
 2746 0200 8DF85830 		strb	r3, [sp, #88]
 2747              	.LVL285:
 2748              		.loc 1 997 0
 2749 0204 B847     		blx	r7
 2750              	.LVL286:
 2751              	.LBE221:
 2752              		.loc 1 998 0
 2753 0206 D1E7     		b	.L217
 2754              	.LVL287:
 2755              	.L264:
 2756              		.loc 1 192 0
 2757 0208 0123     		movs	r3, #1
 2758 020a 2B70     		strb	r3, [r5]
 2759              		.loc 1 193 0
 2760 020c FF20     		movs	r0, #255
 2761 020e 4246     		mov	r2, r8
 2762 0210 2946     		mov	r1, r5
 2763 0212 0223     		movs	r3, #2
 2764 0214 FFF7FEFF 		bl	comm_can_send_buffer
 2765              	.LVL288:
 2766              		.loc 1 194 0
 2767 0218 4FF47A70 		mov	r0, #1000
 2768 021c FFF7FEFF 		bl	chThdSleep
 2769              	.LVL289:
 2770              	.L226:
 2771              		.loc 1 198 0
 2772 0220 FFF7FEFF 		bl	flash_helper_jump_to_bootloader
 2773              	.LVL290:
 2774              		.loc 1 199 0
 2775 0224 C2E7     		b	.L217
 2776              	.L265:
 2777              		.loc 1 202 0
 2778 0226 FFF7FEFF 		bl	nrf_driver_ext_nrf_running
 2779              	.LVL291:
 2780 022a 0028     		cmp	r0, #0
 2781 022c 40F09F87 		bne	.L619
 2782              	.L273:
 2783              		.loc 1 206 0
 2784 0230 0223     		movs	r3, #2
 2785              		.loc 1 207 0
 2786 0232 FF20     		movs	r0, #255
 2787 0234 4246     		mov	r2, r8
 2788              		.loc 1 206 0
 2789 0236 2B70     		strb	r3, [r5]
 2790              		.loc 1 207 0
 2791 0238 2946     		mov	r1, r5
 2792 023a FFF7FEFF 		bl	comm_can_send_buffer
 2793              	.LVL292:
ARM GAS  /tmp/ccXDsUE2.s 			page 50


 2794              		.loc 1 208 0
 2795 023e 43F69820 		movw	r0, #15000
 2796 0242 FFF7FEFF 		bl	chThdSleep
 2797              	.LVL293:
 2798              	.L227:
 2799              	.LBB222:
 2800              		.loc 1 212 0
 2801 0246 0023     		movs	r3, #0
 2802 0248 1293     		str	r3, [sp, #72]
 2803              		.loc 1 214 0
 2804 024a FFF7FEFF 		bl	nrf_driver_ext_nrf_running
 2805              	.LVL294:
 2806 024e 18B1     		cbz	r0, .L274
 2807              		.loc 1 215 0
 2808 0250 41F27070 		movw	r0, #6000
 2809 0254 FFF7FEFF 		bl	nrf_driver_pause
 2810              	.LVL295:
 2811              	.L274:
 2812              		.loc 1 217 0
 2813 0258 12A9     		add	r1, sp, #72
 2814 025a 2046     		mov	r0, r4
 2815 025c FFF7FEFF 		bl	buffer_get_uint32
 2816              	.LVL296:
 2817 0260 FFF7FEFF 		bl	flash_helper_erase_new_app
 2818              	.LVL297:
 2819              		.loc 1 222 0
 2820 0264 A0F10902 		sub	r2, r0, #9
 2821              		.loc 1 221 0
 2822 0268 0223     		movs	r3, #2
 2823              		.loc 1 222 0
 2824 026a B2FA82F2 		clz	r2, r2
 2825 026e 5209     		lsrs	r2, r2, #5
 2826              		.loc 1 223 0
 2827 0270 1946     		mov	r1, r3
 2828 0272 16A8     		add	r0, sp, #88
 2829              	.LVL298:
 2830              		.loc 1 222 0
 2831 0274 1293     		str	r3, [sp, #72]
 2832 0276 8DF85920 		strb	r2, [sp, #89]
 2833              		.loc 1 221 0
 2834 027a 8DF85830 		strb	r3, [sp, #88]
 2835              		.loc 1 223 0
 2836 027e B847     		blx	r7
 2837              	.LVL299:
 2838              	.LBE222:
 2839              		.loc 1 224 0
 2840 0280 94E7     		b	.L217
 2841              	.L236:
 2842              	.LBB223:
 2843              		.loc 1 412 0
 2844 0282 FFF7FEFF 		bl	mc_interface_get_configuration
 2845              	.LVL300:
 2846 0286 154B     		ldr	r3, .L662+20
 2847 0288 0146     		mov	r1, r0
 2848 028a 4FF4E472 		mov	r2, #456
 2849 028e 1846     		mov	r0, r3
 2850 0290 FFF7FEFF 		bl	memcpy
ARM GAS  /tmp/ccXDsUE2.s 			page 51


 2851              	.LVL301:
 2852              		.loc 1 415 0
 2853 0294 1249     		ldr	r1, .L662+24
 2854              		.loc 1 417 0
 2855 0296 8278     		ldrb	r2, [r0, #2]	@ zero_extendqisi2
 2856              		.loc 1 415 0
 2857 0298 6B78     		ldrb	r3, [r5, #1]	@ zero_extendqisi2
 2858 029a 0B70     		strb	r3, [r1]
 2859              		.loc 1 417 0
 2860 029c 32B9     		cbnz	r2, .L244
 2861              		.loc 1 418 0
 2862 029e 002B     		cmp	r3, #0
 2863 02a0 00F01086 		beq	.L620
 2864              		.loc 1 420 0
 2865 02a4 012B     		cmp	r3, #1
 2866 02a6 01D1     		bne	.L244
 2867              		.loc 1 421 0
 2868 02a8 FFF7FEFF 		bl	mcpwm_set_detect
 2869              	.LVL302:
 2870              	.L244:
 2871              	.LBE223:
 2872              		.loc 1 540 0
 2873 02ac FFF7FEFF 		bl	timeout_reset
 2874              	.LVL303:
 2875              		.loc 1 541 0
 2876 02b0 7CE7     		b	.L217
 2877              	.L250:
 2878              		.loc 1 613 0
 2879 02b2 0C4B     		ldr	r3, .L662+28
 2880 02b4 1A68     		ldr	r2, [r3]
 2881 02b6 002A     		cmp	r2, #0
 2882 02b8 3FF478AF 		beq	.L217
 2883              		.loc 1 614 0
 2884 02bc 1B68     		ldr	r3, [r3]
 2885 02be 5946     		mov	r1, fp
 2886 02c0 2046     		mov	r0, r4
 2887 02c2 9847     		blx	r3
 2888              	.LVL304:
 2889 02c4 72E7     		b	.L217
 2890              	.L663:
 2891 02c6 00BF     		.align	2
 2892              	.L662:
 2893 02c8 00000000 		.word	.LANCHOR0
 2894 02cc 00000000 		.word	commands_send_packet
 2895 02d0 00000000 		.word	.LANCHOR13
 2896 02d4 00000000 		.word	.LANCHOR11
 2897 02d8 00000000 		.word	.LANCHOR17
 2898 02dc 00000000 		.word	.LANCHOR18
 2899 02e0 00000000 		.word	.LANCHOR15
 2900 02e4 00000000 		.word	.LANCHOR16
 2901              	.L251:
 2902              	.LBB224:
 2903              		.loc 1 619 0
 2904 02e8 28A9     		add	r1, sp, #160
 2905 02ea 0025     		movs	r5, #0
 2906 02ec 41F8585D 		str	r5, [r1, #-88]!
 2907              		.loc 1 620 0
ARM GAS  /tmp/ccXDsUE2.s 			page 52


 2908 02f0 2046     		mov	r0, r4
 2909 02f2 FFF7FEFF 		bl	buffer_get_int32
 2910              	.LVL305:
 2911 02f6 FFF7FEFF 		bl	nrf_driver_start_pairing
 2912              	.LVL306:
 2913              		.loc 1 625 0
 2914 02fa 0223     		movs	r3, #2
 2915              		.loc 1 624 0
 2916 02fc 2522     		movs	r2, #37
 2917              		.loc 1 626 0
 2918 02fe 1946     		mov	r1, r3
 2919 0300 16A8     		add	r0, sp, #88
 2920              		.loc 1 625 0
 2921 0302 1293     		str	r3, [sp, #72]
 2922              		.loc 1 624 0
 2923 0304 8DF85820 		strb	r2, [sp, #88]
 2924              		.loc 1 625 0
 2925 0308 8DF85950 		strb	r5, [sp, #89]
 2926              		.loc 1 626 0
 2927 030c B847     		blx	r7
 2928              	.LVL307:
 2929              	.LBE224:
 2930              		.loc 1 627 0
 2931 030e 4DE7     		b	.L217
 2932              	.L252:
 2933              	.LBB225:
 2934              		.loc 1 630 0
 2935 0310 FFF7FEFF 		bl	timeout_reset
 2936              	.LVL308:
 2937              		.loc 1 631 0
 2938 0314 28A9     		add	r1, sp, #160
 2939 0316 0023     		movs	r3, #0
 2940 0318 41F8483D 		str	r3, [r1, #-72]!
 2941              		.loc 1 632 0
 2942 031c 2046     		mov	r0, r4
 2943 031e FFF7FEFF 		bl	buffer_get_int32
 2944              	.LVL309:
 2945 0322 07EE900A 		vmov	s15, r0	@ int
 2946 0326 B8EEE70A 		vcvt.f32.s32	s0, s15
 2947 032a FFF7FEFF 		bl	gpdrive_set_switching_frequency
 2948              	.LVL310:
 2949              	.LBE225:
 2950              		.loc 1 633 0
 2951 032e 3DE7     		b	.L217
 2952              	.L253:
 2953              	.LBB226:
 2954              		.loc 1 638 0
 2955 0330 0122     		movs	r2, #1
 2956 0332 2823     		movs	r3, #40
 2957 0334 1292     		str	r2, [sp, #72]
 2958 0336 8DF85830 		strb	r3, [sp, #88]
 2959              		.loc 1 639 0
 2960 033a FFF7FEFF 		bl	gpdrive_buffer_size_left
 2961              	.LVL311:
 2962 033e 12AA     		add	r2, sp, #72
 2963 0340 0146     		mov	r1, r0
 2964              	.L596:
ARM GAS  /tmp/ccXDsUE2.s 			page 53


 2965              	.LBE226:
 2966              	.LBB227:
 2967              		.loc 1 559 0
 2968 0342 16A8     		add	r0, sp, #88
 2969 0344 FFF7FEFF 		bl	buffer_append_int32
 2970              	.LVL312:
 2971              		.loc 1 560 0
 2972 0348 16A8     		add	r0, sp, #88
 2973 034a 1299     		ldr	r1, [sp, #72]
 2974 034c B847     		blx	r7
 2975              	.LVL313:
 2976              	.LBE227:
 2977              		.loc 1 561 0
 2978 034e 2DE7     		b	.L217
 2979              	.L254:
 2980              	.LBB228:
 2981              		.loc 1 644 0
 2982 0350 FFF7FEFF 		bl	timeout_reset
 2983              	.LVL314:
 2984              		.loc 1 645 0
 2985 0354 0023     		movs	r3, #0
 2986              		.loc 1 646 0
 2987 0356 9B45     		cmp	fp, r3
 2988              		.loc 1 645 0
 2989 0358 1693     		str	r3, [sp, #88]
 2990              		.loc 1 646 0
 2991 035a 7FF727AF 		ble	.L217
 2992 035e 0DF1580A 		add	r10, sp, #88
 2993              	.L314:
 2994              		.loc 1 647 0
 2995 0362 5146     		mov	r1, r10
 2996 0364 2046     		mov	r0, r4
 2997 0366 FFF7FEFF 		bl	buffer_get_float32_auto
 2998              	.LVL315:
 2999 036a FFF7FEFF 		bl	gpdrive_add_buffer_sample
 3000              	.LVL316:
 3001              		.loc 1 646 0
 3002 036e 169B     		ldr	r3, [sp, #88]
 3003 0370 5B45     		cmp	r3, fp
 3004 0372 F6DB     		blt	.L314
 3005 0374 1AE7     		b	.L217
 3006              	.L239:
 3007              	.LBE228:
 3008              		.loc 1 475 0
 3009 0376 FFF7FEFF 		bl	app_get_configuration
 3010              	.LVL317:
 3011 037a C14D     		ldr	r5, .L664
 3012 037c 0146     		mov	r1, r0
 3013 037e 4FF4BC72 		mov	r2, #376
 3014 0382 2846     		mov	r0, r5
 3015 0384 FFF7FEFF 		bl	memcpy
 3016              	.LVL318:
 3017              		.loc 1 477 0
 3018 0388 2946     		mov	r1, r5
 3019 038a 2046     		mov	r0, r4
 3020 038c FFF7FEFF 		bl	confgenerator_deserialize_appconf
 3021              	.LVL319:
ARM GAS  /tmp/ccXDsUE2.s 			page 54


 3022 0390 0028     		cmp	r0, #0
 3023 0392 00F0D686 		beq	.L306
 3024              	.LBB229:
 3025              		.loc 1 478 0
 3026 0396 2846     		mov	r0, r5
 3027 0398 FFF7FEFF 		bl	conf_general_store_app_configuration
 3028              	.LVL320:
 3029              		.loc 1 479 0
 3030 039c 2846     		mov	r0, r5
 3031 039e FFF7FEFF 		bl	app_set_configuration
 3032              	.LVL321:
 3033              		.loc 1 480 0
 3034 03a2 95ED020A 		vldr.32	s0, [r5, #8]
 3035 03a6 6868     		ldr	r0, [r5, #4]
 3036 03a8 FFF7FEFF 		bl	timeout_configure
 3037              	.LVL322:
 3038              		.loc 1 481 0
 3039 03ac 4FF4FA60 		mov	r0, #2000
 3040 03b0 FFF7FEFF 		bl	chThdSleep
 3041              	.LVL323:
 3042              		.loc 1 485 0
 3043 03b4 28A8     		add	r0, sp, #160
 3044 03b6 1023     		movs	r3, #16
 3045 03b8 00F8483D 		strb	r3, [r0, #-72]!
 3046              		.loc 1 486 0
 3047 03bc 0121     		movs	r1, #1
 3048 03be B847     		blx	r7
 3049              	.LVL324:
 3050              	.LBE229:
 3051 03c0 F4E6     		b	.L217
 3052              	.LVL325:
 3053              	.L240:
 3054              		.loc 1 494 0
 3055 03c2 B9F1110F 		cmp	r9, #17
 3056 03c6 00F0C186 		beq	.L621
 3057              		.loc 1 497 0
 3058 03ca AD48     		ldr	r0, .L664
 3059 03cc FFF7FEFF 		bl	confgenerator_set_defaults_appconf
 3060              	.LVL326:
 3061              	.L308:
 3062              		.loc 1 500 0
 3063 03d0 4846     		mov	r0, r9
 3064 03d2 AB49     		ldr	r1, .L664
 3065 03d4 FFF7FEFF 		bl	commands_send_appconf
 3066              	.LVL327:
 3067              		.loc 1 501 0
 3068 03d8 E8E6     		b	.L217
 3069              	.L241:
 3070              	.LBB230:
 3071              		.loc 1 509 0
 3072 03da 28A9     		add	r1, sp, #160
 3073 03dc 0123     		movs	r3, #1
 3074 03de 41F8483D 		str	r3, [r1, #-72]!
 3075              		.loc 1 510 0
 3076 03e2 2046     		mov	r0, r4
 3077              		.loc 1 509 0
 3078 03e4 6D78     		ldrb	r5, [r5, #1]	@ zero_extendqisi2
ARM GAS  /tmp/ccXDsUE2.s 			page 55


 3079              	.LVL328:
 3080              		.loc 1 510 0
 3081 03e6 FFF7FEFF 		bl	buffer_get_uint16
 3082              	.LVL329:
 3083              		.loc 1 511 0
 3084 03ea 169B     		ldr	r3, [sp, #88]
 3085              		.loc 1 512 0
 3086 03ec 0146     		mov	r1, r0
 3087 03ee E25C     		ldrb	r2, [r4, r3]	@ zero_extendqisi2
 3088 03f0 2846     		mov	r0, r5
 3089              	.LVL330:
 3090              		.loc 1 511 0
 3091 03f2 0133     		adds	r3, r3, #1
 3092 03f4 1693     		str	r3, [sp, #88]
 3093              	.LVL331:
 3094              		.loc 1 512 0
 3095 03f6 FFF7FEFF 		bl	mc_interface_sample_print_data
 3096              	.LVL332:
 3097              	.LBE230:
 3098              		.loc 1 513 0
 3099 03fa D7E6     		b	.L217
 3100              	.LVL333:
 3101              	.L242:
 3102              		.loc 1 1021 0
 3103 03fc A14C     		ldr	r4, .L664+4
 3104              	.LVL334:
 3105 03fe 2378     		ldrb	r3, [r4]	@ zero_extendqisi2
 3106 0400 002B     		cmp	r3, #0
 3107 0402 7FF4D3AE 		bne	.L217
 3108              		.loc 1 1022 0
 3109 0406 4246     		mov	r2, r8
 3110 0408 2946     		mov	r1, r5
 3111 040a 9F48     		ldr	r0, .L664+8
 3112              	.LVL335:
 3113 040c FFF7FEFF 		bl	memcpy
 3114              	.LVL336:
 3115              		.loc 1 1023 0
 3116 0410 9E4B     		ldr	r3, .L664+12
 3117              		.loc 1 1026 0
 3118 0412 9F49     		ldr	r1, .L664+16
 3119              		.loc 1 1023 0
 3120 0414 C3F800B0 		str	fp, [r3]
 3121              		.loc 1 1025 0
 3122 0418 9E4A     		ldr	r2, .L664+20
 3123              		.loc 1 1026 0
 3124 041a 0868     		ldr	r0, [r1]
 3125              		.loc 1 1024 0
 3126 041c 0123     		movs	r3, #1
 3127              		.loc 1 1026 0
 3128 041e 1946     		mov	r1, r3
 3129              		.loc 1 1024 0
 3130 0420 2370     		strb	r3, [r4]
 3131              		.loc 1 1025 0
 3132 0422 1760     		str	r7, [r2]
 3133              		.loc 1 1026 0
 3134 0424 FFF7FEFF 		bl	chEvtSignal
 3135              	.LVL337:
ARM GAS  /tmp/ccXDsUE2.s 			page 56


 3136 0428 C0E6     		b	.L217
 3137              	.LVL338:
 3138              	.L245:
 3139              	.LBB231:
 3140              		.loc 1 546 0
 3141 042a 0122     		movs	r2, #1
 3142 042c 1F23     		movs	r3, #31
 3143 042e 1292     		str	r2, [sp, #72]
 3144 0430 8DF85830 		strb	r3, [sp, #88]
 3145              		.loc 1 547 0
 3146 0434 FFF7FEFF 		bl	app_ppm_get_decoded_level
 3147              	.LVL339:
 3148 0438 9FED988A 		vldr.32	s16, .L664+28
 3149 043c 20EE080A 		vmul.f32	s0, s0, s16
 3150 0440 16A8     		add	r0, sp, #88
 3151 0442 FDEEC07A 		vcvt.s32.f32	s15, s0
 3152 0446 12AA     		add	r2, sp, #72
 3153 0448 17EE901A 		vmov	r1, s15	@ int
 3154 044c FFF7FEFF 		bl	buffer_append_int32
 3155              	.LVL340:
 3156              		.loc 1 548 0
 3157 0450 0020     		movs	r0, #0
 3158 0452 FFF7FEFF 		bl	servodec_get_last_pulse_len
 3159              	.LVL341:
 3160              	.L595:
 3161              	.LBE231:
 3162              	.LBB232:
 3163              		.loc 1 559 0
 3164 0456 20EE080A 		vmul.f32	s0, s0, s16
 3165 045a 12AA     		add	r2, sp, #72
 3166 045c FDEEC07A 		vcvt.s32.f32	s15, s0
 3167 0460 17EE901A 		vmov	r1, s15	@ int
 3168 0464 6DE7     		b	.L596
 3169              	.L246:
 3170              		.loc 1 555 0
 3171 0466 2023     		movs	r3, #32
 3172 0468 0122     		movs	r2, #1
 3173 046a 8DF85830 		strb	r3, [sp, #88]
 3174 046e 1292     		str	r2, [sp, #72]
 3175              		.loc 1 556 0
 3176 0470 FFF7FEFF 		bl	app_adc_get_decoded_level
 3177              	.LVL342:
 3178 0474 9FED898A 		vldr.32	s16, .L664+28
 3179 0478 20EE080A 		vmul.f32	s0, s0, s16
 3180 047c 12AA     		add	r2, sp, #72
 3181 047e FDEEC07A 		vcvt.s32.f32	s15, s0
 3182 0482 16A8     		add	r0, sp, #88
 3183 0484 17EE901A 		vmov	r1, s15	@ int
 3184 0488 FFF7FEFF 		bl	buffer_append_int32
 3185              	.LVL343:
 3186              		.loc 1 557 0
 3187 048c FFF7FEFF 		bl	app_adc_get_voltage
 3188              	.LVL344:
 3189 0490 20EE080A 		vmul.f32	s0, s0, s16
 3190 0494 12AA     		add	r2, sp, #72
 3191 0496 FDEEC07A 		vcvt.s32.f32	s15, s0
 3192 049a 16A8     		add	r0, sp, #88
ARM GAS  /tmp/ccXDsUE2.s 			page 57


 3193 049c 17EE901A 		vmov	r1, s15	@ int
 3194 04a0 FFF7FEFF 		bl	buffer_append_int32
 3195              	.LVL345:
 3196              		.loc 1 558 0
 3197 04a4 FFF7FEFF 		bl	app_adc_get_decoded_level2
 3198              	.LVL346:
 3199 04a8 20EE080A 		vmul.f32	s0, s0, s16
 3200 04ac 12AA     		add	r2, sp, #72
 3201 04ae FDEEC07A 		vcvt.s32.f32	s15, s0
 3202 04b2 16A8     		add	r0, sp, #88
 3203 04b4 17EE901A 		vmov	r1, s15	@ int
 3204 04b8 FFF7FEFF 		bl	buffer_append_int32
 3205              	.LVL347:
 3206              		.loc 1 559 0
 3207 04bc FFF7FEFF 		bl	app_adc_get_voltage2
 3208              	.LVL348:
 3209 04c0 C9E7     		b	.L595
 3210              	.L243:
 3211              	.LBE232:
 3212              		.loc 1 517 0
 3213 04c2 7548     		ldr	r0, .L664+24
 3214 04c4 FFF7FEFF 		bl	commands_printf
 3215              	.LVL349:
 3216              		.loc 1 518 0
 3217 04c8 FFF7FEFF 		bl	mc_interface_get_odo_value
 3218              	.LVL350:
 3219 04cc FFF7FEFF 		bl	save_odo_value
 3220              	.LVL351:
 3221              	.LBB233:
 3222              	.LBB234:
 3223              		.file 3 "ChibiOS_3.0.2/os/ext/CMSIS/include/core_cmFunc.h"
 3224              		.loc 3 342 0
 3225              		.syntax unified
 3226              	@ 342 "ChibiOS_3.0.2/os/ext/CMSIS/include/core_cmFunc.h" 1
 3227 04d0 72B6     		cpsid i
 3228              	@ 0 "" 2
 3229              		.thumb
 3230              		.syntax unified
 3231              	.L309:
 3232 04d2 FEE7     		b	.L309
 3233              	.L248:
 3234              	.LBE234:
 3235              	.LBE233:
 3236              		.loc 1 587 0
 3237 04d4 A8F10202 		sub	r2, r8, #2
 3238 04d8 0023     		movs	r3, #0
 3239 04da A91C     		adds	r1, r5, #2
 3240 04dc 6878     		ldrb	r0, [r5, #1]	@ zero_extendqisi2
 3241 04de FFF7FEFF 		bl	comm_can_send_buffer
 3242              	.LVL352:
 3243              		.loc 1 588 0
 3244 04e2 63E6     		b	.L217
 3245              	.L249:
 3246              	.LBB235:
 3247              		.loc 1 596 0
 3248 04e4 EA78     		ldrb	r2, [r5, #3]	@ zero_extendqisi2
 3249              		.loc 1 597 0
ARM GAS  /tmp/ccXDsUE2.s 			page 58


 3250 04e6 2B79     		ldrb	r3, [r5, #4]	@ zero_extendqisi2
 3251              		.loc 1 594 0
 3252 04e8 6978     		ldrb	r1, [r5, #1]	@ zero_extendqisi2
 3253 04ea 1691     		str	r1, [sp, #88]
 3254              		.loc 1 596 0
 3255 04ec 0032     		adds	r2, r2, #0
 3256 04ee 18BF     		it	ne
 3257 04f0 0122     		movne	r2, #1
 3258              		.loc 1 597 0
 3259 04f2 0033     		adds	r3, r3, #0
 3260 04f4 18BF     		it	ne
 3261 04f6 0123     		movne	r3, #1
 3262              		.loc 1 595 0
 3263 04f8 AD78     		ldrb	r5, [r5, #2]	@ zero_extendqisi2
 3264              		.loc 1 596 0
 3265 04fa 8DF86C20 		strb	r2, [sp, #108]
 3266              		.loc 1 598 0
 3267 04fe 12A9     		add	r1, sp, #72
 3268              		.loc 1 597 0
 3269 0500 0422     		movs	r2, #4
 3270              		.loc 1 598 0
 3271 0502 2046     		mov	r0, r4
 3272              		.loc 1 597 0
 3273 0504 8DF86D30 		strb	r3, [sp, #109]
 3274 0508 1292     		str	r2, [sp, #72]
 3275              		.loc 1 595 0
 3276 050a 1795     		str	r5, [sp, #92]
 3277              		.loc 1 598 0
 3278 050c FFF7FEFF 		bl	buffer_get_int16
 3279              	.LVL353:
 3280              		.loc 1 599 0
 3281 0510 12A9     		add	r1, sp, #72
 3282              		.loc 1 598 0
 3283 0512 1890     		str	r0, [sp, #96]
 3284              		.loc 1 599 0
 3285 0514 2046     		mov	r0, r4
 3286 0516 FFF7FEFF 		bl	buffer_get_int16
 3287              	.LVL354:
 3288              		.loc 1 600 0
 3289 051a 12A9     		add	r1, sp, #72
 3290              		.loc 1 599 0
 3291 051c 1990     		str	r0, [sp, #100]
 3292              		.loc 1 600 0
 3293 051e 2046     		mov	r0, r4
 3294 0520 FFF7FEFF 		bl	buffer_get_int16
 3295              	.LVL355:
 3296              		.loc 1 602 0
 3297 0524 129B     		ldr	r3, [sp, #72]
 3298              		.loc 1 600 0
 3299 0526 1A90     		str	r0, [sp, #104]
 3300              		.loc 1 602 0
 3301 0528 991C     		adds	r1, r3, #2
 3302 052a 5945     		cmp	r1, fp
 3303 052c 00F21886 		bhi	.L310
 3304              		.loc 1 604 0
 3305 0530 E218     		adds	r2, r4, r3
 3306              		.loc 1 603 0
ARM GAS  /tmp/ccXDsUE2.s 			page 59


 3307 0532 E35C     		ldrb	r3, [r4, r3]	@ zero_extendqisi2
 3308              		.loc 1 604 0
 3309 0534 5278     		ldrb	r2, [r2, #1]	@ zero_extendqisi2
 3310 0536 1291     		str	r1, [sp, #72]
 3311 0538 0032     		adds	r2, r2, #0
 3312 053a 18BF     		it	ne
 3313 053c 0122     		movne	r2, #1
 3314              		.loc 1 603 0
 3315 053e 0033     		adds	r3, r3, #0
 3316 0540 18BF     		it	ne
 3317 0542 0123     		movne	r3, #1
 3318              		.loc 1 604 0
 3319 0544 8DF86F20 		strb	r2, [sp, #111]
 3320              		.loc 1 603 0
 3321 0548 8DF86E30 		strb	r3, [sp, #110]
 3322              	.L311:
 3323              		.loc 1 609 0
 3324 054c 16A8     		add	r0, sp, #88
 3325 054e FFF7FEFF 		bl	app_nunchuk_update_output
 3326              	.LVL356:
 3327              	.LBE235:
 3328              		.loc 1 610 0
 3329 0552 2BE6     		b	.L217
 3330              	.L247:
 3331              	.LBB236:
 3332              		.loc 1 566 0
 3333 0554 2123     		movs	r3, #33
 3334 0556 0122     		movs	r2, #1
 3335 0558 1292     		str	r2, [sp, #72]
 3336 055a 8DF85830 		strb	r3, [sp, #88]
 3337              		.loc 1 567 0
 3338 055e FFF7FEFF 		bl	app_nunchuk_get_decoded_chuk
 3339              	.LVL357:
 3340 0562 DFED4E7A 		vldr.32	s15, .L664+28
 3341 0566 60EE277A 		vmul.f32	s15, s0, s15
 3342 056a 16A8     		add	r0, sp, #88
 3343 056c FDEEE77A 		vcvt.s32.f32	s15, s15
 3344 0570 12AA     		add	r2, sp, #72
 3345 0572 17EE901A 		vmov	r1, s15	@ int
 3346 0576 FFF7FEFF 		bl	buffer_append_int32
 3347              	.LVL358:
 3348              		.loc 1 568 0
 3349 057a 16A8     		add	r0, sp, #88
 3350 057c 1299     		ldr	r1, [sp, #72]
 3351 057e B847     		blx	r7
 3352              	.LVL359:
 3353              	.LBE236:
 3354              		.loc 1 569 0
 3355 0580 14E6     		b	.L217
 3356              	.L269:
 3357              	.LBB237:
 3358              		.loc 1 907 0
 3359 0582 28A9     		add	r1, sp, #160
 3360 0584 0023     		movs	r3, #0
 3361 0586 41F88C3D 		str	r3, [r1, #-140]!
 3362              		.loc 1 905 0
 3363 058a 0122     		movs	r2, #1
ARM GAS  /tmp/ccXDsUE2.s 			page 60


 3364 058c 4123     		movs	r3, #65
 3365              		.loc 1 908 0
 3366 058e 2046     		mov	r0, r4
 3367              		.loc 1 905 0
 3368 0590 0492     		str	r2, [sp, #16]
 3369 0592 8DF85830 		strb	r3, [sp, #88]
 3370              		.loc 1 908 0
 3371 0596 FFF7FEFF 		bl	buffer_get_uint16
 3372              	.LVL360:
 3373 059a 0446     		mov	r4, r0
 3374              	.LVL361:
 3375              		.loc 1 911 0
 3376 059c 06A8     		add	r0, sp, #24
 3377 059e FFF7FEFF 		bl	imu_get_rpy
 3378              	.LVL362:
 3379              		.loc 1 912 0
 3380 05a2 09A8     		add	r0, sp, #36
 3381 05a4 FFF7FEFF 		bl	imu_get_accel
 3382              	.LVL363:
 3383              		.loc 1 913 0
 3384 05a8 0CA8     		add	r0, sp, #48
 3385 05aa FFF7FEFF 		bl	imu_get_gyro
 3386              	.LVL364:
 3387              		.loc 1 914 0
 3388 05ae 0FA8     		add	r0, sp, #60
 3389 05b0 FFF7FEFF 		bl	imu_get_mag
 3390              	.LVL365:
 3391              		.loc 1 917 0
 3392 05b4 0DF1580A 		add	r10, sp, #88
 3393              		.loc 1 915 0
 3394 05b8 12A8     		add	r0, sp, #72
 3395 05ba FFF7FEFF 		bl	imu_get_quaternions
 3396              	.LVL366:
 3397              		.loc 1 917 0
 3398 05be 5046     		mov	r0, r10
 3399 05c0 2146     		mov	r1, r4
 3400 05c2 04AA     		add	r2, sp, #16
 3401 05c4 FFF7FEFF 		bl	buffer_append_uint16
 3402              	.LVL367:
 3403              		.loc 1 919 0
 3404 05c8 E007     		lsls	r0, r4, #31
 3405 05ca 00F15384 		bmi	.L622
 3406              	.L353:
 3407              		.loc 1 922 0
 3408 05ce A107     		lsls	r1, r4, #30
 3409 05d0 00F14884 		bmi	.L623
 3410              	.L354:
 3411              		.loc 1 925 0
 3412 05d4 6207     		lsls	r2, r4, #29
 3413 05d6 00F10886 		bmi	.L624
 3414              	.L355:
 3415              		.loc 1 929 0
 3416 05da 2307     		lsls	r3, r4, #28
 3417 05dc 00F1FD85 		bmi	.L625
 3418              	.L356:
 3419              		.loc 1 932 0
 3420 05e0 E606     		lsls	r6, r4, #27
ARM GAS  /tmp/ccXDsUE2.s 			page 61


 3421 05e2 00F1F285 		bmi	.L626
 3422              	.L357:
 3423              		.loc 1 935 0
 3424 05e6 A506     		lsls	r5, r4, #26
 3425              	.LVL368:
 3426 05e8 00F1E785 		bmi	.L627
 3427              	.L358:
 3428              		.loc 1 939 0
 3429 05ec 6006     		lsls	r0, r4, #25
 3430 05ee 00F1DC85 		bmi	.L628
 3431              	.L359:
 3432              		.loc 1 942 0
 3433 05f2 2106     		lsls	r1, r4, #24
 3434 05f4 00F1D185 		bmi	.L629
 3435              	.L360:
 3436              		.loc 1 945 0
 3437 05f8 E205     		lsls	r2, r4, #23
 3438 05fa 00F1C685 		bmi	.L630
 3439              	.L361:
 3440              		.loc 1 949 0
 3441 05fe A305     		lsls	r3, r4, #22
 3442 0600 00F1BB85 		bmi	.L631
 3443              	.L362:
 3444              		.loc 1 952 0
 3445 0604 6605     		lsls	r6, r4, #21
 3446 0606 00F11584 		bmi	.L632
 3447              	.L363:
 3448              		.loc 1 955 0
 3449 060a 2505     		lsls	r5, r4, #20
 3450 060c 00F10A84 		bmi	.L633
 3451              	.L364:
 3452              		.loc 1 959 0
 3453 0610 E004     		lsls	r0, r4, #19
 3454 0612 00F1EE83 		bmi	.L634
 3455              	.L365:
 3456              		.loc 1 962 0
 3457 0616 A104     		lsls	r1, r4, #18
 3458 0618 00F1E483 		bmi	.L635
 3459              	.L366:
 3460              		.loc 1 965 0
 3461 061c 6204     		lsls	r2, r4, #17
 3462 061e 00F11984 		bmi	.L636
 3463              	.L367:
 3464              		.loc 1 968 0
 3465 0622 2304     		lsls	r3, r4, #16
 3466 0624 00F10E84 		bmi	.L637
 3467              	.L368:
 3468              		.loc 1 972 0
 3469 0628 5046     		mov	r0, r10
 3470 062a 0499     		ldr	r1, [sp, #16]
 3471 062c B847     		blx	r7
 3472              	.LVL369:
 3473              	.LBE237:
 3474              		.loc 1 973 0
 3475 062e BDE5     		b	.L217
 3476              	.LVL370:
 3477              	.L231:
ARM GAS  /tmp/ccXDsUE2.s 			page 62


 3478              	.LBB238:
 3479              		.loc 1 382 0
 3480 0630 28A9     		add	r1, sp, #160
 3481 0632 0023     		movs	r3, #0
 3482 0634 41F8483D 		str	r3, [r1, #-72]!
 3483              		.loc 1 383 0
 3484 0638 2046     		mov	r0, r4
 3485 063a FFF7FEFF 		bl	buffer_get_int32
 3486              	.LVL371:
 3487 063e 07EE100A 		vmov	s14, r0	@ int
 3488 0642 DFED177A 		vldr.32	s15, .L664+32
 3489 0646 B8EEC70A 		vcvt.f32.s32	s0, s14
 3490 064a 80EE270A 		vdiv.f32	s0, s0, s15
 3491 064e FFF7FEFF 		bl	mc_interface_set_current
 3492              	.LVL372:
 3493              		.loc 1 384 0
 3494 0652 FFF7FEFF 		bl	timeout_reset
 3495              	.LVL373:
 3496              	.LBE238:
 3497              		.loc 1 385 0
 3498 0656 A9E5     		b	.L217
 3499              	.L232:
 3500              	.LBB239:
 3501              		.loc 1 388 0
 3502 0658 28A9     		add	r1, sp, #160
 3503 065a 0023     		movs	r3, #0
 3504 065c 41F8483D 		str	r3, [r1, #-72]!
 3505              		.loc 1 389 0
 3506 0660 2046     		mov	r0, r4
 3507 0662 FFF7FEFF 		bl	buffer_get_int32
 3508              	.LVL374:
 3509 0666 07EE100A 		vmov	s14, r0	@ int
 3510 066a DFED0D7A 		vldr.32	s15, .L664+32
 3511 066e B8EEC70A 		vcvt.f32.s32	s0, s14
 3512 0672 80EE270A 		vdiv.f32	s0, s0, s15
 3513 0676 FFF7FEFF 		bl	mc_interface_set_brake_current
 3514              	.LVL375:
 3515              		.loc 1 390 0
 3516 067a FFF7FEFF 		bl	timeout_reset
 3517              	.LVL376:
 3518              	.LBE239:
 3519              		.loc 1 391 0
 3520 067e 95E5     		b	.L217
 3521              	.L665:
 3522              		.align	2
 3523              	.L664:
 3524 0680 00000000 		.word	.LANCHOR19
 3525 0684 00000000 		.word	.LANCHOR9
 3526 0688 00000000 		.word	.LANCHOR3
 3527 068c 00000000 		.word	.LANCHOR2
 3528 0690 00000000 		.word	.LANCHOR1
 3529 0694 00000000 		.word	.LANCHOR5
 3530 0698 78000000 		.word	.LC4
 3531 069c 00247449 		.word	1232348160
 3532 06a0 00007A44 		.word	1148846080
 3533              	.L233:
 3534              	.LBB240:
ARM GAS  /tmp/ccXDsUE2.s 			page 63


 3535              		.loc 1 394 0
 3536 06a4 28A9     		add	r1, sp, #160
 3537 06a6 0023     		movs	r3, #0
 3538 06a8 41F8483D 		str	r3, [r1, #-72]!
 3539              		.loc 1 395 0
 3540 06ac 2046     		mov	r0, r4
 3541 06ae FFF7FEFF 		bl	buffer_get_int32
 3542              	.LVL377:
 3543 06b2 07EE900A 		vmov	s15, r0	@ int
 3544 06b6 B8EEE70A 		vcvt.f32.s32	s0, s15
 3545 06ba FFF7FEFF 		bl	mc_interface_set_pid_speed
 3546              	.LVL378:
 3547              		.loc 1 396 0
 3548 06be FFF7FEFF 		bl	timeout_reset
 3549              	.LVL379:
 3550              	.LBE240:
 3551              		.loc 1 397 0
 3552 06c2 73E5     		b	.L217
 3553              	.L234:
 3554              	.LBB241:
 3555              		.loc 1 400 0
 3556 06c4 28A9     		add	r1, sp, #160
 3557 06c6 0023     		movs	r3, #0
 3558 06c8 41F8483D 		str	r3, [r1, #-72]!
 3559              		.loc 1 401 0
 3560 06cc 2046     		mov	r0, r4
 3561 06ce FFF7FEFF 		bl	buffer_get_int32
 3562              	.LVL380:
 3563 06d2 07EE100A 		vmov	s14, r0	@ int
 3564 06d6 5FED0F7A 		vldr.32	s15, .L664+28
 3565 06da B8EEC70A 		vcvt.f32.s32	s0, s14
 3566 06de 80EE270A 		vdiv.f32	s0, s0, s15
 3567 06e2 FFF7FEFF 		bl	mc_interface_set_pid_pos
 3568              	.LVL381:
 3569              		.loc 1 402 0
 3570 06e6 FFF7FEFF 		bl	timeout_reset
 3571              	.LVL382:
 3572              	.LBE241:
 3573              		.loc 1 403 0
 3574 06ea 5FE5     		b	.L217
 3575              	.L235:
 3576              	.LBB242:
 3577              		.loc 1 406 0
 3578 06ec 28A9     		add	r1, sp, #160
 3579 06ee 0023     		movs	r3, #0
 3580 06f0 41F8483D 		str	r3, [r1, #-72]!
 3581              		.loc 1 407 0
 3582 06f4 2046     		mov	r0, r4
 3583 06f6 1FED160A 		vldr.32	s0, .L664+32
 3584 06fa FFF7FEFF 		bl	buffer_get_float32
 3585              	.LVL383:
 3586 06fe FFF7FEFF 		bl	mc_interface_set_handbrake
 3587              	.LVL384:
 3588              		.loc 1 408 0
 3589 0702 FFF7FEFF 		bl	timeout_reset
 3590              	.LVL385:
 3591              	.LBE242:
ARM GAS  /tmp/ccXDsUE2.s 			page 64


 3592              		.loc 1 409 0
 3593 0706 51E5     		b	.L217
 3594              	.L237:
 3595              		.loc 1 436 0
 3596 0708 FFF7FEFF 		bl	mc_interface_get_configuration
 3597              	.LVL386:
 3598 070c CF4D     		ldr	r5, .L666
 3599 070e 0146     		mov	r1, r0
 3600 0710 4FF4E472 		mov	r2, #456
 3601 0714 2846     		mov	r0, r5
 3602 0716 FFF7FEFF 		bl	memcpy
 3603              	.LVL387:
 3604              		.loc 1 438 0
 3605 071a 2946     		mov	r1, r5
 3606 071c 2046     		mov	r0, r4
 3607 071e FFF7FEFF 		bl	confgenerator_deserialize_mcconf
 3608              	.LVL388:
 3609 0722 0028     		cmp	r0, #0
 3610 0724 00F0D484 		beq	.L303
 3611              	.LBB243:
 3612              		.loc 1 439 0
 3613 0728 F7EE000A 		vmov.f32	s1, #1.0e+0
 3614 072c 9FEDC80A 		vldr.32	s0, .L666+4
 3615 0730 05F16400 		add	r0, r5, #100
 3616 0734 FFF7FEFF 		bl	utils_truncate_number
 3617              	.LVL389:
 3618              		.loc 1 440 0
 3619 0738 F7EE000A 		vmov.f32	s1, #1.0e+0
 3620 073c 9FEDC40A 		vldr.32	s0, .L666+4
 3621 0740 05F16800 		add	r0, r5, #104
 3622 0744 FFF7FEFF 		bl	utils_truncate_number
 3623              	.LVL390:
 3624              		.loc 1 442 0
 3625 0748 95ED196A 		vldr.32	s12, [r5, #100]
 3626              		.loc 1 443 0
 3627 074c D5ED1A6A 		vldr.32	s13, [r5, #104]
 3628              		.loc 1 442 0
 3629 0750 95ED017A 		vldr.32	s14, [r5, #4]
 3630              		.loc 1 443 0
 3631 0754 D5ED027A 		vldr.32	s15, [r5, #8]
 3632              		.loc 1 445 0
 3633 0758 2B69     		ldr	r3, [r5, #16]	@ float
 3634              		.loc 1 444 0
 3635 075a EA68     		ldr	r2, [r5, #12]	@ float
 3636              		.loc 1 445 0
 3637 075c AB67     		str	r3, [r5, #120]	@ float
 3638              		.loc 1 442 0
 3639 075e 27EE067A 		vmul.f32	s14, s14, s12
 3640              		.loc 1 443 0
 3641 0762 67EEA67A 		vmul.f32	s15, s15, s13
 3642              		.loc 1 449 0
 3643 0766 2846     		mov	r0, r5
 3644              		.loc 1 444 0
 3645 0768 6A67     		str	r2, [r5, #116]	@ float
 3646              		.loc 1 442 0
 3647 076a 85ED1B7A 		vstr.32	s14, [r5, #108]
 3648              		.loc 1 446 0
ARM GAS  /tmp/ccXDsUE2.s 			page 65


 3649 076e 85ED1F7A 		vstr.32	s14, [r5, #124]
 3650              		.loc 1 443 0
 3651 0772 C5ED1C7A 		vstr.32	s15, [r5, #112]
 3652              		.loc 1 447 0
 3653 0776 C5ED207A 		vstr.32	s15, [r5, #128]
 3654              		.loc 1 449 0
 3655 077a FFF7FEFF 		bl	commands_apply_mcconf_hw_limits
 3656              	.LVL391:
 3657              		.loc 1 450 0
 3658 077e 2846     		mov	r0, r5
 3659 0780 FFF7FEFF 		bl	conf_general_store_mc_configuration
 3660              	.LVL392:
 3661              		.loc 1 451 0
 3662 0784 2846     		mov	r0, r5
 3663 0786 FFF7FEFF 		bl	mc_interface_set_configuration
 3664              	.LVL393:
 3665              		.loc 1 452 0
 3666 078a 4FF4FA60 		mov	r0, #2000
 3667 078e FFF7FEFF 		bl	chThdSleep
 3668              	.LVL394:
 3669              		.loc 1 456 0
 3670 0792 28A8     		add	r0, sp, #160
 3671 0794 0D23     		movs	r3, #13
 3672 0796 00F8483D 		strb	r3, [r0, #-72]!
 3673              		.loc 1 457 0
 3674 079a 0121     		movs	r1, #1
 3675 079c B847     		blx	r7
 3676              	.LVL395:
 3677              	.LBE243:
 3678 079e 05E5     		b	.L217
 3679              	.LVL396:
 3680              	.L238:
 3681              		.loc 1 465 0
 3682 07a0 B9F10E0F 		cmp	r9, #14
 3683 07a4 00F09984 		beq	.L638
 3684              		.loc 1 468 0
 3685 07a8 A848     		ldr	r0, .L666
 3686 07aa FFF7FEFF 		bl	confgenerator_set_defaults_mcconf
 3687              	.LVL397:
 3688              	.L305:
 3689              		.loc 1 471 0
 3690 07ae 4846     		mov	r0, r9
 3691 07b0 A649     		ldr	r1, .L666
 3692 07b2 FFF7FEFF 		bl	commands_send_mcconf
 3693              	.LVL398:
 3694              		.loc 1 472 0
 3695 07b6 F9E4     		b	.L217
 3696              	.L445:
 3697 07b8 0DF1580A 		add	r10, sp, #88
 3698 07bc 12AE     		add	r6, sp, #72
 3699              	.L228:
 3700              	.LBB244:
 3701              		.loc 1 249 0
 3702 07be B9F1510F 		cmp	r9, #81
 3703 07c2 00F05F83 		beq	.L639
 3704              	.L277:
 3705              		.loc 1 259 0
ARM GAS  /tmp/ccXDsUE2.s 			page 66


 3706 07c6 0023     		movs	r3, #0
 3707              		.loc 1 260 0
 3708 07c8 3146     		mov	r1, r6
 3709 07ca 2046     		mov	r0, r4
 3710              		.loc 1 259 0
 3711 07cc 1293     		str	r3, [sp, #72]
 3712              		.loc 1 260 0
 3713 07ce FFF7FEFF 		bl	buffer_get_uint32
 3714              	.LVL399:
 3715 07d2 0546     		mov	r5, r0
 3716              	.LVL400:
 3717              		.loc 1 262 0
 3718 07d4 FFF7FEFF 		bl	nrf_driver_ext_nrf_running
 3719              	.LVL401:
 3720 07d8 18B1     		cbz	r0, .L278
 3721              		.loc 1 263 0
 3722 07da 4FF4FA60 		mov	r0, #2000
 3723 07de FFF7FEFF 		bl	nrf_driver_pause
 3724              	.LVL402:
 3725              	.L278:
 3726              		.loc 1 265 0
 3727 07e2 1299     		ldr	r1, [sp, #72]
 3728 07e4 2846     		mov	r0, r5
 3729 07e6 ABEB0102 		sub	r2, fp, r1
 3730 07ea 2144     		add	r1, r1, r4
 3731 07ec FFF7FEFF 		bl	flash_helper_write_new_app_data
 3732              	.LVL403:
 3733              		.loc 1 270 0
 3734 07f0 A0F10904 		sub	r4, r0, #9
 3735              	.LVL404:
 3736 07f4 0223     		movs	r3, #2
 3737              		.loc 1 269 0
 3738 07f6 0322     		movs	r2, #3
 3739              		.loc 1 270 0
 3740 07f8 B4FA84F4 		clz	r4, r4
 3741 07fc 6409     		lsrs	r4, r4, #5
 3742              		.loc 1 271 0
 3743 07fe 1946     		mov	r1, r3
 3744 0800 5046     		mov	r0, r10
 3745              	.LVL405:
 3746              		.loc 1 270 0
 3747 0802 1293     		str	r3, [sp, #72]
 3748              		.loc 1 269 0
 3749 0804 8DF85820 		strb	r2, [sp, #88]
 3750              		.loc 1 270 0
 3751 0808 8DF85940 		strb	r4, [sp, #89]
 3752              		.loc 1 271 0
 3753 080c B847     		blx	r7
 3754              	.LVL406:
 3755              	.LBE244:
 3756              		.loc 1 272 0
 3757 080e CDE4     		b	.L217
 3758              	.LVL407:
 3759              	.L268:
 3760              		.loc 1 896 0
 3761 0810 0023     		movs	r3, #0
 3762 0812 05F80830 		strb	r3, [r5, r8]
ARM GAS  /tmp/ccXDsUE2.s 			page 67


 3763              		.loc 1 897 0
 3764 0816 8F48     		ldr	r0, .L666+8
 3765 0818 FFF7FEFF 		bl	chMtxLock
 3766              	.LVL408:
 3767              		.loc 1 898 0
 3768 081c 2046     		mov	r0, r4
 3769 081e FFF7FEFF 		bl	terminal_process_string
 3770              	.LVL409:
 3771              		.loc 1 899 0
 3772 0822 8C48     		ldr	r0, .L666+8
 3773 0824 FFF7FEFF 		bl	chMtxUnlock
 3774              	.LVL410:
 3775              		.loc 1 900 0
 3776 0828 C0E4     		b	.L217
 3777              	.L272:
 3778              	.LBB246:
 3779              		.loc 1 574 0
 3780 082a 4F23     		movs	r3, #79
 3781 082c 0122     		movs	r2, #1
 3782 082e 8DF85830 		strb	r3, [sp, #88]
 3783 0832 1292     		str	r2, [sp, #72]
 3784              		.loc 1 575 0
 3785 0834 FFF7FEFF 		bl	app_balance_get_pid_output
 3786              	.LVL411:
 3787 0838 9FED878A 		vldr.32	s16, .L666+12
 3788 083c 20EE080A 		vmul.f32	s0, s0, s16
 3789 0840 12AA     		add	r2, sp, #72
 3790 0842 FDEEC07A 		vcvt.s32.f32	s15, s0
 3791 0846 16A8     		add	r0, sp, #88
 3792 0848 17EE901A 		vmov	r1, s15	@ int
 3793 084c FFF7FEFF 		bl	buffer_append_int32
 3794              	.LVL412:
 3795              		.loc 1 576 0
 3796 0850 FFF7FEFF 		bl	app_balance_get_pitch_angle
 3797              	.LVL413:
 3798 0854 20EE080A 		vmul.f32	s0, s0, s16
 3799 0858 12AA     		add	r2, sp, #72
 3800 085a FDEEC07A 		vcvt.s32.f32	s15, s0
 3801 085e 16A8     		add	r0, sp, #88
 3802 0860 17EE901A 		vmov	r1, s15	@ int
 3803 0864 FFF7FEFF 		bl	buffer_append_int32
 3804              	.LVL414:
 3805              		.loc 1 577 0
 3806 0868 FFF7FEFF 		bl	app_balance_get_roll_angle
 3807              	.LVL415:
 3808 086c 20EE080A 		vmul.f32	s0, s0, s16
 3809 0870 12AA     		add	r2, sp, #72
 3810 0872 FDEEC07A 		vcvt.s32.f32	s15, s0
 3811 0876 16A8     		add	r0, sp, #88
 3812 0878 17EE901A 		vmov	r1, s15	@ int
 3813 087c FFF7FEFF 		bl	buffer_append_int32
 3814              	.LVL416:
 3815              		.loc 1 578 0
 3816 0880 FFF7FEFF 		bl	app_balance_get_diff_time
 3817              	.LVL417:
 3818 0884 12AA     		add	r2, sp, #72
 3819 0886 0146     		mov	r1, r0
ARM GAS  /tmp/ccXDsUE2.s 			page 68


 3820 0888 16A8     		add	r0, sp, #88
 3821 088a FFF7FEFF 		bl	buffer_append_uint32
 3822              	.LVL418:
 3823              		.loc 1 579 0
 3824 088e FFF7FEFF 		bl	app_balance_get_motor_current
 3825              	.LVL419:
 3826 0892 20EE080A 		vmul.f32	s0, s0, s16
 3827 0896 12AA     		add	r2, sp, #72
 3828 0898 FDEEC07A 		vcvt.s32.f32	s15, s0
 3829 089c 16A8     		add	r0, sp, #88
 3830 089e 17EE901A 		vmov	r1, s15	@ int
 3831 08a2 FFF7FEFF 		bl	buffer_append_int32
 3832              	.LVL420:
 3833              		.loc 1 580 0
 3834 08a6 FFF7FEFF 		bl	app_balance_get_motor_position
 3835              	.LVL421:
 3836 08aa 20EE080A 		vmul.f32	s0, s0, s16
 3837 08ae 12AA     		add	r2, sp, #72
 3838 08b0 FDEEC07A 		vcvt.s32.f32	s15, s0
 3839 08b4 16A8     		add	r0, sp, #88
 3840 08b6 17EE901A 		vmov	r1, s15	@ int
 3841 08ba FFF7FEFF 		bl	buffer_append_int32
 3842              	.LVL422:
 3843              		.loc 1 581 0
 3844 08be FFF7FEFF 		bl	app_balance_get_state
 3845              	.LVL423:
 3846 08c2 12AA     		add	r2, sp, #72
 3847 08c4 0146     		mov	r1, r0
 3848 08c6 16A8     		add	r0, sp, #88
 3849 08c8 FFF7FEFF 		bl	buffer_append_uint16
 3850              	.LVL424:
 3851              		.loc 1 582 0
 3852 08cc FFF7FEFF 		bl	app_balance_get_switch_value
 3853              	.LVL425:
 3854 08d0 12AA     		add	r2, sp, #72
 3855 08d2 0146     		mov	r1, r0
 3856 08d4 16A8     		add	r0, sp, #88
 3857 08d6 FFF7FEFF 		bl	buffer_append_uint16
 3858              	.LVL426:
 3859              		.loc 1 583 0
 3860 08da 16A8     		add	r0, sp, #88
 3861 08dc 1299     		ldr	r1, [sp, #72]
 3862 08de B847     		blx	r7
 3863              	.LVL427:
 3864              	.LBE246:
 3865              		.loc 1 584 0
 3866 08e0 64E4     		b	.L217
 3867              	.L262:
 3868              		.loc 1 864 0
 3869 08e2 5E4B     		ldr	r3, .L666+16
 3870 08e4 1B78     		ldrb	r3, [r3]	@ zero_extendqisi2
 3871 08e6 002B     		cmp	r3, #0
 3872 08e8 7FF460AC 		bne	.L217
 3873              		.loc 1 865 0
 3874 08ec FFF7FEFF 		bl	nrf_driver_init_ext_nrf
 3875              	.LVL428:
 3876              		.loc 1 866 0
ARM GAS  /tmp/ccXDsUE2.s 			page 69


 3877 08f0 FFF7FEFF 		bl	nrf_driver_is_pairing
 3878              	.LVL429:
 3879 08f4 0028     		cmp	r0, #0
 3880 08f6 7FF459AC 		bne	.L217
 3881              	.LBB247:
 3882              		.loc 1 867 0
 3883 08fa FFF7FEFF 		bl	app_get_configuration
 3884              	.LVL430:
 3885              		.loc 1 869 0
 3886 08fe 3523     		movs	r3, #53
 3887 0900 8DF85830 		strb	r3, [sp, #88]
 3888              		.loc 1 870 0
 3889 0904 90F8DD30 		ldrb	r3, [r0, #221]	@ zero_extendqisi2
 3890 0908 8DF85930 		strb	r3, [sp, #89]
 3891              		.loc 1 871 0
 3892 090c 90F8DE30 		ldrb	r3, [r0, #222]	@ zero_extendqisi2
 3893 0910 8DF85A30 		strb	r3, [sp, #90]
 3894              	.LBB248:
 3895              	.LBB249:
 3896              		.loc 1 111 0
 3897 0914 524B     		ldr	r3, .L666+20
 3898              	.LBE249:
 3899              	.LBE248:
 3900              		.loc 1 872 0
 3901 0916 90F8DF20 		ldrb	r2, [r0, #223]	@ zero_extendqisi2
 3902 091a 8DF85B20 		strb	r2, [sp, #91]
 3903              	.LBB252:
 3904              	.LBB250:
 3905              		.loc 1 111 0
 3906 091e 1A68     		ldr	r2, [r3]
 3907              	.LBE250:
 3908              	.LBE252:
 3909              		.loc 1 873 0
 3910 0920 90F8E010 		ldrb	r1, [r0, #224]	@ zero_extendqisi2
 3911 0924 8DF85C10 		strb	r1, [sp, #92]
 3912              	.LVL431:
 3913              	.LBB253:
 3914              	.LBB251:
 3915              		.loc 1 111 0
 3916 0928 002A     		cmp	r2, #0
 3917 092a 3FF43FAC 		beq	.L217
 3918              		.loc 1 112 0
 3919 092e 1B68     		ldr	r3, [r3]
 3920 0930 0521     		movs	r1, #5
 3921 0932 16A8     		add	r0, sp, #88
 3922              	.LVL432:
 3923 0934 9847     		blx	r3
 3924              	.LVL433:
 3925 0936 39E4     		b	.L217
 3926              	.L263:
 3927              	.LBE251:
 3928              	.LBE253:
 3929              	.LBE247:
 3930              		.loc 1 880 0
 3931 0938 5FFA8BF1 		uxtb	r1, fp
 3932 093c 2046     		mov	r0, r4
 3933 093e FFF7FEFF 		bl	nrf_driver_process_packet
ARM GAS  /tmp/ccXDsUE2.s 			page 70


 3934              	.LVL434:
 3935              		.loc 1 881 0
 3936 0942 33E4     		b	.L217
 3937              	.L266:
 3938              		.loc 1 228 0
 3939 0944 B9F1520F 		cmp	r9, #82
 3940 0948 00F0D683 		beq	.L590
 3941 094c 0DF1580A 		add	r10, sp, #88
 3942 0950 12AE     		add	r6, sp, #72
 3943              	.L275:
 3944              		.loc 1 238 0
 3945 0952 FFF7FEFF 		bl	nrf_driver_ext_nrf_running
 3946              	.LVL435:
 3947 0956 0028     		cmp	r0, #0
 3948 0958 40F0C983 		bne	.L640
 3949              	.L276:
 3950              		.loc 1 242 0
 3951 095c 0323     		movs	r3, #3
 3952 095e 2B70     		strb	r3, [r5]
 3953              		.loc 1 244 0
 3954 0960 0BF10102 		add	r2, fp, #1
 3955 0964 0223     		movs	r3, #2
 3956 0966 2946     		mov	r1, r5
 3957 0968 FF20     		movs	r0, #255
 3958 096a FFF7FEFF 		bl	comm_can_send_buffer
 3959              	.LVL436:
 3960 096e 26E7     		b	.L228
 3961              	.L258:
 3962              	.LBB254:
 3963              		.loc 1 672 0
 3964 0970 FFF7FEFF 		bl	timeout_reset
 3965              	.LVL437:
 3966              		.loc 1 673 0
 3967 0974 0023     		movs	r3, #0
 3968              		.loc 1 674 0
 3969 0976 9B45     		cmp	fp, r3
 3970              		.loc 1 673 0
 3971 0978 1693     		str	r3, [sp, #88]
 3972              		.loc 1 674 0
 3973 097a 7FF717AC 		ble	.L217
 3974 097e 0DF1580A 		add	r10, sp, #88
 3975              	.L317:
 3976              		.loc 1 675 0
 3977 0982 5146     		mov	r1, r10
 3978 0984 2046     		mov	r0, r4
 3979 0986 FFF7FEFF 		bl	buffer_get_int16
 3980              	.LVL438:
 3981 098a FFF7FEFF 		bl	gpdrive_add_buffer_sample_int
 3982              	.LVL439:
 3983              		.loc 1 674 0
 3984 098e 169B     		ldr	r3, [sp, #88]
 3985 0990 5B45     		cmp	r3, fp
 3986 0992 F6DB     		blt	.L317
 3987 0994 0AE4     		b	.L217
 3988              	.L259:
 3989              	.LBE254:
 3990              	.LBB255:
ARM GAS  /tmp/ccXDsUE2.s 			page 71


 3991              		.loc 1 680 0
 3992 0996 28A9     		add	r1, sp, #160
 3993 0998 0023     		movs	r3, #0
 3994 099a 41F8483D 		str	r3, [r1, #-72]!
 3995              		.loc 1 681 0
 3996 099e 2046     		mov	r0, r4
 3997 09a0 FFF7FEFF 		bl	buffer_get_float32_auto
 3998              	.LVL440:
 3999 09a4 FFF7FEFF 		bl	gpdrive_set_buffer_int_scale
 4000              	.LVL441:
 4001              	.LBE255:
 4002              		.loc 1 682 0
 4003 09a8 00E4     		b	.L217
 4004              	.L230:
 4005              	.LBB256:
 4006              		.loc 1 376 0
 4007 09aa 28A9     		add	r1, sp, #160
 4008 09ac 0023     		movs	r3, #0
 4009 09ae 41F8483D 		str	r3, [r1, #-72]!
 4010              		.loc 1 377 0
 4011 09b2 2046     		mov	r0, r4
 4012 09b4 FFF7FEFF 		bl	buffer_get_int32
 4013              	.LVL442:
 4014 09b8 07EE100A 		vmov	s14, r0	@ int
 4015 09bc DFED297A 		vldr.32	s15, .L666+24
 4016 09c0 B8EEC70A 		vcvt.f32.s32	s0, s14
 4017 09c4 80EE270A 		vdiv.f32	s0, s0, s15
 4018 09c8 FFF7FEFF 		bl	mc_interface_set_duty
 4019              	.LVL443:
 4020              		.loc 1 378 0
 4021 09cc FFF7FEFF 		bl	timeout_reset
 4022              	.LVL444:
 4023              	.LBE256:
 4024              		.loc 1 379 0
 4025 09d0 FFF7ECBB 		b	.L217
 4026              	.L267:
 4027              	.LBB257:
 4028              		.loc 1 885 0
 4029 09d4 28A9     		add	r1, sp, #160
 4030 09d6 0123     		movs	r3, #1
 4031 09d8 41F8483D 		str	r3, [r1, #-72]!
 4032              		.loc 1 886 0
 4033 09dc 2046     		mov	r0, r4
 4034              		.loc 1 885 0
 4035 09de 6C78     		ldrb	r4, [r5, #1]	@ zero_extendqisi2
 4036              	.LVL445:
 4037              		.loc 1 886 0
 4038 09e0 FFF7FEFF 		bl	buffer_get_int32
 4039              	.LVL446:
 4040              		.loc 1 887 0
 4041 09e4 FFF7FEFF 		bl	app_disable_output
 4042              	.LVL447:
 4043              		.loc 1 889 0
 4044 09e8 002C     		cmp	r4, #0
 4045 09ea 3FF4DFAB 		beq	.L217
 4046              		.loc 1 890 0
 4047 09ee 0023     		movs	r3, #0
ARM GAS  /tmp/ccXDsUE2.s 			page 72


 4048              		.loc 1 891 0
 4049 09f0 4246     		mov	r2, r8
 4050              		.loc 1 890 0
 4051 09f2 6B70     		strb	r3, [r5, #1]
 4052              		.loc 1 891 0
 4053 09f4 2946     		mov	r1, r5
 4054 09f6 FF20     		movs	r0, #255
 4055 09f8 FFF7FEFF 		bl	comm_can_send_buffer
 4056              	.LVL448:
 4057              	.LBE257:
 4058              		.loc 1 893 0
 4059 09fc FFF7D6BB 		b	.L217
 4060              	.LVL449:
 4061              	.L224:
 4062              	.LBB258:
 4063              		.loc 1 180 0
 4064 0a00 194A     		ldr	r2, .L666+28
 4065              		.loc 1 183 0
 4066 0a02 1A4B     		ldr	r3, .L666+32
 4067              		.loc 1 180 0
 4068 0a04 1068     		ldr	r0, [r2]
 4069 0a06 1479     		ldrb	r4, [r2, #4]	@ zero_extendqisi2
 4070              	.LVL450:
 4071 0a08 CDF85B00 		str	r0, [sp, #91]	@ unaligned
 4072              		.loc 1 176 0
 4073 0a0c 4FF44071 		mov	r1, #768
 4074              		.loc 1 177 0
 4075 0a10 3F22     		movs	r2, #63
 4076              		.loc 1 180 0
 4077 0a12 8DF85F40 		strb	r4, [sp, #95]
 4078              	.LVL451:
 4079              		.loc 1 176 0
 4080 0a16 ADF85810 		strh	r1, [sp, #88]	@ movhi
 4081              		.loc 1 177 0
 4082 0a1a 8DF85A20 		strb	r2, [sp, #90]
 4083              		.loc 1 183 0
 4084 0a1e 93E80700 		ldm	r3, {r0, r1, r2}
 4085 0a22 18AB     		add	r3, sp, #96
 4086 0a24 83E80700 		stm	r3, {r0, r1, r2}
 4087              	.LVL452:
 4088              		.loc 1 186 0
 4089 0a28 FFF7FEFF 		bl	app_get_configuration
 4090              	.LVL453:
 4091              		.loc 1 188 0
 4092 0a2c 1521     		movs	r1, #21
 4093              		.loc 1 186 0
 4094 0a2e 437D     		ldrb	r3, [r0, #21]	@ zero_extendqisi2
 4095 0a30 8DF86C30 		strb	r3, [sp, #108]
 4096              		.loc 1 188 0
 4097 0a34 16A8     		add	r0, sp, #88
 4098 0a36 B847     		blx	r7
 4099              	.LVL454:
 4100              	.LBE258:
 4101              		.loc 1 189 0
 4102 0a38 FFF7B8BB 		b	.L217
 4103              	.LVL455:
 4104              	.L256:
ARM GAS  /tmp/ccXDsUE2.s 			page 73


 4105              	.LBB259:
 4106              		.loc 1 658 0
 4107 0a3c FFF7FEFF 		bl	timeout_reset
 4108              	.LVL456:
 4109              		.loc 1 660 0
 4110 0a40 6878     		ldrb	r0, [r5, #1]	@ zero_extendqisi2
 4111 0a42 FFF7FEFF 		bl	gpdrive_set_mode
 4112              	.LVL457:
 4113              	.LBE259:
 4114              		.loc 1 661 0
 4115 0a46 FFF7B1BB 		b	.L217
 4116              	.L667:
 4117 0a4a 00BF     		.align	2
 4118              	.L666:
 4119 0a4c 00000000 		.word	.LANCHOR18
 4120 0a50 00000000 		.word	0
 4121 0a54 00000000 		.word	.LANCHOR8
 4122 0a58 00247449 		.word	1232348160
 4123 0a5c 00000000 		.word	conf_general_permanent_nrf_found
 4124 0a60 00000000 		.word	.LANCHOR13
 4125 0a64 0050C347 		.word	1203982336
 4126 0a68 00000000 		.word	.LC1
 4127 0a6c 107AFF1F 		.word	536836624
 4128              	.LVL458:
 4129              	.L257:
 4130              	.LBB260:
 4131              		.loc 1 664 0
 4132 0a70 FFF7FEFF 		bl	timeout_reset
 4133              	.LVL459:
 4134              		.loc 1 666 0
 4135 0a74 BBF1000F 		cmp	fp, #0
 4136 0a78 7FF798AB 		ble	.L217
 4137 0a7c 6B1E     		subs	r3, r5, #1
 4138 0a7e 9844     		add	r8, r8, r3
 4139              	.LVL460:
 4140              	.L315:
 4141              		.loc 1 667 0
 4142 0a80 15F9010F 		ldrsb	r0, [r5, #1]!
 4143              	.LVL461:
 4144 0a84 FFF7FEFF 		bl	gpdrive_add_buffer_sample_int
 4145              	.LVL462:
 4146              		.loc 1 666 0
 4147 0a88 A845     		cmp	r8, r5
 4148 0a8a F9D1     		bne	.L315
 4149 0a8c FFF78EBB 		b	.L217
 4150              	.LVL463:
 4151              	.L255:
 4152              	.LBE260:
 4153              	.LBB261:
 4154              		.loc 1 652 0
 4155 0a90 FFF7FEFF 		bl	timeout_reset
 4156              	.LVL464:
 4157              		.loc 1 653 0
 4158 0a94 28A9     		add	r1, sp, #160
 4159 0a96 0023     		movs	r3, #0
 4160 0a98 41F8483D 		str	r3, [r1, #-72]!
 4161              		.loc 1 654 0
ARM GAS  /tmp/ccXDsUE2.s 			page 74


 4162 0a9c 2046     		mov	r0, r4
 4163 0a9e FFF7FEFF 		bl	buffer_get_float32_auto
 4164              	.LVL465:
 4165 0aa2 FFF7FEFF 		bl	gpdrive_add_buffer_sample
 4166              	.LVL466:
 4167              	.LBE261:
 4168              		.loc 1 655 0
 4169 0aa6 FFF781BB 		b	.L217
 4170              	.L260:
 4171              	.LBB262:
 4172              		.loc 1 686 0
 4173 0aaa 16A8     		add	r0, sp, #88
 4174 0aac FFF7FEFF 		bl	mc_interface_get_setup_values
 4175              	.LVL467:
 4176              		.loc 1 688 0
 4177 0ab0 28A8     		add	r0, sp, #160
 4178 0ab2 0023     		movs	r3, #0
 4179 0ab4 40F8703D 		str	r3, [r0, #-112]!	@ float
 4180              		.loc 1 689 0
 4181 0ab8 FFF7FEFF 		bl	mc_interface_get_battery_level
 4182              	.LVL468:
 4183              		.loc 1 691 0
 4184 0abc 0025     		movs	r5, #0
 4185              		.loc 1 692 0
 4186 0abe D048     		ldr	r0, .L668
 4187              		.loc 1 691 0
 4188 0ac0 0F95     		str	r5, [sp, #60]
 4189              		.loc 1 689 0
 4190 0ac2 B0EE408A 		vmov.f32	s16, s0
 4191              	.LVL469:
 4192              		.loc 1 692 0
 4193 0ac6 FFF7FEFF 		bl	chMtxLock
 4194              	.LVL470:
 4195              		.loc 1 694 0
 4196 0aca 0F9B     		ldr	r3, [sp, #60]
 4197 0acc DFF83483 		ldr	r8, .L668+4
 4198 0ad0 5A1C     		adds	r2, r3, #1
 4199              		.loc 1 697 0
 4200 0ad2 B9F1330F 		cmp	r9, #51
 4201              		.loc 1 694 0
 4202 0ad6 0F92     		str	r2, [sp, #60]
 4203 0ad8 08F80390 		strb	r9, [r8, r3]
 4204              	.LVL471:
 4205              		.loc 1 697 0
 4206 0adc 00F03684 		beq	.L641
 4207              		.loc 1 696 0
 4208 0ae0 4FF0FF34 		mov	r4, #-1
 4209              	.LVL472:
 4210 0ae4 0FAD     		add	r5, sp, #60
 4211              	.LVL473:
 4212              	.L318:
 4213              		.loc 1 704 0
 4214 0ae6 FFF7FEFF 		bl	mc_interface_temp_fet_filtered
 4215              	.LVL474:
 4216 0aea 2946     		mov	r1, r5
 4217 0aec F2EE040A 		vmov.f32	s1, #1.0e+1
 4218 0af0 C448     		ldr	r0, .L668+4
ARM GAS  /tmp/ccXDsUE2.s 			page 75


 4219 0af2 FFF7FEFF 		bl	buffer_append_float16
 4220              	.LVL475:
 4221              	.L319:
 4222              		.loc 1 706 0
 4223 0af6 A207     		lsls	r2, r4, #30
 4224 0af8 00F11E84 		bmi	.L642
 4225              	.L320:
 4226              		.loc 1 709 0
 4227 0afc 6307     		lsls	r3, r4, #29
 4228 0afe 00F11184 		bmi	.L643
 4229              	.L321:
 4230              		.loc 1 712 0
 4231 0b02 2607     		lsls	r6, r4, #28
 4232 0b04 00F10484 		bmi	.L644
 4233              	.L322:
 4234              		.loc 1 715 0
 4235 0b08 E006     		lsls	r0, r4, #27
 4236 0b0a 00F1F783 		bmi	.L645
 4237              	.L323:
 4238              		.loc 1 718 0
 4239 0b0e A106     		lsls	r1, r4, #26
 4240 0b10 00F1EB83 		bmi	.L646
 4241              	.L324:
 4242              		.loc 1 721 0
 4243 0b14 6206     		lsls	r2, r4, #25
 4244 0b16 00F1DF83 		bmi	.L647
 4245              	.L325:
 4246              		.loc 1 724 0
 4247 0b1a 2306     		lsls	r3, r4, #24
 4248 0b1c 00F1C783 		bmi	.L648
 4249              	.L326:
 4250              		.loc 1 727 0
 4251 0b20 E605     		lsls	r6, r4, #23
 4252 0b22 00F1BB83 		bmi	.L649
 4253              	.L327:
 4254              		.loc 1 730 0
 4255 0b26 A005     		lsls	r0, r4, #22
 4256 0b28 00F1AF83 		bmi	.L650
 4257              	.L328:
 4258              		.loc 1 733 0
 4259 0b2c 6105     		lsls	r1, r4, #21
 4260 0b2e 00F1A383 		bmi	.L651
 4261              	.L329:
 4262              		.loc 1 737 0
 4263 0b32 2205     		lsls	r2, r4, #20
 4264 0b34 00F19783 		bmi	.L652
 4265              	.L330:
 4266              		.loc 1 740 0
 4267 0b38 E304     		lsls	r3, r4, #19
 4268 0b3a 00F18B83 		bmi	.L653
 4269              	.L331:
 4270              		.loc 1 743 0
 4271 0b3e A604     		lsls	r6, r4, #18
 4272 0b40 00F17F83 		bmi	.L654
 4273              	.L332:
 4274              		.loc 1 746 0
 4275 0b44 6004     		lsls	r0, r4, #17
ARM GAS  /tmp/ccXDsUE2.s 			page 76


 4276 0b46 00F17383 		bmi	.L655
 4277              	.L333:
 4278              		.loc 1 749 0
 4279 0b4a 2104     		lsls	r1, r4, #16
 4280 0b4c 00F14181 		bmi	.L656
 4281              	.L334:
 4282              		.loc 1 756 0
 4283 0b50 E203     		lsls	r2, r4, #15
 4284 0b52 00F13681 		bmi	.L657
 4285              	.L335:
 4286              		.loc 1 759 0
 4287 0b56 A303     		lsls	r3, r4, #14
 4288 0b58 00F1F080 		bmi	.L658
 4289              	.L336:
 4290              		.loc 1 762 0
 4291 0b5c 6603     		lsls	r6, r4, #13
 4292 0b5e 06D5     		bpl	.L337
 4293              		.loc 1 763 0
 4294 0b60 0F9B     		ldr	r3, [sp, #60]
 4295 0b62 9DF87020 		ldrb	r2, [sp, #112]	@ zero_extendqisi2
 4296 0b66 08F80320 		strb	r2, [r8, r3]
 4297 0b6a 0133     		adds	r3, r3, #1
 4298 0b6c 0F93     		str	r3, [sp, #60]
 4299              	.L337:
 4300              		.loc 1 765 0
 4301 0b6e 2403     		lsls	r4, r4, #12
 4302              	.LVL476:
 4303 0b70 00F1FE83 		bmi	.L659
 4304              	.L338:
 4305              		.loc 1 769 0
 4306 0b74 0F99     		ldr	r1, [sp, #60]
 4307 0b76 A348     		ldr	r0, .L668+4
 4308 0b78 B847     		blx	r7
 4309              	.LVL477:
 4310              		.loc 1 770 0
 4311 0b7a A148     		ldr	r0, .L668
 4312 0b7c FFF7FEFF 		bl	chMtxUnlock
 4313              	.LVL478:
 4314              	.LBE262:
 4315              		.loc 1 771 0
 4316 0b80 FFF714BB 		b	.L217
 4317              	.LVL479:
 4318              	.L261:
 4319              	.LBB264:
 4320              		.loc 1 775 0
 4321 0b84 FFF7FEFF 		bl	mc_interface_get_configuration
 4322              	.LVL480:
 4323 0b88 4FF4E472 		mov	r2, #456
 4324 0b8c 0146     		mov	r1, r0
 4325 0b8e 9E48     		ldr	r0, .L668+8
 4326 0b90 FFF7FEFF 		bl	memcpy
 4327              	.LVL481:
 4328              		.loc 1 779 0
 4329 0b94 AA78     		ldrb	r2, [r5, #2]	@ zero_extendqisi2
 4330 0b96 0292     		str	r2, [sp, #8]
 4331              		.loc 1 785 0
 4332 0b98 2B79     		ldrb	r3, [r5, #4]	@ zero_extendqisi2
ARM GAS  /tmp/ccXDsUE2.s 			page 77


 4333              		.loc 1 780 0
 4334 0b9a EA78     		ldrb	r2, [r5, #3]	@ zero_extendqisi2
 4335 0b9c 0392     		str	r2, [sp, #12]
 4336              		.loc 1 781 0
 4337 0b9e 0422     		movs	r2, #4
 4338              		.loc 1 778 0
 4339 0ba0 95F801B0 		ldrb	fp, [r5, #1]	@ zero_extendqisi2
 4340              	.LVL482:
 4341              		.loc 1 781 0
 4342 0ba4 1292     		str	r2, [sp, #72]
 4343              	.LVL483:
 4344              		.loc 1 785 0
 4345 0ba6 002B     		cmp	r3, #0
 4346 0ba8 00F0C580 		beq	.L373
 4347              	.LBB265:
 4348              	.LBB266:
 4349              	.LBB267:
 4350              	.LBB268:
 4351              	.LBB269:
 4352              	.LBB270:
 4353              		.file 4 "ChibiOS_3.0.2/os/rt/include/chvt.h"
 4354              		.loc 4 231 0
 4355 0bac DFF864A2 		ldr	r10, .L668+20
 4356              	.LBE270:
 4357              	.LBE269:
 4358              	.LBE268:
 4359              	.LBE267:
 4360              		.loc 1 788 0
 4361 0bb0 9FED969A 		vldr.32	s18, .L668+12
 4362 0bb4 DFED968A 		vldr.32	s17, .L668+16
 4363              	.LBE266:
 4364              		.loc 1 786 0
 4365 0bb8 0026     		movs	r6, #0
 4366              	.LBE265:
 4367              		.loc 1 783 0
 4368 0bba B7EE008A 		vmov.f32	s16, #1.0e+0
 4369              	.LVL484:
 4370              	.L342:
 4371              	.LBB277:
 4372              	.LBB275:
 4373              		.loc 1 787 0
 4374 0bbe 3046     		mov	r0, r6
 4375 0bc0 FFF7FEFF 		bl	comm_can_get_status_msg_index
 4376              	.LVL485:
 4377              		.loc 1 788 0
 4378 0bc4 0368     		ldr	r3, [r0]
 4379 0bc6 002B     		cmp	r3, #0
 4380              	.LBE275:
 4381              		.loc 1 786 0
 4382 0bc8 06F10106 		add	r6, r6, #1
 4383              	.LVL486:
 4384              	.LBB276:
 4385              		.loc 1 788 0
 4386 0bcc 12DB     		blt	.L340
 4387              	.LBB274:
 4388              	.LBB273:
 4389              		.loc 4 267 0 discriminator 1
ARM GAS  /tmp/ccXDsUE2.s 			page 78


 4390 0bce 4168     		ldr	r1, [r0, #4]
 4391              	.LBB272:
 4392              	.LBB271:
 4393              		.loc 4 231 0 discriminator 1
 4394 0bd0 DAF82830 		ldr	r3, [r10, #40]
 4395              	.LVL487:
 4396              	.LBE271:
 4397              	.LBE272:
 4398              		.loc 4 267 0 discriminator 1
 4399 0bd4 5B1A     		subs	r3, r3, r1
 4400              	.LBE273:
 4401              	.LBE274:
 4402              		.loc 1 788 0 discriminator 1
 4403 0bd6 07EE903A 		vmov	s15, r3	@ int
 4404 0bda F8EE677A 		vcvt.f32.u32	s15, s15
 4405              		.loc 1 789 0 discriminator 1
 4406 0bde B7EE007A 		vmov.f32	s14, #1.0e+0
 4407              		.loc 1 788 0 discriminator 1
 4408 0be2 C7EE896A 		vdiv.f32	s13, s15, s18
 4409 0be6 F4EEE86A 		vcmpe.f32	s13, s17
 4410 0bea F1EE10FA 		vmrs	APSR_nzcv, FPSCR
 4411              		.loc 1 789 0 discriminator 1
 4412 0bee 48BF     		it	mi
 4413 0bf0 38EE078A 		vaddmi.f32	s16, s16, s14
 4414              	.LVL488:
 4415              	.L340:
 4416              	.LBE276:
 4417              		.loc 1 786 0 discriminator 2
 4418 0bf4 0A2E     		cmp	r6, #10
 4419 0bf6 E2D1     		bne	.L342
 4420              	.LVL489:
 4421              	.L339:
 4422              	.LBE277:
 4423              		.loc 1 794 0
 4424 0bf8 12AE     		add	r6, sp, #72
 4425 0bfa 3146     		mov	r1, r6
 4426 0bfc 2046     		mov	r0, r4
 4427 0bfe FFF7FEFF 		bl	buffer_get_float32_auto
 4428              	.LVL490:
 4429 0c02 DFF804A2 		ldr	r10, .L668+8
 4430              		.loc 1 795 0
 4431 0c06 3146     		mov	r1, r6
 4432 0c08 2046     		mov	r0, r4
 4433              		.loc 1 794 0
 4434 0c0a 8AED1A0A 		vstr.32	s0, [r10, #104]
 4435              		.loc 1 795 0
 4436 0c0e FFF7FEFF 		bl	buffer_get_float32_auto
 4437              	.LVL491:
 4438              		.loc 1 797 0
 4439 0c12 B9F1310F 		cmp	r9, #49
 4440              		.loc 1 795 0
 4441 0c16 8AED190A 		vstr.32	s0, [r10, #100]
 4442              		.loc 1 797 0
 4443 0c1a 00F09C80 		beq	.L660
 4444              		.loc 1 811 0
 4445 0c1e 3146     		mov	r1, r6
 4446 0c20 2046     		mov	r0, r4
ARM GAS  /tmp/ccXDsUE2.s 			page 79


 4447 0c22 FFF7FEFF 		bl	buffer_get_float32_auto
 4448              	.LVL492:
 4449              		.loc 1 812 0
 4450 0c26 3146     		mov	r1, r6
 4451 0c28 2046     		mov	r0, r4
 4452              		.loc 1 811 0
 4453 0c2a 8AED060A 		vstr.32	s0, [r10, #24]
 4454              		.loc 1 812 0
 4455 0c2e FFF7FEFF 		bl	buffer_get_float32_auto
 4456              	.LVL493:
 4457 0c32 8AED070A 		vstr.32	s0, [r10, #28]
 4458              	.L344:
 4459              		.loc 1 815 0
 4460 0c36 3146     		mov	r1, r6
 4461 0c38 2046     		mov	r0, r4
 4462 0c3a FFF7FEFF 		bl	buffer_get_float32_auto
 4463              	.LVL494:
 4464              		.loc 1 816 0
 4465 0c3e 3146     		mov	r1, r6
 4466 0c40 2046     		mov	r0, r4
 4467              		.loc 1 815 0
 4468 0c42 8AED150A 		vstr.32	s0, [r10, #84]
 4469              		.loc 1 816 0
 4470 0c46 FFF7FEFF 		bl	buffer_get_float32_auto
 4471              	.LVL495:
 4472              		.loc 1 817 0
 4473 0c4a 3146     		mov	r1, r6
 4474 0c4c 2046     		mov	r0, r4
 4475              		.loc 1 816 0
 4476 0c4e 8AED160A 		vstr.32	s0, [r10, #88]
 4477              		.loc 1 817 0
 4478 0c52 FFF7FEFF 		bl	buffer_get_float32_auto
 4479              	.LVL496:
 4480 0c56 80EE080A 		vdiv.f32	s0, s0, s16
 4481              		.loc 1 818 0
 4482 0c5a 3146     		mov	r1, r6
 4483 0c5c 2046     		mov	r0, r4
 4484              		.loc 1 817 0
 4485 0c5e 8AED180A 		vstr.32	s0, [r10, #96]
 4486              		.loc 1 818 0
 4487 0c62 FFF7FEFF 		bl	buffer_get_float32_auto
 4488              	.LVL497:
 4489 0c66 C0EE087A 		vdiv.f32	s15, s0, s16
 4490              		.loc 1 823 0
 4491 0c6a 129A     		ldr	r2, [sp, #72]
 4492              		.loc 1 824 0
 4493 0c6c 3146     		mov	r1, r6
 4494              		.loc 1 823 0
 4495 0c6e 083A     		subs	r2, r2, #8
 4496              		.loc 1 824 0
 4497 0c70 2046     		mov	r0, r4
 4498              		.loc 1 823 0
 4499 0c72 1292     		str	r2, [sp, #72]
 4500              		.loc 1 824 0
 4501 0c74 9AED180A 		vldr.32	s0, [r10, #96]
 4502              		.loc 1 818 0
 4503 0c78 CAED177A 		vstr.32	s15, [r10, #92]
ARM GAS  /tmp/ccXDsUE2.s 			page 80


 4504              		.loc 1 824 0
 4505 0c7c FFF7FEFF 		bl	buffer_append_float32_auto
 4506              	.LVL498:
 4507              		.loc 1 825 0
 4508 0c80 2046     		mov	r0, r4
 4509 0c82 3146     		mov	r1, r6
 4510 0c84 9AED170A 		vldr.32	s0, [r10, #92]
 4511 0c88 FFF7FEFF 		bl	buffer_append_float32_auto
 4512              	.LVL499:
 4513              		.loc 1 827 0
 4514 0c8c 9AED027A 		vldr.32	s14, [r10, #8]
 4515 0c90 9AED1A6A 		vldr.32	s12, [r10, #104]
 4516              		.loc 1 828 0
 4517 0c94 DAED017A 		vldr.32	s15, [r10, #4]
 4518 0c98 DAED196A 		vldr.32	s13, [r10, #100]
 4519              		.loc 1 832 0
 4520 0c9c 5A48     		ldr	r0, .L668+8
 4521              		.loc 1 827 0
 4522 0c9e 27EE067A 		vmul.f32	s14, s14, s12
 4523              		.loc 1 828 0
 4524 0ca2 67EEA67A 		vmul.f32	s15, s15, s13
 4525              		.loc 1 827 0
 4526 0ca6 8AED1C7A 		vstr.32	s14, [r10, #112]
 4527              		.loc 1 829 0
 4528 0caa 8AED207A 		vstr.32	s14, [r10, #128]
 4529              		.loc 1 828 0
 4530 0cae CAED1B7A 		vstr.32	s15, [r10, #108]
 4531              		.loc 1 830 0
 4532 0cb2 CAED1F7A 		vstr.32	s15, [r10, #124]
 4533              		.loc 1 832 0
 4534 0cb6 FFF7FEFF 		bl	commands_apply_mcconf_hw_limits
 4535              	.LVL500:
 4536              		.loc 1 834 0
 4537 0cba BBF1000F 		cmp	fp, #0
 4538 0cbe 46D1     		bne	.L661
 4539              	.L345:
 4540              		.loc 1 838 0
 4541 0cc0 5148     		ldr	r0, .L668+8
 4542 0cc2 FFF7FEFF 		bl	mc_interface_set_configuration
 4543              	.LVL501:
 4544              		.loc 1 840 0
 4545 0cc6 029B     		ldr	r3, [sp, #8]
 4546 0cc8 43B3     		cbz	r3, .L346
 4547              		.loc 1 842 0
 4548 0cca 0024     		movs	r4, #0
 4549              	.LVL502:
 4550              		.loc 1 841 0
 4551 0ccc 3023     		movs	r3, #48
 4552              	.LBB278:
 4553              	.LBB279:
 4554              		.loc 1 849 0
 4555 0cce DFED4F8A 		vldr.32	s17, .L668+12
 4556 0cd2 9FED4F8A 		vldr.32	s16, .L668+16
 4557              	.LVL503:
 4558              	.LBB280:
 4559              	.LBB281:
 4560              	.LBB282:
ARM GAS  /tmp/ccXDsUE2.s 			page 81


 4561              	.LBB283:
 4562              		.loc 4 231 0
 4563 0cd6 4F4E     		ldr	r6, .L668+20
 4564              	.LBE283:
 4565              	.LBE282:
 4566              	.LBE281:
 4567              	.LBE280:
 4568              	.LBE279:
 4569              	.LBE278:
 4570              		.loc 1 841 0
 4571 0cd8 2B70     		strb	r3, [r5]
 4572              		.loc 1 842 0
 4573 0cda AC70     		strb	r4, [r5, #2]
 4574              		.loc 1 843 0
 4575 0cdc EC70     		strb	r4, [r5, #3]
 4576              		.loc 1 844 0
 4577 0cde 2C71     		strb	r4, [r5, #4]
 4578              	.LVL504:
 4579              	.L349:
 4580              	.LBB290:
 4581              	.LBB288:
 4582              		.loc 1 848 0
 4583 0ce0 2046     		mov	r0, r4
 4584 0ce2 FFF7FEFF 		bl	comm_can_get_status_msg_index
 4585              	.LVL505:
 4586              		.loc 1 849 0
 4587 0ce6 0268     		ldr	r2, [r0]
 4588 0ce8 002A     		cmp	r2, #0
 4589              	.LBE288:
 4590              		.loc 1 847 0
 4591 0cea 04F10104 		add	r4, r4, #1
 4592              	.LVL506:
 4593              	.LBB289:
 4594              		.loc 1 849 0
 4595 0cee 13DB     		blt	.L347
 4596              	.LBB287:
 4597              	.LBB286:
 4598              		.loc 4 267 0 discriminator 1
 4599 0cf0 4168     		ldr	r1, [r0, #4]
 4600              	.LBB285:
 4601              	.LBB284:
 4602              		.loc 4 231 0 discriminator 1
 4603 0cf2 B36A     		ldr	r3, [r6, #40]
 4604              	.LVL507:
 4605              	.LBE284:
 4606              	.LBE285:
 4607              		.loc 4 267 0 discriminator 1
 4608 0cf4 5B1A     		subs	r3, r3, r1
 4609              	.LBE286:
 4610              	.LBE287:
 4611              		.loc 1 849 0 discriminator 1
 4612 0cf6 07EE903A 		vmov	s15, r3	@ int
 4613 0cfa F8EE677A 		vcvt.f32.u32	s15, s15
 4614 0cfe 87EEA87A 		vdiv.f32	s14, s15, s17
 4615 0d02 B4EEC87A 		vcmpe.f32	s14, s16
 4616 0d06 F1EE10FA 		vmrs	APSR_nzcv, FPSCR
 4617 0d0a 05D5     		bpl	.L347
ARM GAS  /tmp/ccXDsUE2.s 			page 82


 4618              		.loc 1 850 0
 4619 0d0c D0B2     		uxtb	r0, r2
 4620              	.LVL508:
 4621 0d0e 0023     		movs	r3, #0
 4622 0d10 4246     		mov	r2, r8
 4623 0d12 2946     		mov	r1, r5
 4624 0d14 FFF7FEFF 		bl	comm_can_send_buffer
 4625              	.LVL509:
 4626              	.L347:
 4627              	.LBE289:
 4628              		.loc 1 847 0 discriminator 2
 4629 0d18 0A2C     		cmp	r4, #10
 4630 0d1a E1D1     		bne	.L349
 4631              	.LVL510:
 4632              	.L346:
 4633              	.LBE290:
 4634              		.loc 1 855 0
 4635 0d1c 039B     		ldr	r3, [sp, #12]
 4636 0d1e 002B     		cmp	r3, #0
 4637 0d20 3FF444AA 		beq	.L217
 4638              	.LBB291:
 4639              		.loc 1 858 0
 4640 0d24 28A8     		add	r0, sp, #160
 4641 0d26 0123     		movs	r3, #1
 4642 0d28 00F8489D 		strb	r9, [r0, #-72]!
 4643              		.loc 1 859 0
 4644 0d2c 1946     		mov	r1, r3
 4645              		.loc 1 858 0
 4646 0d2e 1293     		str	r3, [sp, #72]
 4647              		.loc 1 859 0
 4648 0d30 B847     		blx	r7
 4649              	.LVL511:
 4650              	.LBE291:
 4651              	.LBE264:
 4652              		.loc 1 861 0
 4653 0d32 FFF73BBA 		b	.L217
 4654              	.LVL512:
 4655              	.L373:
 4656              	.LBB293:
 4657              		.loc 1 783 0
 4658 0d36 B7EE008A 		vmov.f32	s16, #1.0e+0
 4659 0d3a 5DE7     		b	.L339
 4660              	.LVL513:
 4661              	.L658:
 4662              	.LBE293:
 4663              	.LBB294:
 4664              		.loc 1 760 0
 4665 0d3c FFF7FEFF 		bl	app_get_configuration
 4666              	.LVL514:
 4667 0d40 0F9B     		ldr	r3, [sp, #60]
 4668 0d42 5A1C     		adds	r2, r3, #1
 4669 0d44 0F92     		str	r2, [sp, #60]
 4670 0d46 0278     		ldrb	r2, [r0]	@ zero_extendqisi2
 4671 0d48 08F80320 		strb	r2, [r8, r3]
 4672 0d4c 06E7     		b	.L336
 4673              	.LVL515:
 4674              	.L661:
ARM GAS  /tmp/ccXDsUE2.s 			page 83


 4675              	.LBE294:
 4676              	.LBB295:
 4677              		.loc 1 835 0
 4678 0d4e 2E48     		ldr	r0, .L668+8
 4679 0d50 FFF7FEFF 		bl	conf_general_store_mc_configuration
 4680              	.LVL516:
 4681 0d54 B4E7     		b	.L345
 4682              	.L660:
 4683              	.LBB292:
 4684              		.loc 1 798 0
 4685 0d56 9AF8B131 		ldrb	r3, [r10, #433]	@ zero_extendqisi2
 4686 0d5a 9FED2F6A 		vldr.32	s12, .L668+24
 4687 0d5e DAED6D6A 		vldr.32	s13, [r10, #436]
 4688              		.loc 1 799 0
 4689 0d62 DFED2E5A 		vldr.32	s11, .L668+28
 4690 0d66 9AED6E7A 		vldr.32	s14, [r10, #440]
 4691              		.loc 1 798 0
 4692 0d6a 07EE903A 		vmov	s15, r3	@ int
 4693 0d6e FAEEEF7A 		vcvt.f32.s32	s15, s15, #1
 4694              		.loc 1 799 0
 4695 0d72 27EE257A 		vmul.f32	s14, s14, s11
 4696              		.loc 1 798 0
 4697 0d76 67EE867A 		vmul.f32	s15, s15, s12
 4698              		.loc 1 801 0
 4699 0d7a 3146     		mov	r1, r6
 4700              		.loc 1 798 0
 4701 0d7c 67EEA67A 		vmul.f32	s15, s15, s13
 4702              		.loc 1 801 0
 4703 0d80 2046     		mov	r0, r4
 4704              		.loc 1 798 0
 4705 0d82 C7EE878A 		vdiv.f32	s17, s15, s14
 4706              	.LVL517:
 4707              		.loc 1 801 0
 4708 0d86 FFF7FEFF 		bl	buffer_get_float32_auto
 4709              	.LVL518:
 4710              		.loc 1 802 0
 4711 0d8a 3146     		mov	r1, r6
 4712 0d8c 2046     		mov	r0, r4
 4713              		.loc 1 801 0
 4714 0d8e 20EE280A 		vmul.f32	s0, s0, s17
 4715 0d92 8AED060A 		vstr.32	s0, [r10, #24]
 4716              		.loc 1 802 0
 4717 0d96 FFF7FEFF 		bl	buffer_get_float32_auto
 4718              	.LVL519:
 4719              		.loc 1 807 0
 4720 0d9a 129A     		ldr	r2, [sp, #72]
 4721              		.loc 1 802 0
 4722 0d9c 60EE288A 		vmul.f32	s17, s0, s17
 4723              	.LVL520:
 4724              		.loc 1 807 0
 4725 0da0 083A     		subs	r2, r2, #8
 4726              		.loc 1 808 0
 4727 0da2 3146     		mov	r1, r6
 4728 0da4 9AED060A 		vldr.32	s0, [r10, #24]
 4729              		.loc 1 802 0
 4730 0da8 CAED078A 		vstr.32	s17, [r10, #28]
 4731              		.loc 1 808 0
ARM GAS  /tmp/ccXDsUE2.s 			page 84


 4732 0dac 2046     		mov	r0, r4
 4733              		.loc 1 807 0
 4734 0dae 1292     		str	r2, [sp, #72]
 4735              		.loc 1 808 0
 4736 0db0 FFF7FEFF 		bl	buffer_append_float32_auto
 4737              	.LVL521:
 4738              		.loc 1 809 0
 4739 0db4 3146     		mov	r1, r6
 4740 0db6 9AED070A 		vldr.32	s0, [r10, #28]
 4741 0dba 2046     		mov	r0, r4
 4742 0dbc FFF7FEFF 		bl	buffer_append_float32_auto
 4743              	.LVL522:
 4744              	.LBE292:
 4745 0dc0 39E7     		b	.L344
 4746              	.LVL523:
 4747              	.L657:
 4748              	.LBE295:
 4749              	.LBB296:
 4750              		.loc 1 757 0
 4751 0dc2 0F9E     		ldr	r6, [sp, #60]
 4752 0dc4 731C     		adds	r3, r6, #1
 4753 0dc6 0F93     		str	r3, [sp, #60]
 4754 0dc8 FFF7FEFF 		bl	mc_interface_get_fault
 4755              	.LVL524:
 4756 0dcc 08F80600 		strb	r0, [r8, r6]
 4757 0dd0 C1E6     		b	.L335
 4758              	.L656:
 4759              		.loc 1 753 0
 4760 0dd2 FFF7FEFF 		bl	mc_interface_get_pid_pos_now
 4761              	.LVL525:
 4762 0dd6 2946     		mov	r1, r5
 4763 0dd8 DFED110A 		vldr.32	s1, .L668+32
 4764 0ddc 0948     		ldr	r0, .L668+4
 4765 0dde FFF7FEFF 		bl	buffer_append_float32
 4766              	.LVL526:
 4767 0de2 B5E6     		b	.L334
 4768              	.LVL527:
 4769              	.L635:
 4770              	.LBE296:
 4771              	.LBB297:
 4772              		.loc 1 963 0
 4773 0de4 04A9     		add	r1, sp, #16
 4774 0de6 9DED130A 		vldr.32	s0, [sp, #76]
 4775 0dea 5046     		mov	r0, r10
 4776 0dec FFF7FEFF 		bl	buffer_append_float32_auto
 4777              	.LVL528:
 4778 0df0 14E4     		b	.L366
 4779              	.L634:
 4780              		.loc 1 960 0
 4781 0df2 04A9     		add	r1, sp, #16
 4782 0df4 9DED120A 		vldr.32	s0, [sp, #72]
 4783 0df8 5046     		mov	r0, r10
 4784 0dfa FFF7FEFF 		bl	buffer_append_float32_auto
 4785              	.LVL529:
 4786 0dfe 0AE4     		b	.L365
 4787              	.L669:
 4788              		.align	2
ARM GAS  /tmp/ccXDsUE2.s 			page 85


 4789              	.L668:
 4790 0e00 00000000 		.word	.LANCHOR11
 4791 0e04 00000000 		.word	.LANCHOR17
 4792 0e08 00000000 		.word	.LANCHOR18
 4793 0e0c 00401C46 		.word	1176256512
 4794 0e10 CDCCCC3D 		.word	1036831949
 4795 0e14 00000000 		.word	ch
 4796 0e18 00007042 		.word	1114636288
 4797 0e1c DB0F4940 		.word	1078530011
 4798 0e20 00247449 		.word	1232348160
 4799              	.L633:
 4800              		.loc 1 956 0
 4801 0e24 04A9     		add	r1, sp, #16
 4802 0e26 9DED110A 		vldr.32	s0, [sp, #68]
 4803 0e2a 5046     		mov	r0, r10
 4804 0e2c FFF7FEFF 		bl	buffer_append_float32_auto
 4805              	.LVL530:
 4806 0e30 FFF7EEBB 		b	.L364
 4807              	.L632:
 4808              		.loc 1 953 0
 4809 0e34 04A9     		add	r1, sp, #16
 4810 0e36 9DED100A 		vldr.32	s0, [sp, #64]
 4811 0e3a 5046     		mov	r0, r10
 4812 0e3c FFF7FEFF 		bl	buffer_append_float32_auto
 4813              	.LVL531:
 4814 0e40 FFF7E3BB 		b	.L363
 4815              	.L637:
 4816              		.loc 1 969 0
 4817 0e44 04A9     		add	r1, sp, #16
 4818 0e46 9DED150A 		vldr.32	s0, [sp, #84]
 4819 0e4a 5046     		mov	r0, r10
 4820 0e4c FFF7FEFF 		bl	buffer_append_float32_auto
 4821              	.LVL532:
 4822 0e50 FFF7EABB 		b	.L368
 4823              	.L636:
 4824              		.loc 1 966 0
 4825 0e54 04A9     		add	r1, sp, #16
 4826 0e56 9DED140A 		vldr.32	s0, [sp, #80]
 4827 0e5a 5046     		mov	r0, r10
 4828 0e5c FFF7FEFF 		bl	buffer_append_float32_auto
 4829              	.LVL533:
 4830 0e60 FFF7DFBB 		b	.L367
 4831              	.LVL534:
 4832              	.L623:
 4833              		.loc 1 923 0
 4834 0e64 04A9     		add	r1, sp, #16
 4835 0e66 9DED070A 		vldr.32	s0, [sp, #28]
 4836 0e6a 5046     		mov	r0, r10
 4837 0e6c FFF7FEFF 		bl	buffer_append_float32_auto
 4838              	.LVL535:
 4839 0e70 FFF7B0BB 		b	.L354
 4840              	.L622:
 4841              		.loc 1 920 0
 4842 0e74 04A9     		add	r1, sp, #16
 4843 0e76 9DED060A 		vldr.32	s0, [sp, #24]
 4844 0e7a 5046     		mov	r0, r10
 4845 0e7c FFF7FEFF 		bl	buffer_append_float32_auto
ARM GAS  /tmp/ccXDsUE2.s 			page 86


 4846              	.LVL536:
 4847 0e80 FFF7A5BB 		b	.L353
 4848              	.LVL537:
 4849              	.L639:
 4850              	.LBE297:
 4851              	.LBB298:
 4852              	.LBB245:
 4853              		.loc 1 251 0
 4854 0e84 ABF1060B 		sub	fp, fp, #6
 4855              	.LVL538:
 4856              		.loc 1 250 0
 4857 0e88 DC48     		ldr	r0, .L670
 4858 0e8a FFF7FEFF 		bl	chMtxLock
 4859              	.LVL539:
 4860              		.loc 1 251 0
 4861 0e8e 5A46     		mov	r2, fp
 4862 0e90 E91D     		adds	r1, r5, #7
 4863 0e92 DB48     		ldr	r0, .L670+4
 4864 0e94 FFF7FEFF 		bl	memcpy
 4865              	.LVL540:
 4866              		.loc 1 252 0
 4867 0e98 0423     		movs	r3, #4
 4868              		.loc 1 253 0
 4869 0e9a 3146     		mov	r1, r6
 4870 0e9c 2046     		mov	r0, r4
 4871              		.loc 1 252 0
 4872 0e9e 1293     		str	r3, [sp, #72]
 4873              		.loc 1 253 0
 4874 0ea0 FFF7FEFF 		bl	buffer_get_uint16
 4875              	.LVL541:
 4876              		.loc 1 254 0
 4877 0ea4 0023     		movs	r3, #0
 4878 0ea6 5946     		mov	r1, fp
 4879              		.loc 1 253 0
 4880 0ea8 1690     		str	r0, [sp, #88]
 4881              		.loc 1 254 0
 4882 0eaa 6A1D     		adds	r2, r5, #5
 4883 0eac 0093     		str	r3, [sp]
 4884 0eae D448     		ldr	r0, .L670+4
 4885 0eb0 5346     		mov	r3, r10
 4886 0eb2 FFF7FEFF 		bl	lzo1x_decompress_safe
 4887              	.LVL542:
 4888              		.loc 1 255 0
 4889 0eb6 D148     		ldr	r0, .L670
 4890 0eb8 FFF7FEFF 		bl	chMtxUnlock
 4891              	.LVL543:
 4892              		.loc 1 256 0
 4893 0ebc 169B     		ldr	r3, [sp, #88]
 4894 0ebe 03F1040B 		add	fp, r3, #4
 4895              	.LVL544:
 4896 0ec2 80E4     		b	.L277
 4897              	.LVL545:
 4898              	.L620:
 4899              	.LBE245:
 4900              	.LBE298:
 4901              	.LBB299:
 4902              		.loc 1 419 0
ARM GAS  /tmp/ccXDsUE2.s 			page 87


 4903 0ec4 FFF7FEFF 		bl	mc_interface_release_motor
 4904              	.LVL546:
 4905 0ec8 FFF7F0B9 		b	.L244
 4906              	.LVL547:
 4907              	.L618:
 4908              	.LBE299:
 4909              		.loc 1 977 0
 4910 0ecc 41F27070 		movw	r0, #6000
 4911 0ed0 FFF7FEFF 		bl	nrf_driver_pause
 4912              	.LVL548:
 4913 0ed4 FFF775B9 		b	.L369
 4914              	.LVL549:
 4915              	.L617:
 4916              	.LBB300:
 4917              		.loc 1 368 0
 4918 0ed8 FFF7FEFF 		bl	mc_interface_read_reset_avg_vq
 4919              	.LVL550:
 4920 0edc 3146     		mov	r1, r6
 4921 0ede DFEDD30A 		vldr.32	s1, .L670+48
 4922 0ee2 C748     		ldr	r0, .L670+4
 4923 0ee4 FFF7FEFF 		bl	buffer_append_float32
 4924              	.LVL551:
 4925 0ee8 FFF75AB9 		b	.L300
 4926              	.L616:
 4927              		.loc 1 365 0
 4928 0eec FFF7FEFF 		bl	mc_interface_read_reset_avg_vd
 4929              	.LVL552:
 4930 0ef0 3146     		mov	r1, r6
 4931 0ef2 DFEDCE0A 		vldr.32	s1, .L670+48
 4932 0ef6 C248     		ldr	r0, .L670+4
 4933 0ef8 FFF7FEFF 		bl	buffer_append_float32
 4934              	.LVL553:
 4935 0efc FFF74DB9 		b	.L299
 4936              	.L615:
 4937              		.loc 1 357 0
 4938 0f00 FFF7FEFF 		bl	mc_interface_get_gas
 4939              	.LVL554:
 4940 0f04 0546     		mov	r5, r0
 4941 0f06 FFF7FEFF 		bl	mc_interface_get_reku
 4942              	.LVL555:
 4943 0f0a 291A     		subs	r1, r5, r0
 4944 0f0c 3246     		mov	r2, r6
 4945 0f0e 09B2     		sxth	r1, r1
 4946 0f10 BB48     		ldr	r0, .L670+4
 4947 0f12 FFF7FEFF 		bl	buffer_append_int16
 4948              	.LVL556:
 4949              		.loc 1 361 0
 4950 0f16 FFF7FEFF 		bl	mc_interface_get_min_cell_voltage_bms
 4951              	.LVL557:
 4952 0f1a 3146     		mov	r1, r6
 4953 0f1c DFEDC30A 		vldr.32	s1, .L670+48
 4954 0f20 B748     		ldr	r0, .L670+4
 4955 0f22 FFF7FEFF 		bl	buffer_append_float16
 4956              	.LVL558:
 4957              		.loc 1 362 0
 4958 0f26 FFF7FEFF 		bl	mc_interface_get_max_cell_voltage_bms
 4959              	.LVL559:
ARM GAS  /tmp/ccXDsUE2.s 			page 88


 4960 0f2a 3146     		mov	r1, r6
 4961 0f2c DFEDBF0A 		vldr.32	s1, .L670+48
 4962 0f30 B348     		ldr	r0, .L670+4
 4963 0f32 FFF7FEFF 		bl	buffer_append_float16
 4964              	.LVL560:
 4965 0f36 FFF72DB9 		b	.L298
 4966              	.L614:
 4967              		.loc 1 347 0
 4968 0f3a FFF7FEFF 		bl	app_get_configuration
 4969              	.LVL561:
 4970 0f3e 129B     		ldr	r3, [sp, #72]
 4971 0f40 5A1C     		adds	r2, r3, #1
 4972 0f42 1292     		str	r2, [sp, #72]
 4973 0f44 0278     		ldrb	r2, [r0]	@ zero_extendqisi2
 4974 0f46 08F80320 		strb	r2, [r8, r3]
 4975 0f4a FFF720B9 		b	.L297
 4976              	.L613:
 4977              		.loc 1 342 0
 4978 0f4e FFF7FEFF 		bl	mc_interface_get_pid_pos_now
 4979              	.LVL562:
 4980 0f52 3146     		mov	r1, r6
 4981 0f54 DFEDAB0A 		vldr.32	s1, .L670+8
 4982 0f58 A948     		ldr	r0, .L670+4
 4983 0f5a FFF7FEFF 		bl	buffer_append_float32
 4984              	.LVL563:
 4985 0f5e FFF713B9 		b	.L296
 4986              	.L612:
 4987              		.loc 1 334 0
 4988 0f62 129D     		ldr	r5, [sp, #72]
 4989 0f64 6B1C     		adds	r3, r5, #1
 4990 0f66 1293     		str	r3, [sp, #72]
 4991 0f68 FFF7FEFF 		bl	mc_interface_get_fault
 4992              	.LVL564:
 4993 0f6c 08F80500 		strb	r0, [r8, r5]
 4994 0f70 FFF707B9 		b	.L295
 4995              	.L611:
 4996              		.loc 1 331 0
 4997 0f74 0020     		movs	r0, #0
 4998 0f76 FFF7FEFF 		bl	mc_interface_get_tachometer_abs_value
 4999              	.LVL565:
 5000 0f7a 3246     		mov	r2, r6
 5001 0f7c 0146     		mov	r1, r0
 5002 0f7e A048     		ldr	r0, .L670+4
 5003 0f80 FFF7FEFF 		bl	buffer_append_uint32
 5004              	.LVL566:
 5005 0f84 FFF7FAB8 		b	.L294
 5006              	.L610:
 5007              		.loc 1 328 0
 5008 0f88 0020     		movs	r0, #0
 5009 0f8a FFF7FEFF 		bl	mc_interface_get_tachometer_value
 5010              	.LVL567:
 5011 0f8e 3246     		mov	r2, r6
 5012 0f90 0146     		mov	r1, r0
 5013 0f92 9B48     		ldr	r0, .L670+4
 5014 0f94 FFF7FEFF 		bl	buffer_append_int32
 5015              	.LVL568:
 5016 0f98 FFF7EDB8 		b	.L293
ARM GAS  /tmp/ccXDsUE2.s 			page 89


 5017              	.L609:
 5018              		.loc 1 325 0
 5019 0f9c 0020     		movs	r0, #0
 5020 0f9e FFF7FEFF 		bl	mc_interface_get_watt_hours_charged
 5021              	.LVL569:
 5022 0fa2 3146     		mov	r1, r6
 5023 0fa4 DFED980A 		vldr.32	s1, .L670+12
 5024 0fa8 9548     		ldr	r0, .L670+4
 5025 0faa FFF7FEFF 		bl	buffer_append_float32
 5026              	.LVL570:
 5027 0fae FFF7DFB8 		b	.L292
 5028              	.L608:
 5029              		.loc 1 322 0
 5030 0fb2 0020     		movs	r0, #0
 5031 0fb4 FFF7FEFF 		bl	mc_interface_get_watt_hours
 5032              	.LVL571:
 5033 0fb8 3146     		mov	r1, r6
 5034 0fba DFED930A 		vldr.32	s1, .L670+12
 5035 0fbe 9048     		ldr	r0, .L670+4
 5036 0fc0 FFF7FEFF 		bl	buffer_append_float32
 5037              	.LVL572:
 5038 0fc4 FFF7D1B8 		b	.L291
 5039              	.L607:
 5040              		.loc 1 319 0
 5041 0fc8 0020     		movs	r0, #0
 5042 0fca FFF7FEFF 		bl	mc_interface_get_amp_hours_charged
 5043              	.LVL573:
 5044 0fce 3146     		mov	r1, r6
 5045 0fd0 DFED8D0A 		vldr.32	s1, .L670+12
 5046 0fd4 8A48     		ldr	r0, .L670+4
 5047 0fd6 FFF7FEFF 		bl	buffer_append_float32
 5048              	.LVL574:
 5049 0fda FFF7C3B8 		b	.L290
 5050              	.L606:
 5051              		.loc 1 316 0
 5052 0fde 0020     		movs	r0, #0
 5053 0fe0 FFF7FEFF 		bl	mc_interface_get_amp_hours
 5054              	.LVL575:
 5055 0fe4 3146     		mov	r1, r6
 5056 0fe6 DFED880A 		vldr.32	s1, .L670+12
 5057 0fea 8548     		ldr	r0, .L670+4
 5058 0fec FFF7FEFF 		bl	buffer_append_float32
 5059              	.LVL576:
 5060 0ff0 FFF7B5B8 		b	.L289
 5061              	.L605:
 5062              		.loc 1 313 0
 5063 0ff4 854B     		ldr	r3, .L670+16
 5064 0ff6 9FED867A 		vldr.32	s14, .L670+20
 5065 0ffa DB8A     		ldrh	r3, [r3, #22]
 5066 0ffc 9FED850A 		vldr.32	s0, .L670+24
 5067 1000 7F48     		ldr	r0, .L670+4
 5068 1002 07EE903A 		vmov	s15, r3	@ int
 5069 1006 F8EE677A 		vcvt.f32.u32	s15, s15
 5070 100a 3146     		mov	r1, r6
 5071 100c 67EE877A 		vmul.f32	s15, s15, s14
 5072 1010 F2EE040A 		vmov.f32	s1, #1.0e+1
 5073 1014 27EE800A 		vmul.f32	s0, s15, s0
ARM GAS  /tmp/ccXDsUE2.s 			page 90


 5074 1018 FFF7FEFF 		bl	buffer_append_float16
 5075              	.LVL577:
 5076 101c FFF79CB8 		b	.L288
 5077              	.L604:
 5078              		.loc 1 310 0
 5079 1020 FFF7FEFF 		bl	mc_interface_get_rpm
 5080              	.LVL578:
 5081 1024 3146     		mov	r1, r6
 5082 1026 F7EE000A 		vmov.f32	s1, #1.0e+0
 5083 102a 7548     		ldr	r0, .L670+4
 5084 102c FFF7FEFF 		bl	buffer_append_float32
 5085              	.LVL579:
 5086 1030 FFF78FB8 		b	.L287
 5087              	.L603:
 5088              		.loc 1 307 0
 5089 1034 FFF7FEFF 		bl	mc_interface_get_duty_cycle_now
 5090              	.LVL580:
 5091 1038 3146     		mov	r1, r6
 5092 103a DFED7C0A 		vldr.32	s1, .L670+48
 5093 103e 7048     		ldr	r0, .L670+4
 5094 1040 FFF7FEFF 		bl	buffer_append_float16
 5095              	.LVL581:
 5096 1044 FFF782B8 		b	.L286
 5097              	.L602:
 5098              		.loc 1 304 0
 5099 1048 FFF7FEFF 		bl	mc_interface_read_reset_avg_iq
 5100              	.LVL582:
 5101 104c 3146     		mov	r1, r6
 5102 104e DFED720A 		vldr.32	s1, .L670+28
 5103 1052 6B48     		ldr	r0, .L670+4
 5104 1054 FFF7FEFF 		bl	buffer_append_float32
 5105              	.LVL583:
 5106 1058 FFF775B8 		b	.L285
 5107              	.L601:
 5108              		.loc 1 301 0
 5109 105c FFF7FEFF 		bl	mc_interface_read_reset_avg_id
 5110              	.LVL584:
 5111 1060 3146     		mov	r1, r6
 5112 1062 DFED6D0A 		vldr.32	s1, .L670+28
 5113 1066 6648     		ldr	r0, .L670+4
 5114 1068 FFF7FEFF 		bl	buffer_append_float32
 5115              	.LVL585:
 5116 106c FFF768B8 		b	.L284
 5117              	.L600:
 5118              		.loc 1 298 0
 5119 1070 FFF7FEFF 		bl	mc_interface_read_reset_avg_input_current
 5120              	.LVL586:
 5121 1074 3146     		mov	r1, r6
 5122 1076 DFED680A 		vldr.32	s1, .L670+28
 5123 107a 6148     		ldr	r0, .L670+4
 5124 107c FFF7FEFF 		bl	buffer_append_float32
 5125              	.LVL587:
 5126 1080 FFF75BB8 		b	.L283
 5127              	.L599:
 5128              		.loc 1 295 0
 5129 1084 FFF7FEFF 		bl	mc_interface_read_reset_avg_motor_current
 5130              	.LVL588:
ARM GAS  /tmp/ccXDsUE2.s 			page 91


 5131 1088 3146     		mov	r1, r6
 5132 108a DFED630A 		vldr.32	s1, .L670+28
 5133 108e 5C48     		ldr	r0, .L670+4
 5134 1090 FFF7FEFF 		bl	buffer_append_float32
 5135              	.LVL589:
 5136 1094 FFF74EB8 		b	.L282
 5137              	.L598:
 5138              		.loc 1 292 0
 5139 1098 FFF7FEFF 		bl	mc_interface_temp_motor_filtered
 5140              	.LVL590:
 5141 109c 3146     		mov	r1, r6
 5142 109e F2EE040A 		vmov.f32	s1, #1.0e+1
 5143 10a2 5748     		ldr	r0, .L670+4
 5144 10a4 FFF7FEFF 		bl	buffer_append_float16
 5145              	.LVL591:
 5146 10a8 FFF741B8 		b	.L281
 5147              	.LVL592:
 5148              	.L597:
 5149              	.LBB220:
 5150              		.loc 1 283 0
 5151 10ac 28A9     		add	r1, sp, #160
 5152              		.loc 1 284 0
 5153 10ae 2046     		mov	r0, r4
 5154              		.loc 1 283 0
 5155 10b0 41F8485D 		str	r5, [r1, #-72]!
 5156              		.loc 1 284 0
 5157 10b4 FFF7FEFF 		bl	buffer_get_uint32
 5158              	.LVL593:
 5159              		.loc 1 285 0
 5160 10b8 12AE     		add	r6, sp, #72
 5161              		.loc 1 284 0
 5162 10ba 0446     		mov	r4, r0
 5163              	.LVL594:
 5164              		.loc 1 285 0
 5165 10bc 0146     		mov	r1, r0
 5166 10be 3246     		mov	r2, r6
 5167 10c0 4046     		mov	r0, r8
 5168              	.LVL595:
 5169 10c2 FFF7FEFF 		bl	buffer_append_uint32
 5170              	.LVL596:
 5171              	.LBE220:
 5172              		.loc 1 288 0
 5173 10c6 E007     		lsls	r0, r4, #31
 5174 10c8 7FF52EA8 		bpl	.L280
 5175 10cc FFF724B8 		b	.L279
 5176              	.LVL597:
 5177              	.L303:
 5178              	.LBE300:
 5179              		.loc 1 459 0
 5180 10d0 5248     		ldr	r0, .L670+32
 5181 10d2 FFF7FEFF 		bl	commands_printf
 5182              	.LVL598:
 5183 10d6 FFF769B8 		b	.L217
 5184              	.L638:
 5185              		.loc 1 466 0
 5186 10da FFF7FEFF 		bl	mc_interface_get_configuration
 5187              	.LVL599:
ARM GAS  /tmp/ccXDsUE2.s 			page 92


 5188 10de 4FF4E472 		mov	r2, #456
 5189 10e2 0146     		mov	r1, r0
 5190 10e4 4E48     		ldr	r0, .L670+36
 5191 10e6 FFF7FEFF 		bl	memcpy
 5192              	.LVL600:
 5193 10ea FFF760BB 		b	.L305
 5194              	.L640:
 5195              		.loc 1 239 0
 5196 10ee 4FF4FA60 		mov	r0, #2000
 5197 10f2 FFF7FEFF 		bl	nrf_driver_pause
 5198              	.LVL601:
 5199 10f6 31E4     		b	.L276
 5200              	.L590:
 5201              	.LBB301:
 5202              		.loc 1 230 0
 5203 10f8 A8F10708 		sub	r8, r8, #7
 5204              		.loc 1 229 0
 5205 10fc 3F48     		ldr	r0, .L670
 5206 10fe FFF7FEFF 		bl	chMtxLock
 5207              	.LVL602:
 5208              		.loc 1 231 0
 5209 1102 28AE     		add	r6, sp, #160
 5210              		.loc 1 230 0
 5211 1104 4246     		mov	r2, r8
 5212 1106 E91D     		adds	r1, r5, #7
 5213 1108 3D48     		ldr	r0, .L670+4
 5214 110a FFF7FEFF 		bl	memcpy
 5215              	.LVL603:
 5216              		.loc 1 231 0
 5217 110e 0423     		movs	r3, #4
 5218 1110 46F8583D 		str	r3, [r6, #-88]!
 5219              		.loc 1 232 0
 5220 1114 2046     		mov	r0, r4
 5221 1116 3146     		mov	r1, r6
 5222 1118 FFF7FEFF 		bl	buffer_get_uint16
 5223              	.LVL604:
 5224 111c 0DF1A00A 		add	r10, sp, #160
 5225              		.loc 1 233 0
 5226 1120 0022     		movs	r2, #0
 5227              		.loc 1 232 0
 5228 1122 4AF8480D 		str	r0, [r10, #-72]!
 5229              		.loc 1 233 0
 5230 1126 4146     		mov	r1, r8
 5231 1128 5346     		mov	r3, r10
 5232 112a 0092     		str	r2, [sp]
 5233 112c 3448     		ldr	r0, .L670+4
 5234 112e 6A1D     		adds	r2, r5, #5
 5235 1130 FFF7FEFF 		bl	lzo1x_decompress_safe
 5236              	.LVL605:
 5237              		.loc 1 234 0
 5238 1134 3148     		ldr	r0, .L670
 5239 1136 FFF7FEFF 		bl	chMtxUnlock
 5240              	.LVL606:
 5241              		.loc 1 235 0
 5242 113a 169B     		ldr	r3, [sp, #88]
 5243 113c 03F1040B 		add	fp, r3, #4
 5244              	.LVL607:
ARM GAS  /tmp/ccXDsUE2.s 			page 93


 5245 1140 07E4     		b	.L275
 5246              	.L306:
 5247              	.LBE301:
 5248              		.loc 1 488 0
 5249 1142 3848     		ldr	r0, .L670+40
 5250 1144 FFF7FEFF 		bl	commands_printf
 5251              	.LVL608:
 5252 1148 FFF730B8 		b	.L217
 5253              	.L621:
 5254              		.loc 1 495 0
 5255 114c FFF7FEFF 		bl	app_get_configuration
 5256              	.LVL609:
 5257 1150 4FF4BC72 		mov	r2, #376
 5258 1154 0146     		mov	r1, r0
 5259 1156 3448     		ldr	r0, .L670+44
 5260 1158 FFF7FEFF 		bl	memcpy
 5261              	.LVL610:
 5262 115c FFF738B9 		b	.L308
 5263              	.L310:
 5264              	.LBB302:
 5265              		.loc 1 606 0
 5266 1160 0023     		movs	r3, #0
 5267 1162 8DF86E30 		strb	r3, [sp, #110]
 5268              		.loc 1 607 0
 5269 1166 8DF86F30 		strb	r3, [sp, #111]
 5270 116a FFF7EFB9 		b	.L311
 5271              	.L619:
 5272              	.LBE302:
 5273              		.loc 1 203 0
 5274 116e 41F27070 		movw	r0, #6000
 5275 1172 FFF7FEFF 		bl	nrf_driver_pause
 5276              	.LVL611:
 5277 1176 FFF75BB8 		b	.L273
 5278              	.LVL612:
 5279              	.L631:
 5280              	.LBB303:
 5281              		.loc 1 950 0
 5282 117a 04A9     		add	r1, sp, #16
 5283 117c 9DED0F0A 		vldr.32	s0, [sp, #60]
 5284 1180 5046     		mov	r0, r10
 5285 1182 FFF7FEFF 		bl	buffer_append_float32_auto
 5286              	.LVL613:
 5287 1186 FFF73DBA 		b	.L362
 5288              	.L630:
 5289              		.loc 1 946 0
 5290 118a 04A9     		add	r1, sp, #16
 5291 118c 9DED0E0A 		vldr.32	s0, [sp, #56]
 5292 1190 5046     		mov	r0, r10
 5293 1192 FFF7FEFF 		bl	buffer_append_float32_auto
 5294              	.LVL614:
 5295 1196 FFF732BA 		b	.L361
 5296              	.L629:
 5297              		.loc 1 943 0
 5298 119a 04A9     		add	r1, sp, #16
 5299 119c 9DED0D0A 		vldr.32	s0, [sp, #52]
 5300 11a0 5046     		mov	r0, r10
 5301 11a2 FFF7FEFF 		bl	buffer_append_float32_auto
ARM GAS  /tmp/ccXDsUE2.s 			page 94


 5302              	.LVL615:
 5303 11a6 FFF727BA 		b	.L360
 5304              	.L628:
 5305              		.loc 1 940 0
 5306 11aa 04A9     		add	r1, sp, #16
 5307 11ac 9DED0C0A 		vldr.32	s0, [sp, #48]
 5308 11b0 5046     		mov	r0, r10
 5309 11b2 FFF7FEFF 		bl	buffer_append_float32_auto
 5310              	.LVL616:
 5311 11b6 FFF71CBA 		b	.L359
 5312              	.L627:
 5313              		.loc 1 936 0
 5314 11ba 04A9     		add	r1, sp, #16
 5315 11bc 9DED0B0A 		vldr.32	s0, [sp, #44]
 5316 11c0 5046     		mov	r0, r10
 5317 11c2 FFF7FEFF 		bl	buffer_append_float32_auto
 5318              	.LVL617:
 5319 11c6 FFF711BA 		b	.L358
 5320              	.LVL618:
 5321              	.L626:
 5322              		.loc 1 933 0
 5323 11ca 04A9     		add	r1, sp, #16
 5324 11cc 9DED0A0A 		vldr.32	s0, [sp, #40]
 5325 11d0 5046     		mov	r0, r10
 5326 11d2 FFF7FEFF 		bl	buffer_append_float32_auto
 5327              	.LVL619:
 5328 11d6 FFF706BA 		b	.L357
 5329              	.L625:
 5330              		.loc 1 930 0
 5331 11da 04A9     		add	r1, sp, #16
 5332 11dc 9DED090A 		vldr.32	s0, [sp, #36]
 5333 11e0 5046     		mov	r0, r10
 5334 11e2 FFF7FEFF 		bl	buffer_append_float32_auto
 5335              	.LVL620:
 5336 11e6 FFF7FBB9 		b	.L356
 5337              	.L624:
 5338              		.loc 1 926 0
 5339 11ea 04A9     		add	r1, sp, #16
 5340 11ec 9DED080A 		vldr.32	s0, [sp, #32]
 5341 11f0 5046     		mov	r0, r10
 5342 11f2 FFF7FEFF 		bl	buffer_append_float32_auto
 5343              	.LVL621:
 5344 11f6 FFF7F0B9 		b	.L355
 5345              	.L671:
 5346 11fa 00BF     		.align	2
 5347              	.L670:
 5348 11fc 00000000 		.word	.LANCHOR11
 5349 1200 00000000 		.word	.LANCHOR17
 5350 1204 00247449 		.word	1232348160
 5351 1208 00401C46 		.word	1176256512
 5352 120c 00000000 		.word	ADC_Value
 5353 1210 C07B523A 		.word	978484160
 5354 1214 BAE8B241 		.word	1102244026
 5355 1218 0000C842 		.word	1120403456
 5356 121c 08000000 		.word	.LC2
 5357 1220 00000000 		.word	.LANCHOR18
 5358 1224 40000000 		.word	.LC3
ARM GAS  /tmp/ccXDsUE2.s 			page 95


 5359 1228 00000000 		.word	.LANCHOR19
 5360 122c 00007A44 		.word	1148846080
 5361              	.LVL622:
 5362              	.L655:
 5363              	.LBE303:
 5364              	.LBB304:
 5365              		.loc 1 747 0
 5366 1230 FFF7FEFF 		bl	mc_interface_get_distance_abs
 5367              	.LVL623:
 5368 1234 2946     		mov	r1, r5
 5369 1236 5FED030A 		vldr.32	s1, .L670+48
 5370 123a 5248     		ldr	r0, .L672
 5371 123c FFF7FEFF 		bl	buffer_append_float32
 5372              	.LVL624:
 5373 1240 83E4     		b	.L333
 5374              	.L654:
 5375              		.loc 1 744 0
 5376 1242 FFF7FEFF 		bl	mc_interface_get_distance
 5377              	.LVL625:
 5378 1246 2946     		mov	r1, r5
 5379 1248 DFED4F0A 		vldr.32	s1, .L672+4
 5380 124c 4D48     		ldr	r0, .L672
 5381 124e FFF7FEFF 		bl	buffer_append_float32
 5382              	.LVL626:
 5383 1252 77E4     		b	.L332
 5384              	.L653:
 5385              		.loc 1 741 0
 5386 1254 2946     		mov	r1, r5
 5387 1256 DFED4D0A 		vldr.32	s1, .L672+8
 5388 125a 4A48     		ldr	r0, .L672
 5389 125c 9DED190A 		vldr.32	s0, [sp, #100]
 5390 1260 FFF7FEFF 		bl	buffer_append_float32
 5391              	.LVL627:
 5392 1264 6BE4     		b	.L331
 5393              	.L652:
 5394              		.loc 1 738 0
 5395 1266 2946     		mov	r1, r5
 5396 1268 DFED480A 		vldr.32	s1, .L672+8
 5397 126c 4548     		ldr	r0, .L672
 5398 126e 9DED180A 		vldr.32	s0, [sp, #96]
 5399 1272 FFF7FEFF 		bl	buffer_append_float32
 5400              	.LVL628:
 5401 1276 5FE4     		b	.L330
 5402              	.L651:
 5403              		.loc 1 735 0
 5404 1278 FFF7FEFF 		bl	mc_interface_get_voltage_bms
 5405              	.LVL629:
 5406 127c 2946     		mov	r1, r5
 5407 127e DFED430A 		vldr.32	s1, .L672+8
 5408 1282 4048     		ldr	r0, .L672
 5409 1284 FFF7FEFF 		bl	buffer_append_float32
 5410              	.LVL630:
 5411 1288 53E4     		b	.L329
 5412              	.L650:
 5413              		.loc 1 731 0
 5414 128a 2946     		mov	r1, r5
 5415 128c DFED3F0A 		vldr.32	s1, .L672+8
ARM GAS  /tmp/ccXDsUE2.s 			page 96


 5416 1290 3C48     		ldr	r0, .L672
 5417 1292 9DED160A 		vldr.32	s0, [sp, #88]
 5418 1296 FFF7FEFF 		bl	buffer_append_float32
 5419              	.LVL631:
 5420 129a 47E4     		b	.L328
 5421              	.L649:
 5422              		.loc 1 728 0
 5423 129c B0EE480A 		vmov.f32	s0, s16
 5424 12a0 2946     		mov	r1, r5
 5425 12a2 DFED390A 		vldr.32	s1, .L672+4
 5426 12a6 3748     		ldr	r0, .L672
 5427 12a8 FFF7FEFF 		bl	buffer_append_float16
 5428              	.LVL632:
 5429 12ac 3BE4     		b	.L327
 5430              	.L648:
 5431              		.loc 1 725 0
 5432 12ae 384B     		ldr	r3, .L672+12
 5433 12b0 9FED387A 		vldr.32	s14, .L672+16
 5434 12b4 DB8A     		ldrh	r3, [r3, #22]
 5435 12b6 9FED380A 		vldr.32	s0, .L672+20
 5436 12ba 3248     		ldr	r0, .L672
 5437 12bc 07EE903A 		vmov	s15, r3	@ int
 5438 12c0 F8EE677A 		vcvt.f32.u32	s15, s15
 5439 12c4 2946     		mov	r1, r5
 5440 12c6 67EE877A 		vmul.f32	s15, s15, s14
 5441 12ca F2EE040A 		vmov.f32	s1, #1.0e+1
 5442 12ce 27EE800A 		vmul.f32	s0, s15, s0
 5443 12d2 FFF7FEFF 		bl	buffer_append_float16
 5444              	.LVL633:
 5445 12d6 23E4     		b	.L326
 5446              	.L647:
 5447              		.loc 1 722 0
 5448 12d8 FFF7FEFF 		bl	mc_interface_get_speed
 5449              	.LVL634:
 5450 12dc 2946     		mov	r1, r5
 5451 12de DFED2A0A 		vldr.32	s1, .L672+4
 5452 12e2 2848     		ldr	r0, .L672
 5453 12e4 FFF7FEFF 		bl	buffer_append_float32
 5454              	.LVL635:
 5455 12e8 17E4     		b	.L325
 5456              	.L646:
 5457              		.loc 1 719 0
 5458 12ea FFF7FEFF 		bl	mc_interface_get_rpm
 5459              	.LVL636:
 5460 12ee 2946     		mov	r1, r5
 5461 12f0 F7EE000A 		vmov.f32	s1, #1.0e+0
 5462 12f4 2348     		ldr	r0, .L672
 5463 12f6 FFF7FEFF 		bl	buffer_append_float32
 5464              	.LVL637:
 5465 12fa 0BE4     		b	.L324
 5466              	.L645:
 5467              		.loc 1 716 0
 5468 12fc FFF7FEFF 		bl	mc_interface_get_duty_cycle_now
 5469              	.LVL638:
 5470 1300 2946     		mov	r1, r5
 5471 1302 DFED210A 		vldr.32	s1, .L672+4
 5472 1306 1F48     		ldr	r0, .L672
ARM GAS  /tmp/ccXDsUE2.s 			page 97


 5473 1308 FFF7FEFF 		bl	buffer_append_float16
 5474              	.LVL639:
 5475 130c FFF7FFBB 		b	.L323
 5476              	.L644:
 5477              		.loc 1 713 0
 5478 1310 2946     		mov	r1, r5
 5479 1312 DFED220A 		vldr.32	s1, .L672+24
 5480 1316 1B48     		ldr	r0, .L672
 5481 1318 9DED1B0A 		vldr.32	s0, [sp, #108]
 5482 131c FFF7FEFF 		bl	buffer_append_float32
 5483              	.LVL640:
 5484 1320 FFF7F2BB 		b	.L322
 5485              	.L643:
 5486              		.loc 1 710 0
 5487 1324 2946     		mov	r1, r5
 5488 1326 DFED1D0A 		vldr.32	s1, .L672+24
 5489 132a 1648     		ldr	r0, .L672
 5490 132c 9DED1A0A 		vldr.32	s0, [sp, #104]
 5491 1330 FFF7FEFF 		bl	buffer_append_float32
 5492              	.LVL641:
 5493 1334 FFF7E5BB 		b	.L321
 5494              	.L642:
 5495              		.loc 1 707 0
 5496 1338 FFF7FEFF 		bl	mc_interface_temp_motor_filtered
 5497              	.LVL642:
 5498 133c 2946     		mov	r1, r5
 5499 133e F2EE040A 		vmov.f32	s1, #1.0e+1
 5500 1342 1048     		ldr	r0, .L672
 5501 1344 FFF7FEFF 		bl	buffer_append_float16
 5502              	.LVL643:
 5503 1348 FFF7D8BB 		b	.L320
 5504              	.LVL644:
 5505              	.L641:
 5506              	.LBB263:
 5507              		.loc 1 698 0
 5508 134c 28A9     		add	r1, sp, #160
 5509              		.loc 1 699 0
 5510 134e 2046     		mov	r0, r4
 5511              		.loc 1 698 0
 5512 1350 41F8585D 		str	r5, [r1, #-88]!
 5513              		.loc 1 699 0
 5514 1354 FFF7FEFF 		bl	buffer_get_uint32
 5515              	.LVL645:
 5516              		.loc 1 700 0
 5517 1358 0FAD     		add	r5, sp, #60
 5518 135a 0146     		mov	r1, r0
 5519              		.loc 1 699 0
 5520 135c 0446     		mov	r4, r0
 5521              	.LVL646:
 5522              		.loc 1 700 0
 5523 135e 2A46     		mov	r2, r5
 5524 1360 4046     		mov	r0, r8
 5525              	.LVL647:
 5526 1362 FFF7FEFF 		bl	buffer_append_uint32
 5527              	.LVL648:
 5528              	.LBE263:
 5529              		.loc 1 703 0
ARM GAS  /tmp/ccXDsUE2.s 			page 98


 5530 1366 E107     		lsls	r1, r4, #31
 5531 1368 7FF5C5AB 		bpl	.L319
 5532 136c FFF7BBBB 		b	.L318
 5533              	.LVL649:
 5534              	.L659:
 5535              		.loc 1 766 0
 5536 1370 2946     		mov	r1, r5
 5537 1372 DFED050A 		vldr.32	s1, .L672+4
 5538 1376 0348     		ldr	r0, .L672
 5539 1378 9DED0C0A 		vldr.32	s0, [sp, #48]
 5540 137c FFF7FEFF 		bl	buffer_append_float32
 5541              	.LVL650:
 5542 1380 FFF7F8BB 		b	.L338
 5543              	.L673:
 5544              		.align	2
 5545              	.L672:
 5546 1384 00000000 		.word	.LANCHOR17
 5547 1388 00007A44 		.word	1148846080
 5548 138c 00401C46 		.word	1176256512
 5549 1390 00000000 		.word	ADC_Value
 5550 1394 C07B523A 		.word	978484160
 5551 1398 BAE8B241 		.word	1102244026
 5552 139c 0000C842 		.word	1120403456
 5553              	.LBE304:
 5554              		.cfi_endproc
 5555              	.LFE263:
 5556              		.size	commands_process_packet, .-commands_process_packet
 5557              		.section	.text.commands_init_plot,"ax",%progbits
 5558              		.align	1
 5559              		.p2align 4,,15
 5560              		.global	commands_init_plot
 5561              		.syntax unified
 5562              		.thumb
 5563              		.thumb_func
 5564              		.fpu fpv4-sp-d16
 5565              		.type	commands_init_plot, %function
 5566              	commands_init_plot:
 5567              	.LFB274:
 5568              		.loc 1 1172 0
 5569              		.cfi_startproc
 5570              		@ args = 0, pretend = 0, frame = 0
 5571              		@ frame_needed = 0, uses_anonymous_args = 0
 5572              	.LVL651:
 5573 0000 F8B5     		push	{r3, r4, r5, r6, r7, lr}
 5574              		.cfi_def_cfa_offset 24
 5575              		.cfi_offset 3, -24
 5576              		.cfi_offset 4, -20
 5577              		.cfi_offset 5, -16
 5578              		.cfi_offset 6, -12
 5579              		.cfi_offset 7, -8
 5580              		.cfi_offset 14, -4
 5581              		.loc 1 1172 0
 5582 0002 0446     		mov	r4, r0
 5583              		.loc 1 1175 0
 5584 0004 174D     		ldr	r5, .L680
 5585              		.loc 1 1174 0
 5586 0006 1848     		ldr	r0, .L680+4
ARM GAS  /tmp/ccXDsUE2.s 			page 99


 5587              	.LVL652:
 5588              		.loc 1 1172 0
 5589 0008 0E46     		mov	r6, r1
 5590              		.loc 1 1174 0
 5591 000a FFF7FEFF 		bl	chMtxLock
 5592              	.LVL653:
 5593              		.loc 1 1175 0
 5594 000e 4B23     		movs	r3, #75
 5595              		.loc 1 1176 0
 5596 0010 2046     		mov	r0, r4
 5597              		.loc 1 1175 0
 5598 0012 2B70     		strb	r3, [r5]
 5599              		.loc 1 1176 0
 5600 0014 FFF7FEFF 		bl	strlen
 5601              	.LVL654:
 5602 0018 2146     		mov	r1, r4
 5603 001a 0246     		mov	r2, r0
 5604 001c 681C     		adds	r0, r5, #1
 5605 001e FFF7FEFF 		bl	memcpy
 5606              	.LVL655:
 5607              		.loc 1 1177 0
 5608 0022 2046     		mov	r0, r4
 5609 0024 FFF7FEFF 		bl	strlen
 5610              	.LVL656:
 5611 0028 431C     		adds	r3, r0, #1
 5612              	.LVL657:
 5613              		.loc 1 1178 0
 5614 002a 841C     		adds	r4, r0, #2
 5615              	.LVL658:
 5616 002c 0027     		movs	r7, #0
 5617              		.loc 1 1179 0
 5618 002e 3046     		mov	r0, r6
 5619              		.loc 1 1178 0
 5620 0030 EF54     		strb	r7, [r5, r3]
 5621              		.loc 1 1179 0
 5622 0032 FFF7FEFF 		bl	strlen
 5623              	.LVL659:
 5624 0036 3146     		mov	r1, r6
 5625 0038 0246     		mov	r2, r0
 5626 003a 2819     		adds	r0, r5, r4
 5627 003c FFF7FEFF 		bl	memcpy
 5628              	.LVL660:
 5629              		.loc 1 1180 0
 5630 0040 3046     		mov	r0, r6
 5631 0042 FFF7FEFF 		bl	strlen
 5632              	.LVL661:
 5633              	.LBB305:
 5634              	.LBB306:
 5635              		.loc 1 91 0
 5636 0046 094B     		ldr	r3, .L680+8
 5637              	.LBE306:
 5638              	.LBE305:
 5639              		.loc 1 1180 0
 5640 0048 2044     		add	r0, r0, r4
 5641              	.LVL662:
 5642              	.LBB309:
 5643              	.LBB307:
ARM GAS  /tmp/ccXDsUE2.s 			page 100


 5644              		.loc 1 91 0
 5645 004a 1A68     		ldr	r2, [r3]
 5646              	.LBE307:
 5647              	.LBE309:
 5648              		.loc 1 1181 0
 5649 004c 2F54     		strb	r7, [r5, r0]
 5650              	.LVL663:
 5651              	.LBB310:
 5652              	.LBB308:
 5653              		.loc 1 91 0
 5654 004e 1AB1     		cbz	r2, .L675
 5655 0050 411C     		adds	r1, r0, #1
 5656              	.LVL664:
 5657              		.loc 1 92 0
 5658 0052 1B68     		ldr	r3, [r3]
 5659 0054 2846     		mov	r0, r5
 5660 0056 9847     		blx	r3
 5661              	.LVL665:
 5662              	.L675:
 5663              	.LBE308:
 5664              	.LBE310:
 5665              		.loc 1 1183 0
 5666 0058 0348     		ldr	r0, .L680+4
 5667              		.loc 1 1184 0
 5668 005a BDE8F840 		pop	{r3, r4, r5, r6, r7, lr}
 5669              		.cfi_restore 14
 5670              		.cfi_restore 7
 5671              		.cfi_restore 6
 5672              		.cfi_restore 5
 5673              		.cfi_restore 4
 5674              		.cfi_restore 3
 5675              		.cfi_def_cfa_offset 0
 5676              	.LVL666:
 5677              		.loc 1 1183 0
 5678 005e FFF7FEBF 		b	chMtxUnlock
 5679              	.LVL667:
 5680              	.L681:
 5681 0062 00BF     		.align	2
 5682              	.L680:
 5683 0064 00000000 		.word	.LANCHOR17
 5684 0068 00000000 		.word	.LANCHOR11
 5685 006c 00000000 		.word	.LANCHOR0
 5686              		.cfi_endproc
 5687              	.LFE274:
 5688              		.size	commands_init_plot, .-commands_init_plot
 5689              		.section	.text.commands_plot_add_graph,"ax",%progbits
 5690              		.align	1
 5691              		.p2align 4,,15
 5692              		.global	commands_plot_add_graph
 5693              		.syntax unified
 5694              		.thumb
 5695              		.thumb_func
 5696              		.fpu fpv4-sp-d16
 5697              		.type	commands_plot_add_graph, %function
 5698              	commands_plot_add_graph:
 5699              	.LFB275:
 5700              		.loc 1 1186 0
ARM GAS  /tmp/ccXDsUE2.s 			page 101


 5701              		.cfi_startproc
 5702              		@ args = 0, pretend = 0, frame = 0
 5703              		@ frame_needed = 0, uses_anonymous_args = 0
 5704              	.LVL668:
 5705 0000 38B5     		push	{r3, r4, r5, lr}
 5706              		.cfi_def_cfa_offset 16
 5707              		.cfi_offset 3, -16
 5708              		.cfi_offset 4, -12
 5709              		.cfi_offset 5, -8
 5710              		.cfi_offset 14, -4
 5711              		.loc 1 1186 0
 5712 0002 0546     		mov	r5, r0
 5713              		.loc 1 1189 0
 5714 0004 0F4C     		ldr	r4, .L688
 5715              		.loc 1 1188 0
 5716 0006 1048     		ldr	r0, .L688+4
 5717              	.LVL669:
 5718 0008 FFF7FEFF 		bl	chMtxLock
 5719              	.LVL670:
 5720              		.loc 1 1189 0
 5721 000c 4D23     		movs	r3, #77
 5722              		.loc 1 1190 0
 5723 000e 2846     		mov	r0, r5
 5724              		.loc 1 1189 0
 5725 0010 2370     		strb	r3, [r4]
 5726              		.loc 1 1190 0
 5727 0012 FFF7FEFF 		bl	strlen
 5728              	.LVL671:
 5729 0016 2946     		mov	r1, r5
 5730 0018 0246     		mov	r2, r0
 5731 001a 601C     		adds	r0, r4, #1
 5732 001c FFF7FEFF 		bl	memcpy
 5733              	.LVL672:
 5734              		.loc 1 1191 0
 5735 0020 2846     		mov	r0, r5
 5736 0022 FFF7FEFF 		bl	strlen
 5737              	.LVL673:
 5738              	.LBB311:
 5739              	.LBB312:
 5740              		.loc 1 91 0
 5741 0026 094B     		ldr	r3, .L688+8
 5742              	.LBE312:
 5743              	.LBE311:
 5744              		.loc 1 1191 0
 5745 0028 0130     		adds	r0, r0, #1
 5746              	.LVL674:
 5747              	.LBB315:
 5748              	.LBB313:
 5749              		.loc 1 91 0
 5750 002a 1A68     		ldr	r2, [r3]
 5751              	.LBE313:
 5752              	.LBE315:
 5753              		.loc 1 1192 0
 5754 002c 0021     		movs	r1, #0
 5755 002e 2154     		strb	r1, [r4, r0]
 5756              	.LVL675:
 5757              	.LBB316:
ARM GAS  /tmp/ccXDsUE2.s 			page 102


 5758              	.LBB314:
 5759              		.loc 1 91 0
 5760 0030 1AB1     		cbz	r2, .L683
 5761 0032 411C     		adds	r1, r0, #1
 5762              	.LVL676:
 5763              		.loc 1 92 0
 5764 0034 1B68     		ldr	r3, [r3]
 5765 0036 2046     		mov	r0, r4
 5766 0038 9847     		blx	r3
 5767              	.LVL677:
 5768              	.L683:
 5769              	.LBE314:
 5770              	.LBE316:
 5771              		.loc 1 1194 0
 5772 003a 0348     		ldr	r0, .L688+4
 5773              		.loc 1 1195 0
 5774 003c BDE83840 		pop	{r3, r4, r5, lr}
 5775              		.cfi_restore 14
 5776              		.cfi_restore 5
 5777              		.cfi_restore 4
 5778              		.cfi_restore 3
 5779              		.cfi_def_cfa_offset 0
 5780              	.LVL678:
 5781              		.loc 1 1194 0
 5782 0040 FFF7FEBF 		b	chMtxUnlock
 5783              	.LVL679:
 5784              	.L689:
 5785              		.align	2
 5786              	.L688:
 5787 0044 00000000 		.word	.LANCHOR17
 5788 0048 00000000 		.word	.LANCHOR11
 5789 004c 00000000 		.word	.LANCHOR0
 5790              		.cfi_endproc
 5791              	.LFE275:
 5792              		.size	commands_plot_add_graph, .-commands_plot_add_graph
 5793              		.section	.text.commands_plot_set_graph,"ax",%progbits
 5794              		.align	1
 5795              		.p2align 4,,15
 5796              		.global	commands_plot_set_graph
 5797              		.syntax unified
 5798              		.thumb
 5799              		.thumb_func
 5800              		.fpu fpv4-sp-d16
 5801              		.type	commands_plot_set_graph, %function
 5802              	commands_plot_set_graph:
 5803              	.LFB276:
 5804              		.loc 1 1197 0
 5805              		.cfi_startproc
 5806              		@ args = 0, pretend = 0, frame = 8
 5807              		@ frame_needed = 0, uses_anonymous_args = 0
 5808              	.LVL680:
 5809 0000 00B5     		push	{lr}
 5810              		.cfi_def_cfa_offset 4
 5811              		.cfi_offset 14, -4
 5812              	.LBB317:
 5813              	.LBB318:
 5814              		.loc 1 91 0
ARM GAS  /tmp/ccXDsUE2.s 			page 103


 5815 0002 084B     		ldr	r3, .L696
 5816              	.LBE318:
 5817              	.LBE317:
 5818              		.loc 1 1197 0
 5819 0004 83B0     		sub	sp, sp, #12
 5820              		.cfi_def_cfa_offset 16
 5821              	.LBB321:
 5822              	.LBB319:
 5823              		.loc 1 91 0
 5824 0006 1A68     		ldr	r2, [r3]
 5825              	.LBE319:
 5826              	.LBE321:
 5827              		.loc 1 1201 0
 5828 0008 8DF80500 		strb	r0, [sp, #5]
 5829              		.loc 1 1200 0
 5830 000c 4E21     		movs	r1, #78
 5831 000e 8DF80410 		strb	r1, [sp, #4]
 5832              	.LVL681:
 5833              	.LBB322:
 5834              	.LBB320:
 5835              		.loc 1 91 0
 5836 0012 1AB1     		cbz	r2, .L690
 5837              		.loc 1 92 0
 5838 0014 1B68     		ldr	r3, [r3]
 5839 0016 0221     		movs	r1, #2
 5840 0018 01A8     		add	r0, sp, #4
 5841              	.LVL682:
 5842 001a 9847     		blx	r3
 5843              	.LVL683:
 5844              	.L690:
 5845              	.LBE320:
 5846              	.LBE322:
 5847              		.loc 1 1203 0
 5848 001c 03B0     		add	sp, sp, #12
 5849              		.cfi_def_cfa_offset 4
 5850              		@ sp needed
 5851 001e 5DF804FB 		ldr	pc, [sp], #4
 5852              	.L697:
 5853 0022 00BF     		.align	2
 5854              	.L696:
 5855 0024 00000000 		.word	.LANCHOR0
 5856              		.cfi_endproc
 5857              	.LFE276:
 5858              		.size	commands_plot_set_graph, .-commands_plot_set_graph
 5859              		.section	.text.commands_send_plot_points,"ax",%progbits
 5860              		.align	1
 5861              		.p2align 4,,15
 5862              		.global	commands_send_plot_points
 5863              		.syntax unified
 5864              		.thumb
 5865              		.thumb_func
 5866              		.fpu fpv4-sp-d16
 5867              		.type	commands_send_plot_points, %function
 5868              	commands_send_plot_points:
 5869              	.LFB277:
 5870              		.loc 1 1205 0
 5871              		.cfi_startproc
ARM GAS  /tmp/ccXDsUE2.s 			page 104


 5872              		@ args = 0, pretend = 0, frame = 16
 5873              		@ frame_needed = 0, uses_anonymous_args = 0
 5874              	.LVL684:
 5875 0000 00B5     		push	{lr}
 5876              		.cfi_def_cfa_offset 4
 5877              		.cfi_offset 14, -4
 5878 0002 2DED028B 		vpush.64	{d8}
 5879              		.cfi_def_cfa_offset 12
 5880              		.cfi_offset 80, -12
 5881              		.cfi_offset 81, -8
 5882 0006 85B0     		sub	sp, sp, #20
 5883              		.cfi_def_cfa_offset 32
 5884              		.loc 1 1208 0
 5885 0008 0122     		movs	r2, #1
 5886 000a 4C23     		movs	r3, #76
 5887              		.loc 1 1205 0
 5888 000c B0EE608A 		vmov.f32	s16, s1
 5889              		.loc 1 1209 0
 5890 0010 6946     		mov	r1, sp
 5891 0012 01A8     		add	r0, sp, #4
 5892              		.loc 1 1208 0
 5893 0014 0092     		str	r2, [sp]
 5894 0016 8DF80430 		strb	r3, [sp, #4]
 5895              		.loc 1 1209 0
 5896 001a FFF7FEFF 		bl	buffer_append_float32_auto
 5897              	.LVL685:
 5898              		.loc 1 1210 0
 5899 001e 6946     		mov	r1, sp
 5900 0020 B0EE480A 		vmov.f32	s0, s16
 5901 0024 01A8     		add	r0, sp, #4
 5902 0026 FFF7FEFF 		bl	buffer_append_float32_auto
 5903              	.LVL686:
 5904              	.LBB323:
 5905              	.LBB324:
 5906              		.loc 1 91 0
 5907 002a 064B     		ldr	r3, .L704
 5908              	.LBE324:
 5909              	.LBE323:
 5910              		.loc 1 1211 0
 5911 002c 0099     		ldr	r1, [sp]
 5912              	.LVL687:
 5913              	.LBB326:
 5914              	.LBB325:
 5915              		.loc 1 91 0
 5916 002e 1A68     		ldr	r2, [r3]
 5917 0030 12B1     		cbz	r2, .L698
 5918              		.loc 1 92 0
 5919 0032 1B68     		ldr	r3, [r3]
 5920 0034 01A8     		add	r0, sp, #4
 5921              	.LVL688:
 5922 0036 9847     		blx	r3
 5923              	.LVL689:
 5924              	.L698:
 5925              	.LBE325:
 5926              	.LBE326:
 5927              		.loc 1 1212 0
 5928 0038 05B0     		add	sp, sp, #20
ARM GAS  /tmp/ccXDsUE2.s 			page 105


 5929              		.cfi_def_cfa_offset 12
 5930              		@ sp needed
 5931 003a BDEC028B 		vldm	sp!, {d8}
 5932              		.cfi_restore 80
 5933              		.cfi_restore 81
 5934              		.cfi_def_cfa_offset 4
 5935              	.LVL690:
 5936 003e 5DF804FB 		ldr	pc, [sp], #4
 5937              	.L705:
 5938 0042 00BF     		.align	2
 5939              	.L704:
 5940 0044 00000000 		.word	.LANCHOR0
 5941              		.cfi_endproc
 5942              	.LFE277:
 5943              		.size	commands_send_plot_points, .-commands_send_plot_points
 5944              		.section	.bss.appconf.13996,"aw",%nobits
 5945              		.align	2
 5946              		.set	.LANCHOR19,. + 0
 5947              		.type	appconf.13996, %object
 5948              		.size	appconf.13996, 376
 5949              	appconf.13996:
 5950 0000 00000000 		.space	376
 5950      00000000 
 5950      00000000 
 5950      00000000 
 5950      00000000 
 5951              		.section	.bss.appdata_func,"aw",%nobits
 5952              		.align	2
 5953              		.set	.LANCHOR16,. + 0
 5954              		.type	appdata_func, %object
 5955              		.size	appdata_func, 4
 5956              	appdata_func:
 5957 0000 00000000 		.space	4
 5958              		.section	.bss.blocking_thread_cmd_buffer,"aw",%nobits
 5959              		.align	2
 5960              		.set	.LANCHOR3,. + 0
 5961              		.type	blocking_thread_cmd_buffer, %object
 5962              		.size	blocking_thread_cmd_buffer, 512
 5963              	blocking_thread_cmd_buffer:
 5964 0000 00000000 		.space	512
 5964      00000000 
 5964      00000000 
 5964      00000000 
 5964      00000000 
 5965              		.section	.bss.blocking_thread_cmd_len,"aw",%nobits
 5966              		.align	2
 5967              		.set	.LANCHOR2,. + 0
 5968              		.type	blocking_thread_cmd_len, %object
 5969              		.size	blocking_thread_cmd_len, 4
 5970              	blocking_thread_cmd_len:
 5971 0000 00000000 		.space	4
 5972              		.section	.bss.blocking_thread_wa,"aw",%nobits
 5973              		.align	3
 5974              		.set	.LANCHOR12,. + 0
 5975              		.type	blocking_thread_wa, %object
 5976              		.size	blocking_thread_wa, 2456
 5977              	blocking_thread_wa:
ARM GAS  /tmp/ccXDsUE2.s 			page 106


 5978 0000 00000000 		.space	2456
 5978      00000000 
 5978      00000000 
 5978      00000000 
 5978      00000000 
 5979              		.section	.bss.blocking_tp,"aw",%nobits
 5980              		.align	2
 5981              		.set	.LANCHOR1,. + 0
 5982              		.type	blocking_tp, %object
 5983              		.size	blocking_tp, 4
 5984              	blocking_tp:
 5985 0000 00000000 		.space	4
 5986              		.section	.bss.display_position_mode,"aw",%nobits
 5987              		.set	.LANCHOR15,. + 0
 5988              		.type	display_position_mode, %object
 5989              		.size	display_position_mode, 1
 5990              	display_position_mode:
 5991 0000 00       		.space	1
 5992              		.section	.bss.is_blocking,"aw",%nobits
 5993              		.set	.LANCHOR9,. + 0
 5994              		.type	is_blocking, %object
 5995              		.size	is_blocking, 1
 5996              	is_blocking:
 5997 0000 00       		.space	1
 5998              		.section	.bss.mcconf.13995,"aw",%nobits
 5999              		.align	2
 6000              		.set	.LANCHOR18,. + 0
 6001              		.type	mcconf.13995, %object
 6002              		.size	mcconf.13995, 456
 6003              	mcconf.13995:
 6004 0000 00000000 		.space	456
 6004      00000000 
 6004      00000000 
 6004      00000000 
 6004      00000000 
 6005              		.section	.bss.mcconf.14255,"aw",%nobits
 6006              		.align	2
 6007              		.set	.LANCHOR6,. + 0
 6008              		.type	mcconf.14255, %object
 6009              		.size	mcconf.14255, 456
 6010              	mcconf.14255:
 6011 0000 00000000 		.space	456
 6011      00000000 
 6011      00000000 
 6011      00000000 
 6011      00000000 
 6012              		.section	.bss.mcconf_old.14256,"aw",%nobits
 6013              		.align	2
 6014              		.set	.LANCHOR7,. + 0
 6015              		.type	mcconf_old.14256, %object
 6016              		.size	mcconf_old.14256, 456
 6017              	mcconf_old.14256:
 6018 0000 00000000 		.space	456
 6018      00000000 
 6018      00000000 
 6018      00000000 
 6018      00000000 
ARM GAS  /tmp/ccXDsUE2.s 			page 107


 6019              		.section	.bss.print_buffer.14182,"aw",%nobits
 6020              		.align	2
 6021              		.set	.LANCHOR14,. + 0
 6022              		.type	print_buffer.14182, %object
 6023              		.size	print_buffer.14182, 255
 6024              	print_buffer.14182:
 6025 0000 00000000 		.space	255
 6025      00000000 
 6025      00000000 
 6025      00000000 
 6025      00000000 
 6026              		.section	.bss.print_mutex,"aw",%nobits
 6027              		.align	2
 6028              		.set	.LANCHOR10,. + 0
 6029              		.type	print_mutex, %object
 6030              		.size	print_mutex, 16
 6031              	print_mutex:
 6032 0000 00000000 		.space	16
 6032      00000000 
 6032      00000000 
 6032      00000000 
 6033              		.section	.bss.send_buffer.14257,"aw",%nobits
 6034              		.align	2
 6035              		.set	.LANCHOR4,. + 0
 6036              		.type	send_buffer.14257, %object
 6037              		.size	send_buffer.14257, 512
 6038              	send_buffer.14257:
 6039 0000 00000000 		.space	512
 6039      00000000 
 6039      00000000 
 6039      00000000 
 6039      00000000 
 6040              		.section	.bss.send_buffer_global,"aw",%nobits
 6041              		.align	2
 6042              		.set	.LANCHOR17,. + 0
 6043              		.type	send_buffer_global, %object
 6044              		.size	send_buffer_global, 512
 6045              	send_buffer_global:
 6046 0000 00000000 		.space	512
 6046      00000000 
 6046      00000000 
 6046      00000000 
 6046      00000000 
 6047              		.section	.bss.send_buffer_mutex,"aw",%nobits
 6048              		.align	2
 6049              		.set	.LANCHOR11,. + 0
 6050              		.type	send_buffer_mutex, %object
 6051              		.size	send_buffer_mutex, 16
 6052              	send_buffer_mutex:
 6053 0000 00000000 		.space	16
 6053      00000000 
 6053      00000000 
 6053      00000000 
 6054              		.section	.bss.send_func,"aw",%nobits
 6055              		.align	2
 6056              		.set	.LANCHOR0,. + 0
 6057              		.type	send_func, %object
ARM GAS  /tmp/ccXDsUE2.s 			page 108


 6058              		.size	send_func, 4
 6059              	send_func:
 6060 0000 00000000 		.space	4
 6061              		.section	.bss.send_func_blocking,"aw",%nobits
 6062              		.align	2
 6063              		.set	.LANCHOR5,. + 0
 6064              		.type	send_func_blocking, %object
 6065              		.size	send_func_blocking, 4
 6066              	send_func_blocking:
 6067 0000 00000000 		.space	4
 6068              		.section	.bss.send_func_nrf,"aw",%nobits
 6069              		.align	2
 6070              		.set	.LANCHOR13,. + 0
 6071              		.type	send_func_nrf, %object
 6072              		.size	send_func_nrf, 4
 6073              	send_func_nrf:
 6074 0000 00000000 		.space	4
 6075              		.section	.bss.terminal_mutex,"aw",%nobits
 6076              		.align	2
 6077              		.set	.LANCHOR8,. + 0
 6078              		.type	terminal_mutex, %object
 6079              		.size	terminal_mutex, 16
 6080              	terminal_mutex:
 6081 0000 00000000 		.space	16
 6081      00000000 
 6081      00000000 
 6081      00000000 
 6082              		.section	.rodata.blocking_thread.str1.4,"aMS",%progbits,1
 6083              		.align	2
 6084              	.LC0:
 6085 0000 636F6D6D 		.ascii	"comm_block\000"
 6085      5F626C6F 
 6085      636B00
 6086              		.section	.rodata.commands_process_packet.str1.4,"aMS",%progbits,1
 6087              		.align	2
 6088              	.LC1:
 6089 0000 53563330 		.ascii	"SV30\000"
 6089      00
 6090 0005 000000   		.space	3
 6091              	.LC2:
 6092 0008 5761726E 		.ascii	"Warning: Could not set mcconf due to wrong signatur"
 6092      696E673A 
 6092      20436F75 
 6092      6C64206E 
 6092      6F742073 
 6093 003b 6500     		.ascii	"e\000"
 6094 003d 000000   		.space	3
 6095              	.LC3:
 6096 0040 5761726E 		.ascii	"Warning: Could not set appconf due to wrong signatu"
 6096      696E673A 
 6096      20436F75 
 6096      6C64206E 
 6096      6F742073 
 6097 0073 726500   		.ascii	"re\000"
 6098 0076 0000     		.space	2
 6099              	.LC4:
 6100 0078 5245424F 		.ascii	"REBOOT\000"
ARM GAS  /tmp/ccXDsUE2.s 			page 109


 6100      4F5400
 6101              		.text
 6102              	.Letext0:
 6103              		.file 5 "/usr/arm-none-eabi/include/machine/_default_types.h"
 6104              		.file 6 "/usr/arm-none-eabi/include/sys/_stdint.h"
 6105              		.file 7 "/usr/lib/gcc/arm-none-eabi/7.3.1/include/stddef.h"
 6106              		.file 8 "ChibiOS_3.0.2/os/rt/ports/ARMCMx/compilers/GCC/chtypes.h"
 6107              		.file 9 "ChibiOS_3.0.2/os/rt/include/chsystypes.h"
 6108              		.file 10 "ChibiOS_3.0.2/os/rt/include/chschd.h"
 6109              		.file 11 "ChibiOS_3.0.2/os/ext/CMSIS/include/core_cm4.h"
 6110              		.file 12 "ChibiOS_3.0.2/os/ext/CMSIS/ST/system_stm32f4xx.h"
 6111              		.file 13 "ChibiOS_3.0.2/os/ext/CMSIS/ST/stm32f407xx.h"
 6112              		.file 14 "ChibiOS_3.0.2/os/rt/ports/ARMCMx/chcore.h"
 6113              		.file 15 "ChibiOS_3.0.2/os/rt/ports/ARMCMx/chcore_v7m.h"
 6114              		.file 16 "ChibiOS_3.0.2/os/rt/include/chtm.h"
 6115              		.file 17 "ChibiOS_3.0.2/os/rt/include/chsem.h"
 6116              		.file 18 "ChibiOS_3.0.2/os/rt/include/chmtx.h"
 6117              		.file 19 "ChibiOS_3.0.2/os/rt/include/chevents.h"
 6118              		.file 20 "ChibiOS_3.0.2/os/rt/include/chqueues.h"
 6119              		.file 21 "datatypes.h"
 6120              		.file 22 "./conf_general.h"
 6121              		.file 23 "ChibiOS_3.0.2/ext/stdperiph_stm32f4/inc/stm32f4xx_flash.h"
 6122              		.file 24 "ChibiOS_3.0.2/os/hal/ports/STM32/STM32F4xx/stm32_dma.h"
 6123              		.file 25 "ChibiOS_3.0.2/os/hal/ports/STM32/LLD/GPIOv2/pal_lld.h"
 6124              		.file 26 "ChibiOS_3.0.2/os/hal/include/can.h"
 6125              		.file 27 "ChibiOS_3.0.2/os/hal/ports/STM32/LLD/can_lld.h"
 6126              		.file 28 "ChibiOS_3.0.2/os/hal/include/i2c.h"
 6127              		.file 29 "ChibiOS_3.0.2/os/hal/ports/STM32/LLD/I2Cv1/i2c_lld.h"
 6128              		.file 30 "ChibiOS_3.0.2/os/hal/include/icu.h"
 6129              		.file 31 "ChibiOS_3.0.2/os/hal/ports/STM32/LLD/TIMv1/icu_lld.h"
 6130              		.file 32 "ChibiOS_3.0.2/os/hal/ports/STM32/LLD/TIMv1/stm32_tim.h"
 6131              		.file 33 "ChibiOS_3.0.2/os/hal/include/serial.h"
 6132              		.file 34 "ChibiOS_3.0.2/os/hal/ports/STM32/LLD/USARTv1/serial_lld.h"
 6133              		.file 35 "ChibiOS_3.0.2/os/hal/include/spi.h"
 6134              		.file 36 "ChibiOS_3.0.2/os/hal/ports/STM32/LLD/SPIv1/spi_lld.h"
 6135              		.file 37 "ChibiOS_3.0.2/os/hal/include/usb.h"
 6136              		.file 38 "ChibiOS_3.0.2/os/hal/ports/STM32/LLD/OTGv1/usb_lld.h"
 6137              		.file 39 "ChibiOS_3.0.2/os/hal/ports/STM32/LLD/OTGv1/stm32_otg.h"
 6138              		.file 40 "mc_interface.h"
 6139              		.file 41 "mcpwm.h"
 6140              		.file 42 "compression/lzodefs.h"
 6141              		.file 43 "compression/lzoconf.h"
 6142              		.file 44 "/usr/arm-none-eabi/include/sys/lock.h"
 6143              		.file 45 "/usr/arm-none-eabi/include/sys/_types.h"
 6144              		.file 46 "<built-in>"
 6145              		.file 47 "/usr/arm-none-eabi/include/sys/reent.h"
 6146              		.file 48 "/usr/arm-none-eabi/include/math.h"
 6147              		.file 49 "/usr/lib/gcc/arm-none-eabi/7.3.1/include/stdarg.h"
 6148              		.file 50 "ChibiOS_3.0.2/os/rt/include/chthreads.h"
 6149              		.file 51 "buffer.h"
 6150              		.file 52 "mcpwm_foc.h"
 6151              		.file 53 "comm_can.h"
 6152              		.file 54 "blackmagic/bm_if.h"
 6153              		.file 55 "compression/minilzo.h"
 6154              		.file 56 "encoder.h"
 6155              		.file 57 "terminal.h"
 6156              		.file 58 "/usr/arm-none-eabi/include/string.h"
ARM GAS  /tmp/ccXDsUE2.s 			page 110


 6157              		.file 59 "utils.h"
 6158              		.file 60 "confgenerator.h"
 6159              		.file 61 "/usr/arm-none-eabi/include/stdio.h"
 6160              		.file 62 "applications/app.h"
 6161              		.file 63 "nrf/nrf_driver.h"
 6162              		.file 64 "flash_helper.h"
 6163              		.file 65 "timeout.h"
 6164              		.file 66 "servo_dec.h"
 6165              		.file 67 "gpdrive.h"
 6166              		.file 68 "imu/imu.h"