ARM GAS  /tmp/cchERvVK.s 			page 1


   1              		.cpu cortex-m4
   2              		.eabi_attribute 27, 1
   3              		.eabi_attribute 28, 1
   4              		.eabi_attribute 20, 1
   5              		.eabi_attribute 21, 1
   6              		.eabi_attribute 23, 3
   7              		.eabi_attribute 24, 1
   8              		.eabi_attribute 25, 1
   9              		.eabi_attribute 26, 1
  10              		.eabi_attribute 30, 2
  11              		.eabi_attribute 34, 1
  12              		.eabi_attribute 18, 4
  13              		.file	"cortexm.c"
  14              		.text
  15              	.Ltext0:
  16              		.cfi_sections	.debug_frame
  17              		.section	.text.cortexm_check_error,"ax",%progbits
  18              		.align	1
  19              		.p2align 4,,15
  20              		.syntax unified
  21              		.thumb
  22              		.thumb_func
  23              		.fpu fpv4-sp-d16
  24              		.type	cortexm_check_error, %function
  25              	cortexm_check_error:
  26              	.LFB267:
  27              		.file 1 "blackmagic/target/cortexm.c"
  28              		.loc 1 234 0
  29              		.cfi_startproc
  30              		@ args = 0, pretend = 0, frame = 0
  31              		@ frame_needed = 0, uses_anonymous_args = 0
  32              	.LVL0:
  33 0000 08B5     		push	{r3, lr}
  34              		.cfi_def_cfa_offset 8
  35              		.cfi_offset 3, -8
  36              		.cfi_offset 14, -4
  37              	.LBB52:
  38              	.LBB53:
  39              		.loc 1 193 0
  40 0002 C36E     		ldr	r3, [r0, #108]
  41              	.LBE53:
  42              	.LBE52:
  43              		.loc 1 236 0
  44 0004 1B68     		ldr	r3, [r3]
  45 0006 5868     		ldr	r0, [r3, #4]
  46              	.LVL1:
  47              	.LBB54:
  48              	.LBB55:
  49              		.file 2 "blackmagic/target/adiv5.h"
  50              		.loc 2 147 0
  51 0008 4369     		ldr	r3, [r0, #20]
  52 000a 9847     		blx	r3
  53              	.LVL2:
  54              	.LBE55:
  55              	.LBE54:
  56              		.loc 1 237 0
  57 000c 0030     		adds	r0, r0, #0
ARM GAS  /tmp/cchERvVK.s 			page 2


  58 000e 18BF     		it	ne
  59 0010 0120     		movne	r0, #1
  60 0012 08BD     		pop	{r3, pc}
  61              		.cfi_endproc
  62              	.LFE267:
  63              		.size	cortexm_check_error, .-cortexm_check_error
  64              		.section	.text.cortexm_vector_catch,"ax",%progbits
  65              		.align	1
  66              		.p2align 4,,15
  67              		.syntax unified
  68              		.thumb
  69              		.thumb_func
  70              		.fpu fpv4-sp-d16
  71              		.type	cortexm_vector_catch, %function
  72              	cortexm_vector_catch:
  73              	.LFB289:
  74              		.loc 1 865 0
  75              		.cfi_startproc
  76              		@ args = 0, pretend = 0, frame = 56
  77              		@ frame_needed = 0, uses_anonymous_args = 0
  78              	.LVL3:
  79 0000 2DE9F04F 		push	{r4, r5, r6, r7, r8, r9, r10, fp, lr}
  80              		.cfi_def_cfa_offset 36
  81              		.cfi_offset 4, -36
  82              		.cfi_offset 5, -32
  83              		.cfi_offset 6, -28
  84              		.cfi_offset 7, -24
  85              		.cfi_offset 8, -20
  86              		.cfi_offset 9, -16
  87              		.cfi_offset 10, -12
  88              		.cfi_offset 11, -8
  89              		.cfi_offset 14, -4
  90              		.loc 1 867 0
  91 0004 324E     		ldr	r6, .L29
  92              		.loc 1 865 0
  93 0006 8046     		mov	r8, r0
  94 0008 8A46     		mov	r10, r1
  95 000a 1546     		mov	r5, r2
  96              		.loc 1 867 0
  97 000c 0FCE     		ldmia	r6!, {r0, r1, r2, r3}
  98              	.LVL4:
  99              		.loc 1 865 0
 100 000e 8FB0     		sub	sp, sp, #60
 101              		.cfi_def_cfa_offset 96
 102              		.loc 1 867 0
 103 0010 03AC     		add	r4, sp, #12
 104 0012 0FC4     		stmia	r4!, {r0, r1, r2, r3}
 105 0014 0FCE     		ldmia	r6!, {r0, r1, r2, r3}
 106 0016 0FC4     		stmia	r4!, {r0, r1, r2, r3}
 107 0018 96E80700 		ldm	r6, {r0, r1, r2}
 108              		.loc 1 871 0
 109 001c BAF1020F 		cmp	r10, #2
 110              		.loc 1 866 0
 111 0020 D8F86C70 		ldr	r7, [r8, #108]
 112              	.LVL5:
 113              		.loc 1 867 0
 114 0024 84E80700 		stm	r4, {r0, r1, r2}
ARM GAS  /tmp/cchERvVK.s 			page 3


 115              		.loc 1 871 0
 116 0028 05DD     		ble	.L5
 117              		.loc 1 871 0 is_stmt 0 discriminator 1
 118 002a 6B68     		ldr	r3, [r5, #4]
 119 002c 1B78     		ldrb	r3, [r3]	@ zero_extendqisi2
 120 002e 0193     		str	r3, [sp, #4]
 121 0030 643B     		subs	r3, r3, #100
 122 0032 012B     		cmp	r3, #1
 123 0034 27D9     		bls	.L27
 124              	.L5:
 125              		.loc 1 872 0 is_stmt 1
 126 0036 2749     		ldr	r1, .L29+4
 127 0038 4046     		mov	r0, r8
 128 003a FFF7FEFF 		bl	tc_printf
 129              	.LVL6:
 130              	.L7:
 131              		.loc 1 891 0
 132 003e 2649     		ldr	r1, .L29+8
 133              		.loc 1 896 0
 134 0040 264E     		ldr	r6, .L29+12
 135              		.loc 1 891 0
 136 0042 4046     		mov	r0, r8
 137 0044 FFF7FEFF 		bl	tc_printf
 138              	.LVL7:
 139 0048 03AD     		add	r5, sp, #12
 140              		.loc 1 892 0
 141 004a 0024     		movs	r4, #0
 142              		.loc 1 895 0
 143 004c 4FF00109 		mov	r9, #1
 144 0050 01E0     		b	.L14
 145              	.LVL8:
 146              	.L13:
 147              		.loc 1 892 0 discriminator 2
 148 0052 0B2C     		cmp	r4, #11
 149 0054 0FD0     		beq	.L28
 150              	.LVL9:
 151              	.L14:
 152              		.loc 1 893 0
 153 0056 55F8042B 		ldr	r2, [r5], #4
 154              		.loc 1 895 0
 155 005a 09FA04F3 		lsl	r3, r9, r4
 156              		.loc 1 892 0
 157 005e 0134     		adds	r4, r4, #1
 158              	.LVL10:
 159              		.loc 1 893 0
 160 0060 002A     		cmp	r2, #0
 161 0062 F6D0     		beq	.L13
 162              		.loc 1 895 0
 163 0064 396A     		ldr	r1, [r7, #32]
 164 0066 0B42     		tst	r3, r1
 165 0068 F3D0     		beq	.L13
 166              		.loc 1 896 0
 167 006a 3146     		mov	r1, r6
 168 006c 4046     		mov	r0, r8
 169 006e FFF7FEFF 		bl	tc_printf
 170              	.LVL11:
 171              		.loc 1 892 0
ARM GAS  /tmp/cchERvVK.s 			page 4


 172 0072 0B2C     		cmp	r4, #11
 173 0074 EFD1     		bne	.L14
 174              	.L28:
 175              		.loc 1 898 0
 176 0076 4046     		mov	r0, r8
 177 0078 1949     		ldr	r1, .L29+16
 178 007a FFF7FEFF 		bl	tc_printf
 179              	.LVL12:
 180              		.loc 1 900 0
 181 007e 0120     		movs	r0, #1
 182 0080 0FB0     		add	sp, sp, #60
 183              		.cfi_remember_state
 184              		.cfi_def_cfa_offset 36
 185              		@ sp needed
 186 0082 BDE8F08F 		pop	{r4, r5, r6, r7, r8, r9, r10, fp, pc}
 187              	.LVL13:
 188              	.L27:
 189              		.cfi_restore_state
 190 0086 05EB8A0A 		add	r10, r5, r10, lsl #2
 191              	.LVL14:
 192              	.LBB56:
 193              		.loc 1 875 0
 194 008a 0026     		movs	r6, #0
 195              	.LBB57:
 196              		.loc 1 880 0
 197 008c 4FF00109 		mov	r9, #1
 198              	.LVL15:
 199              	.L6:
 200 0090 0DF10C0B 		add	fp, sp, #12
 201              		.loc 1 878 0
 202 0094 0024     		movs	r4, #0
 203              	.LVL16:
 204              	.L9:
 205              		.loc 1 879 0
 206 0096 5BF8043B 		ldr	r3, [fp], #4
 207 009a 1846     		mov	r0, r3
 208 009c 33B1     		cbz	r3, .L8
 209              		.loc 1 879 0 is_stmt 0 discriminator 1
 210 009e 2968     		ldr	r1, [r5]
 211 00a0 FFF7FEFF 		bl	strcmp
 212              	.LVL17:
 213 00a4 10B9     		cbnz	r0, .L8
 214              		.loc 1 880 0 is_stmt 1
 215 00a6 09FA04F3 		lsl	r3, r9, r4
 216 00aa 1E43     		orrs	r6, r6, r3
 217              	.LVL18:
 218              	.L8:
 219              		.loc 1 878 0 discriminator 2
 220 00ac 0134     		adds	r4, r4, #1
 221              	.LVL19:
 222 00ae 0B2C     		cmp	r4, #11
 223 00b0 F1D1     		bne	.L9
 224              	.LVL20:
 225 00b2 0435     		adds	r5, r5, #4
 226              		.loc 1 877 0 discriminator 2
 227 00b4 5545     		cmp	r5, r10
 228 00b6 EBD1     		bne	.L6
ARM GAS  /tmp/cchERvVK.s 			page 5


 229              	.LBE57:
 230              		.loc 1 883 0
 231 00b8 019B     		ldr	r3, [sp, #4]
 232 00ba 3A6A     		ldr	r2, [r7, #32]
 233              		.loc 1 888 0
 234 00bc 0949     		ldr	r1, .L29+20
 235              		.loc 1 883 0
 236 00be 652B     		cmp	r3, #101
 237              		.loc 1 884 0
 238 00c0 0CBF     		ite	eq
 239 00c2 3243     		orreq	r2, r2, r6
 240              		.loc 1 886 0
 241 00c4 B243     		bicne	r2, r2, r6
 242 00c6 3A62     		str	r2, [r7, #32]
 243              		.loc 1 888 0
 244 00c8 4046     		mov	r0, r8
 245 00ca FFF7FEFF 		bl	target_mem_write32
 246              	.LVL21:
 247 00ce B6E7     		b	.L7
 248              	.L30:
 249              		.align	2
 250              	.L29:
 251 00d0 00000000 		.word	.LANCHOR0
 252 00d4 00000000 		.word	.LC11
 253 00d8 54000000 		.word	.LC12
 254 00dc 68000000 		.word	.LC13
 255 00e0 6C000000 		.word	.LC14
 256 00e4 FCED00E0 		.word	-536809988
 257              	.LBE56:
 258              		.cfi_endproc
 259              	.LFE289:
 260              		.size	cortexm_vector_catch, .-cortexm_vector_catch
 261              		.section	.text.cortexm_breakwatch_clear,"ax",%progbits
 262              		.align	1
 263              		.p2align 4,,15
 264              		.syntax unified
 265              		.thumb
 266              		.thumb_func
 267              		.fpu fpv4-sp-d16
 268              		.type	cortexm_breakwatch_clear, %function
 269              	cortexm_breakwatch_clear:
 270              	.LFB287:
 271              		.loc 1 827 0
 272              		.cfi_startproc
 273              		@ args = 0, pretend = 0, frame = 0
 274              		@ frame_needed = 0, uses_anonymous_args = 0
 275              	.LVL22:
 276              		.loc 1 830 0
 277 0000 0A79     		ldrb	r2, [r1, #4]	@ zero_extendqisi2
 278              		.loc 1 829 0
 279 0002 0969     		ldr	r1, [r1, #16]
 280              	.LVL23:
 281              		.loc 1 830 0
 282 0004 012A     		cmp	r2, #1
 283              		.loc 1 827 0
 284 0006 38B5     		push	{r3, r4, r5, lr}
 285              		.cfi_def_cfa_offset 16
ARM GAS  /tmp/cchERvVK.s 			page 6


 286              		.cfi_offset 3, -16
 287              		.cfi_offset 4, -12
 288              		.cfi_offset 5, -8
 289              		.cfi_offset 14, -4
 290              		.loc 1 828 0
 291 0008 C36E     		ldr	r3, [r0, #108]
 292              	.LVL24:
 293              		.loc 1 830 0
 294 000a 0FD0     		beq	.L33
 295 000c 0CD3     		bcc	.L35
 296 000e 042A     		cmp	r2, #4
 297 0010 0AD8     		bhi	.L35
 298              		.loc 1 838 0
 299 0012 0B44     		add	r3, r3, r1
 300              	.LVL25:
 301              		.loc 1 839 0
 302 0014 0C4D     		ldr	r5, .L38
 303              		.loc 1 838 0
 304 0016 0024     		movs	r4, #0
 305 0018 9C71     		strb	r4, [r3, #6]
 306              		.loc 1 839 0
 307 001a 2246     		mov	r2, r4
 308 001c 05EB0111 		add	r1, r5, r1, lsl #4
 309              	.LVL26:
 310 0020 FFF7FEFF 		bl	target_mem_write32
 311              	.LVL27:
 312              		.loc 1 840 0
 313 0024 2046     		mov	r0, r4
 314              		.loc 1 844 0
 315 0026 38BD     		pop	{r3, r4, r5, pc}
 316              	.LVL28:
 317              	.L35:
 318              		.loc 1 842 0
 319 0028 0120     		movs	r0, #1
 320              	.LVL29:
 321              		.loc 1 844 0
 322 002a 38BD     		pop	{r3, r4, r5, pc}
 323              	.LVL30:
 324              	.L33:
 325              		.loc 1 832 0
 326 002c 0B44     		add	r3, r3, r1
 327              	.LVL31:
 328              		.loc 1 833 0
 329 002e 01F16051 		add	r1, r1, #939524096
 330              	.LVL32:
 331              		.loc 1 832 0
 332 0032 0024     		movs	r4, #0
 333              		.loc 1 833 0
 334 0034 01F60201 		addw	r1, r1, #2050
 335              	.LVL33:
 336 0038 8900     		lsls	r1, r1, #2
 337              	.LVL34:
 338              		.loc 1 832 0
 339 003a 1C75     		strb	r4, [r3, #20]
 340              		.loc 1 833 0
 341 003c 2246     		mov	r2, r4
 342 003e FFF7FEFF 		bl	target_mem_write32
ARM GAS  /tmp/cchERvVK.s 			page 7


 343              	.LVL35:
 344              		.loc 1 834 0
 345 0042 2046     		mov	r0, r4
 346              		.loc 1 844 0
 347 0044 38BD     		pop	{r3, r4, r5, pc}
 348              	.L39:
 349 0046 00BF     		.align	2
 350              	.L38:
 351 0048 281000E0 		.word	-536866776
 352              		.cfi_endproc
 353              	.LFE287:
 354              		.size	cortexm_breakwatch_clear, .-cortexm_breakwatch_clear
 355              		.section	.text.cortexm_breakwatch_set,"ax",%progbits
 356              		.align	1
 357              		.p2align 4,,15
 358              		.syntax unified
 359              		.thumb
 360              		.thumb_func
 361              		.fpu fpv4-sp-d16
 362              		.type	cortexm_breakwatch_set, %function
 363              	cortexm_breakwatch_set:
 364              	.LFB286:
 365              		.loc 1 778 0
 366              		.cfi_startproc
 367              		@ args = 0, pretend = 0, frame = 0
 368              		@ frame_needed = 0, uses_anonymous_args = 0
 369              	.LVL36:
 370              		.loc 1 783 0
 371 0000 0B79     		ldrb	r3, [r1, #4]	@ zero_extendqisi2
 372              		.loc 1 781 0
 373 0002 8A68     		ldr	r2, [r1, #8]
 374              		.loc 1 783 0
 375 0004 012B     		cmp	r3, #1
 376              		.loc 1 778 0
 377 0006 2DE9F041 		push	{r4, r5, r6, r7, r8, lr}
 378              		.cfi_def_cfa_offset 24
 379              		.cfi_offset 4, -24
 380              		.cfi_offset 5, -20
 381              		.cfi_offset 6, -16
 382              		.cfi_offset 7, -12
 383              		.cfi_offset 8, -8
 384              		.cfi_offset 14, -4
 385              		.loc 1 778 0
 386 000a 0646     		mov	r6, r0
 387 000c 0D46     		mov	r5, r1
 388              		.loc 1 779 0
 389 000e C06E     		ldr	r0, [r0, #108]
 390              	.LVL37:
 391              		.loc 1 783 0
 392 0010 1CD0     		beq	.L42
 393 0012 18D3     		bcc	.L61
 394 0014 042B     		cmp	r3, #4
 395 0016 16D8     		bhi	.L61
 396              	.LVL38:
 397              		.loc 1 806 0
 398 0018 D0F810C0 		ldr	ip, [r0, #16]
 399 001c BCF1000F 		cmp	ip, #0
ARM GAS  /tmp/cchERvVK.s 			page 8


 400 0020 0DD0     		beq	.L64
 401              		.loc 1 807 0
 402 0022 8479     		ldrb	r4, [r0, #6]	@ zero_extendqisi2
 403 0024 002C     		cmp	r4, #0
 404 0026 00F08580 		beq	.L71
 405 002a C11D     		adds	r1, r0, #7
 406              	.LVL39:
 407              		.loc 1 806 0
 408 002c 0023     		movs	r3, #0
 409 002e 03E0     		b	.L52
 410              	.LVL40:
 411              	.L53:
 412              		.loc 1 807 0
 413 0030 11F8017B 		ldrb	r7, [r1], #1	@ zero_extendqisi2
 414 0034 87B3     		cbz	r7, .L72
 415 0036 2346     		mov	r3, r4
 416              	.LVL41:
 417              	.L52:
 418              		.loc 1 806 0 discriminator 2
 419 0038 5C1C     		adds	r4, r3, #1
 420              	.LVL42:
 421 003a 6445     		cmp	r4, ip
 422 003c F8D1     		bne	.L53
 423              	.LVL43:
 424              	.L64:
 425              		.loc 1 811 0
 426 003e 4FF0FF30 		mov	r0, #-1
 427              	.LVL44:
 428              		.loc 1 824 0
 429 0042 BDE8F081 		pop	{r4, r5, r6, r7, r8, pc}
 430              	.LVL45:
 431              	.L61:
 432              		.loc 1 822 0
 433 0046 0120     		movs	r0, #1
 434              	.LVL46:
 435              		.loc 1 824 0
 436 0048 BDE8F081 		pop	{r4, r5, r6, r7, r8, pc}
 437              	.LVL47:
 438              	.L42:
 439              		.loc 1 785 0
 440 004c C368     		ldr	r3, [r0, #12]
 441 004e B3B1     		cbz	r3, .L73
 442              	.L46:
 443              		.loc 1 791 0
 444 0050 D0F81CC0 		ldr	ip, [r0, #28]
 445              		.loc 1 789 0
 446 0054 42F00102 		orr	r2, r2, #1
 447              	.LVL48:
 448              		.loc 1 791 0
 449 0058 BCF1000F 		cmp	ip, #0
 450 005c EFD0     		beq	.L64
 451              		.loc 1 792 0
 452 005e 047D     		ldrb	r4, [r0, #20]	@ zero_extendqisi2
 453 0060 002C     		cmp	r4, #0
 454 0062 65D0     		beq	.L74
 455 0064 00F11501 		add	r1, r0, #21
 456              	.LVL49:
ARM GAS  /tmp/cchERvVK.s 			page 9


 457              		.loc 1 791 0
 458 0068 0023     		movs	r3, #0
 459 006a 04E0     		b	.L50
 460              	.LVL50:
 461              	.L51:
 462              		.loc 1 792 0
 463 006c 11F8017B 		ldrb	r7, [r1], #1	@ zero_extendqisi2
 464 0070 002F     		cmp	r7, #0
 465 0072 45D0     		beq	.L75
 466 0074 2346     		mov	r3, r4
 467              	.LVL51:
 468              	.L50:
 469              		.loc 1 791 0 discriminator 2
 470 0076 5C1C     		adds	r4, r3, #1
 471              	.LVL52:
 472 0078 A445     		cmp	ip, r4
 473 007a F7D1     		bne	.L51
 474 007c DFE7     		b	.L64
 475              	.LVL53:
 476              	.L73:
 477              		.loc 1 787 0
 478 007e 12F0020F 		tst	r2, #2
 479              		.loc 1 786 0
 480 0082 22F06042 		bic	r2, r2, #-536870912
 481              	.LVL54:
 482 0086 22F00302 		bic	r2, r2, #3
 483              	.LVL55:
 484              		.loc 1 787 0
 485 008a 0CBF     		ite	eq
 486 008c 4FF08043 		moveq	r3, #1073741824
 487 0090 4FF00043 		movne	r3, #-2147483648
 488 0094 1A43     		orrs	r2, r2, r3
 489              	.LVL56:
 490 0096 DBE7     		b	.L46
 491              	.LVL57:
 492              	.L72:
 493 0098 03F16063 		add	r3, r3, #234881024
 494 009c 03F20313 		addw	r3, r3, #259
 495 00a0 1901     		lsls	r1, r3, #4
 496 00a2 0F1D     		adds	r7, r1, #4
 497 00a4 01F10808 		add	r8, r1, #8
 498              	.LVL58:
 499              	.L45:
 500              		.loc 1 813 0
 501 00a8 2044     		add	r0, r0, r4
 502              	.LVL59:
 503 00aa 0123     		movs	r3, #1
 504 00ac 8371     		strb	r3, [r0, #6]
 505              		.loc 1 815 0
 506 00ae 3046     		mov	r0, r6
 507 00b0 FFF7FEFF 		bl	target_mem_write32
 508              	.LVL60:
 509 00b4 EB68     		ldr	r3, [r5, #12]
 510 00b6 013B     		subs	r3, r3, #1
 511 00b8 032B     		cmp	r3, #3
 512 00ba 1DD9     		bls	.L59
 513              		.loc 1 816 0
ARM GAS  /tmp/cchERvVK.s 			page 10


 514 00bc 4FF0FF32 		mov	r2, #-1
 515              	.L60:
 516              	.LVL61:
 517 00c0 3946     		mov	r1, r7
 518 00c2 3046     		mov	r0, r6
 519 00c4 FFF7FEFF 		bl	target_mem_write32
 520              	.LVL62:
 521              	.LBB58:
 522              	.LBB59:
 523              		.loc 1 762 0
 524 00c8 F26C     		ldr	r2, [r6, #76]
 525              	.LBE59:
 526              	.LBE58:
 527              		.loc 1 817 0
 528 00ca 2B79     		ldrb	r3, [r5, #4]	@ zero_extendqisi2
 529              	.LVL63:
 530              	.LBB62:
 531              	.LBB60:
 532              		.loc 1 760 0
 533 00cc 12F0010F 		tst	r2, #1
 534 00d0 0CBF     		ite	eq
 535 00d2 4FF40062 		moveq	r2, #2048
 536 00d6 0022     		movne	r2, #0
 537              	.LVL64:
 538              		.loc 1 765 0
 539 00d8 032B     		cmp	r3, #3
 540 00da 26D0     		beq	.L56
 541 00dc 042B     		cmp	r3, #4
 542 00de 21D0     		beq	.L57
 543 00e0 022B     		cmp	r3, #2
 544 00e2 1CD0     		beq	.L76
 545              		.loc 1 773 0
 546 00e4 4FF0FF32 		mov	r2, #-1
 547              	.LVL65:
 548              	.L55:
 549              	.LBE60:
 550              	.LBE62:
 551              		.loc 1 817 0
 552 00e8 3046     		mov	r0, r6
 553 00ea 4146     		mov	r1, r8
 554 00ec FFF7FEFF 		bl	target_mem_write32
 555              	.LVL66:
 556              		.loc 1 819 0
 557 00f0 2C61     		str	r4, [r5, #16]
 558              		.loc 1 820 0
 559 00f2 0020     		movs	r0, #0
 560              		.loc 1 824 0
 561 00f4 BDE8F081 		pop	{r4, r5, r6, r7, r8, pc}
 562              	.LVL67:
 563              	.L59:
 564 00f8 114A     		ldr	r2, .L77
 565 00fa 52F82320 		ldr	r2, [r2, r3, lsl #2]
 566 00fe DFE7     		b	.L60
 567              	.LVL68:
 568              	.L75:
 569 0100 03F16053 		add	r3, r3, #939524096
 570 0104 03F60303 		addw	r3, r3, #2051
ARM GAS  /tmp/cchERvVK.s 			page 11


 571 0108 9900     		lsls	r1, r3, #2
 572              	.LVL69:
 573              	.L49:
 574              		.loc 1 798 0
 575 010a 0319     		adds	r3, r0, r4
 576 010c 0127     		movs	r7, #1
 577              		.loc 1 799 0
 578 010e 3046     		mov	r0, r6
 579              	.LVL70:
 580              		.loc 1 798 0
 581 0110 1F75     		strb	r7, [r3, #20]
 582              		.loc 1 799 0
 583 0112 FFF7FEFF 		bl	target_mem_write32
 584              	.LVL71:
 585              		.loc 1 800 0
 586 0116 2C61     		str	r4, [r5, #16]
 587              		.loc 1 801 0
 588 0118 0020     		movs	r0, #0
 589              		.loc 1 824 0
 590 011a BDE8F081 		pop	{r4, r5, r6, r7, r8, pc}
 591              	.LVL72:
 592              	.L76:
 593              	.LBB63:
 594              	.LBB61:
 595              		.loc 1 767 0
 596 011e 42F00602 		orr	r2, r2, #6
 597              	.LVL73:
 598 0122 E1E7     		b	.L55
 599              	.LVL74:
 600              	.L57:
 601              		.loc 1 771 0
 602 0124 42F00702 		orr	r2, r2, #7
 603              	.LVL75:
 604 0128 DEE7     		b	.L55
 605              	.LVL76:
 606              	.L56:
 607              		.loc 1 769 0
 608 012a 42F00502 		orr	r2, r2, #5
 609              	.LVL77:
 610 012e DBE7     		b	.L55
 611              	.LVL78:
 612              	.L74:
 613              	.LBE61:
 614              	.LBE63:
 615              		.loc 1 792 0
 616 0130 0449     		ldr	r1, .L77+4
 617              	.LVL79:
 618 0132 EAE7     		b	.L49
 619              	.LVL80:
 620              	.L71:
 621              		.loc 1 807 0
 622 0134 DFF81880 		ldr	r8, .L77+16
 623 0138 034F     		ldr	r7, .L77+8
 624 013a 0449     		ldr	r1, .L77+12
 625              	.LVL81:
 626 013c B4E7     		b	.L45
 627              	.L78:
ARM GAS  /tmp/cchERvVK.s 			page 12


 628 013e 00BF     		.align	2
 629              	.L77:
 630 0140 00000000 		.word	.LANCHOR1
 631 0144 082000E0 		.word	-536862712
 632 0148 241000E0 		.word	-536866780
 633 014c 201000E0 		.word	-536866784
 634 0150 281000E0 		.word	-536866776
 635              		.cfi_endproc
 636              	.LFE286:
 637              		.size	cortexm_breakwatch_set, .-cortexm_breakwatch_set
 638              		.section	.text.cortexm_pc_read,"ax",%progbits
 639              		.align	1
 640              		.p2align 4,,15
 641              		.syntax unified
 642              		.thumb
 643              		.thumb_func
 644              		.fpu fpv4-sp-d16
 645              		.type	cortexm_pc_read, %function
 646              	cortexm_pc_read:
 647              	.LFB276:
 648              		.loc 1 493 0
 649              		.cfi_startproc
 650              		@ args = 0, pretend = 0, frame = 0
 651              		@ frame_needed = 0, uses_anonymous_args = 0
 652              	.LVL82:
 653 0000 10B5     		push	{r4, lr}
 654              		.cfi_def_cfa_offset 8
 655              		.cfi_offset 4, -8
 656              		.cfi_offset 14, -4
 657              		.loc 1 494 0
 658 0002 0549     		ldr	r1, .L81
 659              		.loc 1 493 0
 660 0004 0446     		mov	r4, r0
 661              		.loc 1 494 0
 662 0006 0F22     		movs	r2, #15
 663 0008 FFF7FEFF 		bl	target_mem_write32
 664              	.LVL83:
 665              		.loc 1 495 0
 666 000c 2046     		mov	r0, r4
 667 000e 0349     		ldr	r1, .L81+4
 668              		.loc 1 496 0
 669 0010 BDE81040 		pop	{r4, lr}
 670              		.cfi_restore 14
 671              		.cfi_restore 4
 672              		.cfi_def_cfa_offset 0
 673              	.LVL84:
 674              		.loc 1 495 0
 675 0014 FFF7FEBF 		b	target_mem_read32
 676              	.LVL85:
 677              	.L82:
 678              		.align	2
 679              	.L81:
 680 0018 F4ED00E0 		.word	-536809996
 681 001c F8ED00E0 		.word	-536809992
 682              		.cfi_endproc
 683              	.LFE276:
 684              		.size	cortexm_pc_read, .-cortexm_pc_read
ARM GAS  /tmp/cchERvVK.s 			page 13


 685              		.section	.text.cortexm_detach,"ax",%progbits
 686              		.align	1
 687              		.p2align 4,,15
 688              		.global	cortexm_detach
 689              		.syntax unified
 690              		.thumb
 691              		.thumb_func
 692              		.fpu fpv4-sp-d16
 693              		.type	cortexm_detach, %function
 694              	cortexm_detach:
 695              	.LFB272:
 696              		.loc 1 399 0
 697              		.cfi_startproc
 698              		@ args = 0, pretend = 0, frame = 0
 699              		@ frame_needed = 0, uses_anonymous_args = 0
 700              	.LVL86:
 701 0000 F8B5     		push	{r3, r4, r5, r6, r7, lr}
 702              		.cfi_def_cfa_offset 24
 703              		.cfi_offset 3, -24
 704              		.cfi_offset 4, -20
 705              		.cfi_offset 5, -16
 706              		.cfi_offset 6, -12
 707              		.cfi_offset 7, -8
 708              		.cfi_offset 14, -4
 709              		.loc 1 400 0
 710 0002 C76E     		ldr	r7, [r0, #108]
 711              	.LVL87:
 712              		.loc 1 404 0
 713 0004 FB69     		ldr	r3, [r7, #28]
 714              		.loc 1 399 0
 715 0006 0646     		mov	r6, r0
 716              		.loc 1 404 0
 717 0008 63B1     		cbz	r3, .L84
 718 000a 134D     		ldr	r5, .L97
 719 000c 0024     		movs	r4, #0
 720              	.LVL88:
 721              	.L85:
 722              		.loc 1 405 0 discriminator 3
 723 000e 2946     		mov	r1, r5
 724 0010 0022     		movs	r2, #0
 725 0012 3046     		mov	r0, r6
 726 0014 FFF7FEFF 		bl	target_mem_write32
 727              	.LVL89:
 728              		.loc 1 404 0 discriminator 3
 729 0018 FB69     		ldr	r3, [r7, #28]
 730 001a 0134     		adds	r4, r4, #1
 731              	.LVL90:
 732 001c A342     		cmp	r3, r4
 733 001e 05F10405 		add	r5, r5, #4
 734 0022 F4D8     		bhi	.L85
 735              	.LVL91:
 736              	.L84:
 737              		.loc 1 408 0
 738 0024 3B69     		ldr	r3, [r7, #16]
 739 0026 63B1     		cbz	r3, .L86
 740 0028 0C4D     		ldr	r5, .L97+4
 741 002a 0024     		movs	r4, #0
ARM GAS  /tmp/cchERvVK.s 			page 14


 742              	.LVL92:
 743              	.L87:
 744              		.loc 1 409 0 discriminator 3
 745 002c 2946     		mov	r1, r5
 746 002e 0022     		movs	r2, #0
 747 0030 3046     		mov	r0, r6
 748 0032 FFF7FEFF 		bl	target_mem_write32
 749              	.LVL93:
 750              		.loc 1 408 0 discriminator 3
 751 0036 3B69     		ldr	r3, [r7, #16]
 752 0038 0134     		adds	r4, r4, #1
 753              	.LVL94:
 754 003a A342     		cmp	r3, r4
 755 003c 05F11005 		add	r5, r5, #16
 756 0040 F4D8     		bhi	.L87
 757              	.LVL95:
 758              	.L86:
 759              		.loc 1 412 0
 760 0042 3046     		mov	r0, r6
 761 0044 0649     		ldr	r1, .L97+8
 762 0046 074A     		ldr	r2, .L97+12
 763 0048 FFF7FEFF 		bl	target_mem_write32
 764              	.LVL96:
 765              		.loc 1 414 0
 766 004c 3046     		mov	r0, r6
 767 004e 0021     		movs	r1, #0
 768              		.loc 1 415 0
 769 0050 BDE8F840 		pop	{r3, r4, r5, r6, r7, lr}
 770              		.cfi_restore 14
 771              		.cfi_restore 7
 772              		.cfi_restore 6
 773              		.cfi_restore 5
 774              		.cfi_restore 4
 775              		.cfi_restore 3
 776              		.cfi_def_cfa_offset 0
 777              	.LVL97:
 778              		.loc 1 414 0
 779 0054 FFF7FEBF 		b	target_mem_read32
 780              	.LVL98:
 781              	.L98:
 782              		.align	2
 783              	.L97:
 784 0058 082000E0 		.word	-536862712
 785 005c 281000E0 		.word	-536866776
 786 0060 F0ED00E0 		.word	-536810000
 787 0064 00005FA0 		.word	-1604386816
 788              		.cfi_endproc
 789              	.LFE272:
 790              		.size	cortexm_detach, .-cortexm_detach
 791              		.section	.text.cortexm_halt_request,"ax",%progbits
 792              		.align	1
 793              		.p2align 4,,15
 794              		.syntax unified
 795              		.thumb
 796              		.thumb_func
 797              		.fpu fpv4-sp-d16
 798              		.type	cortexm_halt_request, %function
ARM GAS  /tmp/cchERvVK.s 			page 15


 799              	cortexm_halt_request:
 800              	.LFB279:
 801              		.loc 1 541 0
 802              		.cfi_startproc
 803              		@ args = 0, pretend = 0, frame = 120
 804              		@ frame_needed = 0, uses_anonymous_args = 0
 805              	.LVL99:
 806 0000 70B5     		push	{r4, r5, r6, lr}
 807              		.cfi_def_cfa_offset 16
 808              		.cfi_offset 4, -16
 809              		.cfi_offset 5, -12
 810              		.cfi_offset 6, -8
 811              		.cfi_offset 14, -4
 812              		.loc 1 543 0
 813 0002 144B     		ldr	r3, .L107
 814              		.loc 1 541 0
 815 0004 9EB0     		sub	sp, sp, #120
 816              		.cfi_def_cfa_offset 136
 817              		.loc 1 543 0
 818 0006 0021     		movs	r1, #0
 819 0008 0391     		str	r1, [sp, #12]
 820 000a 1A68     		ldr	r2, [r3]
 821              		.loc 1 541 0
 822 000c 0190     		str	r0, [sp, #4]
 823              		.loc 1 543 0
 824 000e 03AC     		add	r4, sp, #12
 825 0010 0221     		movs	r1, #2
 826 0012 06A8     		add	r0, sp, #24
 827              	.LVL100:
 828 0014 0591     		str	r1, [sp, #20]
 829 0016 1C60     		str	r4, [r3]
 830 0018 1D92     		str	r2, [sp, #116]
 831 001a FFF7FEFF 		bl	setjmp
 832              	.LVL101:
 833 001e 80B9     		cbnz	r0, .L101
 834 0020 0C4C     		ldr	r4, .L107
 835 0022 2268     		ldr	r2, [r4]
 836 0024 03AB     		add	r3, sp, #12
 837 0026 9A42     		cmp	r2, r3
 838 0028 0BD1     		bne	.L101
 839              		.loc 1 544 0
 840 002a 0B4E     		ldr	r6, .L107+4
 841 002c 0B4D     		ldr	r5, .L107+8
 842              	.L102:
 843 002e 0198     		ldr	r0, [sp, #4]
 844 0030 3246     		mov	r2, r6
 845 0032 2946     		mov	r1, r5
 846 0034 FFF7FEFF 		bl	target_mem_write32
 847              	.LVL102:
 848              		.loc 1 543 0
 849 0038 1D9B     		ldr	r3, [sp, #116]
 850 003a 2360     		str	r3, [r4]
 851 003c 03AA     		add	r2, sp, #12
 852 003e 9342     		cmp	r3, r2
 853 0040 F5D0     		beq	.L102
 854              	.L101:
 855              		.loc 1 548 0
ARM GAS  /tmp/cchERvVK.s 			page 16


 856 0042 039B     		ldr	r3, [sp, #12]
 857 0044 1BB1     		cbz	r3, .L99
 858              		.loc 1 549 0
 859 0046 0198     		ldr	r0, [sp, #4]
 860 0048 0549     		ldr	r1, .L107+12
 861 004a FFF7FEFF 		bl	tc_printf
 862              	.LVL103:
 863              	.L99:
 864              		.loc 1 551 0
 865 004e 1EB0     		add	sp, sp, #120
 866              		.cfi_def_cfa_offset 16
 867              		@ sp needed
 868 0050 70BD     		pop	{r4, r5, r6, pc}
 869              	.LVL104:
 870              	.L108:
 871 0052 00BF     		.align	2
 872              	.L107:
 873 0054 00000000 		.word	innermost_exception
 874 0058 03005FA0 		.word	-1604386813
 875 005c F0ED00E0 		.word	-536810000
 876 0060 00000000 		.word	.LC15
 877              		.cfi_endproc
 878              	.LFE279:
 879              		.size	cortexm_halt_request, .-cortexm_halt_request
 880              		.section	.text.cortexm_halt_resume,"ax",%progbits
 881              		.align	1
 882              		.p2align 4,,15
 883              		.global	cortexm_halt_resume
 884              		.syntax unified
 885              		.thumb
 886              		.thumb_func
 887              		.fpu fpv4-sp-d16
 888              		.type	cortexm_halt_resume, %function
 889              	cortexm_halt_resume:
 890              	.LFB281:
 891              		.loc 1 617 0
 892              		.cfi_startproc
 893              		@ args = 0, pretend = 0, frame = 0
 894              		@ frame_needed = 0, uses_anonymous_args = 0
 895              	.LVL105:
 896 0000 F8B5     		push	{r3, r4, r5, r6, r7, lr}
 897              		.cfi_def_cfa_offset 24
 898              		.cfi_offset 3, -24
 899              		.cfi_offset 4, -20
 900              		.cfi_offset 5, -16
 901              		.cfi_offset 6, -12
 902              		.cfi_offset 7, -8
 903              		.cfi_offset 14, -4
 904              		.loc 1 618 0
 905 0002 C66E     		ldr	r6, [r0, #108]
 906              	.LVL106:
 907              		.loc 1 622 0
 908 0004 1C4C     		ldr	r4, .L122
 909 0006 1D4A     		ldr	r2, .L122+4
 910              		.loc 1 625 0
 911 0008 3379     		ldrb	r3, [r6, #4]	@ zero_extendqisi2
 912              		.loc 1 622 0
ARM GAS  /tmp/cchERvVK.s 			page 17


 913 000a 0029     		cmp	r1, #0
 914 000c 18BF     		it	ne
 915 000e 1446     		movne	r4, r2
 916              	.LVL107:
 917              		.loc 1 625 0
 918 0010 8B42     		cmp	r3, r1
 919              		.loc 1 617 0
 920 0012 0746     		mov	r7, r0
 921              		.loc 1 625 0
 922 0014 06D0     		beq	.L111
 923 0016 0D46     		mov	r5, r1
 924              		.loc 1 626 0
 925 0018 44F00202 		orr	r2, r4, #2
 926 001c 1849     		ldr	r1, .L122+8
 927              	.LVL108:
 928 001e FFF7FEFF 		bl	target_mem_write32
 929              	.LVL109:
 930              		.loc 1 627 0
 931 0022 3571     		strb	r5, [r6, #4]
 932              	.L111:
 933              		.loc 1 630 0
 934 0024 7379     		ldrb	r3, [r6, #5]	@ zero_extendqisi2
 935 0026 73B9     		cbnz	r3, .L121
 936              	.L113:
 937              		.loc 1 636 0
 938 0028 96F82430 		ldrb	r3, [r6, #36]	@ zero_extendqisi2
 939 002c 23B1     		cbz	r3, .L115
 940              		.loc 1 637 0
 941 002e 0022     		movs	r2, #0
 942 0030 1449     		ldr	r1, .L122+12
 943 0032 3846     		mov	r0, r7
 944 0034 FFF7FEFF 		bl	target_mem_write32
 945              	.LVL110:
 946              	.L115:
 947              		.loc 1 639 0
 948 0038 2246     		mov	r2, r4
 949 003a 3846     		mov	r0, r7
 950 003c 1049     		ldr	r1, .L122+8
 951              		.loc 1 640 0
 952 003e BDE8F840 		pop	{r3, r4, r5, r6, r7, lr}
 953              		.cfi_remember_state
 954              		.cfi_restore 14
 955              		.cfi_restore 7
 956              		.cfi_restore 6
 957              		.cfi_restore 5
 958              		.cfi_restore 4
 959              		.cfi_restore 3
 960              		.cfi_def_cfa_offset 0
 961              	.LVL111:
 962              		.loc 1 639 0
 963 0042 FFF7FEBF 		b	target_mem_write32
 964              	.LVL112:
 965              	.L121:
 966              		.cfi_restore_state
 967              	.LBB67:
 968              		.loc 1 631 0
 969 0046 3846     		mov	r0, r7
ARM GAS  /tmp/cchERvVK.s 			page 18


 970 0048 FFF7FEFF 		bl	cortexm_pc_read
 971              	.LVL113:
 972              		.loc 1 632 0
 973 004c 0146     		mov	r1, r0
 974              		.loc 1 631 0
 975 004e 0546     		mov	r5, r0
 976              	.LVL114:
 977              		.loc 1 632 0
 978 0050 3846     		mov	r0, r7
 979              	.LVL115:
 980 0052 FFF7FEFF 		bl	target_mem_read16
 981              	.LVL116:
 982 0056 00F47F40 		and	r0, r0, #65280
 983 005a B0F53E4F 		cmp	r0, #48640
 984 005e E3D1     		bne	.L113
 985              	.LVL117:
 986              	.LBB68:
 987              	.LBB69:
 988              		.loc 1 500 0
 989 0060 AA1C     		adds	r2, r5, #2
 990              	.LVL118:
 991 0062 3846     		mov	r0, r7
 992 0064 0849     		ldr	r1, .L122+16
 993 0066 FFF7FEFF 		bl	target_mem_write32
 994              	.LVL119:
 995              		.loc 1 501 0
 996 006a 084A     		ldr	r2, .L122+20
 997 006c 0849     		ldr	r1, .L122+24
 998 006e 3846     		mov	r0, r7
 999 0070 FFF7FEFF 		bl	target_mem_write32
 1000              	.LVL120:
 1001 0074 D8E7     		b	.L113
 1002              	.L123:
 1003 0076 00BF     		.align	2
 1004              	.L122:
 1005 0078 01005FA0 		.word	-1604386815
 1006 007c 0D005FA0 		.word	-1604386803
 1007 0080 F0ED00E0 		.word	-536810000
 1008 0084 50EF00E0 		.word	-536809648
 1009 0088 F8ED00E0 		.word	-536809992
 1010 008c 0F000100 		.word	65551
 1011 0090 F4ED00E0 		.word	-536809996
 1012              	.LBE69:
 1013              	.LBE68:
 1014              	.LBE67:
 1015              		.cfi_endproc
 1016              	.LFE281:
 1017              		.size	cortexm_halt_resume, .-cortexm_halt_resume
 1018              		.section	.text.cortexm_halt_poll,"ax",%progbits
 1019              		.align	1
 1020              		.p2align 4,,15
 1021              		.syntax unified
 1022              		.thumb
 1023              		.thumb_func
 1024              		.fpu fpv4-sp-d16
 1025              		.type	cortexm_halt_poll, %function
 1026              	cortexm_halt_poll:
ARM GAS  /tmp/cchERvVK.s 			page 19


 1027              	.LFB280:
 1028              		.loc 1 554 0
 1029              		.cfi_startproc
 1030              		@ args = 0, pretend = 0, frame = 208
 1031              		@ frame_needed = 1, uses_anonymous_args = 0
 1032              	.LVL121:
 1033 0000 2DE9F047 		push	{r4, r5, r6, r7, r8, r9, r10, lr}
 1034              		.cfi_def_cfa_offset 32
 1035              		.cfi_offset 4, -32
 1036              		.cfi_offset 5, -28
 1037              		.cfi_offset 6, -24
 1038              		.cfi_offset 7, -20
 1039              		.cfi_offset 8, -16
 1040              		.cfi_offset 9, -12
 1041              		.cfi_offset 10, -8
 1042              		.cfi_offset 14, -4
 1043 0004 B6B0     		sub	sp, sp, #216
 1044              		.cfi_def_cfa_offset 248
 1045              		.loc 1 559 0
 1046 0006 AF4B     		ldr	r3, .L196
 1047              		.loc 1 554 0
 1048 0008 02AF     		add	r7, sp, #8
 1049              		.cfi_def_cfa 7, 240
 1050              		.loc 1 554 0
 1051 000a 8446     		mov	ip, r0
 1052              		.loc 1 559 0
 1053 000c 07F16406 		add	r6, r7, #100
 1054 0010 1C68     		ldr	r4, [r3]
 1055              		.loc 1 554 0
 1056 0012 F860     		str	r0, [r7, #12]
 1057              		.loc 1 557 0
 1058 0014 0022     		movs	r2, #0
 1059              		.loc 1 559 0
 1060 0016 4FF0FF35 		mov	r5, #-1
 1061 001a 1E60     		str	r6, [r3]
 1062 001c 07F17000 		add	r0, r7, #112
 1063              	.LVL122:
 1064              		.loc 1 555 0
 1065 0020 DCF86C30 		ldr	r3, [ip, #108]
 1066              		.loc 1 557 0
 1067 0024 7A61     		str	r2, [r7, #20]
 1068              		.loc 1 554 0
 1069 0026 7960     		str	r1, [r7, #4]
 1070              		.loc 1 559 0
 1071 0028 7A66     		str	r2, [r7, #100]
 1072              		.loc 1 555 0
 1073 002a BB60     		str	r3, [r7, #8]
 1074              	.LVL123:
 1075              		.loc 1 559 0
 1076 002c FD66     		str	r5, [r7, #108]
 1077 002e C7F8CC40 		str	r4, [r7, #204]
 1078 0032 FFF7FEFF 		bl	setjmp
 1079              	.LVL124:
 1080 0036 80B9     		cbnz	r0, .L126
 1081 0038 A24D     		ldr	r5, .L196
 1082 003a 2C68     		ldr	r4, [r5]
 1083 003c 07F16403 		add	r3, r7, #100
ARM GAS  /tmp/cchERvVK.s 			page 20


 1084 0040 9C42     		cmp	r4, r3
 1085 0042 0AD1     		bne	.L126
 1086              		.loc 1 562 0
 1087 0044 A04E     		ldr	r6, .L196+4
 1088              	.L127:
 1089 0046 F868     		ldr	r0, [r7, #12]
 1090 0048 3146     		mov	r1, r6
 1091 004a FFF7FEFF 		bl	target_mem_read32
 1092              	.LVL125:
 1093 004e 7861     		str	r0, [r7, #20]
 1094              		.loc 1 559 0
 1095 0050 D7F8CC30 		ldr	r3, [r7, #204]
 1096 0054 2B60     		str	r3, [r5]
 1097 0056 A342     		cmp	r3, r4
 1098 0058 F5D0     		beq	.L127
 1099              	.L126:
 1100              		.loc 1 564 0
 1101 005a 7C6E     		ldr	r4, [r7, #100]
 1102 005c 012C     		cmp	r4, #1
 1103 005e 50D0     		beq	.L129
 1104 0060 022C     		cmp	r4, #2
 1105 0062 04D1     		bne	.L191
 1106              	.LVL126:
 1107              	.L175:
 1108              		.loc 1 571 0
 1109 0064 0020     		movs	r0, #0
 1110              	.L186:
 1111              		.loc 1 614 0
 1112 0066 D037     		adds	r7, r7, #208
 1113              		.cfi_remember_state
 1114              		.cfi_def_cfa_offset 32
 1115 0068 BD46     		mov	sp, r7
 1116              		.cfi_def_cfa_register 13
 1117              		@ sp needed
 1118 006a BDE8F087 		pop	{r4, r5, r6, r7, r8, r9, r10, pc}
 1119              	.LVL127:
 1120              	.L191:
 1121              		.cfi_restore_state
 1122              		.loc 1 574 0
 1123 006e 7B69     		ldr	r3, [r7, #20]
 1124 0070 9C03     		lsls	r4, r3, #14
 1125 0072 F7D5     		bpl	.L175
 1126              		.loc 1 578 0
 1127 0074 FE68     		ldr	r6, [r7, #12]
 1128 0076 954D     		ldr	r5, .L196+8
 1129 0078 3046     		mov	r0, r6
 1130 007a 2946     		mov	r1, r5
 1131 007c FFF7FEFF 		bl	target_mem_read32
 1132              	.LVL128:
 1133              		.loc 1 579 0
 1134 0080 2946     		mov	r1, r5
 1135              		.loc 1 578 0
 1136 0082 0446     		mov	r4, r0
 1137              	.LVL129:
 1138              		.loc 1 579 0
 1139 0084 0246     		mov	r2, r0
 1140 0086 3046     		mov	r0, r6
ARM GAS  /tmp/cchERvVK.s 			page 21


 1141              	.LVL130:
 1142 0088 FFF7FEFF 		bl	target_mem_write32
 1143              	.LVL131:
 1144              		.loc 1 581 0
 1145 008c 2007     		lsls	r0, r4, #28
 1146 008e 4BD4     		bmi	.L192
 1147              	.L133:
 1148              		.loc 1 585 0
 1149 0090 04F00203 		and	r3, r4, #2
 1150 0094 002B     		cmp	r3, #0
 1151 0096 BA68     		ldr	r2, [r7, #8]
 1152 0098 14BF     		ite	ne
 1153 009a 0123     		movne	r3, #1
 1154 009c 0023     		moveq	r3, #0
 1155 009e 5371     		strb	r3, [r2, #5]
 1156              		.loc 1 586 0
 1157 00a0 40F0AC80 		bne	.L193
 1158              		.loc 1 602 0
 1159 00a4 6307     		lsls	r3, r4, #29
 1160 00a6 33D5     		bpl	.L194
 1161              	.L165:
 1162              		.loc 1 603 0
 1163 00a8 7B68     		ldr	r3, [r7, #4]
 1164 00aa 002B     		cmp	r3, #0
 1165 00ac 3AD0     		beq	.L181
 1166              	.LVL132:
 1167              	.LBB79:
 1168              	.LBB80:
 1169              		.loc 1 848 0
 1170 00ae FB68     		ldr	r3, [r7, #12]
 1171 00b0 DE6E     		ldr	r6, [r3, #108]
 1172              	.LVL133:
 1173              		.loc 1 851 0
 1174 00b2 3369     		ldr	r3, [r6, #16]
 1175 00b4 002B     		cmp	r3, #0
 1176 00b6 00F0B280 		beq	.L172
 1177              		.loc 1 854 0
 1178 00ba DFF82482 		ldr	r8, .L196+28
 1179 00be B51D     		adds	r5, r6, #6
 1180              		.loc 1 851 0
 1181 00c0 0024     		movs	r4, #0
 1182              	.LVL134:
 1183 00c2 03E0     		b	.L169
 1184              	.LVL135:
 1185              	.L171:
 1186 00c4 3369     		ldr	r3, [r6, #16]
 1187 00c6 0134     		adds	r4, r4, #1
 1188              	.LVL136:
 1189 00c8 9C42     		cmp	r4, r3
 1190 00ca 0BD2     		bcs	.L170
 1191              	.LVL137:
 1192              	.L169:
 1193              		.loc 1 853 0
 1194 00cc 15F8013B 		ldrb	r3, [r5], #1	@ zero_extendqisi2
 1195 00d0 002B     		cmp	r3, #0
 1196 00d2 F7D0     		beq	.L171
 1197              		.loc 1 854 0
ARM GAS  /tmp/cchERvVK.s 			page 22


 1198 00d4 08EB0411 		add	r1, r8, r4, lsl #4
 1199 00d8 F868     		ldr	r0, [r7, #12]
 1200 00da FFF7FEFF 		bl	target_mem_read32
 1201              	.LVL138:
 1202              		.loc 1 853 0
 1203 00de C101     		lsls	r1, r0, #7
 1204 00e0 F0D5     		bpl	.L171
 1205 00e2 3369     		ldr	r3, [r6, #16]
 1206              	.L170:
 1207              		.loc 1 858 0
 1208 00e4 A342     		cmp	r3, r4
 1209 00e6 00F09A80 		beq	.L172
 1210              		.loc 1 861 0
 1211 00ea 04F16061 		add	r1, r4, #234881024
 1212 00ee 01F58171 		add	r1, r1, #258
 1213 00f2 0901     		lsls	r1, r1, #4
 1214 00f4 F868     		ldr	r0, [r7, #12]
 1215 00f6 FFF7FEFF 		bl	target_mem_read32
 1216              	.LVL139:
 1217              	.L167:
 1218              	.LBE80:
 1219              	.LBE79:
 1220              		.loc 1 604 0
 1221 00fa 7B68     		ldr	r3, [r7, #4]
 1222 00fc 1860     		str	r0, [r3]
 1223              		.loc 1 605 0
 1224 00fe 0520     		movs	r0, #5
 1225 0100 B1E7     		b	.L186
 1226              	.L129:
 1227              		.loc 1 567 0
 1228 0102 FFF7FEFF 		bl	target_list_free
 1229              	.LVL140:
 1230              		.loc 1 568 0
 1231 0106 2046     		mov	r0, r4
 1232              		.loc 1 614 0
 1233 0108 D037     		adds	r7, r7, #208
 1234              		.cfi_remember_state
 1235              		.cfi_def_cfa_offset 32
 1236 010a BD46     		mov	sp, r7
 1237              		.cfi_def_cfa_register 13
 1238              	.LVL141:
 1239              		@ sp needed
 1240 010c BDE8F087 		pop	{r4, r5, r6, r7, r8, r9, r10, pc}
 1241              	.LVL142:
 1242              	.L194:
 1243              		.cfi_restore_state
 1244              		.loc 1 610 0
 1245 0110 E207     		lsls	r2, r4, #31
 1246 0112 40F18280 		bpl	.L173
 1247              		.loc 1 611 0
 1248 0116 BB68     		ldr	r3, [r7, #8]
 1249 0118 1B79     		ldrb	r3, [r3, #4]	@ zero_extendqisi2
 1250 011a 002B     		cmp	r3, #0
 1251 011c 00F08180 		beq	.L163
 1252 0120 0320     		movs	r0, #3
 1253 0122 A0E7     		b	.L186
 1254              	.L181:
ARM GAS  /tmp/cchERvVK.s 			page 23


 1255              		.loc 1 605 0
 1256 0124 0520     		movs	r0, #5
 1257 0126 9EE7     		b	.L186
 1258              	.L192:
 1259              	.LVL143:
 1260              	.LBB82:
 1261              	.LBB83:
 1262              		.loc 1 644 0
 1263 0128 D7F80CA0 		ldr	r10, [r7, #12]
 1264 012c DFF8B481 		ldr	r8, .L196+32
 1265              		.loc 1 645 0
 1266 0130 674E     		ldr	r6, .L196+12
 1267              		.loc 1 644 0
 1268 0132 4146     		mov	r1, r8
 1269 0134 5046     		mov	r0, r10
 1270 0136 FFF7FEFF 		bl	target_mem_read32
 1271              	.LVL144:
 1272              		.loc 1 645 0
 1273 013a 3146     		mov	r1, r6
 1274              		.loc 1 644 0
 1275 013c 0546     		mov	r5, r0
 1276              	.LVL145:
 1277              		.loc 1 645 0
 1278 013e 5046     		mov	r0, r10
 1279              	.LVL146:
 1280 0140 FFF7FEFF 		bl	target_mem_read32
 1281              	.LVL147:
 1282              		.loc 1 646 0
 1283 0144 2A46     		mov	r2, r5
 1284              		.loc 1 645 0
 1285 0146 8146     		mov	r9, r0
 1286              	.LVL148:
 1287              		.loc 1 646 0
 1288 0148 4146     		mov	r1, r8
 1289 014a 5046     		mov	r0, r10
 1290              	.LVL149:
 1291 014c FFF7FEFF 		bl	target_mem_write32
 1292              	.LVL150:
 1293              		.loc 1 647 0
 1294 0150 3146     		mov	r1, r6
 1295 0152 4A46     		mov	r2, r9
 1296 0154 5046     		mov	r0, r10
 1297 0156 FFF7FEFF 		bl	target_mem_write32
 1298              	.LVL151:
 1299              		.loc 1 650 0
 1300 015a 6900     		lsls	r1, r5, #1
 1301 015c 02D4     		bmi	.L134
 1302 015e B9F1000F 		cmp	r9, #0
 1303 0162 95D0     		beq	.L133
 1304              	.L134:
 1305              	.LBB84:
 1306              		.loc 1 652 0
 1307 0164 F868     		ldr	r0, [r7, #12]
 1308 0166 C369     		ldr	r3, [r0, #28]
 1309 0168 23F00303 		bic	r3, r3, #3
 1310 016c 0A33     		adds	r3, r3, #10
 1311 016e 23F00703 		bic	r3, r3, #7
ARM GAS  /tmp/cchERvVK.s 			page 24


 1312              		.loc 1 650 0
 1313 0172 E846     		mov	r8, sp
 1314              	.LVL152:
 1315              		.loc 1 652 0
 1316 0174 ADEB030D 		sub	sp, sp, r3
 1317 0178 02AD     		add	r5, sp, #8
 1318              	.LVL153:
 1319              		.loc 1 656 0
 1320 017a 2946     		mov	r1, r5
 1321 017c FFF7FEFF 		bl	target_regs_read
 1322              	.LVL154:
 1323              		.loc 1 658 0
 1324 0180 AE6B     		ldr	r6, [r5, #56]
 1325              	.LVL155:
 1326              		.loc 1 663 0
 1327 0182 D7F80CA0 		ldr	r10, [r7, #12]
 1328              		.loc 1 662 0
 1329 0186 16F00409 		ands	r9, r6, #4
 1330              	.LVL156:
 1331 018a 14BF     		ite	ne
 1332 018c AA6C     		ldrne	r2, [r5, #72]
 1333 018e 6A6C     		ldreq	r2, [r5, #68]
 1334              	.LVL157:
 1335              		.loc 1 663 0
 1336 0190 2023     		movs	r3, #32
 1337 0192 07F14401 		add	r1, r7, #68
 1338 0196 5046     		mov	r0, r10
 1339 0198 FFF7FEFF 		bl	target_mem_read
 1340              	.LVL158:
 1341              		.loc 1 664 0
 1342 019c 5046     		mov	r0, r10
 1343 019e FFF7FEFF 		bl	target_check_error
 1344              	.LVL159:
 1345 01a2 0028     		cmp	r0, #0
 1346 01a4 3FD1     		bne	.L138
 1347              		.loc 1 666 0
 1348 01a6 BB6D     		ldr	r3, [r7, #88]
 1349              		.loc 1 671 0
 1350 01a8 3A6E     		ldr	r2, [r7, #96]
 1351              		.loc 1 666 0
 1352 01aa AB63     		str	r3, [r5, #56]
 1353              		.loc 1 670 0
 1354 01ac 16F01006 		ands	r6, r6, #16
 1355              	.LVL160:
 1356              		.loc 1 667 0
 1357 01b0 FB6D     		ldr	r3, [r7, #92]
 1358 01b2 EB63     		str	r3, [r5, #60]
 1359              		.loc 1 670 0
 1360 01b4 14BF     		ite	ne
 1361 01b6 2023     		movne	r3, #32
 1362 01b8 6823     		moveq	r3, #104
 1363              	.LVL161:
 1364              		.loc 1 671 0
 1365 01ba 9205     		lsls	r2, r2, #22
 1366              		.loc 1 672 0
 1367 01bc 48BF     		it	mi
 1368 01be 0433     		addmi	r3, r3, #4
ARM GAS  /tmp/cchERvVK.s 			page 25


 1369              	.LVL162:
 1370              		.loc 1 674 0
 1371 01c0 B9F1000F 		cmp	r9, #0
 1372 01c4 00F00981 		beq	.L141
 1373              		.loc 1 676 0
 1374 01c8 D5E91212 		ldrd	r1, r2, [r5, #72]
 1375 01cc 0B44     		add	r3, r3, r1
 1376              	.LVL163:
 1377              		.loc 1 675 0
 1378 01ce 42F08062 		orr	r2, r2, #67108864
 1379              		.loc 1 676 0
 1380 01d2 C5E91232 		strd	r3, r2, [r5, #72]
 1381 01d6 6B63     		str	r3, [r5, #52]
 1382              	.L142:
 1383              		.loc 1 681 0
 1384 01d8 1EB9     		cbnz	r6, .L143
 1385              		.loc 1 682 0
 1386 01da EB6C     		ldr	r3, [r5, #76]
 1387 01dc 43F00073 		orr	r3, r3, #33554432
 1388 01e0 EB64     		str	r3, [r5, #76]
 1389              	.L143:
 1390              		.loc 1 690 0
 1391 01e2 FC68     		ldr	r4, [r7, #12]
 1392              	.LVL164:
 1393 01e4 3B4A     		ldr	r2, .L196+16
 1394 01e6 3C49     		ldr	r1, .L196+20
 1395 01e8 2046     		mov	r0, r4
 1396 01ea FFF7FEFF 		bl	target_mem_write32
 1397              	.LVL165:
 1398              		.loc 1 694 0
 1399 01ee 2046     		mov	r0, r4
 1400 01f0 2946     		mov	r1, r5
 1401 01f2 FFF7FEFF 		bl	target_regs_write
 1402              	.LVL166:
 1403              	.LBE84:
 1404              	.LBE83:
 1405              	.LBE82:
 1406              		.loc 1 582 0
 1407 01f6 0620     		movs	r0, #6
 1408              	.LBB91:
 1409              	.LBB88:
 1410              	.LBB85:
 1411 01f8 C546     		mov	sp, r8
 1412              	.LVL167:
 1413 01fa 34E7     		b	.L186
 1414              	.LVL168:
 1415              	.L193:
 1416              	.LBE85:
 1417              	.LBE88:
 1418              	.LBE91:
 1419              	.LBB92:
 1420              		.loc 1 589 0
 1421 01fc FD68     		ldr	r5, [r7, #12]
 1422 01fe 2846     		mov	r0, r5
 1423 0200 FFF7FEFF 		bl	cortexm_pc_read
 1424              	.LVL169:
 1425              		.loc 1 591 0
ARM GAS  /tmp/cchERvVK.s 			page 26


 1426 0204 0146     		mov	r1, r0
 1427 0206 2846     		mov	r0, r5
 1428              	.LVL170:
 1429 0208 FFF7FEFF 		bl	target_mem_read16
 1430              	.LVL171:
 1431              		.loc 1 592 0
 1432 020c 4BF6AB63 		movw	r3, #48811
 1433 0210 9842     		cmp	r0, r3
 1434 0212 0AD0     		beq	.L195
 1435              	.LBE92:
 1436              		.loc 1 602 0
 1437 0214 6007     		lsls	r0, r4, #29
 1438              	.LVL172:
 1439 0216 3FF547AF 		bmi	.L165
 1440              	.L173:
 1441              		.loc 1 608 0
 1442 021a 0420     		movs	r0, #4
 1443 021c 23E7     		b	.L186
 1444              	.LVL173:
 1445              	.L172:
 1446              	.LBB102:
 1447              	.LBB81:
 1448              		.loc 1 859 0
 1449 021e 0020     		movs	r0, #0
 1450 0220 6BE7     		b	.L167
 1451              	.LVL174:
 1452              	.L163:
 1453              	.LBE81:
 1454              	.LBE102:
 1455              		.loc 1 611 0 discriminator 2
 1456 0222 0220     		movs	r0, #2
 1457 0224 1FE7     		b	.L186
 1458              	.LVL175:
 1459              	.L138:
 1460              	.LBB103:
 1461              	.LBB89:
 1462              	.LBB86:
 1463 0226 C546     		mov	sp, r8
 1464              	.LVL176:
 1465 0228 32E7     		b	.L133
 1466              	.LVL177:
 1467              	.L195:
 1468              	.LBE86:
 1469              	.LBE89:
 1470              	.LBE103:
 1471              	.LBB104:
 1472              	.LBB93:
 1473              	.LBB94:
 1474              		.loc 1 934 0
 1475 022a FC68     		ldr	r4, [r7, #12]
 1476              	.LVL178:
 1477 022c E369     		ldr	r3, [r4, #28]
 1478              		.loc 1 937 0
 1479 022e 6268     		ldr	r2, [r4, #4]
 1480              		.loc 1 934 0
 1481 0230 9B00     		lsls	r3, r3, #2
 1482 0232 0A33     		adds	r3, r3, #10
ARM GAS  /tmp/cchERvVK.s 			page 27


 1483 0234 23F00703 		bic	r3, r3, #7
 1484              		.loc 1 933 0
 1485 0238 6E46     		mov	r6, sp
 1486              	.LVL179:
 1487              		.loc 1 934 0
 1488 023a ADEB030D 		sub	sp, sp, r3
 1489 023e 02AD     		add	r5, sp, #8
 1490              	.LVL180:
 1491              		.loc 1 937 0
 1492 0240 0023     		movs	r3, #0
 1493              		.loc 1 934 0
 1494 0242 2046     		mov	r0, r4
 1495              	.LVL181:
 1496              		.loc 1 937 0
 1497 0244 82F83930 		strb	r3, [r2, #57]
 1498              		.loc 1 938 0
 1499 0248 2946     		mov	r1, r5
 1500 024a FFF7FEFF 		bl	target_regs_read
 1501              	.LVL182:
 1502              		.loc 1 939 0
 1503 024e 6A68     		ldr	r2, [r5, #4]
 1504 0250 1023     		movs	r3, #16
 1505 0252 07F11C01 		add	r1, r7, #28
 1506 0256 2046     		mov	r0, r4
 1507 0258 FFF7FEFF 		bl	target_mem_read
 1508              	.LVL183:
 1509              		.loc 1 943 0
 1510 025c B96A     		ldr	r1, [r7, #40]
 1511              		.loc 1 940 0
 1512 025e 2C68     		ldr	r4, [r5]
 1513              	.LVL184:
 1514              		.loc 1 943 0
 1515 0260 1E48     		ldr	r0, .L196+24
 1516 0262 D7E90723 		ldrd	r2, r3, [r7, #28]
 1517 0266 0191     		str	r1, [sp, #4]
 1518              	.LVL185:
 1519 0268 796A     		ldr	r1, [r7, #36]
 1520 026a 0091     		str	r1, [sp]
 1521 026c 2146     		mov	r1, r4
 1522              		.loc 1 945 0
 1523 026e 013C     		subs	r4, r4, #1
 1524              	.LVL186:
 1525              		.loc 1 943 0
 1526 0270 FFF7FEFF 		bl	commands_printf
 1527              	.LVL187:
 1528              		.loc 1 945 0
 1529 0274 122C     		cmp	r4, #18
 1530 0276 00F2B780 		bhi	.L178
 1531 027a DFE804F0 		tbb	[pc, r4]
 1532              	.L148:
 1533 027e 85       		.byte	(.L147-.L148)/2
 1534 027f 7F       		.byte	(.L149-.L148)/2
 1535 0280 78       		.byte	(.L150-.L148)/2
 1536 0281 B5       		.byte	(.L178-.L148)/2
 1537 0282 6E       		.byte	(.L151-.L148)/2
 1538 0283 62       		.byte	(.L152-.L148)/2
 1539 0284 B5       		.byte	(.L178-.L148)/2
ARM GAS  /tmp/cchERvVK.s 			page 28


 1540 0285 B5       		.byte	(.L178-.L148)/2
 1541 0286 5C       		.byte	(.L153-.L148)/2
 1542 0287 54       		.byte	(.L154-.L148)/2
 1543 0288 B5       		.byte	(.L178-.L148)/2
 1544 0289 4E       		.byte	(.L155-.L148)/2
 1545 028a B5       		.byte	(.L178-.L148)/2
 1546 028b 46       		.byte	(.L156-.L148)/2
 1547 028c 3A       		.byte	(.L157-.L148)/2
 1548 028d B5       		.byte	(.L178-.L148)/2
 1549 028e B5       		.byte	(.L178-.L148)/2
 1550 028f 0A       		.byte	(.L158-.L148)/2
 1551 0290 35       		.byte	(.L159-.L148)/2
 1552 0291 00       		.p2align 1
 1553              	.L158:
 1554              		.loc 1 1008 0
 1555 0292 D7E90712 		ldrd	r1, r2, [r7, #28]
 1556 0296 F868     		ldr	r0, [r7, #12]
 1557 0298 0132     		adds	r2, r2, #1
 1558 029a 0139     		subs	r1, r1, #1
 1559 029c FFF7FEFF 		bl	tc_system
 1560              	.LVL188:
 1561              	.L146:
 1562              		.loc 1 1025 0
 1563 02a0 FC68     		ldr	r4, [r7, #12]
 1564              		.loc 1 1024 0
 1565 02a2 2860     		str	r0, [r5]
 1566              		.loc 1 1025 0
 1567 02a4 2946     		mov	r1, r5
 1568 02a6 2046     		mov	r0, r4
 1569              	.LVL189:
 1570 02a8 FFF7FEFF 		bl	target_regs_write
 1571              	.LVL190:
 1572              		.loc 1 1027 0
 1573 02ac 6368     		ldr	r3, [r4, #4]
 1574 02ae 93F83930 		ldrb	r3, [r3, #57]	@ zero_extendqisi2
 1575 02b2 B546     		mov	sp, r6
 1576              	.LVL191:
 1577              	.LBE94:
 1578              	.LBE93:
 1579              		.loc 1 593 0
 1580 02b4 002B     		cmp	r3, #0
 1581 02b6 B4D1     		bne	.L163
 1582              		.loc 1 596 0
 1583 02b8 BB68     		ldr	r3, [r7, #8]
 1584 02ba 2046     		mov	r0, r4
 1585 02bc 1979     		ldrb	r1, [r3, #4]	@ zero_extendqisi2
 1586 02be FFF7FEFF 		bl	target_halt_resume
 1587              	.LVL192:
 1588 02c2 CFE6     		b	.L175
 1589              	.L197:
 1590              		.align	2
 1591              	.L196:
 1592 02c4 00000000 		.word	innermost_exception
 1593 02c8 F0ED00E0 		.word	-536810000
 1594 02cc 30ED00E0 		.word	-536810192
 1595 02d0 28ED00E0 		.word	-536810200
 1596 02d4 0200FA05 		.word	100270082
ARM GAS  /tmp/cchERvVK.s 			page 29


 1597 02d8 0CED00E0 		.word	-536810228
 1598 02dc 00000000 		.word	.LC16
 1599 02e0 281000E0 		.word	-536866776
 1600 02e4 2CED00E0 		.word	-536810196
 1601              	.LVL193:
 1602              	.L159:
 1603              	.LBB100:
 1604              	.LBB98:
 1605              		.loc 1 1016 0
 1606 02e8 FB68     		ldr	r3, [r7, #12]
 1607 02ea 5B68     		ldr	r3, [r3, #4]
 1608 02ec 93F83800 		ldrb	r0, [r3, #56]	@ zero_extendqisi2
 1609              	.LVL194:
 1610 02f0 D6E7     		b	.L146
 1611              	.LVL195:
 1612              	.L157:
 1613              		.loc 1 1002 0
 1614 02f2 BB6A     		ldr	r3, [r7, #40]
 1615              		.loc 1 1001 0
 1616 02f4 D7E90712 		ldrd	r1, r2, [r7, #28]
 1617              		.loc 1 1002 0
 1618 02f8 0133     		adds	r3, r3, #1
 1619              		.loc 1 1001 0
 1620 02fa 0093     		str	r3, [sp]
 1621 02fc 0132     		adds	r2, r2, #1
 1622 02fe 0139     		subs	r1, r1, #1
 1623 0300 7B6A     		ldr	r3, [r7, #36]
 1624 0302 F868     		ldr	r0, [r7, #12]
 1625 0304 FFF7FEFF 		bl	tc_rename
 1626              	.LVL196:
 1627 0308 CAE7     		b	.L146
 1628              	.L156:
 1629              		.loc 1 1005 0
 1630 030a D7E90712 		ldrd	r1, r2, [r7, #28]
 1631 030e F868     		ldr	r0, [r7, #12]
 1632 0310 0132     		adds	r2, r2, #1
 1633 0312 0139     		subs	r1, r1, #1
 1634 0314 FFF7FEFF 		bl	tc_unlink
 1635              	.LVL197:
 1636 0318 C2E7     		b	.L146
 1637              	.L155:
 1638              		.loc 1 1012 0
 1639 031a FB68     		ldr	r3, [r7, #12]
 1640 031c 5B68     		ldr	r3, [r3, #4]
 1641 031e 0020     		movs	r0, #0
 1642 0320 83F83800 		strb	r0, [r3, #56]
 1643 0324 BCE7     		b	.L146
 1644              	.L154:
 1645              		.loc 1 998 0
 1646 0326 D7E90712 		ldrd	r1, r2, [r7, #28]
 1647 032a 0023     		movs	r3, #0
 1648 032c 0139     		subs	r1, r1, #1
 1649 032e F868     		ldr	r0, [r7, #12]
 1650 0330 FFF7FEFF 		bl	tc_lseek
 1651              	.LVL198:
 1652 0334 B4E7     		b	.L146
 1653              	.L153:
ARM GAS  /tmp/cchERvVK.s 			page 30


 1654              		.loc 1 995 0
 1655 0336 F969     		ldr	r1, [r7, #28]
 1656 0338 F868     		ldr	r0, [r7, #12]
 1657 033a 0139     		subs	r1, r1, #1
 1658 033c FFF7FEFF 		bl	tc_isatty
 1659              	.LVL199:
 1660 0340 AEE7     		b	.L146
 1661              	.L152:
 1662              		.loc 1 982 0
 1663 0342 07F11C01 		add	r1, r7, #28
 1664 0346 0EC9     		ldm	r1, {r1, r2, r3}
 1665 0348 F868     		ldr	r0, [r7, #12]
 1666 034a 0139     		subs	r1, r1, #1
 1667 034c FFF7FEFF 		bl	tc_read
 1668              	.LVL200:
 1669              		.loc 1 983 0
 1670 0350 0028     		cmp	r0, #0
 1671 0352 A5DD     		ble	.L146
 1672              	.L190:
 1673              		.loc 1 989 0
 1674 0354 7B6A     		ldr	r3, [r7, #36]
 1675 0356 181A     		subs	r0, r3, r0
 1676              	.LVL201:
 1677 0358 A2E7     		b	.L146
 1678              	.LVL202:
 1679              	.L151:
 1680              		.loc 1 987 0
 1681 035a 07F11C01 		add	r1, r7, #28
 1682 035e 0EC9     		ldm	r1, {r1, r2, r3}
 1683 0360 F868     		ldr	r0, [r7, #12]
 1684 0362 0139     		subs	r1, r1, #1
 1685 0364 FFF7FEFF 		bl	tc_write
 1686              	.LVL203:
 1687              		.loc 1 988 0
 1688 0368 0028     		cmp	r0, #0
 1689 036a F3DC     		bgt	.L190
 1690 036c 98E7     		b	.L146
 1691              	.LVL204:
 1692              	.L150:
 1693              		.loc 1 992 0
 1694 036e 0123     		movs	r3, #1
 1695 0370 6A68     		ldr	r2, [r5, #4]
 1696 0372 F868     		ldr	r0, [r7, #12]
 1697 0374 0221     		movs	r1, #2
 1698 0376 FFF7FEFF 		bl	tc_write
 1699              	.LVL205:
 1700 037a 91E7     		b	.L146
 1701              	.L149:
 1702              		.loc 1 979 0
 1703 037c F969     		ldr	r1, [r7, #28]
 1704 037e F868     		ldr	r0, [r7, #12]
 1705 0380 0139     		subs	r1, r1, #1
 1706 0382 FFF7FEFF 		bl	tc_close
 1707              	.LVL206:
 1708 0386 8BE7     		b	.L146
 1709              	.L147:
 1710              	.LBB95:
ARM GAS  /tmp/cchERvVK.s 			page 31


 1711              		.loc 1 949 0
 1712 0388 DFF880E0 		ldr	lr, .L198+4
 1713              		.loc 1 957 0
 1714 038c 3C6A     		ldr	r4, [r7, #32]
 1715              	.LVL207:
 1716              		.loc 1 949 0
 1717 038e BEE80F00 		ldmia	lr!, {r0, r1, r2, r3}
 1718 0392 07F12C0C 		add	ip, r7, #44
 1719 0396 ACE80F00 		stmia	ip!, {r0, r1, r2, r3}
 1720 039a 9EE80300 		ldm	lr, {r0, r1}
 1721              		.loc 1 957 0
 1722 039e 6408     		lsrs	r4, r4, #1
 1723              		.loc 1 949 0
 1724 03a0 8CE80300 		stm	ip, {r0, r1}
 1725              		.loc 1 957 0
 1726 03a4 07F1D003 		add	r3, r7, #208
 1727 03a8 03EB8400 		add	r0, r3, r4, lsl #2
 1728              		.loc 1 960 0
 1729 03ac 07F11801 		add	r1, r7, #24
 1730              		.loc 1 957 0
 1731 03b0 50F8A44C 		ldr	r4, [r0, #-164]
 1732              	.LVL208:
 1733              		.loc 1 960 0
 1734 03b4 FA69     		ldr	r2, [r7, #28]
 1735 03b6 F868     		ldr	r0, [r7, #12]
 1736 03b8 0423     		movs	r3, #4
 1737 03ba FFF7FEFF 		bl	target_mem_read
 1738              	.LVL209:
 1739              		.loc 1 962 0
 1740 03be 07F11800 		add	r0, r7, #24
 1741 03c2 1149     		ldr	r1, .L198
 1742 03c4 FFF7FEFF 		bl	strcmp
 1743              	.LVL210:
 1744 03c8 80B9     		cbnz	r0, .L160
 1745              		.loc 1 963 0
 1746 03ca 5CB1     		cbz	r4, .L179
 1747              		.loc 1 966 0
 1748 03cc 14F4806F 		tst	r4, #1024
 1749 03d0 0CBF     		ite	eq
 1750 03d2 0220     		moveq	r0, #2
 1751 03d4 0120     		movne	r0, #1
 1752              	.LVL211:
 1753              	.L189:
 1754              		.loc 1 975 0
 1755 03d6 0130     		adds	r0, r0, #1
 1756              	.LVL212:
 1757 03d8 62E7     		b	.L146
 1758              	.LVL213:
 1759              	.L141:
 1760              	.LBE95:
 1761              	.LBE98:
 1762              	.LBE100:
 1763              	.LBE104:
 1764              	.LBB105:
 1765              	.LBB90:
 1766              	.LBB87:
 1767              		.loc 1 678 0
ARM GAS  /tmp/cchERvVK.s 			page 32


 1768 03da 6A6C     		ldr	r2, [r5, #68]
 1769 03dc 1344     		add	r3, r3, r2
 1770              	.LVL214:
 1771 03de 6B64     		str	r3, [r5, #68]
 1772 03e0 6B63     		str	r3, [r5, #52]
 1773 03e2 F9E6     		b	.L142
 1774              	.LVL215:
 1775              	.L179:
 1776              	.LBE87:
 1777              	.LBE90:
 1778              	.LBE105:
 1779              	.LBB106:
 1780              	.LBB101:
 1781              	.LBB99:
 1782              	.LBB96:
 1783              		.loc 1 964 0
 1784 03e4 2046     		mov	r0, r4
 1785              	.LVL216:
 1786 03e6 F6E7     		b	.L189
 1787              	.LVL217:
 1788              	.L178:
 1789              	.LBE96:
 1790              		.loc 1 941 0
 1791 03e8 0020     		movs	r0, #0
 1792 03ea 59E7     		b	.L146
 1793              	.LVL218:
 1794              	.L160:
 1795              	.LBB97:
 1796              		.loc 1 973 0
 1797 03ec 7A6A     		ldr	r2, [r7, #36]
 1798 03ee 4FF4D273 		mov	r3, #420
 1799 03f2 0093     		str	r3, [sp]
 1800 03f4 0132     		adds	r2, r2, #1
 1801 03f6 A3B2     		uxth	r3, r4
 1802 03f8 F969     		ldr	r1, [r7, #28]
 1803 03fa F868     		ldr	r0, [r7, #12]
 1804 03fc FFF7FEFF 		bl	tc_open
 1805              	.LVL219:
 1806              		.loc 1 974 0
 1807 0400 441C     		adds	r4, r0, #1
 1808              	.LVL220:
 1809 0402 E8D1     		bne	.L189
 1810 0404 4CE7     		b	.L146
 1811              	.L199:
 1812 0406 00BF     		.align	2
 1813              	.L198:
 1814 0408 24000000 		.word	.LC17
 1815 040c 2C000000 		.word	.LANCHOR0+44
 1816              	.LBE97:
 1817              	.LBE99:
 1818              	.LBE101:
 1819              	.LBE106:
 1820              		.cfi_endproc
 1821              	.LFE280:
 1822              		.size	cortexm_halt_poll, .-cortexm_halt_poll
 1823              		.section	.text.cortexm_reset,"ax",%progbits
 1824              		.align	1
ARM GAS  /tmp/cchERvVK.s 			page 33


 1825              		.p2align 4,,15
 1826              		.syntax unified
 1827              		.thumb
 1828              		.thumb_func
 1829              		.fpu fpv4-sp-d16
 1830              		.type	cortexm_reset, %function
 1831              	cortexm_reset:
 1832              	.LFB278:
 1833              		.loc 1 507 0
 1834              		.cfi_startproc
 1835              		@ args = 0, pretend = 0, frame = 0
 1836              		@ frame_needed = 0, uses_anonymous_args = 0
 1837              	.LVL221:
 1838 0000 38B5     		push	{r3, r4, r5, lr}
 1839              		.cfi_def_cfa_offset 16
 1840              		.cfi_offset 3, -16
 1841              		.cfi_offset 4, -12
 1842              		.cfi_offset 5, -8
 1843              		.cfi_offset 14, -4
 1844              		.loc 1 507 0
 1845 0002 0446     		mov	r4, r0
 1846              		.loc 1 508 0
 1847 0004 C06C     		ldr	r0, [r0, #76]
 1848              	.LVL222:
 1849 0006 10F00405 		ands	r5, r0, #4
 1850 000a 1DD0     		beq	.L209
 1851              	.L201:
 1852              		.loc 1 514 0
 1853 000c 1249     		ldr	r1, .L210
 1854 000e 2046     		mov	r0, r4
 1855 0010 FFF7FEFF 		bl	target_mem_read32
 1856              	.LVL223:
 1857              		.loc 1 520 0
 1858 0014 114A     		ldr	r2, .L210+4
 1859 0016 1249     		ldr	r1, .L210+8
 1860 0018 2046     		mov	r0, r4
 1861 001a FFF7FEFF 		bl	target_mem_write32
 1862              	.LVL224:
 1863              		.loc 1 524 0
 1864 001e 236B     		ldr	r3, [r4, #48]
 1865 0020 0BB1     		cbz	r3, .L202
 1866              		.loc 1 525 0
 1867 0022 2046     		mov	r0, r4
 1868 0024 9847     		blx	r3
 1869              	.LVL225:
 1870              	.L202:
 1871              		.loc 1 529 0 discriminator 1
 1872 0026 0C4D     		ldr	r5, .L210
 1873              	.L203:
 1874 0028 2946     		mov	r1, r5
 1875 002a 2046     		mov	r0, r4
 1876 002c FFF7FEFF 		bl	target_mem_read32
 1877              	.LVL226:
 1878 0030 8301     		lsls	r3, r0, #6
 1879 0032 F9D4     		bmi	.L203
 1880              		.loc 1 532 0
 1881 0034 2046     		mov	r0, r4
ARM GAS  /tmp/cchERvVK.s 			page 34


 1882 0036 1F22     		movs	r2, #31
 1883 0038 0A49     		ldr	r1, .L210+12
 1884 003a FFF7FEFF 		bl	target_mem_write32
 1885              	.LVL227:
 1886              		.loc 1 537 0
 1887 003e 0120     		movs	r0, #1
 1888              		.loc 1 538 0
 1889 0040 BDE83840 		pop	{r3, r4, r5, lr}
 1890              		.cfi_remember_state
 1891              		.cfi_restore 14
 1892              		.cfi_restore 5
 1893              		.cfi_restore 4
 1894              		.cfi_restore 3
 1895              		.cfi_def_cfa_offset 0
 1896              	.LVL228:
 1897              		.loc 1 537 0
 1898 0044 FFF7FEBF 		b	platform_delay
 1899              	.LVL229:
 1900              	.L209:
 1901              		.cfi_restore_state
 1902              		.loc 1 509 0
 1903 0048 0120     		movs	r0, #1
 1904 004a FFF7FEFF 		bl	platform_srst_set_val
 1905              	.LVL230:
 1906              		.loc 1 510 0
 1907 004e 2846     		mov	r0, r5
 1908 0050 FFF7FEFF 		bl	platform_srst_set_val
 1909              	.LVL231:
 1910 0054 DAE7     		b	.L201
 1911              	.L211:
 1912 0056 00BF     		.align	2
 1913              	.L210:
 1914 0058 F0ED00E0 		.word	-536810000
 1915 005c 0400FA05 		.word	100270084
 1916 0060 0CED00E0 		.word	-536810228
 1917 0064 30ED00E0 		.word	-536810192
 1918              		.cfi_endproc
 1919              	.LFE278:
 1920              		.size	cortexm_reset, .-cortexm_reset
 1921              		.section	.text.cortexm_regs_write,"ax",%progbits
 1922              		.align	1
 1923              		.p2align 4,,15
 1924              		.syntax unified
 1925              		.thumb
 1926              		.thumb_func
 1927              		.fpu fpv4-sp-d16
 1928              		.type	cortexm_regs_write, %function
 1929              	cortexm_regs_write:
 1930              	.LFB274:
 1931              		.loc 1 451 0
 1932              		.cfi_startproc
 1933              		@ args = 0, pretend = 0, frame = 0
 1934              		@ frame_needed = 0, uses_anonymous_args = 0
 1935              	.LVL232:
 1936 0000 2DE9F84F 		push	{r3, r4, r5, r6, r7, r8, r9, r10, fp, lr}
 1937              		.cfi_def_cfa_offset 40
 1938              		.cfi_offset 3, -40
ARM GAS  /tmp/cchERvVK.s 			page 35


 1939              		.cfi_offset 4, -36
 1940              		.cfi_offset 5, -32
 1941              		.cfi_offset 6, -28
 1942              		.cfi_offset 7, -24
 1943              		.cfi_offset 8, -20
 1944              		.cfi_offset 9, -16
 1945              		.cfi_offset 10, -12
 1946              		.cfi_offset 11, -8
 1947              		.cfi_offset 14, -4
 1948              	.LBB107:
 1949              	.LBB108:
 1950              		.loc 1 193 0
 1951 0004 C36E     		ldr	r3, [r0, #108]
 1952 0006 2E4F     		ldr	r7, .L223
 1953 0008 1D68     		ldr	r5, [r3]
 1954              	.LBE108:
 1955              	.LBE107:
 1956              		.loc 1 457 0
 1957 000a AA69     		ldr	r2, [r5, #24]
 1958              		.loc 1 451 0
 1959 000c 8946     		mov	r9, r1
 1960              		.loc 1 457 0
 1961 000e 42F00202 		orr	r2, r2, #2
 1962 0012 4FF48071 		mov	r1, #256
 1963              	.LVL233:
 1964              		.loc 1 451 0
 1965 0016 8246     		mov	r10, r0
 1966              	.LVL234:
 1967              		.loc 1 457 0
 1968 0018 2846     		mov	r0, r5
 1969              	.LVL235:
 1970 001a FFF7FEFF 		bl	adiv5_ap_write
 1971              	.LVL236:
 1972              		.loc 1 461 0
 1973 001e 6868     		ldr	r0, [r5, #4]
 1974              	.LVL237:
 1975              	.LBB109:
 1976              	.LBB110:
 1977              		.loc 2 153 0
 1978 0020 284B     		ldr	r3, .L223+4
 1979 0022 8469     		ldr	r4, [r0, #24]
 1980              	.LBE110:
 1981              	.LBE109:
 1982              		.loc 1 465 0
 1983 0024 C846     		mov	r8, r9
 1984              	.LBB112:
 1985              	.LBB111:
 1986              		.loc 2 153 0
 1987 0026 4FF48272 		mov	r2, #260
 1988 002a 0021     		movs	r1, #0
 1989 002c A047     		blx	r4
 1990              	.LVL238:
 1991              	.LBE111:
 1992              	.LBE112:
 1993              		.loc 1 465 0
 1994 002e 2846     		mov	r0, r5
 1995 0030 58F8502B 		ldr	r2, [r8], #80
ARM GAS  /tmp/cchERvVK.s 			page 36


 1996 0034 4FF48C71 		mov	r1, #280
 1997 0038 FFF7FEFF 		bl	adiv5_ap_write
 1998              	.LVL239:
 1999              		.loc 1 466 0
 2000 003c 6868     		ldr	r0, [r5, #4]
 2001              	.LBB113:
 2002              	.LBB114:
 2003              		.loc 2 153 0
 2004 003e 4FF48033 		mov	r3, #65536
 2005 0042 8469     		ldr	r4, [r0, #24]
 2006 0044 4FF48A72 		mov	r2, #276
 2007 0048 0021     		movs	r1, #0
 2008 004a A047     		blx	r4
 2009              	.LVL240:
 2010 004c 0126     		movs	r6, #1
 2011              	.LBE114:
 2012              	.LBE113:
 2013              		.loc 1 465 0
 2014 004e 09F10404 		add	r4, r9, #4
 2015              	.LVL241:
 2016 0052 01E0     		b	.L214
 2017              	.LVL242:
 2018              	.L221:
 2019 0054 57F8046F 		ldr	r6, [r7, #4]!
 2020              	.L214:
 2021              		.loc 1 469 0 discriminator 3
 2022 0058 6868     		ldr	r0, [r5, #4]
 2023              	.LVL243:
 2024              	.LBB115:
 2025              	.LBB116:
 2026              		.loc 2 153 0 discriminator 3
 2027 005a 54F8043B 		ldr	r3, [r4], #4
 2028              	.LVL244:
 2029 005e D0F818B0 		ldr	fp, [r0, #24]
 2030 0062 4FF48C72 		mov	r2, #280
 2031 0066 0021     		movs	r1, #0
 2032 0068 D847     		blx	fp
 2033              	.LVL245:
 2034              	.LBE116:
 2035              	.LBE115:
 2036              		.loc 1 471 0 discriminator 3
 2037 006a 6868     		ldr	r0, [r5, #4]
 2038              	.LVL246:
 2039              	.LBB117:
 2040              	.LBB118:
 2041              		.loc 2 153 0 discriminator 3
 2042 006c 46F48033 		orr	r3, r6, #65536
 2043              	.LVL247:
 2044 0070 4FF48A72 		mov	r2, #276
 2045 0074 8669     		ldr	r6, [r0, #24]
 2046 0076 0021     		movs	r1, #0
 2047 0078 B047     		blx	r6
 2048              	.LVL248:
 2049              	.LBE118:
 2050              	.LBE117:
 2051              		.loc 1 468 0 discriminator 3
 2052 007a 4445     		cmp	r4, r8
ARM GAS  /tmp/cchERvVK.s 			page 37


 2053 007c EAD1     		bne	.L221
 2054              		.loc 1 474 0
 2055 007e DAF84C30 		ldr	r3, [r10, #76]
 2056 0082 9B07     		lsls	r3, r3, #30
 2057 0084 19D5     		bpl	.L212
 2058 0086 104F     		ldr	r7, .L223+8
 2059 0088 09F1D409 		add	r9, r9, #212
 2060              	.LVL249:
 2061 008c 2126     		movs	r6, #33
 2062 008e 01E0     		b	.L216
 2063              	.L222:
 2064 0090 57F8046F 		ldr	r6, [r7, #4]!
 2065              	.L216:
 2066              		.loc 1 476 0 discriminator 3
 2067 0094 6868     		ldr	r0, [r5, #4]
 2068              	.LVL250:
 2069              	.LBB119:
 2070              	.LBB120:
 2071              		.loc 2 153 0 discriminator 3
 2072 0096 54F8043B 		ldr	r3, [r4], #4
 2073              	.LVL251:
 2074 009a D0F81880 		ldr	r8, [r0, #24]
 2075 009e 4FF48C72 		mov	r2, #280
 2076 00a2 0021     		movs	r1, #0
 2077 00a4 C047     		blx	r8
 2078              	.LVL252:
 2079              	.LBE120:
 2080              	.LBE119:
 2081              		.loc 1 478 0 discriminator 3
 2082 00a6 6868     		ldr	r0, [r5, #4]
 2083              	.LVL253:
 2084              	.LBB121:
 2085              	.LBB122:
 2086              		.loc 2 153 0 discriminator 3
 2087 00a8 46F48033 		orr	r3, r6, #65536
 2088              	.LVL254:
 2089 00ac 4FF48A72 		mov	r2, #276
 2090 00b0 8669     		ldr	r6, [r0, #24]
 2091 00b2 0021     		movs	r1, #0
 2092 00b4 B047     		blx	r6
 2093              	.LVL255:
 2094              	.LBE122:
 2095              	.LBE121:
 2096              		.loc 1 475 0 discriminator 3
 2097 00b6 A145     		cmp	r9, r4
 2098 00b8 EAD1     		bne	.L222
 2099              	.LVL256:
 2100              	.L212:
 2101              		.loc 1 482 0
 2102 00ba BDE8F88F 		pop	{r3, r4, r5, r6, r7, r8, r9, r10, fp, pc}
 2103              	.LVL257:
 2104              	.L224:
 2105 00be 00BF     		.align	2
 2106              	.L223:
 2107 00c0 04000000 		.word	.LANCHOR2+4
 2108 00c4 F0ED00E0 		.word	-536810000
 2109 00c8 00000000 		.word	.LANCHOR3
ARM GAS  /tmp/cchERvVK.s 			page 38


 2110              		.cfi_endproc
 2111              	.LFE274:
 2112              		.size	cortexm_regs_write, .-cortexm_regs_write
 2113              		.section	.text.cortexm_regs_read,"ax",%progbits
 2114              		.align	1
 2115              		.p2align 4,,15
 2116              		.syntax unified
 2117              		.thumb
 2118              		.thumb_func
 2119              		.fpu fpv4-sp-d16
 2120              		.type	cortexm_regs_read, %function
 2121              	cortexm_regs_read:
 2122              	.LFB273:
 2123              		.loc 1 420 0
 2124              		.cfi_startproc
 2125              		@ args = 0, pretend = 0, frame = 0
 2126              		@ frame_needed = 0, uses_anonymous_args = 0
 2127              	.LVL258:
 2128              	.LBB123:
 2129              	.LBB124:
 2130              		.loc 1 193 0
 2131 0000 C36E     		ldr	r3, [r0, #108]
 2132              	.LBE124:
 2133              	.LBE123:
 2134              		.loc 1 420 0
 2135 0002 2DE9F047 		push	{r4, r5, r6, r7, r8, r9, r10, lr}
 2136              		.cfi_def_cfa_offset 32
 2137              		.cfi_offset 4, -32
 2138              		.cfi_offset 5, -28
 2139              		.cfi_offset 6, -24
 2140              		.cfi_offset 7, -20
 2141              		.cfi_offset 8, -16
 2142              		.cfi_offset 9, -12
 2143              		.cfi_offset 10, -8
 2144              		.cfi_offset 14, -4
 2145              	.LBB126:
 2146              	.LBB125:
 2147              		.loc 1 193 0
 2148 0006 1D68     		ldr	r5, [r3]
 2149 0008 284E     		ldr	r6, .L236
 2150              	.LBE125:
 2151              	.LBE126:
 2152              		.loc 1 426 0
 2153 000a AA69     		ldr	r2, [r5, #24]
 2154              		.loc 1 420 0
 2155 000c 8846     		mov	r8, r1
 2156              		.loc 1 426 0
 2157 000e 42F00202 		orr	r2, r2, #2
 2158 0012 4FF48071 		mov	r1, #256
 2159              	.LVL259:
 2160              		.loc 1 420 0
 2161 0016 8146     		mov	r9, r0
 2162              	.LVL260:
 2163              		.loc 1 426 0
 2164 0018 2846     		mov	r0, r5
 2165              	.LVL261:
 2166 001a FFF7FEFF 		bl	adiv5_ap_write
ARM GAS  /tmp/cchERvVK.s 			page 39


 2167              	.LVL262:
 2168              		.loc 1 430 0
 2169 001e 6868     		ldr	r0, [r5, #4]
 2170              	.LVL263:
 2171              	.LBB127:
 2172              	.LBB128:
 2173              		.loc 2 153 0
 2174 0020 234B     		ldr	r3, .L236+4
 2175 0022 8469     		ldr	r4, [r0, #24]
 2176 0024 4FF48272 		mov	r2, #260
 2177 0028 0021     		movs	r1, #0
 2178 002a A047     		blx	r4
 2179              	.LVL264:
 2180              	.LBE128:
 2181              	.LBE127:
 2182              		.loc 1 434 0
 2183 002c 2846     		mov	r0, r5
 2184 002e 0022     		movs	r2, #0
 2185 0030 4FF48A71 		mov	r1, #276
 2186 0034 FFF7FEFF 		bl	adiv5_ap_write
 2187              	.LVL265:
 2188              		.loc 1 435 0
 2189 0038 6868     		ldr	r0, [r5, #4]
 2190              	.LBB129:
 2191              	.LBB130:
 2192              		.loc 2 142 0
 2193 003a 4FF48C71 		mov	r1, #280
 2194 003e 0369     		ldr	r3, [r0, #16]
 2195 0040 9847     		blx	r3
 2196              	.LVL266:
 2197              	.LBE130:
 2198              	.LBE129:
 2199              		.loc 1 435 0
 2200 0042 4746     		mov	r7, r8
 2201 0044 08F10404 		add	r4, r8, #4
 2202              	.LVL267:
 2203 0048 47F8500B 		str	r0, [r7], #80
 2204              	.LVL268:
 2205 004c 0123     		movs	r3, #1
 2206 004e 01E0     		b	.L227
 2207              	.LVL269:
 2208              	.L234:
 2209 0050 56F8043F 		ldr	r3, [r6, #4]!
 2210              	.L227:
 2211              		.loc 1 437 0 discriminator 3
 2212 0054 6868     		ldr	r0, [r5, #4]
 2213              	.LVL270:
 2214              	.LBB131:
 2215              	.LBB132:
 2216              		.loc 2 153 0 discriminator 3
 2217 0056 4FF48A72 		mov	r2, #276
 2218 005a 0021     		movs	r1, #0
 2219 005c D0F818A0 		ldr	r10, [r0, #24]
 2220 0060 D047     		blx	r10
 2221              	.LVL271:
 2222              	.LBE132:
 2223              	.LBE131:
ARM GAS  /tmp/cchERvVK.s 			page 40


 2224              		.loc 1 439 0 discriminator 3
 2225 0062 6868     		ldr	r0, [r5, #4]
 2226              	.LVL272:
 2227              	.LBB133:
 2228              	.LBB134:
 2229              		.loc 2 142 0 discriminator 3
 2230 0064 4FF48C71 		mov	r1, #280
 2231 0068 0369     		ldr	r3, [r0, #16]
 2232 006a 9847     		blx	r3
 2233              	.LVL273:
 2234              	.LBE134:
 2235              	.LBE133:
 2236              		.loc 1 439 0 discriminator 3
 2237 006c 44F8040B 		str	r0, [r4], #4
 2238              	.LVL274:
 2239              		.loc 1 436 0 discriminator 3
 2240 0070 BC42     		cmp	r4, r7
 2241 0072 EDD1     		bne	.L234
 2242              		.loc 1 441 0
 2243 0074 D9F84C30 		ldr	r3, [r9, #76]
 2244 0078 9B07     		lsls	r3, r3, #30
 2245 007a 15D5     		bpl	.L225
 2246 007c 0D4E     		ldr	r6, .L236+8
 2247 007e 08F1D408 		add	r8, r8, #212
 2248              	.LVL275:
 2249 0082 2123     		movs	r3, #33
 2250 0084 01E0     		b	.L229
 2251              	.L235:
 2252 0086 56F8043F 		ldr	r3, [r6, #4]!
 2253              	.L229:
 2254              		.loc 1 443 0 discriminator 3
 2255 008a 6868     		ldr	r0, [r5, #4]
 2256              	.LVL276:
 2257              	.LBB135:
 2258              	.LBB136:
 2259              		.loc 2 153 0 discriminator 3
 2260 008c 4FF48A72 		mov	r2, #276
 2261 0090 0021     		movs	r1, #0
 2262 0092 8769     		ldr	r7, [r0, #24]
 2263 0094 B847     		blx	r7
 2264              	.LVL277:
 2265              	.LBE136:
 2266              	.LBE135:
 2267              		.loc 1 446 0 discriminator 3
 2268 0096 6868     		ldr	r0, [r5, #4]
 2269              	.LVL278:
 2270              	.LBB137:
 2271              	.LBB138:
 2272              		.loc 2 142 0 discriminator 3
 2273 0098 4FF48C71 		mov	r1, #280
 2274 009c 0369     		ldr	r3, [r0, #16]
 2275 009e 9847     		blx	r3
 2276              	.LVL279:
 2277              	.LBE138:
 2278              	.LBE137:
 2279              		.loc 1 446 0 discriminator 3
 2280 00a0 44F8040B 		str	r0, [r4], #4
ARM GAS  /tmp/cchERvVK.s 			page 41


 2281              	.LVL280:
 2282              		.loc 1 442 0 discriminator 3
 2283 00a4 A045     		cmp	r8, r4
 2284 00a6 EED1     		bne	.L235
 2285              	.LVL281:
 2286              	.L225:
 2287              		.loc 1 448 0
 2288 00a8 BDE8F087 		pop	{r4, r5, r6, r7, r8, r9, r10, pc}
 2289              	.LVL282:
 2290              	.L237:
 2291              		.align	2
 2292              	.L236:
 2293 00ac 04000000 		.word	.LANCHOR2+4
 2294 00b0 F0ED00E0 		.word	-536810000
 2295 00b4 00000000 		.word	.LANCHOR3
 2296              		.cfi_endproc
 2297              	.LFE273:
 2298              		.size	cortexm_regs_read, .-cortexm_regs_read
 2299              		.section	.text.cortexm_priv_free,"ax",%progbits
 2300              		.align	1
 2301              		.p2align 4,,15
 2302              		.syntax unified
 2303              		.thumb
 2304              		.thumb_func
 2305              		.fpu fpv4-sp-d16
 2306              		.type	cortexm_priv_free, %function
 2307              	cortexm_priv_free:
 2308              	.LFB268:
 2309              		.loc 1 240 0
 2310              		.cfi_startproc
 2311              		@ args = 0, pretend = 0, frame = 0
 2312              		@ frame_needed = 0, uses_anonymous_args = 0
 2313              	.LVL283:
 2314 0000 10B5     		push	{r4, lr}
 2315              		.cfi_def_cfa_offset 8
 2316              		.cfi_offset 4, -8
 2317              		.cfi_offset 14, -4
 2318              		.loc 1 240 0
 2319 0002 0446     		mov	r4, r0
 2320              		.loc 1 241 0
 2321 0004 0068     		ldr	r0, [r0]
 2322              	.LVL284:
 2323 0006 FFF7FEFF 		bl	adiv5_ap_unref
 2324              	.LVL285:
 2325              		.loc 1 242 0
 2326 000a 2046     		mov	r0, r4
 2327              		.loc 1 243 0
 2328 000c BDE81040 		pop	{r4, lr}
 2329              		.cfi_restore 14
 2330              		.cfi_restore 4
 2331              		.cfi_def_cfa_offset 0
 2332              	.LVL286:
 2333              		.loc 1 242 0
 2334 0010 FFF7FEBF 		b	free
 2335              	.LVL287:
 2336              		.cfi_endproc
 2337              	.LFE268:
ARM GAS  /tmp/cchERvVK.s 			page 42


 2338              		.size	cortexm_priv_free, .-cortexm_priv_free
 2339              		.section	.text.cortexm_forced_halt,"ax",%progbits
 2340              		.align	1
 2341              		.p2align 4,,15
 2342              		.syntax unified
 2343              		.thumb
 2344              		.thumb_func
 2345              		.fpu fpv4-sp-d16
 2346              		.type	cortexm_forced_halt, %function
 2347              	cortexm_forced_halt:
 2348              	.LFB269:
 2349              		.loc 1 246 0
 2350              		.cfi_startproc
 2351              		@ args = 0, pretend = 0, frame = 0
 2352              		@ frame_needed = 0, uses_anonymous_args = 0
 2353              	.LVL288:
 2354 0000 F8B5     		push	{r3, r4, r5, r6, r7, lr}
 2355              		.cfi_def_cfa_offset 24
 2356              		.cfi_offset 3, -24
 2357              		.cfi_offset 4, -20
 2358              		.cfi_offset 5, -16
 2359              		.cfi_offset 6, -12
 2360              		.cfi_offset 7, -8
 2361              		.cfi_offset 14, -4
 2362              		.loc 1 246 0
 2363 0002 0446     		mov	r4, r0
 2364              		.loc 1 247 0
 2365 0004 FFF7FEFF 		bl	target_halt_request
 2366              	.LVL289:
 2367              		.loc 1 248 0
 2368 0008 0020     		movs	r0, #0
 2369 000a FFF7FEFF 		bl	platform_srst_set_val
 2370              	.LVL290:
 2371              		.loc 1 250 0
 2372 000e FFF7FEFF 		bl	platform_time_ms
 2373              	.LVL291:
 2374 0012 0C4F     		ldr	r7, .L246
 2375              		.loc 1 254 0
 2376 0014 0C4E     		ldr	r6, .L246+4
 2377              		.loc 1 250 0
 2378 0016 0546     		mov	r5, r0
 2379              	.LVL292:
 2380              		.loc 1 253 0
 2381 0018 07E0     		b	.L241
 2382              	.LVL293:
 2383              	.L243:
 2384              		.loc 1 254 0
 2385 001a FFF7FEFF 		bl	target_mem_read32
 2386              	.LVL294:
 2387              		.loc 1 255 0
 2388 001e B0F1031F 		cmp	r0, #196611
 2389              		.loc 1 258 0
 2390 0022 2046     		mov	r0, r4
 2391              	.LVL295:
 2392              		.loc 1 255 0
 2393 0024 0BD0     		beq	.L244
 2394              	.LVL296:
ARM GAS  /tmp/cchERvVK.s 			page 43


 2395              		.loc 1 258 0
 2396 0026 FFF7FEFF 		bl	target_halt_request
 2397              	.LVL297:
 2398              	.L241:
 2399              		.loc 1 253 0
 2400 002a FFF7FEFF 		bl	platform_time_ms
 2401              	.LVL298:
 2402 002e 3B68     		ldr	r3, [r7]
 2403 0030 2B44     		add	r3, r3, r5
 2404 0032 9842     		cmp	r0, r3
 2405              		.loc 1 254 0
 2406 0034 3146     		mov	r1, r6
 2407 0036 2046     		mov	r0, r4
 2408              		.loc 1 253 0
 2409 0038 EFD3     		bcc	.L243
 2410              	.LVL299:
 2411              		.loc 1 261 0
 2412 003a 0020     		movs	r0, #0
 2413              	.LVL300:
 2414              		.loc 1 263 0
 2415 003c F8BD     		pop	{r3, r4, r5, r6, r7, pc}
 2416              	.LVL301:
 2417              	.L244:
 2418              		.loc 1 262 0
 2419 003e 0120     		movs	r0, #1
 2420              	.LVL302:
 2421              		.loc 1 263 0
 2422 0040 F8BD     		pop	{r3, r4, r5, r6, r7, pc}
 2423              	.LVL303:
 2424              	.L247:
 2425 0042 00BF     		.align	2
 2426              	.L246:
 2427 0044 00000000 		.word	cortexm_wait_timeout
 2428 0048 F0ED00E0 		.word	-536810000
 2429              		.cfi_endproc
 2430              	.LFE269:
 2431              		.size	cortexm_forced_halt, .-cortexm_forced_halt
 2432              		.section	.text.cortexm_attach,"ax",%progbits
 2433              		.align	1
 2434              		.p2align 4,,15
 2435              		.global	cortexm_attach
 2436              		.syntax unified
 2437              		.thumb
 2438              		.thumb_func
 2439              		.fpu fpv4-sp-d16
 2440              		.type	cortexm_attach, %function
 2441              	cortexm_attach:
 2442              	.LFB271:
 2443              		.loc 1 350 0
 2444              		.cfi_startproc
 2445              		@ args = 0, pretend = 0, frame = 0
 2446              		@ frame_needed = 0, uses_anonymous_args = 0
 2447              	.LVL304:
 2448 0000 2DE9F047 		push	{r4, r5, r6, r7, r8, r9, r10, lr}
 2449              		.cfi_def_cfa_offset 32
 2450              		.cfi_offset 4, -32
 2451              		.cfi_offset 5, -28
ARM GAS  /tmp/cchERvVK.s 			page 44


 2452              		.cfi_offset 6, -24
 2453              		.cfi_offset 7, -20
 2454              		.cfi_offset 8, -16
 2455              		.cfi_offset 9, -12
 2456              		.cfi_offset 10, -8
 2457              		.cfi_offset 14, -4
 2458              		.loc 1 350 0
 2459 0004 0446     		mov	r4, r0
 2460              		.loc 1 351 0
 2461 0006 C56E     		ldr	r5, [r0, #108]
 2462              	.LVL305:
 2463              		.loc 1 356 0
 2464 0008 FFF7FEFF 		bl	target_check_error
 2465              	.LVL306:
 2466              		.loc 1 358 0
 2467 000c 2046     		mov	r0, r4
 2468 000e FFF7FEFF 		bl	target_halt_request
 2469              	.LVL307:
 2470              		.loc 1 359 0
 2471 0012 2046     		mov	r0, r4
 2472 0014 FFF7FEFF 		bl	cortexm_forced_halt
 2473              	.LVL308:
 2474 0018 8046     		mov	r8, r0
 2475 001a 10B9     		cbnz	r0, .L268
 2476              		.loc 1 396 0
 2477 001c 4046     		mov	r0, r8
 2478 001e BDE8F087 		pop	{r4, r5, r6, r7, r8, r9, r10, pc}
 2479              	.LVL309:
 2480              	.L268:
 2481              		.loc 1 363 0
 2482 0022 2A6A     		ldr	r2, [r5, #32]
 2483 0024 2D49     		ldr	r1, .L269
 2484 0026 2046     		mov	r0, r4
 2485 0028 FFF7FEFF 		bl	target_mem_write32
 2486              	.LVL310:
 2487              		.loc 1 366 0
 2488 002c 1F22     		movs	r2, #31
 2489 002e 2C49     		ldr	r1, .L269+4
 2490 0030 2046     		mov	r0, r4
 2491 0032 FFF7FEFF 		bl	target_mem_write32
 2492              	.LVL311:
 2493              		.loc 1 369 0
 2494 0036 0623     		movs	r3, #6
 2495 0038 EB61     		str	r3, [r5, #28]
 2496              		.loc 1 370 0
 2497 003a 2A49     		ldr	r1, .L269+8
 2498 003c 2046     		mov	r0, r4
 2499 003e FFF7FEFF 		bl	target_mem_read32
 2500              	.LVL312:
 2501              		.loc 1 371 0
 2502 0042 EA69     		ldr	r2, [r5, #28]
 2503              		.loc 1 375 0
 2504 0044 2849     		ldr	r1, .L269+12
 2505              		.loc 1 371 0
 2506 0046 C0F30313 		ubfx	r3, r0, #4, #4
 2507 004a 9342     		cmp	r3, r2
 2508              		.loc 1 372 0
ARM GAS  /tmp/cchERvVK.s 			page 45


 2509 004c 38BF     		it	cc
 2510 004e EB61     		strcc	r3, [r5, #28]
 2511              		.loc 1 373 0
 2512 0050 000F     		lsrs	r0, r0, #28
 2513              	.LVL313:
 2514              		.loc 1 374 0
 2515 0052 0423     		movs	r3, #4
 2516 0054 C5E90303 		strd	r0, r3, [r5, #12]
 2517              		.loc 1 375 0
 2518 0058 2046     		mov	r0, r4
 2519 005a FFF7FEFF 		bl	target_mem_read32
 2520              	.LVL314:
 2521              		.loc 1 376 0
 2522 005e 2B69     		ldr	r3, [r5, #16]
 2523 0060 000F     		lsrs	r0, r0, #28
 2524              	.LVL315:
 2525 0062 9842     		cmp	r0, r3
 2526              		.loc 1 380 0
 2527 0064 EB69     		ldr	r3, [r5, #28]
 2528              		.loc 1 377 0
 2529 0066 88BF     		it	hi
 2530 0068 2861     		strhi	r0, [r5, #16]
 2531              		.loc 1 380 0
 2532 006a B3B1     		cbz	r3, .L252
 2533 006c 6FF01309 		mvn	r9, #19
 2534 0070 1E4F     		ldr	r7, .L269+16
 2535 0072 A9EB0509 		sub	r9, r9, r5
 2536 0076 05F11406 		add	r6, r5, #20
 2537              		.loc 1 381 0
 2538 007a 4FF0000A 		mov	r10, #0
 2539              	.LVL316:
 2540              	.L253:
 2541              		.loc 1 381 0 is_stmt 0 discriminator 3
 2542 007e 0022     		movs	r2, #0
 2543 0080 3946     		mov	r1, r7
 2544 0082 2046     		mov	r0, r4
 2545 0084 FFF7FEFF 		bl	target_mem_write32
 2546              	.LVL317:
 2547              		.loc 1 382 0 is_stmt 1 discriminator 3
 2548 0088 06F801AB 		strb	r10, [r6], #1
 2549              	.LVL318:
 2550              		.loc 1 380 0 discriminator 3
 2551 008c EA69     		ldr	r2, [r5, #28]
 2552 008e 09EB0603 		add	r3, r9, r6
 2553 0092 9A42     		cmp	r2, r3
 2554 0094 07F10407 		add	r7, r7, #4
 2555 0098 F1D8     		bhi	.L253
 2556              	.LVL319:
 2557              	.L252:
 2558              		.loc 1 386 0
 2559 009a 2B69     		ldr	r3, [r5, #16]
 2560 009c ABB1     		cbz	r3, .L254
 2561 009e 6FF00509 		mvn	r9, #5
 2562 00a2 134F     		ldr	r7, .L269+20
 2563 00a4 A9EB0509 		sub	r9, r9, r5
 2564 00a8 AE1D     		adds	r6, r5, #6
 2565              		.loc 1 387 0
ARM GAS  /tmp/cchERvVK.s 			page 46


 2566 00aa 4FF0000A 		mov	r10, #0
 2567              	.LVL320:
 2568              	.L255:
 2569              		.loc 1 387 0 is_stmt 0 discriminator 3
 2570 00ae 0022     		movs	r2, #0
 2571 00b0 3946     		mov	r1, r7
 2572 00b2 2046     		mov	r0, r4
 2573 00b4 FFF7FEFF 		bl	target_mem_write32
 2574              	.LVL321:
 2575              		.loc 1 388 0 is_stmt 1 discriminator 3
 2576 00b8 06F801AB 		strb	r10, [r6], #1
 2577              	.LVL322:
 2578              		.loc 1 386 0 discriminator 3
 2579 00bc 2A69     		ldr	r2, [r5, #16]
 2580 00be 09EB0603 		add	r3, r9, r6
 2581 00c2 9A42     		cmp	r2, r3
 2582 00c4 07F11007 		add	r7, r7, #16
 2583 00c8 F1D8     		bhi	.L255
 2584              	.LVL323:
 2585              	.L254:
 2586              		.loc 1 392 0
 2587 00ca 2046     		mov	r0, r4
 2588 00cc 0322     		movs	r2, #3
 2589 00ce 0549     		ldr	r1, .L269+8
 2590 00d0 FFF7FEFF 		bl	target_mem_write32
 2591              	.LVL324:
 2592              		.loc 1 396 0
 2593 00d4 4046     		mov	r0, r8
 2594 00d6 BDE8F087 		pop	{r4, r5, r6, r7, r8, r9, r10, pc}
 2595              	.LVL325:
 2596              	.L270:
 2597 00da 00BF     		.align	2
 2598              	.L269:
 2599 00dc FCED00E0 		.word	-536809988
 2600 00e0 30ED00E0 		.word	-536810192
 2601 00e4 002000E0 		.word	-536862720
 2602 00e8 001000E0 		.word	-536866816
 2603 00ec 082000E0 		.word	-536862712
 2604 00f0 281000E0 		.word	-536866776
 2605              		.cfi_endproc
 2606              	.LFE271:
 2607              		.size	cortexm_attach, .-cortexm_attach
 2608              		.section	.text.cortexm_cache_clean.isra.1,"ax",%progbits
 2609              		.align	1
 2610              		.p2align 4,,15
 2611              		.syntax unified
 2612              		.thumb
 2613              		.thumb_func
 2614              		.fpu fpv4-sp-d16
 2615              		.type	cortexm_cache_clean.isra.1, %function
 2616              	cortexm_cache_clean.isra.1:
 2617              	.LFB292:
 2618              		.loc 1 196 0
 2619              		.cfi_startproc
 2620              		@ args = 4, pretend = 0, frame = 8
 2621              		@ frame_needed = 0, uses_anonymous_args = 0
 2622              	.LVL326:
ARM GAS  /tmp/cchERvVK.s 			page 47


 2623 0000 2DE9F04F 		push	{r4, r5, r6, r7, r8, r9, r10, fp, lr}
 2624              		.cfi_def_cfa_offset 36
 2625              		.cfi_offset 4, -36
 2626              		.cfi_offset 5, -32
 2627              		.cfi_offset 6, -28
 2628              		.cfi_offset 7, -24
 2629              		.cfi_offset 8, -20
 2630              		.cfi_offset 9, -16
 2631              		.cfi_offset 10, -12
 2632              		.cfi_offset 11, -8
 2633              		.cfi_offset 14, -4
 2634 0004 0D46     		mov	r5, r1
 2635              		.loc 1 198 0
 2636 0006 0968     		ldr	r1, [r1]
 2637              	.LVL327:
 2638              		.loc 1 196 0
 2639 0008 83B0     		sub	sp, sp, #12
 2640              		.cfi_def_cfa_offset 48
 2641              		.loc 1 196 0
 2642 000a 8046     		mov	r8, r0
 2643              		.loc 1 199 0
 2644 000c 91F82400 		ldrb	r0, [r1, #36]	@ zero_extendqisi2
 2645              		.loc 1 196 0
 2646 0010 9DF83040 		ldrb	r4, [sp, #48]	@ zero_extendqisi2
 2647              		.loc 1 199 0
 2648 0014 78B3     		cbz	r0, .L271
 2649 0016 8E6A     		ldr	r6, [r1, #40]
 2650 0018 6EB3     		cbz	r6, .L271
 2651 001a 9246     		mov	r10, r2
 2652              		.loc 1 201 0
 2653 001c 174F     		ldr	r7, .L290
 2654 001e 184A     		ldr	r2, .L290+4
 2655              	.LVL328:
 2656              		.loc 1 205 0
 2657 0020 0AEB0309 		add	r9, r10, r3
 2658              		.loc 1 201 0
 2659 0024 002C     		cmp	r4, #0
 2660 0026 18BF     		it	ne
 2661 0028 1746     		movne	r7, r2
 2662              	.LVL329:
 2663              	.LBB139:
 2664              		.loc 1 207 0
 2665 002a B8F1000F 		cmp	r8, #0
 2666 002e 22D0     		beq	.L271
 2667 0030 C6F1000B 		rsb	fp, r6, #0
 2668              	.LVL330:
 2669              	.L276:
 2670              	.LBB140:
 2671              		.loc 1 209 0
 2672 0034 D8E90034 		ldrd	r3, r4, [r8]
 2673 0038 1C44     		add	r4, r4, r3
 2674              	.LVL331:
 2675 003a 4C45     		cmp	r4, r9
 2676 003c 28BF     		it	cs
 2677 003e 4C46     		movcs	r4, r9
 2678              	.LVL332:
 2679              		.loc 1 216 0
ARM GAS  /tmp/cchERvVK.s 			page 48


 2680 0040 9A45     		cmp	r10, r3
 2681 0042 2CBF     		ite	cs
 2682 0044 0BEA0A03 		andcs	r3, fp, r10
 2683 0048 0BEA0303 		andcc	r3, fp, r3
 2684 004c A342     		cmp	r3, r4
 2685 004e 0193     		str	r3, [sp, #4]
 2686 0050 0CD2     		bcs	.L274
 2687              	.L275:
 2688              	.LBB141:
 2689              	.LBB142:
 2690              		.loc 1 193 0
 2691 0052 2A68     		ldr	r2, [r5]
 2692              	.LBE142:
 2693              	.LBE141:
 2694              		.loc 1 217 0
 2695 0054 0423     		movs	r3, #4
 2696 0056 1068     		ldr	r0, [r2]
 2697 0058 3946     		mov	r1, r7
 2698 005a 0DEB0302 		add	r2, sp, r3
 2699 005e FFF7FEFF 		bl	adiv5_mem_write
 2700              	.LVL333:
 2701              		.loc 1 216 0
 2702 0062 019B     		ldr	r3, [sp, #4]
 2703 0064 3344     		add	r3, r3, r6
 2704 0066 A342     		cmp	r3, r4
 2705 0068 0193     		str	r3, [sp, #4]
 2706 006a F2D3     		bcc	.L275
 2707              	.L274:
 2708              	.LBE140:
 2709              		.loc 1 207 0
 2710 006c D8F80880 		ldr	r8, [r8, #8]
 2711              	.LVL334:
 2712 0070 B8F1000F 		cmp	r8, #0
 2713 0074 DED1     		bne	.L276
 2714              	.LVL335:
 2715              	.L271:
 2716              	.LBE139:
 2717              		.loc 1 219 0
 2718 0076 03B0     		add	sp, sp, #12
 2719              		.cfi_def_cfa_offset 36
 2720              		@ sp needed
 2721 0078 BDE8F08F 		pop	{r4, r5, r6, r7, r8, r9, r10, fp, pc}
 2722              	.LVL336:
 2723              	.L291:
 2724              		.align	2
 2725              	.L290:
 2726 007c 68EF00E0 		.word	-536809624
 2727 0080 70EF00E0 		.word	-536809616
 2728              		.cfi_endproc
 2729              	.LFE292:
 2730              		.size	cortexm_cache_clean.isra.1, .-cortexm_cache_clean.isra.1
 2731              		.section	.text.cortexm_mem_write,"ax",%progbits
 2732              		.align	1
 2733              		.p2align 4,,15
 2734              		.syntax unified
 2735              		.thumb
 2736              		.thumb_func
ARM GAS  /tmp/cchERvVK.s 			page 49


 2737              		.fpu fpv4-sp-d16
 2738              		.type	cortexm_mem_write, %function
 2739              	cortexm_mem_write:
 2740              	.LFB266:
 2741              		.loc 1 228 0
 2742              		.cfi_startproc
 2743              		@ args = 0, pretend = 0, frame = 0
 2744              		@ frame_needed = 0, uses_anonymous_args = 0
 2745              	.LVL337:
 2746 0000 F0B5     		push	{r4, r5, r6, r7, lr}
 2747              		.cfi_def_cfa_offset 20
 2748              		.cfi_offset 4, -20
 2749              		.cfi_offset 5, -16
 2750              		.cfi_offset 6, -12
 2751              		.cfi_offset 7, -8
 2752              		.cfi_offset 14, -4
 2753 0002 83B0     		sub	sp, sp, #12
 2754              		.cfi_def_cfa_offset 32
 2755              		.loc 1 228 0
 2756 0004 0446     		mov	r4, r0
 2757              		.loc 1 229 0
 2758 0006 0127     		movs	r7, #1
 2759              		.loc 1 228 0
 2760 0008 0D46     		mov	r5, r1
 2761              		.loc 1 229 0
 2762 000a 806D     		ldr	r0, [r0, #88]
 2763              	.LVL338:
 2764 000c 0097     		str	r7, [sp]
 2765              		.loc 1 228 0
 2766 000e 1646     		mov	r6, r2
 2767              		.loc 1 229 0
 2768 0010 0A46     		mov	r2, r1
 2769              	.LVL339:
 2770 0012 04F16C01 		add	r1, r4, #108
 2771              	.LVL340:
 2772              		.loc 1 228 0
 2773 0016 1F46     		mov	r7, r3
 2774              		.loc 1 229 0
 2775 0018 FFF7FEFF 		bl	cortexm_cache_clean.isra.1
 2776              	.LVL341:
 2777              	.LBB143:
 2778              	.LBB144:
 2779              		.loc 1 193 0
 2780 001c E26E     		ldr	r2, [r4, #108]
 2781              	.LBE144:
 2782              	.LBE143:
 2783              		.loc 1 230 0
 2784 001e 1068     		ldr	r0, [r2]
 2785 0020 3B46     		mov	r3, r7
 2786 0022 3246     		mov	r2, r6
 2787 0024 2946     		mov	r1, r5
 2788              		.loc 1 231 0
 2789 0026 03B0     		add	sp, sp, #12
 2790              		.cfi_def_cfa_offset 20
 2791              		@ sp needed
 2792 0028 BDE8F040 		pop	{r4, r5, r6, r7, lr}
 2793              		.cfi_restore 14
ARM GAS  /tmp/cchERvVK.s 			page 50


 2794              		.cfi_restore 7
 2795              		.cfi_restore 6
 2796              		.cfi_restore 5
 2797              		.cfi_restore 4
 2798              		.cfi_def_cfa_offset 0
 2799              	.LVL342:
 2800              		.loc 1 230 0
 2801 002c FFF7FEBF 		b	adiv5_mem_write
 2802              	.LVL343:
 2803              		.cfi_endproc
 2804              	.LFE266:
 2805              		.size	cortexm_mem_write, .-cortexm_mem_write
 2806              		.section	.text.cortexm_mem_read,"ax",%progbits
 2807              		.align	1
 2808              		.p2align 4,,15
 2809              		.syntax unified
 2810              		.thumb
 2811              		.thumb_func
 2812              		.fpu fpv4-sp-d16
 2813              		.type	cortexm_mem_read, %function
 2814              	cortexm_mem_read:
 2815              	.LFB265:
 2816              		.loc 1 222 0
 2817              		.cfi_startproc
 2818              		@ args = 0, pretend = 0, frame = 0
 2819              		@ frame_needed = 0, uses_anonymous_args = 0
 2820              	.LVL344:
 2821 0000 F0B5     		push	{r4, r5, r6, r7, lr}
 2822              		.cfi_def_cfa_offset 20
 2823              		.cfi_offset 4, -20
 2824              		.cfi_offset 5, -16
 2825              		.cfi_offset 6, -12
 2826              		.cfi_offset 7, -8
 2827              		.cfi_offset 14, -4
 2828 0002 83B0     		sub	sp, sp, #12
 2829              		.cfi_def_cfa_offset 32
 2830              		.loc 1 222 0
 2831 0004 0446     		mov	r4, r0
 2832              		.loc 1 223 0
 2833 0006 0025     		movs	r5, #0
 2834 0008 806D     		ldr	r0, [r0, #88]
 2835              	.LVL345:
 2836 000a 0095     		str	r5, [sp]
 2837              		.loc 1 222 0
 2838 000c 0D46     		mov	r5, r1
 2839              		.loc 1 223 0
 2840 000e 04F16C01 		add	r1, r4, #108
 2841              	.LVL346:
 2842              		.loc 1 222 0
 2843 0012 1646     		mov	r6, r2
 2844 0014 1F46     		mov	r7, r3
 2845              		.loc 1 223 0
 2846 0016 FFF7FEFF 		bl	cortexm_cache_clean.isra.1
 2847              	.LVL347:
 2848              	.LBB145:
 2849              	.LBB146:
 2850              		.loc 1 193 0
ARM GAS  /tmp/cchERvVK.s 			page 51


 2851 001a E26E     		ldr	r2, [r4, #108]
 2852              	.LBE146:
 2853              	.LBE145:
 2854              		.loc 1 224 0
 2855 001c 1068     		ldr	r0, [r2]
 2856 001e 3B46     		mov	r3, r7
 2857 0020 3246     		mov	r2, r6
 2858 0022 2946     		mov	r1, r5
 2859              		.loc 1 225 0
 2860 0024 03B0     		add	sp, sp, #12
 2861              		.cfi_def_cfa_offset 20
 2862              		@ sp needed
 2863 0026 BDE8F040 		pop	{r4, r5, r6, r7, lr}
 2864              		.cfi_restore 14
 2865              		.cfi_restore 7
 2866              		.cfi_restore 6
 2867              		.cfi_restore 5
 2868              		.cfi_restore 4
 2869              		.cfi_def_cfa_offset 0
 2870              	.LVL348:
 2871              		.loc 1 224 0
 2872 002a FFF7FEBF 		b	adiv5_mem_read
 2873              	.LVL349:
 2874              		.cfi_endproc
 2875              	.LFE265:
 2876              		.size	cortexm_mem_read, .-cortexm_mem_read
 2877 002e 00BF     		.section	.text.cortexm_ap,"ax",%progbits
 2878              		.align	1
 2879              		.p2align 4,,15
 2880              		.global	cortexm_ap
 2881              		.syntax unified
 2882              		.thumb
 2883              		.thumb_func
 2884              		.fpu fpv4-sp-d16
 2885              		.type	cortexm_ap, %function
 2886              	cortexm_ap:
 2887              	.LFB263:
 2888              		.loc 1 192 0
 2889              		.cfi_startproc
 2890              		@ args = 0, pretend = 0, frame = 0
 2891              		@ frame_needed = 0, uses_anonymous_args = 0
 2892              		@ link register save eliminated.
 2893              	.LVL350:
 2894              		.loc 1 193 0
 2895 0000 C36E     		ldr	r3, [r0, #108]
 2896              		.loc 1 194 0
 2897 0002 1868     		ldr	r0, [r3]
 2898              	.LVL351:
 2899 0004 7047     		bx	lr
 2900              		.cfi_endproc
 2901              	.LFE263:
 2902              		.size	cortexm_ap, .-cortexm_ap
 2903 0006 00BF     		.section	.text.cortexm_probe,"ax",%progbits
 2904              		.align	1
 2905              		.p2align 4,,15
 2906              		.global	cortexm_probe
 2907              		.syntax unified
ARM GAS  /tmp/cchERvVK.s 			page 52


 2908              		.thumb
 2909              		.thumb_func
 2910              		.fpu fpv4-sp-d16
 2911              		.type	cortexm_probe, %function
 2912              	cortexm_probe:
 2913              	.LFB270:
 2914              		.loc 1 266 0
 2915              		.cfi_startproc
 2916              		@ args = 0, pretend = 0, frame = 0
 2917              		@ frame_needed = 0, uses_anonymous_args = 0
 2918              	.LVL352:
 2919 0000 2DE9F041 		push	{r4, r5, r6, r7, r8, lr}
 2920              		.cfi_def_cfa_offset 24
 2921              		.cfi_offset 4, -24
 2922              		.cfi_offset 5, -20
 2923              		.cfi_offset 6, -16
 2924              		.cfi_offset 7, -12
 2925              		.cfi_offset 8, -8
 2926              		.cfi_offset 14, -4
 2927              		.loc 1 266 0
 2928 0004 0F46     		mov	r7, r1
 2929 0006 0646     		mov	r6, r0
 2930              		.loc 1 269 0
 2931 0008 FFF7FEFF 		bl	target_new
 2932              	.LVL353:
 2933 000c 0446     		mov	r4, r0
 2934              	.LVL354:
 2935              		.loc 1 271 0
 2936 000e 6648     		ldr	r0, .L319
 2937              	.LVL355:
 2938 0010 FFF7FEFF 		bl	commands_printf
 2939              	.LVL356:
 2940              		.loc 1 273 0
 2941 0014 3046     		mov	r0, r6
 2942 0016 FFF7FEFF 		bl	adiv5_ap_ref
 2943              	.LVL357:
 2944              		.loc 1 274 0
 2945 001a 2C21     		movs	r1, #44
 2946 001c 0120     		movs	r0, #1
 2947 001e FFF7FEFF 		bl	calloc
 2948              	.LVL358:
 2949              		.loc 1 276 0
 2950 0022 DFF8D0C1 		ldr	ip, .L319+76
 2951              		.loc 1 280 0
 2952 0026 6149     		ldr	r1, .L319+4
 2953              		.loc 1 281 0
 2954 0028 614B     		ldr	r3, .L319+8
 2955              		.loc 1 283 0
 2956 002a 624A     		ldr	r2, .L319+12
 2957              		.loc 1 274 0
 2958 002c 0546     		mov	r5, r0
 2959              	.LVL359:
 2960              		.loc 1 276 0
 2961 002e C4E91B5C 		strd	r5, ip, [r4, #108]
 2962              		.loc 1 279 0
 2963 0032 6148     		ldr	r0, .L319+16
 2964              	.LVL360:
ARM GAS  /tmp/cchERvVK.s 			page 53


 2965              		.loc 1 277 0
 2966 0034 2E60     		str	r6, [r5]
 2967              		.loc 1 280 0
 2968 0036 6161     		str	r1, [r4, #20]
 2969              		.loc 1 281 0
 2970 0038 A361     		str	r3, [r4, #24]
 2971              		.loc 1 289 0
 2972 003a 6049     		ldr	r1, .L319+20
 2973              		.loc 1 290 0
 2974 003c 604B     		ldr	r3, .L319+24
 2975              		.loc 1 285 0
 2976 003e DFF8B8C1 		ldr	ip, .L319+80
 2977              		.loc 1 279 0
 2978 0042 2061     		str	r0, [r4, #16]
 2979              		.loc 1 289 0
 2980 0044 2162     		str	r1, [r4, #32]
 2981              		.loc 1 286 0
 2982 0046 5F48     		ldr	r0, .L319+28
 2983              		.loc 1 294 0
 2984 0048 5F49     		ldr	r1, .L319+32
 2985              		.loc 1 290 0
 2986 004a 6362     		str	r3, [r4, #36]
 2987              		.loc 1 295 0
 2988 004c 5F4B     		ldr	r3, .L319+36
 2989              		.loc 1 285 0
 2990 004e C4F808C0 		str	ip, [r4, #8]
 2991              		.loc 1 286 0
 2992 0052 E060     		str	r0, [r4, #12]
 2993              		.loc 1 291 0
 2994 0054 DFF8A4C1 		ldr	ip, .L319+84
 2995              		.loc 1 293 0
 2996 0058 5D48     		ldr	r0, .L319+40
 2997              		.loc 1 294 0
 2998 005a 6163     		str	r1, [r4, #52]
 2999              		.loc 1 295 0
 3000 005c A363     		str	r3, [r4, #56]
 3001              		.loc 1 299 0
 3002 005e 5D49     		ldr	r1, .L319+44
 3003              		.loc 1 300 0
 3004 0060 5D4B     		ldr	r3, .L319+48
 3005              		.loc 1 291 0
 3006 0062 C4F828C0 		str	ip, [r4, #40]
 3007              		.loc 1 293 0
 3008 0066 E062     		str	r0, [r4, #44]
 3009              		.loc 1 296 0
 3010 0068 DFF894C1 		ldr	ip, .L319+88
 3011 006c C4F83CC0 		str	ip, [r4, #60]
 3012              		.loc 1 297 0
 3013 0070 5020     		movs	r0, #80
 3014              		.loc 1 300 0
 3015 0072 C4E91013 		strd	r1, r3, [r4, #64]
 3016              		.loc 1 283 0
 3017 0076 2266     		str	r2, [r4, #96]
 3018              		.loc 1 297 0
 3019 0078 E061     		str	r0, [r4, #28]
 3020              		.loc 1 302 0
 3021 007a 5849     		ldr	r1, .L319+52
ARM GAS  /tmp/cchERvVK.s 			page 54


 3022 007c 2046     		mov	r0, r4
 3023 007e FFF7FEFF 		bl	target_add_commands
 3024              	.LVL361:
 3025              		.loc 1 305 0
 3026 0082 5749     		ldr	r1, .L319+56
 3027 0084 2046     		mov	r0, r4
 3028 0086 FFF7FEFF 		bl	target_mem_read32
 3029              	.LVL362:
 3030              		.loc 1 306 0
 3031 008a 40F47008 		orr	r8, r0, #15728640
 3032              	.LVL363:
 3033              		.loc 1 307 0
 3034 008e 4246     		mov	r2, r8
 3035 0090 2046     		mov	r0, r4
 3036 0092 5349     		ldr	r1, .L319+56
 3037 0094 FFF7FEFF 		bl	target_mem_write32
 3038              	.LVL364:
 3039              		.loc 1 308 0
 3040 0098 2046     		mov	r0, r4
 3041 009a 5149     		ldr	r1, .L319+56
 3042 009c FFF7FEFF 		bl	target_mem_read32
 3043              	.LVL365:
 3044 00a0 4045     		cmp	r0, r8
 3045 00a2 08D1     		bne	.L298
 3046              		.loc 1 309 0
 3047 00a4 E26C     		ldr	r2, [r4, #76]
 3048              		.loc 1 310 0
 3049 00a6 E369     		ldr	r3, [r4, #28]
 3050              		.loc 1 311 0
 3051 00a8 4E49     		ldr	r1, .L319+60
 3052 00aa 2162     		str	r1, [r4, #32]
 3053              		.loc 1 309 0
 3054 00ac 42F00202 		orr	r2, r2, #2
 3055              		.loc 1 310 0
 3056 00b0 8433     		adds	r3, r3, #132
 3057              		.loc 1 309 0
 3058 00b2 E264     		str	r2, [r4, #76]
 3059              		.loc 1 310 0
 3060 00b4 E361     		str	r3, [r4, #28]
 3061              	.L298:
 3062              		.loc 1 315 0
 3063 00b6 4C4B     		ldr	r3, .L319+64
 3064 00b8 2B62     		str	r3, [r5, #32]
 3065              		.loc 1 319 0
 3066 00ba 4C49     		ldr	r1, .L319+68
 3067 00bc 2046     		mov	r0, r4
 3068 00be FFF7FEFF 		bl	target_mem_read32
 3069              	.LVL366:
 3070              		.loc 1 320 0
 3071 00c2 430F     		lsrs	r3, r0, #29
 3072 00c4 042B     		cmp	r3, #4
 3073 00c6 5CD1     		bne	.L299
 3074              		.loc 1 322 0
 3075 00c8 00F00F00 		and	r0, r0, #15
 3076              	.LVL367:
 3077 00cc 8340     		lsls	r3, r3, r0
 3078              		.loc 1 321 0
ARM GAS  /tmp/cchERvVK.s 			page 55


 3079 00ce 0122     		movs	r2, #1
 3080              		.loc 1 322 0
 3081 00d0 AB62     		str	r3, [r5, #40]
 3082              		.loc 1 321 0
 3083 00d2 85F82420 		strb	r2, [r5, #36]
 3084              	.L300:
 3085              		.loc 1 331 0
 3086 00d6 1FB1     		cbz	r7, .L304
 3087              		.loc 1 331 0 is_stmt 0 discriminator 1
 3088 00d8 7368     		ldr	r3, [r6, #4]
 3089 00da DB68     		ldr	r3, [r3, #12]
 3090 00dc 002B     		cmp	r3, #0
 3091 00de 42D0     		beq	.L317
 3092              	.L304:
 3093              		.loc 1 337 0 is_stmt 1
 3094 00e0 2046     		mov	r0, r4
 3095 00e2 FFF7FEFF 		bl	stm32f1_probe
 3096              	.LVL368:
 3097 00e6 0546     		mov	r5, r0
 3098              	.LVL369:
 3099 00e8 0646     		mov	r6, r0
 3100              	.LVL370:
 3101 00ea A8BB     		cbnz	r0, .L318
 3102              	.L311:
 3103              		.loc 1 337 0 is_stmt 0 discriminator 2
 3104 00ec 2046     		mov	r0, r4
 3105 00ee FFF7FEFF 		bl	target_check_error
 3106              	.LVL371:
 3107              		.loc 1 338 0 is_stmt 1 discriminator 2
 3108 00f2 2046     		mov	r0, r4
 3109 00f4 FFF7FEFF 		bl	stm32f4_probe
 3110              	.LVL372:
 3111 00f8 0546     		mov	r5, r0
 3112 00fa 0746     		mov	r7, r0
 3113 00fc 0028     		cmp	r0, #0
 3114 00fe 44D1     		bne	.L315
 3115 0100 2046     		mov	r0, r4
 3116 0102 FFF7FEFF 		bl	target_check_error
 3117              	.LVL373:
 3118              		.loc 1 339 0 discriminator 2
 3119 0106 2046     		mov	r0, r4
 3120 0108 FFF7FEFF 		bl	stm32h7_probe
 3121              	.LVL374:
 3122 010c 0546     		mov	r5, r0
 3123 010e 0646     		mov	r6, r0
 3124 0110 0028     		cmp	r0, #0
 3125 0112 41D1     		bne	.L314
 3126 0114 2046     		mov	r0, r4
 3127 0116 FFF7FEFF 		bl	target_check_error
 3128              	.LVL375:
 3129              		.loc 1 340 0 discriminator 2
 3130 011a 2046     		mov	r0, r4
 3131 011c FFF7FEFF 		bl	stm32l0_probe
 3132              	.LVL376:
 3133 0120 0546     		mov	r5, r0
 3134 0122 0746     		mov	r7, r0
 3135 0124 88BB     		cbnz	r0, .L315
ARM GAS  /tmp/cchERvVK.s 			page 56


 3136 0126 2046     		mov	r0, r4
 3137 0128 FFF7FEFF 		bl	target_check_error
 3138              	.LVL377:
 3139              		.loc 1 341 0 discriminator 2
 3140 012c 2046     		mov	r0, r4
 3141 012e FFF7FEFF 		bl	stm32l4_probe
 3142              	.LVL378:
 3143 0132 0546     		mov	r5, r0
 3144 0134 0646     		mov	r6, r0
 3145 0136 78BB     		cbnz	r0, .L314
 3146 0138 2046     		mov	r0, r4
 3147 013a FFF7FEFF 		bl	target_check_error
 3148              	.LVL379:
 3149              		.loc 1 342 0 discriminator 2
 3150 013e 2C48     		ldr	r0, .L319+72
 3151 0140 FFF7FEFF 		bl	commands_printf
 3152              	.LVL380:
 3153              		.loc 1 343 0 discriminator 2
 3154 0144 2046     		mov	r0, r4
 3155 0146 FFF7FEFF 		bl	nrf51_probe
 3156              	.LVL381:
 3157 014a 0546     		mov	r5, r0
 3158 014c E8B9     		cbnz	r0, .L315
 3159 014e 2046     		mov	r0, r4
 3160 0150 FFF7FEFF 		bl	target_check_error
 3161              	.LVL382:
 3162              		.loc 1 346 0 discriminator 2
 3163 0154 0125     		movs	r5, #1
 3164 0156 03E0     		b	.L305
 3165              	.L318:
 3166              		.loc 1 337 0 discriminator 1
 3167 0158 2046     		mov	r0, r4
 3168 015a 0021     		movs	r1, #0
 3169 015c FFF7FEFF 		bl	target_halt_resume
 3170              	.LVL383:
 3171              	.L305:
 3172              		.loc 1 347 0
 3173 0160 2846     		mov	r0, r5
 3174 0162 BDE8F081 		pop	{r4, r5, r6, r7, r8, pc}
 3175              	.LVL384:
 3176              	.L317:
 3177              		.loc 1 332 0
 3178 0166 2046     		mov	r0, r4
 3179 0168 FFF7FEFF 		bl	cortexm_forced_halt
 3180              	.LVL385:
 3181 016c 0546     		mov	r5, r0
 3182              	.LVL386:
 3183 016e 0028     		cmp	r0, #0
 3184 0170 F6D0     		beq	.L305
 3185              		.loc 1 337 0
 3186 0172 2046     		mov	r0, r4
 3187 0174 FFF7FEFF 		bl	stm32f1_probe
 3188              	.LVL387:
 3189 0178 0546     		mov	r5, r0
 3190 017a 0646     		mov	r6, r0
 3191              	.LVL388:
 3192 017c 0028     		cmp	r0, #0
ARM GAS  /tmp/cchERvVK.s 			page 57


 3193 017e B5D0     		beq	.L311
 3194 0180 EAE7     		b	.L318
 3195              	.LVL389:
 3196              	.L299:
 3197              		.loc 1 324 0
 3198 0182 2046     		mov	r0, r4
 3199              	.LVL390:
 3200 0184 FFF7FEFF 		bl	target_check_error
 3201              	.LVL391:
 3202 0188 A5E7     		b	.L300
 3203              	.LVL392:
 3204              	.L315:
 3205              		.loc 1 343 0 discriminator 1
 3206 018a 2046     		mov	r0, r4
 3207 018c 3146     		mov	r1, r6
 3208 018e FFF7FEFF 		bl	target_halt_resume
 3209              	.LVL393:
 3210              		.loc 1 347 0 discriminator 1
 3211 0192 2846     		mov	r0, r5
 3212 0194 BDE8F081 		pop	{r4, r5, r6, r7, r8, pc}
 3213              	.LVL394:
 3214              	.L314:
 3215              		.loc 1 341 0 discriminator 1
 3216 0198 2046     		mov	r0, r4
 3217 019a 3946     		mov	r1, r7
 3218 019c FFF7FEFF 		bl	target_halt_resume
 3219              	.LVL395:
 3220              		.loc 1 347 0 discriminator 1
 3221 01a0 2846     		mov	r0, r5
 3222 01a2 BDE8F081 		pop	{r4, r5, r6, r7, r8, pc}
 3223              	.LVL396:
 3224              	.L320:
 3225 01a6 00BF     		.align	2
 3226              	.L319:
 3227 01a8 00000000 		.word	.LC18
 3228 01ac 00000000 		.word	cortexm_mem_read
 3229 01b0 00000000 		.word	cortexm_mem_write
 3230 01b4 00000000 		.word	.LANCHOR4
 3231 01b8 00000000 		.word	cortexm_check_error
 3232 01bc 00000000 		.word	.LANCHOR5
 3233 01c0 00000000 		.word	cortexm_regs_read
 3234 01c4 00000000 		.word	cortexm_detach
 3235 01c8 00000000 		.word	cortexm_halt_request
 3236 01cc 00000000 		.word	cortexm_halt_poll
 3237 01d0 00000000 		.word	cortexm_reset
 3238 01d4 00000000 		.word	cortexm_breakwatch_set
 3239 01d8 00000000 		.word	cortexm_breakwatch_clear
 3240 01dc 00000000 		.word	.LANCHOR6
 3241 01e0 88ED00E0 		.word	-536810104
 3242 01e4 00000000 		.word	.LANCHOR7
 3243 01e8 01040001 		.word	16778241
 3244 01ec 7CED00E0 		.word	-536810116
 3245 01f0 18000000 		.word	.LC19
 3246 01f4 00000000 		.word	cortexm_priv_free
 3247 01f8 00000000 		.word	cortexm_attach
 3248 01fc 00000000 		.word	cortexm_regs_write
 3249 0200 00000000 		.word	cortexm_halt_resume
ARM GAS  /tmp/cchERvVK.s 			page 58


 3250              		.cfi_endproc
 3251              	.LFE270:
 3252              		.size	cortexm_probe, .-cortexm_probe
 3253              		.section	.text.cortexm_mem_write_sized,"ax",%progbits
 3254              		.align	1
 3255              		.p2align 4,,15
 3256              		.global	cortexm_mem_write_sized
 3257              		.syntax unified
 3258              		.thumb
 3259              		.thumb_func
 3260              		.fpu fpv4-sp-d16
 3261              		.type	cortexm_mem_write_sized, %function
 3262              	cortexm_mem_write_sized:
 3263              	.LFB275:
 3264              		.loc 1 486 0
 3265              		.cfi_startproc
 3266              		@ args = 4, pretend = 0, frame = 0
 3267              		@ frame_needed = 0, uses_anonymous_args = 0
 3268              	.LVL397:
 3269 0000 2DE9F041 		push	{r4, r5, r6, r7, r8, lr}
 3270              		.cfi_def_cfa_offset 24
 3271              		.cfi_offset 4, -24
 3272              		.cfi_offset 5, -20
 3273              		.cfi_offset 6, -16
 3274              		.cfi_offset 7, -12
 3275              		.cfi_offset 8, -8
 3276              		.cfi_offset 14, -4
 3277 0004 82B0     		sub	sp, sp, #8
 3278              		.cfi_def_cfa_offset 32
 3279              		.loc 1 486 0
 3280 0006 0446     		mov	r4, r0
 3281              		.loc 1 487 0
 3282 0008 0127     		movs	r7, #1
 3283              		.loc 1 486 0
 3284 000a 0D46     		mov	r5, r1
 3285              		.loc 1 487 0
 3286 000c 806D     		ldr	r0, [r0, #88]
 3287              	.LVL398:
 3288 000e 0097     		str	r7, [sp]
 3289              		.loc 1 486 0
 3290 0010 1646     		mov	r6, r2
 3291              		.loc 1 487 0
 3292 0012 0A46     		mov	r2, r1
 3293              	.LVL399:
 3294 0014 04F16C01 		add	r1, r4, #108
 3295              	.LVL400:
 3296              		.loc 1 486 0
 3297 0018 1F46     		mov	r7, r3
 3298 001a 9DF82080 		ldrb	r8, [sp, #32]	@ zero_extendqisi2
 3299              		.loc 1 487 0
 3300 001e FFF7FEFF 		bl	cortexm_cache_clean.isra.1
 3301              	.LVL401:
 3302              	.LBB147:
 3303              	.LBB148:
 3304              		.loc 1 193 0
 3305 0022 E36E     		ldr	r3, [r4, #108]
 3306              	.LBE148:
ARM GAS  /tmp/cchERvVK.s 			page 59


 3307              	.LBE147:
 3308              		.loc 1 488 0
 3309 0024 3246     		mov	r2, r6
 3310 0026 1868     		ldr	r0, [r3]
 3311 0028 CDF80080 		str	r8, [sp]
 3312 002c 3B46     		mov	r3, r7
 3313 002e 2946     		mov	r1, r5
 3314 0030 FFF7FEFF 		bl	adiv5_mem_write_sized
 3315              	.LVL402:
 3316              		.loc 1 489 0
 3317 0034 2046     		mov	r0, r4
 3318 0036 FFF7FEFF 		bl	target_check_error
 3319              	.LVL403:
 3320              		.loc 1 490 0
 3321 003a 02B0     		add	sp, sp, #8
 3322              		.cfi_def_cfa_offset 24
 3323              		@ sp needed
 3324 003c BDE8F081 		pop	{r4, r5, r6, r7, r8, pc}
 3325              		.cfi_endproc
 3326              	.LFE275:
 3327              		.size	cortexm_mem_write_sized, .-cortexm_mem_write_sized
 3328              		.section	.text.cortexm_run_stub,"ax",%progbits
 3329              		.align	1
 3330              		.p2align 4,,15
 3331              		.global	cortexm_run_stub
 3332              		.syntax unified
 3333              		.thumb
 3334              		.thumb_func
 3335              		.fpu fpv4-sp-d16
 3336              		.type	cortexm_run_stub, %function
 3337              	cortexm_run_stub:
 3338              	.LFB283:
 3339              		.loc 1 703 0
 3340              		.cfi_startproc
 3341              		@ args = 8, pretend = 0, frame = 0
 3342              		@ frame_needed = 1, uses_anonymous_args = 0
 3343              	.LVL404:
 3344 0000 2DE9F845 		push	{r3, r4, r5, r6, r7, r8, r10, lr}
 3345              		.cfi_def_cfa_offset 32
 3346              		.cfi_offset 3, -32
 3347              		.cfi_offset 4, -28
 3348              		.cfi_offset 5, -24
 3349              		.cfi_offset 6, -20
 3350              		.cfi_offset 7, -16
 3351              		.cfi_offset 8, -12
 3352              		.cfi_offset 10, -8
 3353              		.cfi_offset 14, -4
 3354 0004 0D46     		mov	r5, r1
 3355              		.loc 1 704 0
 3356 0006 C169     		ldr	r1, [r0, #28]
 3357              	.LVL405:
 3358 0008 21F00301 		bic	r1, r1, #3
 3359              		.loc 1 703 0
 3360 000c 0446     		mov	r4, r0
 3361              	.LVL406:
 3362              		.loc 1 704 0
 3363 000e 01F10A00 		add	r0, r1, #10
ARM GAS  /tmp/cchERvVK.s 			page 60


 3364              	.LVL407:
 3365 0012 20F00700 		bic	r0, r0, #7
 3366              		.loc 1 703 0
 3367 0016 00AF     		add	r7, sp, #0
 3368              		.cfi_def_cfa_register 7
 3369              		.loc 1 704 0
 3370 0018 ADEB000D 		sub	sp, sp, r0
 3371 001c E846     		mov	r8, sp
 3372              	.LVL408:
 3373              		.loc 1 703 0
 3374 001e 1E46     		mov	r6, r3
 3375 0020 9246     		mov	r10, r2
 3376              		.loc 1 706 0
 3377 0022 4046     		mov	r0, r8
 3378 0024 0A46     		mov	r2, r1
 3379              	.LVL409:
 3380 0026 0021     		movs	r1, #0
 3381 0028 FFF7FEFF 		bl	memset
 3382              	.LVL410:
 3383              		.loc 1 708 0
 3384 002c C8E900A6 		strd	r10, r6, [r8]
 3385              		.loc 1 709 0
 3386 0030 3E6A     		ldr	r6, [r7, #32]
 3387              	.LVL411:
 3388 0032 C8F80860 		str	r6, [r8, #8]
 3389              		.loc 1 712 0
 3390 0036 4FF08073 		mov	r3, #16777216
 3391              		.loc 1 713 0
 3392 003a 0022     		movs	r2, #0
 3393              		.loc 1 715 0
 3394 003c 2046     		mov	r0, r4
 3395              		.loc 1 710 0
 3396 003e 7E6A     		ldr	r6, [r7, #36]
 3397 0040 C8F80C60 		str	r6, [r8, #12]
 3398              		.loc 1 715 0
 3399 0044 4146     		mov	r1, r8
 3400              		.loc 1 712 0
 3401 0046 C8E90F53 		strd	r5, r3, [r8, #60]
 3402              		.loc 1 713 0
 3403 004a C8F84C20 		str	r2, [r8, #76]
 3404              		.loc 1 715 0
 3405 004e FFF7FEFF 		bl	cortexm_regs_write
 3406              	.LVL412:
 3407              		.loc 1 717 0
 3408 0052 2046     		mov	r0, r4
 3409 0054 FFF7FEFF 		bl	target_check_error
 3410              	.LVL413:
 3411 0058 20BB     		cbnz	r0, .L329
 3412              		.loc 1 722 0
 3413 005a 0146     		mov	r1, r0
 3414 005c 2046     		mov	r0, r4
 3415 005e FFF7FEFF 		bl	cortexm_halt_resume
 3416              	.LVL414:
 3417              	.L325:
 3418              		.loc 1 723 0 discriminator 1
 3419 0062 0021     		movs	r1, #0
 3420 0064 2046     		mov	r0, r4
ARM GAS  /tmp/cchERvVK.s 			page 61


 3421 0066 FFF7FEFF 		bl	cortexm_halt_poll
 3422              	.LVL415:
 3423 006a 0028     		cmp	r0, #0
 3424 006c F9D0     		beq	.L325
 3425              		.loc 1 726 0
 3426 006e 0128     		cmp	r0, #1
 3427 0070 10D0     		beq	.L333
 3428              		.loc 1 729 0
 3429 0072 0428     		cmp	r0, #4
 3430 0074 19D1     		bne	.L328
 3431              		.loc 1 732 0
 3432 0076 2046     		mov	r0, r4
 3433              	.LVL416:
 3434 0078 FFF7FEFF 		bl	cortexm_pc_read
 3435              	.LVL417:
 3436              		.loc 1 733 0
 3437 007c 0146     		mov	r1, r0
 3438 007e 2046     		mov	r0, r4
 3439              	.LVL418:
 3440 0080 FFF7FEFF 		bl	target_mem_read16
 3441              	.LVL419:
 3442              		.loc 1 734 0
 3443 0084 C0F30F23 		ubfx	r3, r0, #8, #16
 3444 0088 BE2B     		cmp	r3, #190
 3445 008a 0ED1     		bne	.L328
 3446              		.loc 1 737 0
 3447 008c C0B2     		uxtb	r0, r0
 3448              	.LVL420:
 3449              	.L323:
 3450              		.loc 1 738 0
 3451 008e BD46     		mov	sp, r7
 3452              		.cfi_remember_state
 3453              		.cfi_def_cfa_register 13
 3454              		@ sp needed
 3455 0090 BDE8F885 		pop	{r3, r4, r5, r6, r7, r8, r10, pc}
 3456              	.LVL421:
 3457              	.L333:
 3458              		.cfi_restore_state
 3459              		.loc 1 727 0
 3460 0094 0649     		ldr	r1, .L334
 3461 0096 FFF7FEFF 		bl	raise_exception
 3462              	.LVL422:
 3463              		.loc 1 730 0
 3464 009a 6FF00100 		mvn	r0, #1
 3465              		.loc 1 738 0
 3466 009e BD46     		mov	sp, r7
 3467              		.cfi_remember_state
 3468              		.cfi_def_cfa_register 13
 3469              		@ sp needed
 3470 00a0 BDE8F885 		pop	{r3, r4, r5, r6, r7, r8, r10, pc}
 3471              	.LVL423:
 3472              	.L329:
 3473              		.cfi_restore_state
 3474              		.loc 1 718 0
 3475 00a4 4FF0FF30 		mov	r0, #-1
 3476 00a8 F1E7     		b	.L323
 3477              	.L328:
ARM GAS  /tmp/cchERvVK.s 			page 62


 3478              		.loc 1 730 0
 3479 00aa 6FF00100 		mvn	r0, #1
 3480 00ae EEE7     		b	.L323
 3481              	.L335:
 3482              		.align	2
 3483              	.L334:
 3484 00b0 00000000 		.word	.LC20
 3485              		.cfi_endproc
 3486              	.LFE283:
 3487              		.size	cortexm_run_stub, .-cortexm_run_stub
 3488              		.global	cortexm_cmd_list
 3489              		.section	.rodata
 3490              		.align	2
 3491              		.set	.LANCHOR0,. + 0
 3492              	.LC10:
 3493 0000 00000000 		.word	.LC0
 3494 0004 00000000 		.word	0
 3495 0008 00000000 		.word	0
 3496 000c 00000000 		.word	0
 3497 0010 08000000 		.word	.LC1
 3498 0014 0C000000 		.word	.LC2
 3499 0018 14000000 		.word	.LC3
 3500 001c 18000000 		.word	.LC4
 3501 0020 20000000 		.word	.LC5
 3502 0024 24000000 		.word	.LC6
 3503 0028 28000000 		.word	.LC7
 3504              	.LC9:
 3505 002c 00000000 		.word	0
 3506 0030 02000000 		.word	2
 3507 0034 01060000 		.word	1537
 3508 0038 02060000 		.word	1538
 3509 003c 09020000 		.word	521
 3510 0040 0A020000 		.word	522
 3511              		.section	.rodata.CSWTCH.44,"a",%progbits
 3512              		.align	2
 3513              		.set	.LANCHOR1,. + 0
 3514              		.type	CSWTCH.44, %object
 3515              		.size	CSWTCH.44, 16
 3516              	CSWTCH.44:
 3517 0000 00000000 		.word	0
 3518 0004 01000000 		.word	1
 3519 0008 FFFFFFFF 		.word	-1
 3520 000c 03000000 		.word	3
 3521              		.section	.rodata.cortexm_cmd_list,"a",%progbits
 3522              		.align	2
 3523              		.set	.LANCHOR6,. + 0
 3524              		.type	cortexm_cmd_list, %object
 3525              		.size	cortexm_cmd_list, 24
 3526              	cortexm_cmd_list:
 3527 0000 30000000 		.word	.LC21
 3528 0004 00000000 		.word	cortexm_vector_catch
 3529 0008 40000000 		.word	.LC22
 3530 000c 00000000 		.word	0
 3531 0010 00000000 		.word	0
 3532 0014 00000000 		.word	0
 3533              		.section	.rodata.cortexm_driver_str,"a",%progbits
 3534              		.align	2
ARM GAS  /tmp/cchERvVK.s 			page 63


 3535              		.set	.LANCHOR4,. + 0
 3536              		.type	cortexm_driver_str, %object
 3537              		.size	cortexm_driver_str, 13
 3538              	cortexm_driver_str:
 3539 0000 41524D20 		.ascii	"ARM Cortex-M\000"
 3539      436F7274 
 3539      65782D4D 
 3539      00
 3540              		.section	.rodata.cortexm_halt_poll.str1.4,"aMS",%progbits,1
 3541              		.align	2
 3542              	.LC16:
 3543 0000 73797363 		.ascii	"syscall 0lx%lx (%lx %lx %lx %lx)\012\000"
 3543      616C6C20 
 3543      306C7825 
 3543      6C782028 
 3543      256C7820 
 3544 0022 0000     		.space	2
 3545              	.LC17:
 3546 0024 3A747400 		.ascii	":tt\000"
 3547              		.section	.rodata.cortexm_halt_request.str1.4,"aMS",%progbits,1
 3548              		.align	2
 3549              	.LC15:
 3550 0000 54696D65 		.ascii	"Timeout sending interrupt, is target in WFI?\012\000"
 3550      6F757420 
 3550      73656E64 
 3550      696E6720 
 3550      696E7465 
 3551              		.section	.rodata.cortexm_probe.str1.4,"aMS",%progbits,1
 3552              		.align	2
 3553              	.LC18:
 3554 0000 636F7274 		.ascii	"cortexm probe Funktion\012\000"
 3554      65786D20 
 3554      70726F62 
 3554      65204675 
 3554      6E6B7469 
 3555              	.LC19:
 3556 0018 4E524620 		.ascii	"NRF Probe Function\012\000"
 3556      50726F62 
 3556      65204675 
 3556      6E637469 
 3556      6F6E0A00 
 3557              		.section	.rodata.cortexm_run_stub.str1.4,"aMS",%progbits,1
 3558              		.align	2
 3559              	.LC20:
 3560 0000 54617267 		.ascii	"Target lost in stub\000"
 3560      6574206C 
 3560      6F737420 
 3560      696E2073 
 3560      74756200 
 3561              		.section	.rodata.cortexm_vector_catch.str1.4,"aMS",%progbits,1
 3562              		.align	2
 3563              	.LC11:
 3564 0000 75736167 		.ascii	"usage: monitor vector_catch (enable|disable) (hard|"
 3564      653A206D 
 3564      6F6E6974 
 3564      6F722076 
 3564      6563746F 
ARM GAS  /tmp/cchERvVK.s 			page 64


 3565 0033 696E747C 		.ascii	"int|bus|stat|chk|nocp|mm|reset)\012\000"
 3565      6275737C 
 3565      73746174 
 3565      7C63686B 
 3565      7C6E6F63 
 3566              	.LC12:
 3567 0054 43617463 		.ascii	"Catching vectors: \000"
 3567      68696E67 
 3567      20766563 
 3567      746F7273 
 3567      3A2000
 3568 0067 00       		.space	1
 3569              	.LC13:
 3570 0068 25732000 		.ascii	"%s \000"
 3571              	.LC14:
 3572 006c 0A00     		.ascii	"\012\000"
 3573              		.section	.rodata.regnum_cortex_m,"a",%progbits
 3574              		.align	2
 3575              		.set	.LANCHOR2,. + 0
 3576              		.type	regnum_cortex_m, %object
 3577              		.size	regnum_cortex_m, 80
 3578              	regnum_cortex_m:
 3579 0000 00000000 		.word	0
 3580 0004 01000000 		.word	1
 3581 0008 02000000 		.word	2
 3582 000c 03000000 		.word	3
 3583 0010 04000000 		.word	4
 3584 0014 05000000 		.word	5
 3585 0018 06000000 		.word	6
 3586 001c 07000000 		.word	7
 3587 0020 08000000 		.word	8
 3588 0024 09000000 		.word	9
 3589 0028 0A000000 		.word	10
 3590 002c 0B000000 		.word	11
 3591 0030 0C000000 		.word	12
 3592 0034 0D000000 		.word	13
 3593 0038 0E000000 		.word	14
 3594 003c 0F000000 		.word	15
 3595 0040 10000000 		.word	16
 3596 0044 11000000 		.word	17
 3597 0048 12000000 		.word	18
 3598 004c 14000000 		.word	20
 3599              		.section	.rodata.regnum_cortex_mf,"a",%progbits
 3600              		.align	2
 3601              		.set	.LANCHOR3,. + 0
 3602              		.type	regnum_cortex_mf, %object
 3603              		.size	regnum_cortex_mf, 132
 3604              	regnum_cortex_mf:
 3605 0000 21000000 		.word	33
 3606 0004 40000000 		.word	64
 3607 0008 41000000 		.word	65
 3608 000c 42000000 		.word	66
 3609 0010 43000000 		.word	67
 3610 0014 44000000 		.word	68
 3611 0018 45000000 		.word	69
 3612 001c 46000000 		.word	70
 3613 0020 47000000 		.word	71
ARM GAS  /tmp/cchERvVK.s 			page 65


 3614 0024 48000000 		.word	72
 3615 0028 49000000 		.word	73
 3616 002c 4A000000 		.word	74
 3617 0030 4B000000 		.word	75
 3618 0034 4C000000 		.word	76
 3619 0038 4D000000 		.word	77
 3620 003c 4E000000 		.word	78
 3621 0040 4F000000 		.word	79
 3622 0044 50000000 		.word	80
 3623 0048 51000000 		.word	81
 3624 004c 52000000 		.word	82
 3625 0050 53000000 		.word	83
 3626 0054 54000000 		.word	84
 3627 0058 55000000 		.word	85
 3628 005c 56000000 		.word	86
 3629 0060 57000000 		.word	87
 3630 0064 58000000 		.word	88
 3631 0068 59000000 		.word	89
 3632 006c 5A000000 		.word	90
 3633 0070 5B000000 		.word	91
 3634 0074 5C000000 		.word	92
 3635 0078 5D000000 		.word	93
 3636 007c 5E000000 		.word	94
 3637 0080 5F000000 		.word	95
 3638              		.section	.rodata.str1.4,"aMS",%progbits,1
 3639              		.align	2
 3640              	.LC0:
 3641 0000 72657365 		.ascii	"reset\000"
 3641      7400
 3642 0006 0000     		.space	2
 3643              	.LC1:
 3644 0008 6D6D00   		.ascii	"mm\000"
 3645 000b 00       		.space	1
 3646              	.LC2:
 3647 000c 6E6F6370 		.ascii	"nocp\000"
 3647      00
 3648 0011 000000   		.space	3
 3649              	.LC3:
 3650 0014 63686B00 		.ascii	"chk\000"
 3651              	.LC4:
 3652 0018 73746174 		.ascii	"stat\000"
 3652      00
 3653 001d 000000   		.space	3
 3654              	.LC5:
 3655 0020 62757300 		.ascii	"bus\000"
 3656              	.LC6:
 3657 0024 696E7400 		.ascii	"int\000"
 3658              	.LC7:
 3659 0028 68617264 		.ascii	"hard\000"
 3659      00
 3660 002d 000000   		.space	3
 3661              	.LC21:
 3662 0030 76656374 		.ascii	"vector_catch\000"
 3662      6F725F63 
 3662      61746368 
 3662      00
 3663 003d 000000   		.space	3
ARM GAS  /tmp/cchERvVK.s 			page 66


 3664              	.LC22:
 3665 0040 43617463 		.ascii	"Catch exception vectors\000"
 3665      68206578 
 3665      63657074 
 3665      696F6E20 
 3665      76656374 
 3666              		.section	.rodata.tdesc_cortex_m,"a",%progbits
 3667              		.align	2
 3668              		.set	.LANCHOR5,. + 0
 3669              		.type	tdesc_cortex_m, %object
 3670              		.size	tdesc_cortex_m, 8
 3671              	tdesc_cortex_m:
 3672 0000 4E6F2064 		.ascii	"No desc\000"
 3672      65736300 
 3673              		.section	.rodata.tdesc_cortex_mf,"a",%progbits
 3674              		.align	2
 3675              		.set	.LANCHOR7,. + 0
 3676              		.type	tdesc_cortex_mf, %object
 3677              		.size	tdesc_cortex_mf, 8
 3678              	tdesc_cortex_mf:
 3679 0000 4E6F2064 		.ascii	"No desc\000"
 3679      65736300 
 3680              		.text
 3681              	.Letext0:
 3682              		.file 3 "/usr/arm-none-eabi/include/machine/_default_types.h"
 3683              		.file 4 "/usr/arm-none-eabi/include/sys/_stdint.h"
 3684              		.file 5 "/usr/lib/gcc/arm-none-eabi/7.3.1/include/stddef.h"
 3685              		.file 6 "/usr/arm-none-eabi/include/sys/lock.h"
 3686              		.file 7 "/usr/arm-none-eabi/include/sys/_types.h"
 3687              		.file 8 "/usr/arm-none-eabi/include/sys/reent.h"
 3688              		.file 9 "/usr/arm-none-eabi/include/stdlib.h"
 3689              		.file 10 "/usr/lib/gcc/arm-none-eabi/7.3.1/include/stdarg.h"
 3690              		.file 11 "<built-in>"
 3691              		.file 12 "/usr/arm-none-eabi/include/stdio.h"
 3692              		.file 13 "/usr/arm-none-eabi/include/sys/types.h"
 3693              		.file 14 "ChibiOS_3.0.2/os/rt/ports/ARMCMx/compilers/GCC/chtypes.h"
 3694              		.file 15 "ChibiOS_3.0.2/os/rt/include/chsystypes.h"
 3695              		.file 16 "ChibiOS_3.0.2/os/rt/include/chschd.h"
 3696              		.file 17 "ChibiOS_3.0.2/os/ext/CMSIS/include/core_cm4.h"
 3697              		.file 18 "ChibiOS_3.0.2/os/ext/CMSIS/ST/system_stm32f4xx.h"
 3698              		.file 19 "ChibiOS_3.0.2/os/ext/CMSIS/ST/stm32f407xx.h"
 3699              		.file 20 "ChibiOS_3.0.2/os/rt/ports/ARMCMx/chcore.h"
 3700              		.file 21 "ChibiOS_3.0.2/os/rt/ports/ARMCMx/chcore_v7m.h"
 3701              		.file 22 "ChibiOS_3.0.2/os/rt/include/chtm.h"
 3702              		.file 23 "ChibiOS_3.0.2/os/rt/include/chsem.h"
 3703              		.file 24 "ChibiOS_3.0.2/os/rt/include/chmtx.h"
 3704              		.file 25 "ChibiOS_3.0.2/os/rt/include/chregistry.h"
 3705              		.file 26 "ChibiOS_3.0.2/os/rt/include/chevents.h"
 3706              		.file 27 "ChibiOS_3.0.2/os/rt/include/chqueues.h"
 3707              		.file 28 "./conf_general.h"
 3708              		.file 29 "ChibiOS_3.0.2/os/hal/ports/STM32/STM32F4xx/stm32_dma.h"
 3709              		.file 30 "ChibiOS_3.0.2/os/hal/ports/STM32/LLD/GPIOv2/pal_lld.h"
 3710              		.file 31 "ChibiOS_3.0.2/os/hal/include/can.h"
 3711              		.file 32 "ChibiOS_3.0.2/os/hal/ports/STM32/LLD/can_lld.h"
 3712              		.file 33 "ChibiOS_3.0.2/os/hal/include/i2c.h"
 3713              		.file 34 "ChibiOS_3.0.2/os/hal/ports/STM32/LLD/I2Cv1/i2c_lld.h"
 3714              		.file 35 "ChibiOS_3.0.2/os/hal/include/icu.h"
ARM GAS  /tmp/cchERvVK.s 			page 67


 3715              		.file 36 "ChibiOS_3.0.2/os/hal/ports/STM32/LLD/TIMv1/icu_lld.h"
 3716              		.file 37 "ChibiOS_3.0.2/os/hal/ports/STM32/LLD/TIMv1/stm32_tim.h"
 3717              		.file 38 "ChibiOS_3.0.2/os/hal/include/serial.h"
 3718              		.file 39 "ChibiOS_3.0.2/os/hal/ports/STM32/LLD/USARTv1/serial_lld.h"
 3719              		.file 40 "ChibiOS_3.0.2/os/hal/include/spi.h"
 3720              		.file 41 "ChibiOS_3.0.2/os/hal/ports/STM32/LLD/SPIv1/spi_lld.h"
 3721              		.file 42 "ChibiOS_3.0.2/os/hal/include/usb.h"
 3722              		.file 43 "ChibiOS_3.0.2/os/hal/ports/STM32/LLD/OTGv1/usb_lld.h"
 3723              		.file 44 "ChibiOS_3.0.2/os/hal/ports/STM32/LLD/OTGv1/stm32_otg.h"
 3724              		.file 45 "blackmagic/platform.h"
 3725              		.file 46 "/usr/arm-none-eabi/include/machine/setjmp.h"
 3726              		.file 47 "blackmagic/exception.h"
 3727              		.file 48 "blackmagic/target/jtag_scan.h"
 3728              		.file 49 "blackmagic/target.h"
 3729              		.file 50 "blackmagic/target/target_internal.h"
 3730              		.file 51 "blackmagic/target/cortexm.h"
 3731              		.file 52 "/usr/arm-none-eabi/include/sys/unistd.h"
 3732              		.file 53 "/usr/arm-none-eabi/include/string.h"
 3733              		.file 54 "./commands.h"
 3734              		.file 55 "/usr/arm-none-eabi/include/setjmp.h"
 3735              		.file 56 "blackmagic/platform_support.h"
 3736              		.file 57 "blackmagic/timing.h"