ARM GAS  /tmp/cchERvVK.s 			page 1


   1              		.cpu cortex-m4
   2              		.eabi_attribute 27, 1
   3              		.eabi_attribute 28, 1
   4              		.eabi_attribute 20, 1
   5              		.eabi_attribute 21, 1
   6              		.eabi_attribute 23, 3
   7              		.eabi_attribute 24, 1
   8              		.eabi_attribute 25, 1
   9              		.eabi_attribute 26, 1
  10              		.eabi_attribute 30, 2
  11              		.eabi_attribute 34, 1
  12              		.eabi_attribute 18, 4
  13              		.file	"cortexm.c"
  14              		.text
  15              	.Ltext0:
  16              		.cfi_sections	.debug_frame
  17              		.section	.text.cortexm_check_error,"ax",%progbits
  18              		.align	1
  19              		.p2align 4,,15
  20              		.syntax unified
  21              		.thumb
  22              		.thumb_func
  23              		.fpu fpv4-sp-d16
  24              		.type	cortexm_check_error, %function
  25              	cortexm_check_error:
  26              	.LFB267:
  27              		.file 1 "blackmagic/target/cortexm.c"
  28              		.loc 1 234 0
  29              		.cfi_startproc
  30              		@ args = 0, pretend = 0, frame = 0
  31              		@ frame_needed = 0, uses_anonymous_args = 0
  32              	.LVL0:
  33 0000 08B5     		push	{r3, lr}
  34              		.cfi_def_cfa_offset 8
  35              		.cfi_offset 3, -8
  36              		.cfi_offset 14, -4
  37              	.LBB52:
  38              	.LBB53:
  39              		.loc 1 193 0
  40 0002 C36E     		ldr	r3, [r0, #108]
  41              	.LBE53:
  42              	.LBE52:
  43              		.loc 1 236 0
  44 0004 1B68     		ldr	r3, [r3]
  45 0006 5868     		ldr	r0, [r3, #4]
  46              	.LVL1:
  47              	.LBB54:
  48              	.LBB55:
  49              		.file 2 "blackmagic/target/adiv5.h"
  50              		.loc 2 147 0
  51 0008 4369     		ldr	r3, [r0, #20]
  52 000a 9847     		blx	r3
  53              	.LVL2:
  54              	.LBE55:
  55              	.LBE54:
  56              		.loc 1 237 0
  57 000c 0030     		adds	r0, r0, #0
ARM GAS  /tmp/cchERvVK.s 			page 2


  58 000e 18BF     		it	ne
  59 0010 0120     		movne	r0, #1
  60 0012 08BD     		pop	{r3, pc}
  61              		.cfi_endproc
  62              	.LFE267:
  63              		.size	cortexm_check_error, .-cortexm_check_error
  64              		.section	.text.cortexm_vector_catch,"ax",%progbits
  65              		.align	1
  66              		.p2align 4,,15
  67              		.syntax unified
  68              		.thumb
  69              		.thumb_func
  70              		.fpu fpv4-sp-d16
  71              		.type	cortexm_vector_catch, %function
  72              	cortexm_vector_catch:
  73              	.LFB289:
  74              		.loc 1 865 0
  75              		.cfi_startproc
  76              		@ args = 0, pretend = 0, frame = 56
  77              		@ frame_needed = 0, uses_anonymous_args = 0
  78              	.LVL3:
  79 0000 2DE9F04F 		push	{r4, r5, r6, r7, r8, r9, r10, fp, lr}
  80              		.cfi_def_cfa_offset 36
  81              		.cfi_offset 4, -36
  82              		.cfi_offset 5, -32
  83              		.cfi_offset 6, -28
  84              		.cfi_offset 7, -24
  85              		.cfi_offset 8, -20
  86              		.cfi_offset 9, -16
  87              		.cfi_offset 10, -12
  88              		.cfi_offset 11, -8
  89              		.cfi_offset 14, -4
  90              		.loc 1 867 0
  91 0004 324E     		ldr	r6, .L29
  92              		.loc 1 865 0
  93 0006 8046     		mov	r8, r0
  94 0008 8A46     		mov	r10, r1
  95 000a 1546     		mov	r5, r2
  96              		.loc 1 867 0
  97 000c 0FCE     		ldmia	r6!, {r0, r1, r2, r3}
  98              	.LVL4:
  99              		.loc 1 865 0
 100 000e 8FB0     		sub	sp, sp, #60
 101              		.cfi_def_cfa_offset 96
 102              		.loc 1 867 0
 103 0010 03AC     		add	r4, sp, #12
 104 0012 0FC4     		stmia	r4!, {r0, r1, r2, r3}
 105 0014 0FCE     		ldmia	r6!, {r0, r1, r2, r3}
 106 0016 0FC4     		stmia	r4!, {r0, r1, r2, r3}
 107 0018 96E80700 		ldm	r6, {r0, r1, r2}
 108              		.loc 1 871 0
 109 001c BAF1020F 		cmp	r10, #2
 110              		.loc 1 866 0
 111 0020 D8F86C70 		ldr	r7, [r8, #108]
 112              	.LVL5:
 113              		.loc 1 867 0
 114 0024 84E80700 		stm	r4, {r0, r1, r2}
ARM GAS  /tmp/cchERvVK.s 			page 3


 115              		.loc 1 871 0
 116 0028 05DD     		ble	.L5
 117              		.loc 1 871 0 is_stmt 0 discriminator 1
 118 002a 6B68     		ldr	r3, [r5, #4]
 119 002c 1B78     		ldrb	r3, [r3]	@ zero_extendqisi2
 120 002e 0193     		str	r3, [sp, #4]
 121 0030 643B     		subs	r3, r3, #100
 122 0032 012B     		cmp	r3, #1
 123 0034 27D9     		bls	.L27
 124              	.L5:
 125              		.loc 1 872 0 is_stmt 1
 126 0036 2749     		ldr	r1, .L29+4
 127 0038 4046     		mov	r0, r8
 128 003a FFF7FEFF 		bl	tc_printf
 129              	.LVL6:
 130              	.L7:
 131              		.loc 1 891 0
 132 003e 2649     		ldr	r1, .L29+8
 133              		.loc 1 896 0
 134 0040 264E     		ldr	r6, .L29+12
 135              		.loc 1 891 0
 136 0042 4046     		mov	r0, r8
 137 0044 FFF7FEFF 		bl	tc_printf
 138              	.LVL7:
 139 0048 03AD     		add	r5, sp, #12
 140              		.loc 1 892 0
 141 004a 0024     		movs	r4, #0
 142              		.loc 1 895 0
 143 004c 4FF00109 		mov	r9, #1
 144 0050 01E0     		b	.L14
 145              	.LVL8:
 146              	.L13:
 147              		.loc 1 892 0 discriminator 2
 148 0052 0B2C     		cmp	r4, #11
 149 0054 0FD0     		beq	.L28
 150              	.LVL9:
 151              	.L14:
 152              		.loc 1 893 0
 153 0056 55F8042B 		ldr	r2, [r5], #4
 154              		.loc 1 895 0
 155 005a 09FA04F3 		lsl	r3, r9, r4
 156              		.loc 1 892 0
 157 005e 0134     		adds	r4, r4, #1
 158              	.LVL10:
 159              		.loc 1 893 0
 160 0060 002A     		cmp	r2, #0
 161 0062 F6D0     		beq	.L13
 162              		.loc 1 895 0
 163 0064 396A     		ldr	r1, [r7, #32]
 164 0066 0B42     		tst	r3, r1
 165 0068 F3D0     		beq	.L13
 166              		.loc 1 896 0
 167 006a 3146     		mov	r1, r6
 168 006c 4046     		mov	r0, r8
 169 006e FFF7FEFF 		bl	tc_printf
 170              	.LVL11:
 171              		.loc 1 892 0
ARM GAS  /tmp/cchERvVK.s 			page 4


 172 0072 0B2C     		cmp	r4, #11
 173 0074 EFD1     		bne	.L14
 174              	.L28:
 175              		.loc 1 898 0
 176 0076 4046     		mov	r0, r8
 177 0078 1949     		ldr	r1, .L29+16
 178 007a FFF7FEFF 		bl	tc_printf
 179              	.LVL12:
 180              		.loc 1 900 0
 181 007e 0120     		movs	r0, #1
 182 0080 0FB0     		add	sp, sp, #60
 183              		.cfi_remember_state
 184              		.cfi_def_cfa_offset 36
 185              		@ sp needed
 186 0082 BDE8F08F 		pop	{r4, r5, r6, r7, r8, r9, r10, fp, pc}
 187              	.LVL13:
 188              	.L27:
 189              		.cfi_restore_state
 190 0086 05EB8A0A 		add	r10, r5, r10, lsl #2
 191              	.LVL14:
 192              	.LBB56:
 193              		.loc 1 875 0
 194 008a 0026     		movs	r6, #0
 195              	.LBB57:
 196              		.loc 1 880 0
 197 008c 4FF00109 		mov	r9, #1
 198              	.LVL15:
 199              	.L6:
 200 0090 0DF10C0B 		add	fp, sp, #12
 201              		.loc 1 878 0
 202 0094 0024     		movs	r4, #0
 203              	.LVL16:
 204              	.L9:
 205              		.loc 1 879 0
 206 0096 5BF8043B 		ldr	r3, [fp], #4
 207 009a 1846     		mov	r0, r3
 208 009c 33B1     		cbz	r3, .L8
 209              		.loc 1 879 0 is_stmt 0 discriminator 1
 210 009e 2968     		ldr	r1, [r5]
 211 00a0 FFF7FEFF 		bl	strcmp
 212              	.LVL17:
 213 00a4 10B9     		cbnz	r0, .L8
 214              		.loc 1 880 0 is_stmt 1
 215 00a6 09FA04F3 		lsl	r3, r9, r4
 216 00aa 1E43     		orrs	r6, r6, r3
 217              	.LVL18:
 218              	.L8:
 219              		.loc 1 878 0 discriminator 2
 220 00ac 0134     		adds	r4, r4, #1
 221              	.LVL19:
 222 00ae 0B2C     		cmp	r4, #11
 223 00b0 F1D1     		bne	.L9
 224              	.LVL20:
 225 00b2 0435     		adds	r5, r5, #4
 226              		.loc 1 877 0 discriminator 2
 227 00b4 5545     		cmp	r5, r10
 228 00b6 EBD1     		bne	.L6
ARM GAS  /tmp/cchERvVK.s 			page 5


 229              	.LBE57:
 230              		.loc 1 883 0
 231 00b8 019B     		ldr	r3, [sp, #4]
 232 00ba 3A6A     		ldr	r2, [r7, #32]
 233              		.loc 1 888 0
 234 00bc 0949     		ldr	r1, .L29+20
 235              		.loc 1 883 0
 236 00be 652B     		cmp	r3, #101
 237              		.loc 1 884 0
 238 00c0 0CBF     		ite	eq
 239 00c2 3243     		orreq	r2, r2, r6
 240              		.loc 1 886 0
 241 00c4 B243     		bicne	r2, r2, r6
 242 00c6 3A62     		str	r2, [r7, #32]
 243              		.loc 1 888 0
 244 00c8 4046     		mov	r0, r8
 245 00ca FFF7FEFF 		bl	target_mem_write32
 246              	.LVL21:
 247 00ce B6E7     		b	.L7
 248              	.L30:
 249              		.align	2
 250              	.L29:
 251 00d0 00000000 		.word	.LANCHOR0
 252 00d4 00000000 		.word	.LC11
 253 00d8 54000000 		.word	.LC12
 254 00dc 68000000 		.word	.LC13
 255 00e0 6C000000 		.word	.LC14
 256 00e4 FCED00E0 		.word	-536809988
 257              	.LBE56:
 258              		.cfi_endproc
 259              	.LFE289:
 260              		.size	cortexm_vector_catch, .-cortexm_vector_catch
 261              		.section	.text.cortexm_breakwatch_clear,"ax",%progbits
 262              		.align	1
 263              		.p2align 4,,15
 264              		.syntax unified
 265              		.thumb
 266              		.thumb_func
 267              		.fpu fpv4-sp-d16
 268              		.type	cortexm_breakwatch_clear, %function
 269              	cortexm_breakwatch_clear:
 270              	.LFB287:
 271              		.loc 1 827 0
 272              		.cfi_startproc
 273              		@ args = 0, pretend = 0, frame = 0
 274              		@ frame_needed = 0, uses_anonymous_args = 0
 275              	.LVL22:
 276              		.loc 1 830 0
 277 0000 0A79     		ldrb	r2, [r1, #4]	@ zero_extendqisi2
 278              		.loc 1 829 0
 279 0002 0969     		ldr	r1, [r1, #16]
 280              	.LVL23:
 281              		.loc 1 830 0
 282 0004 012A     		cmp	r2, #1
 283              		.loc 1 827 0
 284 0006 38B5     		push	{r3, r4, r5, lr}
 285              		.cfi_def_cfa_offset 16
ARM GAS  /tmp/cchERvVK.s 			page 6


 286              		.cfi_offset 3, -16
 287              		.cfi_offset 4, -12
 288              		.cfi_offset 5, -8
 289              		.cfi_offset 14, -4
 290              		.loc 1 828 0
 291 0008 C36E     		ldr	r3, [r0, #108]
 292              	.LVL24:
 293              		.loc 1 830 0
 294 000a 0FD0     		beq	.L33
 295 000c 0CD3     		bcc	.L35
 296 000e 042A     		cmp	r2, #4
 297 0010 0AD8     		bhi	.L35
 298              		.loc 1 838 0
 299 0012 0B44     		add	r3, r3, r1
 300              	.LVL25:
 301              		.loc 1 839 0
 302 0014 0C4D     		ldr	r5, .L38
 303              		.loc 1 838 0
 304 0016 0024     		movs	r4, #0
 305 0018 9C71     		strb	r4, [r3, #6]
 306              		.loc 1 839 0
 307 001a 2246     		mov	r2, r4
 308 001c 05EB0111 		add	r1, r5, r1, lsl #4
 309              	.LVL26:
 310 0020 FFF7FEFF 		bl	target_mem_write32
 311              	.LVL27:
 312              		.loc 1 840 0
 313 0024 2046     		mov	r0, r4
 314              		.loc 1 844 0
 315 0026 38BD     		pop	{r3, r4, r5, pc}
 316              	.LVL28:
 317              	.L35:
 318              		.loc 1 842 0
 319 0028 0120     		movs	r0, #1
 320              	.LVL29:
 321              		.loc 1 844 0
 322 002a 38BD     		pop	{r3, r4, r5, pc}
 323              	.LVL30:
 324              	.L33:
 325              		.loc 1 832 0
 326 002c 0B44     		add	r3, r3, r1
 327              	.LVL31:
 328              		.loc 1 833 0
 329 002e 01F16051 		add	r1, r1, #939524096
 330              	.LVL32:
 331              		.loc 1 832 0
 332 0032 0024     		movs	r4, #0
 333              		.loc 1 833 0
 334 0034 01F60201 		addw	r1, r1, #2050
 335              	.LVL33:
 336 0038 8900     		lsls	r1, r1, #2
 337              	.LVL34:
 338              		.loc 1 832 0
 339 003a 1C75     		strb	r4, [r3, #20]
 340              		.loc 1 833 0
 341 003c 2246     		mov	r2, r4
 342 003e FFF7FEFF 		bl	target_mem_write32
ARM GAS  /tmp/cchERvVK.s 			page 7


 343              	.LVL35:
 344              		.loc 1 834 0
 345 0042 2046     		mov	r0, r4
 346              		.loc 1 844 0
 347 0044 38BD     		pop	{r3, r4, r5, pc}
 348              	.L39:
 349 0046 00BF     		.align	2
 350              	.L38:
 351 0048 281000E0 		.word	-536866776
 352              		.cfi_endproc
 353              	.LFE287:
 354              		.size	cortexm_breakwatch_clear, .-cortexm_breakwatch_clear
 355              		.section	.text.cortexm_breakwatch_set,"ax",%progbits
 356              		.align	1
 357              		.p2align 4,,15
 358              		.syntax unified
 359              		.thumb
 360              		.thumb_func
 361              		.fpu fpv4-sp-d16
 362              		.type	cortexm_breakwatch_set, %function
 363              	cortexm_breakwatch_set:
 364              	.LFB286:
 365              		.loc 1 778 0
 366              		.cfi_startproc
 367              		@ args = 0, pretend = 0, frame = 0
 368              		@ frame_needed = 0, uses_anonymous_args = 0
 369              	.LVL36:
 370              		.loc 1 783 0
 371 0000 0B79     		ldrb	r3, [r1, #4]	@ zero_extendqisi2
 372              		.loc 1 781 0
 373 0002 8A68     		ldr	r2, [r1, #8]
 374              		.loc 1 783 0
 375 0004 012B     		cmp	r3, #1
 376              		.loc 1 778 0
 377 0006 2DE9F041 		push	{r4, r5, r6, r7, r8, lr}
 378              		.cfi_def_cfa_offset 24
 379              		.cfi_offset 4, -24
 380              		.cfi_offset 5, -20
 381              		.cfi_offset 6, -16
 382              		.cfi_offset 7, -12
 383              		.cfi_offset 8, -8
 384              		.cfi_offset 14, -4
 385              		.loc 1 778 0
 386 000a 0646     		mov	r6, r0
 387 000c 0D46     		mov	r5, r1
 388              		.loc 1 779 0
 389 000e C06E     		ldr	r0, [r0, #108]
 390              	.LVL37:
 391              		.loc 1 783 0
 392 0010 1CD0     		beq	.L42
 393 0012 18D3     		bcc	.L61
 394 0014 042B     		cmp	r3, #4
 395 0016 16D8     		bhi	.L61
 396              	.LVL38:
 397              		.loc 1 806 0
 398 0018 D0F810C0 		ldr	ip, [r0, #16]
 399 001c BCF1000F 		cmp	ip, #0
ARM GAS  /tmp/cchERvVK.s 			page 8


 400 0020 0DD0     		beq	.L64
 401              		.loc 1 807 0
 402 0022 8479     		ldrb	r4, [r0, #6]	@ zero_extendqisi2
 403 0024 002C     		cmp	r4, #0
 404 0026 00F08580 		beq	.L71
 405 002a C11D     		adds	r1, r0, #7
 406              	.LVL39:
 407              		.loc 1 806 0
 408 002c 0023     		movs	r3, #0
 409 002e 03E0     		b	.L52
 410              	.LVL40:
 411              	.L53:
 412              		.loc 1 807 0
 413 0030 11F8017B 		ldrb	r7, [r1], #1	@ zero_extendqisi2
 414 0034 87B3     		cbz	r7, .L72
 415 0036 2346     		mov	r3, r4
 416              	.LVL41:
 417              	.L52:
 418              		.loc 1 806 0 discriminator 2
 419 0038 5C1C     		adds	r4, r3, #1
 420              	.LVL42:
 421 003a 6445     		cmp	r4, ip
 422 003c F8D1     		bne	.L53
 423              	.LVL43:
 424              	.L64:
 425              		.loc 1 811 0
 426 003e 4FF0FF30 		mov	r0, #-1
 427              	.LVL44:
 428              		.loc 1 824 0
 429 0042 BDE8F081 		pop	{r4, r5, r6, r7, r8, pc}
 430              	.LVL45:
 431              	.L61:
 432              		.loc 1 822 0
 433 0046 0120     		movs	r0, #1
 434              	.LVL46:
 435              		.loc 1 824 0
 436 0048 BDE8F081 		pop	{r4, r5, r6, r7, r8, pc}
 437              	.LVL47:
 438              	.L42:
 439              		.loc 1 785 0
 440 004c C368     		ldr	r3, [r0, #12]
 441 004e B3B1     		cbz	r3, .L73
 442              	.L46:
 443              		.loc 1 791 0
 444 0050 D0F81CC0 		ldr	ip, [r0, #28]
 445              		.loc 1 789 0
 446 0054 42F00102 		orr	r2, r2, #1
 447              	.LVL48:
 448              		.loc 1 791 0
 449 0058 BCF1000F 		cmp	ip, #0
 450 005c EFD0     		beq	.L64
 451              		.loc 1 792 0
 452 005e 047D     		ldrb	r4, [r0, #20]	@ zero_extendqisi2
 453 0060 002C     		cmp	r4, #0
 454 0062 65D0     		beq	.L74
 455 0064 00F11501 		add	r1, r0, #21
 456              	.LVL49:
ARM GAS  /tmp/cchERvVK.s 			page 9


 457              		.loc 1 791 0
 458 0068 0023     		movs	r3, #0
 459 006a 04E0     		b	.L50
 460              	.LVL50:
 461              	.L51:
 462              		.loc 1 792 0
 463 006c 11F8017B 		ldrb	r7, [r1], #1	@ zero_extendqisi2
 464 0070 002F     		cmp	r7, #0
 465 0072 45D0     		beq	.L75
 466 0074 2346     		mov	r3, r4
 467              	.LVL51:
 468              	.L50:
 469              		.loc 1 791 0 discriminator 2
 470 0076 5C1C     		adds	r4, r3, #1
 471              	.LVL52:
 472 0078 A445     		cmp	ip, r4
 473 007a F7D1     		bne	.L51
 474 007c DFE7     		b	.L64
 475              	.LVL53:
 476              	.L73:
 477              		.loc 1 787 0
 478 007e 12F0020F 		tst	r2, #2
 479              		.loc 1 786 0
 480 0082 22F06042 		bic	r2, r2, #-536870912
 481              	.LVL54:
 482 0086 22F00302 		bic	r2, r2, #3
 483              	.LVL55:
 484              		.loc 1 787 0
 485 008a 0CBF     		ite	eq
 486 008c 4FF08043 		moveq	r3, #1073741824
 487 0090 4FF00043 		movne	r3, #-2147483648
 488 0094 1A43     		orrs	r2, r2, r3
 489              	.LVL56:
 490 0096 DBE7     		b	.L46
 491              	.LVL57:
 492              	.L72:
 493 0098 03F16063 		add	r3, r3, #234881024
 494 009c 03F20313 		addw	r3, r3, #259
 495 00a0 1901     		lsls	r1, r3, #4
 496 00a2 0F1D     		adds	r7, r1, #4
 497 00a4 01F10808 		add	r8, r1, #8
 498              	.LVL58:
 499              	.L45:
 500              		.loc 1 813 0
 501 00a8 2044     		add	r0, r0, r4
 502              	.LVL59:
 503 00aa 0123     		movs	r3, #1
 504 00ac 8371     		strb	r3, [r0, #6]
 505              		.loc 1 815 0
 506 00ae 3046     		mov	r0, r6
 507 00b0 FFF7FEFF 		bl	target_mem_write32
 508              	.LVL60:
 509 00b4 EB68     		ldr	r3, [r5, #12]
 510 00b6 013B     		subs	r3, r3, #1
 511 00b8 032B     		cmp	r3, #3
 512 00ba 1DD9     		bls	.L59
 513              		.loc 1 816 0
ARM GAS  /tmp/cchERvVK.s 			page 10


 514 00bc 4FF0FF32 		mov	r2, #-1
 515              	.L60:
 516              	.LVL61:
 517 00c0 3946     		mov	r1, r7
 518 00c2 3046     		mov	r0, r6
 519 00c4 FFF7FEFF 		bl	target_mem_write32
 520              	.LVL62:
 521              	.LBB58:
 522              	.LBB59:
 523              		.loc 1 762 0
 524 00c8 F26C     		ldr	r2, [r6, #76]
 525              	.LBE59:
 526              	.LBE58:
 527              		.loc 1 817 0
 528 00ca 2B79     		ldrb	r3, [r5, #4]	@ zero_extendqisi2
 529              	.LVL63:
 530              	.LBB62:
 531              	.LBB60:
 532              		.loc 1 760 0
 533 00cc 12F0010F 		tst	r2, #1
 534 00d0 0CBF     		ite	eq
 535 00d2 4FF40062 		moveq	r2, #2048
 536 00d6 0022     		movne	r2, #0
 537              	.LVL64:
 538              		.loc 1 765 0
 539 00d8 032B     		cmp	r3, #3
 540 00da 26D0     		beq	.L56
 541 00dc 042B     		cmp	r3, #4
 542 00de 21D0     		beq	.L57
 543 00e0 022B     		cmp	r3, #2
 544 00e2 1CD0     		beq	.L76
 545              		.loc 1 773 0
 546 00e4 4FF0FF32 		mov	r2, #-1
 547              	.LVL65:
 548              	.L55:
 549              	.LBE60:
 550              	.LBE62:
 551              		.loc 1 817 0
 552 00e8 3046     		mov	r0, r6
 553 00ea 4146     		mov	r1, r8
 554 00ec FFF7FEFF 		bl	target_mem_write32
 555              	.LVL66:
 556              		.loc 1 819 0
 557 00f0 2C61     		str	r4, [r5, #16]
 558              		.loc 1 820 0
 559 00f2 0020     		movs	r0, #0
 560              		.loc 1 824 0
 561 00f4 BDE8F081 		pop	{r4, r5, r6, r7, r8, pc}
 562              	.LVL67:
 563              	.L59:
 564 00f8 114A     		ldr	r2, .L77
 565 00fa 52F82320 		ldr	r2, [r2, r3, lsl #2]
 566 00fe DFE7     		b	.L60
 567              	.LVL68:
 568              	.L75:
 569 0100 03F16053 		add	r3, r3, #939524096
 570 0104 03F60303 		addw	r3, r3, #2051
ARM GAS  /tmp/cchERvVK.s 			page 11


 571 0108 9900     		lsls	r1, r3, #2
 572              	.LVL69:
 573              	.L49:
 574              		.loc 1 798 0
 575 010a 0319     		adds	r3, r0, r4
 576 010c 0127     		movs	r7, #1
 577              		.loc 1 799 0
 578 010e 3046     		mov	r0, r6
 579              	.LVL70:
 580              		.loc 1 798 0
 581 0110 1F75     		strb	r7, [r3, #20]
 582              		.loc 1 799 0
 583 0112 FFF7FEFF 		bl	target_mem_write32
 584              	.LVL71:
 585              		.loc 1 800 0
 586 0116 2C61     		str	r4, [r5, #16]
 587              		.loc 1 801 0
 588 0118 0020     		movs	r0, #0
 589              		.loc 1 824 0
 590 011a BDE8F081 		pop	{r4, r5, r6, r7, r8, pc}
 591              	.LVL72:
 592              	.L76:
 593              	.LBB63:
 594              	.LBB61:
 595              		.loc 1 767 0
 596 011e 42F00602 		orr	r2, r2, #6
 597              	.LVL73:
 598 0122 E1E7     		b	.L55
 599              	.LVL74:
 600              	.L57:
 601              		.loc 1 771 0
 602 0124 42F00702 		orr	r2, r2, #7
 603              	.LVL75:
 604 0128 DEE7     		b	.L55
 605              	.LVL76:
 606              	.L56:
 607              		.loc 1 769 0
 608 012a 42F00502 		orr	r2, r2, #5
 609              	.LVL77:
 610 012e DBE7     		b	.L55
 611              	.LVL78:
 612              	.L74:
 613              	.LBE61:
 614              	.LBE63:
 615              		.loc 1 792 0
 616 0130 0449     		ldr	r1, .L77+4
 617              	.LVL79:
 618 0132 EAE7     		b	.L49
 619              	.LVL80:
 620              	.L71:
 621              		.loc 1 807 0
 622 0134 DFF81880 		ldr	r8, .L77+16
 623 0138 034F     		ldr	r7, .L77+8
 624 013a 0449     		ldr	r1, .L77+12
 625              	.LVL81:
 626 013c B4E7     		b	.L45
 627              	.L78:
ARM GAS  /tmp/cchERvVK.s 			page 12


 628 013e 00BF     		.align	2
 629              	.L77:
 630 0140 00000000 		.word	.LANCHOR1
 631 0144 082000E0 		.word	-536862712
 632 0148 241000E0 		.word	-536866780
 633 014c 201000E0 		.word	-536866784
 634 0150 281000E0 		.word	-536866776
 635              		.cfi_endproc
 636              	.LFE286:
 637              		.size	cortexm_breakwatch_set, .-cortexm_breakwatch_set
 638              		.section	.text.cortexm_pc_read,"ax",%progbits
 639              		.align	1
 640              		.p2align 4,,15
 641              		.syntax unified
 642              		.thumb
 643              		.thumb_func
 644              		.fpu fpv4-sp-d16
 645              		.type	cortexm_pc_read, %function
 646              	cortexm_pc_read:
 647              	.LFB276:
 648              		.loc 1 493 0
 649              		.cfi_startproc
 650              		@ args = 0, pretend = 0, frame = 0
 651              		@ frame_needed = 0, uses_anonymous_args = 0
 652              	.LVL82:
 653 0000 10B5     		push	{r4, lr}
 654              		.cfi_def_cfa_offset 8
 655              		.cfi_offset 4, -8
 656              		.cfi_offset 14, -4
 657              		.loc 1 494 0
 658 0002 0549     		ldr	r1, .L81
 659              		.loc 1 493 0
 660 0004 0446     		mov	r4, r0
 661              		.loc 1 494 0
 662 0006 0F22     		movs	r2, #15
 663 0008 FFF7FEFF 		bl	target_mem_write32
 664              	.LVL83:
 665              		.loc 1 495 0
 666 000c 2046     		mov	r0, r4
 667 000e 0349     		ldr	r1, .L81+4
 668              		.loc 1 496 0
 669 0010 BDE81040 		pop	{r4, lr}
 670              		.cfi_restore 14
 671              		.cfi_restore 4
 672              		.cfi_def_cfa_offset 0
 673              	.LVL84:
 674              		.loc 1 495 0
 675 0014 FFF7FEBF 		b	target_mem_read32
 676              	.LVL85:
 677              	.L82:
 678              		.align	2
 679              	.L81:
 680 0018 F4ED00E0 		.word	-536809996
 681 001c F8ED00E0 		.word	-536809992
 682              		.cfi_endproc
 683              	.LFE276:
 684              		.size	cortexm_pc_read, .-cortexm_pc_read
ARM GAS  /tmp/cchERvVK.s 			page 13


 685              		.section	.text.cortexm_detach,"ax",%progbits
 686              		.align	1
 687              		.p2align 4,,15
 688              		.global	cortexm_detach
 689              		.syntax unified
 690              		.thumb
 691              		.thumb_func
 692              		.fpu fpv4-sp-d16
 693              		.type	cortexm_detach, %function
 694              	cortexm_detach:
 695              	.LFB272:
 696              		.loc 1 399 0
 697              		.cfi_startproc
 698              		@ args = 0, pretend = 0, frame = 0
 699              		@ frame_needed = 0, uses_anonymous_args = 0
 700              	.LVL86:
 701 0000 F8B5     		push	{r3, r4, r5, r6, r7, lr}
 702              		.cfi_def_cfa_offset 24
 703              		.cfi_offset 3, -24
 704              		.cfi_offset 4, -20
 705              		.cfi_offset 5, -16
 706              		.cfi_offset 6, -12
 707              		.cfi_offset 7, -8
 708              		.cfi_offset 14, -4
 709              		.loc 1 400 0
 710 0002 C76E     		ldr	r7, [r0, #108]
 711              	.LVL87:
 712              		.loc 1 404 0
 713 0004 FB69     		ldr	r3, [r7, #28]
 714              		.loc 1 399 0
 715 0006 0646     		mov	r6, r0
 716              		.loc 1 404 0
 717 0008 63B1     		cbz	r3, .L84
 718 000a 134D     		ldr	r5, .L97
 719 000c 0024     		movs	r4, #0
 720              	.LVL88:
 721              	.L85:
 722              		.loc 1 405 0 discriminator 3
 723 000e 2946     		mov	r1, r5
 724 0010 0022     		movs	r2, #0
 725 0012 3046     		mov	r0, r6
 726 0014 FFF7FEFF 		bl	target_mem_write32
 727              	.LVL89:
 728              		.loc 1 404 0 discriminator 3
 729 0018 FB69     		ldr	r3, [r7, #28]
 730 001a 0134     		adds	r4, r4, #1
 731              	.LVL90:
 732 001c A342     		cmp	r3, r4
 733 001e 05F10405 		add	r5, r5, #4
 734 0022 F4D8     		bhi	.L85
 735              	.LVL91:
 736              	.L84:
 737              		.loc 1 408 0
 738 0024 3B69     		ldr	r3, [r7, #16]
 739 0026 63B1     		cbz	r3, .L86
 740 0028 0C4D     		ldr	r5, .L97+4
 741 002a 0024     		movs	r4, #0
ARM GAS  /tmp/cchERvVK.s 			page 14


 742              	.LVL92:
 743              	.L87:
 744              		.loc 1 409 0 discriminator 3
 745 002c 2946     		mov	r1, r5
 746 002e 0022     		movs	r2, #0
 747 0030 3046     		mov	r0, r6
 748 0032 FFF7FEFF 		bl	target_mem_write32
 749              	.LVL93:
 750              		.loc 1 408 0 discriminator 3
 751 0036 3B69     		ldr	r3, [r7, #16]
 752 0038 0134     		adds	r4, r4, #1
 753              	.LVL94:
 754 003a A342     		cmp	r3, r4
 755 003c 05F11005 		add	r5, r5, #16
 756 0040 F4D8     		bhi	.L87
 757              	.LVL95:
 758              	.L86:
 759              		.loc 1 412 0
 760 0042 3046     		mov	r0, r6
 761 0044 0649     		ldr	r1, .L97+8
 762 0046 074A     		ldr	r2, .L97+12
 763 0048 FFF7FEFF 		bl	target_mem_write32
 764              	.LVL96:
 765              		.loc 1 414 0
 766 004c 3046     		mov	r0, r6
 767 004e 0021     		movs	r1, #0
 768              		.loc 1 415 0
 769 0050 BDE8F840 		pop	{r3, r4, r5, r6, r7, lr}
 770              		.cfi_restore 14
 771              		.cfi_restore 7
 772              		.cfi_restore 6
 773              		.cfi_restore 5
 774              		.cfi_restore 4
 775              		.cfi_restore 3
 776              		.cfi_def_cfa_offset 0
 777              	.LVL97:
 778              		.loc 1 414 0
 779 0054 FFF7FEBF 		b	target_mem_read32
 780              	.LVL98:
 781              	.L98:
 782              		.align	2
 783              	.L97:
 784 0058 082000E0 		.word	-536862712
 785 005c 281000E0 		.word	-536866776
 786 0060 F0ED00E0 		.word	-536810000
 787 0064 00005FA0 		.word	-1604386816
 788              		.cfi_endproc
 789              	.LFE272:
 790              		.size	cortexm_detach, .-cortexm_detach
 791              		.section	.text.cortexm_halt_request,"ax",%progbits
 792              		.align	1
 793              		.p2align 4,,15
 794              		.syntax unified
 795              		.thumb
 796              		.thumb_func
 797              		.fpu fpv4-sp-d16
 798              		.type	cortexm_halt_request, %function
ARM GAS  /tmp/cchERvVK.s 			page 15


 799              	cortexm_halt_request:
 800              	.LFB279:
 801              		.loc 1 541 0
 802              		.cfi_startproc
 803              		@ args = 0, pretend = 0, frame = 120
 804              		@ frame_needed = 0, uses_anonymous_args = 0
 805              	.LVL99:
 806 0000 70B5     		push	{r4, r5, r6, lr}
 807              		.cfi_def_cfa_offset 16
 808              		.cfi_offset 4, -16
 809              		.cfi_offset 5, -12
 810              		.cfi_offset 6, -8
 811              		.cfi_offset 14, -4
 812              		.loc 1 543 0
 813 0002 144B     		ldr	r3, .L107
 814              		.loc 1 541 0
 815 0004 9EB0     		sub	sp, sp, #120
 816              		.cfi_def_cfa_offset 136
 817              		.loc 1 543 0
 818 0006 0021     		movs	r1, #0
 819 0008 0391     		str	r1, [sp, #12]
 820 000a 1A68     		ldr	r2, [r3]
 821              		.loc 1 541 0
 822 000c 0190     		str	r0, [sp, #4]
 823              		.loc 1 543 0
 824 000e 03AC     		add	r4, sp, #12
 825 0010 0221     		movs	r1, #2
 826 0012 06A8     		add	r0, sp, #24
 827              	.LVL100:
 828 0014 0591     		str	r1, [sp, #20]
 829 0016 1C60     		str	r4, [r3]
 830 0018 1D92     		str	r2, [sp, #116]
 831 001a FFF7FEFF 		bl	setjmp
 832              	.LVL101:
 833 001e 80B9     		cbnz	r0, .L101
 834 0020 0C4C     		ldr	r4, .L107
 835 0022 2268     		ldr	r2, [r4]
 836 0024 03AB     		add	r3, sp, #12
 837 0026 9A42     		cmp	r2, r3
 838 0028 0BD1     		bne	.L101
 839              		.loc 1 544 0
 840 002a 0B4E     		ldr	r6, .L107+4
 841 002c 0B4D     		ldr	r5, .L107+8
 842              	.L102:
 843 002e 0198     		ldr	r0, [sp, #4]
 844 0030 3246     		mov	r2, r6
 845 0032 2946     		mov	r1, r5
 846 0034 FFF7FEFF 		bl	target_mem_write32
 847              	.LVL102:
 848              		.loc 1 543 0
 849 0038 1D9B     		ldr	r3, [sp, #116]
 850 003a 2360     		str	r3, [r4]
 851 003c 03AA     		add	r2, sp, #12
 852 003e 9342     		cmp	r3, r2
 853 0040 F5D0     		beq	.L102
 854              	.L101:
 855              		.loc 1 548 0
ARM GAS  /tmp/cchERvVK.s 			page 16


 856 0042 039B     		ldr	r3, [sp, #12]
 857 0044 1BB1     		cbz	r3, .L99
 858              		.loc 1 549 0
 859 0046 0198     		ldr	r0, [sp, #4]
 860 0048 0549     		ldr	r1, .L107+12
 861 004a FFF7FEFF 		bl	tc_printf
 862              	.LVL103:
 863              	.L99:
 864              		.loc 1 551 0
 865 004e 1EB0     		add	sp, sp, #120
 866              		.cfi_def_cfa_offset 16
 867              		@ sp needed
 868 0050 70BD     		pop	{r4, r5, r6, pc}
 869              	.LVL104:
 870              	.L108:
 871 0052 00BF     		.align	2
 872              	.L107:
 873 0054 00000000 		.word	innermost_exception
 874 0058 03005FA0 		.word	-1604386813
 875 005c F0ED00E0 		.word	-536810000
 876 0060 00000000 		.word	.LC15
 877              		.cfi_endproc
 878              	.LFE279:
 879              		.size	cortexm_halt_request, .-cortexm_halt_request
 880              		.section	.text.cortexm_halt_resume,"ax",%progbits
 881              		.align	1
 882              		.p2align 4,,15
 883              		.global	cortexm_halt_resume
 884              		.syntax unified
 885              		.thumb
 886              		.thumb_func
 887              		.fpu fpv4-sp-d16
 888              		.type	cortexm_halt_resume, %function
 889              	cortexm_halt_resume:
 890              	.LFB281:
 891              		.loc 1 617 0
 892              		.cfi_startproc
 893              		@ args = 0, pretend = 0, frame = 0
 894              		@ frame_needed = 0, uses_anonymous_args = 0
 895              	.LVL105:
 896 0000 F8B5     		push	{r3, r4, r5, r6, r7, lr}
 897              		.cfi_def_cfa_offset 24
 898              		.cfi_offset 3, -24
 899              		.cfi_offset 4, -20
 900              		.cfi_offset 5, -16
 901              		.cfi_offset 6, -12
 902              		.cfi_offset 7, -8
 903              		.cfi_offset 14, -4
 904              		.loc 1 618 0
 905 0002 C66E     		ldr	r6, [r0, #108]
 906              	.LVL106:
 907              		.loc 1 622 0
 908 0004 1C4C     		ldr	r4, .L122
 909 0006 1D4A     		ldr	r2, .L122+4
 910              		.loc 1 625 0
 911 0008 3379     		ldrb	r3, [r6, #4]	@ zero_extendqisi2
 912              		.loc 1 622 0
ARM GAS  /tmp/cchERvVK.s 			page 17


 913 000a 0029     		cmp	r1, #0
 914 000c 18BF     		it	ne
 915 000e 1446     		movne	r4, r2
 916              	.LVL107:
 917              		.loc 1 625 0
 918 0010 8B42     		cmp	r3, r1
 919              		.loc 1 617 0
 920 0012 0746     		mov	r7, r0
 921              		.loc 1 625 0
 922 0014 06D0     		beq	.L111
 923 0016 0D46     		mov	r5, r1
 924              		.loc 1 626 0
 925 0018 44F00202 		orr	r2, r4, #2
 926 001c 1849     		ldr	r1, .L122+8
 927              	.LVL108:
 928 001e FFF7FEFF 		bl	target_mem_write32
 929              	.LVL109:
 930              		.loc 1 627 0
 931 0022 3571     		strb	r5, [r6, #4]
 932              	.L111:
 933              		.loc 1 630 0
 934 0024 7379     		ldrb	r3, [r6, #5]	@ zero_extendqisi2
 935 0026 73B9     		cbnz	r3, .L121
 936              	.L113:
 937              		.loc 1 636 0
 938 0028 96F82430 		ldrb	r3, [r6, #36]	@ zero_extendqisi2
 939 002c 23B1     		cbz	r3, .L115
 940              		.loc 1 637 0
 941 002e 0022     		movs	r2, #0
 942 0030 1449     		ldr	r1, .L122+12
 943 0032 3846     		mov	r0, r7
 944 0034 FFF7FEFF 		bl	target_mem_write32
 945              	.LVL110:
 946              	.L115:
 947              		.loc 1 639 0
 948 0038 2246     		mov	r2, r4
 949 003a 3846     		mov	r0, r7
 950 003c 1049     		ldr	r1, .L122+8
 951              		.loc 1 640 0
 952 003e BDE8F840 		pop	{r3, r4, r5, r6, r7, lr}
 953              		.cfi_remember_state
 954              		.cfi_restore 14
 955              		.cfi_restore 7
 956              		.cfi_restore 6
 957              		.cfi_restore 5
 958              		.cfi_restore 4
 959              		.cfi_restore 3
 960              		.cfi_def_cfa_offset 0
 961              	.LVL111:
 962              		.loc 1 639 0
 963 0042 FFF7FEBF 		b	target_mem_write32
 964              	.LVL112:
 965              	.L121:
 966              		.cfi_restore_state
 967              	.LBB67:
 968              		.loc 1 631 0
 969 0046 3846     		mov	r0, r7
ARM GAS  /tmp/cchERvVK.s 			page 18


 970 0048 FFF7FEFF 		bl	cortexm_pc_read
 971              	.LVL113:
 972              		.loc 1 632 0
 973 004c 0146     		mov	r1, r0
 974              		.loc 1 631 0
 975 004e 0546     		mov	r5, r0
 976              	.LVL114:
 977              		.loc 1 632 0
 978 0050 3846     		mov	r0, r7
 979              	.LVL115:
 980 0052 FFF7FEFF 		bl	target_mem_read16
 981              	.LVL116:
 982 0056 00F47F40 		and	r0, r0, #65280
 983 005a B0F53E4F 		cmp	r0, #48640
 984 005e E3D1     		bne	.L113
 985              	.LVL117:
 986              	.LBB68:
 987              	.LBB69:
 988              		.loc 1 500 0
 989 0060 AA1C     		adds	r2, r5, #2
 990              	.LVL118:
 991 0062 3846     		mov	r0, r7
 992 0064 0849     		ldr	r1, .L122+16
 993 0066 FFF7FEFF 		bl	target_mem_write32
 994              	.LVL119:
 995              		.loc 1 501 0
 996 006a 084A     		ldr	r2, .L122+20
 997 006c 0849     		ldr	r1, .L122+24
 998 006e 3846     		mov	r0, r7
 999 0070 FFF7FEFF 		bl	target_mem_write32
 1000              	.LVL120:
 1001 0074 D8E7     		b	.L113
 1002              	.L123:
 1003 0076 00BF     		.align	2
 1004              	.L122:
 1005 0078 01005FA0 		.word	-1604386815
 1006 007c 0D005FA0 		.word	-1604386803
 1007 0080 F0ED00E0 		.word	-536810000
 1008 0084 50EF00E0 		.word	-536809648
 1009 0088 F8ED00E0 		.word	-536809992
 1010 008c 0F000100 		.word	65551
 1011 0090 F4ED00E0 		.word	-536809996
 1012              	.LBE69:
 1013              	.LBE68:
 1014              	.LBE67:
 1015              		.cfi_endproc
 1016              	.LFE281:
 1017              		.size	cortexm_halt_resume, .-cortexm_halt_resume
 1018              		.section	.text.cortexm_halt_poll,"ax",%progbits
 1019              		.align	1
 1020              		.p2align 4,,15
 1021              		.syntax unified
 1022              		.thumb
 1023              		.thumb_func
 1024              		.fpu fpv4-sp-d16
 1025              		.type	cortexm_halt_poll, %function
 1026              	cortexm_halt_poll:
ARM GAS  /tmp/cchERvVK.s 			page 19


 1027              	.LFB280:
 1028              		.loc 1 554 0
 1029              		.cfi_startproc
 1030              		@ args = 0, pretend = 0, frame = 208
 1031              		@ frame_needed = 1, uses_anonymous_args = 0
 1032              	.LVL121:
 1033 0000 2DE9F047 		push	{r4, r5, r6, r7, r8, r9, r10, lr}
 1034              		.cfi_def_cfa_offset 32
 1035              		.cfi_offset 4, -32
 1036              		.cfi_offset 5, -28
 1037              		.cfi_offset 6, -24
 1038              		.cfi_offset 7, -20
 1039              		.cfi_offset 8, -16
 1040              		.cfi_offset 9, -12
 1041              		.cfi_offset 10, -8
 1042              		.cfi_offset 14, -4
 1043 0004 B6B0     		sub	sp, sp, #216
 1044              		.cfi_def_cfa_offset 248
 1045              		.loc 1 559 0
 1046 0006 AF4B     		ldr	r3, .L196
 1047              		.loc 1 554 0
 1048 0008 02AF     		add	r7, sp, #8
 1049              		.cfi_def_cfa 7, 240
 1050              		.loc 1 554 0
 1051 000a 8446     		mov	ip, r0
 1052              		.loc 1 559 0
 1053 000c 07F16406 		add	r6, r7, #100
 1054 0010 1C68     		ldr	r4, [r3]
 1055              		.loc 1 554 0
 1056 0012 F860     		str	r0, [r7, #12]
 1057              		.loc 1 557 0
 1058 0014 0022     		movs	r2, #0
 1059              		.loc 1 559 0
 1060 0016 4FF0FF35 		mov	r5, #-1
 1061 001a 1E60     		str	r6, [r3]
 1062 001c 07F17000 		add	r0, r7, #112
 1063              	.LVL122:
 1064              		.loc 1 555 0
 1065 0020 DCF86C30 		ldr	r3, [ip, #108]
 1066              		.loc 1 557 0
 1067 0024 7A61     		str	r2, [r7, #20]
 1068              		.loc 1 554 0
 1069 0026 7960     		str	r1, [r7, #4]
 1070              		.loc 1 559 0
 1071 0028 7A66     		str	r2, [r7, #100]
 1072              		.loc 1 555 0
 1073 002a BB60     		str	r3, [r7, #8]
 1074              	.LVL123:
 1075              		.loc 1 559 0
 1076 002c FD66     		str	r5, [r7, #108]
 1077 002e C7F8CC40 		str	r4, [r7, #204]
 1078 0032 FFF7FEFF 		bl	setjmp
 1079              	.LVL124:
 1080 0036 80B9     		cbnz	r0, .L126
 1081 0038 A24D     		ldr	r5, .L196
 1082 003a 2C68     		ldr	r4, [r5]
 1083 003c 07F16403 		add	r3, r7, #100
ARM GAS  /tmp/cchERvVK.s 			page 20


 1084 0040 9C42     		cmp	r4, r3
 1085 0042 0AD1     		bne	.L126
 1086              		.loc 1 562 0
 1087 0044 A04E     		ldr	r6, .L196+4
 1088              	.L127:
 1089 0046 F868     		ldr	r0, [r7, #12]
 1090 0048 3146     		mov	r1, r6
 1091 004a FFF7FEFF 		bl	target_mem_read32
 1092              	.LVL125:
 1093 004e 7861     		str	r0, [r7, #20]
 1094              		.loc 1 559 0
 1095 0050 D7F8CC30 		ldr	r3, [r7, #204]
 1096 0054 2B60     		str	r3, [r5]
 1097 0056 A342     		cmp	r3, r4
 1098 0058 F5D0     		beq	.L127
 1099              	.L126:
 1100              		.loc 1 564 0
 1101 005a 7C6E     		ldr	r4, [r7, #100]
 1102 005c 012C     		cmp	r4, #1
 1103 005e 50D0     		beq	.L129
 1104 0060 022C     		cmp	r4, #2
 1105 0062 04D1     		bne	.L191
 1106              	.LVL126:
 1107              	.L175:
 1108              		.loc 1 571 0
 1109 0064 0020     		movs	r0, #0
 1110              	.L186:
 1111              		.loc 1 614 0
 1112 0066 D037     		adds	r7, r7, #208
 1113              		.cfi_remember_state
 1114              		.cfi_def_cfa_offset 32
 1115 0068 BD46     		mov	sp, r7
 1116              		.cfi_def_cfa_register 13
 1117              		@ sp needed
 1118 006a BDE8F087 		pop	{r4, r5, r6, r7, r8, r9, r10, pc}
 1119              	.LVL127:
 1120              	.L191:
 1121              		.cfi_restore_state
 1122              		.loc 1 574 0
 1123 006e 7B69     		ldr	r3, [r7, #20]
 1124 0070 9C03     		lsls	r4, r3, #14
 1125 0072 F7D5     		bpl	.L175
 1126              		.loc 1 578 0
 1127 0074 FE68     		ldr	r6, [r7, #12]
 1128 0076 954D     		ldr	r5, .L196+8
 1129 0078 3046     		mov	r0, r6
 1130 007a 2946     		mov	r1, r5
 1131 007c FFF7FEFF 		bl	target_mem_read32
 1132              	.LVL128:
 1133              		.loc 1 579 0
 1134 0080 2946     		mov	r1, r5
 1135              		.loc 1 578 0
 1136 0082 0446     		mov	r4, r0
 1137              	.LVL129:
 1138              		.loc 1 579 0
 1139 0084 0246     		mov	r2, r0
 1140 0086 3046     		mov	r0, r6
ARM GAS  /tmp/cchERvVK.s 			page 21


 1141              	.LVL130:
 1142 0088 FFF7FEFF 		bl	target_mem_write32
 1143              	.LVL131:
 1144              		.loc 1 581 0
 1145 008c 2007     		lsls	r0, r4, #28
 1146 008e 4BD4     		bmi	.L192
 1147              	.L133:
 1148              		.loc 1 585 0
 1149 0090 04F00203 		and	r3, r4, #2
 1150 0094 002B     		cmp	r3, #0
 1151 0096 BA68     		ldr	r2, [r7, #8]
 1152 0098 14BF     		ite	ne
 1153 009a 0123     		movne	r3, #1
 1154 009c 0023     		moveq	r3, #0
 1155 009e 5371     		strb	r3, [r2, #5]
 1156              		.loc 1 586 0
 1157 00a0 40F0AC80 		bne	.L193
 1158              		.loc 1 602 0
 1159 00a4 6307     		lsls	r3, r4, #29
 1160 00a6 33D5     		bpl	.L194
 1161              	.L165:
 1162              		.loc 1 603 0
 1163 00a8 7B68     		ldr	r3, [r7, #4]
 1164 00aa 002B     		cmp	r3, #0
 1165 00ac 3AD0     		beq	.L181
 1166              	.LVL132:
 1167              	.LBB79:
 1168              	.LBB80:
 1169              		.loc 1 848 0
 1170 00ae FB68     		ldr	r3, [r7, #12]
 1171 00b0 DE6E     		ldr	r6, [r3, #108]
 1172              	.LVL133:
 1173              		.loc 1 851 0
 1174 00b2 3369     		ldr	r3, [r6, #16]
 1175 00b4 002B     		cmp	r3, #0
 1176 00b6 00F0B280 		beq	.L172
 1177              		.loc 1 854 0
 1178 00ba DFF82482 		ldr	r8, .L196+28
 1179 00be B51D     		adds	r5, r6, #6
 1180              		.loc 1 851 0
 1181 00c0 0024     		movs	r4, #0
 1182              	.LVL134:
 1183 00c2 03E0     		b	.L169
 1184              	.LVL135:
 1185              	.L171:
 1186 00c4 3369     		ldr	r3, [r6, #16]
 1187 00c6 0134     		adds	r4, r4, #1
 1188              	.LVL136:
 1189 00c8 9C42     		cmp	r4, r3
 1190 00ca 0BD2     		bcs	.L170
 1191              	.LVL137:
 1192              	.L169:
 1193              		.loc 1 853 0
 1194 00cc 15F8013B 		ldrb	r3, [r5], #1	@ zero_extendqisi2
 1195 00d0 002B     		cmp	r3, #0
 1196 00d2 F7D0     		beq	.L171
 1197              		.loc 1 854 0
ARM GAS  /tmp/cchERvVK.s 			page 22


 1198 00d4 08EB0411 		add	r1, r8, r4, lsl #4
 1199 00d8 F868     		ldr	r0, [r7, #12]
 1200 00da FFF7FEFF 		bl	target_mem_read32
 1201              	.LVL138:
 1202              		.loc 1 853 0
 1203 00de C101     		lsls	r1, r0, #7
 1204 00e0 F0D5     		bpl	.L171
 1205 00e2 3369     		ldr	r3, [r6, #16]
 1206              	.L170:
 1207              		.loc 1 858 0
 1208 00e4 A342     		cmp	r3, r4
 1209 00e6 00F09A80 		beq	.L172
 1210              		.loc 1 861 0
 1211 00ea 04F16061 		add	r1, r4, #234881024
 1212 00ee 01F58171 		add	r1, r1, #258
 1213 00f2 0901     		lsls	r1, r1, #4
 1214 00f4 F868     		ldr	r0, [r7, #12]
 1215 00f6 FFF7FEFF 		bl	target_mem_read32
 1216              	.LVL139:
 1217              	.L167:
 1218              	.LBE80:
 1219              	.LBE79:
 1220              		.loc 1 604 0
 1221 00fa 7B68     		ldr	r3, [r7, #4]
 1222 00fc 1860     		str	r0, [r3]
 1223              		.loc 1 605 0
 1224 00fe 0520     		movs	r0, #5
 1225 0100 B1E7     		b	.L186
 1226              	.L129:
 1227              		.loc 1 567 0
 1228 0102 FFF7FEFF 		bl	target_list_free
 1229              	.LVL140:
 1230              		.loc 1 568 0
 1231 0106 2046     		mov	r0, r4
 1232              		.loc 1 614 0
 1233 0108 D037     		adds	r7, r7, #208
 1234              		.cfi_remember_state
 1235              		.cfi_def_cfa_offset 32
 1236 010a BD46     		mov	sp, r7
 1237              		.cfi_def_cfa_register 13
 1238              	.LVL141:
 1239              		@ sp needed
 1240 010c BDE8F087 		pop	{r4, r5, r6, r7, r8, r9, r10, pc}
 1241              	.LVL142:
 1242              	.L194:
 1243              		.cfi_restore_state
 1244              		.loc 1 610 0
 1245 0110 E207     		lsls	r2, r4, #31
 1246 0112 40F18280 		bpl	.L173
 1247              		.loc 1 611 0
 1248 0116 BB68     		ldr	r3, [r7, #8]
 1249 0118 1B79     		ldrb	r3, [r3, #4]	@ zero_extendqisi2
 1250 011a 002B     		cmp	r3, #0
 1251 011c 00F08180 		beq	.L163
 1252 0120 0320     		movs	r0, #3
 1253 0122 A0E7     		b	.L186
 1254              	.L181:
ARM GAS  /tmp/cchERvVK.s 			page 23


 1255              		.loc 1 605 0
 1256 0124 0520     		movs	r0, #5
 1257 0126 9EE7     		b	.L186
 1258              	.L192:
 1259              	.LVL143:
 1260              	.LBB82:
 1261              	.LBB83:
 1262              		.loc 1 644 0
 1263 0128 D7F80CA0 		ldr	r10, [r7, #12]
 1264 012c DFF8B481 		ldr	r8, .L196+32
 1265              		.loc 1 645 0
 1266 0130 674E     		ldr	r6, .L196+12
 1267              		.loc 1 644 0
 1268 0132 4146     		mov	r1, r8
 1269 0134 5046     		mov	r0, r10
 1270 0136 FFF7FEFF 		bl	target_mem_read32
 1271              	.LVL144:
 1272              		.loc 1 645 0
 1273 013a 3146     		mov	r1, r6
 1274              		.loc 1 644 0
 1275 013c 0546     		mov	r5, r0
 1276              	.LVL145:
 1277              		.loc 1 645 0
 1278 013e 5046     		mov	r0, r10
 1279              	.LVL146:
 1280 0140 FFF7FEFF 		bl	target_mem_read32
 1281              	.LVL147:
 1282              		.loc 1 646 0
 1283 0144 2A46     		mov	r2, r5
 1284              		.loc 1 645 0
 1285 0146 8146     		mov	r9, r0
 1286              	.LVL148:
 1287              		.loc 1 646 0
 1288 0148 4146     		mov	r1, r8
 1289 014a 5046     		mov	r0, r10
 1290              	.LVL149:
 1291 014c FFF7FEFF 		bl	target_mem_write32
 1292              	.LVL150:
 1293              		.loc 1 647 0
 1294 0150 3146     		mov	r1, r6
 1295 0152 4A46     		mov	r2, r9
 1296 0154 5046     		mov	r0, r10
 1297 0156 FFF7FEFF 		bl	target_mem_write32
 1298              	.LVL151:
 1299              		.loc 1 650 0
 1300 015a 6900     		lsls	r1, r5, #1
 1301 015c 02D4     		bmi	.L134
 1302 015e B9F1000F 		cmp	r9, #0
 1303 0162 95D0     		beq	.L133
 1304              	.L134:
 1305              	.LBB84:
 1306              		.loc 1 652 0
 1307 0164 F868     		ldr	r0, [r7, #12]
 1308 0166 C369     		ldr	r3, [r0, #28]
 1309 0168 23F00303 		bic	r3, r3, #3
 1310 016c 0A33     		adds	r3, r3, #10
 1311 016e 23F00703 		bic	r3, r3, #7
ARM GAS  /tmp/cchERvVK.s 			page 24


 1312              		.loc 1 650 0
 1313 0172 E846     		mov	r8, sp
 1314              	.LVL152:
 1315              		.loc 1 652 0
 1316 0174 ADEB030D 		sub	sp, sp, r3
 1317 0178 02AD     		add	r5, sp, #8
 1318              	.LVL153:
 1319              		.loc 1 656 0
 1320 017a 2946     		mov	r1, r5
 1321 017c FFF7FEFF 		bl	target_regs_read
 1322              	.LVL154:
 1323              		.loc 1 658 0
 1324 0180 AE6B     		ldr	r6, [r5, #56]
 1325              	.LVL155:
 1326              		.loc 1 663 0
 1327 0182 D7F80CA0 		ldr	r10, [r7, #12]
 1328              		.loc 1 662 0
 1329 0186 16F00409 		ands	r9, r6, #4
 1330              	.LVL156:
 1331 018a 14BF     		ite	ne
 1332 018c AA6C     		ldrne	r2, [r5, #72]
 1333 018e 6A6C     		ldreq	r2, [r5, #68]
 1334              	.LVL157:
 1335              		.loc 1 663 0
 1336 0190 2023     		movs	r3, #32
 1337 0192 07F14401 		add	r1, r7, #68
 1338 0196 5046     		mov	r0, r10
 1339 0198 FFF7FEFF 		bl	target_mem_read
 1340              	.LVL158:
 1341              		.loc 1 664 0
 1342 019c 5046     		mov	r0, r10
 1343 019e FFF7FEFF 		bl	target_check_error
 1344              	.LVL159:
 1345 01a2 0028     		cmp	r0, #0
 1346 01a4 3FD1     		bne	.L138
 1347              		.loc 1 666 0
 1348 01a6 BB6D     		ldr	r3, [r7, #88]
 1349              		.loc 1 671 0
 1350 01a8 3A6E     		ldr	r2, [r7, #96]
 1351              		.loc 1 666 0
 1352 01aa AB63     		str	r3, [r5, #56]
 1353              		.loc 1 670 0
 1354 01ac 16F01006 		ands	r6, r6, #16
 1355              	.LVL160:
 1356              		.loc 1 667 0
 1357 01b0 FB6D     		ldr	r3, [r7, #92]
 1358 01b2 EB63     		str	r3, [r5, #60]
 1359              		.loc 1 670 0
 1360 01b4 14BF     		ite	ne
 1361 01b6 2023     		movne	r3, #32
 1362 01b8 6823     		moveq	r3, #104
 1363              	.LVL161:
 1364              		.loc 1 671 0
 1365 01ba 9205     		lsls	r2, r2, #22
 1366              		.loc 1 672 0
 1367 01bc 48BF     		it	mi
 1368 01be 0433     		addmi	r3, r3, #4
ARM GAS  /tmp/cchERvVK.s 			page 25


 1369              	.LVL162:
 1370              		.loc 1 674 0
 1371 01c0 B9F1000F 		cmp	r9, #0
 1372 01c4 00F00981 		beq	.L141
 1373              		.loc 1 676 0
 1374 01c8 D5E91212 		ldrd	r1, r2, [r5, #72]
 1375 01cc 0B44     		add	r3, r3, r1
 1376              	.LVL163:
 1377              		.loc 1 675 0
 1378 01ce 42F08062 		orr	r2, r2, #67108864
 1379              		.loc 1 676 0
 1380 01d2 C5E91232 		strd	r3, r2, [r5, #72]
 1381 01d6 6B63     		str	r3, [r5, #52]
 1382              	.L142:
 1383              		.loc 1 681 0
 1384 01d8 1EB9     		cbnz	r6, .L143
 1385              		.loc 1 682 0
 1386 01da EB6C     		ldr	r3, [r5, #76]
 1387 01dc 43F00073 		orr	r3, r3, #33554432
 1388 01e0 EB64     		str	r3, [r5, #76]
 1389              	.L143:
 1390              		.loc 1 690 0
 1391 01e2 FC68     		ldr	r4, [r7, #12]
 1392              	.LVL164:
 1393 01e4 3B4A     		ldr	r2, .L196+16
 1394 01e6 3C49     		ldr	r1, .L196+20
 1395 01e8 2046     		mov	r0, r4
 1396 01ea FFF7FEFF 		bl	target_mem_write32
 1397              	.LVL165:
 1398              		.loc 1 694 0
 1399 01ee 2046     		mov	r0, r4
 1400 01f0 2946     		mov	r1, r5
 1401 01f2 FFF7FEFF 		bl	target_regs_write
 1402              	.LVL166:
 1403              	.LBE84:
 1404              	.LBE83:
 1405              	.LBE82:
 1406              		.loc 1 582 0
 1407 01f6 0620     		movs	r0, #6
 1408              	.LBB91:
 1409              	.LBB88:
 1410              	.LBB85:
 1411 01f8 C546     		mov	sp, r8
 1412              	.LVL167:
 1413 01fa 34E7     		b	.L186
 1414              	.LVL168:
 1415              	.L193:
 1416              	.LBE85:
 1417              	.LBE88:
 1418              	.LBE91:
 1419              	.LBB92:
 1420              		.loc 1 589 0
 1421 01fc FD68     		ldr	r5, [r7, #12]
 1422 01fe 2846     		mov	r0, r5
 1423 0200 FFF7FEFF 		bl	cortexm_pc_read
 1424              	.LVL169:
 1425              		.loc 1 591 0
ARM GAS  /tmp/cchERvVK.s 			page 26


 1426 0204 0146     		mov	r1, r0
 1427 0206 2846     		mov	r0, r5
 1428              	.LVL170:
 1429 0208 FFF7FEFF 		bl	target_mem_read16
 1430              	.LVL171:
 1431              		.loc 1 592 0
 1432 020c 4BF6AB63 		movw	r3, #48811
 1433 0210 9842     		cmp	r0, r3
 1434 0212 0AD0     		beq	.L195
 1435              	.LBE92:
 1436              		.loc 1 602 0
 1437 0214 6007     		lsls	r0, r4, #29
 1438              	.LVL172:
 1439 0216 3FF547AF 		bmi	.L165
 1440              	.L173:
 1441              		.loc 1 608 0
 1442 021a 0420     		movs	r0, #4
 1443 021c 23E7     		b	.L186
 1444              	.LVL173:
 1445              	.L172:
 1446              	.LBB102:
 1447              	.LBB81:
 1448              		.loc 1 859 0
 1449 021e 0020     		movs	r0, #0
 1450 0220 6BE7     		b	.L167
 1451              	.LVL174:
 1452              	.L163:
 1453              	.LBE81:
 1454              	.LBE102:
 1455              		.loc 1 611 0 discriminator 2
 1456 0222 0220     		movs	r0, #2
 1457 0224 1FE7     		b	.L186
 1458              	.LVL175:
 1459              	.L138:
 1460              	.LBB103:
 1461              	.LBB89:
 1462              	.LBB86:
 1463 0226 C546     		mov	sp, r8
 1464              	.LVL176:
 1465 0228 32E7     		b	.L133
 1466              	.LVL177:
 1467              	.L195:
 1468              	.LBE86:
 1469              	.LBE89:
 1470              	.LBE103:
 1471              	.LBB104:
 1472              	.LBB93:
 1473              	.LBB94:
 1474              		.loc 1 934 0
 1475 022a FC68     		ldr	r4, [r7, #12]
 1476              	.LVL178:
 1477 022c E369     		ldr	r3, [r4, #28]
 1478              		.loc 1 937 0
 1479 022e 6268     		ldr	r2, [r4, #4]
 1480              		.loc 1 934 0
 1481 0230 9B00     		lsls	r3, r3, #2
 1482 0232 0A33     		adds	r3, r3, #10
ARM GAS  /tmp/cchERvVK.s 			page 27


 1483 0234 23F00703 		bic	r3, r3, #7
 1484              		.loc 1 933 0
 1485 0238 6E46     		mov	r6, sp
 1486              	.LVL179:
 1487              		.loc 1 934 0
 1488 023a ADEB030D 		sub	sp, sp, r3
 1489 023e 02AD     		add	r5, sp, #8
 1490              	.LVL180:
 1491              		.loc 1 937 0
 1492 0240 0023     		movs	r3, #0
 1493              		.loc 1 934 0
 1494 0242 2046     		mov	r0, r4
 1495              	.LVL181:
 1496              		.loc 1 937 0
 1497 0244 82F83930 		strb	r3, [r2, #57]
 1498              		.loc 1 938 0
 1499 0248 2946     		mov	r1, r5
 1500 024a FFF7FEFF 		bl	target_regs_read
 1501              	.LVL182:
 1502              		.loc 1 939 0
 1503 024e 6A68     		ldr	r2, [r5, #4]
 1504 0250 1023     		movs	r3, #16
 1505 0252 07F11C01 		add	r1, r7, #28
 1506 0256 2046     		mov	r0, r4
 1507 0258 FFF7FEFF 		bl	target_mem_read
 1508              	.LVL183:
 1509              		.loc 1 943 0
 1510 025c B96A     		ldr	r1, [r7, #40]
 1511              		.loc 1 940 0
 1512 025e 2C68     		ldr	r4, [r5]
 1513              	.LVL184:
 1514              		.loc 1 943 0
 1515 0260 1E48     		ldr	r0, .L196+24
 1516 0262 D7E90723 		ldrd	r2, r3, [r7, #28]
 1517 0266 0191     		str	r1, [sp, #4]
 1518              	.LVL185:
 1519 0268 796A     		ldr	r1, [r7, #36]
 1520 026a 0091     		str	r1, [sp]
 1521 026c 2146     		mov	r1, r4
 1522              		.loc 1 945 0
 1523 026e 013C     		subs	r4, r4, #1
 1524              	.LVL186:
 1525              		.loc 1 943 0
 1526 0270 FFF7FEFF 		bl	commands_printf
 1527              	.LVL187:
 1528              		.loc 1 945 0
 1529 0274 122C     		cmp	r4, #18
 1530 0276 00F2B780 		bhi	.L178
 1531 027a DFE804F0 		tbb	[pc, r4]
 1532              	.L148:
 1533 027e 85       		.byte	(.L147-.L148)/2
 1534 027f 7F       		.byte	(.L149-.L148)/2
 1535 0280 78       		.byte	(.L150-.L148)/2
 1536 0281 B5       		.byte	(.L178-.L148)/2
 1537 0282 6E       		.byte	(.L151-.L148)/2
 1538 0283 62       		.byte	(.L152-.L148)/2
 1539 0284 B5       		.byte	(.L178-.L148)/2
ARM GAS  /tmp/cchERvVK.s 			page 28


 1540 0285 B5       		.byte	(.L178-.L148)/2
 1541 0286 5C       		.byte	(.L153-.L148)/2
 1542 0287 54       		.byte	(.L154-.L148)/2
 1543 0288 B5       		.byte	(.L178-.L148)/2
 1544 0289 4E       		.byte	(.L155-.L148)/2
 1545 028a B5       		.byte	(.L178-.L148)/2
 1546 028b 46       		.byte	(.L156-.L148)/2
 1547 028c 3A       		.byte	(.L157-.L148)/2
 1548 028d B5       		.byte	(.L178-.L148)/2
 1549 028e B5       		.byte	(.L178-.L148)/2
 1550 028f 0A       		.byte	(.L158-.L148)/2
 1551 0290 35       		.byte	(.L159-.L148)/2
 1552 0291 00       		.p2align 1
 1553              	.L158:
 1554              		.loc 1 1008 0
 1555 0292 D7E90712 		ldrd	r1, r2, [r7, #28]
 1556 0296 F868     		ldr	r0, [r7, #12]
 1557 0298 0132     		adds	r2, r2, #1
 1558 029a 0139     		subs	r1, r1, #1
 1559 029c FFF7FEFF 		bl	tc_system
 1560              	.LVL188:
 1561              	.L146:
 1562              		.loc 1 1025 0
 1563 02a0 FC68     		ldr	r4, [r7, #12]
 1564              		.loc 1 1024 0
 1565 02a2 2860     		str	r0, [r5]
 1566              		.loc 1 1025 0
 1567 02a4 2946     		mov	r1, r5
 1568 02a6 2046     		mov	r0, r4
 1569              	.LVL189:
 1570 02a8 FFF7FEFF 		bl	target_regs_write
 1571              	.LVL190:
 1572              		.loc 1 1027 0
 1573 02ac 6368     		ldr	r3, [r4, #4]
 1574 02ae 93F83930 		ldrb	r3, [r3, #57]	@ zero_extendqisi2
 1575 02b2 B546     		mov	sp, r6
 1576              	.LVL191:
 1577              	.LBE94:
 1578              	.LBE93:
 1579              		.loc 1 593 0
 1580 02b4 002B     		cmp	r3, #0
 1581 02b6 B4D1     		bne	.L163
 1582              		.loc 1 596 0
 1583 02b8 BB68     		ldr	r3, [r7, #8]
 1584 02ba 2046     		mov	r0, r4
 1585 02bc 1979     		ldrb	r1, [r3, #4]	@ zero_extendqisi2
 1586 02be FFF7FEFF 		bl	target_halt_resume
 1587              	.LVL192:
 1588 02c2 CFE6     		b	.L175
 1589              	.L197:
 1590              		.align	2
 1591              	.L196:
 1592 02c4 00000000 		.word	innermost_exception
 1593 02c8 F0ED00E0 		.word	-536810000
 1594 02cc 30ED00E0 		.word	-536810192
 1595 02d0 28ED00E0 		.word	-536810200
 1596 02d4 0200FA05 		.word	100270082
ARM GAS  /tmp/cchERvVK.s 			page 29


 1597 02d8 0CED00E0 		.word	-536810228
 1598 02dc 00000000 		.word	.LC16
 1599 02e0 281000E0 		.word	-536866776
 1600 02e4 2CED00E0 		.word	-536810196
 1601              	.LVL193:
 1602              	.L159:
 1603              	.LBB100:
 1604              	.LBB98:
 1605              		.loc 1 1016 0
 1606 02e8 FB68     		ldr	r3, [r7, #12]
 1607 02ea 5B68     		ldr	r3, [r3, #4]
 1608 02ec 93F83800 		ldrb	r0, [r3, #56]	@ zero_extendqisi2
 1609              	.LVL194:
 1610 02f0 D6E7     		b	.L146
 1611              	.LVL195:
 1612              	.L157:
 1613              		.loc 1 1002 0
 1614 02f2 BB6A     		ldr	r3, [r7, #40]
 1615              		.loc 1 1001 0
 1616 02f4 D7E90712 		ldrd	r1, r2, [r7, #28]
 1617              		.loc 1 1002 0
 1618 02f8 0133     		adds	r3, r3, #1
 1619              		.loc 1 1001 0
 1620 02fa 0093     		str	r3, [sp]
 1621 02fc 0132     		adds	r2, r2, #1
 1622 02fe 0139     		subs	r1, r1, #1
 1623 0300 7B6A     		ldr	r3, [r7, #36]
 1624 0302 F868     		ldr	r0, [r7, #12]
 1625 0304 FFF7FEFF 		bl	tc_rename
 1626              	.LVL196:
 1627 0308 CAE7     		b	.L146
 1628              	.L156:
 1629              		.loc 1 1005 0
 1630 030a D7E90712 		ldrd	r1, r2, [r7, #28]
 1631 030e F868     		ldr	r0, [r7, #12]
 1632 0310 0132     		adds	r2, r2, #1
 1633 0312 0139     		subs	r1, r1, #1
 1634 0314 FFF7FEFF 		bl	tc_unlink
 1635              	.LVL197:
 1636 0318 C2E7     		b	.L146
 1637              	.L155:
 1638              		.loc 1 1012 0
 1639 031a FB68     		ldr	r3, [r7, #12]
 1640 031c 5B68     		ldr	r3, [r3, #4]
 1641 031e 0020     		movs	r0, #0
 1642 0320 83F83800 		strb	r0, [r3, #56]
 1643 0324 BCE7     		b	.L146
 1644              	.L154:
 1645              		.loc 1 998 0
 1646 0326 D7E90712 		ldrd	r1, r2, [r7, #28]
 1647 032a 0023     		movs	r3, #0
 1648 032c 0139     		subs	r1, r1, #1
 1649 032e F868     		ldr	r0, [r7, #12]
 1650 0330 FFF7FEFF 		bl	tc_lseek
 1651              	.LVL198:
 1652 0334 B4E7     		b	.L146
 1653              	.L153:
ARM GAS  /tmp/cchERvVK.s 			page 30


 1654              		.loc 1 995 0
 1655 0336 F969     		ldr	r1, [r7, #28]
 1656 0338 F868     		ldr	r0, [r7, #12]
 1657 033a 0139     		subs	r1, r1, #1
 1658 033c FFF7FEFF 		bl	tc_isatty
 1659              	.LVL199:
 1660 0340 AEE7     		b	.L146
 1661              	.L152:
 1662              		.loc 1 982 0
 1663 0342 07F11C01 		add	r1, r7, #28
 1664 0346 0EC9     		ldm	r1, {r1, r2, r3}
 1665 0348 F868     		ldr	r0, [r7, #12]
 1666 034a 0139     		subs	r1, r1, #1
 1667 034c FFF7FEFF 		bl	tc_read
 1668              	.LVL200:
 1669              		.loc 1 983 0
 1670 0350 0028     		cmp	r0, #0
 1671 0352 A5DD     		ble	.L146
 1672              	.L190:
 1673              		.loc 1 989 0
 1674 0354 7B6A     		ldr	r3, [r7, #36]
 1675 0356 181A     		subs	r0, r3, r0
 1676              	.LVL201:
 1677 0358 A2E7     		b	.L146
 1678              	.LVL202:
 1679              	.L151:
 1680              		.loc 1 987 0
 1681 035a 07F11C01 		add	r1, r7, #28
 1682 035e 0EC9     		ldm	r1, {r1, r2, r3}
 1683 0360 F868     		ldr	r0, [r7, #12]
 1684 0362 0139     		subs	r1, r1, #1
 1685 0364 FFF7FEFF 		bl	tc_write
 1686              	.LVL203:
 1687              		.loc 1 988 0
 1688 0368 0028     		cmp	r0, #0
 1689 036a F3DC     		bgt	.L190
 1690 036c 98E7     		b	.L146
 1691              	.LVL204:
 1692              	.L150:
 1693              		.loc 1 992 0
 1694 036e 0123     		movs	r3, #1
 1695 0370 6A68     		ldr	r2, [r5, #4]
 1696 0372 F868     		ldr	r0, [r7, #12]
 1697 0374 0221     		movs	r1, #2
 1698 0376 FFF7FEFF 		bl	tc_write
 1699              	.LVL205:
 1700 037a 91E7     		b	.L146
 1701              	.L149:
 1702              		.loc 1 979 0
 1703 037c F969     		ldr	r1, [r7, #28]
 1704 037e F868     		ldr	r0, [r7, #12]
 1705 0380 0139     		subs	r1, r1, #1
 1706 0382 FFF7FEFF 		bl	tc_close
 1707              	.LVL206:
 1708 0386 8BE7     		b	.L146
 1709              	.L147:
 1710              	.LBB95:
ARM GAS  /tmp/cchERvVK.s 			page 31


 1711              		.loc 1 949 0
 1712 0388 DFF880E0 		ldr	lr, .L198+4
 1713              		.loc 1 957 0
 1714 038c 3C6A     		ldr	r4, [r7, #32]
 1715              	.LVL207:
 1716              		.loc 1 949 0
 1717 038e BEE80F00 		ldmia	lr!, {r0, r1, r2, r3}
 1718 0392 07F12C0C 		add	ip, r7, #44
 1719 0396 ACE80F00 		stmia	ip!, {r0, r1, r2, r3}
 1720 039a 9EE80300 		ldm	lr, {r0, r1}
 1721              		.loc 1 957 0
 1722 039e 6408     		lsrs	r4, r4, #1
 1723              		.loc 1 949 0
 1724 03a0 8CE80300 		stm	ip, {r0, r1}
 1725              		.loc 1 957 0
 1726 03a4 07F1D003 		add	r3, r7, #208
 1727 03a8 03EB8400 		add	r0, r3, r4, lsl #2
 1728              		.loc 1 960 0
 1729 03ac 07F11801 		add	r1, r7, #24
 1730              		.loc 1 957 0
 1731 03b0 50F8A44C 		ldr	r4, [r0, #-164]
 1732              	.LVL208:
 1733              		.loc 1 960 0
 1734 03b4 FA69     		ldr	r2, [r7, #28]
 1735 03b6 F868     		ldr	r0, [r7, #12]
 1736 03b8 0423     		movs	r3, #4
 1737 03ba FFF7FEFF 		bl	target_mem_read
 1738              	.LVL209:
 1739              		.loc 1 962 0
 1740 03be 07F11800 		add	r0, r7, #24
 1741 03c2 1149     		ldr	r1, .L198
 1742 03c4 FFF7FEFF 		bl	strcmp
 1743              	.LVL210:
 1744 03c8 80B9     		cbnz	r0, .L160
 1745              		.loc 1 963 0
 1746 03ca 5CB1     		cbz	r4, .L179
 1747              		.loc 1 966 0
 1748 03cc 14F4806F 		tst	r4, #1024
 1749 03d0 0CBF     		ite	eq
 1750 03d2 0220     		moveq	r0, #2
 1751 03d4 0120     		movne	r0, #1
 1752              	.LVL211:
 1753              	.L189:
 1754              		.loc 1 975 0
 1755 03d6 0130     		adds	r0, r0, #1
 1756              	.LVL212:
 1757 03d8 62E7     		b	.L146
 1758              	.LVL213:
 1759              	.L141:
 1760              	.LBE95:
 1761              	.LBE98:
 1762              	.LBE100:
 1763              	.LBE104:
 1764              	.LBB105:
 1765              	.LBB90:
 1766              	.LBB87:
 1767              		.loc 1 678 0
ARM GAS  /tmp/cchERvVK.s 			page 32


 1768 03da 6A6C     		ldr	r2, [r5, #68]
 1769 03dc 1344     		add	r3, r3, r2
 1770              	.LVL214:
 1771 03de 6B64     		str	r3, [r5, #68]
 1772 03e0 6B63     		str	r3, [r5, #52]
 1773 03e2 F9E6     		b	.L142
 1774              	.LVL215:
 1775              	.L179:
 1776              	.LBE87:
 1777              	.LBE90:
 1778              	.LBE105:
 1779              	.LBB106:
 1780              	.LBB101:
 1781              	.LBB99:
 1782              	.LBB96:
 1783              		.loc 1 964 0
 1784 03e4 2046     		mov	r0, r4
 1785              	.LVL216:
 1786 03e6 F6E7     		b	.L189
 1787              	.LVL217:
 1788              	.L178:
 1789              	.LBE96:
 1790              		.loc 1 941 0
 1791 03e8 0020     		movs	r0, #0
 1792 03ea 59E7     		b	.L146
 1793              	.LVL218:
 1794              	.L160:
 1795              	.LBB97:
 1796              		.loc 1 973 0
 1797 03ec 7A6A     		ldr	r2, [r7, #36]
 1798 03ee 4FF4D273 		mov	r3, #420
 1799 03f2 0093     		str	r3, [sp]
 1800 03f4 0132     		adds	r2, r2, #1
 1801 03f6 A3B2     		uxth	r3, r4
 1802 03f8 F969     		ldr	r1, [r7, #28]
 1803 03fa F868     		ldr	r0, [r7, #12]
 1804 03fc FFF7FEFF 		bl	tc_open
 1805              	.LVL219:
 1806              		.loc 1 974 0
 1807 0400 441C     		adds	r4, r0, #1
 1808              	.LVL220:
 1809 0402 E8D1     		bne	.L189
 1810 0404 4CE7     		b	.L146
 1811              	.L199:
 1812 0406 00BF     		.align	2
 1813              	.L198:
 1814 0408 24000000 		.word	.LC17
 1815 040c 2C000000 		.word	.LANCHOR0+44
 1816              	.LBE97:
 1817              	.LBE99:
 1818              	.LBE101:
 1819              	.LBE106:
 1820              		.cfi_endproc
 1821              	.LFE280:
 1822              		.size	cortexm_halt_poll, .-cortexm_halt_poll
 1823              		.section	.text.cortexm_reset,"ax",%progbits
 1824              		.align	1
ARM GAS  /tmp/cchERvVK.s 			page 33


 1825              		.p2align 4,,15
 1826              		.syntax unified
 1827              		.thumb
 1828              		.thumb_func
 1829              		.fpu fpv4-sp-d16
 1830              		.type	cortexm_reset, %function
 1831              	cortexm_reset:
 1832              	.LFB278:
 1833              		.loc 1 507 0
 1834              		.cfi_startproc
 1835              		@ args = 0, pretend = 0, frame = 0
 1836              		@ frame_needed = 0, uses_anonymous_args = 0
 1837              	.LVL221:
 1838 0000 38B5     		push	{r3, r4, r5, lr}
 1839              		.cfi_def_cfa_offset 16
 1840              		.cfi_offset 3, -16
 1841              		.cfi_offset 4, -12
 1842              		.cfi_offset 5, -8
 1843              		.cfi_offset 14, -4
 1844              		.loc 1 507 0
 1845 0002 0446     		mov	r4, r0
 1846              		.loc 1 508 0
 1847 0004 C06C     		ldr	r0, [r0, #76]
 1848              	.LVL222:
 1849 0006 10F00405 		ands	r5, r0, #4
 1850 000a 1DD0     		beq	.L209
 1851              	.L201:
 1852              		.loc 1 514 0
 1853 000c 1249     		ldr	r1, .L210
 1854 000e 2046     		mov	r0, r4
 1855 0010 FFF7FEFF 		bl	target_mem_read32
 1856              	.LVL223:
 1857              		.loc 1 520 0
 1858 0014 114A     		ldr	r2, .L210+4
 1859 0016 1249     		ldr	r1, .L210+8
 1860 0018 2046     		mov	r0, r4
 1861 001a FFF7FEFF 		bl	target_mem_write32
 1862              	.LVL224:
 1863              		.loc 1 524 0
 1864 001e 236B     		ldr	r3, [r4, #48]
 1865 0020 0BB1     		cbz	r3, .L202
 1866              		.loc 1 525 0
 1867 0022 2046     		mov	r0, r4
 1868 0024 9847     		blx	r3
 1869              	.LVL225:
 1870              	.L202:
 1871              		.loc 1 529 0 discriminator 1
 1872 0026 0C4D     		ldr	r5, .L210
 1873              	.L203:
 1874 0028 2946     		mov	r1, r5
 1875 002a 2046     		mov	r0, r4
 1876 002c FFF7FEFF 		bl	target_mem_read32
 1877              	.LVL226:
 1878 0030 8301     		lsls	r3, r0, #6
 1879 0032 F9D4     		bmi	.L203
 1880              		.loc 1 532 0
 1881 0034 2046     		mov	r0, r4
ARM GAS  /tmp/cchERvVK.s 			page 34


 1882 0036 1F22     		movs	r2, #31
 1883 0038 0A49     		ldr	r1, .L210+12
 1884 003a FFF7FEFF 		bl	target_mem_write32
 1885              	.LVL227:
 1886              		.loc 1 537 0
 1887 003e 0120     		movs	r0, #1
 1888              		.loc 1 538 0
 1889 0040 BDE83840 		pop	{r3, r4, r5, lr}
 1890              		.cfi_remember_state
 1891              		.cfi_restore 14
 1892              		.cfi_restore 5
 1893              		.cfi_restore 4
 1894              		.cfi_restore 3
 1895              		.cfi_def_cfa_offset 0
 1896              	.LVL228:
 1897              		.loc 1 537 0
 1898 0044 FFF7FEBF 		b	platform_delay
 1899              	.LVL229:
 1900              	.L209:
 1901              		.cfi_restore_state
 1902              		.loc 1 509 0
 1903 0048 0120     		movs	r0, #1
 1904 004a FFF7FEFF 		bl	platform_srst_set_val
 1905              	.LVL230:
 1906              		.loc 1 510 0
 1907 004e 2846     		mov	r0, r5
 1908 0050 FFF7FEFF 		bl	platform_srst_set_val
 1909              	.LVL231:
 1910 0054 DAE7     		b	.L201
 1911              	.L211:
 1912 0056 00BF     		.align	2
 1913              	.L210:
 1914 0058 F0ED00E0 		.word	-536810000
 1915 005c 0400FA05 		.word	100270084
 1916 0060 0CED00E0 		.word	-536810228
 1917 0064 30ED00E0 		.word	-536810192
 1918              		.cfi_endproc
 1919              	.LFE278:
 1920              		.size	cortexm_reset, .-cortexm_reset
 1921              		.section	.text.cortexm_regs_write,"ax",%progbits
 1922              		.align	1
 1923              		.p2align 4,,15
 1924              		.syntax unified
 1925              		.thumb
 1926              		.thumb_func
 1927              		.fpu fpv4-sp-d16
 1928              		.type	cortexm_regs_write, %function
 1929              	cortexm_regs_write:
 1930              	.LFB274:
 1931              		.loc 1 451 0
 1932              		.cfi_startproc
 1933              		@ args = 0, pretend = 0, frame = 0
 1934              		@ frame_needed = 0, uses_anonymous_args = 0
 1935              	.LVL232:
 1936 0000 2DE9F84F 		push	{r3, r4, r5, r6, r7, r8, r9, r10, fp, lr}
 1937              		.cfi_def_cfa_offset 40
 1938              		.cfi_offset 3, -40
ARM GAS  /tmp/cchERvVK.s 			page 35


 1939              		.cfi_offset 4, -36
 1940              		.cfi_offset 5, -32
 1941              		.cfi_offset 6, -28
 1942              		.cfi_offset 7, -24
 1943              		.cfi_offset 8, -20
 1944              		.cfi_offset 9, -16
 1945              		.cfi_offset 10, -12
 1946              		.cfi_offset 11, -8
 1947              		.cfi_offset 14, -4
 1948              	.LBB107:
 1949              	.LBB108:
 1950              		.loc 1 193 0
 1951 0004 C36E     		ldr	r3, [r0, #108]
 1952 0006 2E4F     		ldr	r7, .L223
 1953 0008 1D68     		ldr	r5, [r3]
 1954              	.LBE108:
 1955              	.LBE107:
 1956              		.loc 1 457 0
 1957 000a AA69     		ldr	r2, [r5, #24]
 1958              		.loc 1 451 0
 1959 000c 8946     		mov	r9, r1
 1960              		.loc 1 457 0
 1961 000e 42F00202 		orr	r2, r2, #2
 1962 0012 4FF48071 		mov	r1, #256
 1963              	.LVL233:
 1964              		.loc 1 451 0
 1965 0016 8246     		mov	r10, r0
 1966              	.LVL234:
 1967              		.loc 1 457 0
 1968 0018 2846     		mov	r0, r5
 1969              	.LVL235:
 1970 001a FFF7FEFF 		bl	adiv5_ap_write
 1971              	.LVL236:
 1972              		.loc 1 461 0
 1973 001e 6868     		ldr	r0, [r5, #4]
 1974              	.LVL237:
 1975              	.LBB109:
 1976              	.LBB110:
 1977              		.loc 2 153 0
 1978 0020 284B     		ldr	r3, .L223+4
 1979 0022 8469     		ldr	r4, [r0, #24]
 1980              	.LBE110:
 1981              	.LBE109:
 1982              		.loc 1 465 0
 1983 0024 C846     		mov	r8, r9
 1984              	.LBB112:
 1985              	.LBB111:
 1986              		.loc 2 153 0
 1987 0026 4FF48272 		mov	r2, #260
 1988 002a 0021     		movs	r1, #0
 1989 002c A047     		blx	r4
 1990              	.LVL238:
 1991              	.LBE111:
 1992              	.LBE112:
 1993              		.loc 1 465 0
 1994 002e 2846     		mov	r0, r5
 1995 0030 58F8502B 		ldr	r2, [r8], #80
ARM GAS  /tmp/cchERvVK.s 			page 36


 1996 0034 4FF48C71 		mov	r1, #280
 1997 0038 FFF7FEFF 		bl	adiv5_ap_write
 1998              	.LVL239:
 1999              		.loc 1 466 0
 2000 003c 6868     		ldr	r0, [r5, #4]
 2001              	.LBB113:
 2002              	.LBB114:
 2003              		.loc 2 153 0
 2004 003e 4FF48033 		mov	r3, #65536
 2005 0042 8469     		ldr	r4, [r0, #24]
 2006 0044 4FF48A72 		mov	r2, #276
 2007 0048 0021     		movs	r1, #0
 2008 004a A047     		blx	r4
 2009              	.LVL240:
 2010 004c 0126     		movs	r6, #1
 2011              	.LBE114:
 2012              	.LBE113:
 2013              		.loc 1 465 0
 2014 004e 09F10404 		add	r4, r9, #4
 2015              	.LVL241:
 2016 0052 01E0     		b	.L214
 2017              	.LVL242:
 2018              	.L221:
 2019 0054 57F8046F 		ldr	r6, [r7, #4]!
 2020              	.L214:
 2021              		.loc 1 469 0 discriminator 3
 2022 0058 6868     		ldr	r0, [r5, #4]
 2023              	.LVL243:
 2024              	.LBB115:
 2025              	.LBB116:
 2026              		.loc 2 153 0 discriminator 3
 2027 005a 54F8043B 		ldr	r3, [r4], #4
 2028              	.LVL244:
 2029 005e D0F818B0 		ldr	fp, [r0, #24]
 2030 0062 4FF48C72 		mov	r2, #280
 2031 0066 0021     		movs	r1, #0
 2032 0068 D847     		blx	fp
 2033              	.LVL245:
 2034              	.LBE116:
 2035              	.LBE115:
 2036              		.loc 1 471 0 discriminator 3
 2037 006a 6868     		ldr	r0, [r5, #4]
 2038              	.LVL246:
 2039              	.LBB117:
 2040              	.LBB118:
 2041              		.loc 2 153 0 discriminator 3
 2042 006c 46F48033 		orr	r3, r6, #65536
 2043              	.LVL247:
 2044 0070 4FF48A72 		mov	r2, #276
 2045 0074 8669     		ldr	r6, [r0, #24]
 2046 0076 0021     		movs	r1, #0
 2047 0078 B047     		blx	r6
 2048              	.LVL248:
 2049              	.LBE118:
 2050              	.LBE117:
 2051              		.loc 1 468 0 discriminator 3
 2052 007a 4445     		cmp	r4, r8
ARM GAS  /tmp/cchERvVK.s 			page 37


 2053 007c EAD1     		bne	.L221
 2054              		.loc 1 474 0
 2055 007e DAF84C30 		ldr	r3, [r10, #76]
 2056 0082 9B07     		lsls	r3, r3, #30
 2057 0084 19D5     		bpl	.L212
 2058 0086 104F     		ldr	r7, .L223+8
 2059 0088 09F1D409 		add	r9, r9, #212
 2060              	.LVL249:
 2061 008c 2126     		movs	r6, #33
 2062 008e 01E0     		b	.L216
 2063              	.L222:
 2064 0090 57F8046F 		ldr	r6, [r7, #4]!
 2065              	.L216:
 2066              		.loc 1 476 0 discriminator 3
 2067 0094 6868     		ldr	r0, [r5, #4]
 2068              	.LVL250:
 2069              	.LBB119:
 2070              	.LBB120:
 2071              		.loc 2 153 0 discriminator 3
 2072 0096 54F8043B 		ldr	r3, [r4], #4
 2073              	.LVL251:
 2074 009a D0F81880 		ldr	r8, [r0, #24]
 2075 009e 4FF48C72 		mov	r2, #280
 2076 00a2 0021     		movs	r1, #0
 2077 00a4 C047     		blx	r8
 2078              	.LVL252:
 2079              	.LBE120:
 2080              	.LBE119:
 2081              		.loc 1 478 0 discriminator 3
 2082 00a6 6868     		ldr	r0, [r5, #4]
 2083              	.LVL253:
 2084              	.LBB121:
 2085              	.LBB122:
 2086              		.loc 2 153 0 discriminator 3
 2087 00a8 46F48033 		orr	r3, r6, #65536
 2088              	.LVL254:
 2089 00ac 4FF48A72 		mov	r2, #276
 2090 00b0 8669     		ldr	r6, [r0, #24]
 2091 00b2 0021     		movs	r1, #0
 2092 00b4 B047     		blx	r6
 2093              	.LVL255:
 2094              	.LBE122:
 2095              	.LBE121:
 2096              		.loc 1 475 0 discriminator 3
 2097 00b6 A145     		cmp	r9, r4
 2098 00b8 EAD1     		bne	.L222
 2099              	.LVL256:
 2100              	.L212:
 2101              		.loc 1 482 0
 2102 00ba BDE8F88F 		pop	{r3, r4, r5, r6, r7, r8, r9, r10, fp, pc}
 2103              	.LVL257:
 2104              	.L224:
 2105 00be 00BF     		.align	2
 2106              	.L223:
 2107 00c0 04000000 		.word	.LANCHOR2+4
 2108 00c4 F0ED00E0 		.word	-536810000
 2109 00c8 00000000 		.word	.LANCHOR3
ARM GAS  /tmp/cchERvVK.s 			page 38


 2110              		.cfi_endproc
 2111              	.LFE274:
 2112              		.size	cortexm_regs_write, .-cortexm_regs_write
 2113              		.section	.text.cortexm_regs_read,"ax",%progbits
 2114              		.align	1
 2115              		.p2align 4,,15
 2116              		.syntax unified
 2117              		.thumb
 2118              		.thumb_func
 2119              		.fpu fpv4-sp-d16
 2120              		.type	cortexm_regs_read, %function
 2121              	cortexm_regs_read:
 2122              	.LFB273:
 2123              		.loc 1 420 0
 2124              		.cfi_startproc
 2125              		@ args = 0, pretend = 0, frame = 0
 2126              		@ frame_needed = 0, uses_anonymous_args = 0
 2127              	.LVL258:
 2128              	.LBB123:
 2129              	.LBB124:
 2130              		.loc 1 193 0
 2131 0000 C36E     		ldr	r3, [r0, #108]
 2132              	.LBE124:
 2133              	.LBE123:
 2134              		.loc 1 420 0
 2135 0002 2DE9F047 		push	{r4, r5, r6, r7, r8, r9, r10, lr}
 2136              		.cfi_def_cfa_offset 32
 2137              		.cfi_offset 4, -32
 2138              		.cfi_offset 5, -28
 2139              		.cfi_offset 6, -24
 2140              		.cfi_offset 7, -20
 2141              		.cfi_offset 8, -16
 2142              		.cfi_offset 9, -12
 2143              		.cfi_offset 10, -8
 2144              		.cfi_offset 14, -4
 2145              	.LBB126:
 2146              	.LBB125:
 2147              		.loc 1 193 0
 2148 0006 1D68     		ldr	r5, [r3]
 2149 0008 284E     		ldr	r6, .L236
 2150              	.LBE125:
 2151              	.LBE126:
 2152              		.loc 1 426 0
 2153 000a AA69     		ldr	r2, [r5, #24]
 2154              		.loc 1 420 0
 2155 000c 8846     		mov	r8, r1
 2156              		.loc 1 426 0
 2157 000e 42F00202 		orr	r2, r2, #2
 2158 0012 4FF48071 		mov	r1, #256
 2159              	.LVL259:
 2160              		.loc 1 420 0
 2161 0016 8146     		mov	r9, r0
 2162              	.LVL260:
 2163              		.loc 1 426 0
 2164 0018 2846     		mov	r0, r5
 2165              	.LVL261:
 2166 001a FFF7FEFF 		bl	adiv5_ap_write
ARM GAS  /tmp/cchERvVK.s 			page 39


 2167              	.LVL262:
 2168              		.loc 1 430 0
 2169 001e 6868     		ldr	r0, [r5, #4]
 2170              	.LVL263:
 2171              	.LBB127:
 2172              	.LBB128:
 2173              		.loc 2 153 0
 2174 0020 234B     		ldr	r3, .L236+4
 2175 0022 8469     		ldr	r4, [r0, #24]
 2176 0024 4FF48272 		mov	r2, #260
 2177 0028 0021     		movs	r1, #0
 2178 002a A047     		blx	r4
 2179              	.LVL264:
 2180              	.LBE128:
 2181              	.LBE127:
 2182              		.loc 1 434 0
 2183 002c 2846     		mov	r0, r5
 2184 002e 0022     		movs	r2, #0
 2185 0030 4FF48A71 		mov	r1, #276
 2186 0034 FFF7FEFF 		bl	adiv5_ap_write
 2187              	.LVL265:
 2188              		.loc 1 435 0
 2189 0038 6868     		ldr	r0, [r5, #4]
 2190              	.LBB129:
 2191              	.LBB130:
 2192              		.loc 2 142 0
 2193 003a 4FF48C71 		mov	r1, #280
 2194 003e 0369     		ldr	r3, [r0, #16]
 2195 0040 9847     		blx	r3
 2196              	.LVL266:
 2197              	.LBE130:
 2198              	.LBE129:
 2199              		.loc 1 435 0
 2200 0042 4746     		mov	r7, r8
 2201 0044 08F10404 		add	r4, r8, #4
 2202              	.LVL267:
 2203 0048 47F8500B 		str	r0, [r7], #80
 2204              	.LVL268:
 2205 004c 0123     		movs	r3, #1
 2206 004e 01E0     		b	.L227
 2207              	.LVL269:
 2208              	.L234:
 2209 0050 56F8043F 		ldr	r3, [r6, #4]!
 2210              	.L227:
 2211              		.loc 1 437 0 discriminator 3
 2212 0054 6868     		ldr	r0, [r5, #4]
 2213              	.LVL270:
 2214              	.LBB131:
 2215              	.LBB132:
 2216              		.loc 2 153 0 discriminator 3
 2217 0056 4FF48A72 		mov	r2, #276
 2218 005a 0021     		movs	r1, #0
 2219 005c D0F818A0 		ldr	r10, [r0, #24]
 2220 0060 D047     		blx	r10
 2221              	.LVL271:
 2222              	.LBE132:
 2223              	.LBE131:
ARM GAS  /tmp/cchERvVK.s 			page 40


 2224              		.loc 1 439 0 discriminator 3
 2225 0062 6868     		ldr	r0, [r5, #4]
 2226              	.LVL272:
 2227              	.LBB133:
 2228              	.LBB134:
 2229              		.loc 2 142 0 discriminator 3
 2230 0064 4FF48C71 		mov	r1, #280
 2231 0068 0369     		ldr	r3, [r0, #16]
 2232 006a 9847     		blx	r3
 2233              	.LVL273:
 2234              	.LBE134:
 2235              	.LBE133:
 2236              		.loc 1 439 0 discriminator 3
 2237 006c 44F8040B 		str	r0, [r4], #4
 2238              	.LVL274:
 2239              		.loc 1 436 0 discriminator 3
 2240 0070 BC42     		cmp	r4, r7
 2241 0072 EDD1     		bne	.L234
 2242              		.loc 1 441 0
 2243 0074 D9F84C30 		ldr	r3, [r9, #76]
 2244 0078 9B07     		lsls	r3, r3, #30
 2245 007a 15D5     		bpl	.L225
 2246 007c 0D4E     		ldr	r6, .L236+8
 2247 007e 08F1D408 		add	r8, r8, #212
 2248              	.LVL275:
 2249 0082 2123     		movs	r3, #33
 2250 0084 01E0     		b	.L229
 2251              	.L235:
 2252 0086 56F8043F 		ldr	r3, [r6, #4]!
 2253              	.L229:
 2254              		.loc 1 443 0 discriminator 3
 2255 008a 6868     		ldr	r0, [r5, #4]
 2256              	.LVL276:
 2257              	.LBB135:
 2258              	.LBB136:
 2259              		.loc 2 153 0 discriminator 3
 2260 008c 4FF48A72 		mov	r2, #276
 2261 0090 0021     		movs	r1, #0
 2262 0092 8769     		ldr	r7, [r0, #24]
 2263 0094 B847     		blx	r7
 2264              	.LVL277:
 2265              	.LBE136:
 2266              	.LBE135:
 2267              		.loc 1 446 0 discriminator 3
 2268 0096 6868     		ldr	r0, [r5, #4]
 2269              	.LVL278:
 2270              	.LBB137:
 2271              	.LBB138:
 2272              		.loc 2 142 0 discriminator 3
 2273 0098 4FF48C71 		mov	r1, #280
 2274 009c 0369     		ldr	r3, [r0, #16]
 2275 009e 9847     		blx	r3
 2276              	.LVL279:
 2277              	.LBE138:
 2278              	.LBE137:
 2279              		.loc 1 446 0 discriminator 3
 2280 00a0 44F8040B 		str	r0, [r4], #4
ARM GAS  /tmp/cchERvVK.s 			page 41


 2281              	.LVL280:
 2282              		.loc 1 442 0 discriminator 3
 2283 00a4 A045     		cmp	r8, r4
 2284 00a6 EED1     		bne	.L235
 2285              	.LVL281:
 2286              	.L225:
 2287              		.loc 1 448 0
 2288 00a8 BDE8F087 		pop	{r4, r5, r6, r7, r8, r9, r10, pc}
 2289              	.LVL282:
 2290              	.L237:
 2291              		.align	2
 2292              	.L236:
 2293 00ac 04000000 		.word	.LANCHOR2+4
 2294 00b0 F0ED00E0 		.word	-536810000
 2295 00b4 00000000 		.word	.LANCHOR3
 2296              		.cfi_endproc
 2297              	.LFE273:
 2298              		.size	cortexm_regs_read, .-cortexm_regs_read
 2299              		.section	.text.cortexm_priv_free,"ax",%progbits
 2300              		.align	1
 2301              		.p2align 4,,15
 2302              		.syntax unified
 2303              		.thumb
 2304              		.thumb_func
 2305              		.fpu fpv4-sp-d16
 2306              		.type	cortexm_priv_free, %function
 2307              	cortexm_priv_free:
 2308              	.LFB268:
 2309              		.loc 1 240 0
 2310              		.cfi_startproc
 2311              		@ args = 0, pretend = 0, frame = 0
 2312              		@ frame_needed = 0, uses_anonymous_args = 0
 2313              	.LVL283:
 2314 0000 10B5     		push	{r4, lr}
 2315              		.cfi_def_cfa_offset 8
 2316              		.cfi_offset 4, -8
 2317              		.cfi_offset 14, -4
 2318              		.loc 1 240 0
 2319 0002 0446     		mov	r4, r0
 2320              		.loc 1 241 0
 2321 0004 0068     		ldr	r0, [r0]
 2322              	.LVL284:
 2323 0006 FFF7FEFF 		bl	adiv5_ap_unref
 2324              	.LVL285:
 2325              		.loc 1 242 0
 2326 000a 2046     		mov	r0, r4
 2327              		.loc 1 243 0
 2328 000c BDE81040 		pop	{r4, lr}
 2329              		.cfi_restore 14
 2330              		.cfi_restore 4
 2331              		.cfi_def_cfa_offset 0
 2332              	.LVL286:
 2333              		.loc 1 242 0
 2334 0010 FFF7FEBF 		b	free
 2335              	.LVL287:
 2336              		.cfi_endproc
 2337              	.LFE268:
ARM GAS  /tmp/cchERvVK.s 			page 42


 2338              		.size	cortexm_priv_free, .-cortexm_priv_free
 2339              		.section	.text.cortexm_forced_halt,"ax",%progbits
 2340              		.align	1
 2341              		.p2align 4,,15
 2342              		.syntax unified
 2343              		.thumb
 2344              		.thumb_func
 2345              		.fpu fpv4-sp-d16
 2346              		.type	cortexm_forced_halt, %function
 2347              	cortexm_forced_halt:
 2348              	.LFB269:
 2349              		.loc 1 246 0
 2350              		.cfi_startproc
 2351              		@ args = 0, pretend = 0, frame = 0
 2352              		@ frame_needed = 0, uses_anonymous_args = 0
 2353              	.LVL288:
 2354 0000 F8B5     		push	{r3, r4, r5, r6, r7, lr}
 2355              		.cfi_def_cfa_offset 24
 2356              		.cfi_offset 3, -24
 2357              		.cfi_offset 4, -20
 2358              		.cfi_offset 5, -16
 2359              		.cfi_offset 6, -12
 2360              		.cfi_offset 7, -8
 2361              		.cfi_offset 14, -4
 2362              		.loc 1 246 0
 2363 0002 0446     		mov	r4, r0
 2364              		.loc 1 247 0
 2365 0004 FFF7FEFF 		bl	target_halt_request
 2366              	.LVL289:
 2367              		.loc 1 248 0
 2368 0008 0020     		movs	r0, #0
 2369 000a FFF7FEFF 		bl	platform_srst_set_val
 2370              	.LVL290:
 2371              		.loc 1 250 0
 2372 000e FFF7FEFF 		bl	platform_time_ms
 2373              	.LVL291:
 2374 0012 0C4F     		ldr	r7, .L246
 2375              		.loc 1 254 0
 2376 0014 0C4E     		ldr	r6, .L246+4
 2377              		.loc 1 250 0
 2378 0016 0546     		mov	r5, r0
 2379              	.LVL292:
 2380              		.loc 1 253 0
 2381 0018 07E0     		b	.L241
 2382              	.LVL293:
 2383              	.L243:
 2384              		.loc 1 254 0
 2385 001a FFF7FEFF 		bl	target_mem_read32
 2386              	.LVL294:
 2387              		.loc 1 255 0
 2388 001e B0F1031F 		cmp	r0, #196611
 2389              		.loc 1 258 0
 2390 0022 2046     		mov	r0, r4
 2391              	.LVL295:
 2392              		.loc 1 255 0
 2393 0024 0BD0     		beq	.L244
 2394              	.LVL296:
ARM GAS  /tmp/cchERvVK.s 			page 43


 2395              		.loc 1 258 0
 2396 0026 FFF7FEFF 		bl	target_halt_request
 2397              	.LVL297:
 2398              	.L241:
 2399              		.loc 1 253 0
 2400 002a FFF7FEFF 		bl	platform_time_ms
 2401              	.LVL298:
 2402 002e 3B68     		ldr	r3, [r7]
 2403 0030 2B44     		add	r3, r3, r5
 2404 0032 9842     		cmp	r0, r3
 2405              		.loc 1 254 0
 2406 0034 3146     		mov	r1, r6
 2407 0036 2046     		mov	r0, r4
 2408              		.loc 1 253 0
 2409 0038 EFD3     		bcc	.L243
 2410              	.LVL299:
 2411              		.loc 1 261 0
 2412 003a 0020     		movs	r0, #0
 2413              	.LVL300:
 2414              		.loc 1 263 0
 2415 003c F8BD     		pop	{r3, r4, r5, r6, r7, pc}
 2416              	.LVL301:
 2417              	.L244:
 2418              		.loc 1 262 0
 2419 003e 0120     		movs	r0, #1
 2420              	.LVL302:
 2421              		.loc 1 263 0
 2422 0040 F8BD     		pop	{r3, r4, r5, r6, r7, pc}
 2423              	.LVL303:
 2424              	.L247:
 2425 0042 00BF     		.align	2
 2426              	.L246:
 2427 0044 00000000 		.word	cortexm_wait_timeout
 2428 0048 F0ED00E0 		.word	-536810000
 2429              		.cfi_endproc
 2430              	.LFE269:
 2431              		.size	cortexm_forced_halt, .-cortexm_forced_halt
 2432              		.section	.text.cortexm_attach,"ax",%progbits
 2433              		.align	1
 2434              		.p2align 4,,15
 2435              		.global	cortexm_attach
 2436              		.syntax unified
 2437              		.thumb
 2438              		.thumb_func
 2439              		.fpu fpv4-sp-d16
 2440              		.type	cortexm_attach, %function
 2441              	cortexm_attach:
 2442              	.LFB271:
 2443              		.loc 1 350 0
 2444              		.cfi_startproc
 2445              		@ args = 0, pretend = 0, frame = 0
 2446              		@ frame_needed = 0, uses_anonymous_args = 0
 2447              	.LVL304:
 2448 0000 2DE9F047 		push	{r4, r5, r6, r7, r8, r9, r10, lr}
 2449              		.cfi_def_cfa_offset 32
 2450              		.cfi_offset 4, -32
 2451              		.cfi_offset 5, -28
ARM GAS  /tmp/cchERvVK.s 			page 44


 2452              		.cfi_offset 6, -24
 2453              		.cfi_offset 7, -20
 2454              		.cfi_offset 8, -16
 2455              		.cfi_offset 9, -12
 2456              		.cfi_offset 10, -8
 2457              		.cfi_offset 14, -4
 2458              		.loc 1 350 0
 2459 0004 0446     		mov	r4, r0
 2460              		.loc 1 351 0
 2461 0006 C56E     		ldr	r5, [r0, #108]
 2462              	.LVL305:
 2463              		.loc 1 356 0
 2464 0008 FFF7FEFF 		bl	target_check_error
 2465              	.LVL306:
 2466              		.loc 1 358 0
 2467 000c 2046     		mov	r0, r4
 2468 000e FFF7FEFF 		bl	target_halt_request
 2469              	.LVL307:
 2470              		.loc 1 359 0
 2471 0012 2046     		mov	r0, r4
 2472 0014 FFF7FEFF 		bl	cortexm_forced_halt
 2473              	.LVL308:
 2474 0018 8046     		mov	r8, r0
 2475 001a 10B9     		cbnz	r0, .L268
 2476              		.loc 1 396 0
 2477 001c 4046     		mov	r0, r8
 2478 001e BDE8F087 		pop	{r4, r5, r6, r7, r8, r9, r10, pc}
 2479              	.LVL309:
 2480              	.L268:
 2481              		.loc 1 363 0
 2482 0022 2A6A     		ldr	r2, [r5, #32]
 2483 0024 2D49     		ldr	r1, .L269
 2484 0026 2046     		mov	r0, r4
 2485 0028 FFF7FEFF 		bl	target_mem_write32
 2486              	.LVL310:
 2487              		.loc 1 366 0
 2488 002c 1F22     		movs	r2, #31
 2489 002e 2C49     		ldr	r1, .L269+4
 2490 0030 2046     		mov	r0, r4
 2491 0032 FFF7FEFF 		bl	target_mem_write32
 2492              	.LVL311:
 2493              		.loc 1 369 0
 2494 0036 0623     		movs	r3, #6
 2495 0038 EB61     		str	r3, [r5, #28]
 2496              		.loc 1 370 0
 2497 003a 2A49     		ldr	r1, .L269+8
 2498 003c 2046     		mov	r0, r4
 2499 003e FFF7FEFF 		bl	target_mem_read32
 2500              	.LVL312:
 2501              		.loc 1 371 0
 2502 0042 EA69     		ldr	r2, [r5, #28]
 2503              		.loc 1 375 0
 2504 0044 2849     		ldr	r1, .L269+12
 2505              		.loc 1 371 0
 2506 0046 C0F30313 		ubfx	r3, r0, #4, #4
 2507 004a 9342     		cmp	r3, r2
 2508              		.loc 1 372 0
ARM GAS  /tmp/cchERvVK.s 			page 45


 2509 004c 38BF     		it	cc
 2510 004e EB61     		strcc	r3, [r5, #28]
 2511              		.loc 1 373 0
 2512 0050 000F     		lsrs	r0, r0, #28
 2513              	.LVL313:
 2514              		.loc 1 374 0
 2515 0052 0423     		movs	r3, #4
 2516 0054 C5E90303 		strd	r0, r3, [r5, #12]
 2517              		.loc 1 375 0
 2518 0058 2046     		mov	r0, r4
 2519 005a FFF7FEFF 		bl	target_mem_read32
 2520              	.LVL314:
 2521              		.loc 1 376 0
 2522 005e 2B69     		ldr	r3, [r5, #16]
 2523 0060 000F     		lsrs	r0, r0, #28
 2524              	.LVL315:
 2525 0062 9842     		cmp	r0, r3
 2526              		.loc 1 380 0
 2527 0064 EB69     		ldr	r3, [r5, #28]
 2528              		.loc 1 377 0
 2529 0066 88BF     		it	hi
 2530 0068 2861     		strhi	r0, [r5, #16]
 2531              		.loc 1 380 0
 2532 006a B3B1     		cbz	r3, .L252
 2533 006c 6FF01309 		mvn	r9, #19
 2534 0070 1E4F     		ldr	r7, .L269+16
 2535 0072 A9EB0509 		sub	r9, r9, r5
 2536 0076 05F11406 		add	r6, r5, #20
 2537              		.loc 1 381 0
 2538 007a 4FF0000A 		mov	r10, #0
 2539              	.LVL316:
 2540              	.L253:
 2541              		.loc 1 381 0 is_stmt 0 discriminator 3
 2542 007e 0022     		movs	r2, #0
 2543 0080 3946     		mov	r1, r7
 2544 0082 2046     		mov	r0, r4
 2545 0084 FFF7FEFF 		bl	target_mem_write32
 2546              	.LVL317:
 2547              		.loc 1 382 0 is_stmt 1 discriminator 3
 2548 0088 06F801AB 		strb	r10, [r6], #1
 2549              	.LVL318:
 2550              		.loc 1 380 0 discriminator 3
 2551 008c EA69     		ldr	r2, [r5, #28]
 2552 008e 09EB0603 		add	r3, r9, r6
 2553 0092 9A42     		cmp	r2, r3
 2554 0094 07F10407 		add	r7, r7, #4
 2555 0098 F1D8     		bhi	.L253
 2556              	.LVL319:
 2557              	.L252:
 2558              		.loc 1 386 0
 2559 009a 2B69     		ldr	r3, [r5, #16]
 2560 009c ABB1     		cbz	r3, .L254
 2561 009e 6FF00509 		mvn	r9, #5
 2562 00a2 134F     		ldr	r7, .L269+20
 2563 00a4 A9EB0509 		sub	r9, r9, r5
 2564 00a8 AE1D     		adds	r6, r5, #6
 2565              		.loc 1 387 0
ARM GAS  /tmp/cchERvVK.s 			page 46


 2566 00aa 4FF0000A 		mov	r10, #0
 2567              	.LVL320:
 2568              	.L255:
 2569              		.loc 1 387 0 is_stmt 0 discriminator 3
 2570 00ae 0022     		movs	r2, #0
 2571 00b0 3946     		mov	r1, r7
 2572 00b2 2046     		mov	r0, r4
 2573 00b4 FFF7FEFF 		bl	target_mem_write32
 2574              	.LVL321:
 2575              		.loc 1 388 0 is_stmt 1 discriminator 3
 2576 00b8 06F801AB 		strb	r10, [r6], #1
 2577              	.LVL322:
 2578              		.loc 1 386 0 discriminator 3
 2579 00bc 2A69     		ldr	r2, [r5, #16]
 2580 00be 09EB0603 		add	r3, r9, r6
 2581 00c2 9A42     		cmp	r2, r3
 2582 00c4 07F11007 		add	r7, r7, #16
 2583 00c8 F1D8     		bhi	.L255
 2584              	.LVL323:
 2585              	.L254:
 2586              		.loc 1 392 0
 2587 00ca 2046     		mov	r0, r4
 2588 00cc 0322     		movs	r2, #3
 2589 00ce 0549     		ldr	r1, .L269+8
 2590 00d0 FFF7FEFF 		bl	target_mem_write32
 2591              	.LVL324:
 2592              		.loc 1 396 0
 2593 00d4 4046     		mov	r0, r8
 2594 00d6 BDE8F087 		pop	{r4, r5, r6, r7, r8, r9, r10, pc}
 2595              	.LVL325:
 2596              	.L270:
 2597 00da 00BF     		.align	2
 2598              	.L269:
 2599 00dc FCED00E0 		.word	-536809988
 2600 00e0 30ED00E0 		.word	-536810192
 2601 00e4 002000E0 		.word	-536862720
 2602 00e8 001000E0 		.word	-536866816
 2603 00ec 082000E0 		.word	-536862712
 2604 00f0 281000E0 		.word	-536866776
 2605              		.cfi_endproc
 2606              	.LFE271:
 2607              		.size	cortexm_attach, .-cortexm_attach
 2608              		.section	.text.cortexm_cache_clean.isra.1,"ax",%progbits
 2609              		.align	1
 2610              		.p2align 4,,15
 2611              		.syntax unified
 2612              		.thumb
 2613              		.thumb_func
 2614              		.fpu fpv4-sp-d16
 2615              		.type	cortexm_cache_clean.isra.1, %function
 2616              	cortexm_cache_clean.isra.1:
 2617              	.LFB292:
 2618              		.loc 1 196 0
 2619              		.cfi_startproc
 2620              		@ args = 4, pretend = 0, frame = 8
 2621              		@ frame_needed = 0, uses_anonymous_args = 0
 2622              	.LVL326:
ARM GAS  /tmp/cchERvVK.s 			page 47


 2623 0000 2DE9F04F 		push	{r4, r5, r6, r7, r8, r9, r10, fp, lr}
 2624              		.cfi_def_cfa_offset 36
 2625              		.cfi_offset 4, -36
 2626              		.cfi_offset 5, -32
 2627              		.cfi_offset 6, -28
 2628              		.cfi_offset 7, -24
 2629              		.cfi_offset 8, -20
 2630              		.cfi_offset 9, -16
 2631              		.cfi_offset 10, -12
 2632              		.cfi_offset 11, -8
 2633              		.cfi_offset 14, -4
 2634 0004 0D46     		mov	r5, r1
 2635              		.loc 1 198 0
 2636 0006 0968     		ldr	r1, [r1]
 2637              	.LVL327:
 2638              		.loc 1 196 0
 2639 0008 83B0     		sub	sp, sp, #12
 2640              		.cfi_def_cfa_offset 48
 2641              		.loc 1 196 0
 2642 000a 8046     		mov	r8, r0
 2643              		.loc 1 199 0
 2644 000c 91F82400 		ldrb	r0, [r1, #36]	@ zero_extendqisi2
 2645              		.loc 1 196 0
 2646 0010 9DF83040 		ldrb	r4, [sp, #48]	@ zero_extendqisi2
 2647              		.loc 1 199 0
 2648 0014 78B3     		cbz	r0, .L271
 2649 0016 8E6A     		ldr	r6, [r1, #40]
 2650 0018 6EB3     		cbz	r6, .L271
 2651 001a 9246     		mov	r10, r2
 2652              		.loc 1 201 0
 2653 001c 174F     		ldr	r7, .L290
 2654 001e 184A     		ldr	r2, .L290+4
 2655              	.LVL328:
 2656              		.loc 1 205 0
 2657 0020 0AEB0309 		add	r9, r10, r3
 2658              		.loc 1 201 0
 2659 0024 002C     		cmp	r4, #0
 2660 0026 18BF     		it	ne
 2661 0028 1746     		movne	r7, r2
 2662              	.LVL329:
 2663              	.LBB139:
 2664              		.loc 1 207 0
 2665 002a B8F1000F 		cmp	r8, #0
 2666 002e 22D0     		beq	.L271
 2667 0030 C6F1000B 		rsb	fp, r6, #0
 2668              	.LVL330:
 2669              	.L276:
 2670              	.LBB140:
 2671              		.loc 1 209 0
 2672 0034 D8E90034 		ldrd	r3, r4, [r8]
 2673 0038 1C44     		add	r4, r4, r3
 2674              	.LVL331:
 2675 003a 4C45     		cmp	r4, r9
 2676 003c 28BF     		it	cs
 2677 003e 4C46     		movcs	r4, r9
 2678              	.LVL332:
 2679              		.loc 1 216 0
ARM GAS  /tmp/cchERvVK.s 			page 48


 2680 0040 9A45     		cmp	r10, r3
 2681 0042 2CBF     		ite	cs
 2682 0044 0BEA0A03 		andcs	r3, fp, r10
 2683 0048 0BEA0303 		andcc	r3, fp, r3
 2684 004c A342     		cmp	r3, r4
 2685 004e 0193     		str	r3, [sp, #4]
 2686 0050 0CD2     		bcs	.L274
 2687              	.L275:
 2688              	.LBB141:
 2689              	.LBB142:
 2690              		.loc 1 193 0
 2691 0052 2A68     		ldr	r2, [r5]
 2692              	.LBE142:
 2693              	.LBE141:
 2694              		.loc 1 217 0
 2695 0054 0423     		movs	r3, #4
 2696 0056 1068     		ldr	r0, [r2]
 2697 0058 3946     		mov	r1, r7
 2698 005a 0DEB0302 		add	r2, sp, r3
 2699 005e FFF7FEFF 		bl	adiv5_mem_write
 2700              	.LVL333:
 2701              		.loc 1 216 0
 2702 0062 019B     		ldr	r3, [sp, #4]
 2703 0064 3344     		add	r3, r3, r6
 2704 0066 A342     		cmp	r3, r4
 2705 0068 0193     		str	r3, [sp, #4]
 2706 006a F2D3     		bcc	.L275
 2707              	.L274:
 2708              	.LBE140:
 2709              		.loc 1 207 0
 2710 006c D8F80880 		ldr	r8, [r8, #8]
 2711              	.LVL334:
 2712 0070 B8F1000F 		cmp	r8, #0
 2713 0074 DED1     		bne	.L276
 2714              	.LVL335:
 2715              	.L271:
 2716              	.LBE139:
 2717              		.loc 1 219 0
 2718 0076 03B0     		add	sp, sp, #12
 2719              		.cfi_def_cfa_offset 36
 2720              		@ sp needed
 2721 0078 BDE8F08F 		pop	{r4, r5, r6, r7, r8, r9, r10, fp, pc}
 2722              	.LVL336:
 2723              	.L291:
 2724              		.align	2
 2725              	.L290:
 2726 007c 68EF00E0 		.word	-536809624
 2727 0080 70EF00E0 		.word	-536809616
 2728              		.cfi_endproc
 2729              	.LFE292:
 2730              		.size	cortexm_cache_clean.isra.1, .-cortexm_cache_clean.isra.1
 2731              		.section	.text.cortexm_mem_write,"ax",%progbits
 2732              		.align	1
 2733              		.p2align 4,,15
 2734              		.syntax unified
 2735              		.thumb
 2736              		.thumb_func
ARM GAS  /tmp/cchERvVK.s 			page 49


 2737              		.fpu fpv4-sp-d16
 2738              		.type	cortexm_mem_write, %function
 2739              	cortexm_mem_write:
 2740              	.LFB266:
 2741              		.loc 1 228 0
 2742              		.cfi_startproc
 2743              		@ args = 0, pretend = 0, frame = 0
 2744              		@ frame_needed = 0, uses_anonymous_args = 0
 2745              	.LVL337:
 2746 0000 F0B5     		push	{r4, r5, r6, r7, lr}
 2747              		.cfi_def_cfa_offset 20
 2748              		.cfi_offset 4, -20
 2749              		.cfi_offset 5, -16
 2750              		.cfi_offset 6, -12
 2751              		.cfi_offset 7, -8
 2752              		.cfi_offset 14, -4
 2753 0002 83B0     		sub	sp, sp, #12
 2754              		.cfi_def_cfa_offset 32
 2755              		.loc 1 228 0
 2756 0004 0446     		mov	r4, r0
 2757              		.loc 1 229 0
 2758 0006 0127     		movs	r7, #1
 2759              		.loc 1 228 0
 2760 0008 0D46     		mov	r5, r1
 2761              		.loc 1 229 0
 2762 000a 806D     		ldr	r0, [r0, #88]
 2763              	.LVL338:
 2764 000c 0097     		str	r7, [sp]
 2765              		.loc 1 228 0
 2766 000e 1646     		mov	r6, r2
 2767              		.loc 1 229 0
 2768 0010 0A46     		mov	r2, r1
 2769              	.LVL339:
 2770 0012 04F16C01 		add	r1, r4, #108
 2771              	.LVL340:
 2772              		.loc 1 228 0
 2773 0016 1F46     		mov	r7, r3
 2774              		.loc 1 229 0
 2775 0018 FFF7FEFF 		bl	cortexm_cache_clean.isra.1
 2776              	.LVL341:
 2777              	.LBB143:
 2778              	.LBB144:
 2779              		.loc 1 193 0
 2780 001c E26E     		ldr	r2, [r4, #108]
 2781              	.LBE144:
 2782              	.LBE143:
 2783              		.loc 1 230 0
 2784 001e 1068     		ldr	r0, [r2]
 2785 0020 3B46     		mov	r3, r7
 2786 0022 3246     		mov	r2, r6
 2787 0024 2946     		mov	r1, r5
 2788              		.loc 1 231 0
 2789 0026 03B0     		add	sp, sp, #12
 2790              		.cfi_def_cfa_offset 20
 2791              		@ sp needed
 2792 0028 BDE8F040 		pop	{r4, r5, r6, r7, lr}
 2793              		.cfi_restore 14
ARM GAS  /tmp/cchERvVK.s 			page 50


 2794              		.cfi_restore 7
 2795              		.cfi_restore 6
 2796              		.cfi_restore 5
 2797              		.cfi_restore 4
 2798              		.cfi_def_cfa_offset 0
 2799              	.LVL342:
 2800              		.loc 1 230 0
 2801 002c FFF7FEBF 		b	adiv5_mem_write
 2802              	.LVL343:
 2803              		.cfi_endproc
 2804              	.LFE266:
 2805              		.size	cortexm_mem_write, .-cortexm_mem_write
 2806              		.section	.text.cortexm_mem_read,"ax",%progbits
 2807              		.align	1
 2808              		.p2align 4,,15
 2809              		.syntax unified
 2810              		.thumb
 2811              		.thumb_func
 2812              		.fpu fpv4-sp-d16
 2813              		.type	cortexm_mem_read, %function
 2814              	cortexm_mem_read:
 2815              	.LFB265:
 2816              		.loc 1 222 0
 2817              		.cfi_startproc
 2818              		@ args = 0, pretend = 0, frame = 0
 2819              		@ frame_needed = 0, uses_anonymous_args = 0
 2820              	.LVL344:
 2821 0000 F0B5     		push	{r4, r5, r6, r7, lr}
 2822              		.cfi_def_cfa_offset 20
 2823              		.cfi_offset 4, -20
 2824              		.cfi_offset 5, -16
 2825              		.cfi_offset 6, -12
 2826              		.cfi_offset 7, -8
 2827              		.cfi_offset 14, -4
 2828 0002 83B0     		sub	sp, sp, #12
 2829              		.cfi_def_cfa_offset 32
 2830              		.loc 1 222 0
 2831 0004 0446     		mov	r4, r0
 2832              		.loc 1 223 0
 2833 0006 0025     		movs	r5, #0
 2834 0008 806D     		ldr	r0, [r0, #88]
 2835              	.LVL345:
 2836 000a 0095     		str	r5, [sp]
 2837              		.loc 1 222 0
 2838 000c 0D46     		mov	r5, r1
 2839              		.loc 1 223 0
 2840 000e 04F16C01 		add	r1, r4, #108
 2841              	.LVL346:
 2842              		.loc 1 222 0
 2843 0012 1646     		mov	r6, r2
 2844 0014 1F46     		mov	r7, r3
 2845              		.loc 1 223 0
 2846 0016 FFF7FEFF 		bl	cortexm_cache_clean.isra.1
 2847              	.LVL347:
 2848              	.LBB145:
 2849              	.LBB146:
 2850              		.loc 1 193 0
ARM GAS  /tmp/cchERvVK.s 			page 51


 2851 001a E26E     		ldr	r2, [r4, #108]
 2852              	.LBE146:
 2853              	.LBE145:
 2854              		.loc 1 224 0
 2855 001c 1068     		ldr	r0, [r2]
 2856 001e 3B46     		mov	r3, r7
 2857 0020 3246     		mov	r2, r6
 2858 0022 2946     		mov	r1, r5
 2859              		.loc 1 225 0
 2860 0024 03B0     		add	sp, sp, #12
 2861              		.cfi_def_cfa_offset 20
 2862              		@ sp needed
 2863 0026 BDE8F040 		pop	{r4, r5, r6, r7, lr}
 2864              		.cfi_restore 14
 2865              		.cfi_restore 7
 2866              		.cfi_restore 6
 2867              		.cfi_restore 5
 2868              		.cfi_restore 4
 2869              		.cfi_def_cfa_offset 0
 2870              	.LVL348:
 2871              		.loc 1 224 0
 2872 002a FFF7FEBF 		b	adiv5_mem_read
 2873              	.LVL349:
 2874              		.cfi_endproc
 2875              	.LFE265:
 2876              		.size	cortexm_mem_read, .-cortexm_mem_read
 2877 002e 00BF     		.section	.text.cortexm_ap,"ax",%progbits
 2878              		.align	1
 2879              		.p2align 4,,15
 2880              		.global	cortexm_ap
 2881              		.syntax unified
 2882              		.thumb
 2883              		.thumb_func
 2884              		.fpu fpv4-sp-d16
 2885              		.type	cortexm_ap, %function
 2886              	cortexm_ap:
 2887              	.LFB263:
 2888              		.loc 1 192 0
 2889              		.cfi_startproc
 2890              		@ args = 0, pretend = 0, frame = 0
 2891              		@ frame_needed = 0, uses_anonymous_args = 0
 2892              		@ link register save eliminated.
 2893              	.LVL350:
 2894              		.loc 1 193 0
 2895 0000 C36E     		ldr	r3, [r0, #108]
 2896              		.loc 1 194 0
 2897 0002 1868     		ldr	r0, [r3]
 2898              	.LVL351:
 2899 0004 7047     		bx	lr
 2900              		.cfi_endproc
 2901              	.LFE263:
 2902              		.size	cortexm_ap, .-cortexm_ap
 2903 0006 00BF     		.section	.text.cortexm_probe,"ax",%progbits
 2904              		.align	1
 2905              		.p2align 4,,15
 2906              		.global	cortexm_probe
 2907              		.syntax unified
ARM GAS  /tmp/cchERvVK.s 			page 52


 2908              		.thumb
 2909              		.thumb_func
 2910              		.fpu fpv4-sp-d16
 2911              		.type	cortexm_probe, %function
 2912              	cortexm_probe:
 2913              	.LFB270:
 2914              		.loc 1 266 0
 2915              		.cfi_startproc
 2916              		@ args = 0, pretend = 0, frame = 0
 2917              		@ frame_needed = 0, uses_anonymous_args = 0
 2918              	.LVL352:
 2919 0000 2DE9F041 		push	{r4, r5, r6, r7, r8, lr}
 2920              		.cfi_def_cfa_offset 24
 2921              		.cfi_offset 4, -24
 2922              		.cfi_offset 5, -20
 2923              		.cfi_offset 6, -16
 2924              		.cfi_offset 7, -12
 2925              		.cfi_offset 8, -8
 2926              		.cfi_offset 14, -4
 2927              		.loc 1 266 0
 2928 0004 0F46     		mov	r7, r1
 2929 0006 0646     		mov	r6, r0
 2930              		.loc 1 269 0
 2931 0008 FFF7FEFF 		bl	target_new
 2932              	.LVL353:
 2933 000c 0446     		mov	r4, r0
 2934              	.LVL354:
 2935              		.loc 1 271 0
 2936 000e 6648     		ldr	r0, .L319
 2937              	.LVL355:
 2938 0010 FFF7FEFF 		bl	commands_printf
 2939              	.LVL356:
 2940              		.loc 1 273 0
 2941 0014 3046     		mov	r0, r6
 2942 0016 FFF7FEFF 		bl	adiv5_ap_ref
 2943              	.LVL357:
 2944              		.loc 1 274 0
 2945 001a 2C21     		movs	r1, #44
 2946 001c 0120     		movs	r0, #1
 2947 001e FFF7FEFF 		bl	calloc
 2948              	.LVL358:
 2949              		.loc 1 276 0
 2950 0022 DFF8D0C1 		ldr	ip, .L319+76
 2951              		.loc 1 280 0
 2952 0026 6149     		ldr	r1, .L319+4
 2953              		.loc 1 281 0
 2954 0028 614B     		ldr	r3, .L319+8
 2955              		.loc 1 283 0
 2956 002a 624A     		ldr	r2, .L319+12
 2957              		.loc 1 274 0
 2958 002c 0546     		mov	r5, r0
 2959              	.LVL359:
 2960              		.loc 1 276 0
 2961 002e C4E91B5C 		strd	r5, ip, [r4, #108]
 2962              		.loc 1 279 0
 2963 0032 6148     		ldr	r0, .L319+16
 2964              	.LVL360:
ARM GAS  /tmp/cchERvVK.s 			page 53


 2965              		.loc 1 277 0
 2966 0034 2E60     		str	r6, [r5]
 2967              		.loc 1 280 0
 2968 0036 6161     		str	r1, [r4, #20]
 2969              		.loc 1 281 0
 2970 0038 A361     		str	r3, [r4, #24]
 2971              		.loc 1 289 0
 2972 003a 6049     		ldr	r1, .L319+20
 2973              		.loc 1 290 0
 2974 003c 604B     		ldr	r3, .L319+24
 2975              		.loc 1 285 0
 2976 003e DFF8B8C1 		ldr	ip, .L319+80
 2977              		.loc 1 279 0
 2978 0042 2061     		str	r0, [r4, #16]
 2979              		.loc 1 289 0
 2980 0044 2162     		str	r1, [r4, #32]
 2981              		.loc 1 286 0
 2982 0046 5F48     		ldr	r0, .L319+28
 2983              		.loc 1 294 0
 2984 0048 5F49     		ldr	r1, .L319+32
 2985              		.loc 1 290 0
 2986 004a 6362     		str	r3, [r4, #36]
 2987              		.loc 1 295 0
 2988 004c 5F4B     		ldr	r3, .L319+36
 2989              		.loc 1 285 0
 2990 004e C4F808C0 		str	ip, [r4, #8]
 2991              		.loc 1 286 0
 2992 0052 E060     		str	r0, [r4, #12]
 2993              		.loc 1 291 0
 2994 0054 DFF8A4C1 		ldr	ip, .L319+84
 2995              		.loc 1 293 0
 2996 0058 5D48     		ldr	r0, .L319+40
 2997              		.loc 1 294 0
 2998 005a 6163     		str	r1, [r4, #52]
 2999              		.loc 1 295 0
 3000 005c A363     		str	r3, [r4, #56]
 3001              		.loc 1 299 0
 3002 005e 5D49     		ldr	r1, .L319+44
 3003              		.loc 1 300 0
 3004 0060 5D4B     		ldr	r3, .L319+48
 3005              		.loc 1 291 0
 3006 0062 C4F828C0 		str	ip, [r4, #40]
 3007              		.loc 1 293 0
 3008 0066 E062     		str	r0, [r4, #44]
 3009              		.loc 1 296 0
 3010 0068 DFF894C1 		ldr	ip, .L319+88
 3011 006c C4F83CC0 		str	ip, [r4, #60]
 3012              		.loc 1 297 0
 3013 0070 5020     		movs	r0, #80
 3014              		.loc 1 300 0
 3015 0072 C4E91013 		strd	r1, r3, [r4, #64]
 3016              		.loc 1 283 0
 3017 0076 2266     		str	r2, [r4, #96]
 3018              		.loc 1 297 0
 3019 0078 E061     		str	r0, [r4, #28]
 3020              		.loc 1 302 0
 3021 007a 5849     		ldr	r1, .L319+52
ARM GAS  /tmp/cchERvVK.s 			page 54


 3022 007c 2046     		mov	r0, r4
 3023 007e FFF7FEFF 		bl	target_add_commands
 3024              	.LVL361:
 3025              		.loc 1 305 0
 3026 0082 5749     		ldr	r1, .L319+56
 3027 0084 2046     		mov	r0, r4
 3028 0086 FFF7FEFF 		bl	target_mem_read32
 3029              	.LVL362:
 3030              		.loc 1 306 0
 3031 008a 40F47008 		orr	r8, r0, #15728640
 3032              	.LVL363:
 3033              		.loc 1 307 0
 3034 008e 4246     		mov	r2, r8
 3035 0090 2046     		mov	r0, r4
 3036 0092 5349     		ldr	r1, .L319+56
 3037 0094 FFF7FEFF 		bl	target_mem_write32
 3038              	.LVL364:
 3039              		.loc 1 308 0
 3040 0098 2046     		mov	r0, r4
 3041 009a 5149     		ldr	r1, .L319+56
 3042 009c FFF7FEFF 		bl	target_mem_read32
 3043              	.LVL365:
 3044 00a0 4045     		cmp	r0, r8
 3045 00a2 08D1     		bne	.L298
 3046              		.loc 1 309 0
 3047 00a4 E26C     		ldr	r2, [r4, #76]
 3048              		.loc 1 310 0
 3049 00a6 E369     		ldr	r3, [r4, #28]
 3050              		.loc 1 311 0
 3051 00a8 4E49     		ldr	r1, .L319+60
 3052 00aa 2162     		str	r1, [r4, #32]
 3053              		.loc 1 309 0
 3054 00ac 42F00202 		orr	r2, r2, #2
 3055              		.loc 1 310 0
 3056 00b0 8433     		adds	r3, r3, #132
 3057              		.loc 1 309 0
 3058 00b2 E264     		str	r2, [r4, #76]
 3059              		.loc 1 310 0
 3060 00b4 E361     		str	r3, [r4, #28]
 3061              	.L298:
 3062              		.loc 1 315 0
 3063 00b6 4C4B     		ldr	r3, .L319+64
 3064 00b8 2B62     		str	r3, [r5, #32]
 3065              		.loc 1 319 0
 3066 00ba 4C49     		ldr	r1, .L319+68
 3067 00bc 2046     		mov	r0, r4
 3068 00be FFF7FEFF 		bl	target_mem_read32
 3069              	.LVL366:
 3070              		.loc 1 320 0
 3071 00c2 430F     		lsrs	r3, r0, #29
 3072 00c4 042B     		cmp	r3, #4
 3073 00c6 5CD1     		bne	.L299
 3074              		.loc 1 322 0
 3075 00c8 00F00F00 		and	r0, r0, #15
 3076              	.LVL367:
 3077 00cc 8340     		lsls	r3, r3, r0
 3078              		.loc 1 321 0
ARM GAS  /tmp/cchERvVK.s 			page 55


 3079 00ce 0122     		movs	r2, #1
 3080              		.loc 1 322 0
 3081 00d0 AB62     		str	r3, [r5, #40]
 3082              		.loc 1 321 0
 3083 00d2 85F82420 		strb	r2, [r5, #36]
 3084              	.L300:
 3085              		.loc 1 331 0
 3086 00d6 1FB1     		cbz	r7, .L304
 3087              		.loc 1 331 0 is_stmt 0 discriminator 1
 3088 00d8 7368     		ldr	r3, [r6, #4]
 3089 00da DB68     		ldr	r3, [r3, #12]
 3090 00dc 002B     		cmp	r3, #0
 3091 00de 42D0     		beq	.L317
 3092              	.L304:
 3093              		.loc 1 337 0 is_stmt 1
 3094 00e0 2046     		mov	r0, r4
 3095 00e2 FFF7FEFF 		bl	stm32f1_probe
 3096              	.LVL368:
 3097 00e6 0546     		mov	r5, r0
 3098              	.LVL369:
 3099 00e8 0646     		mov	r6, r0
 3100              	.LVL370:
 3101 00ea A8BB     		cbnz	r0, .L318
 3102              	.L311:
 3103              		.loc 1 337 0 is_stmt 0 discriminator 2
 3104 00ec 2046     		mov	r0, r4
 3105 00ee FFF7FEFF 		bl	target_check_error
 3106              	.LVL371:
 3107              		.loc 1 338 0 is_stmt 1 discriminator 2
 3108 00f2 2046     		mov	r0, r4
 3109 00f4 FFF7FEFF 		bl	stm32f4_probe
 3110              	.LVL372:
 3111 00f8 0546     		mov	r5, r0
 3112 00fa 0746     		mov	r7, r0
 3113 00fc 0028     		cmp	r0, #0
 3114 00fe 44D1     		bne	.L315
 3115 0100 2046     		mov	r0, r4
 3116 0102 FFF7FEFF 		bl	target_check_error
 3117              	.LVL373:
 3118              		.loc 1 339 0 discriminator 2
 3119 0106 2046     		mov	r0, r4
 3120 0108 FFF7FEFF 		bl	stm32h7_probe
 3121              	.LVL374:
 3122 010c 0546     		mov	r5, r0
 3123 010e 0646     		mov	r6, r0
 3124 0110 0028     		cmp	r0, #0
 3125 0112 41D1     		bne	.L314
 3126 0114 2046     		mov	r0, r4
 3127 0116 FFF7FEFF 		bl	target_check_error
 3128              	.LVL375:
 3129              		.loc 1 340 0 discriminator 2
 3130 011a 2046     		mov	r0, r4
 3131 011c FFF7FEFF 		bl	stm32l0_probe
 3132              	.LVL376:
 3133 0120 0546     		mov	r5, r0
 3134 0122 0746     		mov	r7, r0
 3135 0124 88BB     		cbnz	r0, .L315
ARM GAS  /tmp/cchERvVK.s 			page 56


 3136 0126 2046     		mov	r0, r4
 3137 0128 FFF7FEFF 		bl	target_check_error
 3138              	.LVL377:
 3139              		.loc 1 341 0 discriminator 2
 3140 012c 2046     		mov	r0, r4
 3141 012e FFF7FEFF 		bl	stm32l4_probe
 3142              	.LVL378:
 3143 0132 0546     		mov	r5, r0
 3144 0134 0646     		mov	r6, r0
 3145 0136 78BB     		cbnz	r0, .L314
 3146 0138 2046     		mov	r0, r4
 3147 013a FFF7FEFF 		bl	target_check_error
 3148              	.LVL379:
 3149              		.loc 1 342 0 discriminator 2
 3150 013e 2C48     		ldr	r0, .L319+72
 3151 0140 FFF7FEFF 		bl	commands_printf
 3152              	.LVL380:
 3153              		.loc 1 343 0 discriminator 2
 3154 0144 2046     		mov	r0, r4
 3155 0146 FFF7FEFF 		bl	nrf51_probe
 3156              	.LVL381:
 3157 014a 0546     		mov	r5, r0
 3158 014c E8B9     		cbnz	r0, .L315
 3159 014e 2046     		mov	r0, r4
 3160 0150 FFF7FEFF 		bl	target_check_error
 3161              	.LVL382:
 3162              		.loc 1 346 0 discriminator 2
 3163 0154 0125     		movs	r5, #1
 3164 0156 03E0     		b	.L305
 3165              	.L318:
 3166              		.loc 1 337 0 discriminator 1
 3167 0158 2046     		mov	r0, r4
 3168 015a 0021     		movs	r1, #0
 3169 015c FFF7FEFF 		bl	target_halt_resume
 3170              	.LVL383:
 3171              	.L305:
 3172              		.loc 1 347 0
 3173 0160 2846     		mov	r0, r5
 3174 0162 BDE8F081 		pop	{r4, r5, r6, r7, r8, pc}
 3175              	.LVL384:
 3176              	.L317:
 3177              		.loc 1 332 0
 3178 0166 2046     		mov	r0, r4
 3179 0168 FFF7FEFF 		bl	cortexm_forced_halt
 3180              	.LVL385:
 3181 016c 0546     		mov	r5, r0
 3182              	.LVL386:
 3183 016e 0028     		cmp	r0, #0
 3184 0170 F6D0     		beq	.L305
 3185              		.loc 1 337 0
 3186 0172 2046     		mov	r0, r4
 3187 0174 FFF7FEFF 		bl	stm32f1_probe
 3188              	.LVL387:
 3189 0178 0546     		mov	r5, r0
 3190 017a 0646     		mov	r6, r0
 3191              	.LVL388:
 3192 017c 0028     		cmp	r0, #0
ARM GAS  /tmp/cchERvVK.s 			page 57


 3193 017e B5D0     		beq	.L311
 3194 0180 EAE7     		b	.L318
 3195              	.LVL389:
 3196              	.L299:
 3197              		.loc 1 324 0
 3198 0182 2046     		mov	r0, r4
 3199              	.LVL390:
 3200 0184 FFF7FEFF 		bl	target_check_error
 3201              	.LVL391:
 3202 0188 A5E7     		b	.L300
 3203              	.LVL392:
 3204              	.L315:
 3205              		.loc 1 343 0 discriminator 1
 3206 018a 2046     		mov	r0, r4
 3207 018c 3146     		mov	r1, r6
 3208 018e FFF7FEFF 		bl	target_halt_resume
 3209              	.LVL393:
 3210              		.loc 1 347 0 discriminator 1
 3211 0192 2846     		mov	r0, r5
 3212 0194 BDE8F081 		pop	{r4, r5, r6, r7, r8, pc}
 3213              	.LVL394:
 3214              	.L314:
 3215              		.loc 1 341 0 discriminator 1
 3216 0198 2046     		mov	r0, r4
 3217 019a 3946     		mov	r1, r7
 3218 019c FFF7FEFF 		bl	target_halt_resume
 3219              	.LVL395:
 3220              		.loc 1 347 0 discriminator 1
 3221 01a0 2846     		mov	r0, r5
 3222 01a2 BDE8F081 		pop	{r4, r5, r6, r7, r8, pc}
 3223              	.LVL396:
 3224              	.L320:
 3225 01a6 00BF     		.align	2
 3226              	.L319:
 3227 01a8 00000000 		.word	.LC18
 3228 01ac 00000000 		.word	cortexm_mem_read
 3229 01b0 00000000 		.word	cortexm_mem_write
 3230 01b4 00000000 		.word	.LANCHOR4
 3231 01b8 00000000 		.word	cortexm_check_error
 3232 01bc 00000000 		.word	.LANCHOR5
 3233 01c0 00000000 		.word	cortexm_regs_read
 3234 01c4 00000000 		.word	cortexm_detach
 3235 01c8 00000000 		.word	cortexm_halt_request
 3236 01cc 00000000 		.word	cortexm_halt_poll
 3237 01d0 00000000 		.word	cortexm_reset
 3238 01d4 00000000 		.word	cortexm_breakwatch_set
 3239 01d8 00000000 		.word	cortexm_breakwatch_clear
 3240 01dc 00000000 		.word	.LANCHOR6
 3241 01e0 88ED00E0 		.word	-536810104
 3242 01e4 00000000 		.word	.LANCHOR7
 3243 01e8 01040001 		.word	16778241
 3244 01ec 7CED00E0 		.word	-536810116
 3245 01f0 18000000 		.word	.LC19
 3246 01f4 00000000 		.word	cortexm_priv_free
 3247 01f8 00000000 		.word	cortexm_attach
 3248 01fc 00000000 		.word	cortexm_regs_write
 3249 0200 00000000 		.word	cortexm_halt_resume
ARM GAS  /tmp/cchERvVK.s 			page 58


 3250              		.cfi_endproc
 3251              	.LFE270:
 3252              		.size	cortexm_probe, .-cortexm_probe
 3253              		.section	.text.cortexm_mem_write_sized,"ax",%progbits
 3254              		.align	1
 3255              		.p2align 4,,15
 3256              		.global	cortexm_mem_write_sized
 3257              		.syntax unified
 3258              		.thumb
 3259              		.thumb_func
 3260              		.fpu fpv4-sp-d16
 3261              		.type	cortexm_mem_write_sized, %function
 3262              	cortexm_mem_write_sized:
 3263              	.LFB275:
 3264              		.loc 1 486 0
 3265              		.cfi_startproc
 3266              		@ args = 4, pretend = 0, frame = 0
 3267              		@ frame_needed = 0, uses_anonymous_args = 0
 3268              	.LVL397:
 3269 0000 2DE9F041 		push	{r4, r5, r6, r7, r8, lr}
 3270              		.cfi_def_cfa_offset 24
 3271              		.cfi_offset 4, -24
 3272              		.cfi_offset 5, -20
 3273              		.cfi_offset 6, -16
 3274              		.cfi_offset 7, -12
 3275              		.cfi_offset 8, -8
 3276              		.cfi_offset 14, -4
 3277 0004 82B0     		sub	sp, sp, #8
 3278              		.cfi_def_cfa_offset 32
 3279              		.loc 1 486 0
 3280 0006 0446     		mov	r4, r0
 3281              		.loc 1 487 0
 3282 0008 0127     		movs	r7, #1
 3283              		.loc 1 486 0
 3284 000a 0D46     		mov	r5, r1
 3285              		.loc 1 487 0
 3286 000c 806D     		ldr	r0, [r0, #88]
 3287              	.LVL398:
 3288 000e 0097     		str	r7, [sp]
 3289              		.loc 1 486 0
 3290 0010 1646     		mov	r6, r2
 3291              		.loc 1 487 0
 3292 0012 0A46     		mov	r2, r1
 3293              	.LVL399:
 3294 0014 04F16C01 		add	r1, r4, #108
 3295              	.LVL400:
 3296              		.loc 1 486 0
 3297 0018 1F46     		mov	r7, r3
 3298 001a 9DF82080 		ldrb	r8, [sp, #32]	@ zero_extendqisi2
 3299              		.loc 1 487 0
 3300 001e FFF7FEFF 		bl	cortexm_cache_clean.isra.1
 3301              	.LVL401:
 3302              	.LBB147:
 3303              	.LBB148:
 3304              		.loc 1 193 0
 3305 0022 E36E     		ldr	r3, [r4, #108]
 3306              	.LBE148:
ARM GAS  /tmp/cchERvVK.s 			page 59


 3307              	.LBE147:
 3308              		.loc 1 488 0
 3309 0024 3246     		mov	r2, r6
 3310 0026 1868     		ldr	r0, [r3]
 3311 0028 CDF80080 		str	r8, [sp]
 3312 002c 3B46     		mov	r3, r7
 3313 002e 2946     		mov	r1, r5
 3314 0030 FFF7FEFF 		bl	adiv5_mem_write_sized
 3315              	.LVL402:
 3316              		.loc 1 489 0
 3317 0034 2046     		mov	r0, r4
 3318 0036 FFF7FEFF 		bl	target_check_error
 3319              	.LVL403:
 3320              		.loc 1 490 0
 3321 003a 02B0     		add	sp, sp, #8
 3322              		.cfi_def_cfa_offset 24
 3323              		@ sp needed
 3324 003c BDE8F081 		pop	{r4, r5, r6, r7, r8, pc}
 3325              		.cfi_endproc
 3326              	.LFE275:
 3327              		.size	cortexm_mem_write_sized, .-cortexm_mem_write_sized
 3328              		.section	.text.cortexm_run_stub,"ax",%progbits
 3329              		.align	1
 3330              		.p2align 4,,15
 3331              		.global	cortexm_run_stub
 3332              		.syntax unified
 3333              		.thumb
 3334              		.thumb_func
 3335              		.fpu fpv4-sp-d16
 3336              		.type	cortexm_run_stub, %function
 3337              	cortexm_run_stub:
 3338              	.LFB283:
 3339              		.loc 1 703 0
 3340              		.cfi_startproc
 3341              		@ args = 8, pretend = 0, frame = 0
 3342              		@ frame_needed = 1, uses_anonymous_args = 0
 3343              	.LVL404:
 3344 0000 2DE9F845 		push	{r3, r4, r5, r6, r7, r8, r10, lr}
 3345              		.cfi_def_cfa_offset 32
 3346              		.cfi_offset 3, -32
 3347              		.cfi_offset 4, -28
 3348              		.cfi_offset 5, -24
 3349              		.cfi_offset 6, -20
 3350              		.cfi_offset 7, -16
 3351              		.cfi_offset 8, -12
 3352              		.cfi_offset 10, -8
 3353              		.cfi_offset 14, -4
 3354 0004 0D46     		mov	r5, r1
 3355              		.loc 1 704 0
 3356 0006 C169     		ldr	r1, [r0, #28]
 3357              	.LVL405:
 3358 0008 21F00301 		bic	r1, r1, #3
 3359              		.loc 1 703 0
 3360 000c 0446     		mov	r4, r0
 3361              	.LVL406:
 3362              		.loc 1 704 0
 3363 000e 01F10A00 		add	r0, r1, #10
ARM GAS  /tmp/cchERvVK.s 			page 60


 3364              	.LVL407:
 3365 0012 20F00700 		bic	r0, r0, #7
 3366              		.loc 1 703 0
 3367 0016 00AF     		add	r7, sp, #0
 3368              		.cfi_def_cfa_register 7
 3369              		.loc 1 704 0
 3370 0018 ADEB000D 		sub	sp, sp, r0
 3371 001c E846     		mov	r8, sp
 3372              	.LVL408:
 3373              		.loc 1 703 0
 3374 001e 1E46     		mov	r6, r3
 3375 0020 9246     		mov	r10, r2
 3376              		.loc 1 706 0
 3377 0022 4046     		mov	r0, r8
 3378 0024 0A46     		mov	r2, r1
 3379              	.LVL409:
 3380 0026 0021     		movs	r1, #0
 3381 0028 FFF7FEFF 		bl	memset
 3382              	.LVL410:
 3383              		.loc 1 708 0
 3384 002c C8E900A6 		strd	r10, r6, [r8]
 3385              		.loc 1 709 0
 3386 0030 3E6A     		ldr	r6, [r7, #32]
 3387              	.LVL411:
 3388 0032 C8F80860 		str	r6, [r8, #8]
 3389              		.loc 1 712 0
 3390 0036 4FF08073 		mov	r3, #16777216
 3391              		.loc 1 713 0
 3392 003a 0022     		movs	r2, #0
 3393              		.loc 1 715 0
 3394 003c 2046     		mov	r0, r4
 3395              		.loc 1 710 0
 3396 003e 7E6A     		ldr	r6, [r7, #36]
 3397 0040 C8F80C60 		str	r6, [r8, #12]
 3398              		.loc 1 715 0
 3399 0044 4146     		mov	r1, r8
 3400              		.loc 1 712 0
 3401 0046 C8E90F53 		strd	r5, r3, [r8, #60]
 3402              		.loc 1 713 0
 3403 004a C8F84C20 		str	r2, [r8, #76]
 3404              		.loc 1 715 0
 3405 004e FFF7FEFF 		bl	cortexm_regs_write
 3406              	.LVL412:
 3407              		.loc 1 717 0
 3408 0052 2046     		mov	r0, r4
 3409 0054 FFF7FEFF 		bl	target_check_error
 3410              	.LVL413:
 3411 0058 20BB     		cbnz	r0, .L329
 3412              		.loc 1 722 0
 3413 005a 0146     		mov	r1, r0
 3414 005c 2046     		mov	r0, r4
 3415 005e FFF7FEFF 		bl	cortexm_halt_resume
 3416              	.LVL414:
 3417              	.L325:
 3418              		.loc 1 723 0 discriminator 1
 3419 0062 0021     		movs	r1, #0
 3420 0064 2046     		mov	r0, r4
ARM GAS  /tmp/cchERvVK.s 			page 61


 3421 0066 FFF7FEFF 		bl	cortexm_halt_poll
 3422              	.LVL415:
 3423 006a 0028     		cmp	r0, #0
 3424 006c F9D0     		beq	.L325
 3425              		.loc 1 726 0
 3426 006e 0128     		cmp	r0, #1
 3427 0070 10D0     		beq	.L333
 3428              		.loc 1 729 0
 3429 0072 0428     		cmp	r0, #4
 3430 0074 19D1     		bne	.L328
 3431              		.loc 1 732 0
 3432 0076 2046     		mov	r0, r4
 3433              	.LVL416:
 3434 0078 FFF7FEFF 		bl	cortexm_pc_read
 3435              	.LVL417:
 3436              		.loc 1 733 0
 3437 007c 0146     		mov	r1, r0
 3438 007e 2046     		mov	r0, r4
 3439              	.LVL418:
 3440 0080 FFF7FEFF 		bl	target_mem_read16
 3441              	.LVL419:
 3442              		.loc 1 734 0
 3443 0084 C0F30F23 		ubfx	r3, r0, #8, #16
 3444 0088 BE2B     		cmp	r3, #190
 3445 008a 0ED1     		bne	.L328
 3446              		.loc 1 737 0
 3447 008c C0B2     		uxtb	r0, r0
 3448              	.LVL420:
 3449              	.L323:
 3450              		.loc 1 738 0
 3451 008e BD46     		mov	sp, r7
 3452              		.cfi_remember_state
 3453              		.cfi_def_cfa_register 13
 3454              		@ sp needed
 3455 0090 BDE8F885 		pop	{r3, r4, r5, r6, r7, r8, r10, pc}
 3456              	.LVL421:
 3457              	.L333:
 3458              		.cfi_restore_state
 3459              		.loc 1 727 0
 3460 0094 0649     		ldr	r1, .L334
 3461 0096 FFF7FEFF 		bl	raise_exception
 3462              	.LVL422:
 3463              		.loc 1 730 0
 3464 009a 6FF00100 		mvn	r0, #1
 3465              		.loc 1 738 0
 3466 009e BD46     		mov	sp, r7
 3467              		.cfi_remember_state
 3468              		.cfi_def_cfa_register 13
 3469              		@ sp needed
 3470 00a0 BDE8F885 		pop	{r3, r4, r5, r6, r7, r8, r10, pc}
 3471              	.LVL423:
 3472              	.L329:
 3473              		.cfi_restore_state
 3474              		.loc 1 718 0
 3475 00a4 4FF0FF30 		mov	r0, #-1
 3476 00a8 F1E7     		b	.L323
 3477              	.L328:
ARM GAS  /tmp/cchERvVK.s 			page 62


 3478              		.loc 1 730 0
 3479 00aa 6FF00100 		mvn	r0, #1
 3480 00ae EEE7     		b	.L323
 3481              	.L335:
 3482              		.align	2
 3483              	.L334:
 3484 00b0 00000000 		.word	.LC20
 3485              		.cfi_endproc
 3486              	.LFE283:
 3487              		.size	cortexm_run_stub, .-cortexm_run_stub
 3488              		.global	cortexm_cmd_list
 3489              		.section	.rodata
 3490              		.align	2
 3491              		.set	.LANCHOR0,. + 0
 3492              	.LC10:
 3493 0000 00000000 		.word	.LC0
 3494 0004 00000000 		.word	0
 3495 0008 00000000 		.word	0
 3496 000c 00000000 		.word	0
 3497 0010 08000000 		.word	.LC1
 3498 0014 0C000000 		.word	.LC2
 3499 0018 14000000 		.word	.LC3
 3500 001c 18000000 		.word	.LC4
 3501 0020 20000000 		.word	.LC5
 3502 0024 24000000 		.word	.LC6
 3503 0028 28000000 		.word	.LC7
 3504              	.LC9:
 3505 002c 00000000 		.word	0
 3506 0030 02000000 		.word	2
 3507 0034 01060000 		.word	1537
 3508 0038 02060000 		.word	1538
 3509 003c 09020000 		.word	521
 3510 0040 0A020000 		.word	522
 3511              		.section	.rodata.CSWTCH.44,"a",%progbits
 3512              		.align	2
 3513              		.set	.LANCHOR1,. + 0
 3514              		.type	CSWTCH.44, %object
 3515              		.size	CSWTCH.44, 16
 3516              	CSWTCH.44:
 3517 0000 00000000 		.word	0
 3518 0004 01000000 		.word	1
 3519 0008 FFFFFFFF 		.word	-1
 3520 000c 03000000 		.word	3
 3521              		.section	.rodata.cortexm_cmd_list,"a",%progbits
 3522              		.align	2
 3523              		.set	.LANCHOR6,. + 0
 3524              		.type	cortexm_cmd_list, %object
 3525              		.size	cortexm_cmd_list, 24
 3526              	cortexm_cmd_list:
 3527 0000 30000000 		.word	.LC21
 3528 0004 00000000 		.word	cortexm_vector_catch
 3529 0008 40000000 		.word	.LC22
 3530 000c 00000000 		.word	0
 3531 0010 00000000 		.word	0
 3532 0014 00000000 		.word	0
 3533              		.section	.rodata.cortexm_driver_str,"a",%progbits
 3534              		.align	2
ARM GAS  /tmp/cchERvVK.s 			page 63


 3535              		.set	.LANCHOR4,. + 0
 3536              		.type	cortexm_driver_str, %object
 3537              		.size	cortexm_driver_str, 13
 3538              	cortexm_driver_str:
 3539 0000 41524D20 		.ascii	"ARM Cortex-M\000"
 3539      436F7274 
 3539      65782D4D 
 3539      00
 3540              		.section	.rodata.cortexm_halt_poll.str1.4,"aMS",%progbits,1
 3541              		.align	2
 3542              	.LC16:
 3543 0000 73797363 		.ascii	"syscall 0lx%lx (%lx %lx %lx %lx)\012\000"
 3543      616C6C20 
 3543      306C7825 
 3543      6C782028 
 3543      256C7820 
 3544 0022 0000     		.space	2
 3545              	.LC17:
 3546 0024 3A747400 		.ascii	":tt\000"
 3547              		.section	.rodata.cortexm_halt_request.str1.4,"aMS",%progbits,1
 3548              		.align	2
 3549              	.LC15:
 3550 0000 54696D65 		.ascii	"Timeout sending interrupt, is target in WFI?\012\000"
 3550      6F757420 
 3550      73656E64 
 3550      696E6720 
 3550      696E7465 
 3551              		.section	.rodata.cortexm_probe.str1.4,"aMS",%progbits,1
 3552              		.align	2
 3553              	.LC18:
 3554 0000 636F7274 		.ascii	"cortexm probe Funktion\012\000"
 3554      65786D20 
 3554      70726F62 
 3554      65204675 
 3554      6E6B7469 
 3555              	.LC19:
 3556 0018 4E524620 		.ascii	"NRF Probe Function\012\000"
 3556      50726F62 
 3556      65204675 
 3556      6E637469 
 3556      6F6E0A00 
 3557              		.section	.rodata.cortexm_run_stub.str1.4,"aMS",%progbits,1
 3558              		.align	2
 3559              	.LC20:
 3560 0000 54617267 		.ascii	"Target lost in stub\000"
 3560      6574206C 
 3560      6F737420 
 3560      696E2073 
 3560      74756200 
 3561              		.section	.rodata.cortexm_vector_catch.str1.4,"aMS",%progbits,1
 3562              		.align	2
 3563              	.LC11:
 3564 0000 75736167 		.ascii	"usage: monitor vector_catch (enable|disable) (hard|"
 3564      653A206D 
 3564      6F6E6974 
 3564      6F722076 
 3564      6563746F 
ARM GAS  /tmp/cchERvVK.s 			page 64


 3565 0033 696E747C 		.ascii	"int|bus|stat|chk|nocp|mm|reset)\012\000"
 3565      6275737C 
 3565      73746174 
 3565      7C63686B 
 3565      7C6E6F63 
 3566              	.LC12:
 3567 0054 43617463 		.ascii	"Catching vectors: \000"
 3567      68696E67 
 3567      20766563 
 3567      746F7273 
 3567      3A2000
 3568 0067 00       		.space	1
 3569              	.LC13:
 3570 0068 25732000 		.ascii	"%s \000"
 3571              	.LC14:
 3572 006c 0A00     		.ascii	"\012\000"
 3573              		.section	.rodata.regnum_cortex_m,"a",%progbits
 3574              		.align	2
 3575              		.set	.LANCHOR2,. + 0
 3576              		.type	regnum_cortex_m, %object
 3577              		.size	regnum_cortex_m, 80
 3578              	regnum_cortex_m:
 3579 0000 00000000 		.word	0
 3580 0004 01000000 		.word	1
 3581 0008 02000000 		.word	2
 3582 000c 03000000 		.word	3
 3583 0010 04000000 		.word	4
 3584 0014 05000000 		.word	5
 3585 0018 06000000 		.word	6
 3586 001c 07000000 		.word	7
 3587 0020 08000000 		.word	8
 3588 0024 09000000 		.word	9
 3589 0028 0A000000 		.word	10
 3590 002c 0B000000 		.word	11
 3591 0030 0C000000 		.word	12
 3592 0034 0D000000 		.word	13
 3593 0038 0E000000 		.word	14
 3594 003c 0F000000 		.word	15
 3595 0040 10000000 		.word	16
 3596 0044 11000000 		.word	17
 3597 0048 12000000 		.word	18
 3598 004c 14000000 		.word	20
 3599              		.section	.rodata.regnum_cortex_mf,"a",%progbits
 3600              		.align	2
 3601              		.set	.LANCHOR3,. + 0
 3602              		.type	regnum_cortex_mf, %object
 3603              		.size	regnum_cortex_mf, 132
 3604              	regnum_cortex_mf:
 3605 0000 21000000 		.word	33
 3606 0004 40000000 		.word	64
 3607 0008 41000000 		.word	65
 3608 000c 42000000 		.word	66
 3609 0010 43000000 		.word	67
 3610 0014 44000000 		.word	68
 3611 0018 45000000 		.word	69
 3612 001c 46000000 		.word	70
 3613 0020 47000000 		.word	71
ARM GAS  /tmp/cchERvVK.s 			page 65


 3614 0024 48000000 		.word	72
 3615 0028 49000000 		.word	73
 3616 002c 4A000000 		.word	74
 3617 0030 4B000000 		.word	75
 3618 0034 4C000000 		.word	76
 3619 0038 4D000000 		.word	77
 3620 003c 4E000000 		.word	78
 3621 0040 4F000000 		.word	79
 3622 0044 50000000 		.word	80
 3623 0048 51000000 		.word	81
 3624 004c 52000000 		.word	82
 3625 0050 53000000 		.word	83
 3626 0054 54000000 		.word	84
 3627 0058 55000000 		.word	85
 3628 005c 56000000 		.word	86
 3629 0060 57000000 		.word	87
 3630 0064 58000000 		.word	88
 3631 0068 59000000 		.word	89
 3632 006c 5A000000 		.word	90
 3633 0070 5B000000 		.word	91
 3634 0074 5C000000 		.word	92
 3635 0078 5D000000 		.word	93
 3636 007c 5E000000 		.word	94
 3637 0080 5F000000 		.word	95
 3638              		.section	.rodata.str1.4,"aMS",%progbits,1
 3639              		.align	2
 3640              	.LC0:
 3641 0000 72657365 		.ascii	"reset\000"
 3641      7400
 3642 0006 0000     		.space	2
 3643              	.LC1:
 3644 0008 6D6D00   		.ascii	"mm\000"
 3645 000b 00       		.space	1
 3646              	.LC2:
 3647 000c 6E6F6370 		.ascii	"nocp\000"
 3647      00
 3648 0011 000000   		.space	3
 3649              	.LC3:
 3650 0014 63686B00 		.ascii	"chk\000"
 3651              	.LC4:
 3652 0018 73746174 		.ascii	"stat\000"
 3652      00
 3653 001d 000000   		.space	3
 3654              	.LC5:
 3655 0020 62757300 		.ascii	"bus\000"
 3656              	.LC6:
 3657 0024 696E7400 		.ascii	"int\000"
 3658              	.LC7:
 3659 0028 68617264 		.ascii	"hard\000"
 3659      00
 3660 002d 000000   		.space	3
 3661              	.LC21:
 3662 0030 76656374 		.ascii	"vector_catch\000"
 3662      6F725F63 
 3662      61746368 
 3662      00
 3663 003d 000000   		.space	3
ARM GAS  /tmp/cchERvVK.s 			page 66


 3664              	.LC22:
 3665 0040 43617463 		.ascii	"Catch exception vectors\000"
 3665      68206578 
 3665      63657074 
 3665      696F6E20 
 3665      76656374 
 3666              		.section	.rodata.tdesc_cortex_m,"a",%progbits
 3667              		.align	2
 3668              		.set	.LANCHOR5,. + 0
 3669              		.type	tdesc_cortex_m, %object
 3670              		.size	tdesc_cortex_m, 8
 3671              	tdesc_cortex_m:
 3672 0000 4E6F2064 		.ascii	"No desc\000"
 3672      65736300 
 3673              		.section	.rodata.tdesc_cortex_mf,"a",%progbits
 3674              		.align	2
 3675              		.set	.LANCHOR7,. + 0
 3676              		.type	tdesc_cortex_mf, %object
 3677              		.size	tdesc_cortex_mf, 8
 3678              	tdesc_cortex_mf:
 3679 0000 4E6F2064 		.ascii	"No desc\000"
 3679      65736300 
 3680              		.text
 3681              	.Letext0:
 3682              		.file 3 "/usr/arm-none-eabi/include/machine/_default_types.h"
 3683              		.file 4 "/usr/arm-none-eabi/include/sys/_stdint.h"
 3684              		.file 5 "/usr/lib/gcc/arm-none-eabi/7.3.1/include/stddef.h"
 3685              		.file 6 "/usr/arm-none-eabi/include/sys/lock.h"
 3686              		.file 7 "/usr/arm-none-eabi/include/sys/_types.h"
 3687              		.file 8 "/usr/arm-none-eabi/include/sys/reent.h"
 3688              		.file 9 "/usr/arm-none-eabi/include/stdlib.h"
 3689              		.file 10 "/usr/lib/gcc/arm-none-eabi/7.3.1/include/stdarg.h"
 3690              		.file 11 "<built-in>"
 3691              		.file 12 "/usr/arm-none-eabi/include/stdio.h"
 3692              		.file 13 "/usr/arm-none-eabi/include/sys/types.h"
 3693              		.file 14 "ChibiOS_3.0.2/os/rt/ports/ARMCMx/compilers/GCC/chtypes.h"
 3694              		.file 15 "ChibiOS_3.0.2/os/rt/include/chsystypes.h"
 3695              		.file 16 "ChibiOS_3.0.2/os/rt/include/chschd.h"
 3696              		.file 17 "ChibiOS_3.0.2/os/ext/CMSIS/include/core_cm4.h"
 3697              		.file 18 "ChibiOS_3.0.2/os/ext/CMSIS/ST/system_stm32f4xx.h"
 3698              		.file 19 "ChibiOS_3.0.2/os/ext/CMSIS/ST/stm32f407xx.h"
 3699              		.file 20 "ChibiOS_3.0.2/os/rt/ports/ARMCMx/chcore.h"
 3700              		.file 21 "ChibiOS_3.0.2/os/rt/ports/ARMCMx/chcore_v7m.h"
 3701              		.file 22 "ChibiOS_3.0.2/os/rt/include/chtm.h"
 3702              		.file 23 "ChibiOS_3.0.2/os/rt/include/chsem.h"
 3703              		.file 24 "ChibiOS_3.0.2/os/rt/include/chmtx.h"
 3704              		.file 25 "ChibiOS_3.0.2/os/rt/include/chregistry.h"
 3705              		.file 26 "ChibiOS_3.0.2/os/rt/include/chevents.h"
 3706              		.file 27 "ChibiOS_3.0.2/os/rt/include/chqueues.h"
 3707              		.file 28 "./conf_general.h"
 3708              		.file 29 "ChibiOS_3.0.2/os/hal/ports/STM32/STM32F4xx/stm32_dma.h"
 3709              		.file 30 "ChibiOS_3.0.2/os/hal/ports/STM32/LLD/GPIOv2/pal_lld.h"
 3710              		.file 31 "ChibiOS_3.0.2/os/hal/include/can.h"
 3711              		.file 32 "ChibiOS_3.0.2/os/hal/ports/STM32/LLD/can_lld.h"
 3712              		.file 33 "ChibiOS_3.0.2/os/hal/include/i2c.h"
 3713              		.file 34 "ChibiOS_3.0.2/os/hal/ports/STM32/LLD/I2Cv1/i2c_lld.h"
 3714              		.file 35 "ChibiOS_3.0.2/os/hal/include/icu.h"
ARM GAS  /tmp/cchERvVK.s 			page 67


 3715              		.file 36 "ChibiOS_3.0.2/os/hal/ports/STM32/LLD/TIMv1/icu_lld.h"
 3716              		.file 37 "ChibiOS_3.0.2/os/hal/ports/STM32/LLD/TIMv1/stm32_tim.h"
 3717              		.file 38 "ChibiOS_3.0.2/os/hal/include/serial.h"
 3718              		.file 39 "ChibiOS_3.0.2/os/hal/ports/STM32/LLD/USARTv1/serial_lld.h"
 3719              		.file 40 "ChibiOS_3.0.2/os/hal/include/spi.h"
 3720              		.file 41 "ChibiOS_3.0.2/os/hal/ports/STM32/LLD/SPIv1/spi_lld.h"
 3721              		.file 42 "ChibiOS_3.0.2/os/hal/include/usb.h"
 3722              		.file 43 "ChibiOS_3.0.2/os/hal/ports/STM32/LLD/OTGv1/usb_lld.h"
 3723              		.file 44 "ChibiOS_3.0.2/os/hal/ports/STM32/LLD/OTGv1/stm32_otg.h"
 3724              		.file 45 "blackmagic/platform.h"
 3725              		.file 46 "/usr/arm-none-eabi/include/machine/setjmp.h"
 3726              		.file 47 "blackmagic/exception.h"
 3727              		.file 48 "blackmagic/target/jtag_scan.h"
 3728              		.file 49 "blackmagic/target.h"
 3729              		.file 50 "blackmagic/target/target_internal.h"
 3730              		.file 51 "blackmagic/target/cortexm.h"
 3731              		.file 52 "/usr/arm-none-eabi/include/sys/unistd.h"
 3732              		.file 53 "/usr/arm-none-eabi/include/string.h"
 3733              		.file 54 "./commands.h"
 3734              		.file 55 "/usr/arm-none-eabi/include/setjmp.h"
 3735              		.file 56 "blackmagic/platform_support.h"
 3736              		.file 57 "blackmagic/timing.h"
 3737              		.section	.debug_info,"",%progbits
 3738              	.Ldebug_info0:
 3739 0000 D75A0000 		.4byte	0x5ad7
 3740 0004 0400     		.2byte	0x4
 3741 0006 00000000 		.4byte	.Ldebug_abbrev0
 3742 000a 04       		.byte	0x4
 3743 000b 01       		.uleb128 0x1
 3744 000c 6A0C0000 		.4byte	.LASF913
 3745 0010 0C       		.byte	0xc
 3746 0011 BC1F0000 		.4byte	.LASF914
 3747 0015 101F0000 		.4byte	.LASF915
 3748 0019 18010000 		.4byte	.Ldebug_ranges0+0x118
 3749 001d 00000000 		.4byte	0
 3750 0021 00000000 		.4byte	.Ldebug_line0
 3751 0025 02       		.uleb128 0x2
 3752 0026 01       		.byte	0x1
 3753 0027 06       		.byte	0x6
 3754 0028 07160000 		.4byte	.LASF0
 3755 002c 03       		.uleb128 0x3
 3756 002d EF000000 		.4byte	.LASF3
 3757 0031 03       		.byte	0x3
 3758 0032 2B       		.byte	0x2b
 3759 0033 37000000 		.4byte	0x37
 3760 0037 02       		.uleb128 0x2
 3761 0038 01       		.byte	0x1
 3762 0039 08       		.byte	0x8
 3763 003a C3090000 		.4byte	.LASF1
 3764 003e 02       		.uleb128 0x2
 3765 003f 02       		.byte	0x2
 3766 0040 05       		.byte	0x5
 3767 0041 48260000 		.4byte	.LASF2
 3768 0045 03       		.uleb128 0x3
 3769 0046 D9070000 		.4byte	.LASF4
 3770 004a 03       		.byte	0x3
 3771 004b 39       		.byte	0x39
ARM GAS  /tmp/cchERvVK.s 			page 68


 3772 004c 50000000 		.4byte	0x50
 3773 0050 02       		.uleb128 0x2
 3774 0051 02       		.byte	0x2
 3775 0052 07       		.byte	0x7
 3776 0053 EE150000 		.4byte	.LASF5
 3777 0057 03       		.uleb128 0x3
 3778 0058 B91E0000 		.4byte	.LASF6
 3779 005c 03       		.byte	0x3
 3780 005d 4D       		.byte	0x4d
 3781 005e 62000000 		.4byte	0x62
 3782 0062 02       		.uleb128 0x2
 3783 0063 04       		.byte	0x4
 3784 0064 05       		.byte	0x5
 3785 0065 0D180000 		.4byte	.LASF7
 3786 0069 03       		.uleb128 0x3
 3787 006a C31E0000 		.4byte	.LASF8
 3788 006e 03       		.byte	0x3
 3789 006f 4F       		.byte	0x4f
 3790 0070 74000000 		.4byte	0x74
 3791 0074 02       		.uleb128 0x2
 3792 0075 04       		.byte	0x4
 3793 0076 07       		.byte	0x7
 3794 0077 F9190000 		.4byte	.LASF9
 3795 007b 02       		.uleb128 0x2
 3796 007c 08       		.byte	0x8
 3797 007d 05       		.byte	0x5
 3798 007e 99230000 		.4byte	.LASF10
 3799 0082 03       		.uleb128 0x3
 3800 0083 11120000 		.4byte	.LASF11
 3801 0087 03       		.byte	0x3
 3802 0088 69       		.byte	0x69
 3803 0089 8D000000 		.4byte	0x8d
 3804 008d 02       		.uleb128 0x2
 3805 008e 08       		.byte	0x8
 3806 008f 07       		.byte	0x7
 3807 0090 F0200000 		.4byte	.LASF12
 3808 0094 04       		.uleb128 0x4
 3809 0095 04       		.byte	0x4
 3810 0096 05       		.byte	0x5
 3811 0097 696E7400 		.ascii	"int\000"
 3812 009b 02       		.uleb128 0x2
 3813 009c 04       		.byte	0x4
 3814 009d 07       		.byte	0x7
 3815 009e C6250000 		.4byte	.LASF13
 3816 00a2 05       		.uleb128 0x5
 3817 00a3 9B000000 		.4byte	0x9b
 3818 00a7 03       		.uleb128 0x3
 3819 00a8 600F0000 		.4byte	.LASF14
 3820 00ac 04       		.byte	0x4
 3821 00ad 18       		.byte	0x18
 3822 00ae 2C000000 		.4byte	0x2c
 3823 00b2 05       		.uleb128 0x5
 3824 00b3 A7000000 		.4byte	0xa7
 3825 00b7 03       		.uleb128 0x3
 3826 00b8 13020000 		.4byte	.LASF15
 3827 00bc 04       		.byte	0x4
 3828 00bd 24       		.byte	0x24
ARM GAS  /tmp/cchERvVK.s 			page 69


 3829 00be 45000000 		.4byte	0x45
 3830 00c2 03       		.uleb128 0x3
 3831 00c3 29040000 		.4byte	.LASF16
 3832 00c7 04       		.byte	0x4
 3833 00c8 2C       		.byte	0x2c
 3834 00c9 57000000 		.4byte	0x57
 3835 00cd 06       		.uleb128 0x6
 3836 00ce C2000000 		.4byte	0xc2
 3837 00d2 03       		.uleb128 0x3
 3838 00d3 3B190000 		.4byte	.LASF17
 3839 00d7 04       		.byte	0x4
 3840 00d8 30       		.byte	0x30
 3841 00d9 69000000 		.4byte	0x69
 3842 00dd 06       		.uleb128 0x6
 3843 00de D2000000 		.4byte	0xd2
 3844 00e2 05       		.uleb128 0x5
 3845 00e3 D2000000 		.4byte	0xd2
 3846 00e7 03       		.uleb128 0x3
 3847 00e8 530B0000 		.4byte	.LASF18
 3848 00ec 04       		.byte	0x4
 3849 00ed 3C       		.byte	0x3c
 3850 00ee 82000000 		.4byte	0x82
 3851 00f2 03       		.uleb128 0x3
 3852 00f3 390F0000 		.4byte	.LASF19
 3853 00f7 05       		.byte	0x5
 3854 00f8 D8       		.byte	0xd8
 3855 00f9 9B000000 		.4byte	0x9b
 3856 00fd 06       		.uleb128 0x6
 3857 00fe F2000000 		.4byte	0xf2
 3858 0102 03       		.uleb128 0x3
 3859 0103 AF070000 		.4byte	.LASF20
 3860 0107 06       		.byte	0x6
 3861 0108 22       		.byte	0x22
 3862 0109 0D010000 		.4byte	0x10d
 3863 010d 07       		.uleb128 0x7
 3864 010e 04       		.byte	0x4
 3865 010f 13010000 		.4byte	0x113
 3866 0113 08       		.uleb128 0x8
 3867 0114 DF050000 		.4byte	.LASF128
 3868 0118 03       		.uleb128 0x3
 3869 0119 FC0E0000 		.4byte	.LASF21
 3870 011d 07       		.byte	0x7
 3871 011e 2C       		.byte	0x2c
 3872 011f 62000000 		.4byte	0x62
 3873 0123 03       		.uleb128 0x3
 3874 0124 5C0B0000 		.4byte	.LASF22
 3875 0128 07       		.byte	0x7
 3876 0129 58       		.byte	0x58
 3877 012a 69000000 		.4byte	0x69
 3878 012e 03       		.uleb128 0x3
 3879 012f DE1D0000 		.4byte	.LASF23
 3880 0133 07       		.byte	0x7
 3881 0134 72       		.byte	0x72
 3882 0135 62000000 		.4byte	0x62
 3883 0139 09       		.uleb128 0x9
 3884 013a 93100000 		.4byte	.LASF24
 3885 013e 05       		.byte	0x5
ARM GAS  /tmp/cchERvVK.s 			page 70


 3886 013f 6501     		.2byte	0x165
 3887 0141 9B000000 		.4byte	0x9b
 3888 0145 0A       		.uleb128 0xa
 3889 0146 04       		.byte	0x4
 3890 0147 07       		.byte	0x7
 3891 0148 A6       		.byte	0xa6
 3892 0149 64010000 		.4byte	0x164
 3893 014d 0B       		.uleb128 0xb
 3894 014e 9D170000 		.4byte	.LASF25
 3895 0152 07       		.byte	0x7
 3896 0153 A8       		.byte	0xa8
 3897 0154 39010000 		.4byte	0x139
 3898 0158 0B       		.uleb128 0xb
 3899 0159 4F100000 		.4byte	.LASF26
 3900 015d 07       		.byte	0x7
 3901 015e A9       		.byte	0xa9
 3902 015f 64010000 		.4byte	0x164
 3903 0163 00       		.byte	0
 3904 0164 0C       		.uleb128 0xc
 3905 0165 37000000 		.4byte	0x37
 3906 0169 74010000 		.4byte	0x174
 3907 016d 0D       		.uleb128 0xd
 3908 016e 9B000000 		.4byte	0x9b
 3909 0172 03       		.byte	0x3
 3910 0173 00       		.byte	0
 3911 0174 0E       		.uleb128 0xe
 3912 0175 08       		.byte	0x8
 3913 0176 07       		.byte	0x7
 3914 0177 A3       		.byte	0xa3
 3915 0178 95010000 		.4byte	0x195
 3916 017c 0F       		.uleb128 0xf
 3917 017d 580F0000 		.4byte	.LASF27
 3918 0181 07       		.byte	0x7
 3919 0182 A5       		.byte	0xa5
 3920 0183 94000000 		.4byte	0x94
 3921 0187 00       		.byte	0
 3922 0188 0F       		.uleb128 0xf
 3923 0189 371F0000 		.4byte	.LASF28
 3924 018d 07       		.byte	0x7
 3925 018e AA       		.byte	0xaa
 3926 018f 45010000 		.4byte	0x145
 3927 0193 04       		.byte	0x4
 3928 0194 00       		.byte	0
 3929 0195 03       		.uleb128 0x3
 3930 0196 451E0000 		.4byte	.LASF29
 3931 019a 07       		.byte	0x7
 3932 019b AB       		.byte	0xab
 3933 019c 74010000 		.4byte	0x174
 3934 01a0 03       		.uleb128 0x3
 3935 01a1 E6220000 		.4byte	.LASF30
 3936 01a5 07       		.byte	0x7
 3937 01a6 AF       		.byte	0xaf
 3938 01a7 02010000 		.4byte	0x102
 3939 01ab 10       		.uleb128 0x10
 3940 01ac 04       		.byte	0x4
 3941 01ad 07       		.uleb128 0x7
 3942 01ae 04       		.byte	0x4
ARM GAS  /tmp/cchERvVK.s 			page 71


 3943 01af B3010000 		.4byte	0x1b3
 3944 01b3 02       		.uleb128 0x2
 3945 01b4 01       		.byte	0x1
 3946 01b5 08       		.byte	0x8
 3947 01b6 A61A0000 		.4byte	.LASF31
 3948 01ba 05       		.uleb128 0x5
 3949 01bb B3010000 		.4byte	0x1b3
 3950 01bf 03       		.uleb128 0x3
 3951 01c0 91140000 		.4byte	.LASF32
 3952 01c4 08       		.byte	0x8
 3953 01c5 16       		.byte	0x16
 3954 01c6 74000000 		.4byte	0x74
 3955 01ca 11       		.uleb128 0x11
 3956 01cb 651B0000 		.4byte	.LASF37
 3957 01cf 18       		.byte	0x18
 3958 01d0 08       		.byte	0x8
 3959 01d1 2F       		.byte	0x2f
 3960 01d2 1D020000 		.4byte	0x21d
 3961 01d6 0F       		.uleb128 0xf
 3962 01d7 1C120000 		.4byte	.LASF33
 3963 01db 08       		.byte	0x8
 3964 01dc 31       		.byte	0x31
 3965 01dd 1D020000 		.4byte	0x21d
 3966 01e1 00       		.byte	0
 3967 01e2 12       		.uleb128 0x12
 3968 01e3 5F6B00   		.ascii	"_k\000"
 3969 01e6 08       		.byte	0x8
 3970 01e7 32       		.byte	0x32
 3971 01e8 94000000 		.4byte	0x94
 3972 01ec 04       		.byte	0x4
 3973 01ed 0F       		.uleb128 0xf
 3974 01ee 87190000 		.4byte	.LASF34
 3975 01f2 08       		.byte	0x8
 3976 01f3 32       		.byte	0x32
 3977 01f4 94000000 		.4byte	0x94
 3978 01f8 08       		.byte	0x8
 3979 01f9 0F       		.uleb128 0xf
 3980 01fa 58250000 		.4byte	.LASF35
 3981 01fe 08       		.byte	0x8
 3982 01ff 32       		.byte	0x32
 3983 0200 94000000 		.4byte	0x94
 3984 0204 0C       		.byte	0xc
 3985 0205 0F       		.uleb128 0xf
 3986 0206 450A0000 		.4byte	.LASF36
 3987 020a 08       		.byte	0x8
 3988 020b 32       		.byte	0x32
 3989 020c 94000000 		.4byte	0x94
 3990 0210 10       		.byte	0x10
 3991 0211 12       		.uleb128 0x12
 3992 0212 5F7800   		.ascii	"_x\000"
 3993 0215 08       		.byte	0x8
 3994 0216 33       		.byte	0x33
 3995 0217 23020000 		.4byte	0x223
 3996 021b 14       		.byte	0x14
 3997 021c 00       		.byte	0
 3998 021d 07       		.uleb128 0x7
 3999 021e 04       		.byte	0x4
ARM GAS  /tmp/cchERvVK.s 			page 72


 4000 021f CA010000 		.4byte	0x1ca
 4001 0223 0C       		.uleb128 0xc
 4002 0224 BF010000 		.4byte	0x1bf
 4003 0228 33020000 		.4byte	0x233
 4004 022c 0D       		.uleb128 0xd
 4005 022d 9B000000 		.4byte	0x9b
 4006 0231 00       		.byte	0
 4007 0232 00       		.byte	0
 4008 0233 11       		.uleb128 0x11
 4009 0234 FE060000 		.4byte	.LASF38
 4010 0238 24       		.byte	0x24
 4011 0239 08       		.byte	0x8
 4012 023a 37       		.byte	0x37
 4013 023b AC020000 		.4byte	0x2ac
 4014 023f 0F       		.uleb128 0xf
 4015 0240 3C130000 		.4byte	.LASF39
 4016 0244 08       		.byte	0x8
 4017 0245 39       		.byte	0x39
 4018 0246 94000000 		.4byte	0x94
 4019 024a 00       		.byte	0
 4020 024b 0F       		.uleb128 0xf
 4021 024c 72250000 		.4byte	.LASF40
 4022 0250 08       		.byte	0x8
 4023 0251 3A       		.byte	0x3a
 4024 0252 94000000 		.4byte	0x94
 4025 0256 04       		.byte	0x4
 4026 0257 0F       		.uleb128 0xf
 4027 0258 6B100000 		.4byte	.LASF41
 4028 025c 08       		.byte	0x8
 4029 025d 3B       		.byte	0x3b
 4030 025e 94000000 		.4byte	0x94
 4031 0262 08       		.byte	0x8
 4032 0263 0F       		.uleb128 0xf
 4033 0264 3A110000 		.4byte	.LASF42
 4034 0268 08       		.byte	0x8
 4035 0269 3C       		.byte	0x3c
 4036 026a 94000000 		.4byte	0x94
 4037 026e 0C       		.byte	0xc
 4038 026f 0F       		.uleb128 0xf
 4039 0270 7A010000 		.4byte	.LASF43
 4040 0274 08       		.byte	0x8
 4041 0275 3D       		.byte	0x3d
 4042 0276 94000000 		.4byte	0x94
 4043 027a 10       		.byte	0x10
 4044 027b 0F       		.uleb128 0xf
 4045 027c C40B0000 		.4byte	.LASF44
 4046 0280 08       		.byte	0x8
 4047 0281 3E       		.byte	0x3e
 4048 0282 94000000 		.4byte	0x94
 4049 0286 14       		.byte	0x14
 4050 0287 0F       		.uleb128 0xf
 4051 0288 22090000 		.4byte	.LASF45
 4052 028c 08       		.byte	0x8
 4053 028d 3F       		.byte	0x3f
 4054 028e 94000000 		.4byte	0x94
 4055 0292 18       		.byte	0x18
 4056 0293 0F       		.uleb128 0xf
ARM GAS  /tmp/cchERvVK.s 			page 73


 4057 0294 83070000 		.4byte	.LASF46
 4058 0298 08       		.byte	0x8
 4059 0299 40       		.byte	0x40
 4060 029a 94000000 		.4byte	0x94
 4061 029e 1C       		.byte	0x1c
 4062 029f 0F       		.uleb128 0xf
 4063 02a0 2C090000 		.4byte	.LASF47
 4064 02a4 08       		.byte	0x8
 4065 02a5 41       		.byte	0x41
 4066 02a6 94000000 		.4byte	0x94
 4067 02aa 20       		.byte	0x20
 4068 02ab 00       		.byte	0
 4069 02ac 13       		.uleb128 0x13
 4070 02ad 64130000 		.4byte	.LASF48
 4071 02b1 0801     		.2byte	0x108
 4072 02b3 08       		.byte	0x8
 4073 02b4 4A       		.byte	0x4a
 4074 02b5 EC020000 		.4byte	0x2ec
 4075 02b9 0F       		.uleb128 0xf
 4076 02ba 76110000 		.4byte	.LASF49
 4077 02be 08       		.byte	0x8
 4078 02bf 4B       		.byte	0x4b
 4079 02c0 EC020000 		.4byte	0x2ec
 4080 02c4 00       		.byte	0
 4081 02c5 0F       		.uleb128 0xf
 4082 02c6 E4080000 		.4byte	.LASF50
 4083 02ca 08       		.byte	0x8
 4084 02cb 4C       		.byte	0x4c
 4085 02cc EC020000 		.4byte	0x2ec
 4086 02d0 80       		.byte	0x80
 4087 02d1 14       		.uleb128 0x14
 4088 02d2 83010000 		.4byte	.LASF51
 4089 02d6 08       		.byte	0x8
 4090 02d7 4E       		.byte	0x4e
 4091 02d8 BF010000 		.4byte	0x1bf
 4092 02dc 0001     		.2byte	0x100
 4093 02de 14       		.uleb128 0x14
 4094 02df 551F0000 		.4byte	.LASF52
 4095 02e3 08       		.byte	0x8
 4096 02e4 51       		.byte	0x51
 4097 02e5 BF010000 		.4byte	0x1bf
 4098 02e9 0401     		.2byte	0x104
 4099 02eb 00       		.byte	0
 4100 02ec 0C       		.uleb128 0xc
 4101 02ed AB010000 		.4byte	0x1ab
 4102 02f1 FC020000 		.4byte	0x2fc
 4103 02f5 0D       		.uleb128 0xd
 4104 02f6 9B000000 		.4byte	0x9b
 4105 02fa 1F       		.byte	0x1f
 4106 02fb 00       		.byte	0
 4107 02fc 13       		.uleb128 0x13
 4108 02fd 24010000 		.4byte	.LASF53
 4109 0301 9001     		.2byte	0x190
 4110 0303 08       		.byte	0x8
 4111 0304 5D       		.byte	0x5d
 4112 0305 3A030000 		.4byte	0x33a
 4113 0309 0F       		.uleb128 0xf
ARM GAS  /tmp/cchERvVK.s 			page 74


 4114 030a 1C120000 		.4byte	.LASF33
 4115 030e 08       		.byte	0x8
 4116 030f 5E       		.byte	0x5e
 4117 0310 3A030000 		.4byte	0x33a
 4118 0314 00       		.byte	0
 4119 0315 0F       		.uleb128 0xf
 4120 0316 B2010000 		.4byte	.LASF54
 4121 031a 08       		.byte	0x8
 4122 031b 5F       		.byte	0x5f
 4123 031c 94000000 		.4byte	0x94
 4124 0320 04       		.byte	0x4
 4125 0321 0F       		.uleb128 0xf
 4126 0322 231E0000 		.4byte	.LASF55
 4127 0326 08       		.byte	0x8
 4128 0327 61       		.byte	0x61
 4129 0328 40030000 		.4byte	0x340
 4130 032c 08       		.byte	0x8
 4131 032d 0F       		.uleb128 0xf
 4132 032e 64130000 		.4byte	.LASF48
 4133 0332 08       		.byte	0x8
 4134 0333 62       		.byte	0x62
 4135 0334 AC020000 		.4byte	0x2ac
 4136 0338 88       		.byte	0x88
 4137 0339 00       		.byte	0
 4138 033a 07       		.uleb128 0x7
 4139 033b 04       		.byte	0x4
 4140 033c FC020000 		.4byte	0x2fc
 4141 0340 0C       		.uleb128 0xc
 4142 0341 50030000 		.4byte	0x350
 4143 0345 50030000 		.4byte	0x350
 4144 0349 0D       		.uleb128 0xd
 4145 034a 9B000000 		.4byte	0x9b
 4146 034e 1F       		.byte	0x1f
 4147 034f 00       		.byte	0
 4148 0350 07       		.uleb128 0x7
 4149 0351 04       		.byte	0x4
 4150 0352 56030000 		.4byte	0x356
 4151 0356 15       		.uleb128 0x15
 4152 0357 11       		.uleb128 0x11
 4153 0358 16170000 		.4byte	.LASF56
 4154 035c 08       		.byte	0x8
 4155 035d 08       		.byte	0x8
 4156 035e 75       		.byte	0x75
 4157 035f 7C030000 		.4byte	0x37c
 4158 0363 0F       		.uleb128 0xf
 4159 0364 5B060000 		.4byte	.LASF57
 4160 0368 08       		.byte	0x8
 4161 0369 76       		.byte	0x76
 4162 036a 7C030000 		.4byte	0x37c
 4163 036e 00       		.byte	0
 4164 036f 0F       		.uleb128 0xf
 4165 0370 B10A0000 		.4byte	.LASF58
 4166 0374 08       		.byte	0x8
 4167 0375 77       		.byte	0x77
 4168 0376 94000000 		.4byte	0x94
 4169 037a 04       		.byte	0x4
 4170 037b 00       		.byte	0
ARM GAS  /tmp/cchERvVK.s 			page 75


 4171 037c 07       		.uleb128 0x7
 4172 037d 04       		.byte	0x4
 4173 037e 37000000 		.4byte	0x37
 4174 0382 11       		.uleb128 0x11
 4175 0383 071E0000 		.4byte	.LASF59
 4176 0387 68       		.byte	0x68
 4177 0388 08       		.byte	0x8
 4178 0389 B5       		.byte	0xb5
 4179 038a AC040000 		.4byte	0x4ac
 4180 038e 12       		.uleb128 0x12
 4181 038f 5F7000   		.ascii	"_p\000"
 4182 0392 08       		.byte	0x8
 4183 0393 B6       		.byte	0xb6
 4184 0394 7C030000 		.4byte	0x37c
 4185 0398 00       		.byte	0
 4186 0399 12       		.uleb128 0x12
 4187 039a 5F7200   		.ascii	"_r\000"
 4188 039d 08       		.byte	0x8
 4189 039e B7       		.byte	0xb7
 4190 039f 94000000 		.4byte	0x94
 4191 03a3 04       		.byte	0x4
 4192 03a4 12       		.uleb128 0x12
 4193 03a5 5F7700   		.ascii	"_w\000"
 4194 03a8 08       		.byte	0x8
 4195 03a9 B8       		.byte	0xb8
 4196 03aa 94000000 		.4byte	0x94
 4197 03ae 08       		.byte	0x8
 4198 03af 0F       		.uleb128 0xf
 4199 03b0 4A020000 		.4byte	.LASF60
 4200 03b4 08       		.byte	0x8
 4201 03b5 B9       		.byte	0xb9
 4202 03b6 3E000000 		.4byte	0x3e
 4203 03ba 0C       		.byte	0xc
 4204 03bb 0F       		.uleb128 0xf
 4205 03bc E61D0000 		.4byte	.LASF61
 4206 03c0 08       		.byte	0x8
 4207 03c1 BA       		.byte	0xba
 4208 03c2 3E000000 		.4byte	0x3e
 4209 03c6 0E       		.byte	0xe
 4210 03c7 12       		.uleb128 0x12
 4211 03c8 5F626600 		.ascii	"_bf\000"
 4212 03cc 08       		.byte	0x8
 4213 03cd BB       		.byte	0xbb
 4214 03ce 57030000 		.4byte	0x357
 4215 03d2 10       		.byte	0x10
 4216 03d3 0F       		.uleb128 0xf
 4217 03d4 CD040000 		.4byte	.LASF62
 4218 03d8 08       		.byte	0x8
 4219 03d9 BC       		.byte	0xbc
 4220 03da 94000000 		.4byte	0x94
 4221 03de 18       		.byte	0x18
 4222 03df 0F       		.uleb128 0xf
 4223 03e0 70120000 		.4byte	.LASF63
 4224 03e4 08       		.byte	0x8
 4225 03e5 C3       		.byte	0xc3
 4226 03e6 AB010000 		.4byte	0x1ab
 4227 03ea 1C       		.byte	0x1c
ARM GAS  /tmp/cchERvVK.s 			page 76


 4228 03eb 0F       		.uleb128 0xf
 4229 03ec 60260000 		.4byte	.LASF64
 4230 03f0 08       		.byte	0x8
 4231 03f1 C5       		.byte	0xc5
 4232 03f2 07060000 		.4byte	0x607
 4233 03f6 20       		.byte	0x20
 4234 03f7 0F       		.uleb128 0xf
 4235 03f8 1C0B0000 		.4byte	.LASF65
 4236 03fc 08       		.byte	0x8
 4237 03fd C7       		.byte	0xc7
 4238 03fe 36060000 		.4byte	0x636
 4239 0402 24       		.byte	0x24
 4240 0403 0F       		.uleb128 0xf
 4241 0404 B2150000 		.4byte	.LASF66
 4242 0408 08       		.byte	0x8
 4243 0409 CA       		.byte	0xca
 4244 040a 5A060000 		.4byte	0x65a
 4245 040e 28       		.byte	0x28
 4246 040f 0F       		.uleb128 0xf
 4247 0410 8B1A0000 		.4byte	.LASF67
 4248 0414 08       		.byte	0x8
 4249 0415 CB       		.byte	0xcb
 4250 0416 74060000 		.4byte	0x674
 4251 041a 2C       		.byte	0x2c
 4252 041b 12       		.uleb128 0x12
 4253 041c 5F756200 		.ascii	"_ub\000"
 4254 0420 08       		.byte	0x8
 4255 0421 CE       		.byte	0xce
 4256 0422 57030000 		.4byte	0x357
 4257 0426 30       		.byte	0x30
 4258 0427 12       		.uleb128 0x12
 4259 0428 5F757000 		.ascii	"_up\000"
 4260 042c 08       		.byte	0x8
 4261 042d CF       		.byte	0xcf
 4262 042e 7C030000 		.4byte	0x37c
 4263 0432 38       		.byte	0x38
 4264 0433 12       		.uleb128 0x12
 4265 0434 5F757200 		.ascii	"_ur\000"
 4266 0438 08       		.byte	0x8
 4267 0439 D0       		.byte	0xd0
 4268 043a 94000000 		.4byte	0x94
 4269 043e 3C       		.byte	0x3c
 4270 043f 0F       		.uleb128 0xf
 4271 0440 321D0000 		.4byte	.LASF68
 4272 0444 08       		.byte	0x8
 4273 0445 D3       		.byte	0xd3
 4274 0446 7A060000 		.4byte	0x67a
 4275 044a 40       		.byte	0x40
 4276 044b 0F       		.uleb128 0xf
 4277 044c 23030000 		.4byte	.LASF69
 4278 0450 08       		.byte	0x8
 4279 0451 D4       		.byte	0xd4
 4280 0452 8A060000 		.4byte	0x68a
 4281 0456 43       		.byte	0x43
 4282 0457 12       		.uleb128 0x12
 4283 0458 5F6C6200 		.ascii	"_lb\000"
 4284 045c 08       		.byte	0x8
ARM GAS  /tmp/cchERvVK.s 			page 77


 4285 045d D7       		.byte	0xd7
 4286 045e 57030000 		.4byte	0x357
 4287 0462 44       		.byte	0x44
 4288 0463 0F       		.uleb128 0xf
 4289 0464 0B1D0000 		.4byte	.LASF70
 4290 0468 08       		.byte	0x8
 4291 0469 DA       		.byte	0xda
 4292 046a 94000000 		.4byte	0x94
 4293 046e 4C       		.byte	0x4c
 4294 046f 0F       		.uleb128 0xf
 4295 0470 C5160000 		.4byte	.LASF71
 4296 0474 08       		.byte	0x8
 4297 0475 DB       		.byte	0xdb
 4298 0476 18010000 		.4byte	0x118
 4299 047a 50       		.byte	0x50
 4300 047b 0F       		.uleb128 0xf
 4301 047c 4B050000 		.4byte	.LASF72
 4302 0480 08       		.byte	0x8
 4303 0481 DE       		.byte	0xde
 4304 0482 CA040000 		.4byte	0x4ca
 4305 0486 54       		.byte	0x54
 4306 0487 0F       		.uleb128 0xf
 4307 0488 1D030000 		.4byte	.LASF73
 4308 048c 08       		.byte	0x8
 4309 048d E2       		.byte	0xe2
 4310 048e A0010000 		.4byte	0x1a0
 4311 0492 58       		.byte	0x58
 4312 0493 0F       		.uleb128 0xf
 4313 0494 1B010000 		.4byte	.LASF74
 4314 0498 08       		.byte	0x8
 4315 0499 E4       		.byte	0xe4
 4316 049a 95010000 		.4byte	0x195
 4317 049e 5C       		.byte	0x5c
 4318 049f 0F       		.uleb128 0xf
 4319 04a0 BC230000 		.4byte	.LASF75
 4320 04a4 08       		.byte	0x8
 4321 04a5 E5       		.byte	0xe5
 4322 04a6 94000000 		.4byte	0x94
 4323 04aa 64       		.byte	0x64
 4324 04ab 00       		.byte	0
 4325 04ac 16       		.uleb128 0x16
 4326 04ad 94000000 		.4byte	0x94
 4327 04b1 CA040000 		.4byte	0x4ca
 4328 04b5 17       		.uleb128 0x17
 4329 04b6 CA040000 		.4byte	0x4ca
 4330 04ba 17       		.uleb128 0x17
 4331 04bb AB010000 		.4byte	0x1ab
 4332 04bf 17       		.uleb128 0x17
 4333 04c0 AD010000 		.4byte	0x1ad
 4334 04c4 17       		.uleb128 0x17
 4335 04c5 94000000 		.4byte	0x94
 4336 04c9 00       		.byte	0
 4337 04ca 07       		.uleb128 0x7
 4338 04cb 04       		.byte	0x4
 4339 04cc D5040000 		.4byte	0x4d5
 4340 04d0 05       		.uleb128 0x5
 4341 04d1 CA040000 		.4byte	0x4ca
ARM GAS  /tmp/cchERvVK.s 			page 78


 4342 04d5 18       		.uleb128 0x18
 4343 04d6 F5050000 		.4byte	.LASF76
 4344 04da 2804     		.2byte	0x428
 4345 04dc 08       		.byte	0x8
 4346 04dd 6002     		.2byte	0x260
 4347 04df 07060000 		.4byte	0x607
 4348 04e3 19       		.uleb128 0x19
 4349 04e4 11110000 		.4byte	.LASF77
 4350 04e8 08       		.byte	0x8
 4351 04e9 6202     		.2byte	0x262
 4352 04eb 94000000 		.4byte	0x94
 4353 04ef 00       		.byte	0
 4354 04f0 19       		.uleb128 0x19
 4355 04f1 190E0000 		.4byte	.LASF78
 4356 04f5 08       		.byte	0x8
 4357 04f6 6702     		.2byte	0x267
 4358 04f8 E1060000 		.4byte	0x6e1
 4359 04fc 04       		.byte	0x4
 4360 04fd 19       		.uleb128 0x19
 4361 04fe D1090000 		.4byte	.LASF79
 4362 0502 08       		.byte	0x8
 4363 0503 6702     		.2byte	0x267
 4364 0505 E1060000 		.4byte	0x6e1
 4365 0509 08       		.byte	0x8
 4366 050a 19       		.uleb128 0x19
 4367 050b B5080000 		.4byte	.LASF80
 4368 050f 08       		.byte	0x8
 4369 0510 6702     		.2byte	0x267
 4370 0512 E1060000 		.4byte	0x6e1
 4371 0516 0C       		.byte	0xc
 4372 0517 19       		.uleb128 0x19
 4373 0518 AD010000 		.4byte	.LASF81
 4374 051c 08       		.byte	0x8
 4375 051d 6902     		.2byte	0x269
 4376 051f 94000000 		.4byte	0x94
 4377 0523 10       		.byte	0x10
 4378 0524 19       		.uleb128 0x19
 4379 0525 9A180000 		.4byte	.LASF82
 4380 0529 08       		.byte	0x8
 4381 052a 6A02     		.2byte	0x26a
 4382 052c C3080000 		.4byte	0x8c3
 4383 0530 14       		.byte	0x14
 4384 0531 19       		.uleb128 0x19
 4385 0532 77220000 		.4byte	.LASF83
 4386 0536 08       		.byte	0x8
 4387 0537 6D02     		.2byte	0x26d
 4388 0539 94000000 		.4byte	0x94
 4389 053d 30       		.byte	0x30
 4390 053e 19       		.uleb128 0x19
 4391 053f FF230000 		.4byte	.LASF84
 4392 0543 08       		.byte	0x8
 4393 0544 6E02     		.2byte	0x26e
 4394 0546 D8080000 		.4byte	0x8d8
 4395 054a 34       		.byte	0x34
 4396 054b 19       		.uleb128 0x19
 4397 054c AA220000 		.4byte	.LASF85
 4398 0550 08       		.byte	0x8
ARM GAS  /tmp/cchERvVK.s 			page 79


 4399 0551 7002     		.2byte	0x270
 4400 0553 94000000 		.4byte	0x94
 4401 0557 38       		.byte	0x38
 4402 0558 19       		.uleb128 0x19
 4403 0559 751D0000 		.4byte	.LASF86
 4404 055d 08       		.byte	0x8
 4405 055e 7202     		.2byte	0x272
 4406 0560 E9080000 		.4byte	0x8e9
 4407 0564 3C       		.byte	0x3c
 4408 0565 19       		.uleb128 0x19
 4409 0566 BD080000 		.4byte	.LASF87
 4410 056a 08       		.byte	0x8
 4411 056b 7502     		.2byte	0x275
 4412 056d 1D020000 		.4byte	0x21d
 4413 0571 40       		.byte	0x40
 4414 0572 19       		.uleb128 0x19
 4415 0573 A6080000 		.4byte	.LASF88
 4416 0577 08       		.byte	0x8
 4417 0578 7602     		.2byte	0x276
 4418 057a 94000000 		.4byte	0x94
 4419 057e 44       		.byte	0x44
 4420 057f 19       		.uleb128 0x19
 4421 0580 A11F0000 		.4byte	.LASF89
 4422 0584 08       		.byte	0x8
 4423 0585 7702     		.2byte	0x277
 4424 0587 1D020000 		.4byte	0x21d
 4425 058b 48       		.byte	0x48
 4426 058c 19       		.uleb128 0x19
 4427 058d 80160000 		.4byte	.LASF90
 4428 0591 08       		.byte	0x8
 4429 0592 7802     		.2byte	0x278
 4430 0594 EF080000 		.4byte	0x8ef
 4431 0598 4C       		.byte	0x4c
 4432 0599 19       		.uleb128 0x19
 4433 059a 89020000 		.4byte	.LASF91
 4434 059e 08       		.byte	0x8
 4435 059f 7B02     		.2byte	0x27b
 4436 05a1 94000000 		.4byte	0x94
 4437 05a5 50       		.byte	0x50
 4438 05a6 19       		.uleb128 0x19
 4439 05a7 D50F0000 		.4byte	.LASF92
 4440 05ab 08       		.byte	0x8
 4441 05ac 7C02     		.2byte	0x27c
 4442 05ae AD010000 		.4byte	0x1ad
 4443 05b2 54       		.byte	0x54
 4444 05b3 19       		.uleb128 0x19
 4445 05b4 9A100000 		.4byte	.LASF93
 4446 05b8 08       		.byte	0x8
 4447 05b9 9F02     		.2byte	0x29f
 4448 05bb A1080000 		.4byte	0x8a1
 4449 05bf 58       		.byte	0x58
 4450 05c0 1A       		.uleb128 0x1a
 4451 05c1 24010000 		.4byte	.LASF53
 4452 05c5 08       		.byte	0x8
 4453 05c6 A302     		.2byte	0x2a3
 4454 05c8 3A030000 		.4byte	0x33a
 4455 05cc 4801     		.2byte	0x148
ARM GAS  /tmp/cchERvVK.s 			page 80


 4456 05ce 1A       		.uleb128 0x1a
 4457 05cf AF1B0000 		.4byte	.LASF94
 4458 05d3 08       		.byte	0x8
 4459 05d4 A402     		.2byte	0x2a4
 4460 05d6 FC020000 		.4byte	0x2fc
 4461 05da 4C01     		.2byte	0x14c
 4462 05dc 1A       		.uleb128 0x1a
 4463 05dd B1020000 		.4byte	.LASF95
 4464 05e1 08       		.byte	0x8
 4465 05e2 A802     		.2byte	0x2a8
 4466 05e4 00090000 		.4byte	0x900
 4467 05e8 DC02     		.2byte	0x2dc
 4468 05ea 1A       		.uleb128 0x1a
 4469 05eb 4C1D0000 		.4byte	.LASF96
 4470 05ef 08       		.byte	0x8
 4471 05f0 AD02     		.2byte	0x2ad
 4472 05f2 A6060000 		.4byte	0x6a6
 4473 05f6 E002     		.2byte	0x2e0
 4474 05f8 1A       		.uleb128 0x1a
 4475 05f9 4D060000 		.4byte	.LASF97
 4476 05fd 08       		.byte	0x8
 4477 05fe AF02     		.2byte	0x2af
 4478 0600 0C090000 		.4byte	0x90c
 4479 0604 EC02     		.2byte	0x2ec
 4480 0606 00       		.byte	0
 4481 0607 07       		.uleb128 0x7
 4482 0608 04       		.byte	0x4
 4483 0609 AC040000 		.4byte	0x4ac
 4484 060d 16       		.uleb128 0x16
 4485 060e 94000000 		.4byte	0x94
 4486 0612 2B060000 		.4byte	0x62b
 4487 0616 17       		.uleb128 0x17
 4488 0617 CA040000 		.4byte	0x4ca
 4489 061b 17       		.uleb128 0x17
 4490 061c AB010000 		.4byte	0x1ab
 4491 0620 17       		.uleb128 0x17
 4492 0621 2B060000 		.4byte	0x62b
 4493 0625 17       		.uleb128 0x17
 4494 0626 94000000 		.4byte	0x94
 4495 062a 00       		.byte	0
 4496 062b 07       		.uleb128 0x7
 4497 062c 04       		.byte	0x4
 4498 062d BA010000 		.4byte	0x1ba
 4499 0631 06       		.uleb128 0x6
 4500 0632 2B060000 		.4byte	0x62b
 4501 0636 07       		.uleb128 0x7
 4502 0637 04       		.byte	0x4
 4503 0638 0D060000 		.4byte	0x60d
 4504 063c 16       		.uleb128 0x16
 4505 063d 2E010000 		.4byte	0x12e
 4506 0641 5A060000 		.4byte	0x65a
 4507 0645 17       		.uleb128 0x17
 4508 0646 CA040000 		.4byte	0x4ca
 4509 064a 17       		.uleb128 0x17
 4510 064b AB010000 		.4byte	0x1ab
 4511 064f 17       		.uleb128 0x17
 4512 0650 2E010000 		.4byte	0x12e
ARM GAS  /tmp/cchERvVK.s 			page 81


 4513 0654 17       		.uleb128 0x17
 4514 0655 94000000 		.4byte	0x94
 4515 0659 00       		.byte	0
 4516 065a 07       		.uleb128 0x7
 4517 065b 04       		.byte	0x4
 4518 065c 3C060000 		.4byte	0x63c
 4519 0660 16       		.uleb128 0x16
 4520 0661 94000000 		.4byte	0x94
 4521 0665 74060000 		.4byte	0x674
 4522 0669 17       		.uleb128 0x17
 4523 066a CA040000 		.4byte	0x4ca
 4524 066e 17       		.uleb128 0x17
 4525 066f AB010000 		.4byte	0x1ab
 4526 0673 00       		.byte	0
 4527 0674 07       		.uleb128 0x7
 4528 0675 04       		.byte	0x4
 4529 0676 60060000 		.4byte	0x660
 4530 067a 0C       		.uleb128 0xc
 4531 067b 37000000 		.4byte	0x37
 4532 067f 8A060000 		.4byte	0x68a
 4533 0683 0D       		.uleb128 0xd
 4534 0684 9B000000 		.4byte	0x9b
 4535 0688 02       		.byte	0x2
 4536 0689 00       		.byte	0
 4537 068a 0C       		.uleb128 0xc
 4538 068b 37000000 		.4byte	0x37
 4539 068f 9A060000 		.4byte	0x69a
 4540 0693 0D       		.uleb128 0xd
 4541 0694 9B000000 		.4byte	0x9b
 4542 0698 00       		.byte	0
 4543 0699 00       		.byte	0
 4544 069a 09       		.uleb128 0x9
 4545 069b 2F250000 		.4byte	.LASF98
 4546 069f 08       		.byte	0x8
 4547 06a0 1F01     		.2byte	0x11f
 4548 06a2 82030000 		.4byte	0x382
 4549 06a6 1B       		.uleb128 0x1b
 4550 06a7 C41A0000 		.4byte	.LASF99
 4551 06ab 0C       		.byte	0xc
 4552 06ac 08       		.byte	0x8
 4553 06ad 2301     		.2byte	0x123
 4554 06af DB060000 		.4byte	0x6db
 4555 06b3 19       		.uleb128 0x19
 4556 06b4 1C120000 		.4byte	.LASF33
 4557 06b8 08       		.byte	0x8
 4558 06b9 2501     		.2byte	0x125
 4559 06bb DB060000 		.4byte	0x6db
 4560 06bf 00       		.byte	0
 4561 06c0 19       		.uleb128 0x19
 4562 06c1 CD100000 		.4byte	.LASF100
 4563 06c5 08       		.byte	0x8
 4564 06c6 2601     		.2byte	0x126
 4565 06c8 94000000 		.4byte	0x94
 4566 06cc 04       		.byte	0x4
 4567 06cd 19       		.uleb128 0x19
 4568 06ce 94180000 		.4byte	.LASF101
 4569 06d2 08       		.byte	0x8
ARM GAS  /tmp/cchERvVK.s 			page 82


 4570 06d3 2701     		.2byte	0x127
 4571 06d5 E1060000 		.4byte	0x6e1
 4572 06d9 08       		.byte	0x8
 4573 06da 00       		.byte	0
 4574 06db 07       		.uleb128 0x7
 4575 06dc 04       		.byte	0x4
 4576 06dd A6060000 		.4byte	0x6a6
 4577 06e1 07       		.uleb128 0x7
 4578 06e2 04       		.byte	0x4
 4579 06e3 9A060000 		.4byte	0x69a
 4580 06e7 1B       		.uleb128 0x1b
 4581 06e8 9F260000 		.4byte	.LASF102
 4582 06ec 0E       		.byte	0xe
 4583 06ed 08       		.byte	0x8
 4584 06ee 3F01     		.2byte	0x13f
 4585 06f0 1C070000 		.4byte	0x71c
 4586 06f4 19       		.uleb128 0x19
 4587 06f5 AC150000 		.4byte	.LASF103
 4588 06f9 08       		.byte	0x8
 4589 06fa 4001     		.2byte	0x140
 4590 06fc 1C070000 		.4byte	0x71c
 4591 0700 00       		.byte	0
 4592 0701 19       		.uleb128 0x19
 4593 0702 410C0000 		.4byte	.LASF104
 4594 0706 08       		.byte	0x8
 4595 0707 4101     		.2byte	0x141
 4596 0709 1C070000 		.4byte	0x71c
 4597 070d 06       		.byte	0x6
 4598 070e 19       		.uleb128 0x19
 4599 070f 61040000 		.4byte	.LASF105
 4600 0713 08       		.byte	0x8
 4601 0714 4201     		.2byte	0x142
 4602 0716 50000000 		.4byte	0x50
 4603 071a 0C       		.byte	0xc
 4604 071b 00       		.byte	0
 4605 071c 0C       		.uleb128 0xc
 4606 071d 50000000 		.4byte	0x50
 4607 0721 2C070000 		.4byte	0x72c
 4608 0725 0D       		.uleb128 0xd
 4609 0726 9B000000 		.4byte	0x9b
 4610 072a 02       		.byte	0x2
 4611 072b 00       		.byte	0
 4612 072c 1C       		.uleb128 0x1c
 4613 072d D0       		.byte	0xd0
 4614 072e 08       		.byte	0x8
 4615 072f 8002     		.2byte	0x280
 4616 0731 2D080000 		.4byte	0x82d
 4617 0735 19       		.uleb128 0x19
 4618 0736 F3070000 		.4byte	.LASF106
 4619 073a 08       		.byte	0x8
 4620 073b 8202     		.2byte	0x282
 4621 073d 9B000000 		.4byte	0x9b
 4622 0741 00       		.byte	0
 4623 0742 19       		.uleb128 0x19
 4624 0743 56150000 		.4byte	.LASF107
 4625 0747 08       		.byte	0x8
 4626 0748 8302     		.2byte	0x283
ARM GAS  /tmp/cchERvVK.s 			page 83


 4627 074a AD010000 		.4byte	0x1ad
 4628 074e 04       		.byte	0x4
 4629 074f 19       		.uleb128 0x19
 4630 0750 82170000 		.4byte	.LASF108
 4631 0754 08       		.byte	0x8
 4632 0755 8402     		.2byte	0x284
 4633 0757 2D080000 		.4byte	0x82d
 4634 075b 08       		.byte	0x8
 4635 075c 19       		.uleb128 0x19
 4636 075d 400F0000 		.4byte	.LASF109
 4637 0761 08       		.byte	0x8
 4638 0762 8502     		.2byte	0x285
 4639 0764 33020000 		.4byte	0x233
 4640 0768 24       		.byte	0x24
 4641 0769 19       		.uleb128 0x19
 4642 076a 3D210000 		.4byte	.LASF110
 4643 076e 08       		.byte	0x8
 4644 076f 8602     		.2byte	0x286
 4645 0771 94000000 		.4byte	0x94
 4646 0775 48       		.byte	0x48
 4647 0776 19       		.uleb128 0x19
 4648 0777 ED180000 		.4byte	.LASF111
 4649 077b 08       		.byte	0x8
 4650 077c 8702     		.2byte	0x287
 4651 077e 8D000000 		.4byte	0x8d
 4652 0782 50       		.byte	0x50
 4653 0783 19       		.uleb128 0x19
 4654 0784 D3250000 		.4byte	.LASF112
 4655 0788 08       		.byte	0x8
 4656 0789 8802     		.2byte	0x288
 4657 078b E7060000 		.4byte	0x6e7
 4658 078f 58       		.byte	0x58
 4659 0790 19       		.uleb128 0x19
 4660 0791 3F1D0000 		.4byte	.LASF113
 4661 0795 08       		.byte	0x8
 4662 0796 8902     		.2byte	0x289
 4663 0798 95010000 		.4byte	0x195
 4664 079c 68       		.byte	0x68
 4665 079d 19       		.uleb128 0x19
 4666 079e 69060000 		.4byte	.LASF114
 4667 07a2 08       		.byte	0x8
 4668 07a3 8A02     		.2byte	0x28a
 4669 07a5 95010000 		.4byte	0x195
 4670 07a9 70       		.byte	0x70
 4671 07aa 19       		.uleb128 0x19
 4672 07ab 44180000 		.4byte	.LASF115
 4673 07af 08       		.byte	0x8
 4674 07b0 8B02     		.2byte	0x28b
 4675 07b2 95010000 		.4byte	0x195
 4676 07b6 78       		.byte	0x78
 4677 07b7 19       		.uleb128 0x19
 4678 07b8 31170000 		.4byte	.LASF116
 4679 07bc 08       		.byte	0x8
 4680 07bd 8C02     		.2byte	0x28c
 4681 07bf 3D080000 		.4byte	0x83d
 4682 07c3 80       		.byte	0x80
 4683 07c4 19       		.uleb128 0x19
ARM GAS  /tmp/cchERvVK.s 			page 84


 4684 07c5 3D120000 		.4byte	.LASF117
 4685 07c9 08       		.byte	0x8
 4686 07ca 8D02     		.2byte	0x28d
 4687 07cc 4D080000 		.4byte	0x84d
 4688 07d0 88       		.byte	0x88
 4689 07d1 19       		.uleb128 0x19
 4690 07d2 0A1C0000 		.4byte	.LASF118
 4691 07d6 08       		.byte	0x8
 4692 07d7 8E02     		.2byte	0x28e
 4693 07d9 94000000 		.4byte	0x94
 4694 07dd A0       		.byte	0xa0
 4695 07de 19       		.uleb128 0x19
 4696 07df 8E0D0000 		.4byte	.LASF119
 4697 07e3 08       		.byte	0x8
 4698 07e4 8F02     		.2byte	0x28f
 4699 07e6 95010000 		.4byte	0x195
 4700 07ea A4       		.byte	0xa4
 4701 07eb 19       		.uleb128 0x19
 4702 07ec 56100000 		.4byte	.LASF120
 4703 07f0 08       		.byte	0x8
 4704 07f1 9002     		.2byte	0x290
 4705 07f3 95010000 		.4byte	0x195
 4706 07f7 AC       		.byte	0xac
 4707 07f8 19       		.uleb128 0x19
 4708 07f9 340A0000 		.4byte	.LASF121
 4709 07fd 08       		.byte	0x8
 4710 07fe 9102     		.2byte	0x291
 4711 0800 95010000 		.4byte	0x195
 4712 0804 B4       		.byte	0xb4
 4713 0805 19       		.uleb128 0x19
 4714 0806 D7130000 		.4byte	.LASF122
 4715 080a 08       		.byte	0x8
 4716 080b 9202     		.2byte	0x292
 4717 080d 95010000 		.4byte	0x195
 4718 0811 BC       		.byte	0xbc
 4719 0812 19       		.uleb128 0x19
 4720 0813 B0170000 		.4byte	.LASF123
 4721 0817 08       		.byte	0x8
 4722 0818 9302     		.2byte	0x293
 4723 081a 95010000 		.4byte	0x195
 4724 081e C4       		.byte	0xc4
 4725 081f 19       		.uleb128 0x19
 4726 0820 501E0000 		.4byte	.LASF124
 4727 0824 08       		.byte	0x8
 4728 0825 9402     		.2byte	0x294
 4729 0827 94000000 		.4byte	0x94
 4730 082b CC       		.byte	0xcc
 4731 082c 00       		.byte	0
 4732 082d 0C       		.uleb128 0xc
 4733 082e B3010000 		.4byte	0x1b3
 4734 0832 3D080000 		.4byte	0x83d
 4735 0836 0D       		.uleb128 0xd
 4736 0837 9B000000 		.4byte	0x9b
 4737 083b 19       		.byte	0x19
 4738 083c 00       		.byte	0
 4739 083d 0C       		.uleb128 0xc
 4740 083e B3010000 		.4byte	0x1b3
ARM GAS  /tmp/cchERvVK.s 			page 85


 4741 0842 4D080000 		.4byte	0x84d
 4742 0846 0D       		.uleb128 0xd
 4743 0847 9B000000 		.4byte	0x9b
 4744 084b 07       		.byte	0x7
 4745 084c 00       		.byte	0
 4746 084d 0C       		.uleb128 0xc
 4747 084e B3010000 		.4byte	0x1b3
 4748 0852 5D080000 		.4byte	0x85d
 4749 0856 0D       		.uleb128 0xd
 4750 0857 9B000000 		.4byte	0x9b
 4751 085b 17       		.byte	0x17
 4752 085c 00       		.byte	0
 4753 085d 1C       		.uleb128 0x1c
 4754 085e F0       		.byte	0xf0
 4755 085f 08       		.byte	0x8
 4756 0860 9902     		.2byte	0x299
 4757 0862 81080000 		.4byte	0x881
 4758 0866 19       		.uleb128 0x19
 4759 0867 E0180000 		.4byte	.LASF125
 4760 086b 08       		.byte	0x8
 4761 086c 9C02     		.2byte	0x29c
 4762 086e 81080000 		.4byte	0x881
 4763 0872 00       		.byte	0
 4764 0873 19       		.uleb128 0x19
 4765 0874 200E0000 		.4byte	.LASF126
 4766 0878 08       		.byte	0x8
 4767 0879 9D02     		.2byte	0x29d
 4768 087b 91080000 		.4byte	0x891
 4769 087f 78       		.byte	0x78
 4770 0880 00       		.byte	0
 4771 0881 0C       		.uleb128 0xc
 4772 0882 7C030000 		.4byte	0x37c
 4773 0886 91080000 		.4byte	0x891
 4774 088a 0D       		.uleb128 0xd
 4775 088b 9B000000 		.4byte	0x9b
 4776 088f 1D       		.byte	0x1d
 4777 0890 00       		.byte	0
 4778 0891 0C       		.uleb128 0xc
 4779 0892 9B000000 		.4byte	0x9b
 4780 0896 A1080000 		.4byte	0x8a1
 4781 089a 0D       		.uleb128 0xd
 4782 089b 9B000000 		.4byte	0x9b
 4783 089f 1D       		.byte	0x1d
 4784 08a0 00       		.byte	0
 4785 08a1 1D       		.uleb128 0x1d
 4786 08a2 F0       		.byte	0xf0
 4787 08a3 08       		.byte	0x8
 4788 08a4 7E02     		.2byte	0x27e
 4789 08a6 C3080000 		.4byte	0x8c3
 4790 08aa 1E       		.uleb128 0x1e
 4791 08ab F5050000 		.4byte	.LASF76
 4792 08af 08       		.byte	0x8
 4793 08b0 9502     		.2byte	0x295
 4794 08b2 2C070000 		.4byte	0x72c
 4795 08b6 1E       		.uleb128 0x1e
 4796 08b7 3F030000 		.4byte	.LASF127
 4797 08bb 08       		.byte	0x8
ARM GAS  /tmp/cchERvVK.s 			page 86


 4798 08bc 9E02     		.2byte	0x29e
 4799 08be 5D080000 		.4byte	0x85d
 4800 08c2 00       		.byte	0
 4801 08c3 0C       		.uleb128 0xc
 4802 08c4 B3010000 		.4byte	0x1b3
 4803 08c8 D3080000 		.4byte	0x8d3
 4804 08cc 0D       		.uleb128 0xd
 4805 08cd 9B000000 		.4byte	0x9b
 4806 08d1 18       		.byte	0x18
 4807 08d2 00       		.byte	0
 4808 08d3 08       		.uleb128 0x8
 4809 08d4 541D0000 		.4byte	.LASF129
 4810 08d8 07       		.uleb128 0x7
 4811 08d9 04       		.byte	0x4
 4812 08da D3080000 		.4byte	0x8d3
 4813 08de 1F       		.uleb128 0x1f
 4814 08df E9080000 		.4byte	0x8e9
 4815 08e3 17       		.uleb128 0x17
 4816 08e4 CA040000 		.4byte	0x4ca
 4817 08e8 00       		.byte	0
 4818 08e9 07       		.uleb128 0x7
 4819 08ea 04       		.byte	0x4
 4820 08eb DE080000 		.4byte	0x8de
 4821 08ef 07       		.uleb128 0x7
 4822 08f0 04       		.byte	0x4
 4823 08f1 1D020000 		.4byte	0x21d
 4824 08f5 1F       		.uleb128 0x1f
 4825 08f6 00090000 		.4byte	0x900
 4826 08fa 17       		.uleb128 0x17
 4827 08fb 94000000 		.4byte	0x94
 4828 08ff 00       		.byte	0
 4829 0900 07       		.uleb128 0x7
 4830 0901 04       		.byte	0x4
 4831 0902 06090000 		.4byte	0x906
 4832 0906 07       		.uleb128 0x7
 4833 0907 04       		.byte	0x4
 4834 0908 F5080000 		.4byte	0x8f5
 4835 090c 0C       		.uleb128 0xc
 4836 090d 9A060000 		.4byte	0x69a
 4837 0911 1C090000 		.4byte	0x91c
 4838 0915 0D       		.uleb128 0xd
 4839 0916 9B000000 		.4byte	0x9b
 4840 091a 02       		.byte	0x2
 4841 091b 00       		.byte	0
 4842 091c 20       		.uleb128 0x20
 4843 091d F01C0000 		.4byte	.LASF130
 4844 0921 08       		.byte	0x8
 4845 0922 2E03     		.2byte	0x32e
 4846 0924 CA040000 		.4byte	0x4ca
 4847 0928 20       		.uleb128 0x20
 4848 0929 54220000 		.4byte	.LASF131
 4849 092d 08       		.byte	0x8
 4850 092e 2F03     		.2byte	0x32f
 4851 0930 D0040000 		.4byte	0x4d0
 4852 0934 07       		.uleb128 0x7
 4853 0935 04       		.byte	0x4
 4854 0936 3A090000 		.4byte	0x93a
ARM GAS  /tmp/cchERvVK.s 			page 87


 4855 093a 21       		.uleb128 0x21
 4856 093b 22       		.uleb128 0x22
 4857 093c B9190000 		.4byte	.LASF132
 4858 0940 09       		.byte	0x9
 4859 0941 63       		.byte	0x63
 4860 0942 AD010000 		.4byte	0x1ad
 4861 0946 03       		.uleb128 0x3
 4862 0947 00090000 		.4byte	.LASF133
 4863 094b 0A       		.byte	0xa
 4864 094c 28       		.byte	0x28
 4865 094d 51090000 		.4byte	0x951
 4866 0951 11       		.uleb128 0x11
 4867 0952 E1260000 		.4byte	.LASF134
 4868 0956 04       		.byte	0x4
 4869 0957 0B       		.byte	0xb
 4870 0958 00       		.byte	0
 4871 0959 68090000 		.4byte	0x968
 4872 095d 23       		.uleb128 0x23
 4873 095e D6220000 		.4byte	.LASF135
 4874 0962 AB010000 		.4byte	0x1ab
 4875 0966 00       		.byte	0
 4876 0967 00       		.byte	0
 4877 0968 03       		.uleb128 0x3
 4878 0969 110E0000 		.4byte	.LASF136
 4879 096d 0C       		.byte	0xc
 4880 096e 2E       		.byte	0x2e
 4881 096f 46090000 		.4byte	0x946
 4882 0973 03       		.uleb128 0x3
 4883 0974 B1200000 		.4byte	.LASF137
 4884 0978 0D       		.byte	0xd
 4885 0979 CD       		.byte	0xcd
 4886 097a 23010000 		.4byte	0x123
 4887 097e 03       		.uleb128 0x3
 4888 097f 890E0000 		.4byte	.LASF138
 4889 0983 0E       		.byte	0xe
 4890 0984 45       		.byte	0x45
 4891 0985 D2000000 		.4byte	0xd2
 4892 0989 03       		.uleb128 0x3
 4893 098a 85130000 		.4byte	.LASF139
 4894 098e 0E       		.byte	0xe
 4895 098f 48       		.byte	0x48
 4896 0990 A7000000 		.4byte	0xa7
 4897 0994 03       		.uleb128 0x3
 4898 0995 4B220000 		.4byte	.LASF140
 4899 0999 0E       		.byte	0xe
 4900 099a 49       		.byte	0x49
 4901 099b A7000000 		.4byte	0xa7
 4902 099f 03       		.uleb128 0x3
 4903 09a0 07130000 		.4byte	.LASF141
 4904 09a4 0E       		.byte	0xe
 4905 09a5 4A       		.byte	0x4a
 4906 09a6 A7000000 		.4byte	0xa7
 4907 09aa 03       		.uleb128 0x3
 4908 09ab 4C150000 		.4byte	.LASF142
 4909 09af 0E       		.byte	0xe
 4910 09b0 4B       		.byte	0x4b
 4911 09b1 A7000000 		.4byte	0xa7
ARM GAS  /tmp/cchERvVK.s 			page 88


 4912 09b5 03       		.uleb128 0x3
 4913 09b6 D9060000 		.4byte	.LASF143
 4914 09ba 0E       		.byte	0xe
 4915 09bb 4C       		.byte	0x4c
 4916 09bc D2000000 		.4byte	0xd2
 4917 09c0 03       		.uleb128 0x3
 4918 09c1 89000000 		.4byte	.LASF144
 4919 09c5 0E       		.byte	0xe
 4920 09c6 4D       		.byte	0x4d
 4921 09c7 C2000000 		.4byte	0xc2
 4922 09cb 03       		.uleb128 0x3
 4923 09cc AD190000 		.4byte	.LASF145
 4924 09d0 0E       		.byte	0xe
 4925 09d1 4F       		.byte	0x4f
 4926 09d2 D2000000 		.4byte	0xd2
 4927 09d6 03       		.uleb128 0x3
 4928 09d7 07240000 		.4byte	.LASF146
 4929 09db 0E       		.byte	0xe
 4930 09dc 50       		.byte	0x50
 4931 09dd D2000000 		.4byte	0xd2
 4932 09e1 03       		.uleb128 0x3
 4933 09e2 6F1C0000 		.4byte	.LASF147
 4934 09e6 0E       		.byte	0xe
 4935 09e7 51       		.byte	0x51
 4936 09e8 C2000000 		.4byte	0xc2
 4937 09ec 03       		.uleb128 0x3
 4938 09ed 3D040000 		.4byte	.LASF148
 4939 09f1 0F       		.byte	0xf
 4940 09f2 33       		.byte	0x33
 4941 09f3 D2000000 		.4byte	0xd2
 4942 09f7 06       		.uleb128 0x6
 4943 09f8 EC090000 		.4byte	0x9ec
 4944 09fc 03       		.uleb128 0x3
 4945 09fd C9030000 		.4byte	.LASF149
 4946 0a01 0F       		.byte	0xf
 4947 0a02 3F       		.byte	0x3f
 4948 0a03 070A0000 		.4byte	0xa07
 4949 0a07 11       		.uleb128 0x11
 4950 0a08 030A0000 		.4byte	.LASF150
 4951 0a0c 48       		.byte	0x48
 4952 0a0d 10       		.byte	0x10
 4953 0a0e C2       		.byte	0xc2
 4954 0a0f 0C0B0000 		.4byte	0xb0c
 4955 0a13 0F       		.uleb128 0xf
 4956 0a14 B7120000 		.4byte	.LASF151
 4957 0a18 10       		.byte	0x10
 4958 0a19 C3       		.byte	0xc3
 4959 0a1a 170B0000 		.4byte	0xb17
 4960 0a1e 00       		.byte	0
 4961 0a1f 0F       		.uleb128 0xf
 4962 0a20 8B0F0000 		.4byte	.LASF152
 4963 0a24 10       		.byte	0x10
 4964 0a25 C5       		.byte	0xc5
 4965 0a26 170B0000 		.4byte	0xb17
 4966 0a2a 04       		.byte	0x4
 4967 0a2b 0F       		.uleb128 0xf
 4968 0a2c E2110000 		.4byte	.LASF153
ARM GAS  /tmp/cchERvVK.s 			page 89


 4969 0a30 10       		.byte	0x10
 4970 0a31 C7       		.byte	0xc7
 4971 0a32 B5090000 		.4byte	0x9b5
 4972 0a36 08       		.byte	0x8
 4973 0a37 0F       		.uleb128 0xf
 4974 0a38 E10A0000 		.4byte	.LASF154
 4975 0a3c 10       		.byte	0x10
 4976 0a3d C8       		.byte	0xc8
 4977 0a3e E0110000 		.4byte	0x11e0
 4978 0a42 0C       		.byte	0xc
 4979 0a43 0F       		.uleb128 0xf
 4980 0a44 CE020000 		.4byte	.LASF155
 4981 0a48 10       		.byte	0x10
 4982 0a49 CA       		.byte	0xca
 4983 0a4a 170B0000 		.4byte	0xb17
 4984 0a4e 10       		.byte	0x10
 4985 0a4f 0F       		.uleb128 0xf
 4986 0a50 DF240000 		.4byte	.LASF156
 4987 0a54 10       		.byte	0x10
 4988 0a55 CB       		.byte	0xcb
 4989 0a56 170B0000 		.4byte	0xb17
 4990 0a5a 14       		.byte	0x14
 4991 0a5b 0F       		.uleb128 0xf
 4992 0a5c A3220000 		.4byte	.LASF157
 4993 0a60 10       		.byte	0x10
 4994 0a61 D2       		.byte	0xd2
 4995 0a62 2B060000 		.4byte	0x62b
 4996 0a66 18       		.byte	0x18
 4997 0a67 0F       		.uleb128 0xf
 4998 0a68 F8260000 		.4byte	.LASF158
 4999 0a6c 10       		.byte	0x10
 5000 0a6d DD       		.byte	0xdd
 5001 0a6e 94090000 		.4byte	0x994
 5002 0a72 1C       		.byte	0x1c
 5003 0a73 0F       		.uleb128 0xf
 5004 0a74 C9210000 		.4byte	.LASF159
 5005 0a78 10       		.byte	0x10
 5006 0a79 E1       		.byte	0xe1
 5007 0a7a 89090000 		.4byte	0x989
 5008 0a7e 1D       		.byte	0x1d
 5009 0a7f 0F       		.uleb128 0xf
 5010 0a80 E6170000 		.4byte	.LASF160
 5011 0a84 10       		.byte	0x10
 5012 0a85 E6       		.byte	0xe6
 5013 0a86 9F090000 		.4byte	0x99f
 5014 0a8a 1E       		.byte	0x1e
 5015 0a8b 0F       		.uleb128 0xf
 5016 0a8c 13160000 		.4byte	.LASF161
 5017 0a90 10       		.byte	0x10
 5018 0a91 EC       		.byte	0xec
 5019 0a92 AA090000 		.4byte	0x9aa
 5020 0a96 1F       		.byte	0x1f
 5021 0a97 0F       		.uleb128 0xf
 5022 0a98 1D160000 		.4byte	.LASF162
 5023 0a9c 10       		.byte	0x10
 5024 0a9d F3       		.byte	0xf3
 5025 0a9e F7090000 		.4byte	0x9f7
ARM GAS  /tmp/cchERvVK.s 			page 90


 5026 0aa2 20       		.byte	0x20
 5027 0aa3 24       		.uleb128 0x24
 5028 0aa4 705F7500 		.ascii	"p_u\000"
 5029 0aa8 10       		.byte	0x10
 5030 0aa9 3101     		.2byte	0x131
 5031 0aab 60130000 		.4byte	0x1360
 5032 0aaf 24       		.byte	0x24
 5033 0ab0 19       		.uleb128 0x19
 5034 0ab1 76050000 		.4byte	.LASF163
 5035 0ab5 10       		.byte	0x10
 5036 0ab6 3601     		.2byte	0x136
 5037 0ab8 1D0B0000 		.4byte	0xb1d
 5038 0abc 28       		.byte	0x28
 5039 0abd 19       		.uleb128 0x19
 5040 0abe 92160000 		.4byte	.LASF164
 5041 0ac2 10       		.byte	0x10
 5042 0ac3 3C01     		.2byte	0x13c
 5043 0ac5 410B0000 		.4byte	0xb41
 5044 0ac9 2C       		.byte	0x2c
 5045 0aca 19       		.uleb128 0x19
 5046 0acb ED070000 		.4byte	.LASF165
 5047 0acf 10       		.byte	0x10
 5048 0ad0 4001     		.2byte	0x140
 5049 0ad2 C0090000 		.4byte	0x9c0
 5050 0ad6 34       		.byte	0x34
 5051 0ad7 19       		.uleb128 0x19
 5052 0ad8 A61F0000 		.4byte	.LASF166
 5053 0adc 10       		.byte	0x10
 5054 0add 4601     		.2byte	0x146
 5055 0adf CB090000 		.4byte	0x9cb
 5056 0ae3 38       		.byte	0x38
 5057 0ae4 19       		.uleb128 0x19
 5058 0ae5 25220000 		.4byte	.LASF167
 5059 0ae9 10       		.byte	0x10
 5060 0aea 4D01     		.2byte	0x14d
 5061 0aec 1F140000 		.4byte	0x141f
 5062 0af0 3C       		.byte	0x3c
 5063 0af1 19       		.uleb128 0x19
 5064 0af2 EC1D0000 		.4byte	.LASF168
 5065 0af6 10       		.byte	0x10
 5066 0af7 5101     		.2byte	0x151
 5067 0af9 B5090000 		.4byte	0x9b5
 5068 0afd 40       		.byte	0x40
 5069 0afe 19       		.uleb128 0x19
 5070 0aff 0F130000 		.4byte	.LASF169
 5071 0b03 10       		.byte	0x10
 5072 0b04 5801     		.2byte	0x158
 5073 0b06 AB010000 		.4byte	0x1ab
 5074 0b0a 44       		.byte	0x44
 5075 0b0b 00       		.byte	0
 5076 0b0c 03       		.uleb128 0x3
 5077 0b0d 12250000 		.4byte	.LASF170
 5078 0b11 0F       		.byte	0xf
 5079 0b12 44       		.byte	0x44
 5080 0b13 170B0000 		.4byte	0xb17
 5081 0b17 07       		.uleb128 0x7
 5082 0b18 04       		.byte	0x4
ARM GAS  /tmp/cchERvVK.s 			page 91


 5083 0b19 FC090000 		.4byte	0x9fc
 5084 0b1d 03       		.uleb128 0x3
 5085 0b1e B1050000 		.4byte	.LASF171
 5086 0b22 0F       		.byte	0xf
 5087 0b23 49       		.byte	0x49
 5088 0b24 280B0000 		.4byte	0xb28
 5089 0b28 11       		.uleb128 0x11
 5090 0b29 00270000 		.4byte	.LASF172
 5091 0b2d 04       		.byte	0x4
 5092 0b2e 10       		.byte	0x10
 5093 0b2f B0       		.byte	0xb0
 5094 0b30 410B0000 		.4byte	0xb41
 5095 0b34 0F       		.uleb128 0xf
 5096 0b35 B7120000 		.4byte	.LASF151
 5097 0b39 10       		.byte	0x10
 5098 0b3a B1       		.byte	0xb1
 5099 0b3b 170B0000 		.4byte	0xb17
 5100 0b3f 00       		.byte	0
 5101 0b40 00       		.byte	0
 5102 0b41 03       		.uleb128 0x3
 5103 0b42 D6170000 		.4byte	.LASF173
 5104 0b46 0F       		.byte	0xf
 5105 0b47 50       		.byte	0x50
 5106 0b48 4C0B0000 		.4byte	0xb4c
 5107 0b4c 11       		.uleb128 0x11
 5108 0b4d 91020000 		.4byte	.LASF174
 5109 0b51 08       		.byte	0x8
 5110 0b52 10       		.byte	0x10
 5111 0b53 B7       		.byte	0xb7
 5112 0b54 710B0000 		.4byte	0xb71
 5113 0b58 0F       		.uleb128 0xf
 5114 0b59 B7120000 		.4byte	.LASF151
 5115 0b5d 10       		.byte	0x10
 5116 0b5e B8       		.byte	0xb8
 5117 0b5f 170B0000 		.4byte	0xb17
 5118 0b63 00       		.byte	0
 5119 0b64 0F       		.uleb128 0xf
 5120 0b65 8B0F0000 		.4byte	.LASF152
 5121 0b69 10       		.byte	0x10
 5122 0b6a B9       		.byte	0xb9
 5123 0b6b 170B0000 		.4byte	0xb17
 5124 0b6f 04       		.byte	0x4
 5125 0b70 00       		.byte	0
 5126 0b71 03       		.uleb128 0x3
 5127 0b72 F6090000 		.4byte	.LASF175
 5128 0b76 0F       		.byte	0xf
 5129 0b77 57       		.byte	0x57
 5130 0b78 7C0B0000 		.4byte	0xb7c
 5131 0b7c 1B       		.uleb128 0x1b
 5132 0b7d A51E0000 		.4byte	.LASF176
 5133 0b81 1C       		.byte	0x1c
 5134 0b82 10       		.byte	0x10
 5135 0b83 9001     		.2byte	0x190
 5136 0b85 D80B0000 		.4byte	0xbd8
 5137 0b89 19       		.uleb128 0x19
 5138 0b8a BC1A0000 		.4byte	.LASF177
 5139 0b8e 10       		.byte	0x10
ARM GAS  /tmp/cchERvVK.s 			page 92


 5140 0b8f 9101     		.2byte	0x191
 5141 0b91 410B0000 		.4byte	0xb41
 5142 0b95 00       		.byte	0
 5143 0b96 19       		.uleb128 0x19
 5144 0b97 93200000 		.4byte	.LASF178
 5145 0b9b 10       		.byte	0x10
 5146 0b9c 9201     		.2byte	0x192
 5147 0b9e B5090000 		.4byte	0x9b5
 5148 0ba2 08       		.byte	0x8
 5149 0ba3 19       		.uleb128 0x19
 5150 0ba4 6E0E0000 		.4byte	.LASF179
 5151 0ba8 10       		.byte	0x10
 5152 0ba9 9401     		.2byte	0x194
 5153 0bab E0110000 		.4byte	0x11e0
 5154 0baf 0C       		.byte	0xc
 5155 0bb0 19       		.uleb128 0x19
 5156 0bb1 B0140000 		.4byte	.LASF180
 5157 0bb5 10       		.byte	0x10
 5158 0bb6 9701     		.2byte	0x197
 5159 0bb8 170B0000 		.4byte	0xb17
 5160 0bbc 10       		.byte	0x10
 5161 0bbd 19       		.uleb128 0x19
 5162 0bbe 830F0000 		.4byte	.LASF181
 5163 0bc2 10       		.byte	0x10
 5164 0bc3 9801     		.2byte	0x198
 5165 0bc5 170B0000 		.4byte	0xb17
 5166 0bc9 14       		.byte	0x14
 5167 0bca 19       		.uleb128 0x19
 5168 0bcb 07110000 		.4byte	.LASF182
 5169 0bcf 10       		.byte	0x10
 5170 0bd0 9B01     		.2byte	0x19b
 5171 0bd2 170B0000 		.4byte	0xb17
 5172 0bd6 18       		.byte	0x18
 5173 0bd7 00       		.byte	0
 5174 0bd8 03       		.uleb128 0x3
 5175 0bd9 AE1D0000 		.4byte	.LASF183
 5176 0bdd 0F       		.byte	0xf
 5177 0bde 5C       		.byte	0x5c
 5178 0bdf E30B0000 		.4byte	0xbe3
 5179 0be3 07       		.uleb128 0x7
 5180 0be4 04       		.byte	0x4
 5181 0be5 E90B0000 		.4byte	0xbe9
 5182 0be9 1F       		.uleb128 0x1f
 5183 0bea F40B0000 		.4byte	0xbf4
 5184 0bee 17       		.uleb128 0x17
 5185 0bef AB010000 		.4byte	0x1ab
 5186 0bf3 00       		.byte	0
 5187 0bf4 03       		.uleb128 0x3
 5188 0bf5 5E0E0000 		.4byte	.LASF184
 5189 0bf9 0F       		.byte	0xf
 5190 0bfa 61       		.byte	0x61
 5191 0bfb FF0B0000 		.4byte	0xbff
 5192 0bff 1B       		.uleb128 0x1b
 5193 0c00 B8210000 		.4byte	.LASF185
 5194 0c04 14       		.byte	0x14
 5195 0c05 10       		.byte	0x10
 5196 0c06 6B01     		.2byte	0x16b
ARM GAS  /tmp/cchERvVK.s 			page 93


 5197 0c08 4E0C0000 		.4byte	0xc4e
 5198 0c0c 19       		.uleb128 0x19
 5199 0c0d 740E0000 		.4byte	.LASF186
 5200 0c11 10       		.byte	0x10
 5201 0c12 6C01     		.2byte	0x16c
 5202 0c14 25140000 		.4byte	0x1425
 5203 0c18 00       		.byte	0
 5204 0c19 19       		.uleb128 0x19
 5205 0c1a AB090000 		.4byte	.LASF187
 5206 0c1e 10       		.byte	0x10
 5207 0c1f 6D01     		.2byte	0x16d
 5208 0c21 25140000 		.4byte	0x1425
 5209 0c25 04       		.byte	0x4
 5210 0c26 19       		.uleb128 0x19
 5211 0c27 A3150000 		.4byte	.LASF188
 5212 0c2b 10       		.byte	0x10
 5213 0c2c 6E01     		.2byte	0x16e
 5214 0c2e EC090000 		.4byte	0x9ec
 5215 0c32 08       		.byte	0x8
 5216 0c33 19       		.uleb128 0x19
 5217 0c34 82210000 		.4byte	.LASF189
 5218 0c38 10       		.byte	0x10
 5219 0c39 6F01     		.2byte	0x16f
 5220 0c3b D80B0000 		.4byte	0xbd8
 5221 0c3f 0C       		.byte	0xc
 5222 0c40 19       		.uleb128 0x19
 5223 0c41 E70A0000 		.4byte	.LASF190
 5224 0c45 10       		.byte	0x10
 5225 0c46 7101     		.2byte	0x171
 5226 0c48 AB010000 		.4byte	0x1ab
 5227 0c4c 10       		.byte	0x10
 5228 0c4d 00       		.byte	0
 5229 0c4e 03       		.uleb128 0x3
 5230 0c4f EF220000 		.4byte	.LASF191
 5231 0c53 0F       		.byte	0xf
 5232 0c54 66       		.byte	0x66
 5233 0c55 590C0000 		.4byte	0xc59
 5234 0c59 1B       		.uleb128 0x1b
 5235 0c5a F6030000 		.4byte	.LASF192
 5236 0c5e 10       		.byte	0x10
 5237 0c5f 10       		.byte	0x10
 5238 0c60 7B01     		.2byte	0x17b
 5239 0c62 9B0C0000 		.4byte	0xc9b
 5240 0c66 19       		.uleb128 0x19
 5241 0c67 740E0000 		.4byte	.LASF186
 5242 0c6b 10       		.byte	0x10
 5243 0c6c 7C01     		.2byte	0x17c
 5244 0c6e 25140000 		.4byte	0x1425
 5245 0c72 00       		.byte	0
 5246 0c73 19       		.uleb128 0x19
 5247 0c74 AB090000 		.4byte	.LASF187
 5248 0c78 10       		.byte	0x10
 5249 0c79 7E01     		.2byte	0x17e
 5250 0c7b 25140000 		.4byte	0x1425
 5251 0c7f 04       		.byte	0x4
 5252 0c80 19       		.uleb128 0x19
 5253 0c81 A3150000 		.4byte	.LASF188
ARM GAS  /tmp/cchERvVK.s 			page 94


 5254 0c85 10       		.byte	0x10
 5255 0c86 8001     		.2byte	0x180
 5256 0c88 EC090000 		.4byte	0x9ec
 5257 0c8c 08       		.byte	0x8
 5258 0c8d 19       		.uleb128 0x19
 5259 0c8e 67010000 		.4byte	.LASF193
 5260 0c92 10       		.byte	0x10
 5261 0c93 8201     		.2byte	0x182
 5262 0c95 F7090000 		.4byte	0x9f7
 5263 0c99 0C       		.byte	0xc
 5264 0c9a 00       		.byte	0
 5265 0c9b 03       		.uleb128 0x3
 5266 0c9c B70A0000 		.4byte	.LASF194
 5267 0ca0 0F       		.byte	0xf
 5268 0ca1 6B       		.byte	0x6b
 5269 0ca2 A60C0000 		.4byte	0xca6
 5270 0ca6 1B       		.uleb128 0x1b
 5271 0ca7 DB1E0000 		.4byte	.LASF195
 5272 0cab 04       		.byte	0x4
 5273 0cac 10       		.byte	0x10
 5274 0cad A201     		.2byte	0x1a2
 5275 0caf C10C0000 		.4byte	0xcc1
 5276 0cb3 19       		.uleb128 0x19
 5277 0cb4 99140000 		.4byte	.LASF196
 5278 0cb8 10       		.byte	0x10
 5279 0cb9 AA01     		.2byte	0x1aa
 5280 0cbb 31060000 		.4byte	0x631
 5281 0cbf 00       		.byte	0
 5282 0cc0 00       		.byte	0
 5283 0cc1 03       		.uleb128 0x3
 5284 0cc2 E3000000 		.4byte	.LASF197
 5285 0cc6 0F       		.byte	0xf
 5286 0cc7 70       		.byte	0x70
 5287 0cc8 CC0C0000 		.4byte	0xccc
 5288 0ccc 18       		.uleb128 0x18
 5289 0ccd 4C170000 		.4byte	.LASF198
 5290 0cd1 5802     		.2byte	0x258
 5291 0cd3 10       		.byte	0x10
 5292 0cd4 C201     		.2byte	0x1c2
 5293 0cd6 280D0000 		.4byte	0xd28
 5294 0cda 19       		.uleb128 0x19
 5295 0cdb AB050000 		.4byte	.LASF199
 5296 0cdf 10       		.byte	0x10
 5297 0ce0 C601     		.2byte	0x1c6
 5298 0ce2 710B0000 		.4byte	0xb71
 5299 0ce6 00       		.byte	0
 5300 0ce7 19       		.uleb128 0x19
 5301 0ce8 51050000 		.4byte	.LASF200
 5302 0cec 10       		.byte	0x10
 5303 0ced CA01     		.2byte	0x1ca
 5304 0cef 4E0C0000 		.4byte	0xc4e
 5305 0cf3 1C       		.byte	0x1c
 5306 0cf4 24       		.uleb128 0x24
 5307 0cf5 64626700 		.ascii	"dbg\000"
 5308 0cf9 10       		.byte	0x10
 5309 0cfa CE01     		.2byte	0x1ce
 5310 0cfc 9B0C0000 		.4byte	0xc9b
ARM GAS  /tmp/cchERvVK.s 			page 95


 5311 0d00 2C       		.byte	0x2c
 5312 0d01 19       		.uleb128 0x19
 5313 0d02 16180000 		.4byte	.LASF201
 5314 0d06 10       		.byte	0x10
 5315 0d07 D201     		.2byte	0x1d2
 5316 0d09 FC090000 		.4byte	0x9fc
 5317 0d0d 30       		.byte	0x30
 5318 0d0e 24       		.uleb128 0x24
 5319 0d0f 746D00   		.ascii	"tm\000"
 5320 0d12 10       		.byte	0x10
 5321 0d13 D701     		.2byte	0x1d7
 5322 0d15 55130000 		.4byte	0x1355
 5323 0d19 78       		.byte	0x78
 5324 0d1a 19       		.uleb128 0x19
 5325 0d1b 54210000 		.4byte	.LASF202
 5326 0d1f 10       		.byte	0x10
 5327 0d20 E301     		.2byte	0x1e3
 5328 0d22 2B140000 		.4byte	0x142b
 5329 0d26 80       		.byte	0x80
 5330 0d27 00       		.byte	0
 5331 0d28 0C       		.uleb128 0xc
 5332 0d29 D2000000 		.4byte	0xd2
 5333 0d2d 380D0000 		.4byte	0xd38
 5334 0d31 0D       		.uleb128 0xd
 5335 0d32 9B000000 		.4byte	0x9b
 5336 0d36 07       		.byte	0x7
 5337 0d37 00       		.byte	0
 5338 0d38 20       		.uleb128 0x20
 5339 0d39 C4200000 		.4byte	.LASF203
 5340 0d3d 11       		.byte	0x11
 5341 0d3e A706     		.2byte	0x6a7
 5342 0d40 CD000000 		.4byte	0xcd
 5343 0d44 22       		.uleb128 0x22
 5344 0d45 CD160000 		.4byte	.LASF204
 5345 0d49 12       		.byte	0x12
 5346 0d4a 4C       		.byte	0x4c
 5347 0d4b D2000000 		.4byte	0xd2
 5348 0d4f 0E       		.uleb128 0xe
 5349 0d50 10       		.byte	0x10
 5350 0d51 13       		.byte	0x13
 5351 0d52 E9       		.byte	0xe9
 5352 0d53 880D0000 		.4byte	0xd88
 5353 0d57 12       		.uleb128 0x12
 5354 0d58 54495200 		.ascii	"TIR\000"
 5355 0d5c 13       		.byte	0x13
 5356 0d5d EB       		.byte	0xeb
 5357 0d5e DD000000 		.4byte	0xdd
 5358 0d62 00       		.byte	0
 5359 0d63 0F       		.uleb128 0xf
 5360 0d64 7E110000 		.4byte	.LASF205
 5361 0d68 13       		.byte	0x13
 5362 0d69 EC       		.byte	0xec
 5363 0d6a DD000000 		.4byte	0xdd
 5364 0d6e 04       		.byte	0x4
 5365 0d6f 0F       		.uleb128 0xf
 5366 0d70 08180000 		.4byte	.LASF206
 5367 0d74 13       		.byte	0x13
ARM GAS  /tmp/cchERvVK.s 			page 96


 5368 0d75 ED       		.byte	0xed
 5369 0d76 DD000000 		.4byte	0xdd
 5370 0d7a 08       		.byte	0x8
 5371 0d7b 0F       		.uleb128 0xf
 5372 0d7c 24160000 		.4byte	.LASF207
 5373 0d80 13       		.byte	0x13
 5374 0d81 EE       		.byte	0xee
 5375 0d82 DD000000 		.4byte	0xdd
 5376 0d86 0C       		.byte	0xc
 5377 0d87 00       		.byte	0
 5378 0d88 03       		.uleb128 0x3
 5379 0d89 95050000 		.4byte	.LASF208
 5380 0d8d 13       		.byte	0x13
 5381 0d8e EF       		.byte	0xef
 5382 0d8f 4F0D0000 		.4byte	0xd4f
 5383 0d93 0E       		.uleb128 0xe
 5384 0d94 10       		.byte	0x10
 5385 0d95 13       		.byte	0x13
 5386 0d96 F5       		.byte	0xf5
 5387 0d97 CC0D0000 		.4byte	0xdcc
 5388 0d9b 12       		.uleb128 0x12
 5389 0d9c 52495200 		.ascii	"RIR\000"
 5390 0da0 13       		.byte	0x13
 5391 0da1 F7       		.byte	0xf7
 5392 0da2 DD000000 		.4byte	0xdd
 5393 0da6 00       		.byte	0
 5394 0da7 0F       		.uleb128 0xf
 5395 0da8 861E0000 		.4byte	.LASF209
 5396 0dac 13       		.byte	0x13
 5397 0dad F8       		.byte	0xf8
 5398 0dae DD000000 		.4byte	0xdd
 5399 0db2 04       		.byte	0x4
 5400 0db3 0F       		.uleb128 0xf
 5401 0db4 9F190000 		.4byte	.LASF210
 5402 0db8 13       		.byte	0x13
 5403 0db9 F9       		.byte	0xf9
 5404 0dba DD000000 		.4byte	0xdd
 5405 0dbe 08       		.byte	0x8
 5406 0dbf 0F       		.uleb128 0xf
 5407 0dc0 3B170000 		.4byte	.LASF211
 5408 0dc4 13       		.byte	0x13
 5409 0dc5 FA       		.byte	0xfa
 5410 0dc6 DD000000 		.4byte	0xdd
 5411 0dca 0C       		.byte	0xc
 5412 0dcb 00       		.byte	0
 5413 0dcc 03       		.uleb128 0x3
 5414 0dcd B71D0000 		.4byte	.LASF212
 5415 0dd1 13       		.byte	0x13
 5416 0dd2 FB       		.byte	0xfb
 5417 0dd3 930D0000 		.4byte	0xd93
 5418 0dd7 1C       		.uleb128 0x1c
 5419 0dd8 08       		.byte	0x8
 5420 0dd9 13       		.byte	0x13
 5421 0dda 0101     		.2byte	0x101
 5422 0ddc FB0D0000 		.4byte	0xdfb
 5423 0de0 24       		.uleb128 0x24
 5424 0de1 46523100 		.ascii	"FR1\000"
ARM GAS  /tmp/cchERvVK.s 			page 97


 5425 0de5 13       		.byte	0x13
 5426 0de6 0301     		.2byte	0x103
 5427 0de8 DD000000 		.4byte	0xdd
 5428 0dec 00       		.byte	0
 5429 0ded 24       		.uleb128 0x24
 5430 0dee 46523200 		.ascii	"FR2\000"
 5431 0df2 13       		.byte	0x13
 5432 0df3 0401     		.2byte	0x104
 5433 0df5 DD000000 		.4byte	0xdd
 5434 0df9 04       		.byte	0x4
 5435 0dfa 00       		.byte	0
 5436 0dfb 09       		.uleb128 0x9
 5437 0dfc 8C110000 		.4byte	.LASF213
 5438 0e00 13       		.byte	0x13
 5439 0e01 0501     		.2byte	0x105
 5440 0e03 D70D0000 		.4byte	0xdd7
 5441 0e07 25       		.uleb128 0x25
 5442 0e08 2003     		.2byte	0x320
 5443 0e0a 13       		.byte	0x13
 5444 0e0b 0B01     		.2byte	0x10b
 5445 0e0d 3D0F0000 		.4byte	0xf3d
 5446 0e11 24       		.uleb128 0x24
 5447 0e12 4D435200 		.ascii	"MCR\000"
 5448 0e16 13       		.byte	0x13
 5449 0e17 0D01     		.2byte	0x10d
 5450 0e19 DD000000 		.4byte	0xdd
 5451 0e1d 00       		.byte	0
 5452 0e1e 24       		.uleb128 0x24
 5453 0e1f 4D535200 		.ascii	"MSR\000"
 5454 0e23 13       		.byte	0x13
 5455 0e24 0E01     		.2byte	0x10e
 5456 0e26 DD000000 		.4byte	0xdd
 5457 0e2a 04       		.byte	0x4
 5458 0e2b 24       		.uleb128 0x24
 5459 0e2c 54535200 		.ascii	"TSR\000"
 5460 0e30 13       		.byte	0x13
 5461 0e31 0F01     		.2byte	0x10f
 5462 0e33 DD000000 		.4byte	0xdd
 5463 0e37 08       		.byte	0x8
 5464 0e38 19       		.uleb128 0x19
 5465 0e39 17100000 		.4byte	.LASF214
 5466 0e3d 13       		.byte	0x13
 5467 0e3e 1001     		.2byte	0x110
 5468 0e40 DD000000 		.4byte	0xdd
 5469 0e44 0C       		.byte	0xc
 5470 0e45 19       		.uleb128 0x19
 5471 0e46 D2190000 		.4byte	.LASF215
 5472 0e4a 13       		.byte	0x13
 5473 0e4b 1101     		.2byte	0x111
 5474 0e4d DD000000 		.4byte	0xdd
 5475 0e51 10       		.byte	0x10
 5476 0e52 24       		.uleb128 0x24
 5477 0e53 49455200 		.ascii	"IER\000"
 5478 0e57 13       		.byte	0x13
 5479 0e58 1201     		.2byte	0x112
 5480 0e5a DD000000 		.4byte	0xdd
 5481 0e5e 14       		.byte	0x14
ARM GAS  /tmp/cchERvVK.s 			page 98


 5482 0e5f 24       		.uleb128 0x24
 5483 0e60 45535200 		.ascii	"ESR\000"
 5484 0e64 13       		.byte	0x13
 5485 0e65 1301     		.2byte	0x113
 5486 0e67 DD000000 		.4byte	0xdd
 5487 0e6b 18       		.byte	0x18
 5488 0e6c 24       		.uleb128 0x24
 5489 0e6d 42545200 		.ascii	"BTR\000"
 5490 0e71 13       		.byte	0x13
 5491 0e72 1401     		.2byte	0x114
 5492 0e74 DD000000 		.4byte	0xdd
 5493 0e78 1C       		.byte	0x1c
 5494 0e79 19       		.uleb128 0x19
 5495 0e7a EE1F0000 		.4byte	.LASF216
 5496 0e7e 13       		.byte	0x13
 5497 0e7f 1501     		.2byte	0x115
 5498 0e81 3D0F0000 		.4byte	0xf3d
 5499 0e85 20       		.byte	0x20
 5500 0e86 1A       		.uleb128 0x1a
 5501 0e87 98120000 		.4byte	.LASF217
 5502 0e8b 13       		.byte	0x13
 5503 0e8c 1601     		.2byte	0x116
 5504 0e8e 4D0F0000 		.4byte	0xf4d
 5505 0e92 8001     		.2byte	0x180
 5506 0e94 1A       		.uleb128 0x1a
 5507 0e95 73240000 		.4byte	.LASF218
 5508 0e99 13       		.byte	0x13
 5509 0e9a 1701     		.2byte	0x117
 5510 0e9c 5D0F0000 		.4byte	0xf5d
 5511 0ea0 B001     		.2byte	0x1b0
 5512 0ea2 1A       		.uleb128 0x1a
 5513 0ea3 F81F0000 		.4byte	.LASF219
 5514 0ea7 13       		.byte	0x13
 5515 0ea8 1801     		.2byte	0x118
 5516 0eaa 6D0F0000 		.4byte	0xf6d
 5517 0eae D001     		.2byte	0x1d0
 5518 0eb0 26       		.uleb128 0x26
 5519 0eb1 464D5200 		.ascii	"FMR\000"
 5520 0eb5 13       		.byte	0x13
 5521 0eb6 1901     		.2byte	0x119
 5522 0eb8 DD000000 		.4byte	0xdd
 5523 0ebc 0002     		.2byte	0x200
 5524 0ebe 1A       		.uleb128 0x1a
 5525 0ebf 770B0000 		.4byte	.LASF220
 5526 0ec3 13       		.byte	0x13
 5527 0ec4 1A01     		.2byte	0x11a
 5528 0ec6 DD000000 		.4byte	0xdd
 5529 0eca 0402     		.2byte	0x204
 5530 0ecc 1A       		.uleb128 0x1a
 5531 0ecd 02200000 		.4byte	.LASF221
 5532 0ed1 13       		.byte	0x13
 5533 0ed2 1B01     		.2byte	0x11b
 5534 0ed4 D2000000 		.4byte	0xd2
 5535 0ed8 0802     		.2byte	0x208
 5536 0eda 1A       		.uleb128 0x1a
 5537 0edb 46220000 		.4byte	.LASF222
 5538 0edf 13       		.byte	0x13
ARM GAS  /tmp/cchERvVK.s 			page 99


 5539 0ee0 1C01     		.2byte	0x11c
 5540 0ee2 DD000000 		.4byte	0xdd
 5541 0ee6 0C02     		.2byte	0x20c
 5542 0ee8 1A       		.uleb128 0x1a
 5543 0ee9 0C200000 		.4byte	.LASF223
 5544 0eed 13       		.byte	0x13
 5545 0eee 1D01     		.2byte	0x11d
 5546 0ef0 D2000000 		.4byte	0xd2
 5547 0ef4 1002     		.2byte	0x210
 5548 0ef6 1A       		.uleb128 0x1a
 5549 0ef7 CC190000 		.4byte	.LASF224
 5550 0efb 13       		.byte	0x13
 5551 0efc 1E01     		.2byte	0x11e
 5552 0efe DD000000 		.4byte	0xdd
 5553 0f02 1402     		.2byte	0x214
 5554 0f04 1A       		.uleb128 0x1a
 5555 0f05 16200000 		.4byte	.LASF225
 5556 0f09 13       		.byte	0x13
 5557 0f0a 1F01     		.2byte	0x11f
 5558 0f0c D2000000 		.4byte	0xd2
 5559 0f10 1802     		.2byte	0x218
 5560 0f12 1A       		.uleb128 0x1a
 5561 0f13 8D040000 		.4byte	.LASF226
 5562 0f17 13       		.byte	0x13
 5563 0f18 2001     		.2byte	0x120
 5564 0f1a DD000000 		.4byte	0xdd
 5565 0f1e 1C02     		.2byte	0x21c
 5566 0f20 1A       		.uleb128 0x1a
 5567 0f21 20200000 		.4byte	.LASF227
 5568 0f25 13       		.byte	0x13
 5569 0f26 2101     		.2byte	0x121
 5570 0f28 280D0000 		.4byte	0xd28
 5571 0f2c 2002     		.2byte	0x220
 5572 0f2e 1A       		.uleb128 0x1a
 5573 0f2f 3D060000 		.4byte	.LASF228
 5574 0f33 13       		.byte	0x13
 5575 0f34 2201     		.2byte	0x122
 5576 0f36 7D0F0000 		.4byte	0xf7d
 5577 0f3a 4002     		.2byte	0x240
 5578 0f3c 00       		.byte	0
 5579 0f3d 0C       		.uleb128 0xc
 5580 0f3e D2000000 		.4byte	0xd2
 5581 0f42 4D0F0000 		.4byte	0xf4d
 5582 0f46 0D       		.uleb128 0xd
 5583 0f47 9B000000 		.4byte	0x9b
 5584 0f4b 57       		.byte	0x57
 5585 0f4c 00       		.byte	0
 5586 0f4d 0C       		.uleb128 0xc
 5587 0f4e 880D0000 		.4byte	0xd88
 5588 0f52 5D0F0000 		.4byte	0xf5d
 5589 0f56 0D       		.uleb128 0xd
 5590 0f57 9B000000 		.4byte	0x9b
 5591 0f5b 02       		.byte	0x2
 5592 0f5c 00       		.byte	0
 5593 0f5d 0C       		.uleb128 0xc
 5594 0f5e CC0D0000 		.4byte	0xdcc
 5595 0f62 6D0F0000 		.4byte	0xf6d
ARM GAS  /tmp/cchERvVK.s 			page 100


 5596 0f66 0D       		.uleb128 0xd
 5597 0f67 9B000000 		.4byte	0x9b
 5598 0f6b 01       		.byte	0x1
 5599 0f6c 00       		.byte	0
 5600 0f6d 0C       		.uleb128 0xc
 5601 0f6e D2000000 		.4byte	0xd2
 5602 0f72 7D0F0000 		.4byte	0xf7d
 5603 0f76 0D       		.uleb128 0xd
 5604 0f77 9B000000 		.4byte	0x9b
 5605 0f7b 0B       		.byte	0xb
 5606 0f7c 00       		.byte	0
 5607 0f7d 0C       		.uleb128 0xc
 5608 0f7e FB0D0000 		.4byte	0xdfb
 5609 0f82 8D0F0000 		.4byte	0xf8d
 5610 0f86 0D       		.uleb128 0xd
 5611 0f87 9B000000 		.4byte	0x9b
 5612 0f8b 1B       		.byte	0x1b
 5613 0f8c 00       		.byte	0
 5614 0f8d 09       		.uleb128 0x9
 5615 0f8e F00E0000 		.4byte	.LASF229
 5616 0f92 13       		.byte	0x13
 5617 0f93 2301     		.2byte	0x123
 5618 0f95 070E0000 		.4byte	0xe07
 5619 0f99 1C       		.uleb128 0x1c
 5620 0f9a 18       		.byte	0x18
 5621 0f9b 13       		.byte	0x13
 5622 0f9c 6B01     		.2byte	0x16b
 5623 0f9e F00F0000 		.4byte	0xff0
 5624 0fa2 24       		.uleb128 0x24
 5625 0fa3 435200   		.ascii	"CR\000"
 5626 0fa6 13       		.byte	0x13
 5627 0fa7 6D01     		.2byte	0x16d
 5628 0fa9 DD000000 		.4byte	0xdd
 5629 0fad 00       		.byte	0
 5630 0fae 19       		.uleb128 0x19
 5631 0faf 30210000 		.4byte	.LASF230
 5632 0fb3 13       		.byte	0x13
 5633 0fb4 6E01     		.2byte	0x16e
 5634 0fb6 DD000000 		.4byte	0xdd
 5635 0fba 04       		.byte	0x4
 5636 0fbb 24       		.uleb128 0x24
 5637 0fbc 50415200 		.ascii	"PAR\000"
 5638 0fc0 13       		.byte	0x13
 5639 0fc1 6F01     		.2byte	0x16f
 5640 0fc3 DD000000 		.4byte	0xdd
 5641 0fc7 08       		.byte	0x8
 5642 0fc8 19       		.uleb128 0x19
 5643 0fc9 66040000 		.4byte	.LASF231
 5644 0fcd 13       		.byte	0x13
 5645 0fce 7001     		.2byte	0x170
 5646 0fd0 DD000000 		.4byte	0xdd
 5647 0fd4 0C       		.byte	0xc
 5648 0fd5 19       		.uleb128 0x19
 5649 0fd6 10080000 		.4byte	.LASF232
 5650 0fda 13       		.byte	0x13
 5651 0fdb 7101     		.2byte	0x171
 5652 0fdd DD000000 		.4byte	0xdd
ARM GAS  /tmp/cchERvVK.s 			page 101


 5653 0fe1 10       		.byte	0x10
 5654 0fe2 24       		.uleb128 0x24
 5655 0fe3 46435200 		.ascii	"FCR\000"
 5656 0fe7 13       		.byte	0x13
 5657 0fe8 7201     		.2byte	0x172
 5658 0fea DD000000 		.4byte	0xdd
 5659 0fee 14       		.byte	0x14
 5660 0fef 00       		.byte	0
 5661 0ff0 09       		.uleb128 0x9
 5662 0ff1 1A080000 		.4byte	.LASF233
 5663 0ff5 13       		.byte	0x13
 5664 0ff6 7301     		.2byte	0x173
 5665 0ff8 990F0000 		.4byte	0xf99
 5666 0ffc 0C       		.uleb128 0xc
 5667 0ffd DD000000 		.4byte	0xdd
 5668 1001 0C100000 		.4byte	0x100c
 5669 1005 0D       		.uleb128 0xd
 5670 1006 9B000000 		.4byte	0x9b
 5671 100a 01       		.byte	0x1
 5672 100b 00       		.byte	0
 5673 100c 06       		.uleb128 0x6
 5674 100d FC0F0000 		.4byte	0xffc
 5675 1011 0C       		.uleb128 0xc
 5676 1012 DD000000 		.4byte	0xdd
 5677 1016 21100000 		.4byte	0x1021
 5678 101a 0D       		.uleb128 0xd
 5679 101b 9B000000 		.4byte	0x9b
 5680 101f 03       		.byte	0x3
 5681 1020 00       		.byte	0
 5682 1021 06       		.uleb128 0x6
 5683 1022 11100000 		.4byte	0x1011
 5684 1026 1C       		.uleb128 0x1c
 5685 1027 28       		.byte	0x28
 5686 1028 13       		.byte	0x13
 5687 1029 3F02     		.2byte	0x23f
 5688 102b B1100000 		.4byte	0x10b1
 5689 102f 24       		.uleb128 0x24
 5690 1030 43523100 		.ascii	"CR1\000"
 5691 1034 13       		.byte	0x13
 5692 1035 4102     		.2byte	0x241
 5693 1037 DD000000 		.4byte	0xdd
 5694 103b 00       		.byte	0
 5695 103c 24       		.uleb128 0x24
 5696 103d 43523200 		.ascii	"CR2\000"
 5697 1041 13       		.byte	0x13
 5698 1042 4202     		.2byte	0x242
 5699 1044 DD000000 		.4byte	0xdd
 5700 1048 04       		.byte	0x4
 5701 1049 19       		.uleb128 0x19
 5702 104a 10270000 		.4byte	.LASF234
 5703 104e 13       		.byte	0x13
 5704 104f 4302     		.2byte	0x243
 5705 1051 DD000000 		.4byte	0xdd
 5706 1055 08       		.byte	0x8
 5707 1056 19       		.uleb128 0x19
 5708 1057 15270000 		.4byte	.LASF235
 5709 105b 13       		.byte	0x13
ARM GAS  /tmp/cchERvVK.s 			page 102


 5710 105c 4402     		.2byte	0x244
 5711 105e DD000000 		.4byte	0xdd
 5712 1062 0C       		.byte	0xc
 5713 1063 24       		.uleb128 0x24
 5714 1064 445200   		.ascii	"DR\000"
 5715 1067 13       		.byte	0x13
 5716 1068 4502     		.2byte	0x245
 5717 106a DD000000 		.4byte	0xdd
 5718 106e 10       		.byte	0x10
 5719 106f 24       		.uleb128 0x24
 5720 1070 53523100 		.ascii	"SR1\000"
 5721 1074 13       		.byte	0x13
 5722 1075 4602     		.2byte	0x246
 5723 1077 DD000000 		.4byte	0xdd
 5724 107b 14       		.byte	0x14
 5725 107c 24       		.uleb128 0x24
 5726 107d 53523200 		.ascii	"SR2\000"
 5727 1081 13       		.byte	0x13
 5728 1082 4702     		.2byte	0x247
 5729 1084 DD000000 		.4byte	0xdd
 5730 1088 18       		.byte	0x18
 5731 1089 24       		.uleb128 0x24
 5732 108a 43435200 		.ascii	"CCR\000"
 5733 108e 13       		.byte	0x13
 5734 108f 4802     		.2byte	0x248
 5735 1091 DD000000 		.4byte	0xdd
 5736 1095 1C       		.byte	0x1c
 5737 1096 19       		.uleb128 0x19
 5738 1097 67050000 		.4byte	.LASF236
 5739 109b 13       		.byte	0x13
 5740 109c 4902     		.2byte	0x249
 5741 109e DD000000 		.4byte	0xdd
 5742 10a2 20       		.byte	0x20
 5743 10a3 19       		.uleb128 0x19
 5744 10a4 AF250000 		.4byte	.LASF237
 5745 10a8 13       		.byte	0x13
 5746 10a9 4A02     		.2byte	0x24a
 5747 10ab DD000000 		.4byte	0xdd
 5748 10af 24       		.byte	0x24
 5749 10b0 00       		.byte	0
 5750 10b1 09       		.uleb128 0x9
 5751 10b2 1C130000 		.4byte	.LASF238
 5752 10b6 13       		.byte	0x13
 5753 10b7 4B02     		.2byte	0x24b
 5754 10b9 26100000 		.4byte	0x1026
 5755 10bd 1C       		.uleb128 0x1c
 5756 10be 24       		.byte	0x24
 5757 10bf 13       		.byte	0x13
 5758 10c0 DB02     		.2byte	0x2db
 5759 10c2 3A110000 		.4byte	0x113a
 5760 10c6 24       		.uleb128 0x24
 5761 10c7 43523100 		.ascii	"CR1\000"
 5762 10cb 13       		.byte	0x13
 5763 10cc DD02     		.2byte	0x2dd
 5764 10ce DD000000 		.4byte	0xdd
 5765 10d2 00       		.byte	0
 5766 10d3 24       		.uleb128 0x24
ARM GAS  /tmp/cchERvVK.s 			page 103


 5767 10d4 43523200 		.ascii	"CR2\000"
 5768 10d8 13       		.byte	0x13
 5769 10d9 DE02     		.2byte	0x2de
 5770 10db DD000000 		.4byte	0xdd
 5771 10df 04       		.byte	0x4
 5772 10e0 24       		.uleb128 0x24
 5773 10e1 535200   		.ascii	"SR\000"
 5774 10e4 13       		.byte	0x13
 5775 10e5 DF02     		.2byte	0x2df
 5776 10e7 DD000000 		.4byte	0xdd
 5777 10eb 08       		.byte	0x8
 5778 10ec 24       		.uleb128 0x24
 5779 10ed 445200   		.ascii	"DR\000"
 5780 10f0 13       		.byte	0x13
 5781 10f1 E002     		.2byte	0x2e0
 5782 10f3 DD000000 		.4byte	0xdd
 5783 10f7 0C       		.byte	0xc
 5784 10f8 19       		.uleb128 0x19
 5785 10f9 C7070000 		.4byte	.LASF239
 5786 10fd 13       		.byte	0x13
 5787 10fe E102     		.2byte	0x2e1
 5788 1100 DD000000 		.4byte	0xdd
 5789 1104 10       		.byte	0x10
 5790 1105 19       		.uleb128 0x19
 5791 1106 340C0000 		.4byte	.LASF240
 5792 110a 13       		.byte	0x13
 5793 110b E202     		.2byte	0x2e2
 5794 110d DD000000 		.4byte	0xdd
 5795 1111 14       		.byte	0x14
 5796 1112 19       		.uleb128 0x19
 5797 1113 230B0000 		.4byte	.LASF241
 5798 1117 13       		.byte	0x13
 5799 1118 E302     		.2byte	0x2e3
 5800 111a DD000000 		.4byte	0xdd
 5801 111e 18       		.byte	0x18
 5802 111f 19       		.uleb128 0x19
 5803 1120 53230000 		.4byte	.LASF242
 5804 1124 13       		.byte	0x13
 5805 1125 E402     		.2byte	0x2e4
 5806 1127 DD000000 		.4byte	0xdd
 5807 112b 1C       		.byte	0x1c
 5808 112c 19       		.uleb128 0x19
 5809 112d 9C070000 		.4byte	.LASF243
 5810 1131 13       		.byte	0x13
 5811 1132 E502     		.2byte	0x2e5
 5812 1134 DD000000 		.4byte	0xdd
 5813 1138 20       		.byte	0x20
 5814 1139 00       		.byte	0
 5815 113a 09       		.uleb128 0x9
 5816 113b 76210000 		.4byte	.LASF244
 5817 113f 13       		.byte	0x13
 5818 1140 E602     		.2byte	0x2e6
 5819 1142 BD100000 		.4byte	0x10bd
 5820 1146 1C       		.uleb128 0x1c
 5821 1147 1C       		.byte	0x1c
 5822 1148 13       		.byte	0x13
 5823 1149 0903     		.2byte	0x309
ARM GAS  /tmp/cchERvVK.s 			page 104


 5824 114b A9110000 		.4byte	0x11a9
 5825 114f 24       		.uleb128 0x24
 5826 1150 535200   		.ascii	"SR\000"
 5827 1153 13       		.byte	0x13
 5828 1154 0B03     		.2byte	0x30b
 5829 1156 DD000000 		.4byte	0xdd
 5830 115a 00       		.byte	0
 5831 115b 24       		.uleb128 0x24
 5832 115c 445200   		.ascii	"DR\000"
 5833 115f 13       		.byte	0x13
 5834 1160 0C03     		.2byte	0x30c
 5835 1162 DD000000 		.4byte	0xdd
 5836 1166 04       		.byte	0x4
 5837 1167 24       		.uleb128 0x24
 5838 1168 42525200 		.ascii	"BRR\000"
 5839 116c 13       		.byte	0x13
 5840 116d 0D03     		.2byte	0x30d
 5841 116f DD000000 		.4byte	0xdd
 5842 1173 08       		.byte	0x8
 5843 1174 24       		.uleb128 0x24
 5844 1175 43523100 		.ascii	"CR1\000"
 5845 1179 13       		.byte	0x13
 5846 117a 0E03     		.2byte	0x30e
 5847 117c DD000000 		.4byte	0xdd
 5848 1180 0C       		.byte	0xc
 5849 1181 24       		.uleb128 0x24
 5850 1182 43523200 		.ascii	"CR2\000"
 5851 1186 13       		.byte	0x13
 5852 1187 0F03     		.2byte	0x30f
 5853 1189 DD000000 		.4byte	0xdd
 5854 118d 10       		.byte	0x10
 5855 118e 24       		.uleb128 0x24
 5856 118f 43523300 		.ascii	"CR3\000"
 5857 1193 13       		.byte	0x13
 5858 1194 1003     		.2byte	0x310
 5859 1196 DD000000 		.4byte	0xdd
 5860 119a 14       		.byte	0x14
 5861 119b 19       		.uleb128 0x19
 5862 119c 28100000 		.4byte	.LASF245
 5863 11a0 13       		.byte	0x13
 5864 11a1 1103     		.2byte	0x311
 5865 11a3 DD000000 		.4byte	0xdd
 5866 11a7 18       		.byte	0x18
 5867 11a8 00       		.byte	0
 5868 11a9 09       		.uleb128 0x9
 5869 11aa 82260000 		.4byte	.LASF246
 5870 11ae 13       		.byte	0x13
 5871 11af 1203     		.2byte	0x312
 5872 11b1 46110000 		.4byte	0x1146
 5873 11b5 0C       		.uleb128 0xc
 5874 11b6 DD000000 		.4byte	0xdd
 5875 11ba C5110000 		.4byte	0x11c5
 5876 11be 0D       		.uleb128 0xd
 5877 11bf 9B000000 		.4byte	0x9b
 5878 11c3 0E       		.byte	0xe
 5879 11c4 00       		.byte	0
 5880 11c5 06       		.uleb128 0x6
ARM GAS  /tmp/cchERvVK.s 			page 105


 5881 11c6 B5110000 		.4byte	0x11b5
 5882 11ca 03       		.uleb128 0x3
 5883 11cb A4190000 		.4byte	.LASF247
 5884 11cf 14       		.byte	0x14
 5885 11d0 65       		.byte	0x65
 5886 11d1 AB010000 		.4byte	0x1ab
 5887 11d5 03       		.uleb128 0x3
 5888 11d6 51090000 		.4byte	.LASF248
 5889 11da 14       		.byte	0x14
 5890 11db 6D       		.byte	0x6d
 5891 11dc E7000000 		.4byte	0xe7
 5892 11e0 11       		.uleb128 0x11
 5893 11e1 7D130000 		.4byte	.LASF249
 5894 11e5 04       		.byte	0x4
 5895 11e6 14       		.byte	0x14
 5896 11e7 89       		.byte	0x89
 5897 11e8 F9110000 		.4byte	0x11f9
 5898 11ec 12       		.uleb128 0x12
 5899 11ed 72313300 		.ascii	"r13\000"
 5900 11f1 14       		.byte	0x14
 5901 11f2 8A       		.byte	0x8a
 5902 11f3 3A130000 		.4byte	0x133a
 5903 11f7 00       		.byte	0
 5904 11f8 00       		.byte	0
 5905 11f9 11       		.uleb128 0x11
 5906 11fa 09000000 		.4byte	.LASF250
 5907 11fe 64       		.byte	0x64
 5908 11ff 15       		.byte	0x15
 5909 1200 F4       		.byte	0xf4
 5910 1201 3A130000 		.4byte	0x133a
 5911 1205 12       		.uleb128 0x12
 5912 1206 73313600 		.ascii	"s16\000"
 5913 120a 15       		.byte	0x15
 5914 120b F6       		.byte	0xf6
 5915 120c CA110000 		.4byte	0x11ca
 5916 1210 00       		.byte	0
 5917 1211 12       		.uleb128 0x12
 5918 1212 73313700 		.ascii	"s17\000"
 5919 1216 15       		.byte	0x15
 5920 1217 F7       		.byte	0xf7
 5921 1218 CA110000 		.4byte	0x11ca
 5922 121c 04       		.byte	0x4
 5923 121d 12       		.uleb128 0x12
 5924 121e 73313800 		.ascii	"s18\000"
 5925 1222 15       		.byte	0x15
 5926 1223 F8       		.byte	0xf8
 5927 1224 CA110000 		.4byte	0x11ca
 5928 1228 08       		.byte	0x8
 5929 1229 12       		.uleb128 0x12
 5930 122a 73313900 		.ascii	"s19\000"
 5931 122e 15       		.byte	0x15
 5932 122f F9       		.byte	0xf9
 5933 1230 CA110000 		.4byte	0x11ca
 5934 1234 0C       		.byte	0xc
 5935 1235 12       		.uleb128 0x12
 5936 1236 73323000 		.ascii	"s20\000"
 5937 123a 15       		.byte	0x15
ARM GAS  /tmp/cchERvVK.s 			page 106


 5938 123b FA       		.byte	0xfa
 5939 123c CA110000 		.4byte	0x11ca
 5940 1240 10       		.byte	0x10
 5941 1241 12       		.uleb128 0x12
 5942 1242 73323100 		.ascii	"s21\000"
 5943 1246 15       		.byte	0x15
 5944 1247 FB       		.byte	0xfb
 5945 1248 CA110000 		.4byte	0x11ca
 5946 124c 14       		.byte	0x14
 5947 124d 12       		.uleb128 0x12
 5948 124e 73323200 		.ascii	"s22\000"
 5949 1252 15       		.byte	0x15
 5950 1253 FC       		.byte	0xfc
 5951 1254 CA110000 		.4byte	0x11ca
 5952 1258 18       		.byte	0x18
 5953 1259 12       		.uleb128 0x12
 5954 125a 73323300 		.ascii	"s23\000"
 5955 125e 15       		.byte	0x15
 5956 125f FD       		.byte	0xfd
 5957 1260 CA110000 		.4byte	0x11ca
 5958 1264 1C       		.byte	0x1c
 5959 1265 12       		.uleb128 0x12
 5960 1266 73323400 		.ascii	"s24\000"
 5961 126a 15       		.byte	0x15
 5962 126b FE       		.byte	0xfe
 5963 126c CA110000 		.4byte	0x11ca
 5964 1270 20       		.byte	0x20
 5965 1271 12       		.uleb128 0x12
 5966 1272 73323500 		.ascii	"s25\000"
 5967 1276 15       		.byte	0x15
 5968 1277 FF       		.byte	0xff
 5969 1278 CA110000 		.4byte	0x11ca
 5970 127c 24       		.byte	0x24
 5971 127d 24       		.uleb128 0x24
 5972 127e 73323600 		.ascii	"s26\000"
 5973 1282 15       		.byte	0x15
 5974 1283 0001     		.2byte	0x100
 5975 1285 CA110000 		.4byte	0x11ca
 5976 1289 28       		.byte	0x28
 5977 128a 24       		.uleb128 0x24
 5978 128b 73323700 		.ascii	"s27\000"
 5979 128f 15       		.byte	0x15
 5980 1290 0101     		.2byte	0x101
 5981 1292 CA110000 		.4byte	0x11ca
 5982 1296 2C       		.byte	0x2c
 5983 1297 24       		.uleb128 0x24
 5984 1298 73323800 		.ascii	"s28\000"
 5985 129c 15       		.byte	0x15
 5986 129d 0201     		.2byte	0x102
 5987 129f CA110000 		.4byte	0x11ca
 5988 12a3 30       		.byte	0x30
 5989 12a4 24       		.uleb128 0x24
 5990 12a5 73323900 		.ascii	"s29\000"
 5991 12a9 15       		.byte	0x15
 5992 12aa 0301     		.2byte	0x103
 5993 12ac CA110000 		.4byte	0x11ca
 5994 12b0 34       		.byte	0x34
ARM GAS  /tmp/cchERvVK.s 			page 107


 5995 12b1 24       		.uleb128 0x24
 5996 12b2 73333000 		.ascii	"s30\000"
 5997 12b6 15       		.byte	0x15
 5998 12b7 0401     		.2byte	0x104
 5999 12b9 CA110000 		.4byte	0x11ca
 6000 12bd 38       		.byte	0x38
 6001 12be 24       		.uleb128 0x24
 6002 12bf 73333100 		.ascii	"s31\000"
 6003 12c3 15       		.byte	0x15
 6004 12c4 0501     		.2byte	0x105
 6005 12c6 CA110000 		.4byte	0x11ca
 6006 12ca 3C       		.byte	0x3c
 6007 12cb 24       		.uleb128 0x24
 6008 12cc 723400   		.ascii	"r4\000"
 6009 12cf 15       		.byte	0x15
 6010 12d0 0701     		.2byte	0x107
 6011 12d2 CA110000 		.4byte	0x11ca
 6012 12d6 40       		.byte	0x40
 6013 12d7 24       		.uleb128 0x24
 6014 12d8 723500   		.ascii	"r5\000"
 6015 12db 15       		.byte	0x15
 6016 12dc 0801     		.2byte	0x108
 6017 12de CA110000 		.4byte	0x11ca
 6018 12e2 44       		.byte	0x44
 6019 12e3 24       		.uleb128 0x24
 6020 12e4 723600   		.ascii	"r6\000"
 6021 12e7 15       		.byte	0x15
 6022 12e8 0901     		.2byte	0x109
 6023 12ea CA110000 		.4byte	0x11ca
 6024 12ee 48       		.byte	0x48
 6025 12ef 24       		.uleb128 0x24
 6026 12f0 723700   		.ascii	"r7\000"
 6027 12f3 15       		.byte	0x15
 6028 12f4 0A01     		.2byte	0x10a
 6029 12f6 CA110000 		.4byte	0x11ca
 6030 12fa 4C       		.byte	0x4c
 6031 12fb 24       		.uleb128 0x24
 6032 12fc 723800   		.ascii	"r8\000"
 6033 12ff 15       		.byte	0x15
 6034 1300 0B01     		.2byte	0x10b
 6035 1302 CA110000 		.4byte	0x11ca
 6036 1306 50       		.byte	0x50
 6037 1307 24       		.uleb128 0x24
 6038 1308 723900   		.ascii	"r9\000"
 6039 130b 15       		.byte	0x15
 6040 130c 0C01     		.2byte	0x10c
 6041 130e CA110000 		.4byte	0x11ca
 6042 1312 54       		.byte	0x54
 6043 1313 24       		.uleb128 0x24
 6044 1314 72313000 		.ascii	"r10\000"
 6045 1318 15       		.byte	0x15
 6046 1319 0D01     		.2byte	0x10d
 6047 131b CA110000 		.4byte	0x11ca
 6048 131f 58       		.byte	0x58
 6049 1320 24       		.uleb128 0x24
 6050 1321 72313100 		.ascii	"r11\000"
 6051 1325 15       		.byte	0x15
ARM GAS  /tmp/cchERvVK.s 			page 108


 6052 1326 0E01     		.2byte	0x10e
 6053 1328 CA110000 		.4byte	0x11ca
 6054 132c 5C       		.byte	0x5c
 6055 132d 24       		.uleb128 0x24
 6056 132e 6C7200   		.ascii	"lr\000"
 6057 1331 15       		.byte	0x15
 6058 1332 0F01     		.2byte	0x10f
 6059 1334 CA110000 		.4byte	0x11ca
 6060 1338 60       		.byte	0x60
 6061 1339 00       		.byte	0
 6062 133a 07       		.uleb128 0x7
 6063 133b 04       		.byte	0x4
 6064 133c F9110000 		.4byte	0x11f9
 6065 1340 0E       		.uleb128 0xe
 6066 1341 04       		.byte	0x4
 6067 1342 16       		.byte	0x16
 6068 1343 38       		.byte	0x38
 6069 1344 55130000 		.4byte	0x1355
 6070 1348 0F       		.uleb128 0xf
 6071 1349 07210000 		.4byte	.LASF251
 6072 134d 16       		.byte	0x16
 6073 134e 3C       		.byte	0x3c
 6074 134f 7E090000 		.4byte	0x97e
 6075 1353 00       		.byte	0
 6076 1354 00       		.byte	0
 6077 1355 03       		.uleb128 0x3
 6078 1356 C0050000 		.4byte	.LASF252
 6079 135a 16       		.byte	0x16
 6080 135b 3D       		.byte	0x3d
 6081 135c 40130000 		.4byte	0x1340
 6082 1360 0A       		.uleb128 0xa
 6083 1361 04       		.byte	0x4
 6084 1362 10       		.byte	0x10
 6085 1363 FA       		.byte	0xfa
 6086 1364 BD130000 		.4byte	0x13bd
 6087 1368 1E       		.uleb128 0x1e
 6088 1369 6F110000 		.4byte	.LASF253
 6089 136d 10       		.byte	0x10
 6090 136e 0101     		.2byte	0x101
 6091 1370 C0090000 		.4byte	0x9c0
 6092 1374 1E       		.uleb128 0x1e
 6093 1375 C50F0000 		.4byte	.LASF254
 6094 1379 10       		.byte	0x10
 6095 137a 0801     		.2byte	0x108
 6096 137c C0090000 		.4byte	0x9c0
 6097 1380 1E       		.uleb128 0x1e
 6098 1381 D71D0000 		.4byte	.LASF255
 6099 1385 10       		.byte	0x10
 6100 1386 0F01     		.2byte	0x10f
 6101 1388 AB010000 		.4byte	0x1ab
 6102 138c 1E       		.uleb128 0x1e
 6103 138d D2180000 		.4byte	.LASF256
 6104 1391 10       		.byte	0x10
 6105 1392 1601     		.2byte	0x116
 6106 1394 BD130000 		.4byte	0x13bd
 6107 1398 1E       		.uleb128 0x1e
 6108 1399 F9000000 		.4byte	.LASF257
ARM GAS  /tmp/cchERvVK.s 			page 109


 6109 139d 10       		.byte	0x10
 6110 139e 1E01     		.2byte	0x11e
 6111 13a0 E8130000 		.4byte	0x13e8
 6112 13a4 1E       		.uleb128 0x1e
 6113 13a5 001E0000 		.4byte	.LASF258
 6114 13a9 10       		.byte	0x10
 6115 13aa 2701     		.2byte	0x127
 6116 13ac 1F140000 		.4byte	0x141f
 6117 13b0 1E       		.uleb128 0x1e
 6118 13b1 D7210000 		.4byte	.LASF259
 6119 13b5 10       		.byte	0x10
 6120 13b6 2F01     		.2byte	0x12f
 6121 13b8 CB090000 		.4byte	0x9cb
 6122 13bc 00       		.byte	0
 6123 13bd 07       		.uleb128 0x7
 6124 13be 04       		.byte	0x4
 6125 13bf 0C0B0000 		.4byte	0xb0c
 6126 13c3 11       		.uleb128 0x11
 6127 13c4 A3170000 		.4byte	.LASF260
 6128 13c8 0C       		.byte	0xc
 6129 13c9 17       		.byte	0x17
 6130 13ca 34       		.byte	0x34
 6131 13cb E8130000 		.4byte	0x13e8
 6132 13cf 0F       		.uleb128 0xf
 6133 13d0 39230000 		.4byte	.LASF261
 6134 13d4 17       		.byte	0x17
 6135 13d5 35       		.byte	0x35
 6136 13d6 410B0000 		.4byte	0xb41
 6137 13da 00       		.byte	0
 6138 13db 0F       		.uleb128 0xf
 6139 13dc F0090000 		.4byte	.LASF262
 6140 13e0 17       		.byte	0x17
 6141 13e1 37       		.byte	0x37
 6142 13e2 E1090000 		.4byte	0x9e1
 6143 13e6 08       		.byte	0x8
 6144 13e7 00       		.byte	0
 6145 13e8 07       		.uleb128 0x7
 6146 13e9 04       		.byte	0x4
 6147 13ea C3130000 		.4byte	0x13c3
 6148 13ee 11       		.uleb128 0x11
 6149 13ef 470C0000 		.4byte	.LASF263
 6150 13f3 10       		.byte	0x10
 6151 13f4 18       		.byte	0x18
 6152 13f5 39       		.byte	0x39
 6153 13f6 1F140000 		.4byte	0x141f
 6154 13fa 0F       		.uleb128 0xf
 6155 13fb 4D140000 		.4byte	.LASF264
 6156 13ff 18       		.byte	0x18
 6157 1400 3A       		.byte	0x3a
 6158 1401 410B0000 		.4byte	0xb41
 6159 1405 00       		.byte	0
 6160 1406 0F       		.uleb128 0xf
 6161 1407 BD160000 		.4byte	.LASF265
 6162 140b 18       		.byte	0x18
 6163 140c 3C       		.byte	0x3c
 6164 140d 170B0000 		.4byte	0xb17
 6165 1411 08       		.byte	0x8
ARM GAS  /tmp/cchERvVK.s 			page 110


 6166 1412 0F       		.uleb128 0xf
 6167 1413 9F010000 		.4byte	.LASF266
 6168 1417 18       		.byte	0x18
 6169 1418 3E       		.byte	0x3e
 6170 1419 5D150000 		.4byte	0x155d
 6171 141d 0C       		.byte	0xc
 6172 141e 00       		.byte	0
 6173 141f 07       		.uleb128 0x7
 6174 1420 04       		.byte	0x4
 6175 1421 EE130000 		.4byte	0x13ee
 6176 1425 07       		.uleb128 0x7
 6177 1426 04       		.byte	0x4
 6178 1427 F40B0000 		.4byte	0xbf4
 6179 142b 0C       		.uleb128 0xc
 6180 142c D5110000 		.4byte	0x11d5
 6181 1430 3B140000 		.4byte	0x143b
 6182 1434 0D       		.uleb128 0xd
 6183 1435 9B000000 		.4byte	0x9b
 6184 1439 3A       		.byte	0x3a
 6185 143a 00       		.byte	0
 6186 143b 27       		.uleb128 0x27
 6187 143c 636800   		.ascii	"ch\000"
 6188 143f 10       		.byte	0x10
 6189 1440 0902     		.2byte	0x209
 6190 1442 C10C0000 		.4byte	0xcc1
 6191 1446 0E       		.uleb128 0xe
 6192 1447 16       		.byte	0x16
 6193 1448 19       		.byte	0x19
 6194 1449 34       		.byte	0x34
 6195 144a 27150000 		.4byte	0x1527
 6196 144e 0F       		.uleb128 0xf
 6197 144f 7B230000 		.4byte	.LASF267
 6198 1453 19       		.byte	0x19
 6199 1454 35       		.byte	0x35
 6200 1455 27150000 		.4byte	0x1527
 6201 1459 00       		.byte	0
 6202 145a 0F       		.uleb128 0xf
 6203 145b 7B250000 		.4byte	.LASF268
 6204 145f 19       		.byte	0x19
 6205 1460 36       		.byte	0x36
 6206 1461 A7000000 		.4byte	0xa7
 6207 1465 04       		.byte	0x4
 6208 1466 0F       		.uleb128 0xf
 6209 1467 70030000 		.4byte	.LASF269
 6210 146b 19       		.byte	0x19
 6211 146c 37       		.byte	0x37
 6212 146d A7000000 		.4byte	0xa7
 6213 1471 05       		.byte	0x5
 6214 1472 0F       		.uleb128 0xf
 6215 1473 0B170000 		.4byte	.LASF270
 6216 1477 19       		.byte	0x19
 6217 1478 38       		.byte	0x38
 6218 1479 B7000000 		.4byte	0xb7
 6219 147d 06       		.byte	0x6
 6220 147e 0F       		.uleb128 0xf
 6221 147f 15000000 		.4byte	.LASF271
 6222 1483 19       		.byte	0x19
ARM GAS  /tmp/cchERvVK.s 			page 111


 6223 1484 39       		.byte	0x39
 6224 1485 A7000000 		.4byte	0xa7
 6225 1489 08       		.byte	0x8
 6226 148a 0F       		.uleb128 0xf
 6227 148b 71150000 		.4byte	.LASF272
 6228 148f 19       		.byte	0x19
 6229 1490 3A       		.byte	0x3a
 6230 1491 A7000000 		.4byte	0xa7
 6231 1495 09       		.byte	0x9
 6232 1496 0F       		.uleb128 0xf
 6233 1497 A1250000 		.4byte	.LASF273
 6234 149b 19       		.byte	0x19
 6235 149c 3B       		.byte	0x3b
 6236 149d A7000000 		.4byte	0xa7
 6237 14a1 0A       		.byte	0xa
 6238 14a2 0F       		.uleb128 0xf
 6239 14a3 B0230000 		.4byte	.LASF274
 6240 14a7 19       		.byte	0x19
 6241 14a8 3C       		.byte	0x3c
 6242 14a9 A7000000 		.4byte	0xa7
 6243 14ad 0B       		.byte	0xb
 6244 14ae 0F       		.uleb128 0xf
 6245 14af DB220000 		.4byte	.LASF275
 6246 14b3 19       		.byte	0x19
 6247 14b4 3D       		.byte	0x3d
 6248 14b5 A7000000 		.4byte	0xa7
 6249 14b9 0C       		.byte	0xc
 6250 14ba 0F       		.uleb128 0xf
 6251 14bb B40D0000 		.4byte	.LASF276
 6252 14bf 19       		.byte	0x19
 6253 14c0 3E       		.byte	0x3e
 6254 14c1 A7000000 		.4byte	0xa7
 6255 14c5 0D       		.byte	0xd
 6256 14c6 0F       		.uleb128 0xf
 6257 14c7 FC050000 		.4byte	.LASF277
 6258 14cb 19       		.byte	0x19
 6259 14cc 3F       		.byte	0x3f
 6260 14cd A7000000 		.4byte	0xa7
 6261 14d1 0E       		.byte	0xe
 6262 14d2 0F       		.uleb128 0xf
 6263 14d3 920F0000 		.4byte	.LASF278
 6264 14d7 19       		.byte	0x19
 6265 14d8 40       		.byte	0x40
 6266 14d9 A7000000 		.4byte	0xa7
 6267 14dd 0F       		.byte	0xf
 6268 14de 0F       		.uleb128 0xf
 6269 14df D4100000 		.4byte	.LASF279
 6270 14e3 19       		.byte	0x19
 6271 14e4 41       		.byte	0x41
 6272 14e5 A7000000 		.4byte	0xa7
 6273 14e9 10       		.byte	0x10
 6274 14ea 0F       		.uleb128 0xf
 6275 14eb B0160000 		.4byte	.LASF280
 6276 14ef 19       		.byte	0x19
 6277 14f0 43       		.byte	0x43
 6278 14f1 A7000000 		.4byte	0xa7
 6279 14f5 11       		.byte	0x11
ARM GAS  /tmp/cchERvVK.s 			page 112


 6280 14f6 0F       		.uleb128 0xf
 6281 14f7 10030000 		.4byte	.LASF281
 6282 14fb 19       		.byte	0x19
 6283 14fc 44       		.byte	0x44
 6284 14fd A7000000 		.4byte	0xa7
 6285 1501 12       		.byte	0x12
 6286 1502 0F       		.uleb128 0xf
 6287 1503 A4160000 		.4byte	.LASF282
 6288 1507 19       		.byte	0x19
 6289 1508 45       		.byte	0x45
 6290 1509 A7000000 		.4byte	0xa7
 6291 150d 13       		.byte	0x13
 6292 150e 0F       		.uleb128 0xf
 6293 150f FC1C0000 		.4byte	.LASF283
 6294 1513 19       		.byte	0x19
 6295 1514 46       		.byte	0x46
 6296 1515 A7000000 		.4byte	0xa7
 6297 1519 14       		.byte	0x14
 6298 151a 0F       		.uleb128 0xf
 6299 151b D7000000 		.4byte	.LASF284
 6300 151f 19       		.byte	0x19
 6301 1520 48       		.byte	0x48
 6302 1521 A7000000 		.4byte	0xa7
 6303 1525 15       		.byte	0x15
 6304 1526 00       		.byte	0
 6305 1527 0C       		.uleb128 0xc
 6306 1528 B3010000 		.4byte	0x1b3
 6307 152c 37150000 		.4byte	0x1537
 6308 1530 0D       		.uleb128 0xd
 6309 1531 9B000000 		.4byte	0x9b
 6310 1535 03       		.byte	0x3
 6311 1536 00       		.byte	0
 6312 1537 03       		.uleb128 0x3
 6313 1538 D9140000 		.4byte	.LASF285
 6314 153c 19       		.byte	0x19
 6315 153d 49       		.byte	0x49
 6316 153e 46140000 		.4byte	0x1446
 6317 1542 05       		.uleb128 0x5
 6318 1543 37150000 		.4byte	0x1537
 6319 1547 22       		.uleb128 0x22
 6320 1548 650B0000 		.4byte	.LASF286
 6321 154c 19       		.byte	0x19
 6322 154d 6E       		.byte	0x6e
 6323 154e 42150000 		.4byte	0x1542
 6324 1552 03       		.uleb128 0x3
 6325 1553 991F0000 		.4byte	.LASF287
 6326 1557 18       		.byte	0x18
 6327 1558 34       		.byte	0x34
 6328 1559 EE130000 		.4byte	0x13ee
 6329 155d 07       		.uleb128 0x7
 6330 155e 04       		.byte	0x4
 6331 155f 52150000 		.4byte	0x1552
 6332 1563 03       		.uleb128 0x3
 6333 1564 CE0B0000 		.4byte	.LASF288
 6334 1568 1A       		.byte	0x1a
 6335 1569 34       		.byte	0x34
 6336 156a 6E150000 		.4byte	0x156e
ARM GAS  /tmp/cchERvVK.s 			page 113


 6337 156e 11       		.uleb128 0x11
 6338 156f D9090000 		.4byte	.LASF289
 6339 1573 14       		.byte	0x14
 6340 1574 1A       		.byte	0x1a
 6341 1575 39       		.byte	0x39
 6342 1576 B7150000 		.4byte	0x15b7
 6343 157a 0F       		.uleb128 0xf
 6344 157b 77020000 		.4byte	.LASF290
 6345 157f 1A       		.byte	0x1a
 6346 1580 3A       		.byte	0x3a
 6347 1581 B7150000 		.4byte	0x15b7
 6348 1585 00       		.byte	0
 6349 1586 0F       		.uleb128 0xf
 6350 1587 6E200000 		.4byte	.LASF291
 6351 158b 1A       		.byte	0x1a
 6352 158c 3D       		.byte	0x3d
 6353 158d 170B0000 		.4byte	0xb17
 6354 1591 04       		.byte	0x4
 6355 1592 0F       		.uleb128 0xf
 6356 1593 D2030000 		.4byte	.LASF292
 6357 1597 1A       		.byte	0x1a
 6358 1598 3F       		.byte	0x3f
 6359 1599 CB090000 		.4byte	0x9cb
 6360 159d 08       		.byte	0x8
 6361 159e 0F       		.uleb128 0xf
 6362 159f DE210000 		.4byte	.LASF293
 6363 15a3 1A       		.byte	0x1a
 6364 15a4 41       		.byte	0x41
 6365 15a5 D6090000 		.4byte	0x9d6
 6366 15a9 0C       		.byte	0xc
 6367 15aa 0F       		.uleb128 0xf
 6368 15ab B10F0000 		.4byte	.LASF294
 6369 15af 1A       		.byte	0x1a
 6370 15b0 43       		.byte	0x43
 6371 15b1 D6090000 		.4byte	0x9d6
 6372 15b5 10       		.byte	0x10
 6373 15b6 00       		.byte	0
 6374 15b7 07       		.uleb128 0x7
 6375 15b8 04       		.byte	0x4
 6376 15b9 63150000 		.4byte	0x1563
 6377 15bd 11       		.uleb128 0x11
 6378 15be 04220000 		.4byte	.LASF295
 6379 15c2 04       		.byte	0x4
 6380 15c3 1A       		.byte	0x1a
 6381 15c4 4A       		.byte	0x4a
 6382 15c5 D6150000 		.4byte	0x15d6
 6383 15c9 0F       		.uleb128 0xf
 6384 15ca 35210000 		.4byte	.LASF296
 6385 15ce 1A       		.byte	0x1a
 6386 15cf 4B       		.byte	0x4b
 6387 15d0 B7150000 		.4byte	0x15b7
 6388 15d4 00       		.byte	0
 6389 15d5 00       		.byte	0
 6390 15d6 03       		.uleb128 0x3
 6391 15d7 8B150000 		.4byte	.LASF297
 6392 15db 1A       		.byte	0x1a
 6393 15dc 4E       		.byte	0x4e
ARM GAS  /tmp/cchERvVK.s 			page 114


 6394 15dd BD150000 		.4byte	0x15bd
 6395 15e1 03       		.uleb128 0x3
 6396 15e2 E70F0000 		.4byte	.LASF298
 6397 15e6 1B       		.byte	0x1b
 6398 15e7 3F       		.byte	0x3f
 6399 15e8 EC150000 		.4byte	0x15ec
 6400 15ec 11       		.uleb128 0x11
 6401 15ed F7110000 		.4byte	.LASF299
 6402 15f1 24       		.byte	0x24
 6403 15f2 1B       		.byte	0x1b
 6404 15f3 4D       		.byte	0x4d
 6405 15f4 59160000 		.4byte	0x1659
 6406 15f8 0F       		.uleb128 0xf
 6407 15f9 8B050000 		.4byte	.LASF300
 6408 15fd 1B       		.byte	0x1b
 6409 15fe 4E       		.byte	0x4e
 6410 15ff 410B0000 		.4byte	0xb41
 6411 1603 00       		.byte	0
 6412 1604 0F       		.uleb128 0xf
 6413 1605 62180000 		.4byte	.LASF301
 6414 1609 1B       		.byte	0x1b
 6415 160a 4F       		.byte	0x4f
 6416 160b FD000000 		.4byte	0xfd
 6417 160f 08       		.byte	0x8
 6418 1610 0F       		.uleb128 0xf
 6419 1611 AE120000 		.4byte	.LASF302
 6420 1615 1B       		.byte	0x1b
 6421 1616 50       		.byte	0x50
 6422 1617 7B160000 		.4byte	0x167b
 6423 161b 0C       		.byte	0xc
 6424 161c 0F       		.uleb128 0xf
 6425 161d C7040000 		.4byte	.LASF303
 6426 1621 1B       		.byte	0x1b
 6427 1622 51       		.byte	0x51
 6428 1623 7B160000 		.4byte	0x167b
 6429 1627 10       		.byte	0x10
 6430 1628 0F       		.uleb128 0xf
 6431 1629 121A0000 		.4byte	.LASF304
 6432 162d 1B       		.byte	0x1b
 6433 162e 53       		.byte	0x53
 6434 162f 7B160000 		.4byte	0x167b
 6435 1633 14       		.byte	0x14
 6436 1634 0F       		.uleb128 0xf
 6437 1635 D8180000 		.4byte	.LASF305
 6438 1639 1B       		.byte	0x1b
 6439 163a 54       		.byte	0x54
 6440 163b 7B160000 		.4byte	0x167b
 6441 163f 18       		.byte	0x18
 6442 1640 0F       		.uleb128 0xf
 6443 1641 F71D0000 		.4byte	.LASF306
 6444 1645 1B       		.byte	0x1b
 6445 1646 55       		.byte	0x55
 6446 1647 59160000 		.4byte	0x1659
 6447 164b 1C       		.byte	0x1c
 6448 164c 0F       		.uleb128 0xf
 6449 164d 011B0000 		.4byte	.LASF307
 6450 1651 1B       		.byte	0x1b
ARM GAS  /tmp/cchERvVK.s 			page 115


 6451 1652 56       		.byte	0x56
 6452 1653 AB010000 		.4byte	0x1ab
 6453 1657 20       		.byte	0x20
 6454 1658 00       		.byte	0
 6455 1659 03       		.uleb128 0x3
 6456 165a A5040000 		.4byte	.LASF308
 6457 165e 1B       		.byte	0x1b
 6458 165f 42       		.byte	0x42
 6459 1660 64160000 		.4byte	0x1664
 6460 1664 07       		.uleb128 0x7
 6461 1665 04       		.byte	0x4
 6462 1666 6A160000 		.4byte	0x166a
 6463 166a 1F       		.uleb128 0x1f
 6464 166b 75160000 		.4byte	0x1675
 6465 166f 17       		.uleb128 0x17
 6466 1670 75160000 		.4byte	0x1675
 6467 1674 00       		.byte	0
 6468 1675 07       		.uleb128 0x7
 6469 1676 04       		.byte	0x4
 6470 1677 E1150000 		.4byte	0x15e1
 6471 167b 07       		.uleb128 0x7
 6472 167c 04       		.byte	0x4
 6473 167d A7000000 		.4byte	0xa7
 6474 1681 03       		.uleb128 0x3
 6475 1682 D1050000 		.4byte	.LASF309
 6476 1686 1B       		.byte	0x1b
 6477 1687 64       		.byte	0x64
 6478 1688 E1150000 		.4byte	0x15e1
 6479 168c 03       		.uleb128 0x3
 6480 168d 90260000 		.4byte	.LASF310
 6481 1691 1B       		.byte	0x1b
 6482 1692 71       		.byte	0x71
 6483 1693 E1150000 		.4byte	0x15e1
 6484 1697 16       		.uleb128 0x16
 6485 1698 F2000000 		.4byte	0xf2
 6486 169c B0160000 		.4byte	0x16b0
 6487 16a0 17       		.uleb128 0x17
 6488 16a1 AB010000 		.4byte	0x1ab
 6489 16a5 17       		.uleb128 0x17
 6490 16a6 B0160000 		.4byte	0x16b0
 6491 16aa 17       		.uleb128 0x17
 6492 16ab F2000000 		.4byte	0xf2
 6493 16af 00       		.byte	0
 6494 16b0 07       		.uleb128 0x7
 6495 16b1 04       		.byte	0x4
 6496 16b2 B2000000 		.4byte	0xb2
 6497 16b6 07       		.uleb128 0x7
 6498 16b7 04       		.byte	0x4
 6499 16b8 97160000 		.4byte	0x1697
 6500 16bc 16       		.uleb128 0x16
 6501 16bd F2000000 		.4byte	0xf2
 6502 16c1 D5160000 		.4byte	0x16d5
 6503 16c5 17       		.uleb128 0x17
 6504 16c6 AB010000 		.4byte	0x1ab
 6505 16ca 17       		.uleb128 0x17
 6506 16cb 7B160000 		.4byte	0x167b
 6507 16cf 17       		.uleb128 0x17
ARM GAS  /tmp/cchERvVK.s 			page 116


 6508 16d0 F2000000 		.4byte	0xf2
 6509 16d4 00       		.byte	0
 6510 16d5 07       		.uleb128 0x7
 6511 16d6 04       		.byte	0x4
 6512 16d7 BC160000 		.4byte	0x16bc
 6513 16db 16       		.uleb128 0x16
 6514 16dc C0090000 		.4byte	0x9c0
 6515 16e0 EF160000 		.4byte	0x16ef
 6516 16e4 17       		.uleb128 0x17
 6517 16e5 AB010000 		.4byte	0x1ab
 6518 16e9 17       		.uleb128 0x17
 6519 16ea A7000000 		.4byte	0xa7
 6520 16ee 00       		.byte	0
 6521 16ef 07       		.uleb128 0x7
 6522 16f0 04       		.byte	0x4
 6523 16f1 DB160000 		.4byte	0x16db
 6524 16f5 16       		.uleb128 0x16
 6525 16f6 C0090000 		.4byte	0x9c0
 6526 16fa 04170000 		.4byte	0x1704
 6527 16fe 17       		.uleb128 0x17
 6528 16ff AB010000 		.4byte	0x1ab
 6529 1703 00       		.byte	0
 6530 1704 07       		.uleb128 0x7
 6531 1705 04       		.byte	0x4
 6532 1706 F5160000 		.4byte	0x16f5
 6533 170a 02       		.uleb128 0x2
 6534 170b 04       		.byte	0x4
 6535 170c 04       		.byte	0x4
 6536 170d 600A0000 		.4byte	.LASF311
 6537 1711 02       		.uleb128 0x2
 6538 1712 01       		.byte	0x1
 6539 1713 02       		.byte	0x2
 6540 1714 00010000 		.4byte	.LASF312
 6541 1718 0C       		.uleb128 0xc
 6542 1719 A7000000 		.4byte	0xa7
 6543 171d 28170000 		.4byte	0x1728
 6544 1721 0D       		.uleb128 0xd
 6545 1722 9B000000 		.4byte	0x9b
 6546 1726 07       		.byte	0x7
 6547 1727 00       		.byte	0
 6548 1728 20       		.uleb128 0x20
 6549 1729 44190000 		.4byte	.LASF313
 6550 172d 1C       		.byte	0x1c
 6551 172e 7201     		.2byte	0x172
 6552 1730 11170000 		.4byte	0x1711
 6553 1734 0E       		.uleb128 0xe
 6554 1735 0C       		.byte	0xc
 6555 1736 1D       		.byte	0x1d
 6556 1737 DA       		.byte	0xda
 6557 1738 79170000 		.4byte	0x1779
 6558 173c 0F       		.uleb128 0xf
 6559 173d E8250000 		.4byte	.LASF314
 6560 1741 1D       		.byte	0x1d
 6561 1742 DB       		.byte	0xdb
 6562 1743 79170000 		.4byte	0x1779
 6563 1747 00       		.byte	0
 6564 1748 0F       		.uleb128 0xf
ARM GAS  /tmp/cchERvVK.s 			page 117


 6565 1749 44110000 		.4byte	.LASF315
 6566 174d 1D       		.byte	0x1d
 6567 174e DC       		.byte	0xdc
 6568 174f 7F170000 		.4byte	0x177f
 6569 1753 04       		.byte	0x4
 6570 1754 0F       		.uleb128 0xf
 6571 1755 AF040000 		.4byte	.LASF316
 6572 1759 1D       		.byte	0x1d
 6573 175a DD       		.byte	0xdd
 6574 175b A7000000 		.4byte	0xa7
 6575 175f 08       		.byte	0x8
 6576 1760 0F       		.uleb128 0xf
 6577 1761 8F1F0000 		.4byte	.LASF317
 6578 1765 1D       		.byte	0x1d
 6579 1766 DF       		.byte	0xdf
 6580 1767 A7000000 		.4byte	0xa7
 6581 176b 09       		.byte	0x9
 6582 176c 0F       		.uleb128 0xf
 6583 176d 0D040000 		.4byte	.LASF318
 6584 1771 1D       		.byte	0x1d
 6585 1772 E0       		.byte	0xe0
 6586 1773 A7000000 		.4byte	0xa7
 6587 1777 0A       		.byte	0xa
 6588 1778 00       		.byte	0
 6589 1779 07       		.uleb128 0x7
 6590 177a 04       		.byte	0x4
 6591 177b F00F0000 		.4byte	0xff0
 6592 177f 07       		.uleb128 0x7
 6593 1780 04       		.byte	0x4
 6594 1781 DD000000 		.4byte	0xdd
 6595 1785 03       		.uleb128 0x3
 6596 1786 B3130000 		.4byte	.LASF319
 6597 178a 1D       		.byte	0x1d
 6598 178b E1       		.byte	0xe1
 6599 178c 34170000 		.4byte	0x1734
 6600 1790 05       		.uleb128 0x5
 6601 1791 85170000 		.4byte	0x1785
 6602 1795 0C       		.uleb128 0xc
 6603 1796 90170000 		.4byte	0x1790
 6604 179a A5170000 		.4byte	0x17a5
 6605 179e 0D       		.uleb128 0xd
 6606 179f 9B000000 		.4byte	0x9b
 6607 17a3 0F       		.byte	0xf
 6608 17a4 00       		.byte	0
 6609 17a5 05       		.uleb128 0x5
 6610 17a6 95170000 		.4byte	0x1795
 6611 17aa 20       		.uleb128 0x20
 6612 17ab F71B0000 		.4byte	.LASF320
 6613 17af 1D       		.byte	0x1d
 6614 17b0 BB01     		.2byte	0x1bb
 6615 17b2 A5170000 		.4byte	0x17a5
 6616 17b6 16       		.uleb128 0x16
 6617 17b7 C0090000 		.4byte	0x9c0
 6618 17bb CF170000 		.4byte	0x17cf
 6619 17bf 17       		.uleb128 0x17
 6620 17c0 AB010000 		.4byte	0x1ab
 6621 17c4 17       		.uleb128 0x17
ARM GAS  /tmp/cchERvVK.s 			page 118


 6622 17c5 A7000000 		.4byte	0xa7
 6623 17c9 17       		.uleb128 0x17
 6624 17ca EC090000 		.4byte	0x9ec
 6625 17ce 00       		.byte	0
 6626 17cf 07       		.uleb128 0x7
 6627 17d0 04       		.byte	0x4
 6628 17d1 B6170000 		.4byte	0x17b6
 6629 17d5 16       		.uleb128 0x16
 6630 17d6 C0090000 		.4byte	0x9c0
 6631 17da E9170000 		.4byte	0x17e9
 6632 17de 17       		.uleb128 0x17
 6633 17df AB010000 		.4byte	0x1ab
 6634 17e3 17       		.uleb128 0x17
 6635 17e4 EC090000 		.4byte	0x9ec
 6636 17e8 00       		.byte	0
 6637 17e9 07       		.uleb128 0x7
 6638 17ea 04       		.byte	0x4
 6639 17eb D5170000 		.4byte	0x17d5
 6640 17ef 16       		.uleb128 0x16
 6641 17f0 F2000000 		.4byte	0xf2
 6642 17f4 0D180000 		.4byte	0x180d
 6643 17f8 17       		.uleb128 0x17
 6644 17f9 AB010000 		.4byte	0x1ab
 6645 17fd 17       		.uleb128 0x17
 6646 17fe B0160000 		.4byte	0x16b0
 6647 1802 17       		.uleb128 0x17
 6648 1803 F2000000 		.4byte	0xf2
 6649 1807 17       		.uleb128 0x17
 6650 1808 EC090000 		.4byte	0x9ec
 6651 180c 00       		.byte	0
 6652 180d 07       		.uleb128 0x7
 6653 180e 04       		.byte	0x4
 6654 180f EF170000 		.4byte	0x17ef
 6655 1813 16       		.uleb128 0x16
 6656 1814 F2000000 		.4byte	0xf2
 6657 1818 31180000 		.4byte	0x1831
 6658 181c 17       		.uleb128 0x17
 6659 181d AB010000 		.4byte	0x1ab
 6660 1821 17       		.uleb128 0x17
 6661 1822 7B160000 		.4byte	0x167b
 6662 1826 17       		.uleb128 0x17
 6663 1827 F2000000 		.4byte	0xf2
 6664 182b 17       		.uleb128 0x17
 6665 182c EC090000 		.4byte	0x9ec
 6666 1830 00       		.byte	0
 6667 1831 07       		.uleb128 0x7
 6668 1832 04       		.byte	0x4
 6669 1833 13180000 		.4byte	0x1813
 6670 1837 0E       		.uleb128 0xe
 6671 1838 04       		.byte	0x4
 6672 1839 1E       		.byte	0x1e
 6673 183a B3       		.byte	0xb3
 6674 183b 58180000 		.4byte	0x1858
 6675 183f 12       		.uleb128 0x12
 6676 1840 73657400 		.ascii	"set\000"
 6677 1844 1E       		.byte	0x1e
 6678 1845 B4       		.byte	0xb4
ARM GAS  /tmp/cchERvVK.s 			page 119


 6679 1846 B7000000 		.4byte	0xb7
 6680 184a 00       		.byte	0
 6681 184b 0F       		.uleb128 0xf
 6682 184c E50E0000 		.4byte	.LASF321
 6683 1850 1E       		.byte	0x1e
 6684 1851 B5       		.byte	0xb5
 6685 1852 B7000000 		.4byte	0xb7
 6686 1856 02       		.byte	0x2
 6687 1857 00       		.byte	0
 6688 1858 0A       		.uleb128 0xa
 6689 1859 04       		.byte	0x4
 6690 185a 1E       		.byte	0x1e
 6691 185b B1       		.byte	0xb1
 6692 185c 73180000 		.4byte	0x1873
 6693 1860 28       		.uleb128 0x28
 6694 1861 5700     		.ascii	"W\000"
 6695 1863 1E       		.byte	0x1e
 6696 1864 B2       		.byte	0xb2
 6697 1865 D2000000 		.4byte	0xd2
 6698 1869 28       		.uleb128 0x28
 6699 186a 4800     		.ascii	"H\000"
 6700 186c 1E       		.byte	0x1e
 6701 186d B6       		.byte	0xb6
 6702 186e 37180000 		.4byte	0x1837
 6703 1872 00       		.byte	0
 6704 1873 06       		.uleb128 0x6
 6705 1874 58180000 		.4byte	0x1858
 6706 1878 0E       		.uleb128 0xe
 6707 1879 2C       		.byte	0x2c
 6708 187a 1E       		.byte	0x1e
 6709 187b A9       		.byte	0xa9
 6710 187c 05190000 		.4byte	0x1905
 6711 1880 0F       		.uleb128 0xf
 6712 1881 B61F0000 		.4byte	.LASF322
 6713 1885 1E       		.byte	0x1e
 6714 1886 AB       		.byte	0xab
 6715 1887 DD000000 		.4byte	0xdd
 6716 188b 00       		.byte	0
 6717 188c 0F       		.uleb128 0xf
 6718 188d A2030000 		.4byte	.LASF323
 6719 1891 1E       		.byte	0x1e
 6720 1892 AC       		.byte	0xac
 6721 1893 DD000000 		.4byte	0xdd
 6722 1897 04       		.byte	0x4
 6723 1898 0F       		.uleb128 0xf
 6724 1899 3F100000 		.4byte	.LASF324
 6725 189d 1E       		.byte	0x1e
 6726 189e AD       		.byte	0xad
 6727 189f DD000000 		.4byte	0xdd
 6728 18a3 08       		.byte	0x8
 6729 18a4 0F       		.uleb128 0xf
 6730 18a5 B31E0000 		.4byte	.LASF325
 6731 18a9 1E       		.byte	0x1e
 6732 18aa AE       		.byte	0xae
 6733 18ab DD000000 		.4byte	0xdd
 6734 18af 0C       		.byte	0xc
 6735 18b0 12       		.uleb128 0x12
ARM GAS  /tmp/cchERvVK.s 			page 120


 6736 18b1 49445200 		.ascii	"IDR\000"
 6737 18b5 1E       		.byte	0x1e
 6738 18b6 AF       		.byte	0xaf
 6739 18b7 DD000000 		.4byte	0xdd
 6740 18bb 10       		.byte	0x10
 6741 18bc 12       		.uleb128 0x12
 6742 18bd 4F445200 		.ascii	"ODR\000"
 6743 18c1 1E       		.byte	0x1e
 6744 18c2 B0       		.byte	0xb0
 6745 18c3 DD000000 		.4byte	0xdd
 6746 18c7 14       		.byte	0x14
 6747 18c8 0F       		.uleb128 0xf
 6748 18c9 AE130000 		.4byte	.LASF326
 6749 18cd 1E       		.byte	0x1e
 6750 18ce B7       		.byte	0xb7
 6751 18cf 73180000 		.4byte	0x1873
 6752 18d3 18       		.byte	0x18
 6753 18d4 0F       		.uleb128 0xf
 6754 18d5 1D190000 		.4byte	.LASF327
 6755 18d9 1E       		.byte	0x1e
 6756 18da B8       		.byte	0xb8
 6757 18db DD000000 		.4byte	0xdd
 6758 18df 1C       		.byte	0x1c
 6759 18e0 0F       		.uleb128 0xf
 6760 18e1 CF1C0000 		.4byte	.LASF328
 6761 18e5 1E       		.byte	0x1e
 6762 18e6 B9       		.byte	0xb9
 6763 18e7 DD000000 		.4byte	0xdd
 6764 18eb 20       		.byte	0x20
 6765 18ec 0F       		.uleb128 0xf
 6766 18ed CA1C0000 		.4byte	.LASF329
 6767 18f1 1E       		.byte	0x1e
 6768 18f2 BA       		.byte	0xba
 6769 18f3 DD000000 		.4byte	0xdd
 6770 18f7 24       		.byte	0x24
 6771 18f8 12       		.uleb128 0x12
 6772 18f9 42525200 		.ascii	"BRR\000"
 6773 18fd 1E       		.byte	0x1e
 6774 18fe BB       		.byte	0xbb
 6775 18ff DD000000 		.4byte	0xdd
 6776 1903 28       		.byte	0x28
 6777 1904 00       		.byte	0
 6778 1905 03       		.uleb128 0x3
 6779 1906 62110000 		.4byte	.LASF330
 6780 190a 1E       		.byte	0x1e
 6781 190b BC       		.byte	0xbc
 6782 190c 78180000 		.4byte	0x1878
 6783 1910 0E       		.uleb128 0xe
 6784 1911 1C       		.byte	0x1c
 6785 1912 1E       		.byte	0x1e
 6786 1913 C1       		.byte	0xc1
 6787 1914 6D190000 		.4byte	0x196d
 6788 1918 0F       		.uleb128 0xf
 6789 1919 05230000 		.4byte	.LASF331
 6790 191d 1E       		.byte	0x1e
 6791 191e C3       		.byte	0xc3
 6792 191f D2000000 		.4byte	0xd2
ARM GAS  /tmp/cchERvVK.s 			page 121


 6793 1923 00       		.byte	0
 6794 1924 0F       		.uleb128 0xf
 6795 1925 8C030000 		.4byte	.LASF332
 6796 1929 1E       		.byte	0x1e
 6797 192a C5       		.byte	0xc5
 6798 192b D2000000 		.4byte	0xd2
 6799 192f 04       		.byte	0x4
 6800 1930 0F       		.uleb128 0xf
 6801 1931 56020000 		.4byte	.LASF333
 6802 1935 1E       		.byte	0x1e
 6803 1936 C7       		.byte	0xc7
 6804 1937 D2000000 		.4byte	0xd2
 6805 193b 08       		.byte	0x8
 6806 193c 0F       		.uleb128 0xf
 6807 193d 90220000 		.4byte	.LASF334
 6808 1941 1E       		.byte	0x1e
 6809 1942 C9       		.byte	0xc9
 6810 1943 D2000000 		.4byte	0xd2
 6811 1947 0C       		.byte	0xc
 6812 1948 12       		.uleb128 0x12
 6813 1949 6F647200 		.ascii	"odr\000"
 6814 194d 1E       		.byte	0x1e
 6815 194e CB       		.byte	0xcb
 6816 194f D2000000 		.4byte	0xd2
 6817 1953 10       		.byte	0x10
 6818 1954 0F       		.uleb128 0xf
 6819 1955 6B1F0000 		.4byte	.LASF335
 6820 1959 1E       		.byte	0x1e
 6821 195a CD       		.byte	0xcd
 6822 195b D2000000 		.4byte	0xd2
 6823 195f 14       		.byte	0x14
 6824 1960 0F       		.uleb128 0xf
 6825 1961 5D1F0000 		.4byte	.LASF336
 6826 1965 1E       		.byte	0x1e
 6827 1966 CF       		.byte	0xcf
 6828 1967 D2000000 		.4byte	0xd2
 6829 196b 18       		.byte	0x18
 6830 196c 00       		.byte	0
 6831 196d 03       		.uleb128 0x3
 6832 196e C81B0000 		.4byte	.LASF337
 6833 1972 1E       		.byte	0x1e
 6834 1973 D0       		.byte	0xd0
 6835 1974 10190000 		.4byte	0x1910
 6836 1978 0E       		.uleb128 0xe
 6837 1979 FC       		.byte	0xfc
 6838 197a 1E       		.byte	0x1e
 6839 197b D9       		.byte	0xd9
 6840 197c ED190000 		.4byte	0x19ed
 6841 1980 0F       		.uleb128 0xf
 6842 1981 0A120000 		.4byte	.LASF338
 6843 1985 1E       		.byte	0x1e
 6844 1986 DC       		.byte	0xdc
 6845 1987 6D190000 		.4byte	0x196d
 6846 198b 00       		.byte	0
 6847 198c 0F       		.uleb128 0xf
 6848 198d 47030000 		.4byte	.LASF339
 6849 1991 1E       		.byte	0x1e
ARM GAS  /tmp/cchERvVK.s 			page 122


 6850 1992 E0       		.byte	0xe0
 6851 1993 6D190000 		.4byte	0x196d
 6852 1997 1C       		.byte	0x1c
 6853 1998 0F       		.uleb128 0xf
 6854 1999 A6010000 		.4byte	.LASF340
 6855 199d 1E       		.byte	0x1e
 6856 199e E4       		.byte	0xe4
 6857 199f 6D190000 		.4byte	0x196d
 6858 19a3 38       		.byte	0x38
 6859 19a4 0F       		.uleb128 0xf
 6860 19a5 CE0F0000 		.4byte	.LASF341
 6861 19a9 1E       		.byte	0x1e
 6862 19aa E8       		.byte	0xe8
 6863 19ab 6D190000 		.4byte	0x196d
 6864 19af 54       		.byte	0x54
 6865 19b0 0F       		.uleb128 0xf
 6866 19b1 B51A0000 		.4byte	.LASF342
 6867 19b5 1E       		.byte	0x1e
 6868 19b6 EC       		.byte	0xec
 6869 19b7 6D190000 		.4byte	0x196d
 6870 19bb 70       		.byte	0x70
 6871 19bc 0F       		.uleb128 0xf
 6872 19bd EB260000 		.4byte	.LASF343
 6873 19c1 1E       		.byte	0x1e
 6874 19c2 F0       		.byte	0xf0
 6875 19c3 6D190000 		.4byte	0x196d
 6876 19c7 8C       		.byte	0x8c
 6877 19c8 0F       		.uleb128 0xf
 6878 19c9 630C0000 		.4byte	.LASF344
 6879 19cd 1E       		.byte	0x1e
 6880 19ce F4       		.byte	0xf4
 6881 19cf 6D190000 		.4byte	0x196d
 6882 19d3 A8       		.byte	0xa8
 6883 19d4 0F       		.uleb128 0xf
 6884 19d5 6C180000 		.4byte	.LASF345
 6885 19d9 1E       		.byte	0x1e
 6886 19da F8       		.byte	0xf8
 6887 19db 6D190000 		.4byte	0x196d
 6888 19df C4       		.byte	0xc4
 6889 19e0 0F       		.uleb128 0xf
 6890 19e1 E7240000 		.4byte	.LASF346
 6891 19e5 1E       		.byte	0x1e
 6892 19e6 FC       		.byte	0xfc
 6893 19e7 6D190000 		.4byte	0x196d
 6894 19eb E0       		.byte	0xe0
 6895 19ec 00       		.byte	0
 6896 19ed 03       		.uleb128 0x3
 6897 19ee 8A0B0000 		.4byte	.LASF347
 6898 19f2 1E       		.byte	0x1e
 6899 19f3 FE       		.byte	0xfe
 6900 19f4 78190000 		.4byte	0x1978
 6901 19f8 05       		.uleb128 0x5
 6902 19f9 ED190000 		.4byte	0x19ed
 6903 19fd 09       		.uleb128 0x9
 6904 19fe 73180000 		.4byte	.LASF348
 6905 1a02 1E       		.byte	0x1e
 6906 1a03 1B01     		.2byte	0x11b
ARM GAS  /tmp/cchERvVK.s 			page 123


 6907 1a05 091A0000 		.4byte	0x1a09
 6908 1a09 07       		.uleb128 0x7
 6909 1a0a 04       		.byte	0x4
 6910 1a0b 05190000 		.4byte	0x1905
 6911 1a0f 20       		.uleb128 0x20
 6912 1a10 5B200000 		.4byte	.LASF349
 6913 1a14 1E       		.byte	0x1e
 6914 1a15 DA01     		.2byte	0x1da
 6915 1a17 F8190000 		.4byte	0x19f8
 6916 1a1b 29       		.uleb128 0x29
 6917 1a1c 07       		.byte	0x7
 6918 1a1d 01       		.byte	0x1
 6919 1a1e 37000000 		.4byte	0x37
 6920 1a22 1F       		.byte	0x1f
 6921 1a23 5F       		.byte	0x5f
 6922 1a24 471A0000 		.4byte	0x1a47
 6923 1a28 2A       		.uleb128 0x2a
 6924 1a29 700F0000 		.4byte	.LASF350
 6925 1a2d 00       		.byte	0
 6926 1a2e 2A       		.uleb128 0x2a
 6927 1a2f CE000000 		.4byte	.LASF351
 6928 1a33 01       		.byte	0x1
 6929 1a34 2A       		.uleb128 0x2a
 6930 1a35 41000000 		.4byte	.LASF352
 6931 1a39 02       		.byte	0x2
 6932 1a3a 2A       		.uleb128 0x2a
 6933 1a3b E4190000 		.4byte	.LASF353
 6934 1a3f 03       		.byte	0x3
 6935 1a40 2A       		.uleb128 0x2a
 6936 1a41 950A0000 		.4byte	.LASF354
 6937 1a45 04       		.byte	0x4
 6938 1a46 00       		.byte	0
 6939 1a47 03       		.uleb128 0x3
 6940 1a48 32060000 		.4byte	.LASF355
 6941 1a4c 1F       		.byte	0x1f
 6942 1a4d 65       		.byte	0x65
 6943 1a4e 1B1A0000 		.4byte	0x1a1b
 6944 1a52 0E       		.uleb128 0xe
 6945 1a53 08       		.byte	0x8
 6946 1a54 20       		.byte	0x20
 6947 1a55 F4       		.byte	0xf4
 6948 1a56 741A0000 		.4byte	0x1a74
 6949 1a5a 12       		.uleb128 0x12
 6950 1a5b 6D637200 		.ascii	"mcr\000"
 6951 1a5f 20       		.byte	0x20
 6952 1a60 FA       		.byte	0xfa
 6953 1a61 D2000000 		.4byte	0xd2
 6954 1a65 00       		.byte	0
 6955 1a66 24       		.uleb128 0x24
 6956 1a67 62747200 		.ascii	"btr\000"
 6957 1a6b 20       		.byte	0x20
 6958 1a6c 0001     		.2byte	0x100
 6959 1a6e D2000000 		.4byte	0xd2
 6960 1a72 04       		.byte	0x4
 6961 1a73 00       		.byte	0
 6962 1a74 09       		.uleb128 0x9
 6963 1a75 AB1A0000 		.4byte	.LASF356
ARM GAS  /tmp/cchERvVK.s 			page 124


 6964 1a79 20       		.byte	0x20
 6965 1a7a 0101     		.2byte	0x101
 6966 1a7c 521A0000 		.4byte	0x1a52
 6967 1a80 05       		.uleb128 0x5
 6968 1a81 741A0000 		.4byte	0x1a74
 6969 1a85 1C       		.uleb128 0x1c
 6970 1a86 30       		.byte	0x30
 6971 1a87 20       		.byte	0x20
 6972 1a88 0601     		.2byte	0x106
 6973 1a8a 111B0000 		.4byte	0x1b11
 6974 1a8e 19       		.uleb128 0x19
 6975 1a8f F4160000 		.4byte	.LASF357
 6976 1a93 20       		.byte	0x20
 6977 1a94 0A01     		.2byte	0x10a
 6978 1a96 471A0000 		.4byte	0x1a47
 6979 1a9a 00       		.byte	0
 6980 1a9b 19       		.uleb128 0x19
 6981 1a9c 381D0000 		.4byte	.LASF358
 6982 1aa0 20       		.byte	0x20
 6983 1aa1 0E01     		.2byte	0x10e
 6984 1aa3 111B0000 		.4byte	0x1b11
 6985 1aa7 04       		.byte	0x4
 6986 1aa8 19       		.uleb128 0x19
 6987 1aa9 E8090000 		.4byte	.LASF359
 6988 1aad 20       		.byte	0x20
 6989 1aae 1201     		.2byte	0x112
 6990 1ab0 410B0000 		.4byte	0xb41
 6991 1ab4 08       		.byte	0x8
 6992 1ab5 19       		.uleb128 0x19
 6993 1ab6 4A200000 		.4byte	.LASF360
 6994 1aba 20       		.byte	0x20
 6995 1abb 1601     		.2byte	0x116
 6996 1abd 410B0000 		.4byte	0xb41
 6997 1ac1 10       		.byte	0x10
 6998 1ac2 19       		.uleb128 0x19
 6999 1ac3 731A0000 		.4byte	.LASF361
 7000 1ac7 20       		.byte	0x20
 7001 1ac8 2301     		.2byte	0x123
 7002 1aca D6150000 		.4byte	0x15d6
 7003 1ace 18       		.byte	0x18
 7004 1acf 19       		.uleb128 0x19
 7005 1ad0 550C0000 		.4byte	.LASF362
 7006 1ad4 20       		.byte	0x20
 7007 1ad5 2A01     		.2byte	0x12a
 7008 1ad7 D6150000 		.4byte	0x15d6
 7009 1adb 1C       		.byte	0x1c
 7010 1adc 19       		.uleb128 0x19
 7011 1add 1C100000 		.4byte	.LASF363
 7012 1ae1 20       		.byte	0x20
 7013 1ae2 3001     		.2byte	0x130
 7014 1ae4 D6150000 		.4byte	0x15d6
 7015 1ae8 20       		.byte	0x20
 7016 1ae9 19       		.uleb128 0x19
 7017 1aea EA030000 		.4byte	.LASF364
 7018 1aee 20       		.byte	0x20
 7019 1aef 3501     		.2byte	0x135
 7020 1af1 D6150000 		.4byte	0x15d6
ARM GAS  /tmp/cchERvVK.s 			page 125


 7021 1af5 24       		.byte	0x24
 7022 1af6 19       		.uleb128 0x19
 7023 1af7 9E090000 		.4byte	.LASF365
 7024 1afb 20       		.byte	0x20
 7025 1afc 3901     		.2byte	0x139
 7026 1afe D6150000 		.4byte	0x15d6
 7027 1b02 28       		.byte	0x28
 7028 1b03 24       		.uleb128 0x24
 7029 1b04 63616E00 		.ascii	"can\000"
 7030 1b08 20       		.byte	0x20
 7031 1b09 3F01     		.2byte	0x13f
 7032 1b0b 171B0000 		.4byte	0x1b17
 7033 1b0f 2C       		.byte	0x2c
 7034 1b10 00       		.byte	0
 7035 1b11 07       		.uleb128 0x7
 7036 1b12 04       		.byte	0x4
 7037 1b13 801A0000 		.4byte	0x1a80
 7038 1b17 07       		.uleb128 0x7
 7039 1b18 04       		.byte	0x4
 7040 1b19 8D0F0000 		.4byte	0xf8d
 7041 1b1d 09       		.uleb128 0x9
 7042 1b1e 52040000 		.4byte	.LASF366
 7043 1b22 20       		.byte	0x20
 7044 1b23 4001     		.2byte	0x140
 7045 1b25 851A0000 		.4byte	0x1a85
 7046 1b29 20       		.uleb128 0x20
 7047 1b2a 40220000 		.4byte	.LASF367
 7048 1b2e 20       		.byte	0x20
 7049 1b2f 4B01     		.2byte	0x14b
 7050 1b31 1D1B0000 		.4byte	0x1b1d
 7051 1b35 29       		.uleb128 0x29
 7052 1b36 07       		.byte	0x7
 7053 1b37 01       		.byte	0x1
 7054 1b38 37000000 		.4byte	0x37
 7055 1b3c 21       		.byte	0x21
 7056 1b3d 4C       		.byte	0x4c
 7057 1b3e 671B0000 		.4byte	0x1b67
 7058 1b42 2A       		.uleb128 0x2a
 7059 1b43 90060000 		.4byte	.LASF368
 7060 1b47 00       		.byte	0
 7061 1b48 2A       		.uleb128 0x2a
 7062 1b49 09100000 		.4byte	.LASF369
 7063 1b4d 01       		.byte	0x1
 7064 1b4e 2A       		.uleb128 0x2a
 7065 1b4f 73070000 		.4byte	.LASF370
 7066 1b53 02       		.byte	0x2
 7067 1b54 2A       		.uleb128 0x2a
 7068 1b55 F0040000 		.4byte	.LASF371
 7069 1b59 03       		.byte	0x3
 7070 1b5a 2A       		.uleb128 0x2a
 7071 1b5b BB030000 		.4byte	.LASF372
 7072 1b5f 04       		.byte	0x4
 7073 1b60 2A       		.uleb128 0x2a
 7074 1b61 5C140000 		.4byte	.LASF373
 7075 1b65 05       		.byte	0x5
 7076 1b66 00       		.byte	0
 7077 1b67 03       		.uleb128 0x3
ARM GAS  /tmp/cchERvVK.s 			page 126


 7078 1b68 65120000 		.4byte	.LASF374
 7079 1b6c 21       		.byte	0x21
 7080 1b6d 53       		.byte	0x53
 7081 1b6e 351B0000 		.4byte	0x1b35
 7082 1b72 09       		.uleb128 0x9
 7083 1b73 3A180000 		.4byte	.LASF375
 7084 1b77 22       		.byte	0x22
 7085 1b78 6A01     		.2byte	0x16a
 7086 1b7a B7000000 		.4byte	0xb7
 7087 1b7e 09       		.uleb128 0x9
 7088 1b7f 7C040000 		.4byte	.LASF376
 7089 1b83 22       		.byte	0x22
 7090 1b84 6F01     		.2byte	0x16f
 7091 1b86 D2000000 		.4byte	0xd2
 7092 1b8a 2B       		.uleb128 0x2b
 7093 1b8b 07       		.byte	0x7
 7094 1b8c 01       		.byte	0x1
 7095 1b8d 37000000 		.4byte	0x37
 7096 1b91 22       		.byte	0x22
 7097 1b92 7401     		.2byte	0x174
 7098 1b94 AB1B0000 		.4byte	0x1bab
 7099 1b98 2A       		.uleb128 0x2a
 7100 1b99 FE040000 		.4byte	.LASF377
 7101 1b9d 01       		.byte	0x1
 7102 1b9e 2A       		.uleb128 0x2a
 7103 1b9f 8F000000 		.4byte	.LASF378
 7104 1ba3 02       		.byte	0x2
 7105 1ba4 2A       		.uleb128 0x2a
 7106 1ba5 0D0A0000 		.4byte	.LASF379
 7107 1ba9 03       		.byte	0x3
 7108 1baa 00       		.byte	0
 7109 1bab 09       		.uleb128 0x9
 7110 1bac 01260000 		.4byte	.LASF380
 7111 1bb0 22       		.byte	0x22
 7112 1bb1 7801     		.2byte	0x178
 7113 1bb3 8A1B0000 		.4byte	0x1b8a
 7114 1bb7 2B       		.uleb128 0x2b
 7115 1bb8 07       		.byte	0x7
 7116 1bb9 01       		.byte	0x1
 7117 1bba 37000000 		.4byte	0x37
 7118 1bbe 22       		.byte	0x22
 7119 1bbf 7D01     		.2byte	0x17d
 7120 1bc1 D81B0000 		.4byte	0x1bd8
 7121 1bc5 2A       		.uleb128 0x2a
 7122 1bc6 E6050000 		.4byte	.LASF381
 7123 1bca 01       		.byte	0x1
 7124 1bcb 2A       		.uleb128 0x2a
 7125 1bcc 83250000 		.4byte	.LASF382
 7126 1bd0 02       		.byte	0x2
 7127 1bd1 2A       		.uleb128 0x2a
 7128 1bd2 320B0000 		.4byte	.LASF383
 7129 1bd6 03       		.byte	0x3
 7130 1bd7 00       		.byte	0
 7131 1bd8 09       		.uleb128 0x9
 7132 1bd9 24070000 		.4byte	.LASF384
 7133 1bdd 22       		.byte	0x22
 7134 1bde 8101     		.2byte	0x181
ARM GAS  /tmp/cchERvVK.s 			page 127


 7135 1be0 B71B0000 		.4byte	0x1bb7
 7136 1be4 1C       		.uleb128 0x1c
 7137 1be5 0C       		.byte	0xc
 7138 1be6 22       		.byte	0x22
 7139 1be7 8601     		.2byte	0x186
 7140 1be9 151C0000 		.4byte	0x1c15
 7141 1bed 19       		.uleb128 0x19
 7142 1bee 61060000 		.4byte	.LASF385
 7143 1bf2 22       		.byte	0x22
 7144 1bf3 8801     		.2byte	0x188
 7145 1bf5 AB1B0000 		.4byte	0x1bab
 7146 1bf9 00       		.byte	0
 7147 1bfa 19       		.uleb128 0x19
 7148 1bfb 31040000 		.4byte	.LASF386
 7149 1bff 22       		.byte	0x22
 7150 1c00 8901     		.2byte	0x189
 7151 1c02 D2000000 		.4byte	0xd2
 7152 1c06 04       		.byte	0x4
 7153 1c07 19       		.uleb128 0x19
 7154 1c08 B3260000 		.4byte	.LASF387
 7155 1c0c 22       		.byte	0x22
 7156 1c0d 8C01     		.2byte	0x18c
 7157 1c0f D81B0000 		.4byte	0x1bd8
 7158 1c13 08       		.byte	0x8
 7159 1c14 00       		.byte	0
 7160 1c15 09       		.uleb128 0x9
 7161 1c16 09020000 		.4byte	.LASF388
 7162 1c1a 22       		.byte	0x22
 7163 1c1b 8E01     		.2byte	0x18e
 7164 1c1d E41B0000 		.4byte	0x1be4
 7165 1c21 05       		.uleb128 0x5
 7166 1c22 151C0000 		.4byte	0x1c15
 7167 1c26 09       		.uleb128 0x9
 7168 1c27 E0040000 		.4byte	.LASF389
 7169 1c2b 22       		.byte	0x22
 7170 1c2c 9301     		.2byte	0x193
 7171 1c2e 321C0000 		.4byte	0x1c32
 7172 1c32 1B       		.uleb128 0x1b
 7173 1c33 E0040000 		.4byte	.LASF389
 7174 1c37 38       		.byte	0x38
 7175 1c38 22       		.byte	0x22
 7176 1c39 9801     		.2byte	0x198
 7177 1c3b CF1C0000 		.4byte	0x1ccf
 7178 1c3f 19       		.uleb128 0x19
 7179 1c40 F4160000 		.4byte	.LASF357
 7180 1c44 22       		.byte	0x22
 7181 1c45 9C01     		.2byte	0x19c
 7182 1c47 671B0000 		.4byte	0x1b67
 7183 1c4b 00       		.byte	0
 7184 1c4c 19       		.uleb128 0x19
 7185 1c4d 381D0000 		.4byte	.LASF358
 7186 1c51 22       		.byte	0x22
 7187 1c52 A001     		.2byte	0x1a0
 7188 1c54 CF1C0000 		.4byte	0x1ccf
 7189 1c58 04       		.byte	0x4
 7190 1c59 19       		.uleb128 0x19
 7191 1c5a 52010000 		.4byte	.LASF390
ARM GAS  /tmp/cchERvVK.s 			page 128


 7192 1c5e 22       		.byte	0x22
 7193 1c5f A401     		.2byte	0x1a4
 7194 1c61 7E1B0000 		.4byte	0x1b7e
 7195 1c65 08       		.byte	0x8
 7196 1c66 19       		.uleb128 0x19
 7197 1c67 910E0000 		.4byte	.LASF391
 7198 1c6b 22       		.byte	0x22
 7199 1c6c A901     		.2byte	0x1a9
 7200 1c6e 52150000 		.4byte	0x1552
 7201 1c72 0C       		.byte	0xc
 7202 1c73 19       		.uleb128 0x19
 7203 1c74 48070000 		.4byte	.LASF392
 7204 1c78 22       		.byte	0x22
 7205 1c79 B201     		.2byte	0x1b2
 7206 1c7b 0C0B0000 		.4byte	0xb0c
 7207 1c7f 1C       		.byte	0x1c
 7208 1c80 19       		.uleb128 0x19
 7209 1c81 12100000 		.4byte	.LASF393
 7210 1c85 22       		.byte	0x22
 7211 1c86 B601     		.2byte	0x1b6
 7212 1c88 721B0000 		.4byte	0x1b72
 7213 1c8c 20       		.byte	0x20
 7214 1c8d 19       		.uleb128 0x19
 7215 1c8e 9C080000 		.4byte	.LASF394
 7216 1c92 22       		.byte	0x22
 7217 1c93 BA01     		.2byte	0x1ba
 7218 1c95 D2000000 		.4byte	0xd2
 7219 1c99 24       		.byte	0x24
 7220 1c9a 19       		.uleb128 0x19
 7221 1c9b F6080000 		.4byte	.LASF395
 7222 1c9f 22       		.byte	0x22
 7223 1ca0 BE01     		.2byte	0x1be
 7224 1ca2 D2000000 		.4byte	0xd2
 7225 1ca6 28       		.byte	0x28
 7226 1ca7 19       		.uleb128 0x19
 7227 1ca8 15010000 		.4byte	.LASF396
 7228 1cac 22       		.byte	0x22
 7229 1cad C201     		.2byte	0x1c2
 7230 1caf D51C0000 		.4byte	0x1cd5
 7231 1cb3 2C       		.byte	0x2c
 7232 1cb4 19       		.uleb128 0x19
 7233 1cb5 2D020000 		.4byte	.LASF397
 7234 1cb9 22       		.byte	0x22
 7235 1cba C601     		.2byte	0x1c6
 7236 1cbc D51C0000 		.4byte	0x1cd5
 7237 1cc0 30       		.byte	0x30
 7238 1cc1 24       		.uleb128 0x24
 7239 1cc2 69326300 		.ascii	"i2c\000"
 7240 1cc6 22       		.byte	0x22
 7241 1cc7 CA01     		.2byte	0x1ca
 7242 1cc9 DB1C0000 		.4byte	0x1cdb
 7243 1ccd 34       		.byte	0x34
 7244 1cce 00       		.byte	0
 7245 1ccf 07       		.uleb128 0x7
 7246 1cd0 04       		.byte	0x4
 7247 1cd1 211C0000 		.4byte	0x1c21
 7248 1cd5 07       		.uleb128 0x7
ARM GAS  /tmp/cchERvVK.s 			page 129


 7249 1cd6 04       		.byte	0x4
 7250 1cd7 90170000 		.4byte	0x1790
 7251 1cdb 07       		.uleb128 0x7
 7252 1cdc 04       		.byte	0x4
 7253 1cdd B1100000 		.4byte	0x10b1
 7254 1ce1 20       		.uleb128 0x20
 7255 1ce2 BE120000 		.4byte	.LASF398
 7256 1ce6 22       		.byte	0x22
 7257 1ce7 E401     		.2byte	0x1e4
 7258 1ce9 261C0000 		.4byte	0x1c26
 7259 1ced 29       		.uleb128 0x29
 7260 1cee 07       		.byte	0x7
 7261 1cef 01       		.byte	0x1
 7262 1cf0 37000000 		.4byte	0x37
 7263 1cf4 23       		.byte	0x23
 7264 1cf5 31       		.byte	0x31
 7265 1cf6 191D0000 		.4byte	0x1d19
 7266 1cfa 2A       		.uleb128 0x2a
 7267 1cfb 07250000 		.4byte	.LASF399
 7268 1cff 00       		.byte	0
 7269 1d00 2A       		.uleb128 0x2a
 7270 1d01 621F0000 		.4byte	.LASF400
 7271 1d05 01       		.byte	0x1
 7272 1d06 2A       		.uleb128 0x2a
 7273 1d07 58050000 		.4byte	.LASF401
 7274 1d0b 02       		.byte	0x2
 7275 1d0c 2A       		.uleb128 0x2a
 7276 1d0d F6140000 		.4byte	.LASF402
 7277 1d11 03       		.byte	0x3
 7278 1d12 2A       		.uleb128 0x2a
 7279 1d13 9C1D0000 		.4byte	.LASF403
 7280 1d17 04       		.byte	0x4
 7281 1d18 00       		.byte	0
 7282 1d19 03       		.uleb128 0x3
 7283 1d1a 6B210000 		.4byte	.LASF404
 7284 1d1e 23       		.byte	0x23
 7285 1d1f 37       		.byte	0x37
 7286 1d20 ED1C0000 		.4byte	0x1ced
 7287 1d24 03       		.uleb128 0x3
 7288 1d25 311A0000 		.4byte	.LASF405
 7289 1d29 23       		.byte	0x23
 7290 1d2a 3C       		.byte	0x3c
 7291 1d2b 2F1D0000 		.4byte	0x1d2f
 7292 1d2f 1B       		.uleb128 0x1b
 7293 1d30 311A0000 		.4byte	.LASF405
 7294 1d34 18       		.byte	0x18
 7295 1d35 24       		.byte	0x24
 7296 1d36 3101     		.2byte	0x131
 7297 1d38 8B1D0000 		.4byte	0x1d8b
 7298 1d3c 19       		.uleb128 0x19
 7299 1d3d F4160000 		.4byte	.LASF357
 7300 1d41 24       		.byte	0x24
 7301 1d42 3501     		.2byte	0x135
 7302 1d44 191D0000 		.4byte	0x1d19
 7303 1d48 00       		.byte	0
 7304 1d49 19       		.uleb128 0x19
 7305 1d4a 381D0000 		.4byte	.LASF358
ARM GAS  /tmp/cchERvVK.s 			page 130


 7306 1d4e 24       		.byte	0x24
 7307 1d4f 3901     		.2byte	0x139
 7308 1d51 901F0000 		.4byte	0x1f90
 7309 1d55 04       		.byte	0x4
 7310 1d56 19       		.uleb128 0x19
 7311 1d57 C80E0000 		.4byte	.LASF406
 7312 1d5b 24       		.byte	0x24
 7313 1d5c 4101     		.2byte	0x141
 7314 1d5e D2000000 		.4byte	0xd2
 7315 1d62 08       		.byte	0x8
 7316 1d63 24       		.uleb128 0x24
 7317 1d64 74696D00 		.ascii	"tim\000"
 7318 1d68 24       		.byte	0x24
 7319 1d69 4501     		.2byte	0x145
 7320 1d6b 961F0000 		.4byte	0x1f96
 7321 1d6f 0C       		.byte	0xc
 7322 1d70 19       		.uleb128 0x19
 7323 1d71 D51E0000 		.4byte	.LASF407
 7324 1d75 24       		.byte	0x24
 7325 1d76 4901     		.2byte	0x149
 7326 1d78 7F170000 		.4byte	0x177f
 7327 1d7c 10       		.byte	0x10
 7328 1d7d 19       		.uleb128 0x19
 7329 1d7e 85050000 		.4byte	.LASF408
 7330 1d82 24       		.byte	0x24
 7331 1d83 4D01     		.2byte	0x14d
 7332 1d85 7F170000 		.4byte	0x177f
 7333 1d89 14       		.byte	0x14
 7334 1d8a 00       		.byte	0
 7335 1d8b 03       		.uleb128 0x3
 7336 1d8c 841B0000 		.4byte	.LASF409
 7337 1d90 23       		.byte	0x23
 7338 1d91 43       		.byte	0x43
 7339 1d92 961D0000 		.4byte	0x1d96
 7340 1d96 07       		.uleb128 0x7
 7341 1d97 04       		.byte	0x4
 7342 1d98 9C1D0000 		.4byte	0x1d9c
 7343 1d9c 1F       		.uleb128 0x1f
 7344 1d9d A71D0000 		.4byte	0x1da7
 7345 1da1 17       		.uleb128 0x17
 7346 1da2 A71D0000 		.4byte	0x1da7
 7347 1da6 00       		.byte	0
 7348 1da7 07       		.uleb128 0x7
 7349 1da8 04       		.byte	0x4
 7350 1da9 241D0000 		.4byte	0x1d24
 7351 1dad 1C       		.uleb128 0x1c
 7352 1dae 60       		.byte	0x60
 7353 1daf 25       		.byte	0x25
 7354 1db0 9E01     		.2byte	0x19e
 7355 1db2 B91E0000 		.4byte	0x1eb9
 7356 1db6 24       		.uleb128 0x24
 7357 1db7 43523100 		.ascii	"CR1\000"
 7358 1dbb 25       		.byte	0x25
 7359 1dbc 9F01     		.2byte	0x19f
 7360 1dbe DD000000 		.4byte	0xdd
 7361 1dc2 00       		.byte	0
 7362 1dc3 24       		.uleb128 0x24
ARM GAS  /tmp/cchERvVK.s 			page 131


 7363 1dc4 43523200 		.ascii	"CR2\000"
 7364 1dc8 25       		.byte	0x25
 7365 1dc9 A001     		.2byte	0x1a0
 7366 1dcb DD000000 		.4byte	0xdd
 7367 1dcf 04       		.byte	0x4
 7368 1dd0 19       		.uleb128 0x19
 7369 1dd1 8A210000 		.4byte	.LASF410
 7370 1dd5 25       		.byte	0x25
 7371 1dd6 A101     		.2byte	0x1a1
 7372 1dd8 DD000000 		.4byte	0xdd
 7373 1ddc 08       		.byte	0x8
 7374 1ddd 19       		.uleb128 0x19
 7375 1dde CB0A0000 		.4byte	.LASF411
 7376 1de2 25       		.byte	0x25
 7377 1de3 A201     		.2byte	0x1a2
 7378 1de5 DD000000 		.4byte	0xdd
 7379 1de9 0C       		.byte	0xc
 7380 1dea 24       		.uleb128 0x24
 7381 1deb 535200   		.ascii	"SR\000"
 7382 1dee 25       		.byte	0x25
 7383 1def A301     		.2byte	0x1a3
 7384 1df1 DD000000 		.4byte	0xdd
 7385 1df5 10       		.byte	0x10
 7386 1df6 24       		.uleb128 0x24
 7387 1df7 45475200 		.ascii	"EGR\000"
 7388 1dfb 25       		.byte	0x25
 7389 1dfc A401     		.2byte	0x1a4
 7390 1dfe DD000000 		.4byte	0xdd
 7391 1e02 14       		.byte	0x14
 7392 1e03 19       		.uleb128 0x19
 7393 1e04 B4250000 		.4byte	.LASF412
 7394 1e08 25       		.byte	0x25
 7395 1e09 A501     		.2byte	0x1a5
 7396 1e0b DD000000 		.4byte	0xdd
 7397 1e0f 18       		.byte	0x18
 7398 1e10 19       		.uleb128 0x19
 7399 1e11 BA250000 		.4byte	.LASF413
 7400 1e15 25       		.byte	0x25
 7401 1e16 A601     		.2byte	0x1a6
 7402 1e18 DD000000 		.4byte	0xdd
 7403 1e1c 1C       		.byte	0x1c
 7404 1e1d 19       		.uleb128 0x19
 7405 1e1e 97070000 		.4byte	.LASF414
 7406 1e22 25       		.byte	0x25
 7407 1e23 A701     		.2byte	0x1a7
 7408 1e25 DD000000 		.4byte	0xdd
 7409 1e29 20       		.byte	0x20
 7410 1e2a 24       		.uleb128 0x24
 7411 1e2b 434E5400 		.ascii	"CNT\000"
 7412 1e2f 25       		.byte	0x25
 7413 1e30 A801     		.2byte	0x1a8
 7414 1e32 DD000000 		.4byte	0xdd
 7415 1e36 24       		.byte	0x24
 7416 1e37 24       		.uleb128 0x24
 7417 1e38 50534300 		.ascii	"PSC\000"
 7418 1e3c 25       		.byte	0x25
 7419 1e3d A901     		.2byte	0x1a9
ARM GAS  /tmp/cchERvVK.s 			page 132


 7420 1e3f DD000000 		.4byte	0xdd
 7421 1e43 28       		.byte	0x28
 7422 1e44 24       		.uleb128 0x24
 7423 1e45 41525200 		.ascii	"ARR\000"
 7424 1e49 25       		.byte	0x25
 7425 1e4a AA01     		.2byte	0x1aa
 7426 1e4c DD000000 		.4byte	0xdd
 7427 1e50 2C       		.byte	0x2c
 7428 1e51 24       		.uleb128 0x24
 7429 1e52 52435200 		.ascii	"RCR\000"
 7430 1e56 25       		.byte	0x25
 7431 1e57 AB01     		.2byte	0x1ab
 7432 1e59 DD000000 		.4byte	0xdd
 7433 1e5d 30       		.byte	0x30
 7434 1e5e 24       		.uleb128 0x24
 7435 1e5f 43435200 		.ascii	"CCR\000"
 7436 1e63 25       		.byte	0x25
 7437 1e64 AC01     		.2byte	0x1ac
 7438 1e66 21100000 		.4byte	0x1021
 7439 1e6a 34       		.byte	0x34
 7440 1e6b 19       		.uleb128 0x19
 7441 1e6c EF010000 		.4byte	.LASF415
 7442 1e70 25       		.byte	0x25
 7443 1e71 AD01     		.2byte	0x1ad
 7444 1e73 DD000000 		.4byte	0xdd
 7445 1e77 44       		.byte	0x44
 7446 1e78 24       		.uleb128 0x24
 7447 1e79 44435200 		.ascii	"DCR\000"
 7448 1e7d 25       		.byte	0x25
 7449 1e7e AE01     		.2byte	0x1ae
 7450 1e80 DD000000 		.4byte	0xdd
 7451 1e84 48       		.byte	0x48
 7452 1e85 19       		.uleb128 0x19
 7453 1e86 47170000 		.4byte	.LASF416
 7454 1e8a 25       		.byte	0x25
 7455 1e8b AF01     		.2byte	0x1af
 7456 1e8d DD000000 		.4byte	0xdd
 7457 1e91 4C       		.byte	0x4c
 7458 1e92 24       		.uleb128 0x24
 7459 1e93 4F5200   		.ascii	"OR\000"
 7460 1e96 25       		.byte	0x25
 7461 1e97 B001     		.2byte	0x1b0
 7462 1e99 DD000000 		.4byte	0xdd
 7463 1e9d 50       		.byte	0x50
 7464 1e9e 19       		.uleb128 0x19
 7465 1e9f C0250000 		.4byte	.LASF417
 7466 1ea3 25       		.byte	0x25
 7467 1ea4 B101     		.2byte	0x1b1
 7468 1ea6 DD000000 		.4byte	0xdd
 7469 1eaa 54       		.byte	0x54
 7470 1eab 19       		.uleb128 0x19
 7471 1eac EB0E0000 		.4byte	.LASF418
 7472 1eb0 25       		.byte	0x25
 7473 1eb1 B201     		.2byte	0x1b2
 7474 1eb3 0C100000 		.4byte	0x100c
 7475 1eb7 58       		.byte	0x58
 7476 1eb8 00       		.byte	0
ARM GAS  /tmp/cchERvVK.s 			page 133


 7477 1eb9 09       		.uleb128 0x9
 7478 1eba 81200000 		.4byte	.LASF419
 7479 1ebe 25       		.byte	0x25
 7480 1ebf B301     		.2byte	0x1b3
 7481 1ec1 AD1D0000 		.4byte	0x1dad
 7482 1ec5 29       		.uleb128 0x29
 7483 1ec6 07       		.byte	0x7
 7484 1ec7 01       		.byte	0x1
 7485 1ec8 37000000 		.4byte	0x37
 7486 1ecc 24       		.byte	0x24
 7487 1ecd EE       		.byte	0xee
 7488 1ece DF1E0000 		.4byte	0x1edf
 7489 1ed2 2A       		.uleb128 0x2a
 7490 1ed3 C5080000 		.4byte	.LASF420
 7491 1ed7 00       		.byte	0
 7492 1ed8 2A       		.uleb128 0x2a
 7493 1ed9 E21B0000 		.4byte	.LASF421
 7494 1edd 01       		.byte	0x1
 7495 1ede 00       		.byte	0
 7496 1edf 03       		.uleb128 0x3
 7497 1ee0 DD230000 		.4byte	.LASF422
 7498 1ee4 24       		.byte	0x24
 7499 1ee5 F1       		.byte	0xf1
 7500 1ee6 C51E0000 		.4byte	0x1ec5
 7501 1eea 03       		.uleb128 0x3
 7502 1eeb 171C0000 		.4byte	.LASF423
 7503 1eef 24       		.byte	0x24
 7504 1ef0 F6       		.byte	0xf6
 7505 1ef1 D2000000 		.4byte	0xd2
 7506 1ef5 29       		.uleb128 0x29
 7507 1ef6 07       		.byte	0x7
 7508 1ef7 01       		.byte	0x1
 7509 1ef8 37000000 		.4byte	0x37
 7510 1efc 24       		.byte	0x24
 7511 1efd FB       		.byte	0xfb
 7512 1efe 0F1F0000 		.4byte	0x1f0f
 7513 1f02 2A       		.uleb128 0x2a
 7514 1f03 2F1B0000 		.4byte	.LASF424
 7515 1f07 00       		.byte	0
 7516 1f08 2A       		.uleb128 0x2a
 7517 1f09 D1200000 		.4byte	.LASF425
 7518 1f0d 01       		.byte	0x1
 7519 1f0e 00       		.byte	0
 7520 1f0f 03       		.uleb128 0x3
 7521 1f10 25060000 		.4byte	.LASF426
 7522 1f14 24       		.byte	0x24
 7523 1f15 FE       		.byte	0xfe
 7524 1f16 F51E0000 		.4byte	0x1ef5
 7525 1f1a 1C       		.uleb128 0x1c
 7526 1f1b 1C       		.byte	0x1c
 7527 1f1c 24       		.byte	0x24
 7528 1f1d 0901     		.2byte	0x109
 7529 1f1f 7F1F0000 		.4byte	0x1f7f
 7530 1f23 19       		.uleb128 0x19
 7531 1f24 B0080000 		.4byte	.LASF427
 7532 1f28 24       		.byte	0x24
 7533 1f29 0D01     		.2byte	0x10d
ARM GAS  /tmp/cchERvVK.s 			page 134


 7534 1f2b DF1E0000 		.4byte	0x1edf
 7535 1f2f 00       		.byte	0
 7536 1f30 19       		.uleb128 0x19
 7537 1f31 46250000 		.4byte	.LASF428
 7538 1f35 24       		.byte	0x24
 7539 1f36 1301     		.2byte	0x113
 7540 1f38 EA1E0000 		.4byte	0x1eea
 7541 1f3c 04       		.byte	0x4
 7542 1f3d 19       		.uleb128 0x19
 7543 1f3e 67140000 		.4byte	.LASF429
 7544 1f42 24       		.byte	0x24
 7545 1f43 1701     		.2byte	0x117
 7546 1f45 8B1D0000 		.4byte	0x1d8b
 7547 1f49 08       		.byte	0x8
 7548 1f4a 19       		.uleb128 0x19
 7549 1f4b 5B120000 		.4byte	.LASF430
 7550 1f4f 24       		.byte	0x24
 7551 1f50 1B01     		.2byte	0x11b
 7552 1f52 8B1D0000 		.4byte	0x1d8b
 7553 1f56 0C       		.byte	0xc
 7554 1f57 19       		.uleb128 0x19
 7555 1f58 470B0000 		.4byte	.LASF431
 7556 1f5c 24       		.byte	0x24
 7557 1f5d 1F01     		.2byte	0x11f
 7558 1f5f 8B1D0000 		.4byte	0x1d8b
 7559 1f63 10       		.byte	0x10
 7560 1f64 19       		.uleb128 0x19
 7561 1f65 E8120000 		.4byte	.LASF432
 7562 1f69 24       		.byte	0x24
 7563 1f6a 2501     		.2byte	0x125
 7564 1f6c 0F1F0000 		.4byte	0x1f0f
 7565 1f70 14       		.byte	0x14
 7566 1f71 19       		.uleb128 0x19
 7567 1f72 290E0000 		.4byte	.LASF433
 7568 1f76 24       		.byte	0x24
 7569 1f77 2B01     		.2byte	0x12b
 7570 1f79 D2000000 		.4byte	0xd2
 7571 1f7d 18       		.byte	0x18
 7572 1f7e 00       		.byte	0
 7573 1f7f 09       		.uleb128 0x9
 7574 1f80 3B1A0000 		.4byte	.LASF434
 7575 1f84 24       		.byte	0x24
 7576 1f85 2C01     		.2byte	0x12c
 7577 1f87 1A1F0000 		.4byte	0x1f1a
 7578 1f8b 05       		.uleb128 0x5
 7579 1f8c 7F1F0000 		.4byte	0x1f7f
 7580 1f90 07       		.uleb128 0x7
 7581 1f91 04       		.byte	0x4
 7582 1f92 8B1F0000 		.4byte	0x1f8b
 7583 1f96 07       		.uleb128 0x7
 7584 1f97 04       		.byte	0x4
 7585 1f98 B91E0000 		.4byte	0x1eb9
 7586 1f9c 20       		.uleb128 0x20
 7587 1f9d 65100000 		.4byte	.LASF435
 7588 1fa1 24       		.byte	0x24
 7589 1fa2 8A01     		.2byte	0x18a
 7590 1fa4 241D0000 		.4byte	0x1d24
ARM GAS  /tmp/cchERvVK.s 			page 135


 7591 1fa8 29       		.uleb128 0x29
 7592 1fa9 07       		.byte	0x7
 7593 1faa 01       		.byte	0x1
 7594 1fab 37000000 		.4byte	0x37
 7595 1faf 26       		.byte	0x26
 7596 1fb0 55       		.byte	0x55
 7597 1fb1 C81F0000 		.4byte	0x1fc8
 7598 1fb5 2A       		.uleb128 0x2a
 7599 1fb6 A9060000 		.4byte	.LASF436
 7600 1fba 00       		.byte	0
 7601 1fbb 2A       		.uleb128 0x2a
 7602 1fbc 1F0F0000 		.4byte	.LASF437
 7603 1fc0 01       		.byte	0x1
 7604 1fc1 2A       		.uleb128 0x2a
 7605 1fc2 26270000 		.4byte	.LASF438
 7606 1fc6 02       		.byte	0x2
 7607 1fc7 00       		.byte	0
 7608 1fc8 03       		.uleb128 0x3
 7609 1fc9 31190000 		.4byte	.LASF439
 7610 1fcd 26       		.byte	0x26
 7611 1fce 59       		.byte	0x59
 7612 1fcf A81F0000 		.4byte	0x1fa8
 7613 1fd3 03       		.uleb128 0x3
 7614 1fd4 B5220000 		.4byte	.LASF440
 7615 1fd8 26       		.byte	0x26
 7616 1fd9 5E       		.byte	0x5e
 7617 1fda DE1F0000 		.4byte	0x1fde
 7618 1fde 13       		.uleb128 0x13
 7619 1fdf B5220000 		.4byte	.LASF440
 7620 1fe3 5801     		.2byte	0x158
 7621 1fe5 26       		.byte	0x26
 7622 1fe6 78       		.byte	0x78
 7623 1fe7 4B200000 		.4byte	0x204b
 7624 1feb 12       		.uleb128 0x12
 7625 1fec 766D7400 		.ascii	"vmt\000"
 7626 1ff0 26       		.byte	0x26
 7627 1ff1 7A       		.byte	0x7a
 7628 1ff2 E1200000 		.4byte	0x20e1
 7629 1ff6 00       		.byte	0
 7630 1ff7 0F       		.uleb128 0xf
 7631 1ff8 32000000 		.4byte	.LASF441
 7632 1ffc 26       		.byte	0x26
 7633 1ffd 7B       		.byte	0x7b
 7634 1ffe D6150000 		.4byte	0x15d6
 7635 2002 04       		.byte	0x4
 7636 2003 0F       		.uleb128 0xf
 7637 2004 F4160000 		.4byte	.LASF357
 7638 2008 26       		.byte	0x26
 7639 2009 7B       		.byte	0x7b
 7640 200a C81F0000 		.4byte	0x1fc8
 7641 200e 08       		.byte	0x8
 7642 200f 0F       		.uleb128 0xf
 7643 2010 F8180000 		.4byte	.LASF442
 7644 2014 26       		.byte	0x26
 7645 2015 7B       		.byte	0x7b
 7646 2016 81160000 		.4byte	0x1681
 7647 201a 0C       		.byte	0xc
ARM GAS  /tmp/cchERvVK.s 			page 136


 7648 201b 0F       		.uleb128 0xf
 7649 201c 00130000 		.4byte	.LASF443
 7650 2020 26       		.byte	0x26
 7651 2021 7B       		.byte	0x7b
 7652 2022 8C160000 		.4byte	0x168c
 7653 2026 30       		.byte	0x30
 7654 2027 12       		.uleb128 0x12
 7655 2028 696200   		.ascii	"ib\000"
 7656 202b 26       		.byte	0x26
 7657 202c 7B       		.byte	0x7b
 7658 202d E7200000 		.4byte	0x20e7
 7659 2031 54       		.byte	0x54
 7660 2032 12       		.uleb128 0x12
 7661 2033 6F6200   		.ascii	"ob\000"
 7662 2036 26       		.byte	0x26
 7663 2037 7B       		.byte	0x7b
 7664 2038 E7200000 		.4byte	0x20e7
 7665 203c D4       		.byte	0xd4
 7666 203d 14       		.uleb128 0x14
 7667 203e FB1A0000 		.4byte	.LASF444
 7668 2042 26       		.byte	0x26
 7669 2043 7B       		.byte	0x7b
 7670 2044 F7200000 		.4byte	0x20f7
 7671 2048 5401     		.2byte	0x154
 7672 204a 00       		.byte	0
 7673 204b 27       		.uleb128 0x27
 7674 204c 53443300 		.ascii	"SD3\000"
 7675 2050 27       		.byte	0x27
 7676 2051 1501     		.2byte	0x115
 7677 2053 D31F0000 		.4byte	0x1fd3
 7678 2057 27       		.uleb128 0x27
 7679 2058 53443400 		.ascii	"SD4\000"
 7680 205c 27       		.byte	0x27
 7681 205d 1801     		.2byte	0x118
 7682 205f D31F0000 		.4byte	0x1fd3
 7683 2063 27       		.uleb128 0x27
 7684 2064 53443600 		.ascii	"SD6\000"
 7685 2068 27       		.byte	0x27
 7686 2069 1E01     		.2byte	0x11e
 7687 206b D31F0000 		.4byte	0x1fd3
 7688 206f 11       		.uleb128 0x11
 7689 2070 75100000 		.4byte	.LASF445
 7690 2074 20       		.byte	0x20
 7691 2075 26       		.byte	0x26
 7692 2076 6D       		.byte	0x6d
 7693 2077 DC200000 		.4byte	0x20dc
 7694 207b 0F       		.uleb128 0xf
 7695 207c E7180000 		.4byte	.LASF446
 7696 2080 26       		.byte	0x26
 7697 2081 6E       		.byte	0x6e
 7698 2082 B6160000 		.4byte	0x16b6
 7699 2086 00       		.byte	0
 7700 2087 0F       		.uleb128 0xf
 7701 2088 C8010000 		.4byte	.LASF447
 7702 208c 26       		.byte	0x26
 7703 208d 6E       		.byte	0x6e
 7704 208e D5160000 		.4byte	0x16d5
ARM GAS  /tmp/cchERvVK.s 			page 137


 7705 2092 04       		.byte	0x4
 7706 2093 12       		.uleb128 0x12
 7707 2094 70757400 		.ascii	"put\000"
 7708 2098 26       		.byte	0x26
 7709 2099 6E       		.byte	0x6e
 7710 209a EF160000 		.4byte	0x16ef
 7711 209e 08       		.byte	0x8
 7712 209f 12       		.uleb128 0x12
 7713 20a0 67657400 		.ascii	"get\000"
 7714 20a4 26       		.byte	0x26
 7715 20a5 6E       		.byte	0x6e
 7716 20a6 04170000 		.4byte	0x1704
 7717 20aa 0C       		.byte	0xc
 7718 20ab 0F       		.uleb128 0xf
 7719 20ac 3E150000 		.4byte	.LASF448
 7720 20b0 26       		.byte	0x26
 7721 20b1 6E       		.byte	0x6e
 7722 20b2 CF170000 		.4byte	0x17cf
 7723 20b6 10       		.byte	0x10
 7724 20b7 0F       		.uleb128 0xf
 7725 20b8 A5180000 		.4byte	.LASF449
 7726 20bc 26       		.byte	0x26
 7727 20bd 6E       		.byte	0x6e
 7728 20be E9170000 		.4byte	0x17e9
 7729 20c2 14       		.byte	0x14
 7730 20c3 0F       		.uleb128 0xf
 7731 20c4 89230000 		.4byte	.LASF450
 7732 20c8 26       		.byte	0x26
 7733 20c9 6E       		.byte	0x6e
 7734 20ca 0D180000 		.4byte	0x180d
 7735 20ce 18       		.byte	0x18
 7736 20cf 0F       		.uleb128 0xf
 7737 20d0 7A140000 		.4byte	.LASF451
 7738 20d4 26       		.byte	0x26
 7739 20d5 6E       		.byte	0x6e
 7740 20d6 31180000 		.4byte	0x1831
 7741 20da 1C       		.byte	0x1c
 7742 20db 00       		.byte	0
 7743 20dc 05       		.uleb128 0x5
 7744 20dd 6F200000 		.4byte	0x206f
 7745 20e1 07       		.uleb128 0x7
 7746 20e2 04       		.byte	0x4
 7747 20e3 DC200000 		.4byte	0x20dc
 7748 20e7 0C       		.uleb128 0xc
 7749 20e8 A7000000 		.4byte	0xa7
 7750 20ec F7200000 		.4byte	0x20f7
 7751 20f0 0D       		.uleb128 0xd
 7752 20f1 9B000000 		.4byte	0x9b
 7753 20f5 7F       		.byte	0x7f
 7754 20f6 00       		.byte	0
 7755 20f7 07       		.uleb128 0x7
 7756 20f8 04       		.byte	0x4
 7757 20f9 A9110000 		.4byte	0x11a9
 7758 20fd 29       		.uleb128 0x29
 7759 20fe 07       		.byte	0x7
 7760 20ff 01       		.byte	0x1
 7761 2100 37000000 		.4byte	0x37
ARM GAS  /tmp/cchERvVK.s 			page 138


 7762 2104 28       		.byte	0x28
 7763 2105 46       		.byte	0x46
 7764 2106 29210000 		.4byte	0x2129
 7765 210a 2A       		.uleb128 0x2a
 7766 210b 60070000 		.4byte	.LASF452
 7767 210f 00       		.byte	0
 7768 2110 2A       		.uleb128 0x2a
 7769 2111 29030000 		.4byte	.LASF453
 7770 2115 01       		.byte	0x1
 7771 2116 2A       		.uleb128 0x2a
 7772 2117 14240000 		.4byte	.LASF454
 7773 211b 02       		.byte	0x2
 7774 211c 2A       		.uleb128 0x2a
 7775 211d A3120000 		.4byte	.LASF455
 7776 2121 03       		.byte	0x3
 7777 2122 2A       		.uleb128 0x2a
 7778 2123 A3140000 		.4byte	.LASF456
 7779 2127 04       		.byte	0x4
 7780 2128 00       		.byte	0
 7781 2129 03       		.uleb128 0x3
 7782 212a A9030000 		.4byte	.LASF457
 7783 212e 28       		.byte	0x28
 7784 212f 4C       		.byte	0x4c
 7785 2130 FD200000 		.4byte	0x20fd
 7786 2134 09       		.uleb128 0x9
 7787 2135 25230000 		.4byte	.LASF458
 7788 2139 29       		.byte	0x29
 7789 213a 9601     		.2byte	0x196
 7790 213c 40210000 		.4byte	0x2140
 7791 2140 1B       		.uleb128 0x1b
 7792 2141 25230000 		.4byte	.LASF458
 7793 2145 30       		.byte	0x30
 7794 2146 29       		.byte	0x29
 7795 2147 BA01     		.2byte	0x1ba
 7796 2149 C3210000 		.4byte	0x21c3
 7797 214d 19       		.uleb128 0x19
 7798 214e F4160000 		.4byte	.LASF357
 7799 2152 29       		.byte	0x29
 7800 2153 BE01     		.2byte	0x1be
 7801 2155 29210000 		.4byte	0x2129
 7802 2159 00       		.byte	0
 7803 215a 19       		.uleb128 0x19
 7804 215b 381D0000 		.4byte	.LASF358
 7805 215f 29       		.byte	0x29
 7806 2160 C201     		.2byte	0x1c2
 7807 2162 35220000 		.4byte	0x2235
 7808 2166 04       		.byte	0x4
 7809 2167 19       		.uleb128 0x19
 7810 2168 48070000 		.4byte	.LASF392
 7811 216c 29       		.byte	0x29
 7812 216d C701     		.2byte	0x1c7
 7813 216f 0C0B0000 		.4byte	0xb0c
 7814 2173 08       		.byte	0x8
 7815 2174 19       		.uleb128 0x19
 7816 2175 910E0000 		.4byte	.LASF391
 7817 2179 29       		.byte	0x29
 7818 217a CD01     		.2byte	0x1cd
ARM GAS  /tmp/cchERvVK.s 			page 139


 7819 217c 52150000 		.4byte	0x1552
 7820 2180 0C       		.byte	0xc
 7821 2181 24       		.uleb128 0x24
 7822 2182 73706900 		.ascii	"spi\000"
 7823 2186 29       		.byte	0x29
 7824 2187 D601     		.2byte	0x1d6
 7825 2189 3B220000 		.4byte	0x223b
 7826 218d 1C       		.byte	0x1c
 7827 218e 19       		.uleb128 0x19
 7828 218f 15010000 		.4byte	.LASF396
 7829 2193 29       		.byte	0x29
 7830 2194 DA01     		.2byte	0x1da
 7831 2196 D51C0000 		.4byte	0x1cd5
 7832 219a 20       		.byte	0x20
 7833 219b 19       		.uleb128 0x19
 7834 219c 2D020000 		.4byte	.LASF397
 7835 21a0 29       		.byte	0x29
 7836 21a1 DE01     		.2byte	0x1de
 7837 21a3 D51C0000 		.4byte	0x1cd5
 7838 21a7 24       		.byte	0x24
 7839 21a8 19       		.uleb128 0x19
 7840 21a9 9C080000 		.4byte	.LASF394
 7841 21ad 29       		.byte	0x29
 7842 21ae E201     		.2byte	0x1e2
 7843 21b0 D2000000 		.4byte	0xd2
 7844 21b4 28       		.byte	0x28
 7845 21b5 19       		.uleb128 0x19
 7846 21b6 F6080000 		.4byte	.LASF395
 7847 21ba 29       		.byte	0x29
 7848 21bb E601     		.2byte	0x1e6
 7849 21bd D2000000 		.4byte	0xd2
 7850 21c1 2C       		.byte	0x2c
 7851 21c2 00       		.byte	0
 7852 21c3 09       		.uleb128 0x9
 7853 21c4 59010000 		.4byte	.LASF459
 7854 21c8 29       		.byte	0x29
 7855 21c9 9E01     		.2byte	0x19e
 7856 21cb CF210000 		.4byte	0x21cf
 7857 21cf 07       		.uleb128 0x7
 7858 21d0 04       		.byte	0x4
 7859 21d1 D5210000 		.4byte	0x21d5
 7860 21d5 1F       		.uleb128 0x1f
 7861 21d6 E0210000 		.4byte	0x21e0
 7862 21da 17       		.uleb128 0x17
 7863 21db E0210000 		.4byte	0x21e0
 7864 21df 00       		.byte	0
 7865 21e0 07       		.uleb128 0x7
 7866 21e1 04       		.byte	0x4
 7867 21e2 34210000 		.4byte	0x2134
 7868 21e6 1C       		.uleb128 0x1c
 7869 21e7 0C       		.byte	0xc
 7870 21e8 29       		.byte	0x29
 7871 21e9 A301     		.2byte	0x1a3
 7872 21eb 24220000 		.4byte	0x2224
 7873 21ef 19       		.uleb128 0x19
 7874 21f0 B3090000 		.4byte	.LASF460
 7875 21f4 29       		.byte	0x29
ARM GAS  /tmp/cchERvVK.s 			page 140


 7876 21f5 A701     		.2byte	0x1a7
 7877 21f7 C3210000 		.4byte	0x21c3
 7878 21fb 00       		.byte	0
 7879 21fc 19       		.uleb128 0x19
 7880 21fd 00250000 		.4byte	.LASF461
 7881 2201 29       		.byte	0x29
 7882 2202 AC01     		.2byte	0x1ac
 7883 2204 FD190000 		.4byte	0x19fd
 7884 2208 04       		.byte	0x4
 7885 2209 19       		.uleb128 0x19
 7886 220a F0080000 		.4byte	.LASF462
 7887 220e 29       		.byte	0x29
 7888 220f B001     		.2byte	0x1b0
 7889 2211 B7000000 		.4byte	0xb7
 7890 2215 08       		.byte	0x8
 7891 2216 24       		.uleb128 0x24
 7892 2217 63723100 		.ascii	"cr1\000"
 7893 221b 29       		.byte	0x29
 7894 221c B401     		.2byte	0x1b4
 7895 221e B7000000 		.4byte	0xb7
 7896 2222 0A       		.byte	0xa
 7897 2223 00       		.byte	0
 7898 2224 09       		.uleb128 0x9
 7899 2225 6D220000 		.4byte	.LASF463
 7900 2229 29       		.byte	0x29
 7901 222a B501     		.2byte	0x1b5
 7902 222c E6210000 		.4byte	0x21e6
 7903 2230 05       		.uleb128 0x5
 7904 2231 24220000 		.4byte	0x2224
 7905 2235 07       		.uleb128 0x7
 7906 2236 04       		.byte	0x4
 7907 2237 30220000 		.4byte	0x2230
 7908 223b 07       		.uleb128 0x7
 7909 223c 04       		.byte	0x4
 7910 223d 3A110000 		.4byte	0x113a
 7911 2241 20       		.uleb128 0x20
 7912 2242 0E210000 		.4byte	.LASF464
 7913 2246 29       		.byte	0x29
 7914 2247 F201     		.2byte	0x1f2
 7915 2249 34210000 		.4byte	0x2134
 7916 224d 03       		.uleb128 0x3
 7917 224e C4120000 		.4byte	.LASF465
 7918 2252 2A       		.byte	0x2a
 7919 2253 FA       		.byte	0xfa
 7920 2254 58220000 		.4byte	0x2258
 7921 2258 18       		.uleb128 0x18
 7922 2259 C4120000 		.4byte	.LASF465
 7923 225d 8002     		.2byte	0x280
 7924 225f 2B       		.byte	0x2b
 7925 2260 7701     		.2byte	0x177
 7926 2262 84230000 		.4byte	0x2384
 7927 2266 19       		.uleb128 0x19
 7928 2267 F4160000 		.4byte	.LASF357
 7929 226b 2B       		.byte	0x2b
 7930 226c 7B01     		.2byte	0x17b
 7931 226e BC230000 		.4byte	0x23bc
 7932 2272 00       		.byte	0
ARM GAS  /tmp/cchERvVK.s 			page 141


 7933 2273 19       		.uleb128 0x19
 7934 2274 381D0000 		.4byte	.LASF358
 7935 2278 2B       		.byte	0x2b
 7936 2279 7F01     		.2byte	0x17f
 7937 227b DF2C0000 		.4byte	0x2cdf
 7938 227f 04       		.byte	0x4
 7939 2280 19       		.uleb128 0x19
 7940 2281 96220000 		.4byte	.LASF466
 7941 2285 2B       		.byte	0x2b
 7942 2286 8301     		.2byte	0x183
 7943 2288 B7000000 		.4byte	0xb7
 7944 228c 08       		.byte	0x8
 7945 228d 19       		.uleb128 0x19
 7946 228e 25250000 		.4byte	.LASF467
 7947 2292 2B       		.byte	0x2b
 7948 2293 8701     		.2byte	0x187
 7949 2295 B7000000 		.4byte	0xb7
 7950 2299 0A       		.byte	0xa
 7951 229a 24       		.uleb128 0x24
 7952 229b 65706300 		.ascii	"epc\000"
 7953 229f 2B       		.byte	0x2b
 7954 22a0 8B01     		.2byte	0x18b
 7955 22a2 E52C0000 		.4byte	0x2ce5
 7956 22a6 0C       		.byte	0xc
 7957 22a7 19       		.uleb128 0x19
 7958 22a8 7F020000 		.4byte	.LASF468
 7959 22ac 2B       		.byte	0x2b
 7960 22ad 9201     		.2byte	0x192
 7961 22af FB2C0000 		.4byte	0x2cfb
 7962 22b3 1C       		.byte	0x1c
 7963 22b4 19       		.uleb128 0x19
 7964 22b5 060E0000 		.4byte	.LASF469
 7965 22b9 2B       		.byte	0x2b
 7966 22ba 9901     		.2byte	0x199
 7967 22bc FB2C0000 		.4byte	0x2cfb
 7968 22c0 28       		.byte	0x28
 7969 22c1 19       		.uleb128 0x19
 7970 22c2 23110000 		.4byte	.LASF470
 7971 22c6 2B       		.byte	0x2b
 7972 22c7 9D01     		.2byte	0x19d
 7973 22c9 01240000 		.4byte	0x2401
 7974 22cd 34       		.byte	0x34
 7975 22ce 19       		.uleb128 0x19
 7976 22cf 891C0000 		.4byte	.LASF471
 7977 22d3 2B       		.byte	0x2b
 7978 22d4 A101     		.2byte	0x1a1
 7979 22d6 7B160000 		.4byte	0x167b
 7980 22da 38       		.byte	0x38
 7981 22db 19       		.uleb128 0x19
 7982 22dc 35180000 		.4byte	.LASF472
 7983 22e0 2B       		.byte	0x2b
 7984 22e1 A501     		.2byte	0x1a5
 7985 22e3 F2000000 		.4byte	0xf2
 7986 22e7 3C       		.byte	0x3c
 7987 22e8 19       		.uleb128 0x19
 7988 22e9 861F0000 		.4byte	.LASF473
 7989 22ed 2B       		.byte	0x2b
ARM GAS  /tmp/cchERvVK.s 			page 142


 7990 22ee A901     		.2byte	0x1a9
 7991 22f0 81240000 		.4byte	0x2481
 7992 22f4 40       		.byte	0x40
 7993 22f5 19       		.uleb128 0x19
 7994 22f6 5A070000 		.4byte	.LASF474
 7995 22fa 2B       		.byte	0x2b
 7996 22fb AD01     		.2byte	0x1ad
 7997 22fd 18170000 		.4byte	0x1718
 7998 2301 44       		.byte	0x44
 7999 2302 19       		.uleb128 0x19
 8000 2303 6B160000 		.4byte	.LASF475
 8001 2307 2B       		.byte	0x2b
 8002 2308 B101     		.2byte	0x1b1
 8003 230a B7000000 		.4byte	0xb7
 8004 230e 4C       		.byte	0x4c
 8005 230f 19       		.uleb128 0x19
 8006 2310 8A160000 		.4byte	.LASF476
 8007 2314 2B       		.byte	0x2b
 8008 2315 B501     		.2byte	0x1b5
 8009 2317 A7000000 		.4byte	0xa7
 8010 231b 4E       		.byte	0x4e
 8011 231c 19       		.uleb128 0x19
 8012 231d A11B0000 		.4byte	.LASF477
 8013 2321 2B       		.byte	0x2b
 8014 2322 B901     		.2byte	0x1b9
 8015 2324 A7000000 		.4byte	0xa7
 8016 2328 4F       		.byte	0x4f
 8017 2329 24       		.uleb128 0x24
 8018 232a 6F746700 		.ascii	"otg\000"
 8019 232e 2B       		.byte	0x2b
 8020 232f C101     		.2byte	0x1c1
 8021 2331 0B2D0000 		.4byte	0x2d0b
 8022 2335 50       		.byte	0x50
 8023 2336 19       		.uleb128 0x19
 8024 2337 BB0F0000 		.4byte	.LASF478
 8025 233b 2B       		.byte	0x2b
 8026 233c C501     		.2byte	0x1c5
 8027 233e 112D0000 		.4byte	0x2d11
 8028 2342 54       		.byte	0x54
 8029 2343 19       		.uleb128 0x19
 8030 2344 9A200000 		.4byte	.LASF479
 8031 2348 2B       		.byte	0x2b
 8032 2349 C901     		.2byte	0x1c9
 8033 234b D2000000 		.4byte	0xd2
 8034 234f 58       		.byte	0x58
 8035 2350 19       		.uleb128 0x19
 8036 2351 BE0E0000 		.4byte	.LASF480
 8037 2355 2B       		.byte	0x2b
 8038 2356 CD01     		.2byte	0x1cd
 8039 2358 D2000000 		.4byte	0xd2
 8040 235c 5C       		.byte	0x5c
 8041 235d 19       		.uleb128 0x19
 8042 235e 15080000 		.4byte	.LASF481
 8043 2362 2B       		.byte	0x2b
 8044 2363 D101     		.2byte	0x1d1
 8045 2365 0C0B0000 		.4byte	0xb0c
 8046 2369 60       		.byte	0x60
ARM GAS  /tmp/cchERvVK.s 			page 143


 8047 236a 24       		.uleb128 0x24
 8048 236b 747200   		.ascii	"tr\000"
 8049 236e 2B       		.byte	0x2b
 8050 236f D601     		.2byte	0x1d6
 8051 2371 0C0B0000 		.4byte	0xb0c
 8052 2375 64       		.byte	0x64
 8053 2376 19       		.uleb128 0x19
 8054 2377 83150000 		.4byte	.LASF482
 8055 237b 2B       		.byte	0x2b
 8056 237c DA01     		.2byte	0x1da
 8057 237e 172D0000 		.4byte	0x2d17
 8058 2382 68       		.byte	0x68
 8059 2383 00       		.byte	0
 8060 2384 03       		.uleb128 0x3
 8061 2385 72010000 		.4byte	.LASF483
 8062 2389 2A       		.byte	0x2a
 8063 238a FF       		.byte	0xff
 8064 238b A7000000 		.4byte	0xa7
 8065 238f 2B       		.uleb128 0x2b
 8066 2390 07       		.byte	0x7
 8067 2391 01       		.byte	0x1
 8068 2392 37000000 		.4byte	0x37
 8069 2396 2A       		.byte	0x2a
 8070 2397 0401     		.2byte	0x104
 8071 2399 BC230000 		.4byte	0x23bc
 8072 239d 2A       		.uleb128 0x2a
 8073 239e DD250000 		.4byte	.LASF484
 8074 23a2 00       		.byte	0
 8075 23a3 2A       		.uleb128 0x2a
 8076 23a4 00000000 		.4byte	.LASF485
 8077 23a8 01       		.byte	0x1
 8078 23a9 2A       		.uleb128 0x2a
 8079 23aa 70140000 		.4byte	.LASF486
 8080 23ae 02       		.byte	0x2
 8081 23af 2A       		.uleb128 0x2a
 8082 23b0 D7190000 		.4byte	.LASF487
 8083 23b4 03       		.byte	0x3
 8084 23b5 2A       		.uleb128 0x2a
 8085 23b6 2D080000 		.4byte	.LASF488
 8086 23ba 04       		.byte	0x4
 8087 23bb 00       		.byte	0
 8088 23bc 09       		.uleb128 0x9
 8089 23bd C2220000 		.4byte	.LASF489
 8090 23c1 2A       		.byte	0x2a
 8091 23c2 0A01     		.2byte	0x10a
 8092 23c4 8F230000 		.4byte	0x238f
 8093 23c8 2B       		.uleb128 0x2b
 8094 23c9 07       		.byte	0x7
 8095 23ca 01       		.byte	0x1
 8096 23cb 37000000 		.4byte	0x37
 8097 23cf 2A       		.byte	0x2a
 8098 23d0 1801     		.2byte	0x118
 8099 23d2 01240000 		.4byte	0x2401
 8100 23d6 2A       		.uleb128 0x2a
 8101 23d7 3F1F0000 		.4byte	.LASF490
 8102 23db 00       		.byte	0
 8103 23dc 2A       		.uleb128 0x2a
ARM GAS  /tmp/cchERvVK.s 			page 144


 8104 23dd 18110000 		.4byte	.LASF491
 8105 23e1 01       		.byte	0x1
 8106 23e2 2A       		.uleb128 0x2a
 8107 23e3 751C0000 		.4byte	.LASF492
 8108 23e7 02       		.byte	0x2
 8109 23e8 2A       		.uleb128 0x2a
 8110 23e9 1D170000 		.4byte	.LASF493
 8111 23ed 03       		.byte	0x3
 8112 23ee 2A       		.uleb128 0x2a
 8113 23ef 29160000 		.4byte	.LASF494
 8114 23f3 04       		.byte	0x4
 8115 23f4 2A       		.uleb128 0x2a
 8116 23f5 29120000 		.4byte	.LASF495
 8117 23f9 05       		.byte	0x5
 8118 23fa 2A       		.uleb128 0x2a
 8119 23fb 85100000 		.4byte	.LASF496
 8120 23ff 06       		.byte	0x6
 8121 2400 00       		.byte	0
 8122 2401 09       		.uleb128 0x9
 8123 2402 81120000 		.4byte	.LASF497
 8124 2406 2A       		.byte	0x2a
 8125 2407 2001     		.2byte	0x120
 8126 2409 C8230000 		.4byte	0x23c8
 8127 240d 2B       		.uleb128 0x2b
 8128 240e 07       		.byte	0x7
 8129 240f 01       		.byte	0x1
 8130 2410 37000000 		.4byte	0x37
 8131 2414 2A       		.byte	0x2a
 8132 2415 2501     		.2byte	0x125
 8133 2417 40240000 		.4byte	0x2440
 8134 241b 2A       		.uleb128 0x2a
 8135 241c 951E0000 		.4byte	.LASF498
 8136 2420 00       		.byte	0
 8137 2421 2A       		.uleb128 0x2a
 8138 2422 4C1A0000 		.4byte	.LASF499
 8139 2426 01       		.byte	0x1
 8140 2427 2A       		.uleb128 0x2a
 8141 2428 16150000 		.4byte	.LASF500
 8142 242c 02       		.byte	0x2
 8143 242d 2A       		.uleb128 0x2a
 8144 242e B8150000 		.4byte	.LASF501
 8145 2432 03       		.byte	0x3
 8146 2433 2A       		.uleb128 0x2a
 8147 2434 C6240000 		.4byte	.LASF502
 8148 2438 04       		.byte	0x4
 8149 2439 2A       		.uleb128 0x2a
 8150 243a B8140000 		.4byte	.LASF503
 8151 243e 05       		.byte	0x5
 8152 243f 00       		.byte	0
 8153 2440 09       		.uleb128 0x9
 8154 2441 801A0000 		.4byte	.LASF504
 8155 2445 2A       		.byte	0x2a
 8156 2446 2C01     		.2byte	0x12c
 8157 2448 0D240000 		.4byte	0x240d
 8158 244c 1C       		.uleb128 0x1c
 8159 244d 08       		.byte	0x8
 8160 244e 2A       		.byte	0x2a
ARM GAS  /tmp/cchERvVK.s 			page 145


 8161 244f 3101     		.2byte	0x131
 8162 2451 70240000 		.4byte	0x2470
 8163 2455 19       		.uleb128 0x19
 8164 2456 C6260000 		.4byte	.LASF505
 8165 245a 2A       		.byte	0x2a
 8166 245b 3501     		.2byte	0x135
 8167 245d F2000000 		.4byte	0xf2
 8168 2461 00       		.byte	0
 8169 2462 19       		.uleb128 0x19
 8170 2463 D6040000 		.4byte	.LASF506
 8171 2467 2A       		.byte	0x2a
 8172 2468 3901     		.2byte	0x139
 8173 246a B0160000 		.4byte	0x16b0
 8174 246e 04       		.byte	0x4
 8175 246f 00       		.byte	0
 8176 2470 09       		.uleb128 0x9
 8177 2471 72160000 		.4byte	.LASF507
 8178 2475 2A       		.byte	0x2a
 8179 2476 3A01     		.2byte	0x13a
 8180 2478 4C240000 		.4byte	0x244c
 8181 247c 05       		.uleb128 0x5
 8182 247d 70240000 		.4byte	0x2470
 8183 2481 09       		.uleb128 0x9
 8184 2482 52260000 		.4byte	.LASF508
 8185 2486 2A       		.byte	0x2a
 8186 2487 4201     		.2byte	0x142
 8187 2489 8D240000 		.4byte	0x248d
 8188 248d 07       		.uleb128 0x7
 8189 248e 04       		.byte	0x4
 8190 248f 93240000 		.4byte	0x2493
 8191 2493 1F       		.uleb128 0x1f
 8192 2494 9E240000 		.4byte	0x249e
 8193 2498 17       		.uleb128 0x17
 8194 2499 9E240000 		.4byte	0x249e
 8195 249d 00       		.byte	0
 8196 249e 07       		.uleb128 0x7
 8197 249f 04       		.byte	0x4
 8198 24a0 4D220000 		.4byte	0x224d
 8199 24a4 09       		.uleb128 0x9
 8200 24a5 3B050000 		.4byte	.LASF509
 8201 24a9 2A       		.byte	0x2a
 8202 24aa 4B01     		.2byte	0x14b
 8203 24ac B0240000 		.4byte	0x24b0
 8204 24b0 07       		.uleb128 0x7
 8205 24b1 04       		.byte	0x4
 8206 24b2 B6240000 		.4byte	0x24b6
 8207 24b6 1F       		.uleb128 0x1f
 8208 24b7 C6240000 		.4byte	0x24c6
 8209 24bb 17       		.uleb128 0x17
 8210 24bc 9E240000 		.4byte	0x249e
 8211 24c0 17       		.uleb128 0x17
 8212 24c1 84230000 		.4byte	0x2384
 8213 24c5 00       		.byte	0
 8214 24c6 09       		.uleb128 0x9
 8215 24c7 A80B0000 		.4byte	.LASF510
 8216 24cb 2A       		.byte	0x2a
 8217 24cc 5401     		.2byte	0x154
ARM GAS  /tmp/cchERvVK.s 			page 146


 8218 24ce D2240000 		.4byte	0x24d2
 8219 24d2 07       		.uleb128 0x7
 8220 24d3 04       		.byte	0x4
 8221 24d4 D8240000 		.4byte	0x24d8
 8222 24d8 1F       		.uleb128 0x1f
 8223 24d9 E8240000 		.4byte	0x24e8
 8224 24dd 17       		.uleb128 0x17
 8225 24de 9E240000 		.4byte	0x249e
 8226 24e2 17       		.uleb128 0x17
 8227 24e3 40240000 		.4byte	0x2440
 8228 24e7 00       		.byte	0
 8229 24e8 09       		.uleb128 0x9
 8230 24e9 8F190000 		.4byte	.LASF511
 8231 24ed 2A       		.byte	0x2a
 8232 24ee 6001     		.2byte	0x160
 8233 24f0 F4240000 		.4byte	0x24f4
 8234 24f4 07       		.uleb128 0x7
 8235 24f5 04       		.byte	0x4
 8236 24f6 FA240000 		.4byte	0x24fa
 8237 24fa 16       		.uleb128 0x16
 8238 24fb 11170000 		.4byte	0x1711
 8239 24ff 09250000 		.4byte	0x2509
 8240 2503 17       		.uleb128 0x17
 8241 2504 9E240000 		.4byte	0x249e
 8242 2508 00       		.byte	0
 8243 2509 09       		.uleb128 0x9
 8244 250a E4100000 		.4byte	.LASF512
 8245 250e 2A       		.byte	0x2a
 8246 250f 6501     		.2byte	0x165
 8247 2511 15250000 		.4byte	0x2515
 8248 2515 07       		.uleb128 0x7
 8249 2516 04       		.byte	0x4
 8250 2517 1B250000 		.4byte	0x251b
 8251 251b 16       		.uleb128 0x16
 8252 251c 39250000 		.4byte	0x2539
 8253 2520 39250000 		.4byte	0x2539
 8254 2524 17       		.uleb128 0x17
 8255 2525 9E240000 		.4byte	0x249e
 8256 2529 17       		.uleb128 0x17
 8257 252a A7000000 		.4byte	0xa7
 8258 252e 17       		.uleb128 0x17
 8259 252f A7000000 		.4byte	0xa7
 8260 2533 17       		.uleb128 0x17
 8261 2534 B7000000 		.4byte	0xb7
 8262 2538 00       		.byte	0
 8263 2539 07       		.uleb128 0x7
 8264 253a 04       		.byte	0x4
 8265 253b 7C240000 		.4byte	0x247c
 8266 253f 0E       		.uleb128 0xe
 8267 2540 20       		.byte	0x20
 8268 2541 2C       		.byte	0x2c
 8269 2542 35       		.byte	0x35
 8270 2543 A8250000 		.4byte	0x25a8
 8271 2547 0F       		.uleb128 0xf
 8272 2548 B4030000 		.4byte	.LASF513
 8273 254c 2C       		.byte	0x2c
 8274 254d 36       		.byte	0x36
ARM GAS  /tmp/cchERvVK.s 			page 147


 8275 254e DD000000 		.4byte	0xdd
 8276 2552 00       		.byte	0
 8277 2553 0F       		.uleb128 0xf
 8278 2554 320F0000 		.4byte	.LASF514
 8279 2558 2C       		.byte	0x2c
 8280 2559 38       		.byte	0x38
 8281 255a DD000000 		.4byte	0xdd
 8282 255e 04       		.byte	0x4
 8283 255f 0F       		.uleb128 0xf
 8284 2560 F3020000 		.4byte	.LASF515
 8285 2564 2C       		.byte	0x2c
 8286 2565 39       		.byte	0x39
 8287 2566 DD000000 		.4byte	0xdd
 8288 256a 08       		.byte	0x8
 8289 256b 0F       		.uleb128 0xf
 8290 256c 291D0000 		.4byte	.LASF516
 8291 2570 2C       		.byte	0x2c
 8292 2571 3A       		.byte	0x3a
 8293 2572 DD000000 		.4byte	0xdd
 8294 2576 0C       		.byte	0xc
 8295 2577 0F       		.uleb128 0xf
 8296 2578 02150000 		.4byte	.LASF517
 8297 257c 2C       		.byte	0x2c
 8298 257d 3C       		.byte	0x3c
 8299 257e DD000000 		.4byte	0xdd
 8300 2582 10       		.byte	0x10
 8301 2583 0F       		.uleb128 0xf
 8302 2584 680F0000 		.4byte	.LASF518
 8303 2588 2C       		.byte	0x2c
 8304 2589 3E       		.byte	0x3e
 8305 258a DD000000 		.4byte	0xdd
 8306 258e 14       		.byte	0x14
 8307 258f 0F       		.uleb128 0xf
 8308 2590 7B0F0000 		.4byte	.LASF519
 8309 2594 2C       		.byte	0x2c
 8310 2595 3F       		.byte	0x3f
 8311 2596 DD000000 		.4byte	0xdd
 8312 259a 18       		.byte	0x18
 8313 259b 0F       		.uleb128 0xf
 8314 259c 6B040000 		.4byte	.LASF520
 8315 25a0 2C       		.byte	0x2c
 8316 25a1 40       		.byte	0x40
 8317 25a2 DD000000 		.4byte	0xdd
 8318 25a6 1C       		.byte	0x1c
 8319 25a7 00       		.byte	0
 8320 25a8 03       		.uleb128 0x3
 8321 25a9 B51C0000 		.4byte	.LASF521
 8322 25ad 2C       		.byte	0x2c
 8323 25ae 41       		.byte	0x41
 8324 25af 3F250000 		.4byte	0x253f
 8325 25b3 0E       		.uleb128 0xe
 8326 25b4 20       		.byte	0x20
 8327 25b5 2C       		.byte	0x2c
 8328 25b6 46       		.byte	0x46
 8329 25b7 1C260000 		.4byte	0x261c
 8330 25bb 0F       		.uleb128 0xf
 8331 25bc A90F0000 		.4byte	.LASF522
ARM GAS  /tmp/cchERvVK.s 			page 148


 8332 25c0 2C       		.byte	0x2c
 8333 25c1 47       		.byte	0x47
 8334 25c2 DD000000 		.4byte	0xdd
 8335 25c6 00       		.byte	0
 8336 25c7 0F       		.uleb128 0xf
 8337 25c8 030F0000 		.4byte	.LASF523
 8338 25cc 2C       		.byte	0x2c
 8339 25cd 49       		.byte	0x49
 8340 25ce DD000000 		.4byte	0xdd
 8341 25d2 04       		.byte	0x4
 8342 25d3 0F       		.uleb128 0xf
 8343 25d4 63210000 		.4byte	.LASF524
 8344 25d8 2C       		.byte	0x2c
 8345 25d9 4A       		.byte	0x4a
 8346 25da DD000000 		.4byte	0xdd
 8347 25de 08       		.byte	0x8
 8348 25df 0F       		.uleb128 0xf
 8349 25e0 E1120000 		.4byte	.LASF525
 8350 25e4 2C       		.byte	0x2c
 8351 25e5 4C       		.byte	0x4c
 8352 25e6 DD000000 		.4byte	0xdd
 8353 25ea 0C       		.byte	0xc
 8354 25eb 0F       		.uleb128 0xf
 8355 25ec C1170000 		.4byte	.LASF526
 8356 25f0 2C       		.byte	0x2c
 8357 25f1 4D       		.byte	0x4d
 8358 25f2 DD000000 		.4byte	0xdd
 8359 25f6 10       		.byte	0x10
 8360 25f7 0F       		.uleb128 0xf
 8361 25f8 680F0000 		.4byte	.LASF518
 8362 25fc 2C       		.byte	0x2c
 8363 25fd 4F       		.byte	0x4f
 8364 25fe DD000000 		.4byte	0xdd
 8365 2602 14       		.byte	0x14
 8366 2603 0F       		.uleb128 0xf
 8367 2604 6B070000 		.4byte	.LASF527
 8368 2608 2C       		.byte	0x2c
 8369 2609 50       		.byte	0x50
 8370 260a DD000000 		.4byte	0xdd
 8371 260e 18       		.byte	0x18
 8372 260f 0F       		.uleb128 0xf
 8373 2610 4C210000 		.4byte	.LASF528
 8374 2614 2C       		.byte	0x2c
 8375 2615 52       		.byte	0x52
 8376 2616 DD000000 		.4byte	0xdd
 8377 261a 1C       		.byte	0x1c
 8378 261b 00       		.byte	0
 8379 261c 03       		.uleb128 0x3
 8380 261d 84080000 		.4byte	.LASF529
 8381 2621 2C       		.byte	0x2c
 8382 2622 53       		.byte	0x53
 8383 2623 B3250000 		.4byte	0x25b3
 8384 2627 0E       		.uleb128 0xe
 8385 2628 20       		.byte	0x20
 8386 2629 2C       		.byte	0x2c
 8387 262a 58       		.byte	0x58
 8388 262b 90260000 		.4byte	0x2690
ARM GAS  /tmp/cchERvVK.s 			page 149


 8389 262f 0F       		.uleb128 0xf
 8390 2630 E6150000 		.4byte	.LASF530
 8391 2634 2C       		.byte	0x2c
 8392 2635 59       		.byte	0x59
 8393 2636 DD000000 		.4byte	0xdd
 8394 263a 00       		.byte	0
 8395 263b 0F       		.uleb128 0xf
 8396 263c 030F0000 		.4byte	.LASF523
 8397 2640 2C       		.byte	0x2c
 8398 2641 5B       		.byte	0x5b
 8399 2642 DD000000 		.4byte	0xdd
 8400 2646 04       		.byte	0x4
 8401 2647 0F       		.uleb128 0xf
 8402 2648 15190000 		.4byte	.LASF531
 8403 264c 2C       		.byte	0x2c
 8404 264d 5C       		.byte	0x5c
 8405 264e DD000000 		.4byte	0xdd
 8406 2652 08       		.byte	0x8
 8407 2653 0F       		.uleb128 0xf
 8408 2654 E1120000 		.4byte	.LASF525
 8409 2658 2C       		.byte	0x2c
 8410 2659 5E       		.byte	0x5e
 8411 265a DD000000 		.4byte	0xdd
 8412 265e 0C       		.byte	0xc
 8413 265f 0F       		.uleb128 0xf
 8414 2660 CD220000 		.4byte	.LASF532
 8415 2664 2C       		.byte	0x2c
 8416 2665 5F       		.byte	0x5f
 8417 2666 DD000000 		.4byte	0xdd
 8418 266a 10       		.byte	0x10
 8419 266b 0F       		.uleb128 0xf
 8420 266c 680F0000 		.4byte	.LASF518
 8421 2670 2C       		.byte	0x2c
 8422 2671 61       		.byte	0x61
 8423 2672 DD000000 		.4byte	0xdd
 8424 2676 14       		.byte	0x14
 8425 2677 0F       		.uleb128 0xf
 8426 2678 7B0F0000 		.4byte	.LASF519
 8427 267c 2C       		.byte	0x2c
 8428 267d 62       		.byte	0x62
 8429 267e DD000000 		.4byte	0xdd
 8430 2682 18       		.byte	0x18
 8431 2683 0F       		.uleb128 0xf
 8432 2684 4C210000 		.4byte	.LASF528
 8433 2688 2C       		.byte	0x2c
 8434 2689 63       		.byte	0x63
 8435 268a DD000000 		.4byte	0xdd
 8436 268e 1C       		.byte	0x1c
 8437 268f 00       		.byte	0
 8438 2690 03       		.uleb128 0x3
 8439 2691 F5170000 		.4byte	.LASF533
 8440 2695 2C       		.byte	0x2c
 8441 2696 64       		.byte	0x64
 8442 2697 27260000 		.4byte	0x2627
 8443 269b 2C       		.uleb128 0x2c
 8444 269c 00100100 		.4byte	0x11000
 8445 26a0 2C       		.byte	0x2c
ARM GAS  /tmp/cchERvVK.s 			page 150


 8446 26a1 69       		.byte	0x69
 8447 26a2 78290000 		.4byte	0x2978
 8448 26a6 0F       		.uleb128 0xf
 8449 26a7 28050000 		.4byte	.LASF534
 8450 26ab 2C       		.byte	0x2c
 8451 26ac 6A       		.byte	0x6a
 8452 26ad DD000000 		.4byte	0xdd
 8453 26b1 00       		.byte	0
 8454 26b2 0F       		.uleb128 0xf
 8455 26b3 E00D0000 		.4byte	.LASF535
 8456 26b7 2C       		.byte	0x2c
 8457 26b8 6B       		.byte	0x6b
 8458 26b9 DD000000 		.4byte	0xdd
 8459 26bd 04       		.byte	0x4
 8460 26be 0F       		.uleb128 0xf
 8461 26bf A7070000 		.4byte	.LASF536
 8462 26c3 2C       		.byte	0x2c
 8463 26c4 6C       		.byte	0x6c
 8464 26c5 DD000000 		.4byte	0xdd
 8465 26c9 08       		.byte	0x8
 8466 26ca 0F       		.uleb128 0xf
 8467 26cb 7A260000 		.4byte	.LASF537
 8468 26cf 2C       		.byte	0x2c
 8469 26d0 6D       		.byte	0x6d
 8470 26d1 DD000000 		.4byte	0xdd
 8471 26d5 0C       		.byte	0xc
 8472 26d6 0F       		.uleb128 0xf
 8473 26d7 89140000 		.4byte	.LASF538
 8474 26db 2C       		.byte	0x2c
 8475 26dc 6E       		.byte	0x6e
 8476 26dd DD000000 		.4byte	0xdd
 8477 26e1 10       		.byte	0x10
 8478 26e2 0F       		.uleb128 0xf
 8479 26e3 14040000 		.4byte	.LASF539
 8480 26e7 2C       		.byte	0x2c
 8481 26e8 6F       		.byte	0x6f
 8482 26e9 DD000000 		.4byte	0xdd
 8483 26ed 14       		.byte	0x14
 8484 26ee 0F       		.uleb128 0xf
 8485 26ef 7C1B0000 		.4byte	.LASF540
 8486 26f3 2C       		.byte	0x2c
 8487 26f4 70       		.byte	0x70
 8488 26f5 DD000000 		.4byte	0xdd
 8489 26f9 18       		.byte	0x18
 8490 26fa 0F       		.uleb128 0xf
 8491 26fb 08080000 		.4byte	.LASF541
 8492 26ff 2C       		.byte	0x2c
 8493 2700 71       		.byte	0x71
 8494 2701 DD000000 		.4byte	0xdd
 8495 2705 1C       		.byte	0x1c
 8496 2706 0F       		.uleb128 0xf
 8497 2707 00080000 		.4byte	.LASF542
 8498 270b 2C       		.byte	0x2c
 8499 270c 73       		.byte	0x73
 8500 270d DD000000 		.4byte	0xdd
 8501 2711 20       		.byte	0x20
 8502 2712 0F       		.uleb128 0xf
ARM GAS  /tmp/cchERvVK.s 			page 151


 8503 2713 E41A0000 		.4byte	.LASF543
 8504 2717 2C       		.byte	0x2c
 8505 2718 75       		.byte	0x75
 8506 2719 DD000000 		.4byte	0xdd
 8507 271d 24       		.byte	0x24
 8508 271e 0F       		.uleb128 0xf
 8509 271f BF000000 		.4byte	.LASF544
 8510 2723 2C       		.byte	0x2c
 8511 2724 76       		.byte	0x76
 8512 2725 DD000000 		.4byte	0xdd
 8513 2729 28       		.byte	0x28
 8514 272a 0F       		.uleb128 0xf
 8515 272b 921B0000 		.4byte	.LASF545
 8516 272f 2C       		.byte	0x2c
 8517 2730 78       		.byte	0x78
 8518 2731 DD000000 		.4byte	0xdd
 8519 2735 2C       		.byte	0x2c
 8520 2736 0F       		.uleb128 0xf
 8521 2737 47100000 		.4byte	.LASF546
 8522 273b 2C       		.byte	0x2c
 8523 273c 7A       		.byte	0x7a
 8524 273d DD000000 		.4byte	0xdd
 8525 2741 30       		.byte	0x30
 8526 2742 0F       		.uleb128 0xf
 8527 2743 F8240000 		.4byte	.LASF547
 8528 2747 2C       		.byte	0x2c
 8529 2748 7B       		.byte	0x7b
 8530 2749 DD000000 		.4byte	0xdd
 8531 274d 34       		.byte	0x34
 8532 274e 0F       		.uleb128 0xf
 8533 274f DE010000 		.4byte	.LASF548
 8534 2753 2C       		.byte	0x2c
 8535 2754 7C       		.byte	0x7c
 8536 2755 DD000000 		.4byte	0xdd
 8537 2759 38       		.byte	0x38
 8538 275a 12       		.uleb128 0x12
 8539 275b 43494400 		.ascii	"CID\000"
 8540 275f 2C       		.byte	0x2c
 8541 2760 7D       		.byte	0x7d
 8542 2761 DD000000 		.4byte	0xdd
 8543 2765 3C       		.byte	0x3c
 8544 2766 0F       		.uleb128 0xf
 8545 2767 BE110000 		.4byte	.LASF549
 8546 276b 2C       		.byte	0x2c
 8547 276c 7E       		.byte	0x7e
 8548 276d 88290000 		.4byte	0x2988
 8549 2771 40       		.byte	0x40
 8550 2772 14       		.uleb128 0x14
 8551 2773 A7230000 		.4byte	.LASF550
 8552 2777 2C       		.byte	0x2c
 8553 2778 7F       		.byte	0x7f
 8554 2779 DD000000 		.4byte	0xdd
 8555 277d 0001     		.2byte	0x100
 8556 277f 14       		.uleb128 0x14
 8557 2780 6F020000 		.4byte	.LASF551
 8558 2784 2C       		.byte	0x2c
 8559 2785 81       		.byte	0x81
ARM GAS  /tmp/cchERvVK.s 			page 152


 8560 2786 C5110000 		.4byte	0x11c5
 8561 278a 0401     		.2byte	0x104
 8562 278c 14       		.uleb128 0x14
 8563 278d 9A150000 		.4byte	.LASF552
 8564 2791 2C       		.byte	0x2c
 8565 2792 83       		.byte	0x83
 8566 2793 9D290000 		.4byte	0x299d
 8567 2797 4001     		.2byte	0x140
 8568 2799 14       		.uleb128 0x14
 8569 279a 7E180000 		.4byte	.LASF553
 8570 279e 2C       		.byte	0x2c
 8571 279f 84       		.byte	0x84
 8572 27a0 DD000000 		.4byte	0xdd
 8573 27a4 0004     		.2byte	0x400
 8574 27a6 14       		.uleb128 0x14
 8575 27a7 D8250000 		.4byte	.LASF554
 8576 27ab 2C       		.byte	0x2c
 8577 27ac 85       		.byte	0x85
 8578 27ad DD000000 		.4byte	0xdd
 8579 27b1 0404     		.2byte	0x404
 8580 27b3 14       		.uleb128 0x14
 8581 27b4 9F040000 		.4byte	.LASF555
 8582 27b8 2C       		.byte	0x2c
 8583 27b9 86       		.byte	0x86
 8584 27ba DD000000 		.4byte	0xdd
 8585 27be 0804     		.2byte	0x408
 8586 27c0 14       		.uleb128 0x14
 8587 27c1 2E0E0000 		.4byte	.LASF556
 8588 27c5 2C       		.byte	0x2c
 8589 27c6 88       		.byte	0x88
 8590 27c7 DD000000 		.4byte	0xdd
 8591 27cb 0C04     		.2byte	0x40c
 8592 27cd 14       		.uleb128 0x14
 8593 27ce 84030000 		.4byte	.LASF557
 8594 27d2 2C       		.byte	0x2c
 8595 27d3 89       		.byte	0x89
 8596 27d4 DD000000 		.4byte	0xdd
 8597 27d8 1004     		.2byte	0x410
 8598 27da 14       		.uleb128 0x14
 8599 27db 87040000 		.4byte	.LASF558
 8600 27df 2C       		.byte	0x2c
 8601 27e0 8B       		.byte	0x8b
 8602 27e1 DD000000 		.4byte	0xdd
 8603 27e5 1404     		.2byte	0x414
 8604 27e7 14       		.uleb128 0x14
 8605 27e8 FD0D0000 		.4byte	.LASF559
 8606 27ec 2C       		.byte	0x2c
 8607 27ed 8D       		.byte	0x8d
 8608 27ee DD000000 		.4byte	0xdd
 8609 27f2 1804     		.2byte	0x418
 8610 27f4 14       		.uleb128 0x14
 8611 27f5 3C1E0000 		.4byte	.LASF560
 8612 27f9 2C       		.byte	0x2c
 8613 27fa 8F       		.byte	0x8f
 8614 27fb B2290000 		.4byte	0x29b2
 8615 27ff 1C04     		.2byte	0x41c
 8616 2801 14       		.uleb128 0x14
ARM GAS  /tmp/cchERvVK.s 			page 153


 8617 2802 E0020000 		.4byte	.LASF561
 8618 2806 2C       		.byte	0x2c
 8619 2807 90       		.byte	0x90
 8620 2808 DD000000 		.4byte	0xdd
 8621 280c 4004     		.2byte	0x440
 8622 280e 14       		.uleb128 0x14
 8623 280f 52200000 		.4byte	.LASF562
 8624 2813 2C       		.byte	0x2c
 8625 2814 92       		.byte	0x92
 8626 2815 C7290000 		.4byte	0x29c7
 8627 2819 4404     		.2byte	0x444
 8628 281b 2D       		.uleb128 0x2d
 8629 281c 686300   		.ascii	"hc\000"
 8630 281f 2C       		.byte	0x2c
 8631 2820 93       		.byte	0x93
 8632 2821 CC290000 		.4byte	0x29cc
 8633 2825 0005     		.2byte	0x500
 8634 2827 14       		.uleb128 0x14
 8635 2828 40010000 		.4byte	.LASF563
 8636 282c 2C       		.byte	0x2c
 8637 282d 94       		.byte	0x94
 8638 282e EC290000 		.4byte	0x29ec
 8639 2832 0007     		.2byte	0x700
 8640 2834 14       		.uleb128 0x14
 8641 2835 B11F0000 		.4byte	.LASF564
 8642 2839 2C       		.byte	0x2c
 8643 283a 95       		.byte	0x95
 8644 283b DD000000 		.4byte	0xdd
 8645 283f 0008     		.2byte	0x800
 8646 2841 14       		.uleb128 0x14
 8647 2842 A3240000 		.4byte	.LASF565
 8648 2846 2C       		.byte	0x2c
 8649 2847 96       		.byte	0x96
 8650 2848 DD000000 		.4byte	0xdd
 8651 284c 0408     		.2byte	0x804
 8652 284e 14       		.uleb128 0x14
 8653 284f 9F130000 		.4byte	.LASF566
 8654 2853 2C       		.byte	0x2c
 8655 2854 97       		.byte	0x97
 8656 2855 DD000000 		.4byte	0xdd
 8657 2859 0808     		.2byte	0x808
 8658 285b 14       		.uleb128 0x14
 8659 285c 09050000 		.4byte	.LASF567
 8660 2860 2C       		.byte	0x2c
 8661 2861 98       		.byte	0x98
 8662 2862 DD000000 		.4byte	0xdd
 8663 2866 0C08     		.2byte	0x80c
 8664 2868 14       		.uleb128 0x14
 8665 2869 D80D0000 		.4byte	.LASF568
 8666 286d 2C       		.byte	0x2c
 8667 286e 99       		.byte	0x99
 8668 286f DD000000 		.4byte	0xdd
 8669 2873 1008     		.2byte	0x810
 8670 2875 14       		.uleb128 0x14
 8671 2876 9E210000 		.4byte	.LASF569
 8672 287a 2C       		.byte	0x2c
 8673 287b 9B       		.byte	0x9b
ARM GAS  /tmp/cchERvVK.s 			page 154


 8674 287c DD000000 		.4byte	0xdd
 8675 2880 1408     		.2byte	0x814
 8676 2882 14       		.uleb128 0x14
 8677 2883 67220000 		.4byte	.LASF570
 8678 2887 2C       		.byte	0x2c
 8679 2888 9D       		.byte	0x9d
 8680 2889 DD000000 		.4byte	0xdd
 8681 288d 1808     		.2byte	0x818
 8682 288f 14       		.uleb128 0x14
 8683 2890 F71E0000 		.4byte	.LASF571
 8684 2894 2C       		.byte	0x2c
 8685 2895 9F       		.byte	0x9f
 8686 2896 DD000000 		.4byte	0xdd
 8687 289a 1C08     		.2byte	0x81c
 8688 289c 14       		.uleb128 0x14
 8689 289d 52060000 		.4byte	.LASF572
 8690 28a1 2C       		.byte	0x2c
 8691 28a2 A1       		.byte	0xa1
 8692 28a3 DD000000 		.4byte	0xdd
 8693 28a7 2008     		.2byte	0x820
 8694 28a9 14       		.uleb128 0x14
 8695 28aa 6D050000 		.4byte	.LASF573
 8696 28ae 2C       		.byte	0x2c
 8697 28af A2       		.byte	0xa2
 8698 28b0 DD000000 		.4byte	0xdd
 8699 28b4 2408     		.2byte	0x824
 8700 28b6 14       		.uleb128 0x14
 8701 28b7 49010000 		.4byte	.LASF574
 8702 28bb 2C       		.byte	0x2c
 8703 28bc A3       		.byte	0xa3
 8704 28bd DD000000 		.4byte	0xdd
 8705 28c1 2808     		.2byte	0x828
 8706 28c3 14       		.uleb128 0x14
 8707 28c4 4F070000 		.4byte	.LASF575
 8708 28c8 2C       		.byte	0x2c
 8709 28c9 A5       		.byte	0xa5
 8710 28ca DD000000 		.4byte	0xdd
 8711 28ce 2C08     		.2byte	0x82c
 8712 28d0 14       		.uleb128 0x14
 8713 28d1 E1060000 		.4byte	.LASF576
 8714 28d5 2C       		.byte	0x2c
 8715 28d6 A7       		.byte	0xa7
 8716 28d7 DD000000 		.4byte	0xdd
 8717 28db 3008     		.2byte	0x830
 8718 28dd 14       		.uleb128 0x14
 8719 28de 9E0F0000 		.4byte	.LASF577
 8720 28e2 2C       		.byte	0x2c
 8721 28e3 A8       		.byte	0xa8
 8722 28e4 DD000000 		.4byte	0xdd
 8723 28e8 3408     		.2byte	0x834
 8724 28ea 14       		.uleb128 0x14
 8725 28eb 1B070000 		.4byte	.LASF578
 8726 28ef 2C       		.byte	0x2c
 8727 28f0 AA       		.byte	0xaa
 8728 28f1 DD000000 		.4byte	0xdd
 8729 28f5 3808     		.2byte	0x838
 8730 28f7 14       		.uleb128 0x14
ARM GAS  /tmp/cchERvVK.s 			page 155


 8731 28f8 3F070000 		.4byte	.LASF579
 8732 28fc 2C       		.byte	0x2c
 8733 28fd AB       		.byte	0xab
 8734 28fe DD000000 		.4byte	0xdd
 8735 2902 3C08     		.2byte	0x83c
 8736 2904 14       		.uleb128 0x14
 8737 2905 BE070000 		.4byte	.LASF580
 8738 2909 2C       		.byte	0x2c
 8739 290a AC       		.byte	0xac
 8740 290b 012A0000 		.4byte	0x2a01
 8741 290f 4008     		.2byte	0x840
 8742 2911 14       		.uleb128 0x14
 8743 2912 4F0F0000 		.4byte	.LASF581
 8744 2916 2C       		.byte	0x2c
 8745 2917 AD       		.byte	0xad
 8746 2918 012A0000 		.4byte	0x2a01
 8747 291c 8008     		.2byte	0x880
 8748 291e 14       		.uleb128 0x14
 8749 291f CE120000 		.4byte	.LASF582
 8750 2923 2C       		.byte	0x2c
 8751 2924 AE       		.byte	0xae
 8752 2925 012A0000 		.4byte	0x2a01
 8753 2929 C008     		.2byte	0x8c0
 8754 292b 2D       		.uleb128 0x2d
 8755 292c 696500   		.ascii	"ie\000"
 8756 292f 2C       		.byte	0x2c
 8757 2930 AF       		.byte	0xaf
 8758 2931 062A0000 		.4byte	0x2a06
 8759 2935 0009     		.2byte	0x900
 8760 2937 2D       		.uleb128 0x2d
 8761 2938 6F6500   		.ascii	"oe\000"
 8762 293b 2C       		.byte	0x2c
 8763 293c B0       		.byte	0xb0
 8764 293d 162A0000 		.4byte	0x2a16
 8765 2941 000B     		.2byte	0xb00
 8766 2943 14       		.uleb128 0x14
 8767 2944 2B0C0000 		.4byte	.LASF583
 8768 2948 2C       		.byte	0x2c
 8769 2949 B1       		.byte	0xb1
 8770 294a EC290000 		.4byte	0x29ec
 8771 294e 000D     		.2byte	0xd00
 8772 2950 14       		.uleb128 0x14
 8773 2951 BE240000 		.4byte	.LASF584
 8774 2955 2C       		.byte	0x2c
 8775 2956 B2       		.byte	0xb2
 8776 2957 DD000000 		.4byte	0xdd
 8777 295b 000E     		.2byte	0xe00
 8778 295d 14       		.uleb128 0x14
 8779 295e 9F100000 		.4byte	.LASF585
 8780 2962 2C       		.byte	0x2c
 8781 2963 B4       		.byte	0xb4
 8782 2964 362A0000 		.4byte	0x2a36
 8783 2968 040E     		.2byte	0xe04
 8784 296a 14       		.uleb128 0x14
 8785 296b 5C240000 		.4byte	.LASF586
 8786 296f 2C       		.byte	0x2c
 8787 2970 B5       		.byte	0xb5
ARM GAS  /tmp/cchERvVK.s 			page 156


 8788 2971 522A0000 		.4byte	0x2a52
 8789 2975 0010     		.2byte	0x1000
 8790 2977 00       		.byte	0
 8791 2978 0C       		.uleb128 0xc
 8792 2979 DD000000 		.4byte	0xdd
 8793 297d 88290000 		.4byte	0x2988
 8794 2981 0D       		.uleb128 0xd
 8795 2982 9B000000 		.4byte	0x9b
 8796 2986 2F       		.byte	0x2f
 8797 2987 00       		.byte	0
 8798 2988 06       		.uleb128 0x6
 8799 2989 78290000 		.4byte	0x2978
 8800 298d 0C       		.uleb128 0xc
 8801 298e DD000000 		.4byte	0xdd
 8802 2992 9D290000 		.4byte	0x299d
 8803 2996 0D       		.uleb128 0xd
 8804 2997 9B000000 		.4byte	0x9b
 8805 299b AF       		.byte	0xaf
 8806 299c 00       		.byte	0
 8807 299d 06       		.uleb128 0x6
 8808 299e 8D290000 		.4byte	0x298d
 8809 29a2 0C       		.uleb128 0xc
 8810 29a3 DD000000 		.4byte	0xdd
 8811 29a7 B2290000 		.4byte	0x29b2
 8812 29ab 0D       		.uleb128 0xd
 8813 29ac 9B000000 		.4byte	0x9b
 8814 29b0 08       		.byte	0x8
 8815 29b1 00       		.byte	0
 8816 29b2 06       		.uleb128 0x6
 8817 29b3 A2290000 		.4byte	0x29a2
 8818 29b7 0C       		.uleb128 0xc
 8819 29b8 DD000000 		.4byte	0xdd
 8820 29bc C7290000 		.4byte	0x29c7
 8821 29c0 0D       		.uleb128 0xd
 8822 29c1 9B000000 		.4byte	0x9b
 8823 29c5 2E       		.byte	0x2e
 8824 29c6 00       		.byte	0
 8825 29c7 06       		.uleb128 0x6
 8826 29c8 B7290000 		.4byte	0x29b7
 8827 29cc 0C       		.uleb128 0xc
 8828 29cd A8250000 		.4byte	0x25a8
 8829 29d1 DC290000 		.4byte	0x29dc
 8830 29d5 0D       		.uleb128 0xd
 8831 29d6 9B000000 		.4byte	0x9b
 8832 29da 0F       		.byte	0xf
 8833 29db 00       		.byte	0
 8834 29dc 0C       		.uleb128 0xc
 8835 29dd DD000000 		.4byte	0xdd
 8836 29e1 EC290000 		.4byte	0x29ec
 8837 29e5 0D       		.uleb128 0xd
 8838 29e6 9B000000 		.4byte	0x9b
 8839 29ea 3F       		.byte	0x3f
 8840 29eb 00       		.byte	0
 8841 29ec 06       		.uleb128 0x6
 8842 29ed DC290000 		.4byte	0x29dc
 8843 29f1 0C       		.uleb128 0xc
 8844 29f2 DD000000 		.4byte	0xdd
ARM GAS  /tmp/cchERvVK.s 			page 157


 8845 29f6 012A0000 		.4byte	0x2a01
 8846 29fa 0D       		.uleb128 0xd
 8847 29fb 9B000000 		.4byte	0x9b
 8848 29ff 0F       		.byte	0xf
 8849 2a00 00       		.byte	0
 8850 2a01 06       		.uleb128 0x6
 8851 2a02 F1290000 		.4byte	0x29f1
 8852 2a06 0C       		.uleb128 0xc
 8853 2a07 1C260000 		.4byte	0x261c
 8854 2a0b 162A0000 		.4byte	0x2a16
 8855 2a0f 0D       		.uleb128 0xd
 8856 2a10 9B000000 		.4byte	0x9b
 8857 2a14 0F       		.byte	0xf
 8858 2a15 00       		.byte	0
 8859 2a16 0C       		.uleb128 0xc
 8860 2a17 90260000 		.4byte	0x2690
 8861 2a1b 262A0000 		.4byte	0x2a26
 8862 2a1f 0D       		.uleb128 0xd
 8863 2a20 9B000000 		.4byte	0x9b
 8864 2a24 0F       		.byte	0xf
 8865 2a25 00       		.byte	0
 8866 2a26 0C       		.uleb128 0xc
 8867 2a27 DD000000 		.4byte	0xdd
 8868 2a2b 362A0000 		.4byte	0x2a36
 8869 2a2f 0D       		.uleb128 0xd
 8870 2a30 9B000000 		.4byte	0x9b
 8871 2a34 7E       		.byte	0x7e
 8872 2a35 00       		.byte	0
 8873 2a36 06       		.uleb128 0x6
 8874 2a37 262A0000 		.4byte	0x2a26
 8875 2a3b 0C       		.uleb128 0xc
 8876 2a3c DD000000 		.4byte	0xdd
 8877 2a40 522A0000 		.4byte	0x2a52
 8878 2a44 0D       		.uleb128 0xd
 8879 2a45 9B000000 		.4byte	0x9b
 8880 2a49 0F       		.byte	0xf
 8881 2a4a 2E       		.uleb128 0x2e
 8882 2a4b 9B000000 		.4byte	0x9b
 8883 2a4f FF03     		.2byte	0x3ff
 8884 2a51 00       		.byte	0
 8885 2a52 06       		.uleb128 0x6
 8886 2a53 3B2A0000 		.4byte	0x2a3b
 8887 2a57 03       		.uleb128 0x3
 8888 2a58 A7260000 		.4byte	.LASF587
 8889 2a5c 2C       		.byte	0x2c
 8890 2a5d B6       		.byte	0xb6
 8891 2a5e 9B260000 		.4byte	0x269b
 8892 2a62 0E       		.uleb128 0xe
 8893 2a63 0C       		.byte	0xc
 8894 2a64 2B       		.byte	0x2b
 8895 2a65 C6       		.byte	0xc6
 8896 2a66 8F2A0000 		.4byte	0x2a8f
 8897 2a6a 0F       		.uleb128 0xf
 8898 2a6b 5C090000 		.4byte	.LASF588
 8899 2a6f 2B       		.byte	0x2b
 8900 2a70 C7       		.byte	0xc7
 8901 2a71 D2000000 		.4byte	0xd2
ARM GAS  /tmp/cchERvVK.s 			page 158


 8902 2a75 00       		.byte	0
 8903 2a76 0F       		.uleb128 0xf
 8904 2a77 E50B0000 		.4byte	.LASF589
 8905 2a7b 2B       		.byte	0x2b
 8906 2a7c C8       		.byte	0xc8
 8907 2a7d D2000000 		.4byte	0xd2
 8908 2a81 04       		.byte	0x4
 8909 2a82 0F       		.uleb128 0xf
 8910 2a83 A8100000 		.4byte	.LASF590
 8911 2a87 2B       		.byte	0x2b
 8912 2a88 C9       		.byte	0xc9
 8913 2a89 D2000000 		.4byte	0xd2
 8914 2a8d 08       		.byte	0x8
 8915 2a8e 00       		.byte	0
 8916 2a8f 03       		.uleb128 0x3
 8917 2a90 180C0000 		.4byte	.LASF591
 8918 2a94 2B       		.byte	0x2b
 8919 2a95 CA       		.byte	0xca
 8920 2a96 622A0000 		.4byte	0x2a62
 8921 2a9a 05       		.uleb128 0x5
 8922 2a9b 8F2A0000 		.4byte	0x2a8f
 8923 2a9f 0E       		.uleb128 0xe
 8924 2aa0 04       		.byte	0x4
 8925 2aa1 2B       		.byte	0x2b
 8926 2aa2 DD       		.byte	0xdd
 8927 2aa3 B42A0000 		.4byte	0x2ab4
 8928 2aa7 0F       		.uleb128 0xf
 8929 2aa8 B8240000 		.4byte	.LASF592
 8930 2aac 2B       		.byte	0x2b
 8931 2aad E1       		.byte	0xe1
 8932 2aae B0160000 		.4byte	0x16b0
 8933 2ab2 00       		.byte	0
 8934 2ab3 00       		.byte	0
 8935 2ab4 0E       		.uleb128 0xe
 8936 2ab5 04       		.byte	0x4
 8937 2ab6 2B       		.byte	0x2b
 8938 2ab7 E3       		.byte	0xe3
 8939 2ab8 C92A0000 		.4byte	0x2ac9
 8940 2abc 0F       		.uleb128 0xf
 8941 2abd E8090000 		.4byte	.LASF359
 8942 2ac1 2B       		.byte	0x2b
 8943 2ac2 E7       		.byte	0xe7
 8944 2ac3 C92A0000 		.4byte	0x2ac9
 8945 2ac7 00       		.byte	0
 8946 2ac8 00       		.byte	0
 8947 2ac9 07       		.uleb128 0x7
 8948 2aca 04       		.byte	0x4
 8949 2acb 8C160000 		.4byte	0x168c
 8950 2acf 0A       		.uleb128 0xa
 8951 2ad0 04       		.byte	0x4
 8952 2ad1 2B       		.byte	0x2b
 8953 2ad2 DC       		.byte	0xdc
 8954 2ad3 EE2A0000 		.4byte	0x2aee
 8955 2ad7 0B       		.uleb128 0xb
 8956 2ad8 7A200000 		.4byte	.LASF593
 8957 2adc 2B       		.byte	0x2b
 8958 2add E2       		.byte	0xe2
ARM GAS  /tmp/cchERvVK.s 			page 159


 8959 2ade 9F2A0000 		.4byte	0x2a9f
 8960 2ae2 0B       		.uleb128 0xb
 8961 2ae3 801F0000 		.4byte	.LASF594
 8962 2ae7 2B       		.byte	0x2b
 8963 2ae8 E8       		.byte	0xe8
 8964 2ae9 B42A0000 		.4byte	0x2ab4
 8965 2aed 00       		.byte	0
 8966 2aee 0E       		.uleb128 0xe
 8967 2aef 14       		.byte	0x14
 8968 2af0 2B       		.byte	0x2b
 8969 2af1 CF       		.byte	0xcf
 8970 2af2 332B0000 		.4byte	0x2b33
 8971 2af6 0F       		.uleb128 0xf
 8972 2af7 E4070000 		.4byte	.LASF595
 8973 2afb 2B       		.byte	0x2b
 8974 2afc D3       		.byte	0xd3
 8975 2afd 11170000 		.4byte	0x1711
 8976 2b01 00       		.byte	0
 8977 2b02 0F       		.uleb128 0xf
 8978 2b03 F9130000 		.4byte	.LASF596
 8979 2b07 2B       		.byte	0x2b
 8980 2b08 D7       		.byte	0xd7
 8981 2b09 F2000000 		.4byte	0xf2
 8982 2b0d 04       		.byte	0x4
 8983 2b0e 0F       		.uleb128 0xf
 8984 2b0f E7230000 		.4byte	.LASF597
 8985 2b13 2B       		.byte	0x2b
 8986 2b14 DB       		.byte	0xdb
 8987 2b15 F2000000 		.4byte	0xf2
 8988 2b19 08       		.byte	0x8
 8989 2b1a 0F       		.uleb128 0xf
 8990 2b1b B0080000 		.4byte	.LASF427
 8991 2b1f 2B       		.byte	0x2b
 8992 2b20 E9       		.byte	0xe9
 8993 2b21 CF2A0000 		.4byte	0x2acf
 8994 2b25 0C       		.byte	0xc
 8995 2b26 0F       		.uleb128 0xf
 8996 2b27 C5100000 		.4byte	.LASF598
 8997 2b2b 2B       		.byte	0x2b
 8998 2b2c ED       		.byte	0xed
 8999 2b2d F2000000 		.4byte	0xf2
 9000 2b31 10       		.byte	0x10
 9001 2b32 00       		.byte	0
 9002 2b33 03       		.uleb128 0x3
 9003 2b34 CF110000 		.4byte	.LASF599
 9004 2b38 2B       		.byte	0x2b
 9005 2b39 EE       		.byte	0xee
 9006 2b3a EE2A0000 		.4byte	0x2aee
 9007 2b3e 1C       		.uleb128 0x1c
 9008 2b3f 04       		.byte	0x4
 9009 2b40 2B       		.byte	0x2b
 9010 2b41 0101     		.2byte	0x101
 9011 2b43 552B0000 		.4byte	0x2b55
 9012 2b47 19       		.uleb128 0x19
 9013 2b48 3B0C0000 		.4byte	.LASF600
 9014 2b4c 2B       		.byte	0x2b
 9015 2b4d 0501     		.2byte	0x105
ARM GAS  /tmp/cchERvVK.s 			page 160


 9016 2b4f 7B160000 		.4byte	0x167b
 9017 2b53 00       		.byte	0
 9018 2b54 00       		.byte	0
 9019 2b55 1C       		.uleb128 0x1c
 9020 2b56 04       		.byte	0x4
 9021 2b57 2B       		.byte	0x2b
 9022 2b58 0701     		.2byte	0x107
 9023 2b5a 6C2B0000 		.4byte	0x2b6c
 9024 2b5e 19       		.uleb128 0x19
 9025 2b5f 4A200000 		.4byte	.LASF360
 9026 2b63 2B       		.byte	0x2b
 9027 2b64 0B01     		.2byte	0x10b
 9028 2b66 6C2B0000 		.4byte	0x2b6c
 9029 2b6a 00       		.byte	0
 9030 2b6b 00       		.byte	0
 9031 2b6c 07       		.uleb128 0x7
 9032 2b6d 04       		.byte	0x4
 9033 2b6e 81160000 		.4byte	0x1681
 9034 2b72 1D       		.uleb128 0x1d
 9035 2b73 04       		.byte	0x4
 9036 2b74 2B       		.byte	0x2b
 9037 2b75 0001     		.2byte	0x100
 9038 2b77 942B0000 		.4byte	0x2b94
 9039 2b7b 1E       		.uleb128 0x1e
 9040 2b7c 7A200000 		.4byte	.LASF593
 9041 2b80 2B       		.byte	0x2b
 9042 2b81 0601     		.2byte	0x106
 9043 2b83 3E2B0000 		.4byte	0x2b3e
 9044 2b87 1E       		.uleb128 0x1e
 9045 2b88 801F0000 		.4byte	.LASF594
 9046 2b8c 2B       		.byte	0x2b
 9047 2b8d 0C01     		.2byte	0x10c
 9048 2b8f 552B0000 		.4byte	0x2b55
 9049 2b93 00       		.byte	0
 9050 2b94 0E       		.uleb128 0xe
 9051 2b95 14       		.byte	0x14
 9052 2b96 2B       		.byte	0x2b
 9053 2b97 F3       		.byte	0xf3
 9054 2b98 DB2B0000 		.4byte	0x2bdb
 9055 2b9c 0F       		.uleb128 0xf
 9056 2b9d 0E060000 		.4byte	.LASF601
 9057 2ba1 2B       		.byte	0x2b
 9058 2ba2 F7       		.byte	0xf7
 9059 2ba3 11170000 		.4byte	0x1711
 9060 2ba7 00       		.byte	0
 9061 2ba8 0F       		.uleb128 0xf
 9062 2ba9 EF140000 		.4byte	.LASF602
 9063 2bad 2B       		.byte	0x2b
 9064 2bae FB       		.byte	0xfb
 9065 2baf F2000000 		.4byte	0xf2
 9066 2bb3 04       		.byte	0x4
 9067 2bb4 0F       		.uleb128 0xf
 9068 2bb5 96080000 		.4byte	.LASF603
 9069 2bb9 2B       		.byte	0x2b
 9070 2bba FF       		.byte	0xff
 9071 2bbb F2000000 		.4byte	0xf2
 9072 2bbf 08       		.byte	0x8
ARM GAS  /tmp/cchERvVK.s 			page 161


 9073 2bc0 19       		.uleb128 0x19
 9074 2bc1 B0080000 		.4byte	.LASF427
 9075 2bc5 2B       		.byte	0x2b
 9076 2bc6 0D01     		.2byte	0x10d
 9077 2bc8 722B0000 		.4byte	0x2b72
 9078 2bcc 0C       		.byte	0xc
 9079 2bcd 19       		.uleb128 0x19
 9080 2bce C5100000 		.4byte	.LASF598
 9081 2bd2 2B       		.byte	0x2b
 9082 2bd3 1101     		.2byte	0x111
 9083 2bd5 F2000000 		.4byte	0xf2
 9084 2bd9 10       		.byte	0x10
 9085 2bda 00       		.byte	0
 9086 2bdb 09       		.uleb128 0x9
 9087 2bdc 281E0000 		.4byte	.LASF604
 9088 2be0 2B       		.byte	0x2b
 9089 2be1 1201     		.2byte	0x112
 9090 2be3 942B0000 		.4byte	0x2b94
 9091 2be7 1C       		.uleb128 0x1c
 9092 2be8 24       		.byte	0x24
 9093 2be9 2B       		.byte	0x2b
 9094 2bea 1801     		.2byte	0x118
 9095 2bec 732C0000 		.4byte	0x2c73
 9096 2bf0 19       		.uleb128 0x19
 9097 2bf1 ED170000 		.4byte	.LASF605
 9098 2bf5 2B       		.byte	0x2b
 9099 2bf6 1C01     		.2byte	0x11c
 9100 2bf8 D2000000 		.4byte	0xd2
 9101 2bfc 00       		.byte	0
 9102 2bfd 19       		.uleb128 0x19
 9103 2bfe BA090000 		.4byte	.LASF606
 9104 2c02 2B       		.byte	0x2b
 9105 2c03 2701     		.2byte	0x127
 9106 2c05 A4240000 		.4byte	0x24a4
 9107 2c09 04       		.byte	0x4
 9108 2c0a 19       		.uleb128 0x19
 9109 2c0b FF180000 		.4byte	.LASF607
 9110 2c0f 2B       		.byte	0x2b
 9111 2c10 2D01     		.2byte	0x12d
 9112 2c12 A4240000 		.4byte	0x24a4
 9113 2c16 08       		.byte	0x8
 9114 2c17 19       		.uleb128 0x19
 9115 2c18 F60D0000 		.4byte	.LASF608
 9116 2c1c 2B       		.byte	0x2b
 9117 2c1d 3301     		.2byte	0x133
 9118 2c1f A4240000 		.4byte	0x24a4
 9119 2c23 0C       		.byte	0xc
 9120 2c24 19       		.uleb128 0x19
 9121 2c25 D6260000 		.4byte	.LASF609
 9122 2c29 2B       		.byte	0x2b
 9123 2c2a 3901     		.2byte	0x139
 9124 2c2c B7000000 		.4byte	0xb7
 9125 2c30 10       		.byte	0x10
 9126 2c31 19       		.uleb128 0x19
 9127 2c32 49110000 		.4byte	.LASF610
 9128 2c36 2B       		.byte	0x2b
 9129 2c37 3F01     		.2byte	0x13f
ARM GAS  /tmp/cchERvVK.s 			page 162


 9130 2c39 B7000000 		.4byte	0xb7
 9131 2c3d 12       		.byte	0x12
 9132 2c3e 19       		.uleb128 0x19
 9133 2c3f 5E250000 		.4byte	.LASF611
 9134 2c43 2B       		.byte	0x2b
 9135 2c44 4401     		.2byte	0x144
 9136 2c46 732C0000 		.4byte	0x2c73
 9137 2c4a 14       		.byte	0x14
 9138 2c4b 19       		.uleb128 0x19
 9139 2c4c DD0F0000 		.4byte	.LASF612
 9140 2c50 2B       		.byte	0x2b
 9141 2c51 4901     		.2byte	0x149
 9142 2c53 792C0000 		.4byte	0x2c79
 9143 2c57 18       		.byte	0x18
 9144 2c58 19       		.uleb128 0x19
 9145 2c59 45130000 		.4byte	.LASF613
 9146 2c5d 2B       		.byte	0x2b
 9147 2c5e 5001     		.2byte	0x150
 9148 2c60 B7000000 		.4byte	0xb7
 9149 2c64 1C       		.byte	0x1c
 9150 2c65 19       		.uleb128 0x19
 9151 2c66 EE240000 		.4byte	.LASF614
 9152 2c6a 2B       		.byte	0x2b
 9153 2c6b 5601     		.2byte	0x156
 9154 2c6d 7B160000 		.4byte	0x167b
 9155 2c71 20       		.byte	0x20
 9156 2c72 00       		.byte	0
 9157 2c73 07       		.uleb128 0x7
 9158 2c74 04       		.byte	0x4
 9159 2c75 332B0000 		.4byte	0x2b33
 9160 2c79 07       		.uleb128 0x7
 9161 2c7a 04       		.byte	0x4
 9162 2c7b DB2B0000 		.4byte	0x2bdb
 9163 2c7f 09       		.uleb128 0x9
 9164 2c80 38200000 		.4byte	.LASF615
 9165 2c84 2B       		.byte	0x2b
 9166 2c85 5701     		.2byte	0x157
 9167 2c87 E72B0000 		.4byte	0x2be7
 9168 2c8b 05       		.uleb128 0x5
 9169 2c8c 7F2C0000 		.4byte	0x2c7f
 9170 2c90 1C       		.uleb128 0x1c
 9171 2c91 10       		.byte	0x10
 9172 2c92 2B       		.byte	0x2b
 9173 2c93 5C01     		.2byte	0x15c
 9174 2c95 CE2C0000 		.4byte	0x2cce
 9175 2c99 19       		.uleb128 0x19
 9176 2c9a 12050000 		.4byte	.LASF616
 9177 2c9e 2B       		.byte	0x2b
 9178 2c9f 6101     		.2byte	0x161
 9179 2ca1 C6240000 		.4byte	0x24c6
 9180 2ca5 00       		.byte	0
 9181 2ca6 19       		.uleb128 0x19
 9182 2ca7 ED230000 		.4byte	.LASF617
 9183 2cab 2B       		.byte	0x2b
 9184 2cac 6601     		.2byte	0x166
 9185 2cae 09250000 		.4byte	0x2509
 9186 2cb2 04       		.byte	0x4
ARM GAS  /tmp/cchERvVK.s 			page 163


 9187 2cb3 19       		.uleb128 0x19
 9188 2cb4 C6130000 		.4byte	.LASF618
 9189 2cb8 2B       		.byte	0x2b
 9190 2cb9 6C01     		.2byte	0x16c
 9191 2cbb E8240000 		.4byte	0x24e8
 9192 2cbf 08       		.byte	0x8
 9193 2cc0 19       		.uleb128 0x19
 9194 2cc1 39020000 		.4byte	.LASF619
 9195 2cc5 2B       		.byte	0x2b
 9196 2cc6 7001     		.2byte	0x170
 9197 2cc8 81240000 		.4byte	0x2481
 9198 2ccc 0C       		.byte	0xc
 9199 2ccd 00       		.byte	0
 9200 2cce 09       		.uleb128 0x9
 9201 2ccf D7120000 		.4byte	.LASF620
 9202 2cd3 2B       		.byte	0x2b
 9203 2cd4 7201     		.2byte	0x172
 9204 2cd6 902C0000 		.4byte	0x2c90
 9205 2cda 05       		.uleb128 0x5
 9206 2cdb CE2C0000 		.4byte	0x2cce
 9207 2cdf 07       		.uleb128 0x7
 9208 2ce0 04       		.byte	0x4
 9209 2ce1 DA2C0000 		.4byte	0x2cda
 9210 2ce5 0C       		.uleb128 0xc
 9211 2ce6 F52C0000 		.4byte	0x2cf5
 9212 2cea F52C0000 		.4byte	0x2cf5
 9213 2cee 0D       		.uleb128 0xd
 9214 2cef 9B000000 		.4byte	0x9b
 9215 2cf3 03       		.byte	0x3
 9216 2cf4 00       		.byte	0
 9217 2cf5 07       		.uleb128 0x7
 9218 2cf6 04       		.byte	0x4
 9219 2cf7 8B2C0000 		.4byte	0x2c8b
 9220 2cfb 0C       		.uleb128 0xc
 9221 2cfc AB010000 		.4byte	0x1ab
 9222 2d00 0B2D0000 		.4byte	0x2d0b
 9223 2d04 0D       		.uleb128 0xd
 9224 2d05 9B000000 		.4byte	0x9b
 9225 2d09 02       		.byte	0x2
 9226 2d0a 00       		.byte	0
 9227 2d0b 07       		.uleb128 0x7
 9228 2d0c 04       		.byte	0x4
 9229 2d0d 572A0000 		.4byte	0x2a57
 9230 2d11 07       		.uleb128 0x7
 9231 2d12 04       		.byte	0x4
 9232 2d13 9A2A0000 		.4byte	0x2a9a
 9233 2d17 0C       		.uleb128 0xc
 9234 2d18 D5110000 		.4byte	0x11d5
 9235 2d1c 272D0000 		.4byte	0x2d27
 9236 2d20 0D       		.uleb128 0xd
 9237 2d21 9B000000 		.4byte	0x9b
 9238 2d25 42       		.byte	0x42
 9239 2d26 00       		.byte	0
 9240 2d27 20       		.uleb128 0x20
 9241 2d28 C8000000 		.4byte	.LASF621
 9242 2d2c 2B       		.byte	0x2b
 9243 2d2d 0602     		.2byte	0x206
ARM GAS  /tmp/cchERvVK.s 			page 164


 9244 2d2f 4D220000 		.4byte	0x224d
 9245 2d33 22       		.uleb128 0x22
 9246 2d34 8F240000 		.4byte	.LASF622
 9247 2d38 2D       		.byte	0x2d
 9248 2d39 1D       		.byte	0x1d
 9249 2d3a 091A0000 		.4byte	0x1a09
 9250 2d3e 22       		.uleb128 0x22
 9251 2d3f 731E0000 		.4byte	.LASF623
 9252 2d43 2D       		.byte	0x2d
 9253 2d44 1E       		.byte	0x1e
 9254 2d45 94000000 		.4byte	0x94
 9255 2d49 22       		.uleb128 0x22
 9256 2d4a 940B0000 		.4byte	.LASF624
 9257 2d4e 2D       		.byte	0x2d
 9258 2d4f 1F       		.byte	0x1f
 9259 2d50 091A0000 		.4byte	0x1a09
 9260 2d54 22       		.uleb128 0x22
 9261 2d55 E6130000 		.4byte	.LASF625
 9262 2d59 2D       		.byte	0x2d
 9263 2d5a 20       		.byte	0x20
 9264 2d5b 94000000 		.4byte	0x94
 9265 2d5f 09       		.uleb128 0x9
 9266 2d60 9C0D0000 		.4byte	.LASF626
 9267 2d64 2E       		.byte	0x2e
 9268 2d65 7801     		.2byte	0x178
 9269 2d67 6B2D0000 		.4byte	0x2d6b
 9270 2d6b 0C       		.uleb128 0xc
 9271 2d6c 94000000 		.4byte	0x94
 9272 2d70 7B2D0000 		.4byte	0x2d7b
 9273 2d74 0D       		.uleb128 0xd
 9274 2d75 9B000000 		.4byte	0x9b
 9275 2d79 16       		.byte	0x16
 9276 2d7a 00       		.byte	0
 9277 2d7b 11       		.uleb128 0x11
 9278 2d7c 2F230000 		.4byte	.LASF627
 9279 2d80 6C       		.byte	0x6c
 9280 2d81 2F       		.byte	0x2f
 9281 2d82 34       		.byte	0x34
 9282 2d83 C42D0000 		.4byte	0x2dc4
 9283 2d87 0F       		.uleb128 0xf
 9284 2d88 A2070000 		.4byte	.LASF628
 9285 2d8c 2F       		.byte	0x2f
 9286 2d8d 35       		.byte	0x35
 9287 2d8e D2000000 		.4byte	0xd2
 9288 2d92 00       		.byte	0
 9289 2d93 12       		.uleb128 0x12
 9290 2d94 6D736700 		.ascii	"msg\000"
 9291 2d98 2F       		.byte	0x2f
 9292 2d99 36       		.byte	0x36
 9293 2d9a 2B060000 		.4byte	0x62b
 9294 2d9e 04       		.byte	0x4
 9295 2d9f 0F       		.uleb128 0xf
 9296 2da0 5C040000 		.4byte	.LASF629
 9297 2da4 2F       		.byte	0x2f
 9298 2da5 38       		.byte	0x38
 9299 2da6 D2000000 		.4byte	0xd2
 9300 2daa 08       		.byte	0x8
ARM GAS  /tmp/cchERvVK.s 			page 165


 9301 2dab 0F       		.uleb128 0xf
 9302 2dac 0B1A0000 		.4byte	.LASF630
 9303 2db0 2F       		.byte	0x2f
 9304 2db1 39       		.byte	0x39
 9305 2db2 5F2D0000 		.4byte	0x2d5f
 9306 2db6 0C       		.byte	0xc
 9307 2db7 0F       		.uleb128 0xf
 9308 2db8 820A0000 		.4byte	.LASF631
 9309 2dbc 2F       		.byte	0x2f
 9310 2dbd 3A       		.byte	0x3a
 9311 2dbe C92D0000 		.4byte	0x2dc9
 9312 2dc2 68       		.byte	0x68
 9313 2dc3 00       		.byte	0
 9314 2dc4 06       		.uleb128 0x6
 9315 2dc5 7B2D0000 		.4byte	0x2d7b
 9316 2dc9 07       		.uleb128 0x7
 9317 2dca 04       		.byte	0x4
 9318 2dcb 7B2D0000 		.4byte	0x2d7b
 9319 2dcf 22       		.uleb128 0x22
 9320 2dd0 EA060000 		.4byte	.LASF632
 9321 2dd4 2F       		.byte	0x2f
 9322 2dd5 3D       		.byte	0x3d
 9323 2dd6 C92D0000 		.4byte	0x2dc9
 9324 2dda 0A       		.uleb128 0xa
 9325 2ddb 01       		.byte	0x1
 9326 2ddc 30       		.byte	0x30
 9327 2ddd 1C       		.byte	0x1c
 9328 2dde F92D0000 		.4byte	0x2df9
 9329 2de2 28       		.uleb128 0x28
 9330 2de3 64657600 		.ascii	"dev\000"
 9331 2de7 30       		.byte	0x30
 9332 2de8 1D       		.byte	0x1d
 9333 2de9 A7000000 		.4byte	0xa7
 9334 2ded 0B       		.uleb128 0xb
 9335 2dee B3060000 		.4byte	.LASF633
 9336 2df2 30       		.byte	0x30
 9337 2df3 1E       		.byte	0x1e
 9338 2df4 A7000000 		.4byte	0xa7
 9339 2df8 00       		.byte	0
 9340 2df9 11       		.uleb128 0x11
 9341 2dfa 270F0000 		.4byte	.LASF634
 9342 2dfe 14       		.byte	0x14
 9343 2dff 30       		.byte	0x30
 9344 2e00 1B       		.byte	0x1b
 9345 2e01 602E0000 		.4byte	0x2e60
 9346 2e05 2F       		.uleb128 0x2f
 9347 2e06 DA2D0000 		.4byte	0x2dda
 9348 2e0a 00       		.byte	0
 9349 2e0b 0F       		.uleb128 0xf
 9350 2e0c E3140000 		.4byte	.LASF635
 9351 2e10 30       		.byte	0x30
 9352 2e11 20       		.byte	0x20
 9353 2e12 A7000000 		.4byte	0xa7
 9354 2e16 01       		.byte	0x1
 9355 2e17 0F       		.uleb128 0xf
 9356 2e18 A71D0000 		.4byte	.LASF636
 9357 2e1c 30       		.byte	0x30
ARM GAS  /tmp/cchERvVK.s 			page 166


 9358 2e1d 22       		.byte	0x22
 9359 2e1e A7000000 		.4byte	0xa7
 9360 2e22 02       		.byte	0x2
 9361 2e23 0F       		.uleb128 0xf
 9362 2e24 EE190000 		.4byte	.LASF637
 9363 2e28 30       		.byte	0x30
 9364 2e29 23       		.byte	0x23
 9365 2e2a A7000000 		.4byte	0xa7
 9366 2e2e 03       		.byte	0x3
 9367 2e2f 0F       		.uleb128 0xf
 9368 2e30 78030000 		.4byte	.LASF638
 9369 2e34 30       		.byte	0x30
 9370 2e35 24       		.byte	0x24
 9371 2e36 A7000000 		.4byte	0xa7
 9372 2e3a 04       		.byte	0x4
 9373 2e3b 0F       		.uleb128 0xf
 9374 2e3c ED160000 		.4byte	.LASF639
 9375 2e40 30       		.byte	0x30
 9376 2e41 26       		.byte	0x26
 9377 2e42 D2000000 		.4byte	0xd2
 9378 2e46 08       		.byte	0x8
 9379 2e47 0F       		.uleb128 0xf
 9380 2e48 2B1A0000 		.4byte	.LASF640
 9381 2e4c 30       		.byte	0x30
 9382 2e4d 27       		.byte	0x27
 9383 2e4e 2B060000 		.4byte	0x62b
 9384 2e52 0C       		.byte	0xc
 9385 2e53 0F       		.uleb128 0xf
 9386 2e54 5F080000 		.4byte	.LASF641
 9387 2e58 30       		.byte	0x30
 9388 2e59 29       		.byte	0x29
 9389 2e5a D2000000 		.4byte	0xd2
 9390 2e5e 10       		.byte	0x10
 9391 2e5f 00       		.byte	0
 9392 2e60 03       		.uleb128 0x3
 9393 2e61 67250000 		.4byte	.LASF642
 9394 2e65 30       		.byte	0x30
 9395 2e66 2B       		.byte	0x2b
 9396 2e67 F92D0000 		.4byte	0x2df9
 9397 2e6b 0C       		.uleb128 0xc
 9398 2e6c F92D0000 		.4byte	0x2df9
 9399 2e70 7B2E0000 		.4byte	0x2e7b
 9400 2e74 0D       		.uleb128 0xd
 9401 2e75 9B000000 		.4byte	0x9b
 9402 2e79 20       		.byte	0x20
 9403 2e7a 00       		.byte	0
 9404 2e7b 22       		.uleb128 0x22
 9405 2e7c A40D0000 		.4byte	.LASF643
 9406 2e80 30       		.byte	0x30
 9407 2e81 2D       		.byte	0x2d
 9408 2e82 6B2E0000 		.4byte	0x2e6b
 9409 2e86 22       		.uleb128 0x22
 9410 2e87 80240000 		.4byte	.LASF644
 9411 2e8b 30       		.byte	0x30
 9412 2e8c 2E       		.byte	0x2e
 9413 2e8d 94000000 		.4byte	0x94
 9414 2e91 30       		.uleb128 0x30
ARM GAS  /tmp/cchERvVK.s 			page 167


 9415 2e92 B81B0000 		.4byte	.LASF692
 9416 2e96 07       		.byte	0x7
 9417 2e97 01       		.byte	0x1
 9418 2e98 37000000 		.4byte	0x37
 9419 2e9c 02       		.byte	0x2
 9420 2e9d 71       		.byte	0x71
 9421 2e9e BB2E0000 		.4byte	0x2ebb
 9422 2ea2 2A       		.uleb128 0x2a
 9423 2ea3 1F0A0000 		.4byte	.LASF645
 9424 2ea7 00       		.byte	0
 9425 2ea8 2A       		.uleb128 0x2a
 9426 2ea9 B50B0000 		.4byte	.LASF646
 9427 2ead 01       		.byte	0x1
 9428 2eae 2A       		.uleb128 0x2a
 9429 2eaf FE0F0000 		.4byte	.LASF647
 9430 2eb3 02       		.byte	0x2
 9431 2eb4 2A       		.uleb128 0x2a
 9432 2eb5 32150000 		.4byte	.LASF648
 9433 2eb9 03       		.byte	0x3
 9434 2eba 00       		.byte	0
 9435 2ebb 0A       		.uleb128 0xa
 9436 2ebc 04       		.byte	0x4
 9437 2ebd 02       		.byte	0x2
 9438 2ebe 86       		.byte	0x86
 9439 2ebf DA2E0000 		.4byte	0x2eda
 9440 2ec3 28       		.uleb128 0x28
 9441 2ec4 64657600 		.ascii	"dev\000"
 9442 2ec8 02       		.byte	0x2
 9443 2ec9 87       		.byte	0x87
 9444 2eca DA2E0000 		.4byte	0x2eda
 9445 2ece 0B       		.uleb128 0xb
 9446 2ecf 9B1B0000 		.4byte	.LASF649
 9447 2ed3 02       		.byte	0x2
 9448 2ed4 88       		.byte	0x88
 9449 2ed5 A7000000 		.4byte	0xa7
 9450 2ed9 00       		.byte	0
 9451 2eda 07       		.uleb128 0x7
 9452 2edb 04       		.byte	0x4
 9453 2edc 602E0000 		.4byte	0x2e60
 9454 2ee0 11       		.uleb128 0x11
 9455 2ee1 4F1B0000 		.4byte	.LASF650
 9456 2ee5 24       		.byte	0x24
 9457 2ee6 02       		.byte	0x2
 9458 2ee7 79       		.byte	0x79
 9459 2ee8 532F0000 		.4byte	0x2f53
 9460 2eec 0F       		.uleb128 0xf
 9461 2eed A3000000 		.4byte	.LASF651
 9462 2ef1 02       		.byte	0x2
 9463 2ef2 7A       		.byte	0x7a
 9464 2ef3 94000000 		.4byte	0x94
 9465 2ef7 00       		.byte	0
 9466 2ef8 0F       		.uleb128 0xf
 9467 2ef9 ED160000 		.4byte	.LASF639
 9468 2efd 02       		.byte	0x2
 9469 2efe 7C       		.byte	0x7c
 9470 2eff D2000000 		.4byte	0xd2
 9471 2f03 04       		.byte	0x4
ARM GAS  /tmp/cchERvVK.s 			page 168


 9472 2f04 0F       		.uleb128 0xf
 9473 2f05 40020000 		.4byte	.LASF652
 9474 2f09 02       		.byte	0x2
 9475 2f0a 7D       		.byte	0x7d
 9476 2f0b D2000000 		.4byte	0xd2
 9477 2f0f 08       		.byte	0x8
 9478 2f10 0F       		.uleb128 0xf
 9479 2f11 78120000 		.4byte	.LASF653
 9480 2f15 02       		.byte	0x2
 9481 2f16 7E       		.byte	0x7e
 9482 2f17 D2000000 		.4byte	0xd2
 9483 2f1b 0C       		.byte	0xc
 9484 2f1c 0F       		.uleb128 0xf
 9485 2f1d CE260000 		.4byte	.LASF654
 9486 2f21 02       		.byte	0x2
 9487 2f22 80       		.byte	0x80
 9488 2f23 6D2F0000 		.4byte	0x2f6d
 9489 2f27 10       		.byte	0x10
 9490 2f28 0F       		.uleb128 0xf
 9491 2f29 D1210000 		.4byte	.LASF655
 9492 2f2d 02       		.byte	0x2
 9493 2f2e 81       		.byte	0x81
 9494 2f2f 822F0000 		.4byte	0x2f82
 9495 2f33 14       		.byte	0x14
 9496 2f34 0F       		.uleb128 0xf
 9497 2f35 D41C0000 		.4byte	.LASF656
 9498 2f39 02       		.byte	0x2
 9499 2f3a 82       		.byte	0x82
 9500 2f3b A62F0000 		.4byte	0x2fa6
 9501 2f3f 18       		.byte	0x18
 9502 2f40 0F       		.uleb128 0xf
 9503 2f41 EA040000 		.4byte	.LASF657
 9504 2f45 02       		.byte	0x2
 9505 2f46 84       		.byte	0x84
 9506 2f47 BC2F0000 		.4byte	0x2fbc
 9507 2f4b 1C       		.byte	0x1c
 9508 2f4c 2F       		.uleb128 0x2f
 9509 2f4d BB2E0000 		.4byte	0x2ebb
 9510 2f51 20       		.byte	0x20
 9511 2f52 00       		.byte	0
 9512 2f53 16       		.uleb128 0x16
 9513 2f54 D2000000 		.4byte	0xd2
 9514 2f58 672F0000 		.4byte	0x2f67
 9515 2f5c 17       		.uleb128 0x17
 9516 2f5d 672F0000 		.4byte	0x2f67
 9517 2f61 17       		.uleb128 0x17
 9518 2f62 B7000000 		.4byte	0xb7
 9519 2f66 00       		.byte	0
 9520 2f67 07       		.uleb128 0x7
 9521 2f68 04       		.byte	0x4
 9522 2f69 E02E0000 		.4byte	0x2ee0
 9523 2f6d 07       		.uleb128 0x7
 9524 2f6e 04       		.byte	0x4
 9525 2f6f 532F0000 		.4byte	0x2f53
 9526 2f73 16       		.uleb128 0x16
 9527 2f74 D2000000 		.4byte	0xd2
 9528 2f78 822F0000 		.4byte	0x2f82
ARM GAS  /tmp/cchERvVK.s 			page 169


 9529 2f7c 17       		.uleb128 0x17
 9530 2f7d 672F0000 		.4byte	0x2f67
 9531 2f81 00       		.byte	0
 9532 2f82 07       		.uleb128 0x7
 9533 2f83 04       		.byte	0x4
 9534 2f84 732F0000 		.4byte	0x2f73
 9535 2f88 16       		.uleb128 0x16
 9536 2f89 D2000000 		.4byte	0xd2
 9537 2f8d A62F0000 		.4byte	0x2fa6
 9538 2f91 17       		.uleb128 0x17
 9539 2f92 672F0000 		.4byte	0x2f67
 9540 2f96 17       		.uleb128 0x17
 9541 2f97 A7000000 		.4byte	0xa7
 9542 2f9b 17       		.uleb128 0x17
 9543 2f9c B7000000 		.4byte	0xb7
 9544 2fa0 17       		.uleb128 0x17
 9545 2fa1 D2000000 		.4byte	0xd2
 9546 2fa5 00       		.byte	0
 9547 2fa6 07       		.uleb128 0x7
 9548 2fa7 04       		.byte	0x4
 9549 2fa8 882F0000 		.4byte	0x2f88
 9550 2fac 1F       		.uleb128 0x1f
 9551 2fad BC2F0000 		.4byte	0x2fbc
 9552 2fb1 17       		.uleb128 0x17
 9553 2fb2 672F0000 		.4byte	0x2f67
 9554 2fb6 17       		.uleb128 0x17
 9555 2fb7 D2000000 		.4byte	0xd2
 9556 2fbb 00       		.byte	0
 9557 2fbc 07       		.uleb128 0x7
 9558 2fbd 04       		.byte	0x4
 9559 2fbe AC2F0000 		.4byte	0x2fac
 9560 2fc2 03       		.uleb128 0x3
 9561 2fc3 5A1B0000 		.4byte	.LASF658
 9562 2fc7 02       		.byte	0x2
 9563 2fc8 8A       		.byte	0x8a
 9564 2fc9 E02E0000 		.4byte	0x2ee0
 9565 2fcd 11       		.uleb128 0x11
 9566 2fce 4A0A0000 		.4byte	.LASF659
 9567 2fd2 1C       		.byte	0x1c
 9568 2fd3 02       		.byte	0x2
 9569 2fd4 A1       		.byte	0xa1
 9570 2fd5 2D300000 		.4byte	0x302d
 9571 2fd9 0F       		.uleb128 0xf
 9572 2fda A3000000 		.4byte	.LASF651
 9573 2fde 02       		.byte	0x2
 9574 2fdf A2       		.byte	0xa2
 9575 2fe0 94000000 		.4byte	0x94
 9576 2fe4 00       		.byte	0
 9577 2fe5 12       		.uleb128 0x12
 9578 2fe6 647000   		.ascii	"dp\000"
 9579 2fe9 02       		.byte	0x2
 9580 2fea A4       		.byte	0xa4
 9581 2feb 2D300000 		.4byte	0x302d
 9582 2fef 04       		.byte	0x4
 9583 2ff0 0F       		.uleb128 0xf
 9584 2ff1 33020000 		.4byte	.LASF660
 9585 2ff5 02       		.byte	0x2
ARM GAS  /tmp/cchERvVK.s 			page 170


 9586 2ff6 A5       		.byte	0xa5
 9587 2ff7 A7000000 		.4byte	0xa7
 9588 2ffb 08       		.byte	0x8
 9589 2ffc 12       		.uleb128 0x12
 9590 2ffd 69647200 		.ascii	"idr\000"
 9591 3001 02       		.byte	0x2
 9592 3002 A7       		.byte	0xa7
 9593 3003 D2000000 		.4byte	0xd2
 9594 3007 0C       		.byte	0xc
 9595 3008 12       		.uleb128 0x12
 9596 3009 63666700 		.ascii	"cfg\000"
 9597 300d 02       		.byte	0x2
 9598 300e A8       		.byte	0xa8
 9599 300f D2000000 		.4byte	0xd2
 9600 3013 10       		.byte	0x10
 9601 3014 0F       		.uleb128 0xf
 9602 3015 D81F0000 		.4byte	.LASF661
 9603 3019 02       		.byte	0x2
 9604 301a A9       		.byte	0xa9
 9605 301b D2000000 		.4byte	0xd2
 9606 301f 14       		.byte	0x14
 9607 3020 12       		.uleb128 0x12
 9608 3021 63737700 		.ascii	"csw\000"
 9609 3025 02       		.byte	0x2
 9610 3026 AA       		.byte	0xaa
 9611 3027 D2000000 		.4byte	0xd2
 9612 302b 18       		.byte	0x18
 9613 302c 00       		.byte	0
 9614 302d 07       		.uleb128 0x7
 9615 302e 04       		.byte	0x4
 9616 302f C22F0000 		.4byte	0x2fc2
 9617 3033 03       		.uleb128 0x3
 9618 3034 550A0000 		.4byte	.LASF662
 9619 3038 02       		.byte	0x2
 9620 3039 AB       		.byte	0xab
 9621 303a CD2F0000 		.4byte	0x2fcd
 9622 303e 03       		.uleb128 0x3
 9623 303f DA0A0000 		.4byte	.LASF663
 9624 3043 31       		.byte	0x31
 9625 3044 1E       		.byte	0x1e
 9626 3045 49300000 		.4byte	0x3049
 9627 3049 11       		.uleb128 0x11
 9628 304a 6E0B0000 		.4byte	.LASF664
 9629 304e 74       		.byte	0x74
 9630 304f 32       		.byte	0x32
 9631 3050 4B       		.byte	0x4b
 9632 3051 B1310000 		.4byte	0x31b1
 9633 3055 0F       		.uleb128 0xf
 9634 3056 83110000 		.4byte	.LASF665
 9635 305a 32       		.byte	0x32
 9636 305b 4C       		.byte	0x4c
 9637 305c 11170000 		.4byte	0x1711
 9638 3060 00       		.byte	0
 9639 3061 12       		.uleb128 0x12
 9640 3062 746300   		.ascii	"tc\000"
 9641 3065 32       		.byte	0x32
 9642 3066 4D       		.byte	0x4d
ARM GAS  /tmp/cchERvVK.s 			page 171


 9643 3067 E5330000 		.4byte	0x33e5
 9644 306b 04       		.byte	0x4
 9645 306c 0F       		.uleb128 0xf
 9646 306d 9D160000 		.4byte	.LASF666
 9647 3071 32       		.byte	0x32
 9648 3072 50       		.byte	0x50
 9649 3073 B4370000 		.4byte	0x37b4
 9650 3077 08       		.byte	0x8
 9651 3078 0F       		.uleb128 0xf
 9652 3079 D6230000 		.4byte	.LASF667
 9653 307d 32       		.byte	0x32
 9654 307e 51       		.byte	0x51
 9655 307f C5370000 		.4byte	0x37c5
 9656 3083 0C       		.byte	0xc
 9657 3084 0F       		.uleb128 0xf
 9658 3085 F20F0000 		.4byte	.LASF668
 9659 3089 32       		.byte	0x32
 9660 308a 52       		.byte	0x52
 9661 308b B4370000 		.4byte	0x37b4
 9662 308f 10       		.byte	0x10
 9663 3090 0F       		.uleb128 0xf
 9664 3091 43150000 		.4byte	.LASF669
 9665 3095 32       		.byte	0x32
 9666 3096 55       		.byte	0x55
 9667 3097 E5370000 		.4byte	0x37e5
 9668 309b 14       		.byte	0x14
 9669 309c 0F       		.uleb128 0xf
 9670 309d D00A0000 		.4byte	.LASF670
 9671 30a1 32       		.byte	0x32
 9672 30a2 57       		.byte	0x57
 9673 30a3 05380000 		.4byte	0x3805
 9674 30a7 18       		.byte	0x18
 9675 30a8 0F       		.uleb128 0xf
 9676 30a9 65020000 		.4byte	.LASF671
 9677 30ad 32       		.byte	0x32
 9678 30ae 5B       		.byte	0x5b
 9679 30af F2000000 		.4byte	0xf2
 9680 30b3 1C       		.byte	0x1c
 9681 30b4 0F       		.uleb128 0xf
 9682 30b5 01160000 		.4byte	.LASF672
 9683 30b9 32       		.byte	0x32
 9684 30ba 5C       		.byte	0x5c
 9685 30bb 2B060000 		.4byte	0x62b
 9686 30bf 20       		.byte	0x20
 9687 30c0 0F       		.uleb128 0xf
 9688 30c1 A4130000 		.4byte	.LASF673
 9689 30c5 32       		.byte	0x32
 9690 30c6 5D       		.byte	0x5d
 9691 30c7 1B380000 		.4byte	0x381b
 9692 30cb 24       		.byte	0x24
 9693 30cc 0F       		.uleb128 0xf
 9694 30cd C3060000 		.4byte	.LASF674
 9695 30d1 32       		.byte	0x32
 9696 30d2 5E       		.byte	0x5e
 9697 30d3 31380000 		.4byte	0x3831
 9698 30d7 28       		.byte	0x28
 9699 30d8 0F       		.uleb128 0xf
ARM GAS  /tmp/cchERvVK.s 			page 172


 9700 30d9 7D150000 		.4byte	.LASF675
 9701 30dd 32       		.byte	0x32
 9702 30de 61       		.byte	0x61
 9703 30df C5370000 		.4byte	0x37c5
 9704 30e3 2C       		.byte	0x2c
 9705 30e4 0F       		.uleb128 0xf
 9706 30e5 22190000 		.4byte	.LASF676
 9707 30e9 32       		.byte	0x32
 9708 30ea 62       		.byte	0x62
 9709 30eb C5370000 		.4byte	0x37c5
 9710 30ef 30       		.byte	0x30
 9711 30f0 0F       		.uleb128 0xf
 9712 30f1 25240000 		.4byte	.LASF677
 9713 30f5 32       		.byte	0x32
 9714 30f6 63       		.byte	0x63
 9715 30f7 C5370000 		.4byte	0x37c5
 9716 30fb 34       		.byte	0x34
 9717 30fc 0F       		.uleb128 0xf
 9718 30fd 78090000 		.4byte	.LASF678
 9719 3101 32       		.byte	0x32
 9720 3102 64       		.byte	0x64
 9721 3103 51380000 		.4byte	0x3851
 9722 3107 38       		.byte	0x38
 9723 3108 0F       		.uleb128 0xf
 9724 3109 1A270000 		.4byte	.LASF679
 9725 310d 32       		.byte	0x32
 9726 310e 65       		.byte	0x65
 9727 310f 67380000 		.4byte	0x3867
 9728 3113 3C       		.byte	0x3c
 9729 3114 0F       		.uleb128 0xf
 9730 3115 EC1A0000 		.4byte	.LASF680
 9731 3119 32       		.byte	0x32
 9732 311a 68       		.byte	0x68
 9733 311b 81380000 		.4byte	0x3881
 9734 311f 40       		.byte	0x40
 9735 3120 0F       		.uleb128 0xf
 9736 3121 CA1A0000 		.4byte	.LASF681
 9737 3125 32       		.byte	0x32
 9738 3126 69       		.byte	0x69
 9739 3127 81380000 		.4byte	0x3881
 9740 312b 44       		.byte	0x44
 9741 312c 0F       		.uleb128 0xf
 9742 312d D7240000 		.4byte	.LASF682
 9743 3131 32       		.byte	0x32
 9744 3132 6A       		.byte	0x6a
 9745 3133 8F370000 		.4byte	0x378f
 9746 3137 48       		.byte	0x48
 9747 3138 0F       		.uleb128 0xf
 9748 3139 EE0A0000 		.4byte	.LASF683
 9749 313d 32       		.byte	0x32
 9750 313e 6D       		.byte	0x6d
 9751 313f 9B000000 		.4byte	0x9b
 9752 3143 4C       		.byte	0x4c
 9753 3144 0F       		.uleb128 0xf
 9754 3145 ED160000 		.4byte	.LASF639
 9755 3149 32       		.byte	0x32
 9756 314a 6E       		.byte	0x6e
ARM GAS  /tmp/cchERvVK.s 			page 173


 9757 314b D2000000 		.4byte	0xd2
 9758 314f 50       		.byte	0x50
 9759 3150 0F       		.uleb128 0xf
 9760 3151 69090000 		.4byte	.LASF684
 9761 3155 32       		.byte	0x32
 9762 3156 6F       		.byte	0x6f
 9763 3157 D2000000 		.4byte	0xd2
 9764 315b 54       		.byte	0x54
 9765 315c 12       		.uleb128 0x12
 9766 315d 72616D00 		.ascii	"ram\000"
 9767 3161 32       		.byte	0x32
 9768 3162 71       		.byte	0x71
 9769 3163 83350000 		.4byte	0x3583
 9770 3167 58       		.byte	0x58
 9771 3168 0F       		.uleb128 0xf
 9772 3169 03070000 		.4byte	.LASF685
 9773 316d 32       		.byte	0x32
 9774 316e 72       		.byte	0x72
 9775 316f B3350000 		.4byte	0x35b3
 9776 3173 5C       		.byte	0x5c
 9777 3174 0F       		.uleb128 0xf
 9778 3175 CD070000 		.4byte	.LASF686
 9779 3179 32       		.byte	0x32
 9780 317a 75       		.byte	0x75
 9781 317b 2B060000 		.4byte	0x62b
 9782 317f 60       		.byte	0x60
 9783 3180 0F       		.uleb128 0xf
 9784 3181 8F120000 		.4byte	.LASF687
 9785 3185 32       		.byte	0x32
 9786 3186 76       		.byte	0x76
 9787 3187 40370000 		.4byte	0x3740
 9788 318b 64       		.byte	0x64
 9789 318c 0F       		.uleb128 0xf
 9790 318d 51020000 		.4byte	.LASF688
 9791 3191 32       		.byte	0x32
 9792 3192 78       		.byte	0x78
 9793 3193 87380000 		.4byte	0x3887
 9794 3197 68       		.byte	0x68
 9795 3198 0F       		.uleb128 0xf
 9796 3199 04020000 		.4byte	.LASF689
 9797 319d 32       		.byte	0x32
 9798 319e 7A       		.byte	0x7a
 9799 319f AB010000 		.4byte	0x1ab
 9800 31a3 6C       		.byte	0x6c
 9801 31a4 0F       		.uleb128 0xf
 9802 31a5 00120000 		.4byte	.LASF690
 9803 31a9 32       		.byte	0x32
 9804 31aa 7B       		.byte	0x7b
 9805 31ab E30B0000 		.4byte	0xbe3
 9806 31af 70       		.byte	0x70
 9807 31b0 00       		.byte	0
 9808 31b1 03       		.uleb128 0x3
 9809 31b2 37090000 		.4byte	.LASF691
 9810 31b6 31       		.byte	0x31
 9811 31b7 1F       		.byte	0x1f
 9812 31b8 D2000000 		.4byte	0xd2
 9813 31bc 30       		.uleb128 0x30
ARM GAS  /tmp/cchERvVK.s 			page 174


 9814 31bd 8C010000 		.4byte	.LASF693
 9815 31c1 07       		.byte	0x7
 9816 31c2 01       		.byte	0x1
 9817 31c3 37000000 		.4byte	0x37
 9818 31c7 31       		.byte	0x31
 9819 31c8 41       		.byte	0x41
 9820 31c9 F8310000 		.4byte	0x31f8
 9821 31cd 2A       		.uleb128 0x2a
 9822 31ce 66260000 		.4byte	.LASF694
 9823 31d2 00       		.byte	0
 9824 31d3 2A       		.uleb128 0x2a
 9825 31d4 3D1B0000 		.4byte	.LASF695
 9826 31d8 01       		.byte	0x1
 9827 31d9 2A       		.uleb128 0x2a
 9828 31da 2C010000 		.4byte	.LASF696
 9829 31de 02       		.byte	0x2
 9830 31df 2A       		.uleb128 0x2a
 9831 31e0 490E0000 		.4byte	.LASF697
 9832 31e4 03       		.byte	0x3
 9833 31e5 2A       		.uleb128 0x2a
 9834 31e6 C10D0000 		.4byte	.LASF698
 9835 31ea 04       		.byte	0x4
 9836 31eb 2A       		.uleb128 0x2a
 9837 31ec A7110000 		.4byte	.LASF699
 9838 31f0 05       		.byte	0x5
 9839 31f1 2A       		.uleb128 0x2a
 9840 31f2 911C0000 		.4byte	.LASF700
 9841 31f6 06       		.byte	0x6
 9842 31f7 00       		.byte	0
 9843 31f8 30       		.uleb128 0x30
 9844 31f9 A31C0000 		.4byte	.LASF701
 9845 31fd 07       		.byte	0x7
 9846 31fe 01       		.byte	0x1
 9847 31ff 37000000 		.4byte	0x37
 9848 3203 31       		.byte	0x31
 9849 3204 51       		.byte	0x51
 9850 3205 28320000 		.4byte	0x3228
 9851 3209 2A       		.uleb128 0x2a
 9852 320a 49120000 		.4byte	.LASF702
 9853 320e 00       		.byte	0
 9854 320f 2A       		.uleb128 0x2a
 9855 3210 EF250000 		.4byte	.LASF703
 9856 3214 01       		.byte	0x1
 9857 3215 2A       		.uleb128 0x2a
 9858 3216 891D0000 		.4byte	.LASF704
 9859 321a 02       		.byte	0x2
 9860 321b 2A       		.uleb128 0x2a
 9861 321c 20000000 		.4byte	.LASF705
 9862 3220 03       		.byte	0x3
 9863 3221 2A       		.uleb128 0x2a
 9864 3222 28130000 		.4byte	.LASF706
 9865 3226 04       		.byte	0x4
 9866 3227 00       		.byte	0
 9867 3228 30       		.uleb128 0x30
 9868 3229 92040000 		.4byte	.LASF707
 9869 322d 07       		.byte	0x7
 9870 322e 01       		.byte	0x1
ARM GAS  /tmp/cchERvVK.s 			page 175


 9871 322f 37000000 		.4byte	0x37
 9872 3233 31       		.byte	0x31
 9873 3234 60       		.byte	0x60
 9874 3235 AC320000 		.4byte	0x32ac
 9875 3239 2A       		.uleb128 0x2a
 9876 323a 09150000 		.4byte	.LASF708
 9877 323e 01       		.byte	0x1
 9878 323f 2A       		.uleb128 0x2a
 9879 3240 17060000 		.4byte	.LASF709
 9880 3244 02       		.byte	0x2
 9881 3245 2A       		.uleb128 0x2a
 9882 3246 7C000000 		.4byte	.LASF710
 9883 324a 04       		.byte	0x4
 9884 324b 2A       		.uleb128 0x2a
 9885 324c 1B050000 		.4byte	.LASF711
 9886 3250 09       		.byte	0x9
 9887 3251 2A       		.uleb128 0x2a
 9888 3252 43090000 		.4byte	.LASF712
 9889 3256 0D       		.byte	0xd
 9890 3257 2A       		.uleb128 0x2a
 9891 3258 E9110000 		.4byte	.LASF713
 9892 325c 0E       		.byte	0xe
 9893 325d 2A       		.uleb128 0x2a
 9894 325e 7C0E0000 		.4byte	.LASF714
 9895 3262 10       		.byte	0x10
 9896 3263 2A       		.uleb128 0x2a
 9897 3264 22210000 		.4byte	.LASF715
 9898 3268 11       		.byte	0x11
 9899 3269 2A       		.uleb128 0x2a
 9900 326a 2A200000 		.4byte	.LASF716
 9901 326e 13       		.byte	0x13
 9902 326f 2A       		.uleb128 0x2a
 9903 3270 00140000 		.4byte	.LASF717
 9904 3274 14       		.byte	0x14
 9905 3275 2A       		.uleb128 0x2a
 9906 3276 E80D0000 		.4byte	.LASF718
 9907 327a 15       		.byte	0x15
 9908 327b 2A       		.uleb128 0x2a
 9909 327c 46160000 		.4byte	.LASF719
 9910 3280 16       		.byte	0x16
 9911 3281 2A       		.uleb128 0x2a
 9912 3282 B1000000 		.4byte	.LASF720
 9913 3286 18       		.byte	0x18
 9914 3287 2A       		.uleb128 0x2a
 9915 3288 82060000 		.4byte	.LASF721
 9916 328c 17       		.byte	0x17
 9917 328d 2A       		.uleb128 0x2a
 9918 328e 880A0000 		.4byte	.LASF722
 9919 3292 1B       		.byte	0x1b
 9920 3293 2A       		.uleb128 0x2a
 9921 3294 54160000 		.4byte	.LASF723
 9922 3298 1C       		.byte	0x1c
 9923 3299 2A       		.uleb128 0x2a
 9924 329a AF180000 		.4byte	.LASF724
 9925 329e 1D       		.byte	0x1d
 9926 329f 2A       		.uleb128 0x2a
 9927 32a0 660A0000 		.4byte	.LASF725
ARM GAS  /tmp/cchERvVK.s 			page 176


 9928 32a4 1E       		.byte	0x1e
 9929 32a5 2A       		.uleb128 0x2a
 9930 32a6 1B1B0000 		.4byte	.LASF726
 9931 32aa 24       		.byte	0x24
 9932 32ab 00       		.byte	0
 9933 32ac 30       		.uleb128 0x30
 9934 32ad 8D130000 		.4byte	.LASF727
 9935 32b1 07       		.byte	0x7
 9936 32b2 02       		.byte	0x2
 9937 32b3 50000000 		.4byte	0x50
 9938 32b7 31       		.byte	0x31
 9939 32b8 76       		.byte	0x76
 9940 32b9 E4320000 		.4byte	0x32e4
 9941 32bd 2A       		.uleb128 0x2a
 9942 32be 52180000 		.4byte	.LASF728
 9943 32c2 00       		.byte	0
 9944 32c3 2A       		.uleb128 0x2a
 9945 32c4 F7100000 		.4byte	.LASF729
 9946 32c8 01       		.byte	0x1
 9947 32c9 2A       		.uleb128 0x2a
 9948 32ca 8F170000 		.4byte	.LASF730
 9949 32ce 02       		.byte	0x2
 9950 32cf 2A       		.uleb128 0x2a
 9951 32d0 05190000 		.4byte	.LASF731
 9952 32d4 08       		.byte	0x8
 9953 32d5 31       		.uleb128 0x31
 9954 32d6 B6100000 		.4byte	.LASF732
 9955 32da 0002     		.2byte	0x200
 9956 32dc 31       		.uleb128 0x31
 9957 32dd 3E140000 		.4byte	.LASF733
 9958 32e1 0004     		.2byte	0x400
 9959 32e3 00       		.byte	0
 9960 32e4 30       		.uleb128 0x30
 9961 32e5 DF1C0000 		.4byte	.LASF734
 9962 32e9 07       		.byte	0x7
 9963 32ea 01       		.byte	0x1
 9964 32eb 37000000 		.4byte	0x37
 9965 32ef 31       		.byte	0x31
 9966 32f0 7F       		.byte	0x7f
 9967 32f1 08330000 		.4byte	0x3308
 9968 32f5 2A       		.uleb128 0x2a
 9969 32f6 4E000000 		.4byte	.LASF735
 9970 32fa 00       		.byte	0
 9971 32fb 2A       		.uleb128 0x2a
 9972 32fc 211C0000 		.4byte	.LASF736
 9973 3300 01       		.byte	0x1
 9974 3301 2A       		.uleb128 0x2a
 9975 3302 701F0000 		.4byte	.LASF737
 9976 3306 02       		.byte	0x2
 9977 3307 00       		.byte	0
 9978 3308 11       		.uleb128 0x11
 9979 3309 2D100000 		.4byte	.LASF738
 9980 330d 3C       		.byte	0x3c
 9981 330e 31       		.byte	0x31
 9982 330f 85       		.byte	0x85
 9983 3310 D5330000 		.4byte	0x33d5
 9984 3314 0F       		.uleb128 0xf
ARM GAS  /tmp/cchERvVK.s 			page 177


 9985 3315 73080000 		.4byte	.LASF739
 9986 3319 31       		.byte	0x31
 9987 331a 86       		.byte	0x86
 9988 331b F1330000 		.4byte	0x33f1
 9989 331f 00       		.byte	0
 9990 3320 0F       		.uleb128 0xf
 9991 3321 CE1E0000 		.4byte	.LASF740
 9992 3325 31       		.byte	0x31
 9993 3326 87       		.byte	0x87
 9994 3327 0C340000 		.4byte	0x340c
 9995 332b 04       		.byte	0x4
 9996 332c 0F       		.uleb128 0xf
 9997 332d 500C0000 		.4byte	.LASF741
 9998 3331 31       		.byte	0x31
 9999 3332 8A       		.byte	0x8a
 10000 3333 35340000 		.4byte	0x3435
 10001 3337 08       		.byte	0x8
 10002 3338 0F       		.uleb128 0xf
 10003 3339 D0170000 		.4byte	.LASF742
 10004 333d 31       		.byte	0x31
 10005 333e 8D       		.byte	0x8d
 10006 333f 4F340000 		.4byte	0x344f
 10007 3343 0C       		.byte	0xc
 10008 3344 0F       		.uleb128 0xf
 10009 3345 C8010000 		.4byte	.LASF447
 10010 3349 31       		.byte	0x31
 10011 334a 8E       		.byte	0x8e
 10012 334b 73340000 		.4byte	0x3473
 10013 334f 10       		.byte	0x10
 10014 3350 0F       		.uleb128 0xf
 10015 3351 E7180000 		.4byte	.LASF446
 10016 3355 31       		.byte	0x31
 10017 3356 90       		.byte	0x90
 10018 3357 73340000 		.4byte	0x3473
 10019 335b 14       		.byte	0x14
 10020 335c 0F       		.uleb128 0xf
 10021 335d CA170000 		.4byte	.LASF743
 10022 3361 31       		.byte	0x31
 10023 3362 92       		.byte	0x92
 10024 3363 97340000 		.4byte	0x3497
 10025 3367 18       		.byte	0x18
 10026 3368 0F       		.uleb128 0xf
 10027 3369 7B170000 		.4byte	.LASF744
 10028 336d 31       		.byte	0x31
 10029 336e 94       		.byte	0x94
 10030 336f C0340000 		.4byte	0x34c0
 10031 3373 1C       		.byte	0x1c
 10032 3374 0F       		.uleb128 0xf
 10033 3375 B7070000 		.4byte	.LASF745
 10034 3379 31       		.byte	0x31
 10035 337a 97       		.byte	0x97
 10036 337b DF340000 		.4byte	0x34df
 10037 337f 20       		.byte	0x20
 10038 3380 0F       		.uleb128 0xf
 10039 3381 F4010000 		.4byte	.LASF746
 10040 3385 31       		.byte	0x31
 10041 3386 99       		.byte	0x99
ARM GAS  /tmp/cchERvVK.s 			page 178


 10042 3387 03350000 		.4byte	0x3503
 10043 338b 24       		.byte	0x24
 10044 338c 0F       		.uleb128 0xf
 10045 338d E4030000 		.4byte	.LASF747
 10046 3391 31       		.byte	0x31
 10047 3392 9B       		.byte	0x9b
 10048 3393 22350000 		.4byte	0x3522
 10049 3397 28       		.byte	0x28
 10050 3398 0F       		.uleb128 0xf
 10051 3399 1C040000 		.4byte	.LASF748
 10052 339d 31       		.byte	0x31
 10053 339e 9C       		.byte	0x9c
 10054 339f 41350000 		.4byte	0x3541
 10055 33a3 2C       		.byte	0x2c
 10056 33a4 0F       		.uleb128 0xf
 10057 33a5 AA0A0000 		.4byte	.LASF749
 10058 33a9 31       		.byte	0x31
 10059 33aa 9E       		.byte	0x9e
 10060 33ab 4F340000 		.4byte	0x344f
 10061 33af 30       		.byte	0x30
 10062 33b0 0F       		.uleb128 0xf
 10063 33b1 DF150000 		.4byte	.LASF750
 10064 33b5 31       		.byte	0x31
 10065 33b6 9F       		.byte	0x9f
 10066 33b7 DF340000 		.4byte	0x34df
 10067 33bb 34       		.byte	0x34
 10068 33bc 0F       		.uleb128 0xf
 10069 33bd 1E230000 		.4byte	.LASF751
 10070 33c1 31       		.byte	0x31
 10071 33c2 A1       		.byte	0xa1
 10072 33c3 28320000 		.4byte	0x3228
 10073 33c7 38       		.byte	0x38
 10074 33c8 0F       		.uleb128 0xf
 10075 33c9 3C260000 		.4byte	.LASF752
 10076 33cd 31       		.byte	0x31
 10077 33ce A2       		.byte	0xa2
 10078 33cf 11170000 		.4byte	0x1711
 10079 33d3 39       		.byte	0x39
 10080 33d4 00       		.byte	0
 10081 33d5 1F       		.uleb128 0x1f
 10082 33d6 E5330000 		.4byte	0x33e5
 10083 33da 17       		.uleb128 0x17
 10084 33db E5330000 		.4byte	0x33e5
 10085 33df 17       		.uleb128 0x17
 10086 33e0 EB330000 		.4byte	0x33eb
 10087 33e4 00       		.byte	0
 10088 33e5 07       		.uleb128 0x7
 10089 33e6 04       		.byte	0x4
 10090 33e7 08330000 		.4byte	0x3308
 10091 33eb 07       		.uleb128 0x7
 10092 33ec 04       		.byte	0x4
 10093 33ed 3E300000 		.4byte	0x303e
 10094 33f1 07       		.uleb128 0x7
 10095 33f2 04       		.byte	0x4
 10096 33f3 D5330000 		.4byte	0x33d5
 10097 33f7 1F       		.uleb128 0x1f
 10098 33f8 0C340000 		.4byte	0x340c
ARM GAS  /tmp/cchERvVK.s 			page 179


 10099 33fc 17       		.uleb128 0x17
 10100 33fd E5330000 		.4byte	0x33e5
 10101 3401 17       		.uleb128 0x17
 10102 3402 2B060000 		.4byte	0x62b
 10103 3406 17       		.uleb128 0x17
 10104 3407 68090000 		.4byte	0x968
 10105 340b 00       		.byte	0
 10106 340c 07       		.uleb128 0x7
 10107 340d 04       		.byte	0x4
 10108 340e F7330000 		.4byte	0x33f7
 10109 3412 16       		.uleb128 0x16
 10110 3413 94000000 		.4byte	0x94
 10111 3417 35340000 		.4byte	0x3435
 10112 341b 17       		.uleb128 0x17
 10113 341c E5330000 		.4byte	0x33e5
 10114 3420 17       		.uleb128 0x17
 10115 3421 B1310000 		.4byte	0x31b1
 10116 3425 17       		.uleb128 0x17
 10117 3426 F2000000 		.4byte	0xf2
 10118 342a 17       		.uleb128 0x17
 10119 342b AC320000 		.4byte	0x32ac
 10120 342f 17       		.uleb128 0x17
 10121 3430 73090000 		.4byte	0x973
 10122 3434 00       		.byte	0
 10123 3435 07       		.uleb128 0x7
 10124 3436 04       		.byte	0x4
 10125 3437 12340000 		.4byte	0x3412
 10126 343b 16       		.uleb128 0x16
 10127 343c 94000000 		.4byte	0x94
 10128 3440 4F340000 		.4byte	0x344f
 10129 3444 17       		.uleb128 0x17
 10130 3445 E5330000 		.4byte	0x33e5
 10131 3449 17       		.uleb128 0x17
 10132 344a 94000000 		.4byte	0x94
 10133 344e 00       		.byte	0
 10134 344f 07       		.uleb128 0x7
 10135 3450 04       		.byte	0x4
 10136 3451 3B340000 		.4byte	0x343b
 10137 3455 16       		.uleb128 0x16
 10138 3456 94000000 		.4byte	0x94
 10139 345a 73340000 		.4byte	0x3473
 10140 345e 17       		.uleb128 0x17
 10141 345f E5330000 		.4byte	0x33e5
 10142 3463 17       		.uleb128 0x17
 10143 3464 94000000 		.4byte	0x94
 10144 3468 17       		.uleb128 0x17
 10145 3469 B1310000 		.4byte	0x31b1
 10146 346d 17       		.uleb128 0x17
 10147 346e 9B000000 		.4byte	0x9b
 10148 3472 00       		.byte	0
 10149 3473 07       		.uleb128 0x7
 10150 3474 04       		.byte	0x4
 10151 3475 55340000 		.4byte	0x3455
 10152 3479 16       		.uleb128 0x16
 10153 347a 62000000 		.4byte	0x62
 10154 347e 97340000 		.4byte	0x3497
 10155 3482 17       		.uleb128 0x17
ARM GAS  /tmp/cchERvVK.s 			page 180


 10156 3483 E5330000 		.4byte	0x33e5
 10157 3487 17       		.uleb128 0x17
 10158 3488 94000000 		.4byte	0x94
 10159 348c 17       		.uleb128 0x17
 10160 348d 62000000 		.4byte	0x62
 10161 3491 17       		.uleb128 0x17
 10162 3492 E4320000 		.4byte	0x32e4
 10163 3496 00       		.byte	0
 10164 3497 07       		.uleb128 0x7
 10165 3498 04       		.byte	0x4
 10166 3499 79340000 		.4byte	0x3479
 10167 349d 16       		.uleb128 0x16
 10168 349e 94000000 		.4byte	0x94
 10169 34a2 C0340000 		.4byte	0x34c0
 10170 34a6 17       		.uleb128 0x17
 10171 34a7 E5330000 		.4byte	0x33e5
 10172 34ab 17       		.uleb128 0x17
 10173 34ac B1310000 		.4byte	0x31b1
 10174 34b0 17       		.uleb128 0x17
 10175 34b1 F2000000 		.4byte	0xf2
 10176 34b5 17       		.uleb128 0x17
 10177 34b6 B1310000 		.4byte	0x31b1
 10178 34ba 17       		.uleb128 0x17
 10179 34bb F2000000 		.4byte	0xf2
 10180 34bf 00       		.byte	0
 10181 34c0 07       		.uleb128 0x7
 10182 34c1 04       		.byte	0x4
 10183 34c2 9D340000 		.4byte	0x349d
 10184 34c6 16       		.uleb128 0x16
 10185 34c7 94000000 		.4byte	0x94
 10186 34cb DF340000 		.4byte	0x34df
 10187 34cf 17       		.uleb128 0x17
 10188 34d0 E5330000 		.4byte	0x33e5
 10189 34d4 17       		.uleb128 0x17
 10190 34d5 B1310000 		.4byte	0x31b1
 10191 34d9 17       		.uleb128 0x17
 10192 34da F2000000 		.4byte	0xf2
 10193 34de 00       		.byte	0
 10194 34df 07       		.uleb128 0x7
 10195 34e0 04       		.byte	0x4
 10196 34e1 C6340000 		.4byte	0x34c6
 10197 34e5 16       		.uleb128 0x16
 10198 34e6 94000000 		.4byte	0x94
 10199 34ea 03350000 		.4byte	0x3503
 10200 34ee 17       		.uleb128 0x17
 10201 34ef E5330000 		.4byte	0x33e5
 10202 34f3 17       		.uleb128 0x17
 10203 34f4 B1310000 		.4byte	0x31b1
 10204 34f8 17       		.uleb128 0x17
 10205 34f9 F2000000 		.4byte	0xf2
 10206 34fd 17       		.uleb128 0x17
 10207 34fe B1310000 		.4byte	0x31b1
 10208 3502 00       		.byte	0
 10209 3503 07       		.uleb128 0x7
 10210 3504 04       		.byte	0x4
 10211 3505 E5340000 		.4byte	0x34e5
 10212 3509 16       		.uleb128 0x16
ARM GAS  /tmp/cchERvVK.s 			page 181


 10213 350a 94000000 		.4byte	0x94
 10214 350e 22350000 		.4byte	0x3522
 10215 3512 17       		.uleb128 0x17
 10216 3513 E5330000 		.4byte	0x33e5
 10217 3517 17       		.uleb128 0x17
 10218 3518 94000000 		.4byte	0x94
 10219 351c 17       		.uleb128 0x17
 10220 351d B1310000 		.4byte	0x31b1
 10221 3521 00       		.byte	0
 10222 3522 07       		.uleb128 0x7
 10223 3523 04       		.byte	0x4
 10224 3524 09350000 		.4byte	0x3509
 10225 3528 16       		.uleb128 0x16
 10226 3529 94000000 		.4byte	0x94
 10227 352d 41350000 		.4byte	0x3541
 10228 3531 17       		.uleb128 0x17
 10229 3532 E5330000 		.4byte	0x33e5
 10230 3536 17       		.uleb128 0x17
 10231 3537 B1310000 		.4byte	0x31b1
 10232 353b 17       		.uleb128 0x17
 10233 353c B1310000 		.4byte	0x31b1
 10234 3540 00       		.byte	0
 10235 3541 07       		.uleb128 0x7
 10236 3542 04       		.byte	0x4
 10237 3543 28350000 		.4byte	0x3528
 10238 3547 22       		.uleb128 0x22
 10239 3548 100B0000 		.4byte	.LASF753
 10240 354c 32       		.byte	0x32
 10241 354d 18       		.byte	0x18
 10242 354e EB330000 		.4byte	0x33eb
 10243 3552 11       		.uleb128 0x11
 10244 3553 72130000 		.4byte	.LASF754
 10245 3557 0C       		.byte	0xc
 10246 3558 32       		.byte	0x32
 10247 3559 1B       		.byte	0x1b
 10248 355a 83350000 		.4byte	0x3583
 10249 355e 0F       		.uleb128 0xf
 10250 355f F0120000 		.4byte	.LASF755
 10251 3563 32       		.byte	0x32
 10252 3564 1C       		.byte	0x1c
 10253 3565 B1310000 		.4byte	0x31b1
 10254 3569 00       		.byte	0
 10255 356a 0F       		.uleb128 0xf
 10256 356b 5E020000 		.4byte	.LASF756
 10257 356f 32       		.byte	0x32
 10258 3570 1D       		.byte	0x1d
 10259 3571 F2000000 		.4byte	0xf2
 10260 3575 04       		.byte	0x4
 10261 3576 0F       		.uleb128 0xf
 10262 3577 51020000 		.4byte	.LASF688
 10263 357b 32       		.byte	0x32
 10264 357c 1E       		.byte	0x1e
 10265 357d 83350000 		.4byte	0x3583
 10266 3581 08       		.byte	0x8
 10267 3582 00       		.byte	0
 10268 3583 07       		.uleb128 0x7
 10269 3584 04       		.byte	0x4
ARM GAS  /tmp/cchERvVK.s 			page 182


 10270 3585 52350000 		.4byte	0x3552
 10271 3589 03       		.uleb128 0x3
 10272 358a 1A1A0000 		.4byte	.LASF757
 10273 358e 32       		.byte	0x32
 10274 358f 22       		.byte	0x22
 10275 3590 94350000 		.4byte	0x3594
 10276 3594 07       		.uleb128 0x7
 10277 3595 04       		.byte	0x4
 10278 3596 9A350000 		.4byte	0x359a
 10279 359a 16       		.uleb128 0x16
 10280 359b 94000000 		.4byte	0x94
 10281 359f B3350000 		.4byte	0x35b3
 10282 35a3 17       		.uleb128 0x17
 10283 35a4 B3350000 		.4byte	0x35b3
 10284 35a8 17       		.uleb128 0x17
 10285 35a9 B1310000 		.4byte	0x31b1
 10286 35ad 17       		.uleb128 0x17
 10287 35ae F2000000 		.4byte	0xf2
 10288 35b2 00       		.byte	0
 10289 35b3 07       		.uleb128 0x7
 10290 35b4 04       		.byte	0x4
 10291 35b5 B9350000 		.4byte	0x35b9
 10292 35b9 11       		.uleb128 0x11
 10293 35ba 32030000 		.4byte	.LASF758
 10294 35be 30       		.byte	0x30
 10295 35bf 32       		.byte	0x32
 10296 35c0 26       		.byte	0x26
 10297 35c1 54360000 		.4byte	0x3654
 10298 35c5 0F       		.uleb128 0xf
 10299 35c6 F0120000 		.4byte	.LASF755
 10300 35ca 32       		.byte	0x32
 10301 35cb 27       		.byte	0x27
 10302 35cc B1310000 		.4byte	0x31b1
 10303 35d0 00       		.byte	0
 10304 35d1 0F       		.uleb128 0xf
 10305 35d2 5E020000 		.4byte	.LASF756
 10306 35d6 32       		.byte	0x32
 10307 35d7 28       		.byte	0x28
 10308 35d8 F2000000 		.4byte	0xf2
 10309 35dc 04       		.byte	0x4
 10310 35dd 0F       		.uleb128 0xf
 10311 35de F6120000 		.4byte	.LASF759
 10312 35e2 32       		.byte	0x32
 10313 35e3 29       		.byte	0x29
 10314 35e4 F2000000 		.4byte	0xf2
 10315 35e8 08       		.byte	0x8
 10316 35e9 0F       		.uleb128 0xf
 10317 35ea 1D1E0000 		.4byte	.LASF760
 10318 35ee 32       		.byte	0x32
 10319 35ef 2A       		.byte	0x2a
 10320 35f0 89350000 		.4byte	0x3589
 10321 35f4 0C       		.byte	0xc
 10322 35f5 0F       		.uleb128 0xf
 10323 35f6 E7180000 		.4byte	.LASF446
 10324 35fa 32       		.byte	0x32
 10325 35fb 2B       		.byte	0x2b
 10326 35fc 54360000 		.4byte	0x3654
ARM GAS  /tmp/cchERvVK.s 			page 183


 10327 3600 10       		.byte	0x10
 10328 3601 0F       		.uleb128 0xf
 10329 3602 D4070000 		.4byte	.LASF761
 10330 3606 32       		.byte	0x32
 10331 3607 2C       		.byte	0x2c
 10332 3608 83360000 		.4byte	0x3683
 10333 360c 14       		.byte	0x14
 10334 360d 12       		.uleb128 0x12
 10335 360e 7400     		.ascii	"t\000"
 10336 3610 32       		.byte	0x32
 10337 3611 2D       		.byte	0x2d
 10338 3612 EB330000 		.4byte	0x33eb
 10339 3616 18       		.byte	0x18
 10340 3617 0F       		.uleb128 0xf
 10341 3618 AA000000 		.4byte	.LASF762
 10342 361c 32       		.byte	0x32
 10343 361d 2E       		.byte	0x2e
 10344 361e A7000000 		.4byte	0xa7
 10345 3622 1C       		.byte	0x1c
 10346 3623 0F       		.uleb128 0xf
 10347 3624 5F1D0000 		.4byte	.LASF763
 10348 3628 32       		.byte	0x32
 10349 3629 2F       		.byte	0x2f
 10350 362a F2000000 		.4byte	0xf2
 10351 362e 20       		.byte	0x20
 10352 362f 0F       		.uleb128 0xf
 10353 3630 51020000 		.4byte	.LASF688
 10354 3634 32       		.byte	0x32
 10355 3635 30       		.byte	0x30
 10356 3636 B3350000 		.4byte	0x35b3
 10357 363a 24       		.byte	0x24
 10358 363b 0F       		.uleb128 0xf
 10359 363c DB080000 		.4byte	.LASF764
 10360 3640 32       		.byte	0x32
 10361 3641 31       		.byte	0x31
 10362 3642 B1310000 		.4byte	0x31b1
 10363 3646 28       		.byte	0x28
 10364 3647 12       		.uleb128 0x12
 10365 3648 62756600 		.ascii	"buf\000"
 10366 364c 32       		.byte	0x32
 10367 364d 32       		.byte	0x32
 10368 364e AB010000 		.4byte	0x1ab
 10369 3652 2C       		.byte	0x2c
 10370 3653 00       		.byte	0
 10371 3654 03       		.uleb128 0x3
 10372 3655 2F220000 		.4byte	.LASF765
 10373 3659 32       		.byte	0x32
 10374 365a 23       		.byte	0x23
 10375 365b 5F360000 		.4byte	0x365f
 10376 365f 07       		.uleb128 0x7
 10377 3660 04       		.byte	0x4
 10378 3661 65360000 		.4byte	0x3665
 10379 3665 16       		.uleb128 0x16
 10380 3666 94000000 		.4byte	0x94
 10381 366a 83360000 		.4byte	0x3683
 10382 366e 17       		.uleb128 0x17
 10383 366f B3350000 		.4byte	0x35b3
ARM GAS  /tmp/cchERvVK.s 			page 184


 10384 3673 17       		.uleb128 0x17
 10385 3674 B1310000 		.4byte	0x31b1
 10386 3678 17       		.uleb128 0x17
 10387 3679 34090000 		.4byte	0x934
 10388 367d 17       		.uleb128 0x17
 10389 367e F2000000 		.4byte	0xf2
 10390 3682 00       		.byte	0
 10391 3683 03       		.uleb128 0x3
 10392 3684 64230000 		.4byte	.LASF766
 10393 3688 32       		.byte	0x32
 10394 3689 25       		.byte	0x25
 10395 368a 8E360000 		.4byte	0x368e
 10396 368e 07       		.uleb128 0x7
 10397 368f 04       		.byte	0x4
 10398 3690 94360000 		.4byte	0x3694
 10399 3694 16       		.uleb128 0x16
 10400 3695 94000000 		.4byte	0x94
 10401 3699 A3360000 		.4byte	0x36a3
 10402 369d 17       		.uleb128 0x17
 10403 369e B3350000 		.4byte	0x35b3
 10404 36a2 00       		.byte	0
 10405 36a3 03       		.uleb128 0x3
 10406 36a4 B8200000 		.4byte	.LASF767
 10407 36a8 32       		.byte	0x32
 10408 36a9 35       		.byte	0x35
 10409 36aa AE360000 		.4byte	0x36ae
 10410 36ae 07       		.uleb128 0x7
 10411 36af 04       		.byte	0x4
 10412 36b0 B4360000 		.4byte	0x36b4
 10413 36b4 16       		.uleb128 0x16
 10414 36b5 11170000 		.4byte	0x1711
 10415 36b9 CD360000 		.4byte	0x36cd
 10416 36bd 17       		.uleb128 0x17
 10417 36be EB330000 		.4byte	0x33eb
 10418 36c2 17       		.uleb128 0x17
 10419 36c3 94000000 		.4byte	0x94
 10420 36c7 17       		.uleb128 0x17
 10421 36c8 CD360000 		.4byte	0x36cd
 10422 36cc 00       		.byte	0
 10423 36cd 07       		.uleb128 0x7
 10424 36ce 04       		.byte	0x4
 10425 36cf 2B060000 		.4byte	0x62b
 10426 36d3 11       		.uleb128 0x11
 10427 36d4 94090000 		.4byte	.LASF768
 10428 36d8 0C       		.byte	0xc
 10429 36d9 32       		.byte	0x32
 10430 36da 37       		.byte	0x37
 10431 36db 04370000 		.4byte	0x3704
 10432 36df 12       		.uleb128 0x12
 10433 36e0 636D6400 		.ascii	"cmd\000"
 10434 36e4 32       		.byte	0x32
 10435 36e5 38       		.byte	0x38
 10436 36e6 2B060000 		.4byte	0x62b
 10437 36ea 00       		.byte	0
 10438 36eb 0F       		.uleb128 0xf
 10439 36ec CE230000 		.4byte	.LASF769
 10440 36f0 32       		.byte	0x32
ARM GAS  /tmp/cchERvVK.s 			page 185


 10441 36f1 39       		.byte	0x39
 10442 36f2 A3360000 		.4byte	0x36a3
 10443 36f6 04       		.byte	0x4
 10444 36f7 0F       		.uleb128 0xf
 10445 36f8 AA180000 		.4byte	.LASF770
 10446 36fc 32       		.byte	0x32
 10447 36fd 3A       		.byte	0x3a
 10448 36fe 2B060000 		.4byte	0x62b
 10449 3702 08       		.byte	0x8
 10450 3703 00       		.byte	0
 10451 3704 05       		.uleb128 0x5
 10452 3705 D3360000 		.4byte	0x36d3
 10453 3709 11       		.uleb128 0x11
 10454 370a 6A170000 		.4byte	.LASF771
 10455 370e 0C       		.byte	0xc
 10456 370f 32       		.byte	0x32
 10457 3710 3D       		.byte	0x3d
 10458 3711 3A370000 		.4byte	0x373a
 10459 3715 0F       		.uleb128 0xf
 10460 3716 6E000000 		.4byte	.LASF772
 10461 371a 32       		.byte	0x32
 10462 371b 3E       		.byte	0x3e
 10463 371c 2B060000 		.4byte	0x62b
 10464 3720 00       		.byte	0
 10465 3721 0F       		.uleb128 0xf
 10466 3722 57240000 		.4byte	.LASF773
 10467 3726 32       		.byte	0x32
 10468 3727 3F       		.byte	0x3f
 10469 3728 3A370000 		.4byte	0x373a
 10470 372c 04       		.byte	0x4
 10471 372d 0F       		.uleb128 0xf
 10472 372e 51020000 		.4byte	.LASF688
 10473 3732 32       		.byte	0x32
 10474 3733 40       		.byte	0x40
 10475 3734 40370000 		.4byte	0x3740
 10476 3738 08       		.byte	0x8
 10477 3739 00       		.byte	0
 10478 373a 07       		.uleb128 0x7
 10479 373b 04       		.byte	0x4
 10480 373c 04370000 		.4byte	0x3704
 10481 3740 07       		.uleb128 0x7
 10482 3741 04       		.byte	0x4
 10483 3742 09370000 		.4byte	0x3709
 10484 3746 11       		.uleb128 0x11
 10485 3747 CE060000 		.4byte	.LASF774
 10486 374b 20       		.byte	0x20
 10487 374c 32       		.byte	0x32
 10488 374d 43       		.byte	0x43
 10489 374e 8F370000 		.4byte	0x378f
 10490 3752 0F       		.uleb128 0xf
 10491 3753 51020000 		.4byte	.LASF688
 10492 3757 32       		.byte	0x32
 10493 3758 44       		.byte	0x44
 10494 3759 8F370000 		.4byte	0x378f
 10495 375d 00       		.byte	0
 10496 375e 0F       		.uleb128 0xf
 10497 375f A2070000 		.4byte	.LASF628
ARM GAS  /tmp/cchERvVK.s 			page 186


 10498 3763 32       		.byte	0x32
 10499 3764 45       		.byte	0x45
 10500 3765 F8310000 		.4byte	0x31f8
 10501 3769 04       		.byte	0x4
 10502 376a 0F       		.uleb128 0xf
 10503 376b 12100000 		.4byte	.LASF393
 10504 376f 32       		.byte	0x32
 10505 3770 46       		.byte	0x46
 10506 3771 B1310000 		.4byte	0x31b1
 10507 3775 08       		.byte	0x8
 10508 3776 0F       		.uleb128 0xf
 10509 3777 970E0000 		.4byte	.LASF775
 10510 377b 32       		.byte	0x32
 10511 377c 47       		.byte	0x47
 10512 377d F2000000 		.4byte	0xf2
 10513 3781 0C       		.byte	0xc
 10514 3782 0F       		.uleb128 0xf
 10515 3783 38000000 		.4byte	.LASF776
 10516 3787 32       		.byte	0x32
 10517 3788 48       		.byte	0x48
 10518 3789 95370000 		.4byte	0x3795
 10519 378d 10       		.byte	0x10
 10520 378e 00       		.byte	0
 10521 378f 07       		.uleb128 0x7
 10522 3790 04       		.byte	0x4
 10523 3791 46370000 		.4byte	0x3746
 10524 3795 0C       		.uleb128 0xc
 10525 3796 D2000000 		.4byte	0xd2
 10526 379a A5370000 		.4byte	0x37a5
 10527 379e 0D       		.uleb128 0xd
 10528 379f 9B000000 		.4byte	0x9b
 10529 37a3 03       		.byte	0x3
 10530 37a4 00       		.byte	0
 10531 37a5 16       		.uleb128 0x16
 10532 37a6 11170000 		.4byte	0x1711
 10533 37aa B4370000 		.4byte	0x37b4
 10534 37ae 17       		.uleb128 0x17
 10535 37af EB330000 		.4byte	0x33eb
 10536 37b3 00       		.byte	0
 10537 37b4 07       		.uleb128 0x7
 10538 37b5 04       		.byte	0x4
 10539 37b6 A5370000 		.4byte	0x37a5
 10540 37ba 1F       		.uleb128 0x1f
 10541 37bb C5370000 		.4byte	0x37c5
 10542 37bf 17       		.uleb128 0x17
 10543 37c0 EB330000 		.4byte	0x33eb
 10544 37c4 00       		.byte	0
 10545 37c5 07       		.uleb128 0x7
 10546 37c6 04       		.byte	0x4
 10547 37c7 BA370000 		.4byte	0x37ba
 10548 37cb 1F       		.uleb128 0x1f
 10549 37cc E5370000 		.4byte	0x37e5
 10550 37d0 17       		.uleb128 0x17
 10551 37d1 EB330000 		.4byte	0x33eb
 10552 37d5 17       		.uleb128 0x17
 10553 37d6 AB010000 		.4byte	0x1ab
 10554 37da 17       		.uleb128 0x17
ARM GAS  /tmp/cchERvVK.s 			page 187


 10555 37db B1310000 		.4byte	0x31b1
 10556 37df 17       		.uleb128 0x17
 10557 37e0 F2000000 		.4byte	0xf2
 10558 37e4 00       		.byte	0
 10559 37e5 07       		.uleb128 0x7
 10560 37e6 04       		.byte	0x4
 10561 37e7 CB370000 		.4byte	0x37cb
 10562 37eb 1F       		.uleb128 0x1f
 10563 37ec 05380000 		.4byte	0x3805
 10564 37f0 17       		.uleb128 0x17
 10565 37f1 EB330000 		.4byte	0x33eb
 10566 37f5 17       		.uleb128 0x17
 10567 37f6 B1310000 		.4byte	0x31b1
 10568 37fa 17       		.uleb128 0x17
 10569 37fb 34090000 		.4byte	0x934
 10570 37ff 17       		.uleb128 0x17
 10571 3800 F2000000 		.4byte	0xf2
 10572 3804 00       		.byte	0
 10573 3805 07       		.uleb128 0x7
 10574 3806 04       		.byte	0x4
 10575 3807 EB370000 		.4byte	0x37eb
 10576 380b 1F       		.uleb128 0x1f
 10577 380c 1B380000 		.4byte	0x381b
 10578 3810 17       		.uleb128 0x17
 10579 3811 EB330000 		.4byte	0x33eb
 10580 3815 17       		.uleb128 0x17
 10581 3816 AB010000 		.4byte	0x1ab
 10582 381a 00       		.byte	0
 10583 381b 07       		.uleb128 0x7
 10584 381c 04       		.byte	0x4
 10585 381d 0B380000 		.4byte	0x380b
 10586 3821 1F       		.uleb128 0x1f
 10587 3822 31380000 		.4byte	0x3831
 10588 3826 17       		.uleb128 0x17
 10589 3827 EB330000 		.4byte	0x33eb
 10590 382b 17       		.uleb128 0x17
 10591 382c 34090000 		.4byte	0x934
 10592 3830 00       		.byte	0
 10593 3831 07       		.uleb128 0x7
 10594 3832 04       		.byte	0x4
 10595 3833 21380000 		.4byte	0x3821
 10596 3837 16       		.uleb128 0x16
 10597 3838 BC310000 		.4byte	0x31bc
 10598 383c 4B380000 		.4byte	0x384b
 10599 3840 17       		.uleb128 0x17
 10600 3841 EB330000 		.4byte	0x33eb
 10601 3845 17       		.uleb128 0x17
 10602 3846 4B380000 		.4byte	0x384b
 10603 384a 00       		.byte	0
 10604 384b 07       		.uleb128 0x7
 10605 384c 04       		.byte	0x4
 10606 384d B1310000 		.4byte	0x31b1
 10607 3851 07       		.uleb128 0x7
 10608 3852 04       		.byte	0x4
 10609 3853 37380000 		.4byte	0x3837
 10610 3857 1F       		.uleb128 0x1f
 10611 3858 67380000 		.4byte	0x3867
ARM GAS  /tmp/cchERvVK.s 			page 188


 10612 385c 17       		.uleb128 0x17
 10613 385d EB330000 		.4byte	0x33eb
 10614 3861 17       		.uleb128 0x17
 10615 3862 11170000 		.4byte	0x1711
 10616 3866 00       		.byte	0
 10617 3867 07       		.uleb128 0x7
 10618 3868 04       		.byte	0x4
 10619 3869 57380000 		.4byte	0x3857
 10620 386d 16       		.uleb128 0x16
 10621 386e 94000000 		.4byte	0x94
 10622 3872 81380000 		.4byte	0x3881
 10623 3876 17       		.uleb128 0x17
 10624 3877 EB330000 		.4byte	0x33eb
 10625 387b 17       		.uleb128 0x17
 10626 387c 8F370000 		.4byte	0x378f
 10627 3880 00       		.byte	0
 10628 3881 07       		.uleb128 0x7
 10629 3882 04       		.byte	0x4
 10630 3883 6D380000 		.4byte	0x386d
 10631 3887 07       		.uleb128 0x7
 10632 3888 04       		.byte	0x4
 10633 3889 49300000 		.4byte	0x3049
 10634 388d 22       		.uleb128 0x22
 10635 388e 0A0F0000 		.4byte	.LASF777
 10636 3892 33       		.byte	0x33
 10637 3893 19       		.byte	0x19
 10638 3894 62000000 		.4byte	0x62
 10639 3898 22       		.uleb128 0x22
 10640 3899 8C090000 		.4byte	.LASF778
 10641 389d 34       		.byte	0x34
 10642 389e 10       		.byte	0x10
 10643 389f A3380000 		.4byte	0x38a3
 10644 38a3 07       		.uleb128 0x7
 10645 38a4 04       		.byte	0x4
 10646 38a5 AD010000 		.4byte	0x1ad
 10647 38a9 22       		.uleb128 0x22
 10648 38aa 38070000 		.4byte	.LASF779
 10649 38ae 34       		.byte	0x34
 10650 38af FC       		.byte	0xfc
 10651 38b0 AD010000 		.4byte	0x1ad
 10652 38b4 22       		.uleb128 0x22
 10653 38b5 74230000 		.4byte	.LASF780
 10654 38b9 34       		.byte	0x34
 10655 38ba FD       		.byte	0xfd
 10656 38bb 94000000 		.4byte	0x94
 10657 38bf 22       		.uleb128 0x22
 10658 38c0 40170000 		.4byte	.LASF781
 10659 38c4 34       		.byte	0x34
 10660 38c5 FD       		.byte	0xfd
 10661 38c6 94000000 		.4byte	0x94
 10662 38ca 22       		.uleb128 0x22
 10663 38cb 2B150000 		.4byte	.LASF782
 10664 38cf 34       		.byte	0x34
 10665 38d0 FD       		.byte	0xfd
 10666 38d1 94000000 		.4byte	0x94
 10667 38d5 22       		.uleb128 0x22
 10668 38d6 6A080000 		.4byte	.LASF783
ARM GAS  /tmp/cchERvVK.s 			page 189


 10669 38da 34       		.byte	0x34
 10670 38db FF       		.byte	0xff
 10671 38dc 94000000 		.4byte	0x94
 10672 38e0 0C       		.uleb128 0xc
 10673 38e1 BA010000 		.4byte	0x1ba
 10674 38e5 F0380000 		.4byte	0x38f0
 10675 38e9 0D       		.uleb128 0xd
 10676 38ea 9B000000 		.4byte	0x9b
 10677 38ee 0C       		.byte	0xc
 10678 38ef 00       		.byte	0
 10679 38f0 05       		.uleb128 0x5
 10680 38f1 E0380000 		.4byte	0x38e0
 10681 38f5 32       		.uleb128 0x32
 10682 38f6 0F090000 		.4byte	.LASF796
 10683 38fa 01       		.byte	0x1
 10684 38fb 26       		.byte	0x26
 10685 38fc F0380000 		.4byte	0x38f0
 10686 3900 05       		.uleb128 0x5
 10687 3901 03       		.byte	0x3
 10688 3902 00000000 		.4byte	cortexm_driver_str
 10689 3906 0C       		.uleb128 0xc
 10690 3907 04370000 		.4byte	0x3704
 10691 390b 16390000 		.4byte	0x3916
 10692 390f 0D       		.uleb128 0xd
 10693 3910 9B000000 		.4byte	0x9b
 10694 3914 01       		.byte	0x1
 10695 3915 00       		.byte	0
 10696 3916 05       		.uleb128 0x5
 10697 3917 06390000 		.4byte	0x3906
 10698 391b 33       		.uleb128 0x33
 10699 391c FF020000 		.4byte	.LASF784
 10700 3920 01       		.byte	0x1
 10701 3921 2A       		.byte	0x2a
 10702 3922 16390000 		.4byte	0x3916
 10703 3926 05       		.uleb128 0x5
 10704 3927 03       		.byte	0x3
 10705 3928 00000000 		.4byte	cortexm_cmd_list
 10706 392c 11       		.uleb128 0x11
 10707 392d 55110000 		.4byte	.LASF785
 10708 3931 2C       		.byte	0x2c
 10709 3932 01       		.byte	0x1
 10710 3933 45       		.byte	0x45
 10711 3934 BC390000 		.4byte	0x39bc
 10712 3938 12       		.uleb128 0x12
 10713 3939 617000   		.ascii	"ap\000"
 10714 393c 01       		.byte	0x1
 10715 393d 46       		.byte	0x46
 10716 393e BC390000 		.4byte	0x39bc
 10717 3942 00       		.byte	0
 10718 3943 0F       		.uleb128 0xf
 10719 3944 80140000 		.4byte	.LASF786
 10720 3948 01       		.byte	0x1
 10721 3949 47       		.byte	0x47
 10722 394a 11170000 		.4byte	0x1711
 10723 394e 04       		.byte	0x4
 10724 394f 0F       		.uleb128 0xf
 10725 3950 2A0B0000 		.4byte	.LASF787
ARM GAS  /tmp/cchERvVK.s 			page 190


 10726 3954 01       		.byte	0x1
 10727 3955 48       		.byte	0x48
 10728 3956 11170000 		.4byte	0x1711
 10729 395a 05       		.byte	0x5
 10730 395b 0F       		.uleb128 0xf
 10731 395c 311C0000 		.4byte	.LASF788
 10732 3960 01       		.byte	0x1
 10733 3961 4A       		.byte	0x4a
 10734 3962 C2390000 		.4byte	0x39c2
 10735 3966 06       		.byte	0x6
 10736 3967 0F       		.uleb128 0xf
 10737 3968 5E1A0000 		.4byte	.LASF789
 10738 396c 01       		.byte	0x1
 10739 396d 4B       		.byte	0x4b
 10740 396e 9B000000 		.4byte	0x9b
 10741 3972 0C       		.byte	0xc
 10742 3973 0F       		.uleb128 0xf
 10743 3974 34160000 		.4byte	.LASF790
 10744 3978 01       		.byte	0x1
 10745 3979 4C       		.byte	0x4c
 10746 397a 9B000000 		.4byte	0x9b
 10747 397e 10       		.byte	0x10
 10748 397f 0F       		.uleb128 0xf
 10749 3980 4E030000 		.4byte	.LASF791
 10750 3984 01       		.byte	0x1
 10751 3985 4E       		.byte	0x4e
 10752 3986 D2390000 		.4byte	0x39d2
 10753 398a 14       		.byte	0x14
 10754 398b 0F       		.uleb128 0xf
 10755 398c 23260000 		.4byte	.LASF792
 10756 3990 01       		.byte	0x1
 10757 3991 4F       		.byte	0x4f
 10758 3992 9B000000 		.4byte	0x9b
 10759 3996 1C       		.byte	0x1c
 10760 3997 0F       		.uleb128 0xf
 10761 3998 F9020000 		.4byte	.LASF793
 10762 399c 01       		.byte	0x1
 10763 399d 51       		.byte	0x51
 10764 399e D2000000 		.4byte	0xd2
 10765 39a2 20       		.byte	0x20
 10766 39a3 0F       		.uleb128 0xf
 10767 39a4 8D070000 		.4byte	.LASF794
 10768 39a8 01       		.byte	0x1
 10769 39a9 53       		.byte	0x53
 10770 39aa 11170000 		.4byte	0x1711
 10771 39ae 24       		.byte	0x24
 10772 39af 0F       		.uleb128 0xf
 10773 39b0 A2020000 		.4byte	.LASF795
 10774 39b4 01       		.byte	0x1
 10775 39b5 54       		.byte	0x54
 10776 39b6 D2000000 		.4byte	0xd2
 10777 39ba 28       		.byte	0x28
 10778 39bb 00       		.byte	0
 10779 39bc 07       		.uleb128 0x7
 10780 39bd 04       		.byte	0x4
 10781 39be 33300000 		.4byte	0x3033
 10782 39c2 0C       		.uleb128 0xc
ARM GAS  /tmp/cchERvVK.s 			page 191


 10783 39c3 11170000 		.4byte	0x1711
 10784 39c7 D2390000 		.4byte	0x39d2
 10785 39cb 0D       		.uleb128 0xd
 10786 39cc 9B000000 		.4byte	0x9b
 10787 39d0 03       		.byte	0x3
 10788 39d1 00       		.byte	0
 10789 39d2 0C       		.uleb128 0xc
 10790 39d3 11170000 		.4byte	0x1711
 10791 39d7 E2390000 		.4byte	0x39e2
 10792 39db 0D       		.uleb128 0xd
 10793 39dc 9B000000 		.4byte	0x9b
 10794 39e0 05       		.byte	0x5
 10795 39e1 00       		.byte	0
 10796 39e2 0C       		.uleb128 0xc
 10797 39e3 E2000000 		.4byte	0xe2
 10798 39e7 F2390000 		.4byte	0x39f2
 10799 39eb 0D       		.uleb128 0xd
 10800 39ec 9B000000 		.4byte	0x9b
 10801 39f0 13       		.byte	0x13
 10802 39f1 00       		.byte	0
 10803 39f2 05       		.uleb128 0x5
 10804 39f3 E2390000 		.4byte	0x39e2
 10805 39f7 32       		.uleb128 0x32
 10806 39f8 A1200000 		.4byte	.LASF797
 10807 39fc 01       		.byte	0x1
 10808 39fd 58       		.byte	0x58
 10809 39fe F2390000 		.4byte	0x39f2
 10810 3a02 05       		.uleb128 0x5
 10811 3a03 03       		.byte	0x3
 10812 3a04 00000000 		.4byte	regnum_cortex_m
 10813 3a08 0C       		.uleb128 0xc
 10814 3a09 E2000000 		.4byte	0xe2
 10815 3a0d 183A0000 		.4byte	0x3a18
 10816 3a11 0D       		.uleb128 0xd
 10817 3a12 9B000000 		.4byte	0x9b
 10818 3a16 20       		.byte	0x20
 10819 3a17 00       		.byte	0
 10820 3a18 05       		.uleb128 0x5
 10821 3a19 083A0000 		.4byte	0x3a08
 10822 3a1d 32       		.uleb128 0x32
 10823 3a1e 83180000 		.4byte	.LASF798
 10824 3a22 01       		.byte	0x1
 10825 3a23 60       		.byte	0x60
 10826 3a24 183A0000 		.4byte	0x3a18
 10827 3a28 05       		.uleb128 0x5
 10828 3a29 03       		.byte	0x3
 10829 3a2a 00000000 		.4byte	regnum_cortex_mf
 10830 3a2e 0C       		.uleb128 0xc
 10831 3a2f BA010000 		.4byte	0x1ba
 10832 3a33 3E3A0000 		.4byte	0x3a3e
 10833 3a37 0D       		.uleb128 0xd
 10834 3a38 9B000000 		.4byte	0x9b
 10835 3a3c 07       		.byte	0x7
 10836 3a3d 00       		.byte	0
 10837 3a3e 05       		.uleb128 0x5
 10838 3a3f 2E3A0000 		.4byte	0x3a2e
 10839 3a43 32       		.uleb128 0x32
ARM GAS  /tmp/cchERvVK.s 			page 192


 10840 3a44 6D1B0000 		.4byte	.LASF799
 10841 3a48 01       		.byte	0x1
 10842 3a49 88       		.byte	0x88
 10843 3a4a 3E3A0000 		.4byte	0x3a3e
 10844 3a4e 05       		.uleb128 0x5
 10845 3a4f 03       		.byte	0x3
 10846 3a50 00000000 		.4byte	tdesc_cortex_m
 10847 3a54 32       		.uleb128 0x32
 10848 3a55 36250000 		.4byte	.LASF800
 10849 3a59 01       		.byte	0x1
 10850 3a5a BD       		.byte	0xbd
 10851 3a5b 3E3A0000 		.4byte	0x3a3e
 10852 3a5f 05       		.uleb128 0x5
 10853 3a60 03       		.byte	0x3
 10854 3a61 00000000 		.4byte	tdesc_cortex_mf
 10855 3a65 2B       		.uleb128 0x2b
 10856 3a66 07       		.byte	0x7
 10857 3a67 01       		.byte	0x1
 10858 3a68 37000000 		.4byte	0x37
 10859 3a6c 01       		.byte	0x1
 10860 3a6d A101     		.2byte	0x1a1
 10861 3a6f 8C3A0000 		.4byte	0x3a8c
 10862 3a73 2A       		.uleb128 0x2a
 10863 3a74 FB210000 		.4byte	.LASF801
 10864 3a78 00       		.byte	0
 10865 3a79 2A       		.uleb128 0x2a
 10866 3a7a 90230000 		.4byte	.LASF802
 10867 3a7e 01       		.byte	0x1
 10868 3a7f 2A       		.uleb128 0x2a
 10869 3a80 C3190000 		.4byte	.LASF803
 10870 3a84 02       		.byte	0x2
 10871 3a85 2A       		.uleb128 0x2a
 10872 3a86 73040000 		.4byte	.LASF804
 10873 3a8a 03       		.byte	0x3
 10874 3a8b 00       		.byte	0
 10875 3a8c 34       		.uleb128 0x34
 10876 3a8d CE0E0000 		.4byte	.LASF814
 10877 3a91 01       		.byte	0x1
 10878 3a92 A403     		.2byte	0x3a4
 10879 3a94 94000000 		.4byte	0x94
 10880 3a98 01       		.byte	0x1
 10881 3a99 FE3A0000 		.4byte	0x3afe
 10882 3a9d 35       		.uleb128 0x35
 10883 3a9e 7400     		.ascii	"t\000"
 10884 3aa0 01       		.byte	0x1
 10885 3aa1 A403     		.2byte	0x3a4
 10886 3aa3 EB330000 		.4byte	0x33eb
 10887 3aa7 36       		.uleb128 0x36
 10888 3aa8 DB1A0000 		.4byte	.LASF805
 10889 3aac 01       		.byte	0x1
 10890 3aad A603     		.2byte	0x3a6
 10891 3aaf FE3A0000 		.4byte	0x3afe
 10892 3ab3 36       		.uleb128 0x36
 10893 3ab4 22120000 		.4byte	.LASF806
 10894 3ab8 01       		.byte	0x1
 10895 3ab9 A703     		.2byte	0x3a7
 10896 3abb 95370000 		.4byte	0x3795
ARM GAS  /tmp/cchERvVK.s 			page 193


 10897 3abf 36       		.uleb128 0x36
 10898 3ac0 A60E0000 		.4byte	.LASF807
 10899 3ac4 01       		.byte	0x1
 10900 3ac5 AC03     		.2byte	0x3ac
 10901 3ac7 D2000000 		.4byte	0xd2
 10902 3acb 37       		.uleb128 0x37
 10903 3acc 72657400 		.ascii	"ret\000"
 10904 3ad0 01       		.byte	0x1
 10905 3ad1 AD03     		.2byte	0x3ad
 10906 3ad3 C2000000 		.4byte	0xc2
 10907 3ad7 38       		.uleb128 0x38
 10908 3ad8 36       		.uleb128 0x36
 10909 3ad9 F2260000 		.4byte	.LASF808
 10910 3add 01       		.byte	0x1
 10911 3ade B503     		.2byte	0x3b5
 10912 3ae0 1D3B0000 		.4byte	0x3b1d
 10913 3ae4 36       		.uleb128 0x36
 10914 3ae5 7D070000 		.4byte	.LASF809
 10915 3ae9 01       		.byte	0x1
 10916 3aea BD03     		.2byte	0x3bd
 10917 3aec D2000000 		.4byte	0xd2
 10918 3af0 36       		.uleb128 0x36
 10919 3af1 62160000 		.4byte	.LASF810
 10920 3af5 01       		.byte	0x1
 10921 3af6 BE03     		.2byte	0x3be
 10922 3af8 27150000 		.4byte	0x1527
 10923 3afc 00       		.byte	0
 10924 3afd 00       		.byte	0
 10925 3afe 0C       		.uleb128 0xc
 10926 3aff D2000000 		.4byte	0xd2
 10927 3b03 0D3B0000 		.4byte	0x3b0d
 10928 3b07 39       		.uleb128 0x39
 10929 3b08 9B000000 		.4byte	0x9b
 10930 3b0c 00       		.byte	0
 10931 3b0d 0C       		.uleb128 0xc
 10932 3b0e E2000000 		.4byte	0xe2
 10933 3b12 1D3B0000 		.4byte	0x3b1d
 10934 3b16 0D       		.uleb128 0xd
 10935 3b17 9B000000 		.4byte	0x9b
 10936 3b1b 05       		.byte	0x5
 10937 3b1c 00       		.byte	0
 10938 3b1d 05       		.uleb128 0x5
 10939 3b1e 0D3B0000 		.4byte	0x3b0d
 10940 3b22 3A       		.uleb128 0x3a
 10941 3b23 CA150000 		.4byte	.LASF816
 10942 3b27 01       		.byte	0x1
 10943 3b28 6003     		.2byte	0x360
 10944 3b2a 11170000 		.4byte	0x1711
 10945 3b2e 00000000 		.4byte	.LFB289
 10946 3b32 E8000000 		.4byte	.LFE289-.LFB289
 10947 3b36 01       		.uleb128 0x1
 10948 3b37 9C       		.byte	0x9c
 10949 3b38 5B3C0000 		.4byte	0x3c5b
 10950 3b3c 3B       		.uleb128 0x3b
 10951 3b3d 7400     		.ascii	"t\000"
 10952 3b3f 01       		.byte	0x1
 10953 3b40 6003     		.2byte	0x360
ARM GAS  /tmp/cchERvVK.s 			page 194


 10954 3b42 EB330000 		.4byte	0x33eb
 10955 3b46 00000000 		.4byte	.LLST2
 10956 3b4a 3C       		.uleb128 0x3c
 10957 3b4b BE060000 		.4byte	.LASF811
 10958 3b4f 01       		.byte	0x1
 10959 3b50 6003     		.2byte	0x360
 10960 3b52 94000000 		.4byte	0x94
 10961 3b56 1E000000 		.4byte	.LLST3
 10962 3b5a 3C       		.uleb128 0x3c
 10963 3b5b 901E0000 		.4byte	.LASF812
 10964 3b5f 01       		.byte	0x1
 10965 3b60 6003     		.2byte	0x360
 10966 3b62 A3380000 		.4byte	0x38a3
 10967 3b66 63000000 		.4byte	.LLST4
 10968 3b6a 3D       		.uleb128 0x3d
 10969 3b6b 04020000 		.4byte	.LASF689
 10970 3b6f 01       		.byte	0x1
 10971 3b70 6203     		.2byte	0x362
 10972 3b72 5B3C0000 		.4byte	0x3c5b
 10973 3b76 01       		.uleb128 0x1
 10974 3b77 57       		.byte	0x57
 10975 3b78 3D       		.uleb128 0x3d
 10976 3b79 581C0000 		.4byte	.LASF813
 10977 3b7d 01       		.byte	0x1
 10978 3b7e 6303     		.2byte	0x363
 10979 3b80 613C0000 		.4byte	0x3c61
 10980 3b84 03       		.uleb128 0x3
 10981 3b85 91       		.byte	0x91
 10982 3b86 AC7F     		.sleb128 -84
 10983 3b88 3E       		.uleb128 0x3e
 10984 3b89 6900     		.ascii	"i\000"
 10985 3b8b 01       		.byte	0x1
 10986 3b8c 6503     		.2byte	0x365
 10987 3b8e 9B000000 		.4byte	0x9b
 10988 3b92 A8000000 		.4byte	.LLST5
 10989 3b96 3F       		.uleb128 0x3f
 10990 3b97 8A000000 		.4byte	.LBB56
 10991 3b9b 5E000000 		.4byte	.LBE56-.LBB56
 10992 3b9f ED3B0000 		.4byte	0x3bed
 10993 3ba3 40       		.uleb128 0x40
 10994 3ba4 746D7000 		.ascii	"tmp\000"
 10995 3ba8 01       		.byte	0x1
 10996 3ba9 6B03     		.2byte	0x36b
 10997 3bab D2000000 		.4byte	0xd2
 10998 3baf 01       		.uleb128 0x1
 10999 3bb0 56       		.byte	0x56
 11000 3bb1 3F       		.uleb128 0x3f
 11001 3bb2 8C000000 		.4byte	.LBB57
 11002 3bb6 2C000000 		.4byte	.LBE57-.LBB57
 11003 3bba D23B0000 		.4byte	0x3bd2
 11004 3bbe 37       		.uleb128 0x37
 11005 3bbf 6A00     		.ascii	"j\000"
 11006 3bc1 01       		.byte	0x1
 11007 3bc2 6D03     		.2byte	0x36d
 11008 3bc4 94000000 		.4byte	0x94
 11009 3bc8 41       		.uleb128 0x41
 11010 3bc9 A4000000 		.4byte	.LVL17
ARM GAS  /tmp/cchERvVK.s 			page 195


 11011 3bcd F2580000 		.4byte	0x58f2
 11012 3bd1 00       		.byte	0
 11013 3bd2 42       		.uleb128 0x42
 11014 3bd3 CE000000 		.4byte	.LVL21
 11015 3bd7 FD580000 		.4byte	0x58fd
 11016 3bdb 43       		.uleb128 0x43
 11017 3bdc 01       		.uleb128 0x1
 11018 3bdd 50       		.byte	0x50
 11019 3bde 02       		.uleb128 0x2
 11020 3bdf 78       		.byte	0x78
 11021 3be0 00       		.sleb128 0
 11022 3be1 43       		.uleb128 0x43
 11023 3be2 01       		.uleb128 0x1
 11024 3be3 51       		.byte	0x51
 11025 3be4 06       		.uleb128 0x6
 11026 3be5 11       		.byte	0x11
 11027 3be6 FCDB8380 		.sleb128 -536809988
 11027      7E
 11028 3beb 00       		.byte	0
 11029 3bec 00       		.byte	0
 11030 3bed 44       		.uleb128 0x44
 11031 3bee 3E000000 		.4byte	.LVL6
 11032 3bf2 08590000 		.4byte	0x5908
 11033 3bf6 0A3C0000 		.4byte	0x3c0a
 11034 3bfa 43       		.uleb128 0x43
 11035 3bfb 01       		.uleb128 0x1
 11036 3bfc 50       		.byte	0x50
 11037 3bfd 02       		.uleb128 0x2
 11038 3bfe 78       		.byte	0x78
 11039 3bff 00       		.sleb128 0
 11040 3c00 43       		.uleb128 0x43
 11041 3c01 01       		.uleb128 0x1
 11042 3c02 51       		.byte	0x51
 11043 3c03 05       		.uleb128 0x5
 11044 3c04 03       		.byte	0x3
 11045 3c05 00000000 		.4byte	.LC11
 11046 3c09 00       		.byte	0
 11047 3c0a 44       		.uleb128 0x44
 11048 3c0b 48000000 		.4byte	.LVL7
 11049 3c0f 08590000 		.4byte	0x5908
 11050 3c13 273C0000 		.4byte	0x3c27
 11051 3c17 43       		.uleb128 0x43
 11052 3c18 01       		.uleb128 0x1
 11053 3c19 50       		.byte	0x50
 11054 3c1a 02       		.uleb128 0x2
 11055 3c1b 78       		.byte	0x78
 11056 3c1c 00       		.sleb128 0
 11057 3c1d 43       		.uleb128 0x43
 11058 3c1e 01       		.uleb128 0x1
 11059 3c1f 51       		.byte	0x51
 11060 3c20 05       		.uleb128 0x5
 11061 3c21 03       		.byte	0x3
 11062 3c22 54000000 		.4byte	.LC12
 11063 3c26 00       		.byte	0
 11064 3c27 44       		.uleb128 0x44
 11065 3c28 72000000 		.4byte	.LVL11
 11066 3c2c 08590000 		.4byte	0x5908
ARM GAS  /tmp/cchERvVK.s 			page 196


 11067 3c30 413C0000 		.4byte	0x3c41
 11068 3c34 43       		.uleb128 0x43
 11069 3c35 01       		.uleb128 0x1
 11070 3c36 50       		.byte	0x50
 11071 3c37 02       		.uleb128 0x2
 11072 3c38 78       		.byte	0x78
 11073 3c39 00       		.sleb128 0
 11074 3c3a 43       		.uleb128 0x43
 11075 3c3b 01       		.uleb128 0x1
 11076 3c3c 51       		.byte	0x51
 11077 3c3d 02       		.uleb128 0x2
 11078 3c3e 76       		.byte	0x76
 11079 3c3f 00       		.sleb128 0
 11080 3c40 00       		.byte	0
 11081 3c41 42       		.uleb128 0x42
 11082 3c42 7E000000 		.4byte	.LVL12
 11083 3c46 08590000 		.4byte	0x5908
 11084 3c4a 43       		.uleb128 0x43
 11085 3c4b 01       		.uleb128 0x1
 11086 3c4c 50       		.byte	0x50
 11087 3c4d 02       		.uleb128 0x2
 11088 3c4e 78       		.byte	0x78
 11089 3c4f 00       		.sleb128 0
 11090 3c50 43       		.uleb128 0x43
 11091 3c51 01       		.uleb128 0x1
 11092 3c52 51       		.byte	0x51
 11093 3c53 05       		.uleb128 0x5
 11094 3c54 03       		.byte	0x3
 11095 3c55 6C000000 		.4byte	.LC14
 11096 3c59 00       		.byte	0
 11097 3c5a 00       		.byte	0
 11098 3c5b 07       		.uleb128 0x7
 11099 3c5c 04       		.byte	0x4
 11100 3c5d 2C390000 		.4byte	0x392c
 11101 3c61 0C       		.uleb128 0xc
 11102 3c62 2B060000 		.4byte	0x62b
 11103 3c66 713C0000 		.4byte	0x3c71
 11104 3c6a 0D       		.uleb128 0xd
 11105 3c6b 9B000000 		.4byte	0x9b
 11106 3c6f 0A       		.byte	0xa
 11107 3c70 00       		.byte	0
 11108 3c71 34       		.uleb128 0x34
 11109 3c72 040C0000 		.4byte	.LASF815
 11110 3c76 01       		.byte	0x1
 11111 3c77 4E03     		.2byte	0x34e
 11112 3c79 B1310000 		.4byte	0x31b1
 11113 3c7d 01       		.byte	0x1
 11114 3c7e A33C0000 		.4byte	0x3ca3
 11115 3c82 35       		.uleb128 0x35
 11116 3c83 7400     		.ascii	"t\000"
 11117 3c85 01       		.byte	0x1
 11118 3c86 4E03     		.2byte	0x34e
 11119 3c88 EB330000 		.4byte	0x33eb
 11120 3c8c 36       		.uleb128 0x36
 11121 3c8d 04020000 		.4byte	.LASF689
 11122 3c91 01       		.byte	0x1
 11123 3c92 5003     		.2byte	0x350
ARM GAS  /tmp/cchERvVK.s 			page 197


 11124 3c94 5B3C0000 		.4byte	0x3c5b
 11125 3c98 37       		.uleb128 0x37
 11126 3c99 6900     		.ascii	"i\000"
 11127 3c9b 01       		.byte	0x1
 11128 3c9c 5103     		.2byte	0x351
 11129 3c9e 9B000000 		.4byte	0x9b
 11130 3ca2 00       		.byte	0
 11131 3ca3 3A       		.uleb128 0x3a
 11132 3ca4 3F1C0000 		.4byte	.LASF817
 11133 3ca8 01       		.byte	0x1
 11134 3ca9 3A03     		.2byte	0x33a
 11135 3cab 94000000 		.4byte	0x94
 11136 3caf 00000000 		.4byte	.LFB287
 11137 3cb3 4C000000 		.4byte	.LFE287-.LFB287
 11138 3cb7 01       		.uleb128 0x1
 11139 3cb8 9C       		.byte	0x9c
 11140 3cb9 243D0000 		.4byte	0x3d24
 11141 3cbd 3B       		.uleb128 0x3b
 11142 3cbe 7400     		.ascii	"t\000"
 11143 3cc0 01       		.byte	0x1
 11144 3cc1 3A03     		.2byte	0x33a
 11145 3cc3 EB330000 		.4byte	0x33eb
 11146 3cc7 F6000000 		.4byte	.LLST6
 11147 3ccb 3B       		.uleb128 0x3b
 11148 3ccc 627700   		.ascii	"bw\000"
 11149 3ccf 01       		.byte	0x1
 11150 3cd0 3A03     		.2byte	0x33a
 11151 3cd2 8F370000 		.4byte	0x378f
 11152 3cd6 49010000 		.4byte	.LLST7
 11153 3cda 45       		.uleb128 0x45
 11154 3cdb 04020000 		.4byte	.LASF689
 11155 3cdf 01       		.byte	0x1
 11156 3ce0 3C03     		.2byte	0x33c
 11157 3ce2 5B3C0000 		.4byte	0x3c5b
 11158 3ce6 6A010000 		.4byte	.LLST8
 11159 3cea 3E       		.uleb128 0x3e
 11160 3ceb 6900     		.ascii	"i\000"
 11161 3ced 01       		.byte	0x1
 11162 3cee 3D03     		.2byte	0x33d
 11163 3cf0 9B000000 		.4byte	0x9b
 11164 3cf4 A2010000 		.4byte	.LLST9
 11165 3cf8 44       		.uleb128 0x44
 11166 3cf9 24000000 		.4byte	.LVL27
 11167 3cfd FD580000 		.4byte	0x58fd
 11168 3d01 133D0000 		.4byte	0x3d13
 11169 3d05 43       		.uleb128 0x43
 11170 3d06 01       		.uleb128 0x1
 11171 3d07 50       		.byte	0x50
 11172 3d08 03       		.uleb128 0x3
 11173 3d09 F3       		.byte	0xf3
 11174 3d0a 01       		.uleb128 0x1
 11175 3d0b 50       		.byte	0x50
 11176 3d0c 43       		.uleb128 0x43
 11177 3d0d 01       		.uleb128 0x1
 11178 3d0e 52       		.byte	0x52
 11179 3d0f 02       		.uleb128 0x2
 11180 3d10 74       		.byte	0x74
ARM GAS  /tmp/cchERvVK.s 			page 198


 11181 3d11 00       		.sleb128 0
 11182 3d12 00       		.byte	0
 11183 3d13 42       		.uleb128 0x42
 11184 3d14 42000000 		.4byte	.LVL35
 11185 3d18 FD580000 		.4byte	0x58fd
 11186 3d1c 43       		.uleb128 0x43
 11187 3d1d 01       		.uleb128 0x1
 11188 3d1e 52       		.byte	0x52
 11189 3d1f 02       		.uleb128 0x2
 11190 3d20 74       		.byte	0x74
 11191 3d21 00       		.sleb128 0
 11192 3d22 00       		.byte	0
 11193 3d23 00       		.byte	0
 11194 3d24 3A       		.uleb128 0x3a
 11195 3d25 27140000 		.4byte	.LASF818
 11196 3d29 01       		.byte	0x1
 11197 3d2a 0903     		.2byte	0x309
 11198 3d2c 94000000 		.4byte	0x94
 11199 3d30 00000000 		.4byte	.LFB286
 11200 3d34 54010000 		.4byte	.LFE286-.LFB286
 11201 3d38 01       		.uleb128 0x1
 11202 3d39 9C       		.byte	0x9c
 11203 3d3a 183E0000 		.4byte	0x3e18
 11204 3d3e 3B       		.uleb128 0x3b
 11205 3d3f 7400     		.ascii	"t\000"
 11206 3d41 01       		.byte	0x1
 11207 3d42 0903     		.2byte	0x309
 11208 3d44 EB330000 		.4byte	0x33eb
 11209 3d48 00020000 		.4byte	.LLST10
 11210 3d4c 3B       		.uleb128 0x3b
 11211 3d4d 627700   		.ascii	"bw\000"
 11212 3d50 01       		.byte	0x1
 11213 3d51 0903     		.2byte	0x309
 11214 3d53 8F370000 		.4byte	0x378f
 11215 3d57 1E020000 		.4byte	.LLST11
 11216 3d5b 45       		.uleb128 0x45
 11217 3d5c 04020000 		.4byte	.LASF689
 11218 3d60 01       		.byte	0x1
 11219 3d61 0B03     		.2byte	0x30b
 11220 3d63 5B3C0000 		.4byte	0x3c5b
 11221 3d67 94020000 		.4byte	.LLST12
 11222 3d6b 3E       		.uleb128 0x3e
 11223 3d6c 6900     		.ascii	"i\000"
 11224 3d6e 01       		.byte	0x1
 11225 3d6f 0C03     		.2byte	0x30c
 11226 3d71 9B000000 		.4byte	0x9b
 11227 3d75 07030000 		.4byte	.LLST13
 11228 3d79 3E       		.uleb128 0x3e
 11229 3d7a 76616C00 		.ascii	"val\000"
 11230 3d7e 01       		.byte	0x1
 11231 3d7f 0D03     		.2byte	0x30d
 11232 3d81 D2000000 		.4byte	0xd2
 11233 3d85 8B030000 		.4byte	.LLST14
 11234 3d89 46       		.uleb128 0x46
 11235 3d8a 183E0000 		.4byte	0x3e18
 11236 3d8e C8000000 		.4byte	.LBB58
 11237 3d92 00000000 		.4byte	.Ldebug_ranges0+0
ARM GAS  /tmp/cchERvVK.s 			page 199


 11238 3d96 01       		.byte	0x1
 11239 3d97 3103     		.2byte	0x331
 11240 3d99 BF3D0000 		.4byte	0x3dbf
 11241 3d9d 47       		.uleb128 0x47
 11242 3d9e 293E0000 		.4byte	0x3e29
 11243 3da2 CB030000 		.4byte	.LLST15
 11244 3da6 47       		.uleb128 0x47
 11245 3da7 333E0000 		.4byte	0x3e33
 11246 3dab E9030000 		.4byte	.LLST16
 11247 3daf 48       		.uleb128 0x48
 11248 3db0 00000000 		.4byte	.Ldebug_ranges0+0
 11249 3db4 49       		.uleb128 0x49
 11250 3db5 3F3E0000 		.4byte	0x3e3f
 11251 3db9 07040000 		.4byte	.LLST17
 11252 3dbd 00       		.byte	0
 11253 3dbe 00       		.byte	0
 11254 3dbf 44       		.uleb128 0x44
 11255 3dc0 B4000000 		.4byte	.LVL60
 11256 3dc4 FD580000 		.4byte	0x58fd
 11257 3dc8 D33D0000 		.4byte	0x3dd3
 11258 3dcc 43       		.uleb128 0x43
 11259 3dcd 01       		.uleb128 0x1
 11260 3dce 50       		.byte	0x50
 11261 3dcf 02       		.uleb128 0x2
 11262 3dd0 76       		.byte	0x76
 11263 3dd1 00       		.sleb128 0
 11264 3dd2 00       		.byte	0
 11265 3dd3 44       		.uleb128 0x44
 11266 3dd4 C8000000 		.4byte	.LVL62
 11267 3dd8 FD580000 		.4byte	0x58fd
 11268 3ddc ED3D0000 		.4byte	0x3ded
 11269 3de0 43       		.uleb128 0x43
 11270 3de1 01       		.uleb128 0x1
 11271 3de2 50       		.byte	0x50
 11272 3de3 02       		.uleb128 0x2
 11273 3de4 76       		.byte	0x76
 11274 3de5 00       		.sleb128 0
 11275 3de6 43       		.uleb128 0x43
 11276 3de7 01       		.uleb128 0x1
 11277 3de8 51       		.byte	0x51
 11278 3de9 02       		.uleb128 0x2
 11279 3dea 77       		.byte	0x77
 11280 3deb 00       		.sleb128 0
 11281 3dec 00       		.byte	0
 11282 3ded 44       		.uleb128 0x44
 11283 3dee F0000000 		.4byte	.LVL66
 11284 3df2 FD580000 		.4byte	0x58fd
 11285 3df6 073E0000 		.4byte	0x3e07
 11286 3dfa 43       		.uleb128 0x43
 11287 3dfb 01       		.uleb128 0x1
 11288 3dfc 50       		.byte	0x50
 11289 3dfd 02       		.uleb128 0x2
 11290 3dfe 76       		.byte	0x76
 11291 3dff 00       		.sleb128 0
 11292 3e00 43       		.uleb128 0x43
 11293 3e01 01       		.uleb128 0x1
 11294 3e02 51       		.byte	0x51
ARM GAS  /tmp/cchERvVK.s 			page 200


 11295 3e03 02       		.uleb128 0x2
 11296 3e04 78       		.byte	0x78
 11297 3e05 00       		.sleb128 0
 11298 3e06 00       		.byte	0
 11299 3e07 42       		.uleb128 0x42
 11300 3e08 16010000 		.4byte	.LVL71
 11301 3e0c FD580000 		.4byte	0x58fd
 11302 3e10 43       		.uleb128 0x43
 11303 3e11 01       		.uleb128 0x1
 11304 3e12 50       		.byte	0x50
 11305 3e13 02       		.uleb128 0x2
 11306 3e14 76       		.byte	0x76
 11307 3e15 00       		.sleb128 0
 11308 3e16 00       		.byte	0
 11309 3e17 00       		.byte	0
 11310 3e18 34       		.uleb128 0x34
 11311 3e19 5B230000 		.4byte	.LASF819
 11312 3e1d 01       		.byte	0x1
 11313 3e1e F602     		.2byte	0x2f6
 11314 3e20 D2000000 		.4byte	0xd2
 11315 3e24 01       		.byte	0x1
 11316 3e25 4A3E0000 		.4byte	0x3e4a
 11317 3e29 35       		.uleb128 0x35
 11318 3e2a 7400     		.ascii	"t\000"
 11319 3e2c 01       		.byte	0x1
 11320 3e2d F602     		.2byte	0x2f6
 11321 3e2f EB330000 		.4byte	0x33eb
 11322 3e33 4A       		.uleb128 0x4a
 11323 3e34 A2070000 		.4byte	.LASF628
 11324 3e38 01       		.byte	0x1
 11325 3e39 F602     		.2byte	0x2f6
 11326 3e3b F8310000 		.4byte	0x31f8
 11327 3e3f 37       		.uleb128 0x37
 11328 3e40 7800     		.ascii	"x\000"
 11329 3e42 01       		.byte	0x1
 11330 3e43 F802     		.2byte	0x2f8
 11331 3e45 D2000000 		.4byte	0xd2
 11332 3e49 00       		.byte	0
 11333 3e4a 34       		.uleb128 0x34
 11334 3e4b C6110000 		.4byte	.LASF820
 11335 3e4f 01       		.byte	0x1
 11336 3e50 E802     		.2byte	0x2e8
 11337 3e52 D2000000 		.4byte	0xd2
 11338 3e56 01       		.byte	0x1
 11339 3e57 683E0000 		.4byte	0x3e68
 11340 3e5b 35       		.uleb128 0x35
 11341 3e5c 6C656E00 		.ascii	"len\000"
 11342 3e60 01       		.byte	0x1
 11343 3e61 E802     		.2byte	0x2e8
 11344 3e63 F2000000 		.4byte	0xf2
 11345 3e67 00       		.byte	0
 11346 3e68 4B       		.uleb128 0x4b
 11347 3e69 B7010000 		.4byte	.LASF841
 11348 3e6d 01       		.byte	0x1
 11349 3e6e BD02     		.2byte	0x2bd
 11350 3e70 94000000 		.4byte	0x94
 11351 3e74 00000000 		.4byte	.LFB283
ARM GAS  /tmp/cchERvVK.s 			page 201


 11352 3e78 B4000000 		.4byte	.LFE283-.LFB283
 11353 3e7c 01       		.uleb128 0x1
 11354 3e7d 9C       		.byte	0x9c
 11355 3e7e D13F0000 		.4byte	0x3fd1
 11356 3e82 3B       		.uleb128 0x3b
 11357 3e83 7400     		.ascii	"t\000"
 11358 3e85 01       		.byte	0x1
 11359 3e86 BD02     		.2byte	0x2bd
 11360 3e88 EB330000 		.4byte	0x33eb
 11361 3e8c DA040000 		.4byte	.LLST135
 11362 3e90 3C       		.uleb128 0x3c
 11363 3e91 DD1F0000 		.4byte	.LASF821
 11364 3e95 01       		.byte	0x1
 11365 3e96 BD02     		.2byte	0x2bd
 11366 3e98 D2000000 		.4byte	0xd2
 11367 3e9c F8040000 		.4byte	.LLST136
 11368 3ea0 3B       		.uleb128 0x3b
 11369 3ea1 723000   		.ascii	"r0\000"
 11370 3ea4 01       		.byte	0x1
 11371 3ea5 BE02     		.2byte	0x2be
 11372 3ea7 D2000000 		.4byte	0xd2
 11373 3eab 16050000 		.4byte	.LLST137
 11374 3eaf 3B       		.uleb128 0x3b
 11375 3eb0 723100   		.ascii	"r1\000"
 11376 3eb3 01       		.byte	0x1
 11377 3eb4 BE02     		.2byte	0x2be
 11378 3eb6 D2000000 		.4byte	0xd2
 11379 3eba 34050000 		.4byte	.LLST138
 11380 3ebe 4C       		.uleb128 0x4c
 11381 3ebf 723200   		.ascii	"r2\000"
 11382 3ec2 01       		.byte	0x1
 11383 3ec3 BE02     		.2byte	0x2be
 11384 3ec5 D2000000 		.4byte	0xd2
 11385 3ec9 02       		.uleb128 0x2
 11386 3eca 91       		.byte	0x91
 11387 3ecb 00       		.sleb128 0
 11388 3ecc 4C       		.uleb128 0x4c
 11389 3ecd 723300   		.ascii	"r3\000"
 11390 3ed0 01       		.byte	0x1
 11391 3ed1 BE02     		.2byte	0x2be
 11392 3ed3 D2000000 		.4byte	0xd2
 11393 3ed7 02       		.uleb128 0x2
 11394 3ed8 91       		.byte	0x91
 11395 3ed9 04       		.sleb128 4
 11396 3eda 3D       		.uleb128 0x3d
 11397 3edb 80050000 		.4byte	.LASF822
 11398 3edf 01       		.byte	0x1
 11399 3ee0 C002     		.2byte	0x2c0
 11400 3ee2 D13F0000 		.4byte	0x3fd1
 11401 3ee6 02       		.uleb128 0x2
 11402 3ee7 78       		.byte	0x78
 11403 3ee8 00       		.sleb128 0
 11404 3ee9 45       		.uleb128 0x45
 11405 3eea 451A0000 		.4byte	.LASF823
 11406 3eee 01       		.byte	0x1
 11407 3eef D102     		.2byte	0x2d1
 11408 3ef1 BC310000 		.4byte	0x31bc
ARM GAS  /tmp/cchERvVK.s 			page 202


 11409 3ef5 6C050000 		.4byte	.LLST139
 11410 3ef9 3E       		.uleb128 0x3e
 11411 3efa 706300   		.ascii	"pc\000"
 11412 3efd 01       		.byte	0x1
 11413 3efe DC02     		.2byte	0x2dc
 11414 3f00 D2000000 		.4byte	0xd2
 11415 3f04 8A050000 		.4byte	.LLST140
 11416 3f08 45       		.uleb128 0x45
 11417 3f09 47040000 		.4byte	.LASF824
 11418 3f0d 01       		.byte	0x1
 11419 3f0e DD02     		.2byte	0x2dd
 11420 3f10 B7000000 		.4byte	0xb7
 11421 3f14 A8050000 		.4byte	.LLST141
 11422 3f18 4D       		.uleb128 0x4d
 11423 3f19 9B000000 		.4byte	0x9b
 11424 3f1d BB050000 		.4byte	.LLST134
 11425 3f21 44       		.uleb128 0x44
 11426 3f22 2C000000 		.4byte	.LVL410
 11427 3f26 13590000 		.4byte	0x5913
 11428 3f2a 3A3F0000 		.4byte	0x3f3a
 11429 3f2e 43       		.uleb128 0x43
 11430 3f2f 01       		.uleb128 0x1
 11431 3f30 50       		.byte	0x50
 11432 3f31 02       		.uleb128 0x2
 11433 3f32 78       		.byte	0x78
 11434 3f33 00       		.sleb128 0
 11435 3f34 43       		.uleb128 0x43
 11436 3f35 01       		.uleb128 0x1
 11437 3f36 51       		.byte	0x51
 11438 3f37 01       		.uleb128 0x1
 11439 3f38 30       		.byte	0x30
 11440 3f39 00       		.byte	0
 11441 3f3a 44       		.uleb128 0x44
 11442 3f3b 52000000 		.4byte	.LVL412
 11443 3f3f 454A0000 		.4byte	0x4a45
 11444 3f43 543F0000 		.4byte	0x3f54
 11445 3f47 43       		.uleb128 0x43
 11446 3f48 01       		.uleb128 0x1
 11447 3f49 50       		.byte	0x50
 11448 3f4a 02       		.uleb128 0x2
 11449 3f4b 74       		.byte	0x74
 11450 3f4c 00       		.sleb128 0
 11451 3f4d 43       		.uleb128 0x43
 11452 3f4e 01       		.uleb128 0x1
 11453 3f4f 51       		.byte	0x51
 11454 3f50 02       		.uleb128 0x2
 11455 3f51 78       		.byte	0x78
 11456 3f52 00       		.sleb128 0
 11457 3f53 00       		.byte	0
 11458 3f54 44       		.uleb128 0x44
 11459 3f55 58000000 		.4byte	.LVL413
 11460 3f59 22590000 		.4byte	0x5922
 11461 3f5d 683F0000 		.4byte	0x3f68
 11462 3f61 43       		.uleb128 0x43
 11463 3f62 01       		.uleb128 0x1
 11464 3f63 50       		.byte	0x50
 11465 3f64 02       		.uleb128 0x2
ARM GAS  /tmp/cchERvVK.s 			page 203


 11466 3f65 74       		.byte	0x74
 11467 3f66 00       		.sleb128 0
 11468 3f67 00       		.byte	0
 11469 3f68 44       		.uleb128 0x44
 11470 3f69 62000000 		.4byte	.LVL414
 11471 3f6d 7C400000 		.4byte	0x407c
 11472 3f71 7C3F0000 		.4byte	0x3f7c
 11473 3f75 43       		.uleb128 0x43
 11474 3f76 01       		.uleb128 0x1
 11475 3f77 50       		.byte	0x50
 11476 3f78 02       		.uleb128 0x2
 11477 3f79 74       		.byte	0x74
 11478 3f7a 00       		.sleb128 0
 11479 3f7b 00       		.byte	0
 11480 3f7c 44       		.uleb128 0x44
 11481 3f7d 6A000000 		.4byte	.LVL415
 11482 3f81 E8410000 		.4byte	0x41e8
 11483 3f85 953F0000 		.4byte	0x3f95
 11484 3f89 43       		.uleb128 0x43
 11485 3f8a 01       		.uleb128 0x1
 11486 3f8b 50       		.byte	0x50
 11487 3f8c 02       		.uleb128 0x2
 11488 3f8d 74       		.byte	0x74
 11489 3f8e 00       		.sleb128 0
 11490 3f8f 43       		.uleb128 0x43
 11491 3f90 01       		.uleb128 0x1
 11492 3f91 51       		.byte	0x51
 11493 3f92 01       		.uleb128 0x1
 11494 3f93 30       		.byte	0x30
 11495 3f94 00       		.byte	0
 11496 3f95 44       		.uleb128 0x44
 11497 3f96 7C000000 		.4byte	.LVL417
 11498 3f9a F6480000 		.4byte	0x48f6
 11499 3f9e A93F0000 		.4byte	0x3fa9
 11500 3fa2 43       		.uleb128 0x43
 11501 3fa3 01       		.uleb128 0x1
 11502 3fa4 50       		.byte	0x50
 11503 3fa5 02       		.uleb128 0x2
 11504 3fa6 74       		.byte	0x74
 11505 3fa7 00       		.sleb128 0
 11506 3fa8 00       		.byte	0
 11507 3fa9 44       		.uleb128 0x44
 11508 3faa 84000000 		.4byte	.LVL419
 11509 3fae 2D590000 		.4byte	0x592d
 11510 3fb2 BD3F0000 		.4byte	0x3fbd
 11511 3fb6 43       		.uleb128 0x43
 11512 3fb7 01       		.uleb128 0x1
 11513 3fb8 50       		.byte	0x50
 11514 3fb9 02       		.uleb128 0x2
 11515 3fba 74       		.byte	0x74
 11516 3fbb 00       		.sleb128 0
 11517 3fbc 00       		.byte	0
 11518 3fbd 42       		.uleb128 0x42
 11519 3fbe 9A000000 		.4byte	.LVL422
 11520 3fc2 38590000 		.4byte	0x5938
 11521 3fc6 43       		.uleb128 0x43
 11522 3fc7 01       		.uleb128 0x1
ARM GAS  /tmp/cchERvVK.s 			page 204


 11523 3fc8 51       		.byte	0x51
 11524 3fc9 05       		.uleb128 0x5
 11525 3fca 03       		.byte	0x3
 11526 3fcb 00000000 		.4byte	.LC20
 11527 3fcf 00       		.byte	0
 11528 3fd0 00       		.byte	0
 11529 3fd1 0C       		.uleb128 0xc
 11530 3fd2 D2000000 		.4byte	0xd2
 11531 3fd6 E43F0000 		.4byte	0x3fe4
 11532 3fda 4E       		.uleb128 0x4e
 11533 3fdb 9B000000 		.4byte	0x9b
 11534 3fdf 183F0000 		.4byte	0x3f18
 11535 3fe3 00       		.byte	0
 11536 3fe4 34       		.uleb128 0x34
 11537 3fe5 BD180000 		.4byte	.LASF825
 11538 3fe9 01       		.byte	0x1
 11539 3fea 8202     		.2byte	0x282
 11540 3fec 94000000 		.4byte	0x94
 11541 3ff0 01       		.byte	0x1
 11542 3ff1 6D400000 		.4byte	0x406d
 11543 3ff5 35       		.uleb128 0x35
 11544 3ff6 7400     		.ascii	"t\000"
 11545 3ff8 01       		.byte	0x1
 11546 3ff9 8202     		.2byte	0x282
 11547 3ffb EB330000 		.4byte	0x33eb
 11548 3fff 36       		.uleb128 0x36
 11549 4000 33070000 		.4byte	.LASF826
 11550 4004 01       		.byte	0x1
 11551 4005 8402     		.2byte	0x284
 11552 4007 D2000000 		.4byte	0xd2
 11553 400b 36       		.uleb128 0x36
 11554 400c 8B1E0000 		.4byte	.LASF827
 11555 4010 01       		.byte	0x1
 11556 4011 8502     		.2byte	0x285
 11557 4013 D2000000 		.4byte	0xd2
 11558 4017 38       		.uleb128 0x38
 11559 4018 36       		.uleb128 0x36
 11560 4019 80050000 		.4byte	.LASF822
 11561 401d 01       		.byte	0x1
 11562 401e 8C02     		.2byte	0x28c
 11563 4020 6D400000 		.4byte	0x406d
 11564 4024 36       		.uleb128 0x36
 11565 4025 DF0B0000 		.4byte	.LASF828
 11566 4029 01       		.byte	0x1
 11567 402a 8D02     		.2byte	0x28d
 11568 402c 280D0000 		.4byte	0xd28
 11569 4030 36       		.uleb128 0x36
 11570 4031 50250000 		.4byte	.LASF829
 11571 4035 01       		.byte	0x1
 11572 4036 8E02     		.2byte	0x28e
 11573 4038 D2000000 		.4byte	0xd2
 11574 403c 36       		.uleb128 0x36
 11575 403d C4230000 		.4byte	.LASF830
 11576 4041 01       		.byte	0x1
 11577 4042 8E02     		.2byte	0x28e
 11578 4044 D2000000 		.4byte	0xd2
 11579 4048 36       		.uleb128 0x36
ARM GAS  /tmp/cchERvVK.s 			page 205


 11580 4049 E9010000 		.4byte	.LASF831
 11581 404d 01       		.byte	0x1
 11582 404e 9302     		.2byte	0x293
 11583 4050 11170000 		.4byte	0x1711
 11584 4054 36       		.uleb128 0x36
 11585 4055 17130000 		.4byte	.LASF832
 11586 4059 01       		.byte	0x1
 11587 405a 9402     		.2byte	0x294
 11588 405c 11170000 		.4byte	0x1711
 11589 4060 37       		.uleb128 0x37
 11590 4061 737000   		.ascii	"sp\000"
 11591 4064 01       		.byte	0x1
 11592 4065 9602     		.2byte	0x296
 11593 4067 D2000000 		.4byte	0xd2
 11594 406b 00       		.byte	0
 11595 406c 00       		.byte	0
 11596 406d 0C       		.uleb128 0xc
 11597 406e D2000000 		.4byte	0xd2
 11598 4072 7C400000 		.4byte	0x407c
 11599 4076 39       		.uleb128 0x39
 11600 4077 9B000000 		.4byte	0x9b
 11601 407b 00       		.byte	0
 11602 407c 4F       		.uleb128 0x4f
 11603 407d 5C030000 		.4byte	.LASF847
 11604 4081 01       		.byte	0x1
 11605 4082 6802     		.2byte	0x268
 11606 4084 00000000 		.4byte	.LFB281
 11607 4088 94000000 		.4byte	.LFE281-.LFB281
 11608 408c 01       		.uleb128 0x1
 11609 408d 9C       		.byte	0x9c
 11610 408e E8410000 		.4byte	0x41e8
 11611 4092 3B       		.uleb128 0x3b
 11612 4093 7400     		.ascii	"t\000"
 11613 4095 01       		.byte	0x1
 11614 4096 6802     		.2byte	0x268
 11615 4098 EB330000 		.4byte	0x33eb
 11616 409c E7050000 		.4byte	.LLST23
 11617 40a0 3C       		.uleb128 0x3c
 11618 40a1 E4010000 		.4byte	.LASF833
 11619 40a5 01       		.byte	0x1
 11620 40a6 6802     		.2byte	0x268
 11621 40a8 11170000 		.4byte	0x1711
 11622 40ac 29060000 		.4byte	.LLST24
 11623 40b0 45       		.uleb128 0x45
 11624 40b1 04020000 		.4byte	.LASF689
 11625 40b5 01       		.byte	0x1
 11626 40b6 6A02     		.2byte	0x26a
 11627 40b8 5B3C0000 		.4byte	0x3c5b
 11628 40bc 4A060000 		.4byte	.LLST25
 11629 40c0 45       		.uleb128 0x45
 11630 40c1 8D200000 		.4byte	.LASF834
 11631 40c5 01       		.byte	0x1
 11632 40c6 6B02     		.2byte	0x26b
 11633 40c8 D2000000 		.4byte	0xd2
 11634 40cc 68060000 		.4byte	.LLST26
 11635 40d0 3F       		.uleb128 0x3f
 11636 40d1 46000000 		.4byte	.LBB67
ARM GAS  /tmp/cchERvVK.s 			page 206


 11637 40d5 4E000000 		.4byte	.LBE67-.LBB67
 11638 40d9 83410000 		.4byte	0x4183
 11639 40dd 3E       		.uleb128 0x3e
 11640 40de 706300   		.ascii	"pc\000"
 11641 40e1 01       		.byte	0x1
 11642 40e2 7702     		.2byte	0x277
 11643 40e4 D2000000 		.4byte	0xd2
 11644 40e8 A1060000 		.4byte	.LLST27
 11645 40ec 50       		.uleb128 0x50
 11646 40ed D2480000 		.4byte	0x48d2
 11647 40f1 60000000 		.4byte	.LBB68
 11648 40f5 34000000 		.4byte	.LBE68-.LBB68
 11649 40f9 01       		.byte	0x1
 11650 40fa 7902     		.2byte	0x279
 11651 40fc 58410000 		.4byte	0x4158
 11652 4100 47       		.uleb128 0x47
 11653 4101 E9480000 		.4byte	0x48e9
 11654 4105 CA060000 		.4byte	.LLST28
 11655 4109 51       		.uleb128 0x51
 11656 410a DF480000 		.4byte	0x48df
 11657 410e 01       		.uleb128 0x1
 11658 410f 57       		.byte	0x57
 11659 4110 44       		.uleb128 0x44
 11660 4111 6A000000 		.4byte	.LVL119
 11661 4115 FD580000 		.4byte	0x58fd
 11662 4119 34410000 		.4byte	0x4134
 11663 411d 43       		.uleb128 0x43
 11664 411e 01       		.uleb128 0x1
 11665 411f 50       		.byte	0x50
 11666 4120 02       		.uleb128 0x2
 11667 4121 77       		.byte	0x77
 11668 4122 00       		.sleb128 0
 11669 4123 43       		.uleb128 0x43
 11670 4124 01       		.uleb128 0x1
 11671 4125 51       		.byte	0x51
 11672 4126 06       		.uleb128 0x6
 11673 4127 11       		.byte	0x11
 11674 4128 F8DB8380 		.sleb128 -536809992
 11674      7E
 11675 412d 43       		.uleb128 0x43
 11676 412e 01       		.uleb128 0x1
 11677 412f 52       		.byte	0x52
 11678 4130 02       		.uleb128 0x2
 11679 4131 75       		.byte	0x75
 11680 4132 02       		.sleb128 2
 11681 4133 00       		.byte	0
 11682 4134 42       		.uleb128 0x42
 11683 4135 74000000 		.4byte	.LVL120
 11684 4139 FD580000 		.4byte	0x58fd
 11685 413d 43       		.uleb128 0x43
 11686 413e 01       		.uleb128 0x1
 11687 413f 50       		.byte	0x50
 11688 4140 02       		.uleb128 0x2
 11689 4141 77       		.byte	0x77
 11690 4142 00       		.sleb128 0
 11691 4143 43       		.uleb128 0x43
 11692 4144 01       		.uleb128 0x1
ARM GAS  /tmp/cchERvVK.s 			page 207


 11693 4145 51       		.byte	0x51
 11694 4146 06       		.uleb128 0x6
 11695 4147 11       		.byte	0x11
 11696 4148 F4DB8380 		.sleb128 -536809996
 11696      7E
 11697 414d 43       		.uleb128 0x43
 11698 414e 01       		.uleb128 0x1
 11699 414f 52       		.byte	0x52
 11700 4150 05       		.uleb128 0x5
 11701 4151 0C       		.byte	0xc
 11702 4152 0F000100 		.4byte	0x1000f
 11703 4156 00       		.byte	0
 11704 4157 00       		.byte	0
 11705 4158 44       		.uleb128 0x44
 11706 4159 4C000000 		.4byte	.LVL113
 11707 415d F6480000 		.4byte	0x48f6
 11708 4161 6C410000 		.4byte	0x416c
 11709 4165 43       		.uleb128 0x43
 11710 4166 01       		.uleb128 0x1
 11711 4167 50       		.byte	0x50
 11712 4168 02       		.uleb128 0x2
 11713 4169 77       		.byte	0x77
 11714 416a 00       		.sleb128 0
 11715 416b 00       		.byte	0
 11716 416c 42       		.uleb128 0x42
 11717 416d 56000000 		.4byte	.LVL116
 11718 4171 2D590000 		.4byte	0x592d
 11719 4175 43       		.uleb128 0x43
 11720 4176 01       		.uleb128 0x1
 11721 4177 50       		.byte	0x50
 11722 4178 02       		.uleb128 0x2
 11723 4179 77       		.byte	0x77
 11724 417a 00       		.sleb128 0
 11725 417b 43       		.uleb128 0x43
 11726 417c 01       		.uleb128 0x1
 11727 417d 51       		.byte	0x51
 11728 417e 02       		.uleb128 0x2
 11729 417f 75       		.byte	0x75
 11730 4180 00       		.sleb128 0
 11731 4181 00       		.byte	0
 11732 4182 00       		.byte	0
 11733 4183 44       		.uleb128 0x44
 11734 4184 22000000 		.4byte	.LVL109
 11735 4188 FD580000 		.4byte	0x58fd
 11736 418c A9410000 		.4byte	0x41a9
 11737 4190 43       		.uleb128 0x43
 11738 4191 01       		.uleb128 0x1
 11739 4192 50       		.byte	0x50
 11740 4193 02       		.uleb128 0x2
 11741 4194 77       		.byte	0x77
 11742 4195 00       		.sleb128 0
 11743 4196 43       		.uleb128 0x43
 11744 4197 01       		.uleb128 0x1
 11745 4198 51       		.byte	0x51
 11746 4199 06       		.uleb128 0x6
 11747 419a 11       		.byte	0x11
 11748 419b F0DB8380 		.sleb128 -536810000
ARM GAS  /tmp/cchERvVK.s 			page 208


 11748      7E
 11749 41a0 43       		.uleb128 0x43
 11750 41a1 01       		.uleb128 0x1
 11751 41a2 52       		.byte	0x52
 11752 41a3 04       		.uleb128 0x4
 11753 41a4 74       		.byte	0x74
 11754 41a5 00       		.sleb128 0
 11755 41a6 32       		.byte	0x32
 11756 41a7 21       		.byte	0x21
 11757 41a8 00       		.byte	0
 11758 41a9 44       		.uleb128 0x44
 11759 41aa 38000000 		.4byte	.LVL110
 11760 41ae FD580000 		.4byte	0x58fd
 11761 41b2 CC410000 		.4byte	0x41cc
 11762 41b6 43       		.uleb128 0x43
 11763 41b7 01       		.uleb128 0x1
 11764 41b8 50       		.byte	0x50
 11765 41b9 02       		.uleb128 0x2
 11766 41ba 77       		.byte	0x77
 11767 41bb 00       		.sleb128 0
 11768 41bc 43       		.uleb128 0x43
 11769 41bd 01       		.uleb128 0x1
 11770 41be 51       		.byte	0x51
 11771 41bf 06       		.uleb128 0x6
 11772 41c0 11       		.byte	0x11
 11773 41c1 D0DE8380 		.sleb128 -536809648
 11773      7E
 11774 41c6 43       		.uleb128 0x43
 11775 41c7 01       		.uleb128 0x1
 11776 41c8 52       		.byte	0x52
 11777 41c9 01       		.uleb128 0x1
 11778 41ca 30       		.byte	0x30
 11779 41cb 00       		.byte	0
 11780 41cc 52       		.uleb128 0x52
 11781 41cd 46000000 		.4byte	.LVL112
 11782 41d1 FD580000 		.4byte	0x58fd
 11783 41d5 43       		.uleb128 0x43
 11784 41d6 01       		.uleb128 0x1
 11785 41d7 50       		.byte	0x50
 11786 41d8 03       		.uleb128 0x3
 11787 41d9 F3       		.byte	0xf3
 11788 41da 01       		.uleb128 0x1
 11789 41db 50       		.byte	0x50
 11790 41dc 43       		.uleb128 0x43
 11791 41dd 01       		.uleb128 0x1
 11792 41de 51       		.byte	0x51
 11793 41df 06       		.uleb128 0x6
 11794 41e0 11       		.byte	0x11
 11795 41e1 F0DB8380 		.sleb128 -536810000
 11795      7E
 11796 41e6 00       		.byte	0
 11797 41e7 00       		.byte	0
 11798 41e8 3A       		.uleb128 0x3a
 11799 41e9 41230000 		.4byte	.LASF835
 11800 41ed 01       		.byte	0x1
 11801 41ee 2902     		.2byte	0x229
 11802 41f0 BC310000 		.4byte	0x31bc
ARM GAS  /tmp/cchERvVK.s 			page 209


 11803 41f4 00000000 		.4byte	.LFB280
 11804 41f8 10040000 		.4byte	.LFE280-.LFB280
 11805 41fc 01       		.uleb128 0x1
 11806 41fd 9C       		.byte	0x9c
 11807 41fe 60470000 		.4byte	0x4760
 11808 4202 3B       		.uleb128 0x3b
 11809 4203 7400     		.ascii	"t\000"
 11810 4205 01       		.byte	0x1
 11811 4206 2902     		.2byte	0x229
 11812 4208 EB330000 		.4byte	0x33eb
 11813 420c F7060000 		.4byte	.LLST29
 11814 4210 3C       		.uleb128 0x3c
 11815 4211 59080000 		.4byte	.LASF836
 11816 4215 01       		.byte	0x1
 11817 4216 2902     		.2byte	0x229
 11818 4218 4B380000 		.4byte	0x384b
 11819 421c 8C070000 		.4byte	.LLST30
 11820 4220 45       		.uleb128 0x45
 11821 4221 04020000 		.4byte	.LASF689
 11822 4225 01       		.byte	0x1
 11823 4226 2B02     		.2byte	0x22b
 11824 4228 5B3C0000 		.4byte	0x3c5b
 11825 422c 16080000 		.4byte	.LLST31
 11826 4230 3D       		.uleb128 0x3d
 11827 4231 8D200000 		.4byte	.LASF834
 11828 4235 01       		.byte	0x1
 11829 4236 2D02     		.2byte	0x22d
 11830 4238 DD000000 		.4byte	0xdd
 11831 423c 03       		.uleb128 0x3
 11832 423d 91       		.byte	0x91
 11833 423e A47E     		.sleb128 -220
 11834 4240 40       		.uleb128 0x40
 11835 4241 6500     		.ascii	"e\000"
 11836 4243 01       		.byte	0x1
 11837 4244 2E02     		.2byte	0x22e
 11838 4246 C42D0000 		.4byte	0x2dc4
 11839 424a 03       		.uleb128 0x3
 11840 424b 91       		.byte	0x91
 11841 424c F47E     		.sleb128 -140
 11842 424e 45       		.uleb128 0x45
 11843 424f C60A0000 		.4byte	.LASF837
 11844 4253 01       		.byte	0x1
 11845 4254 4202     		.2byte	0x242
 11846 4256 D2000000 		.4byte	0xd2
 11847 425a 68080000 		.4byte	.LLST32
 11848 425e 53       		.uleb128 0x53
 11849 425f 88000000 		.4byte	.Ldebug_ranges0+0x88
 11850 4263 DA440000 		.4byte	0x44da
 11851 4267 3E       		.uleb128 0x3e
 11852 4268 706300   		.ascii	"pc\000"
 11853 426b 01       		.byte	0x1
 11854 426c 4D02     		.2byte	0x24d
 11855 426e D2000000 		.4byte	0xd2
 11856 4272 BD080000 		.4byte	.LLST46
 11857 4276 45       		.uleb128 0x45
 11858 4277 47040000 		.4byte	.LASF824
 11859 427b 01       		.byte	0x1
ARM GAS  /tmp/cchERvVK.s 			page 210


 11860 427c 4E02     		.2byte	0x24e
 11861 427e B7000000 		.4byte	0xb7
 11862 4282 DB080000 		.4byte	.LLST47
 11863 4286 46       		.uleb128 0x46
 11864 4287 8C3A0000 		.4byte	0x3a8c
 11865 428b 2A020000 		.4byte	.LBB93
 11866 428f A8000000 		.4byte	.Ldebug_ranges0+0xa8
 11867 4293 01       		.byte	0x1
 11868 4294 5102     		.2byte	0x251
 11869 4296 A1440000 		.4byte	0x44a1
 11870 429a 47       		.uleb128 0x47
 11871 429b 9D3A0000 		.4byte	0x3a9d
 11872 429f F9080000 		.4byte	.LLST48
 11873 42a3 48       		.uleb128 0x48
 11874 42a4 A8000000 		.4byte	.Ldebug_ranges0+0xa8
 11875 42a8 54       		.uleb128 0x54
 11876 42a9 A73A0000 		.4byte	0x3aa7
 11877 42ad FB570000 		.4byte	0x57fb
 11878 42b1 0E090000 		.4byte	.LLST50
 11879 42b5 55       		.uleb128 0x55
 11880 42b6 B33A0000 		.4byte	0x3ab3
 11881 42ba 03       		.uleb128 0x3
 11882 42bb 91       		.byte	0x91
 11883 42bc AC7E     		.sleb128 -212
 11884 42be 49       		.uleb128 0x49
 11885 42bf BF3A0000 		.4byte	0x3abf
 11886 42c3 3A090000 		.4byte	.LLST51
 11887 42c7 49       		.uleb128 0x49
 11888 42c8 CB3A0000 		.4byte	0x3acb
 11889 42cc 7F090000 		.4byte	.LLST52
 11890 42d0 56       		.uleb128 0x56
 11891 42d1 D73A0000 		.4byte	0x3ad7
 11892 42d5 C8000000 		.4byte	.Ldebug_ranges0+0xc8
 11893 42d9 59430000 		.4byte	0x4359
 11894 42dd 55       		.uleb128 0x55
 11895 42de D83A0000 		.4byte	0x3ad8
 11896 42e2 03       		.uleb128 0x3
 11897 42e3 91       		.byte	0x91
 11898 42e4 BC7E     		.sleb128 -196
 11899 42e6 49       		.uleb128 0x49
 11900 42e7 E43A0000 		.4byte	0x3ae4
 11901 42eb 340A0000 		.4byte	.LLST53
 11902 42ef 55       		.uleb128 0x55
 11903 42f0 F03A0000 		.4byte	0x3af0
 11904 42f4 03       		.uleb128 0x3
 11905 42f5 91       		.byte	0x91
 11906 42f6 A87E     		.sleb128 -216
 11907 42f8 44       		.uleb128 0x44
 11908 42f9 BE030000 		.4byte	.LVL209
 11909 42fd 43590000 		.4byte	0x5943
 11910 4301 1A430000 		.4byte	0x431a
 11911 4305 43       		.uleb128 0x43
 11912 4306 01       		.uleb128 0x1
 11913 4307 50       		.byte	0x50
 11914 4308 04       		.uleb128 0x4
 11915 4309 91       		.byte	0x91
 11916 430a C47E     		.sleb128 -188
ARM GAS  /tmp/cchERvVK.s 			page 211


 11917 430c 06       		.byte	0x6
 11918 430d 43       		.uleb128 0x43
 11919 430e 01       		.uleb128 0x1
 11920 430f 51       		.byte	0x51
 11921 4310 03       		.uleb128 0x3
 11922 4311 91       		.byte	0x91
 11923 4312 D07E     		.sleb128 -176
 11924 4314 43       		.uleb128 0x43
 11925 4315 01       		.uleb128 0x1
 11926 4316 53       		.byte	0x53
 11927 4317 01       		.uleb128 0x1
 11928 4318 34       		.byte	0x34
 11929 4319 00       		.byte	0
 11930 431a 44       		.uleb128 0x44
 11931 431b C8030000 		.4byte	.LVL210
 11932 431f F2580000 		.4byte	0x58f2
 11933 4323 38430000 		.4byte	0x4338
 11934 4327 43       		.uleb128 0x43
 11935 4328 01       		.uleb128 0x1
 11936 4329 50       		.byte	0x50
 11937 432a 03       		.uleb128 0x3
 11938 432b 91       		.byte	0x91
 11939 432c D07E     		.sleb128 -176
 11940 432e 43       		.uleb128 0x43
 11941 432f 01       		.uleb128 0x1
 11942 4330 51       		.byte	0x51
 11943 4331 05       		.uleb128 0x5
 11944 4332 03       		.byte	0x3
 11945 4333 24000000 		.4byte	.LC17
 11946 4337 00       		.byte	0
 11947 4338 42       		.uleb128 0x42
 11948 4339 00040000 		.4byte	.LVL219
 11949 433d 4E590000 		.4byte	0x594e
 11950 4341 43       		.uleb128 0x43
 11951 4342 01       		.uleb128 0x1
 11952 4343 50       		.byte	0x50
 11953 4344 04       		.uleb128 0x4
 11954 4345 91       		.byte	0x91
 11955 4346 C47E     		.sleb128 -188
 11956 4348 06       		.byte	0x6
 11957 4349 43       		.uleb128 0x43
 11958 434a 01       		.uleb128 0x1
 11959 434b 53       		.byte	0x53
 11960 434c 02       		.uleb128 0x2
 11961 434d 74       		.byte	0x74
 11962 434e 00       		.sleb128 0
 11963 434f 43       		.uleb128 0x43
 11964 4350 02       		.uleb128 0x2
 11965 4351 7D       		.byte	0x7d
 11966 4352 00       		.sleb128 0
 11967 4353 03       		.uleb128 0x3
 11968 4354 0A       		.byte	0xa
 11969 4355 A401     		.2byte	0x1a4
 11970 4357 00       		.byte	0
 11971 4358 00       		.byte	0
 11972 4359 44       		.uleb128 0x44
 11973 435a 4E020000 		.4byte	.LVL182
ARM GAS  /tmp/cchERvVK.s 			page 212


 11974 435e 59590000 		.4byte	0x5959
 11975 4362 75430000 		.4byte	0x4375
 11976 4366 43       		.uleb128 0x43
 11977 4367 01       		.uleb128 0x1
 11978 4368 50       		.byte	0x50
 11979 4369 04       		.uleb128 0x4
 11980 436a 91       		.byte	0x91
 11981 436b C47E     		.sleb128 -188
 11982 436d 06       		.byte	0x6
 11983 436e 43       		.uleb128 0x43
 11984 436f 01       		.uleb128 0x1
 11985 4370 51       		.byte	0x51
 11986 4371 02       		.uleb128 0x2
 11987 4372 75       		.byte	0x75
 11988 4373 00       		.sleb128 0
 11989 4374 00       		.byte	0
 11990 4375 44       		.uleb128 0x44
 11991 4376 5C020000 		.4byte	.LVL183
 11992 437a 43590000 		.4byte	0x5943
 11993 437e 97430000 		.4byte	0x4397
 11994 4382 43       		.uleb128 0x43
 11995 4383 01       		.uleb128 0x1
 11996 4384 50       		.byte	0x50
 11997 4385 04       		.uleb128 0x4
 11998 4386 91       		.byte	0x91
 11999 4387 C47E     		.sleb128 -188
 12000 4389 06       		.byte	0x6
 12001 438a 43       		.uleb128 0x43
 12002 438b 01       		.uleb128 0x1
 12003 438c 51       		.byte	0x51
 12004 438d 03       		.uleb128 0x3
 12005 438e 91       		.byte	0x91
 12006 438f D47E     		.sleb128 -172
 12007 4391 43       		.uleb128 0x43
 12008 4392 01       		.uleb128 0x1
 12009 4393 53       		.byte	0x53
 12010 4394 01       		.uleb128 0x1
 12011 4395 40       		.byte	0x40
 12012 4396 00       		.byte	0
 12013 4397 44       		.uleb128 0x44
 12014 4398 74020000 		.4byte	.LVL187
 12015 439c 64590000 		.4byte	0x5964
 12016 43a0 B4430000 		.4byte	0x43b4
 12017 43a4 43       		.uleb128 0x43
 12018 43a5 01       		.uleb128 0x1
 12019 43a6 50       		.byte	0x50
 12020 43a7 05       		.uleb128 0x5
 12021 43a8 03       		.byte	0x3
 12022 43a9 00000000 		.4byte	.LC16
 12023 43ad 43       		.uleb128 0x43
 12024 43ae 01       		.uleb128 0x1
 12025 43af 51       		.byte	0x51
 12026 43b0 02       		.uleb128 0x2
 12027 43b1 74       		.byte	0x74
 12028 43b2 01       		.sleb128 1
 12029 43b3 00       		.byte	0
 12030 43b4 44       		.uleb128 0x44
ARM GAS  /tmp/cchERvVK.s 			page 213


 12031 43b5 A0020000 		.4byte	.LVL188
 12032 43b9 6F590000 		.4byte	0x596f
 12033 43bd CA430000 		.4byte	0x43ca
 12034 43c1 43       		.uleb128 0x43
 12035 43c2 01       		.uleb128 0x1
 12036 43c3 50       		.byte	0x50
 12037 43c4 04       		.uleb128 0x4
 12038 43c5 91       		.byte	0x91
 12039 43c6 C47E     		.sleb128 -188
 12040 43c8 06       		.byte	0x6
 12041 43c9 00       		.byte	0
 12042 43ca 44       		.uleb128 0x44
 12043 43cb AC020000 		.4byte	.LVL190
 12044 43cf 7A590000 		.4byte	0x597a
 12045 43d3 E4430000 		.4byte	0x43e4
 12046 43d7 43       		.uleb128 0x43
 12047 43d8 01       		.uleb128 0x1
 12048 43d9 50       		.byte	0x50
 12049 43da 02       		.uleb128 0x2
 12050 43db 74       		.byte	0x74
 12051 43dc 00       		.sleb128 0
 12052 43dd 43       		.uleb128 0x43
 12053 43de 01       		.uleb128 0x1
 12054 43df 51       		.byte	0x51
 12055 43e0 02       		.uleb128 0x2
 12056 43e1 75       		.byte	0x75
 12057 43e2 00       		.sleb128 0
 12058 43e3 00       		.byte	0
 12059 43e4 44       		.uleb128 0x44
 12060 43e5 08030000 		.4byte	.LVL196
 12061 43e9 85590000 		.4byte	0x5985
 12062 43ed FA430000 		.4byte	0x43fa
 12063 43f1 43       		.uleb128 0x43
 12064 43f2 01       		.uleb128 0x1
 12065 43f3 50       		.byte	0x50
 12066 43f4 04       		.uleb128 0x4
 12067 43f5 91       		.byte	0x91
 12068 43f6 C47E     		.sleb128 -188
 12069 43f8 06       		.byte	0x6
 12070 43f9 00       		.byte	0
 12071 43fa 44       		.uleb128 0x44
 12072 43fb 18030000 		.4byte	.LVL197
 12073 43ff 90590000 		.4byte	0x5990
 12074 4403 10440000 		.4byte	0x4410
 12075 4407 43       		.uleb128 0x43
 12076 4408 01       		.uleb128 0x1
 12077 4409 50       		.byte	0x50
 12078 440a 04       		.uleb128 0x4
 12079 440b 91       		.byte	0x91
 12080 440c C47E     		.sleb128 -188
 12081 440e 06       		.byte	0x6
 12082 440f 00       		.byte	0
 12083 4410 44       		.uleb128 0x44
 12084 4411 34030000 		.4byte	.LVL198
 12085 4415 9B590000 		.4byte	0x599b
 12086 4419 2B440000 		.4byte	0x442b
 12087 441d 43       		.uleb128 0x43
ARM GAS  /tmp/cchERvVK.s 			page 214


 12088 441e 01       		.uleb128 0x1
 12089 441f 50       		.byte	0x50
 12090 4420 04       		.uleb128 0x4
 12091 4421 91       		.byte	0x91
 12092 4422 C47E     		.sleb128 -188
 12093 4424 06       		.byte	0x6
 12094 4425 43       		.uleb128 0x43
 12095 4426 01       		.uleb128 0x1
 12096 4427 53       		.byte	0x53
 12097 4428 01       		.uleb128 0x1
 12098 4429 30       		.byte	0x30
 12099 442a 00       		.byte	0
 12100 442b 44       		.uleb128 0x44
 12101 442c 40030000 		.4byte	.LVL199
 12102 4430 A6590000 		.4byte	0x59a6
 12103 4434 41440000 		.4byte	0x4441
 12104 4438 43       		.uleb128 0x43
 12105 4439 01       		.uleb128 0x1
 12106 443a 50       		.byte	0x50
 12107 443b 04       		.uleb128 0x4
 12108 443c 91       		.byte	0x91
 12109 443d C47E     		.sleb128 -188
 12110 443f 06       		.byte	0x6
 12111 4440 00       		.byte	0
 12112 4441 44       		.uleb128 0x44
 12113 4442 50030000 		.4byte	.LVL200
 12114 4446 B1590000 		.4byte	0x59b1
 12115 444a 57440000 		.4byte	0x4457
 12116 444e 43       		.uleb128 0x43
 12117 444f 01       		.uleb128 0x1
 12118 4450 50       		.byte	0x50
 12119 4451 04       		.uleb128 0x4
 12120 4452 91       		.byte	0x91
 12121 4453 C47E     		.sleb128 -188
 12122 4455 06       		.byte	0x6
 12123 4456 00       		.byte	0
 12124 4457 44       		.uleb128 0x44
 12125 4458 68030000 		.4byte	.LVL203
 12126 445c BC590000 		.4byte	0x59bc
 12127 4460 6D440000 		.4byte	0x446d
 12128 4464 43       		.uleb128 0x43
 12129 4465 01       		.uleb128 0x1
 12130 4466 50       		.byte	0x50
 12131 4467 04       		.uleb128 0x4
 12132 4468 91       		.byte	0x91
 12133 4469 C47E     		.sleb128 -188
 12134 446b 06       		.byte	0x6
 12135 446c 00       		.byte	0
 12136 446d 44       		.uleb128 0x44
 12137 446e 7A030000 		.4byte	.LVL205
 12138 4472 BC590000 		.4byte	0x59bc
 12139 4476 8D440000 		.4byte	0x448d
 12140 447a 43       		.uleb128 0x43
 12141 447b 01       		.uleb128 0x1
 12142 447c 50       		.byte	0x50
 12143 447d 04       		.uleb128 0x4
 12144 447e 91       		.byte	0x91
ARM GAS  /tmp/cchERvVK.s 			page 215


 12145 447f C47E     		.sleb128 -188
 12146 4481 06       		.byte	0x6
 12147 4482 43       		.uleb128 0x43
 12148 4483 01       		.uleb128 0x1
 12149 4484 51       		.byte	0x51
 12150 4485 01       		.uleb128 0x1
 12151 4486 32       		.byte	0x32
 12152 4487 43       		.uleb128 0x43
 12153 4488 01       		.uleb128 0x1
 12154 4489 53       		.byte	0x53
 12155 448a 01       		.uleb128 0x1
 12156 448b 31       		.byte	0x31
 12157 448c 00       		.byte	0
 12158 448d 42       		.uleb128 0x42
 12159 448e 86030000 		.4byte	.LVL206
 12160 4492 C7590000 		.4byte	0x59c7
 12161 4496 43       		.uleb128 0x43
 12162 4497 01       		.uleb128 0x1
 12163 4498 50       		.byte	0x50
 12164 4499 04       		.uleb128 0x4
 12165 449a 91       		.byte	0x91
 12166 449b C47E     		.sleb128 -188
 12167 449d 06       		.byte	0x6
 12168 449e 00       		.byte	0
 12169 449f 00       		.byte	0
 12170 44a0 00       		.byte	0
 12171 44a1 44       		.uleb128 0x44
 12172 44a2 04020000 		.4byte	.LVL169
 12173 44a6 F6480000 		.4byte	0x48f6
 12174 44aa B5440000 		.4byte	0x44b5
 12175 44ae 43       		.uleb128 0x43
 12176 44af 01       		.uleb128 0x1
 12177 44b0 50       		.byte	0x50
 12178 44b1 02       		.uleb128 0x2
 12179 44b2 75       		.byte	0x75
 12180 44b3 00       		.sleb128 0
 12181 44b4 00       		.byte	0
 12182 44b5 44       		.uleb128 0x44
 12183 44b6 0C020000 		.4byte	.LVL171
 12184 44ba 2D590000 		.4byte	0x592d
 12185 44be C9440000 		.4byte	0x44c9
 12186 44c2 43       		.uleb128 0x43
 12187 44c3 01       		.uleb128 0x1
 12188 44c4 50       		.byte	0x50
 12189 44c5 02       		.uleb128 0x2
 12190 44c6 75       		.byte	0x75
 12191 44c7 00       		.sleb128 0
 12192 44c8 00       		.byte	0
 12193 44c9 42       		.uleb128 0x42
 12194 44ca C2020000 		.4byte	.LVL192
 12195 44ce D2590000 		.4byte	0x59d2
 12196 44d2 43       		.uleb128 0x43
 12197 44d3 01       		.uleb128 0x1
 12198 44d4 50       		.byte	0x50
 12199 44d5 02       		.uleb128 0x2
 12200 44d6 74       		.byte	0x74
 12201 44d7 00       		.sleb128 0
ARM GAS  /tmp/cchERvVK.s 			page 216


 12202 44d8 00       		.byte	0
 12203 44d9 00       		.byte	0
 12204 44da 46       		.uleb128 0x46
 12205 44db 713C0000 		.4byte	0x3c71
 12206 44df AE000000 		.4byte	.LBB79
 12207 44e3 20000000 		.4byte	.Ldebug_ranges0+0x20
 12208 44e7 01       		.byte	0x1
 12209 44e8 5C02     		.2byte	0x25c
 12210 44ea 4D450000 		.4byte	0x454d
 12211 44ee 47       		.uleb128 0x47
 12212 44ef 823C0000 		.4byte	0x3c82
 12213 44f3 5D0A0000 		.4byte	.LLST33
 12214 44f7 48       		.uleb128 0x48
 12215 44f8 20000000 		.4byte	.Ldebug_ranges0+0x20
 12216 44fc 49       		.uleb128 0x49
 12217 44fd 8C3C0000 		.4byte	0x3c8c
 12218 4501 7E0A0000 		.4byte	.LLST34
 12219 4505 49       		.uleb128 0x49
 12220 4506 983C0000 		.4byte	0x3c98
 12221 450a 9C0A0000 		.4byte	.LLST35
 12222 450e 44       		.uleb128 0x44
 12223 450f DE000000 		.4byte	.LVL138
 12224 4513 DD590000 		.4byte	0x59dd
 12225 4517 2E450000 		.4byte	0x452e
 12226 451b 43       		.uleb128 0x43
 12227 451c 01       		.uleb128 0x1
 12228 451d 50       		.byte	0x50
 12229 451e 03       		.uleb128 0x3
 12230 451f 7D       		.byte	0x7d
 12231 4520 3C       		.sleb128 60
 12232 4521 06       		.byte	0x6
 12233 4522 43       		.uleb128 0x43
 12234 4523 01       		.uleb128 0x1
 12235 4524 51       		.byte	0x51
 12236 4525 07       		.uleb128 0x7
 12237 4526 74       		.byte	0x74
 12238 4527 00       		.sleb128 0
 12239 4528 34       		.byte	0x34
 12240 4529 24       		.byte	0x24
 12241 452a 78       		.byte	0x78
 12242 452b 00       		.sleb128 0
 12243 452c 22       		.byte	0x22
 12244 452d 00       		.byte	0
 12245 452e 42       		.uleb128 0x42
 12246 452f FA000000 		.4byte	.LVL139
 12247 4533 DD590000 		.4byte	0x59dd
 12248 4537 43       		.uleb128 0x43
 12249 4538 01       		.uleb128 0x1
 12250 4539 50       		.byte	0x50
 12251 453a 03       		.uleb128 0x3
 12252 453b 7D       		.byte	0x7d
 12253 453c 3C       		.sleb128 60
 12254 453d 06       		.byte	0x6
 12255 453e 43       		.uleb128 0x43
 12256 453f 01       		.uleb128 0x1
 12257 4540 51       		.byte	0x51
 12258 4541 08       		.uleb128 0x8
ARM GAS  /tmp/cchERvVK.s 			page 217


 12259 4542 74       		.byte	0x74
 12260 4543 828280F0 		.sleb128 234881282
 12260      00
 12261 4548 34       		.byte	0x34
 12262 4549 24       		.byte	0x24
 12263 454a 00       		.byte	0
 12264 454b 00       		.byte	0
 12265 454c 00       		.byte	0
 12266 454d 46       		.uleb128 0x46
 12267 454e E43F0000 		.4byte	0x3fe4
 12268 4552 28010000 		.4byte	.LBB82
 12269 4556 38000000 		.4byte	.Ldebug_ranges0+0x38
 12270 455a 01       		.byte	0x1
 12271 455b 4502     		.2byte	0x245
 12272 455d DA460000 		.4byte	0x46da
 12273 4561 47       		.uleb128 0x47
 12274 4562 F53F0000 		.4byte	0x3ff5
 12275 4566 BB0A0000 		.4byte	.LLST36
 12276 456a 48       		.uleb128 0x48
 12277 456b 38000000 		.4byte	.Ldebug_ranges0+0x38
 12278 456f 49       		.uleb128 0x49
 12279 4570 FF3F0000 		.4byte	0x3fff
 12280 4574 EA0A0000 		.4byte	.LLST37
 12281 4578 49       		.uleb128 0x49
 12282 4579 0B400000 		.4byte	0x400b
 12283 457d 080B0000 		.4byte	.LLST38
 12284 4581 56       		.uleb128 0x56
 12285 4582 17400000 		.4byte	0x4017
 12286 4586 60000000 		.4byte	.Ldebug_ranges0+0x60
 12287 458a 60460000 		.4byte	0x4660
 12288 458e 54       		.uleb128 0x54
 12289 458f 18400000 		.4byte	0x4018
 12290 4593 E8570000 		.4byte	0x57e8
 12291 4597 260B0000 		.4byte	.LLST40
 12292 459b 55       		.uleb128 0x55
 12293 459c 24400000 		.4byte	0x4024
 12294 45a0 03       		.uleb128 0x3
 12295 45a1 91       		.byte	0x91
 12296 45a2 D47E     		.sleb128 -172
 12297 45a4 49       		.uleb128 0x49
 12298 45a5 30400000 		.4byte	0x4030
 12299 45a9 520B0000 		.4byte	.LLST41
 12300 45ad 49       		.uleb128 0x49
 12301 45ae 3C400000 		.4byte	0x403c
 12302 45b2 700B0000 		.4byte	.LLST42
 12303 45b6 49       		.uleb128 0x49
 12304 45b7 48400000 		.4byte	0x4048
 12305 45bb 8E0B0000 		.4byte	.LLST43
 12306 45bf 49       		.uleb128 0x49
 12307 45c0 54400000 		.4byte	0x4054
 12308 45c4 B80B0000 		.4byte	.LLST44
 12309 45c8 49       		.uleb128 0x49
 12310 45c9 60400000 		.4byte	0x4060
 12311 45cd 000C0000 		.4byte	.LLST45
 12312 45d1 44       		.uleb128 0x44
 12313 45d2 80010000 		.4byte	.LVL154
 12314 45d6 59590000 		.4byte	0x5959
ARM GAS  /tmp/cchERvVK.s 			page 218


 12315 45da ED450000 		.4byte	0x45ed
 12316 45de 43       		.uleb128 0x43
 12317 45df 01       		.uleb128 0x1
 12318 45e0 50       		.byte	0x50
 12319 45e1 04       		.uleb128 0x4
 12320 45e2 91       		.byte	0x91
 12321 45e3 C47E     		.sleb128 -188
 12322 45e5 06       		.byte	0x6
 12323 45e6 43       		.uleb128 0x43
 12324 45e7 01       		.uleb128 0x1
 12325 45e8 51       		.byte	0x51
 12326 45e9 02       		.uleb128 0x2
 12327 45ea 75       		.byte	0x75
 12328 45eb 00       		.sleb128 0
 12329 45ec 00       		.byte	0
 12330 45ed 44       		.uleb128 0x44
 12331 45ee 9C010000 		.4byte	.LVL158
 12332 45f2 43590000 		.4byte	0x5943
 12333 45f6 0E460000 		.4byte	0x460e
 12334 45fa 43       		.uleb128 0x43
 12335 45fb 01       		.uleb128 0x1
 12336 45fc 50       		.byte	0x50
 12337 45fd 02       		.uleb128 0x2
 12338 45fe 7A       		.byte	0x7a
 12339 45ff 00       		.sleb128 0
 12340 4600 43       		.uleb128 0x43
 12341 4601 01       		.uleb128 0x1
 12342 4602 51       		.byte	0x51
 12343 4603 03       		.uleb128 0x3
 12344 4604 91       		.byte	0x91
 12345 4605 FC7E     		.sleb128 -132
 12346 4607 43       		.uleb128 0x43
 12347 4608 01       		.uleb128 0x1
 12348 4609 53       		.byte	0x53
 12349 460a 02       		.uleb128 0x2
 12350 460b 08       		.byte	0x8
 12351 460c 20       		.byte	0x20
 12352 460d 00       		.byte	0
 12353 460e 44       		.uleb128 0x44
 12354 460f A2010000 		.4byte	.LVL159
 12355 4613 22590000 		.4byte	0x5922
 12356 4617 22460000 		.4byte	0x4622
 12357 461b 43       		.uleb128 0x43
 12358 461c 01       		.uleb128 0x1
 12359 461d 50       		.byte	0x50
 12360 461e 02       		.uleb128 0x2
 12361 461f 7A       		.byte	0x7a
 12362 4620 00       		.sleb128 0
 12363 4621 00       		.byte	0
 12364 4622 44       		.uleb128 0x44
 12365 4623 EE010000 		.4byte	.LVL165
 12366 4627 FD580000 		.4byte	0x58fd
 12367 462b 49460000 		.4byte	0x4649
 12368 462f 43       		.uleb128 0x43
 12369 4630 01       		.uleb128 0x1
 12370 4631 50       		.byte	0x50
 12371 4632 02       		.uleb128 0x2
ARM GAS  /tmp/cchERvVK.s 			page 219


 12372 4633 74       		.byte	0x74
 12373 4634 00       		.sleb128 0
 12374 4635 43       		.uleb128 0x43
 12375 4636 01       		.uleb128 0x1
 12376 4637 51       		.byte	0x51
 12377 4638 06       		.uleb128 0x6
 12378 4639 11       		.byte	0x11
 12379 463a 8CDA8380 		.sleb128 -536810228
 12379      7E
 12380 463f 43       		.uleb128 0x43
 12381 4640 01       		.uleb128 0x1
 12382 4641 52       		.byte	0x52
 12383 4642 05       		.uleb128 0x5
 12384 4643 0C       		.byte	0xc
 12385 4644 0200FA05 		.4byte	0x5fa0002
 12386 4648 00       		.byte	0
 12387 4649 42       		.uleb128 0x42
 12388 464a F6010000 		.4byte	.LVL166
 12389 464e 7A590000 		.4byte	0x597a
 12390 4652 43       		.uleb128 0x43
 12391 4653 01       		.uleb128 0x1
 12392 4654 50       		.byte	0x50
 12393 4655 02       		.uleb128 0x2
 12394 4656 74       		.byte	0x74
 12395 4657 00       		.sleb128 0
 12396 4658 43       		.uleb128 0x43
 12397 4659 01       		.uleb128 0x1
 12398 465a 51       		.byte	0x51
 12399 465b 02       		.uleb128 0x2
 12400 465c 75       		.byte	0x75
 12401 465d 00       		.sleb128 0
 12402 465e 00       		.byte	0
 12403 465f 00       		.byte	0
 12404 4660 44       		.uleb128 0x44
 12405 4661 3A010000 		.4byte	.LVL144
 12406 4665 DD590000 		.4byte	0x59dd
 12407 4669 7C460000 		.4byte	0x467c
 12408 466d 43       		.uleb128 0x43
 12409 466e 01       		.uleb128 0x1
 12410 466f 50       		.byte	0x50
 12411 4670 04       		.uleb128 0x4
 12412 4671 91       		.byte	0x91
 12413 4672 C47E     		.sleb128 -188
 12414 4674 06       		.byte	0x6
 12415 4675 43       		.uleb128 0x43
 12416 4676 01       		.uleb128 0x1
 12417 4677 51       		.byte	0x51
 12418 4678 02       		.uleb128 0x2
 12419 4679 78       		.byte	0x78
 12420 467a 00       		.sleb128 0
 12421 467b 00       		.byte	0
 12422 467c 44       		.uleb128 0x44
 12423 467d 44010000 		.4byte	.LVL147
 12424 4681 DD590000 		.4byte	0x59dd
 12425 4685 98460000 		.4byte	0x4698
 12426 4689 43       		.uleb128 0x43
 12427 468a 01       		.uleb128 0x1
ARM GAS  /tmp/cchERvVK.s 			page 220


 12428 468b 50       		.byte	0x50
 12429 468c 04       		.uleb128 0x4
 12430 468d 91       		.byte	0x91
 12431 468e C47E     		.sleb128 -188
 12432 4690 06       		.byte	0x6
 12433 4691 43       		.uleb128 0x43
 12434 4692 01       		.uleb128 0x1
 12435 4693 51       		.byte	0x51
 12436 4694 02       		.uleb128 0x2
 12437 4695 76       		.byte	0x76
 12438 4696 00       		.sleb128 0
 12439 4697 00       		.byte	0
 12440 4698 44       		.uleb128 0x44
 12441 4699 50010000 		.4byte	.LVL150
 12442 469d FD580000 		.4byte	0x58fd
 12443 46a1 BA460000 		.4byte	0x46ba
 12444 46a5 43       		.uleb128 0x43
 12445 46a6 01       		.uleb128 0x1
 12446 46a7 50       		.byte	0x50
 12447 46a8 04       		.uleb128 0x4
 12448 46a9 91       		.byte	0x91
 12449 46aa C47E     		.sleb128 -188
 12450 46ac 06       		.byte	0x6
 12451 46ad 43       		.uleb128 0x43
 12452 46ae 01       		.uleb128 0x1
 12453 46af 51       		.byte	0x51
 12454 46b0 02       		.uleb128 0x2
 12455 46b1 78       		.byte	0x78
 12456 46b2 00       		.sleb128 0
 12457 46b3 43       		.uleb128 0x43
 12458 46b4 01       		.uleb128 0x1
 12459 46b5 52       		.byte	0x52
 12460 46b6 02       		.uleb128 0x2
 12461 46b7 75       		.byte	0x75
 12462 46b8 00       		.sleb128 0
 12463 46b9 00       		.byte	0
 12464 46ba 42       		.uleb128 0x42
 12465 46bb 5A010000 		.4byte	.LVL151
 12466 46bf FD580000 		.4byte	0x58fd
 12467 46c3 43       		.uleb128 0x43
 12468 46c4 01       		.uleb128 0x1
 12469 46c5 50       		.byte	0x50
 12470 46c6 04       		.uleb128 0x4
 12471 46c7 91       		.byte	0x91
 12472 46c8 C47E     		.sleb128 -188
 12473 46ca 06       		.byte	0x6
 12474 46cb 43       		.uleb128 0x43
 12475 46cc 01       		.uleb128 0x1
 12476 46cd 51       		.byte	0x51
 12477 46ce 02       		.uleb128 0x2
 12478 46cf 76       		.byte	0x76
 12479 46d0 00       		.sleb128 0
 12480 46d1 43       		.uleb128 0x43
 12481 46d2 01       		.uleb128 0x1
 12482 46d3 52       		.byte	0x52
 12483 46d4 02       		.uleb128 0x2
 12484 46d5 79       		.byte	0x79
ARM GAS  /tmp/cchERvVK.s 			page 221


 12485 46d6 00       		.sleb128 0
 12486 46d7 00       		.byte	0
 12487 46d8 00       		.byte	0
 12488 46d9 00       		.byte	0
 12489 46da 57       		.uleb128 0x57
 12490 46db A2000000 		.4byte	0xa2
 12491 46df 130C0000 		.4byte	.LLST39
 12492 46e3 57       		.uleb128 0x57
 12493 46e4 A2000000 		.4byte	0xa2
 12494 46e8 2D0C0000 		.4byte	.LLST49
 12495 46ec 44       		.uleb128 0x44
 12496 46ed 36000000 		.4byte	.LVL124
 12497 46f1 E8590000 		.4byte	0x59e8
 12498 46f5 01470000 		.4byte	0x4701
 12499 46f9 43       		.uleb128 0x43
 12500 46fa 01       		.uleb128 0x1
 12501 46fb 50       		.byte	0x50
 12502 46fc 03       		.uleb128 0x3
 12503 46fd 7D       		.byte	0x7d
 12504 46fe A001     		.sleb128 160
 12505 4700 00       		.byte	0
 12506 4701 44       		.uleb128 0x44
 12507 4702 4E000000 		.4byte	.LVL125
 12508 4706 DD590000 		.4byte	0x59dd
 12509 470a 1C470000 		.4byte	0x471c
 12510 470e 43       		.uleb128 0x43
 12511 470f 01       		.uleb128 0x1
 12512 4710 50       		.byte	0x50
 12513 4711 03       		.uleb128 0x3
 12514 4712 7D       		.byte	0x7d
 12515 4713 3C       		.sleb128 60
 12516 4714 06       		.byte	0x6
 12517 4715 43       		.uleb128 0x43
 12518 4716 01       		.uleb128 0x1
 12519 4717 51       		.byte	0x51
 12520 4718 02       		.uleb128 0x2
 12521 4719 76       		.byte	0x76
 12522 471a 00       		.sleb128 0
 12523 471b 00       		.byte	0
 12524 471c 44       		.uleb128 0x44
 12525 471d 80000000 		.4byte	.LVL128
 12526 4721 DD590000 		.4byte	0x59dd
 12527 4725 36470000 		.4byte	0x4736
 12528 4729 43       		.uleb128 0x43
 12529 472a 01       		.uleb128 0x1
 12530 472b 50       		.byte	0x50
 12531 472c 02       		.uleb128 0x2
 12532 472d 76       		.byte	0x76
 12533 472e 00       		.sleb128 0
 12534 472f 43       		.uleb128 0x43
 12535 4730 01       		.uleb128 0x1
 12536 4731 51       		.byte	0x51
 12537 4732 02       		.uleb128 0x2
 12538 4733 75       		.byte	0x75
 12539 4734 00       		.sleb128 0
 12540 4735 00       		.byte	0
 12541 4736 44       		.uleb128 0x44
ARM GAS  /tmp/cchERvVK.s 			page 222


 12542 4737 8C000000 		.4byte	.LVL131
 12543 473b FD580000 		.4byte	0x58fd
 12544 473f 56470000 		.4byte	0x4756
 12545 4743 43       		.uleb128 0x43
 12546 4744 01       		.uleb128 0x1
 12547 4745 50       		.byte	0x50
 12548 4746 02       		.uleb128 0x2
 12549 4747 76       		.byte	0x76
 12550 4748 00       		.sleb128 0
 12551 4749 43       		.uleb128 0x43
 12552 474a 01       		.uleb128 0x1
 12553 474b 51       		.byte	0x51
 12554 474c 02       		.uleb128 0x2
 12555 474d 75       		.byte	0x75
 12556 474e 00       		.sleb128 0
 12557 474f 43       		.uleb128 0x43
 12558 4750 01       		.uleb128 0x1
 12559 4751 52       		.byte	0x52
 12560 4752 02       		.uleb128 0x2
 12561 4753 74       		.byte	0x74
 12562 4754 00       		.sleb128 0
 12563 4755 00       		.byte	0
 12564 4756 41       		.uleb128 0x41
 12565 4757 06010000 		.4byte	.LVL140
 12566 475b F3590000 		.4byte	0x59f3
 12567 475f 00       		.byte	0
 12568 4760 58       		.uleb128 0x58
 12569 4761 141D0000 		.4byte	.LASF838
 12570 4765 01       		.byte	0x1
 12571 4766 1C02     		.2byte	0x21c
 12572 4768 00000000 		.4byte	.LFB279
 12573 476c 64000000 		.4byte	.LFE279-.LFB279
 12574 4770 01       		.uleb128 0x1
 12575 4771 9C       		.byte	0x9c
 12576 4772 E5470000 		.4byte	0x47e5
 12577 4776 3B       		.uleb128 0x3b
 12578 4777 7400     		.ascii	"t\000"
 12579 4779 01       		.byte	0x1
 12580 477a 1C02     		.2byte	0x21c
 12581 477c EB330000 		.4byte	0x33eb
 12582 4780 490C0000 		.4byte	.LLST22
 12583 4784 40       		.uleb128 0x40
 12584 4785 6500     		.ascii	"e\000"
 12585 4787 01       		.byte	0x1
 12586 4788 1E02     		.2byte	0x21e
 12587 478a C42D0000 		.4byte	0x2dc4
 12588 478e 03       		.uleb128 0x3
 12589 478f 91       		.byte	0x91
 12590 4790 847F     		.sleb128 -124
 12591 4792 44       		.uleb128 0x44
 12592 4793 1E000000 		.4byte	.LVL101
 12593 4797 E8590000 		.4byte	0x59e8
 12594 479b A7470000 		.4byte	0x47a7
 12595 479f 43       		.uleb128 0x43
 12596 47a0 01       		.uleb128 0x1
 12597 47a1 50       		.byte	0x50
 12598 47a2 03       		.uleb128 0x3
ARM GAS  /tmp/cchERvVK.s 			page 223


 12599 47a3 91       		.byte	0x91
 12600 47a4 907F     		.sleb128 -112
 12601 47a6 00       		.byte	0
 12602 47a7 44       		.uleb128 0x44
 12603 47a8 38000000 		.4byte	.LVL102
 12604 47ac FD580000 		.4byte	0x58fd
 12605 47b0 C9470000 		.4byte	0x47c9
 12606 47b4 43       		.uleb128 0x43
 12607 47b5 01       		.uleb128 0x1
 12608 47b6 50       		.byte	0x50
 12609 47b7 04       		.uleb128 0x4
 12610 47b8 91       		.byte	0x91
 12611 47b9 FC7E     		.sleb128 -132
 12612 47bb 06       		.byte	0x6
 12613 47bc 43       		.uleb128 0x43
 12614 47bd 01       		.uleb128 0x1
 12615 47be 51       		.byte	0x51
 12616 47bf 02       		.uleb128 0x2
 12617 47c0 75       		.byte	0x75
 12618 47c1 00       		.sleb128 0
 12619 47c2 43       		.uleb128 0x43
 12620 47c3 01       		.uleb128 0x1
 12621 47c4 52       		.byte	0x52
 12622 47c5 02       		.uleb128 0x2
 12623 47c6 76       		.byte	0x76
 12624 47c7 00       		.sleb128 0
 12625 47c8 00       		.byte	0
 12626 47c9 42       		.uleb128 0x42
 12627 47ca 4E000000 		.4byte	.LVL103
 12628 47ce 08590000 		.4byte	0x5908
 12629 47d2 43       		.uleb128 0x43
 12630 47d3 01       		.uleb128 0x1
 12631 47d4 50       		.byte	0x50
 12632 47d5 04       		.uleb128 0x4
 12633 47d6 91       		.byte	0x91
 12634 47d7 FC7E     		.sleb128 -132
 12635 47d9 06       		.byte	0x6
 12636 47da 43       		.uleb128 0x43
 12637 47db 01       		.uleb128 0x1
 12638 47dc 51       		.byte	0x51
 12639 47dd 05       		.uleb128 0x5
 12640 47de 03       		.byte	0x3
 12641 47df 00000000 		.4byte	.LC15
 12642 47e3 00       		.byte	0
 12643 47e4 00       		.byte	0
 12644 47e5 58       		.uleb128 0x58
 12645 47e6 E5020000 		.4byte	.LASF839
 12646 47ea 01       		.byte	0x1
 12647 47eb FA01     		.2byte	0x1fa
 12648 47ed 00000000 		.4byte	.LFB278
 12649 47f1 68000000 		.4byte	.LFE278-.LFB278
 12650 47f5 01       		.uleb128 0x1
 12651 47f6 9C       		.byte	0x9c
 12652 47f7 D2480000 		.4byte	0x48d2
 12653 47fb 3B       		.uleb128 0x3b
 12654 47fc 7400     		.ascii	"t\000"
 12655 47fe 01       		.byte	0x1
ARM GAS  /tmp/cchERvVK.s 			page 224


 12656 47ff FA01     		.2byte	0x1fa
 12657 4801 EB330000 		.4byte	0x33eb
 12658 4805 760C0000 		.4byte	.LLST54
 12659 4809 44       		.uleb128 0x44
 12660 480a 14000000 		.4byte	.LVL223
 12661 480e DD590000 		.4byte	0x59dd
 12662 4812 27480000 		.4byte	0x4827
 12663 4816 43       		.uleb128 0x43
 12664 4817 01       		.uleb128 0x1
 12665 4818 50       		.byte	0x50
 12666 4819 02       		.uleb128 0x2
 12667 481a 74       		.byte	0x74
 12668 481b 00       		.sleb128 0
 12669 481c 43       		.uleb128 0x43
 12670 481d 01       		.uleb128 0x1
 12671 481e 51       		.byte	0x51
 12672 481f 06       		.uleb128 0x6
 12673 4820 11       		.byte	0x11
 12674 4821 F0DB8380 		.sleb128 -536810000
 12674      7E
 12675 4826 00       		.byte	0
 12676 4827 44       		.uleb128 0x44
 12677 4828 1E000000 		.4byte	.LVL224
 12678 482c FD580000 		.4byte	0x58fd
 12679 4830 4E480000 		.4byte	0x484e
 12680 4834 43       		.uleb128 0x43
 12681 4835 01       		.uleb128 0x1
 12682 4836 50       		.byte	0x50
 12683 4837 02       		.uleb128 0x2
 12684 4838 74       		.byte	0x74
 12685 4839 00       		.sleb128 0
 12686 483a 43       		.uleb128 0x43
 12687 483b 01       		.uleb128 0x1
 12688 483c 51       		.byte	0x51
 12689 483d 06       		.uleb128 0x6
 12690 483e 11       		.byte	0x11
 12691 483f 8CDA8380 		.sleb128 -536810228
 12691      7E
 12692 4844 43       		.uleb128 0x43
 12693 4845 01       		.uleb128 0x1
 12694 4846 52       		.byte	0x52
 12695 4847 05       		.uleb128 0x5
 12696 4848 0C       		.byte	0xc
 12697 4849 0400FA05 		.4byte	0x5fa0004
 12698 484d 00       		.byte	0
 12699 484e 59       		.uleb128 0x59
 12700 484f 26000000 		.4byte	.LVL225
 12701 4853 5E480000 		.4byte	0x485e
 12702 4857 43       		.uleb128 0x43
 12703 4858 01       		.uleb128 0x1
 12704 4859 50       		.byte	0x50
 12705 485a 02       		.uleb128 0x2
 12706 485b 74       		.byte	0x74
 12707 485c 00       		.sleb128 0
 12708 485d 00       		.byte	0
 12709 485e 44       		.uleb128 0x44
 12710 485f 30000000 		.4byte	.LVL226
ARM GAS  /tmp/cchERvVK.s 			page 225


 12711 4863 DD590000 		.4byte	0x59dd
 12712 4867 78480000 		.4byte	0x4878
 12713 486b 43       		.uleb128 0x43
 12714 486c 01       		.uleb128 0x1
 12715 486d 50       		.byte	0x50
 12716 486e 02       		.uleb128 0x2
 12717 486f 74       		.byte	0x74
 12718 4870 00       		.sleb128 0
 12719 4871 43       		.uleb128 0x43
 12720 4872 01       		.uleb128 0x1
 12721 4873 51       		.byte	0x51
 12722 4874 02       		.uleb128 0x2
 12723 4875 75       		.byte	0x75
 12724 4876 00       		.sleb128 0
 12725 4877 00       		.byte	0
 12726 4878 44       		.uleb128 0x44
 12727 4879 3E000000 		.4byte	.LVL227
 12728 487d FD580000 		.4byte	0x58fd
 12729 4881 9B480000 		.4byte	0x489b
 12730 4885 43       		.uleb128 0x43
 12731 4886 01       		.uleb128 0x1
 12732 4887 50       		.byte	0x50
 12733 4888 02       		.uleb128 0x2
 12734 4889 74       		.byte	0x74
 12735 488a 00       		.sleb128 0
 12736 488b 43       		.uleb128 0x43
 12737 488c 01       		.uleb128 0x1
 12738 488d 51       		.byte	0x51
 12739 488e 06       		.uleb128 0x6
 12740 488f 11       		.byte	0x11
 12741 4890 B0DA8380 		.sleb128 -536810192
 12741      7E
 12742 4895 43       		.uleb128 0x43
 12743 4896 01       		.uleb128 0x1
 12744 4897 52       		.byte	0x52
 12745 4898 01       		.uleb128 0x1
 12746 4899 4F       		.byte	0x4f
 12747 489a 00       		.byte	0
 12748 489b 5A       		.uleb128 0x5a
 12749 489c 48000000 		.4byte	.LVL229
 12750 48a0 FE590000 		.4byte	0x59fe
 12751 48a4 AE480000 		.4byte	0x48ae
 12752 48a8 43       		.uleb128 0x43
 12753 48a9 01       		.uleb128 0x1
 12754 48aa 50       		.byte	0x50
 12755 48ab 01       		.uleb128 0x1
 12756 48ac 31       		.byte	0x31
 12757 48ad 00       		.byte	0
 12758 48ae 44       		.uleb128 0x44
 12759 48af 4E000000 		.4byte	.LVL230
 12760 48b3 095A0000 		.4byte	0x5a09
 12761 48b7 C1480000 		.4byte	0x48c1
 12762 48bb 43       		.uleb128 0x43
 12763 48bc 01       		.uleb128 0x1
 12764 48bd 50       		.byte	0x50
 12765 48be 01       		.uleb128 0x1
 12766 48bf 31       		.byte	0x31
ARM GAS  /tmp/cchERvVK.s 			page 226


 12767 48c0 00       		.byte	0
 12768 48c1 42       		.uleb128 0x42
 12769 48c2 54000000 		.4byte	.LVL231
 12770 48c6 095A0000 		.4byte	0x5a09
 12771 48ca 43       		.uleb128 0x43
 12772 48cb 01       		.uleb128 0x1
 12773 48cc 50       		.byte	0x50
 12774 48cd 02       		.uleb128 0x2
 12775 48ce 75       		.byte	0x75
 12776 48cf 00       		.sleb128 0
 12777 48d0 00       		.byte	0
 12778 48d1 00       		.byte	0
 12779 48d2 5B       		.uleb128 0x5b
 12780 48d3 DF200000 		.4byte	.LASF859
 12781 48d7 01       		.byte	0x1
 12782 48d8 F201     		.2byte	0x1f2
 12783 48da 01       		.byte	0x1
 12784 48db F6480000 		.4byte	0x48f6
 12785 48df 35       		.uleb128 0x35
 12786 48e0 7400     		.ascii	"t\000"
 12787 48e2 01       		.byte	0x1
 12788 48e3 F201     		.2byte	0x1f2
 12789 48e5 EB330000 		.4byte	0x33eb
 12790 48e9 35       		.uleb128 0x35
 12791 48ea 76616C00 		.ascii	"val\000"
 12792 48ee 01       		.byte	0x1
 12793 48ef F201     		.2byte	0x1f2
 12794 48f1 E2000000 		.4byte	0xe2
 12795 48f5 00       		.byte	0
 12796 48f6 3A       		.uleb128 0x3a
 12797 48f7 AE0E0000 		.4byte	.LASF840
 12798 48fb 01       		.byte	0x1
 12799 48fc EC01     		.2byte	0x1ec
 12800 48fe D2000000 		.4byte	0xd2
 12801 4902 00000000 		.4byte	.LFB276
 12802 4906 20000000 		.4byte	.LFE276-.LFB276
 12803 490a 01       		.uleb128 0x1
 12804 490b 9C       		.byte	0x9c
 12805 490c 5D490000 		.4byte	0x495d
 12806 4910 3B       		.uleb128 0x3b
 12807 4911 7400     		.ascii	"t\000"
 12808 4913 01       		.byte	0x1
 12809 4914 EC01     		.2byte	0x1ec
 12810 4916 EB330000 		.4byte	0x33eb
 12811 491a AD0C0000 		.4byte	.LLST18
 12812 491e 44       		.uleb128 0x44
 12813 491f 0C000000 		.4byte	.LVL83
 12814 4923 FD580000 		.4byte	0x58fd
 12815 4927 41490000 		.4byte	0x4941
 12816 492b 43       		.uleb128 0x43
 12817 492c 01       		.uleb128 0x1
 12818 492d 50       		.byte	0x50
 12819 492e 02       		.uleb128 0x2
 12820 492f 74       		.byte	0x74
 12821 4930 00       		.sleb128 0
 12822 4931 43       		.uleb128 0x43
 12823 4932 01       		.uleb128 0x1
ARM GAS  /tmp/cchERvVK.s 			page 227


 12824 4933 51       		.byte	0x51
 12825 4934 06       		.uleb128 0x6
 12826 4935 11       		.byte	0x11
 12827 4936 F4DB8380 		.sleb128 -536809996
 12827      7E
 12828 493b 43       		.uleb128 0x43
 12829 493c 01       		.uleb128 0x1
 12830 493d 52       		.byte	0x52
 12831 493e 01       		.uleb128 0x1
 12832 493f 3F       		.byte	0x3f
 12833 4940 00       		.byte	0
 12834 4941 52       		.uleb128 0x52
 12835 4942 18000000 		.4byte	.LVL85
 12836 4946 DD590000 		.4byte	0x59dd
 12837 494a 43       		.uleb128 0x43
 12838 494b 01       		.uleb128 0x1
 12839 494c 50       		.byte	0x50
 12840 494d 03       		.uleb128 0x3
 12841 494e F3       		.byte	0xf3
 12842 494f 01       		.uleb128 0x1
 12843 4950 50       		.byte	0x50
 12844 4951 43       		.uleb128 0x43
 12845 4952 01       		.uleb128 0x1
 12846 4953 51       		.byte	0x51
 12847 4954 06       		.uleb128 0x6
 12848 4955 11       		.byte	0x11
 12849 4956 F8DB8380 		.sleb128 -536809992
 12849      7E
 12850 495b 00       		.byte	0
 12851 495c 00       		.byte	0
 12852 495d 4B       		.uleb128 0x4b
 12853 495e 0F140000 		.4byte	.LASF842
 12854 4962 01       		.byte	0x1
 12855 4963 E401     		.2byte	0x1e4
 12856 4965 94000000 		.4byte	0x94
 12857 4969 00000000 		.4byte	.LFB275
 12858 496d 40000000 		.4byte	.LFE275-.LFB275
 12859 4971 01       		.uleb128 0x1
 12860 4972 9C       		.byte	0x9c
 12861 4973 454A0000 		.4byte	0x4a45
 12862 4977 3B       		.uleb128 0x3b
 12863 4978 7400     		.ascii	"t\000"
 12864 497a 01       		.byte	0x1
 12865 497b E501     		.2byte	0x1e5
 12866 497d EB330000 		.4byte	0x33eb
 12867 4981 E40C0000 		.4byte	.LLST129
 12868 4985 3C       		.uleb128 0x3c
 12869 4986 09060000 		.4byte	.LASF843
 12870 498a 01       		.byte	0x1
 12871 498b E501     		.2byte	0x1e5
 12872 498d B1310000 		.4byte	0x31b1
 12873 4991 020D0000 		.4byte	.LLST130
 12874 4995 3B       		.uleb128 0x3b
 12875 4996 73726300 		.ascii	"src\000"
 12876 499a 01       		.byte	0x1
 12877 499b E501     		.2byte	0x1e5
 12878 499d 34090000 		.4byte	0x934
ARM GAS  /tmp/cchERvVK.s 			page 228


 12879 49a1 2B0D0000 		.4byte	.LLST131
 12880 49a5 3B       		.uleb128 0x3b
 12881 49a6 6C656E00 		.ascii	"len\000"
 12882 49aa 01       		.byte	0x1
 12883 49ab E501     		.2byte	0x1e5
 12884 49ad F2000000 		.4byte	0xf2
 12885 49b1 490D0000 		.4byte	.LLST132
 12886 49b5 5C       		.uleb128 0x5c
 12887 49b6 B81B0000 		.4byte	.LASF692
 12888 49ba 01       		.byte	0x1
 12889 49bb E501     		.2byte	0x1e5
 12890 49bd 912E0000 		.4byte	0x2e91
 12891 49c1 02       		.uleb128 0x2
 12892 49c2 91       		.byte	0x91
 12893 49c3 00       		.sleb128 0
 12894 49c4 50       		.uleb128 0x50
 12895 49c5 51570000 		.4byte	0x5751
 12896 49c9 22000000 		.4byte	.LBB147
 12897 49cd 02000000 		.4byte	.LBE147-.LBB147
 12898 49d1 01       		.byte	0x1
 12899 49d2 E801     		.2byte	0x1e8
 12900 49d4 DE490000 		.4byte	0x49de
 12901 49d8 5D       		.uleb128 0x5d
 12902 49d9 61570000 		.4byte	0x5761
 12903 49dd 00       		.byte	0
 12904 49de 44       		.uleb128 0x44
 12905 49df 22000000 		.4byte	.LVL401
 12906 49e3 0E580000 		.4byte	0x580e
 12907 49e7 0D4A0000 		.4byte	0x4a0d
 12908 49eb 43       		.uleb128 0x43
 12909 49ec 01       		.uleb128 0x1
 12910 49ed 51       		.byte	0x51
 12911 49ee 03       		.uleb128 0x3
 12912 49ef 74       		.byte	0x74
 12913 49f0 EC00     		.sleb128 108
 12914 49f2 43       		.uleb128 0x43
 12915 49f3 01       		.uleb128 0x1
 12916 49f4 52       		.byte	0x52
 12917 49f5 02       		.uleb128 0x2
 12918 49f6 75       		.byte	0x75
 12919 49f7 00       		.sleb128 0
 12920 49f8 43       		.uleb128 0x43
 12921 49f9 01       		.uleb128 0x1
 12922 49fa 53       		.byte	0x53
 12923 49fb 02       		.uleb128 0x2
 12924 49fc 77       		.byte	0x77
 12925 49fd 00       		.sleb128 0
 12926 49fe 43       		.uleb128 0x43
 12927 49ff 02       		.uleb128 0x2
 12928 4a00 7D       		.byte	0x7d
 12929 4a01 00       		.sleb128 0
 12930 4a02 01       		.uleb128 0x1
 12931 4a03 31       		.byte	0x31
 12932 4a04 5E       		.uleb128 0x5e
 12933 4a05 D7560000 		.4byte	0x56d7
 12934 4a09 02       		.uleb128 0x2
 12935 4a0a 74       		.byte	0x74
ARM GAS  /tmp/cchERvVK.s 			page 229


 12936 4a0b 00       		.sleb128 0
 12937 4a0c 00       		.byte	0
 12938 4a0d 44       		.uleb128 0x44
 12939 4a0e 34000000 		.4byte	.LVL402
 12940 4a12 145A0000 		.4byte	0x5a14
 12941 4a16 344A0000 		.4byte	0x4a34
 12942 4a1a 43       		.uleb128 0x43
 12943 4a1b 01       		.uleb128 0x1
 12944 4a1c 51       		.byte	0x51
 12945 4a1d 02       		.uleb128 0x2
 12946 4a1e 75       		.byte	0x75
 12947 4a1f 00       		.sleb128 0
 12948 4a20 43       		.uleb128 0x43
 12949 4a21 01       		.uleb128 0x1
 12950 4a22 52       		.byte	0x52
 12951 4a23 02       		.uleb128 0x2
 12952 4a24 76       		.byte	0x76
 12953 4a25 00       		.sleb128 0
 12954 4a26 43       		.uleb128 0x43
 12955 4a27 01       		.uleb128 0x1
 12956 4a28 53       		.byte	0x53
 12957 4a29 02       		.uleb128 0x2
 12958 4a2a 77       		.byte	0x77
 12959 4a2b 00       		.sleb128 0
 12960 4a2c 43       		.uleb128 0x43
 12961 4a2d 02       		.uleb128 0x2
 12962 4a2e 7D       		.byte	0x7d
 12963 4a2f 00       		.sleb128 0
 12964 4a30 02       		.uleb128 0x2
 12965 4a31 78       		.byte	0x78
 12966 4a32 00       		.sleb128 0
 12967 4a33 00       		.byte	0
 12968 4a34 42       		.uleb128 0x42
 12969 4a35 3A000000 		.4byte	.LVL403
 12970 4a39 22590000 		.4byte	0x5922
 12971 4a3d 43       		.uleb128 0x43
 12972 4a3e 01       		.uleb128 0x1
 12973 4a3f 50       		.byte	0x50
 12974 4a40 02       		.uleb128 0x2
 12975 4a41 74       		.byte	0x74
 12976 4a42 00       		.sleb128 0
 12977 4a43 00       		.byte	0
 12978 4a44 00       		.byte	0
 12979 4a45 58       		.uleb128 0x58
 12980 4a46 BB020000 		.4byte	.LASF844
 12981 4a4a 01       		.byte	0x1
 12982 4a4b C201     		.2byte	0x1c2
 12983 4a4d 00000000 		.4byte	.LFB274
 12984 4a51 CC000000 		.4byte	.LFE274-.LFB274
 12985 4a55 01       		.uleb128 0x1
 12986 4a56 9C       		.byte	0x9c
 12987 4a57 C44C0000 		.4byte	0x4cc4
 12988 4a5b 3B       		.uleb128 0x3b
 12989 4a5c 7400     		.ascii	"t\000"
 12990 4a5e 01       		.byte	0x1
 12991 4a5f C201     		.2byte	0x1c2
 12992 4a61 EB330000 		.4byte	0x33eb
ARM GAS  /tmp/cchERvVK.s 			page 230


 12993 4a65 670D0000 		.4byte	.LLST55
 12994 4a69 3C       		.uleb128 0x3c
 12995 4a6a F21E0000 		.4byte	.LASF845
 12996 4a6e 01       		.byte	0x1
 12997 4a6f C201     		.2byte	0x1c2
 12998 4a71 34090000 		.4byte	0x934
 12999 4a75 930D0000 		.4byte	.LLST56
 13000 4a79 37       		.uleb128 0x37
 13001 4a7a 617000   		.ascii	"ap\000"
 13002 4a7d 01       		.byte	0x1
 13003 4a7e C401     		.2byte	0x1c4
 13004 4a80 BC390000 		.4byte	0x39bc
 13005 4a84 45       		.uleb128 0x45
 13006 4a85 80050000 		.4byte	.LASF822
 13007 4a89 01       		.byte	0x1
 13008 4a8a C501     		.2byte	0x1c5
 13009 4a8c C44C0000 		.4byte	0x4cc4
 13010 4a90 CD0D0000 		.4byte	.LLST57
 13011 4a94 3E       		.uleb128 0x3e
 13012 4a95 6900     		.ascii	"i\000"
 13013 4a97 01       		.byte	0x1
 13014 4a98 C601     		.2byte	0x1c6
 13015 4a9a 9B000000 		.4byte	0x9b
 13016 4a9e 1B0E0000 		.4byte	.LLST58
 13017 4aa2 50       		.uleb128 0x50
 13018 4aa3 51570000 		.4byte	0x5751
 13019 4aa7 04000000 		.4byte	.LBB107
 13020 4aab 06000000 		.4byte	.LBE107-.LBB107
 13021 4aaf 01       		.byte	0x1
 13022 4ab0 C401     		.2byte	0x1c4
 13023 4ab2 BC4A0000 		.4byte	0x4abc
 13024 4ab6 5D       		.uleb128 0x5d
 13025 4ab7 61570000 		.4byte	0x5761
 13026 4abb 00       		.byte	0
 13027 4abc 46       		.uleb128 0x46
 13028 4abd 6B570000 		.4byte	0x576b
 13029 4ac1 20000000 		.4byte	.LBB109
 13030 4ac5 E8000000 		.4byte	.Ldebug_ranges0+0xe8
 13031 4ac9 01       		.byte	0x1
 13032 4aca CD01     		.2byte	0x1cd
 13033 4acc 144B0000 		.4byte	0x4b14
 13034 4ad0 47       		.uleb128 0x47
 13035 4ad1 9B570000 		.4byte	0x579b
 13036 4ad5 2F0E0000 		.4byte	.LLST59
 13037 4ad9 47       		.uleb128 0x47
 13038 4ada 90570000 		.4byte	0x5790
 13039 4ade 470E0000 		.4byte	.LLST60
 13040 4ae2 47       		.uleb128 0x47
 13041 4ae3 85570000 		.4byte	0x5785
 13042 4ae7 5D0E0000 		.4byte	.LLST61
 13043 4aeb 47       		.uleb128 0x47
 13044 4aec 7B570000 		.4byte	0x577b
 13045 4af0 710E0000 		.4byte	.LLST62
 13046 4af4 5F       		.uleb128 0x5f
 13047 4af5 2E000000 		.4byte	.LVL238
 13048 4af9 02       		.uleb128 0x2
 13049 4afa 74       		.byte	0x74
ARM GAS  /tmp/cchERvVK.s 			page 231


 13050 4afb 00       		.sleb128 0
 13051 4afc 43       		.uleb128 0x43
 13052 4afd 01       		.uleb128 0x1
 13053 4afe 51       		.byte	0x51
 13054 4aff 01       		.uleb128 0x1
 13055 4b00 30       		.byte	0x30
 13056 4b01 43       		.uleb128 0x43
 13057 4b02 01       		.uleb128 0x1
 13058 4b03 52       		.byte	0x52
 13059 4b04 03       		.uleb128 0x3
 13060 4b05 0A       		.byte	0xa
 13061 4b06 0401     		.2byte	0x104
 13062 4b08 43       		.uleb128 0x43
 13063 4b09 01       		.uleb128 0x1
 13064 4b0a 53       		.byte	0x53
 13065 4b0b 06       		.uleb128 0x6
 13066 4b0c 11       		.byte	0x11
 13067 4b0d F0DB8380 		.sleb128 -536810000
 13067      7E
 13068 4b12 00       		.byte	0
 13069 4b13 00       		.byte	0
 13070 4b14 50       		.uleb128 0x50
 13071 4b15 6B570000 		.4byte	0x576b
 13072 4b19 3E000000 		.4byte	.LBB113
 13073 4b1d 10000000 		.4byte	.LBE113-.LBB113
 13074 4b21 01       		.byte	0x1
 13075 4b22 D201     		.2byte	0x1d2
 13076 4b24 594B0000 		.4byte	0x4b59
 13077 4b28 5D       		.uleb128 0x5d
 13078 4b29 9B570000 		.4byte	0x579b
 13079 4b2d 5D       		.uleb128 0x5d
 13080 4b2e 90570000 		.4byte	0x5790
 13081 4b32 5D       		.uleb128 0x5d
 13082 4b33 85570000 		.4byte	0x5785
 13083 4b37 5D       		.uleb128 0x5d
 13084 4b38 7B570000 		.4byte	0x577b
 13085 4b3c 5F       		.uleb128 0x5f
 13086 4b3d 4C000000 		.4byte	.LVL240
 13087 4b41 02       		.uleb128 0x2
 13088 4b42 74       		.byte	0x74
 13089 4b43 00       		.sleb128 0
 13090 4b44 43       		.uleb128 0x43
 13091 4b45 01       		.uleb128 0x1
 13092 4b46 51       		.byte	0x51
 13093 4b47 01       		.uleb128 0x1
 13094 4b48 30       		.byte	0x30
 13095 4b49 43       		.uleb128 0x43
 13096 4b4a 01       		.uleb128 0x1
 13097 4b4b 52       		.byte	0x52
 13098 4b4c 03       		.uleb128 0x3
 13099 4b4d 0A       		.byte	0xa
 13100 4b4e 1401     		.2byte	0x114
 13101 4b50 43       		.uleb128 0x43
 13102 4b51 01       		.uleb128 0x1
 13103 4b52 53       		.byte	0x53
 13104 4b53 03       		.uleb128 0x3
 13105 4b54 40       		.byte	0x40
ARM GAS  /tmp/cchERvVK.s 			page 232


 13106 4b55 3C       		.byte	0x3c
 13107 4b56 24       		.byte	0x24
 13108 4b57 00       		.byte	0
 13109 4b58 00       		.byte	0
 13110 4b59 50       		.uleb128 0x50
 13111 4b5a 6B570000 		.4byte	0x576b
 13112 4b5e 5A000000 		.4byte	.LBB115
 13113 4b62 10000000 		.4byte	.LBE115-.LBB115
 13114 4b66 01       		.byte	0x1
 13115 4b67 D501     		.2byte	0x1d5
 13116 4b69 A74B0000 		.4byte	0x4ba7
 13117 4b6d 47       		.uleb128 0x47
 13118 4b6e 9B570000 		.4byte	0x579b
 13119 4b72 840E0000 		.4byte	.LLST63
 13120 4b76 47       		.uleb128 0x47
 13121 4b77 90570000 		.4byte	0x5790
 13122 4b7b A40E0000 		.4byte	.LLST64
 13123 4b7f 47       		.uleb128 0x47
 13124 4b80 85570000 		.4byte	0x5785
 13125 4b84 BA0E0000 		.4byte	.LLST65
 13126 4b88 47       		.uleb128 0x47
 13127 4b89 7B570000 		.4byte	0x577b
 13128 4b8d CE0E0000 		.4byte	.LLST66
 13129 4b91 5F       		.uleb128 0x5f
 13130 4b92 6A000000 		.4byte	.LVL245
 13131 4b96 02       		.uleb128 0x2
 13132 4b97 7B       		.byte	0x7b
 13133 4b98 00       		.sleb128 0
 13134 4b99 43       		.uleb128 0x43
 13135 4b9a 01       		.uleb128 0x1
 13136 4b9b 51       		.byte	0x51
 13137 4b9c 01       		.uleb128 0x1
 13138 4b9d 30       		.byte	0x30
 13139 4b9e 43       		.uleb128 0x43
 13140 4b9f 01       		.uleb128 0x1
 13141 4ba0 52       		.byte	0x52
 13142 4ba1 03       		.uleb128 0x3
 13143 4ba2 0A       		.byte	0xa
 13144 4ba3 1801     		.2byte	0x118
 13145 4ba5 00       		.byte	0
 13146 4ba6 00       		.byte	0
 13147 4ba7 50       		.uleb128 0x50
 13148 4ba8 6B570000 		.4byte	0x576b
 13149 4bac 6C000000 		.4byte	.LBB117
 13150 4bb0 0E000000 		.4byte	.LBE117-.LBB117
 13151 4bb4 01       		.byte	0x1
 13152 4bb5 D701     		.2byte	0x1d7
 13153 4bb7 F54B0000 		.4byte	0x4bf5
 13154 4bbb 47       		.uleb128 0x47
 13155 4bbc 9B570000 		.4byte	0x579b
 13156 4bc0 E10E0000 		.4byte	.LLST67
 13157 4bc4 47       		.uleb128 0x47
 13158 4bc5 90570000 		.4byte	0x5790
 13159 4bc9 050F0000 		.4byte	.LLST68
 13160 4bcd 47       		.uleb128 0x47
 13161 4bce 85570000 		.4byte	0x5785
 13162 4bd2 1B0F0000 		.4byte	.LLST69
ARM GAS  /tmp/cchERvVK.s 			page 233


 13163 4bd6 47       		.uleb128 0x47
 13164 4bd7 7B570000 		.4byte	0x577b
 13165 4bdb 2F0F0000 		.4byte	.LLST70
 13166 4bdf 5F       		.uleb128 0x5f
 13167 4be0 7A000000 		.4byte	.LVL248
 13168 4be4 02       		.uleb128 0x2
 13169 4be5 76       		.byte	0x76
 13170 4be6 00       		.sleb128 0
 13171 4be7 43       		.uleb128 0x43
 13172 4be8 01       		.uleb128 0x1
 13173 4be9 51       		.byte	0x51
 13174 4bea 01       		.uleb128 0x1
 13175 4beb 30       		.byte	0x30
 13176 4bec 43       		.uleb128 0x43
 13177 4bed 01       		.uleb128 0x1
 13178 4bee 52       		.byte	0x52
 13179 4bef 03       		.uleb128 0x3
 13180 4bf0 0A       		.byte	0xa
 13181 4bf1 1401     		.2byte	0x114
 13182 4bf3 00       		.byte	0
 13183 4bf4 00       		.byte	0
 13184 4bf5 50       		.uleb128 0x50
 13185 4bf6 6B570000 		.4byte	0x576b
 13186 4bfa 96000000 		.4byte	.LBB119
 13187 4bfe 10000000 		.4byte	.LBE119-.LBB119
 13188 4c02 01       		.byte	0x1
 13189 4c03 DC01     		.2byte	0x1dc
 13190 4c05 434C0000 		.4byte	0x4c43
 13191 4c09 47       		.uleb128 0x47
 13192 4c0a 9B570000 		.4byte	0x579b
 13193 4c0e 420F0000 		.4byte	.LLST71
 13194 4c12 47       		.uleb128 0x47
 13195 4c13 90570000 		.4byte	0x5790
 13196 4c17 620F0000 		.4byte	.LLST72
 13197 4c1b 47       		.uleb128 0x47
 13198 4c1c 85570000 		.4byte	0x5785
 13199 4c20 780F0000 		.4byte	.LLST73
 13200 4c24 47       		.uleb128 0x47
 13201 4c25 7B570000 		.4byte	0x577b
 13202 4c29 8C0F0000 		.4byte	.LLST74
 13203 4c2d 5F       		.uleb128 0x5f
 13204 4c2e A6000000 		.4byte	.LVL252
 13205 4c32 02       		.uleb128 0x2
 13206 4c33 78       		.byte	0x78
 13207 4c34 00       		.sleb128 0
 13208 4c35 43       		.uleb128 0x43
 13209 4c36 01       		.uleb128 0x1
 13210 4c37 51       		.byte	0x51
 13211 4c38 01       		.uleb128 0x1
 13212 4c39 30       		.byte	0x30
 13213 4c3a 43       		.uleb128 0x43
 13214 4c3b 01       		.uleb128 0x1
 13215 4c3c 52       		.byte	0x52
 13216 4c3d 03       		.uleb128 0x3
 13217 4c3e 0A       		.byte	0xa
 13218 4c3f 1801     		.2byte	0x118
 13219 4c41 00       		.byte	0
ARM GAS  /tmp/cchERvVK.s 			page 234


 13220 4c42 00       		.byte	0
 13221 4c43 50       		.uleb128 0x50
 13222 4c44 6B570000 		.4byte	0x576b
 13223 4c48 A8000000 		.4byte	.LBB121
 13224 4c4c 0E000000 		.4byte	.LBE121-.LBB121
 13225 4c50 01       		.byte	0x1
 13226 4c51 DE01     		.2byte	0x1de
 13227 4c53 914C0000 		.4byte	0x4c91
 13228 4c57 47       		.uleb128 0x47
 13229 4c58 9B570000 		.4byte	0x579b
 13230 4c5c 9F0F0000 		.4byte	.LLST75
 13231 4c60 47       		.uleb128 0x47
 13232 4c61 90570000 		.4byte	0x5790
 13233 4c65 C30F0000 		.4byte	.LLST76
 13234 4c69 47       		.uleb128 0x47
 13235 4c6a 85570000 		.4byte	0x5785
 13236 4c6e D90F0000 		.4byte	.LLST77
 13237 4c72 47       		.uleb128 0x47
 13238 4c73 7B570000 		.4byte	0x577b
 13239 4c77 ED0F0000 		.4byte	.LLST78
 13240 4c7b 5F       		.uleb128 0x5f
 13241 4c7c B6000000 		.4byte	.LVL255
 13242 4c80 02       		.uleb128 0x2
 13243 4c81 76       		.byte	0x76
 13244 4c82 00       		.sleb128 0
 13245 4c83 43       		.uleb128 0x43
 13246 4c84 01       		.uleb128 0x1
 13247 4c85 51       		.byte	0x51
 13248 4c86 01       		.uleb128 0x1
 13249 4c87 30       		.byte	0x30
 13250 4c88 43       		.uleb128 0x43
 13251 4c89 01       		.uleb128 0x1
 13252 4c8a 52       		.byte	0x52
 13253 4c8b 03       		.uleb128 0x3
 13254 4c8c 0A       		.byte	0xa
 13255 4c8d 1401     		.2byte	0x114
 13256 4c8f 00       		.byte	0
 13257 4c90 00       		.byte	0
 13258 4c91 44       		.uleb128 0x44
 13259 4c92 1E000000 		.4byte	.LVL236
 13260 4c96 1F5A0000 		.4byte	0x5a1f
 13261 4c9a AC4C0000 		.4byte	0x4cac
 13262 4c9e 43       		.uleb128 0x43
 13263 4c9f 01       		.uleb128 0x1
 13264 4ca0 50       		.byte	0x50
 13265 4ca1 02       		.uleb128 0x2
 13266 4ca2 75       		.byte	0x75
 13267 4ca3 00       		.sleb128 0
 13268 4ca4 43       		.uleb128 0x43
 13269 4ca5 01       		.uleb128 0x1
 13270 4ca6 51       		.byte	0x51
 13271 4ca7 03       		.uleb128 0x3
 13272 4ca8 0A       		.byte	0xa
 13273 4ca9 0001     		.2byte	0x100
 13274 4cab 00       		.byte	0
 13275 4cac 42       		.uleb128 0x42
 13276 4cad 3C000000 		.4byte	.LVL239
ARM GAS  /tmp/cchERvVK.s 			page 235


 13277 4cb1 1F5A0000 		.4byte	0x5a1f
 13278 4cb5 43       		.uleb128 0x43
 13279 4cb6 01       		.uleb128 0x1
 13280 4cb7 50       		.byte	0x50
 13281 4cb8 02       		.uleb128 0x2
 13282 4cb9 75       		.byte	0x75
 13283 4cba 00       		.sleb128 0
 13284 4cbb 43       		.uleb128 0x43
 13285 4cbc 01       		.uleb128 0x1
 13286 4cbd 51       		.byte	0x51
 13287 4cbe 03       		.uleb128 0x3
 13288 4cbf 0A       		.byte	0xa
 13289 4cc0 1801     		.2byte	0x118
 13290 4cc2 00       		.byte	0
 13291 4cc3 00       		.byte	0
 13292 4cc4 07       		.uleb128 0x7
 13293 4cc5 04       		.byte	0x4
 13294 4cc6 E2000000 		.4byte	0xe2
 13295 4cca 58       		.uleb128 0x58
 13296 4ccb 611E0000 		.4byte	.LASF846
 13297 4ccf 01       		.byte	0x1
 13298 4cd0 A301     		.2byte	0x1a3
 13299 4cd2 00000000 		.4byte	.LFB273
 13300 4cd6 B8000000 		.4byte	.LFE273-.LFB273
 13301 4cda 01       		.uleb128 0x1
 13302 4cdb 9C       		.byte	0x9c
 13303 4cdc F94E0000 		.4byte	0x4ef9
 13304 4ce0 3B       		.uleb128 0x3b
 13305 4ce1 7400     		.ascii	"t\000"
 13306 4ce3 01       		.byte	0x1
 13307 4ce4 A301     		.2byte	0x1a3
 13308 4ce6 EB330000 		.4byte	0x33eb
 13309 4cea 00100000 		.4byte	.LLST79
 13310 4cee 3C       		.uleb128 0x3c
 13311 4cef F21E0000 		.4byte	.LASF845
 13312 4cf3 01       		.byte	0x1
 13313 4cf4 A301     		.2byte	0x1a3
 13314 4cf6 AB010000 		.4byte	0x1ab
 13315 4cfa 2C100000 		.4byte	.LLST80
 13316 4cfe 37       		.uleb128 0x37
 13317 4cff 617000   		.ascii	"ap\000"
 13318 4d02 01       		.byte	0x1
 13319 4d03 A501     		.2byte	0x1a5
 13320 4d05 BC390000 		.4byte	0x39bc
 13321 4d09 45       		.uleb128 0x45
 13322 4d0a 80050000 		.4byte	.LASF822
 13323 4d0e 01       		.byte	0x1
 13324 4d0f A601     		.2byte	0x1a6
 13325 4d11 F94E0000 		.4byte	0x4ef9
 13326 4d15 66100000 		.4byte	.LLST81
 13327 4d19 3E       		.uleb128 0x3e
 13328 4d1a 6900     		.ascii	"i\000"
 13329 4d1c 01       		.byte	0x1
 13330 4d1d A701     		.2byte	0x1a7
 13331 4d1f 9B000000 		.4byte	0x9b
 13332 4d23 84100000 		.4byte	.LLST82
 13333 4d27 46       		.uleb128 0x46
ARM GAS  /tmp/cchERvVK.s 			page 236


 13334 4d28 51570000 		.4byte	0x5751
 13335 4d2c 00000000 		.4byte	.LBB123
 13336 4d30 00010000 		.4byte	.Ldebug_ranges0+0x100
 13337 4d34 01       		.byte	0x1
 13338 4d35 A501     		.2byte	0x1a5
 13339 4d37 414D0000 		.4byte	0x4d41
 13340 4d3b 5D       		.uleb128 0x5d
 13341 4d3c 61570000 		.4byte	0x5761
 13342 4d40 00       		.byte	0
 13343 4d41 50       		.uleb128 0x50
 13344 4d42 6B570000 		.4byte	0x576b
 13345 4d46 20000000 		.4byte	.LBB127
 13346 4d4a 0C000000 		.4byte	.LBE127-.LBB127
 13347 4d4e 01       		.byte	0x1
 13348 4d4f AE01     		.2byte	0x1ae
 13349 4d51 994D0000 		.4byte	0x4d99
 13350 4d55 47       		.uleb128 0x47
 13351 4d56 9B570000 		.4byte	0x579b
 13352 4d5a 98100000 		.4byte	.LLST83
 13353 4d5e 47       		.uleb128 0x47
 13354 4d5f 90570000 		.4byte	0x5790
 13355 4d63 B0100000 		.4byte	.LLST84
 13356 4d67 47       		.uleb128 0x47
 13357 4d68 85570000 		.4byte	0x5785
 13358 4d6c C6100000 		.4byte	.LLST85
 13359 4d70 47       		.uleb128 0x47
 13360 4d71 7B570000 		.4byte	0x577b
 13361 4d75 DA100000 		.4byte	.LLST86
 13362 4d79 5F       		.uleb128 0x5f
 13363 4d7a 2C000000 		.4byte	.LVL264
 13364 4d7e 02       		.uleb128 0x2
 13365 4d7f 74       		.byte	0x74
 13366 4d80 00       		.sleb128 0
 13367 4d81 43       		.uleb128 0x43
 13368 4d82 01       		.uleb128 0x1
 13369 4d83 51       		.byte	0x51
 13370 4d84 01       		.uleb128 0x1
 13371 4d85 30       		.byte	0x30
 13372 4d86 43       		.uleb128 0x43
 13373 4d87 01       		.uleb128 0x1
 13374 4d88 52       		.byte	0x52
 13375 4d89 03       		.uleb128 0x3
 13376 4d8a 0A       		.byte	0xa
 13377 4d8b 0401     		.2byte	0x104
 13378 4d8d 43       		.uleb128 0x43
 13379 4d8e 01       		.uleb128 0x1
 13380 4d8f 53       		.byte	0x53
 13381 4d90 06       		.uleb128 0x6
 13382 4d91 11       		.byte	0x11
 13383 4d92 F0DB8380 		.sleb128 -536810000
 13383      7E
 13384 4d97 00       		.byte	0
 13385 4d98 00       		.byte	0
 13386 4d99 50       		.uleb128 0x50
 13387 4d9a C2570000 		.4byte	0x57c2
 13388 4d9e 3A000000 		.4byte	.LBB129
 13389 4da2 08000000 		.4byte	.LBE129-.LBB129
ARM GAS  /tmp/cchERvVK.s 			page 237


 13390 4da6 01       		.byte	0x1
 13391 4da7 B301     		.2byte	0x1b3
 13392 4da9 C54D0000 		.4byte	0x4dc5
 13393 4dad 5D       		.uleb128 0x5d
 13394 4dae DC570000 		.4byte	0x57dc
 13395 4db2 5D       		.uleb128 0x5d
 13396 4db3 D2570000 		.4byte	0x57d2
 13397 4db7 60       		.uleb128 0x60
 13398 4db8 42000000 		.4byte	.LVL266
 13399 4dbc 43       		.uleb128 0x43
 13400 4dbd 01       		.uleb128 0x1
 13401 4dbe 51       		.byte	0x51
 13402 4dbf 03       		.uleb128 0x3
 13403 4dc0 0A       		.byte	0xa
 13404 4dc1 1801     		.2byte	0x118
 13405 4dc3 00       		.byte	0
 13406 4dc4 00       		.byte	0
 13407 4dc5 50       		.uleb128 0x50
 13408 4dc6 6B570000 		.4byte	0x576b
 13409 4dca 56000000 		.4byte	.LBB131
 13410 4dce 0C000000 		.4byte	.LBE131-.LBB131
 13411 4dd2 01       		.byte	0x1
 13412 4dd3 B501     		.2byte	0x1b5
 13413 4dd5 0F4E0000 		.4byte	0x4e0f
 13414 4dd9 5D       		.uleb128 0x5d
 13415 4dda 9B570000 		.4byte	0x579b
 13416 4dde 47       		.uleb128 0x47
 13417 4ddf 90570000 		.4byte	0x5790
 13418 4de3 ED100000 		.4byte	.LLST87
 13419 4de7 47       		.uleb128 0x47
 13420 4de8 85570000 		.4byte	0x5785
 13421 4dec 03110000 		.4byte	.LLST88
 13422 4df0 47       		.uleb128 0x47
 13423 4df1 7B570000 		.4byte	0x577b
 13424 4df5 17110000 		.4byte	.LLST89
 13425 4df9 5F       		.uleb128 0x5f
 13426 4dfa 62000000 		.4byte	.LVL271
 13427 4dfe 02       		.uleb128 0x2
 13428 4dff 7A       		.byte	0x7a
 13429 4e00 00       		.sleb128 0
 13430 4e01 43       		.uleb128 0x43
 13431 4e02 01       		.uleb128 0x1
 13432 4e03 51       		.byte	0x51
 13433 4e04 01       		.uleb128 0x1
 13434 4e05 30       		.byte	0x30
 13435 4e06 43       		.uleb128 0x43
 13436 4e07 01       		.uleb128 0x1
 13437 4e08 52       		.byte	0x52
 13438 4e09 03       		.uleb128 0x3
 13439 4e0a 0A       		.byte	0xa
 13440 4e0b 1401     		.2byte	0x114
 13441 4e0d 00       		.byte	0
 13442 4e0e 00       		.byte	0
 13443 4e0f 50       		.uleb128 0x50
 13444 4e10 C2570000 		.4byte	0x57c2
 13445 4e14 64000000 		.4byte	.LBB133
 13446 4e18 08000000 		.4byte	.LBE133-.LBB133
ARM GAS  /tmp/cchERvVK.s 			page 238


 13447 4e1c 01       		.byte	0x1
 13448 4e1d B701     		.2byte	0x1b7
 13449 4e1f 434E0000 		.4byte	0x4e43
 13450 4e23 47       		.uleb128 0x47
 13451 4e24 DC570000 		.4byte	0x57dc
 13452 4e28 2A110000 		.4byte	.LLST90
 13453 4e2c 47       		.uleb128 0x47
 13454 4e2d D2570000 		.4byte	0x57d2
 13455 4e31 40110000 		.4byte	.LLST91
 13456 4e35 60       		.uleb128 0x60
 13457 4e36 6C000000 		.4byte	.LVL273
 13458 4e3a 43       		.uleb128 0x43
 13459 4e3b 01       		.uleb128 0x1
 13460 4e3c 51       		.byte	0x51
 13461 4e3d 03       		.uleb128 0x3
 13462 4e3e 0A       		.byte	0xa
 13463 4e3f 1801     		.2byte	0x118
 13464 4e41 00       		.byte	0
 13465 4e42 00       		.byte	0
 13466 4e43 50       		.uleb128 0x50
 13467 4e44 6B570000 		.4byte	0x576b
 13468 4e48 8C000000 		.4byte	.LBB135
 13469 4e4c 0A000000 		.4byte	.LBE135-.LBB135
 13470 4e50 01       		.byte	0x1
 13471 4e51 BB01     		.2byte	0x1bb
 13472 4e53 8D4E0000 		.4byte	0x4e8d
 13473 4e57 5D       		.uleb128 0x5d
 13474 4e58 9B570000 		.4byte	0x579b
 13475 4e5c 47       		.uleb128 0x47
 13476 4e5d 90570000 		.4byte	0x5790
 13477 4e61 53110000 		.4byte	.LLST92
 13478 4e65 47       		.uleb128 0x47
 13479 4e66 85570000 		.4byte	0x5785
 13480 4e6a 69110000 		.4byte	.LLST93
 13481 4e6e 47       		.uleb128 0x47
 13482 4e6f 7B570000 		.4byte	0x577b
 13483 4e73 7D110000 		.4byte	.LLST94
 13484 4e77 5F       		.uleb128 0x5f
 13485 4e78 96000000 		.4byte	.LVL277
 13486 4e7c 02       		.uleb128 0x2
 13487 4e7d 77       		.byte	0x77
 13488 4e7e 00       		.sleb128 0
 13489 4e7f 43       		.uleb128 0x43
 13490 4e80 01       		.uleb128 0x1
 13491 4e81 51       		.byte	0x51
 13492 4e82 01       		.uleb128 0x1
 13493 4e83 30       		.byte	0x30
 13494 4e84 43       		.uleb128 0x43
 13495 4e85 01       		.uleb128 0x1
 13496 4e86 52       		.byte	0x52
 13497 4e87 03       		.uleb128 0x3
 13498 4e88 0A       		.byte	0xa
 13499 4e89 1401     		.2byte	0x114
 13500 4e8b 00       		.byte	0
 13501 4e8c 00       		.byte	0
 13502 4e8d 50       		.uleb128 0x50
 13503 4e8e C2570000 		.4byte	0x57c2
ARM GAS  /tmp/cchERvVK.s 			page 239


 13504 4e92 98000000 		.4byte	.LBB137
 13505 4e96 08000000 		.4byte	.LBE137-.LBB137
 13506 4e9a 01       		.byte	0x1
 13507 4e9b BE01     		.2byte	0x1be
 13508 4e9d C14E0000 		.4byte	0x4ec1
 13509 4ea1 47       		.uleb128 0x47
 13510 4ea2 DC570000 		.4byte	0x57dc
 13511 4ea6 90110000 		.4byte	.LLST95
 13512 4eaa 47       		.uleb128 0x47
 13513 4eab D2570000 		.4byte	0x57d2
 13514 4eaf A6110000 		.4byte	.LLST96
 13515 4eb3 60       		.uleb128 0x60
 13516 4eb4 A0000000 		.4byte	.LVL279
 13517 4eb8 43       		.uleb128 0x43
 13518 4eb9 01       		.uleb128 0x1
 13519 4eba 51       		.byte	0x51
 13520 4ebb 03       		.uleb128 0x3
 13521 4ebc 0A       		.byte	0xa
 13522 4ebd 1801     		.2byte	0x118
 13523 4ebf 00       		.byte	0
 13524 4ec0 00       		.byte	0
 13525 4ec1 44       		.uleb128 0x44
 13526 4ec2 1E000000 		.4byte	.LVL262
 13527 4ec6 1F5A0000 		.4byte	0x5a1f
 13528 4eca DC4E0000 		.4byte	0x4edc
 13529 4ece 43       		.uleb128 0x43
 13530 4ecf 01       		.uleb128 0x1
 13531 4ed0 50       		.byte	0x50
 13532 4ed1 02       		.uleb128 0x2
 13533 4ed2 75       		.byte	0x75
 13534 4ed3 00       		.sleb128 0
 13535 4ed4 43       		.uleb128 0x43
 13536 4ed5 01       		.uleb128 0x1
 13537 4ed6 51       		.byte	0x51
 13538 4ed7 03       		.uleb128 0x3
 13539 4ed8 0A       		.byte	0xa
 13540 4ed9 0001     		.2byte	0x100
 13541 4edb 00       		.byte	0
 13542 4edc 42       		.uleb128 0x42
 13543 4edd 38000000 		.4byte	.LVL265
 13544 4ee1 1F5A0000 		.4byte	0x5a1f
 13545 4ee5 43       		.uleb128 0x43
 13546 4ee6 01       		.uleb128 0x1
 13547 4ee7 50       		.byte	0x50
 13548 4ee8 02       		.uleb128 0x2
 13549 4ee9 75       		.byte	0x75
 13550 4eea 00       		.sleb128 0
 13551 4eeb 43       		.uleb128 0x43
 13552 4eec 01       		.uleb128 0x1
 13553 4eed 51       		.byte	0x51
 13554 4eee 03       		.uleb128 0x3
 13555 4eef 0A       		.byte	0xa
 13556 4ef0 1401     		.2byte	0x114
 13557 4ef2 43       		.uleb128 0x43
 13558 4ef3 01       		.uleb128 0x1
 13559 4ef4 52       		.byte	0x52
 13560 4ef5 01       		.uleb128 0x1
ARM GAS  /tmp/cchERvVK.s 			page 240


 13561 4ef6 30       		.byte	0x30
 13562 4ef7 00       		.byte	0
 13563 4ef8 00       		.byte	0
 13564 4ef9 07       		.uleb128 0x7
 13565 4efa 04       		.byte	0x4
 13566 4efb D2000000 		.4byte	0xd2
 13567 4eff 4F       		.uleb128 0x4f
 13568 4f00 CA140000 		.4byte	.LASF848
 13569 4f04 01       		.byte	0x1
 13570 4f05 8E01     		.2byte	0x18e
 13571 4f07 00000000 		.4byte	.LFB272
 13572 4f0b 68000000 		.4byte	.LFE272-.LFB272
 13573 4f0f 01       		.uleb128 0x1
 13574 4f10 9C       		.byte	0x9c
 13575 4f11 BE4F0000 		.4byte	0x4fbe
 13576 4f15 3B       		.uleb128 0x3b
 13577 4f16 7400     		.ascii	"t\000"
 13578 4f18 01       		.byte	0x1
 13579 4f19 8E01     		.2byte	0x18e
 13580 4f1b EB330000 		.4byte	0x33eb
 13581 4f1f B9110000 		.4byte	.LLST19
 13582 4f23 45       		.uleb128 0x45
 13583 4f24 04020000 		.4byte	.LASF689
 13584 4f28 01       		.byte	0x1
 13585 4f29 9001     		.2byte	0x190
 13586 4f2b 5B3C0000 		.4byte	0x3c5b
 13587 4f2f F0110000 		.4byte	.LLST20
 13588 4f33 3E       		.uleb128 0x3e
 13589 4f34 6900     		.ascii	"i\000"
 13590 4f36 01       		.byte	0x1
 13591 4f37 9101     		.2byte	0x191
 13592 4f39 9B000000 		.4byte	0x9b
 13593 4f3d 03120000 		.4byte	.LLST21
 13594 4f41 44       		.uleb128 0x44
 13595 4f42 18000000 		.4byte	.LVL89
 13596 4f46 FD580000 		.4byte	0x58fd
 13597 4f4a 604F0000 		.4byte	0x4f60
 13598 4f4e 43       		.uleb128 0x43
 13599 4f4f 01       		.uleb128 0x1
 13600 4f50 50       		.byte	0x50
 13601 4f51 02       		.uleb128 0x2
 13602 4f52 76       		.byte	0x76
 13603 4f53 00       		.sleb128 0
 13604 4f54 43       		.uleb128 0x43
 13605 4f55 01       		.uleb128 0x1
 13606 4f56 51       		.byte	0x51
 13607 4f57 02       		.uleb128 0x2
 13608 4f58 75       		.byte	0x75
 13609 4f59 00       		.sleb128 0
 13610 4f5a 43       		.uleb128 0x43
 13611 4f5b 01       		.uleb128 0x1
 13612 4f5c 52       		.byte	0x52
 13613 4f5d 01       		.uleb128 0x1
 13614 4f5e 30       		.byte	0x30
 13615 4f5f 00       		.byte	0
 13616 4f60 44       		.uleb128 0x44
 13617 4f61 36000000 		.4byte	.LVL93
ARM GAS  /tmp/cchERvVK.s 			page 241


 13618 4f65 FD580000 		.4byte	0x58fd
 13619 4f69 7F4F0000 		.4byte	0x4f7f
 13620 4f6d 43       		.uleb128 0x43
 13621 4f6e 01       		.uleb128 0x1
 13622 4f6f 50       		.byte	0x50
 13623 4f70 02       		.uleb128 0x2
 13624 4f71 76       		.byte	0x76
 13625 4f72 00       		.sleb128 0
 13626 4f73 43       		.uleb128 0x43
 13627 4f74 01       		.uleb128 0x1
 13628 4f75 51       		.byte	0x51
 13629 4f76 02       		.uleb128 0x2
 13630 4f77 75       		.byte	0x75
 13631 4f78 00       		.sleb128 0
 13632 4f79 43       		.uleb128 0x43
 13633 4f7a 01       		.uleb128 0x1
 13634 4f7b 52       		.byte	0x52
 13635 4f7c 01       		.uleb128 0x1
 13636 4f7d 30       		.byte	0x30
 13637 4f7e 00       		.byte	0
 13638 4f7f 44       		.uleb128 0x44
 13639 4f80 4C000000 		.4byte	.LVL96
 13640 4f84 FD580000 		.4byte	0x58fd
 13641 4f88 A74F0000 		.4byte	0x4fa7
 13642 4f8c 43       		.uleb128 0x43
 13643 4f8d 01       		.uleb128 0x1
 13644 4f8e 50       		.byte	0x50
 13645 4f8f 02       		.uleb128 0x2
 13646 4f90 76       		.byte	0x76
 13647 4f91 00       		.sleb128 0
 13648 4f92 43       		.uleb128 0x43
 13649 4f93 01       		.uleb128 0x1
 13650 4f94 51       		.byte	0x51
 13651 4f95 06       		.uleb128 0x6
 13652 4f96 11       		.byte	0x11
 13653 4f97 F0DB8380 		.sleb128 -536810000
 13653      7E
 13654 4f9c 43       		.uleb128 0x43
 13655 4f9d 01       		.uleb128 0x1
 13656 4f9e 52       		.byte	0x52
 13657 4f9f 06       		.uleb128 0x6
 13658 4fa0 11       		.byte	0x11
 13659 4fa1 8080FC82 		.sleb128 -1604386816
 13659      7A
 13660 4fa6 00       		.byte	0
 13661 4fa7 52       		.uleb128 0x52
 13662 4fa8 58000000 		.4byte	.LVL98
 13663 4fac DD590000 		.4byte	0x59dd
 13664 4fb0 43       		.uleb128 0x43
 13665 4fb1 01       		.uleb128 0x1
 13666 4fb2 50       		.byte	0x50
 13667 4fb3 03       		.uleb128 0x3
 13668 4fb4 F3       		.byte	0xf3
 13669 4fb5 01       		.uleb128 0x1
 13670 4fb6 50       		.byte	0x50
 13671 4fb7 43       		.uleb128 0x43
 13672 4fb8 01       		.uleb128 0x1
ARM GAS  /tmp/cchERvVK.s 			page 242


 13673 4fb9 51       		.byte	0x51
 13674 4fba 01       		.uleb128 0x1
 13675 4fbb 30       		.byte	0x30
 13676 4fbc 00       		.byte	0
 13677 4fbd 00       		.byte	0
 13678 4fbe 4B       		.uleb128 0x4b
 13679 4fbf 8F210000 		.4byte	.LASF849
 13680 4fc3 01       		.byte	0x1
 13681 4fc4 5D01     		.2byte	0x15d
 13682 4fc6 11170000 		.4byte	0x1711
 13683 4fca 00000000 		.4byte	.LFB271
 13684 4fce F4000000 		.4byte	.LFE271-.LFB271
 13685 4fd2 01       		.uleb128 0x1
 13686 4fd3 9C       		.byte	0x9c
 13687 4fd4 2B510000 		.4byte	0x512b
 13688 4fd8 3B       		.uleb128 0x3b
 13689 4fd9 7400     		.ascii	"t\000"
 13690 4fdb 01       		.byte	0x1
 13691 4fdc 5D01     		.2byte	0x15d
 13692 4fde EB330000 		.4byte	0x33eb
 13693 4fe2 39120000 		.4byte	.LLST101
 13694 4fe6 45       		.uleb128 0x45
 13695 4fe7 04020000 		.4byte	.LASF689
 13696 4feb 01       		.byte	0x1
 13697 4fec 5F01     		.2byte	0x15f
 13698 4fee 5B3C0000 		.4byte	0x3c5b
 13699 4ff2 65120000 		.4byte	.LLST102
 13700 4ff6 3E       		.uleb128 0x3e
 13701 4ff7 6900     		.ascii	"i\000"
 13702 4ff9 01       		.byte	0x1
 13703 4ffa 6001     		.2byte	0x160
 13704 4ffc 9B000000 		.4byte	0x9b
 13705 5000 78120000 		.4byte	.LLST103
 13706 5004 3E       		.uleb128 0x3e
 13707 5005 7200     		.ascii	"r\000"
 13708 5007 01       		.byte	0x1
 13709 5008 6101     		.2byte	0x161
 13710 500a D2000000 		.4byte	0xd2
 13711 500e BC120000 		.4byte	.LLST104
 13712 5012 44       		.uleb128 0x44
 13713 5013 0C000000 		.4byte	.LVL306
 13714 5017 22590000 		.4byte	0x5922
 13715 501b 26500000 		.4byte	0x5026
 13716 501f 43       		.uleb128 0x43
 13717 5020 01       		.uleb128 0x1
 13718 5021 50       		.byte	0x50
 13719 5022 02       		.uleb128 0x2
 13720 5023 74       		.byte	0x74
 13721 5024 00       		.sleb128 0
 13722 5025 00       		.byte	0
 13723 5026 44       		.uleb128 0x44
 13724 5027 12000000 		.4byte	.LVL307
 13725 502b 2A5A0000 		.4byte	0x5a2a
 13726 502f 3A500000 		.4byte	0x503a
 13727 5033 43       		.uleb128 0x43
 13728 5034 01       		.uleb128 0x1
 13729 5035 50       		.byte	0x50
ARM GAS  /tmp/cchERvVK.s 			page 243


 13730 5036 02       		.uleb128 0x2
 13731 5037 74       		.byte	0x74
 13732 5038 00       		.sleb128 0
 13733 5039 00       		.byte	0
 13734 503a 44       		.uleb128 0x44
 13735 503b 18000000 		.4byte	.LVL308
 13736 503f 20540000 		.4byte	0x5420
 13737 5043 4E500000 		.4byte	0x504e
 13738 5047 43       		.uleb128 0x43
 13739 5048 01       		.uleb128 0x1
 13740 5049 50       		.byte	0x50
 13741 504a 02       		.uleb128 0x2
 13742 504b 74       		.byte	0x74
 13743 504c 00       		.sleb128 0
 13744 504d 00       		.byte	0
 13745 504e 44       		.uleb128 0x44
 13746 504f 2C000000 		.4byte	.LVL310
 13747 5053 FD580000 		.4byte	0x58fd
 13748 5057 6C500000 		.4byte	0x506c
 13749 505b 43       		.uleb128 0x43
 13750 505c 01       		.uleb128 0x1
 13751 505d 50       		.byte	0x50
 13752 505e 02       		.uleb128 0x2
 13753 505f 74       		.byte	0x74
 13754 5060 00       		.sleb128 0
 13755 5061 43       		.uleb128 0x43
 13756 5062 01       		.uleb128 0x1
 13757 5063 51       		.byte	0x51
 13758 5064 06       		.uleb128 0x6
 13759 5065 11       		.byte	0x11
 13760 5066 FCDB8380 		.sleb128 -536809988
 13760      7E
 13761 506b 00       		.byte	0
 13762 506c 44       		.uleb128 0x44
 13763 506d 36000000 		.4byte	.LVL311
 13764 5071 FD580000 		.4byte	0x58fd
 13765 5075 8F500000 		.4byte	0x508f
 13766 5079 43       		.uleb128 0x43
 13767 507a 01       		.uleb128 0x1
 13768 507b 50       		.byte	0x50
 13769 507c 02       		.uleb128 0x2
 13770 507d 74       		.byte	0x74
 13771 507e 00       		.sleb128 0
 13772 507f 43       		.uleb128 0x43
 13773 5080 01       		.uleb128 0x1
 13774 5081 51       		.byte	0x51
 13775 5082 06       		.uleb128 0x6
 13776 5083 11       		.byte	0x11
 13777 5084 B0DA8380 		.sleb128 -536810192
 13777      7E
 13778 5089 43       		.uleb128 0x43
 13779 508a 01       		.uleb128 0x1
 13780 508b 52       		.byte	0x52
 13781 508c 01       		.uleb128 0x1
 13782 508d 4F       		.byte	0x4f
 13783 508e 00       		.byte	0
 13784 508f 44       		.uleb128 0x44
ARM GAS  /tmp/cchERvVK.s 			page 244


 13785 5090 42000000 		.4byte	.LVL312
 13786 5094 DD590000 		.4byte	0x59dd
 13787 5098 AD500000 		.4byte	0x50ad
 13788 509c 43       		.uleb128 0x43
 13789 509d 01       		.uleb128 0x1
 13790 509e 50       		.byte	0x50
 13791 509f 02       		.uleb128 0x2
 13792 50a0 74       		.byte	0x74
 13793 50a1 00       		.sleb128 0
 13794 50a2 43       		.uleb128 0x43
 13795 50a3 01       		.uleb128 0x1
 13796 50a4 51       		.byte	0x51
 13797 50a5 06       		.uleb128 0x6
 13798 50a6 11       		.byte	0x11
 13799 50a7 80C08080 		.sleb128 -536862720
 13799      7E
 13800 50ac 00       		.byte	0
 13801 50ad 44       		.uleb128 0x44
 13802 50ae 5E000000 		.4byte	.LVL314
 13803 50b2 DD590000 		.4byte	0x59dd
 13804 50b6 CB500000 		.4byte	0x50cb
 13805 50ba 43       		.uleb128 0x43
 13806 50bb 01       		.uleb128 0x1
 13807 50bc 50       		.byte	0x50
 13808 50bd 02       		.uleb128 0x2
 13809 50be 74       		.byte	0x74
 13810 50bf 00       		.sleb128 0
 13811 50c0 43       		.uleb128 0x43
 13812 50c1 01       		.uleb128 0x1
 13813 50c2 51       		.byte	0x51
 13814 50c3 06       		.uleb128 0x6
 13815 50c4 11       		.byte	0x11
 13816 50c5 80A08080 		.sleb128 -536866816
 13816      7E
 13817 50ca 00       		.byte	0
 13818 50cb 44       		.uleb128 0x44
 13819 50cc 88000000 		.4byte	.LVL317
 13820 50d0 FD580000 		.4byte	0x58fd
 13821 50d4 EB500000 		.4byte	0x50eb
 13822 50d8 43       		.uleb128 0x43
 13823 50d9 01       		.uleb128 0x1
 13824 50da 50       		.byte	0x50
 13825 50db 02       		.uleb128 0x2
 13826 50dc 74       		.byte	0x74
 13827 50dd 00       		.sleb128 0
 13828 50de 43       		.uleb128 0x43
 13829 50df 01       		.uleb128 0x1
 13830 50e0 51       		.byte	0x51
 13831 50e1 02       		.uleb128 0x2
 13832 50e2 77       		.byte	0x77
 13833 50e3 00       		.sleb128 0
 13834 50e4 43       		.uleb128 0x43
 13835 50e5 01       		.uleb128 0x1
 13836 50e6 52       		.byte	0x52
 13837 50e7 02       		.uleb128 0x2
 13838 50e8 7A       		.byte	0x7a
 13839 50e9 00       		.sleb128 0
ARM GAS  /tmp/cchERvVK.s 			page 245


 13840 50ea 00       		.byte	0
 13841 50eb 44       		.uleb128 0x44
 13842 50ec B8000000 		.4byte	.LVL321
 13843 50f0 FD580000 		.4byte	0x58fd
 13844 50f4 0B510000 		.4byte	0x510b
 13845 50f8 43       		.uleb128 0x43
 13846 50f9 01       		.uleb128 0x1
 13847 50fa 50       		.byte	0x50
 13848 50fb 02       		.uleb128 0x2
 13849 50fc 74       		.byte	0x74
 13850 50fd 00       		.sleb128 0
 13851 50fe 43       		.uleb128 0x43
 13852 50ff 01       		.uleb128 0x1
 13853 5100 51       		.byte	0x51
 13854 5101 02       		.uleb128 0x2
 13855 5102 77       		.byte	0x77
 13856 5103 00       		.sleb128 0
 13857 5104 43       		.uleb128 0x43
 13858 5105 01       		.uleb128 0x1
 13859 5106 52       		.byte	0x52
 13860 5107 02       		.uleb128 0x2
 13861 5108 7A       		.byte	0x7a
 13862 5109 00       		.sleb128 0
 13863 510a 00       		.byte	0
 13864 510b 42       		.uleb128 0x42
 13865 510c D4000000 		.4byte	.LVL324
 13866 5110 FD580000 		.4byte	0x58fd
 13867 5114 43       		.uleb128 0x43
 13868 5115 01       		.uleb128 0x1
 13869 5116 50       		.byte	0x50
 13870 5117 02       		.uleb128 0x2
 13871 5118 74       		.byte	0x74
 13872 5119 00       		.sleb128 0
 13873 511a 43       		.uleb128 0x43
 13874 511b 01       		.uleb128 0x1
 13875 511c 51       		.byte	0x51
 13876 511d 06       		.uleb128 0x6
 13877 511e 11       		.byte	0x11
 13878 511f 80C08080 		.sleb128 -536862720
 13878      7E
 13879 5124 43       		.uleb128 0x43
 13880 5125 01       		.uleb128 0x1
 13881 5126 52       		.byte	0x52
 13882 5127 01       		.uleb128 0x1
 13883 5128 33       		.byte	0x33
 13884 5129 00       		.byte	0
 13885 512a 00       		.byte	0
 13886 512b 4B       		.uleb128 0x4b
 13887 512c 7C0B0000 		.4byte	.LASF850
 13888 5130 01       		.byte	0x1
 13889 5131 0901     		.2byte	0x109
 13890 5133 11170000 		.4byte	0x1711
 13891 5137 00000000 		.4byte	.LFB270
 13892 513b 04020000 		.4byte	.LFE270-.LFB270
 13893 513f 01       		.uleb128 0x1
 13894 5140 9C       		.byte	0x9c
 13895 5141 20540000 		.4byte	0x5420
ARM GAS  /tmp/cchERvVK.s 			page 246


 13896 5145 3B       		.uleb128 0x3b
 13897 5146 617000   		.ascii	"ap\000"
 13898 5149 01       		.byte	0x1
 13899 514a 0901     		.2byte	0x109
 13900 514c BC390000 		.4byte	0x39bc
 13901 5150 DA120000 		.4byte	.LLST123
 13902 5154 3C       		.uleb128 0x3c
 13903 5155 DB1B0000 		.4byte	.LASF851
 13904 5159 01       		.byte	0x1
 13905 515a 0901     		.2byte	0x109
 13906 515c 11170000 		.4byte	0x1711
 13907 5160 38130000 		.4byte	.LLST124
 13908 5164 3E       		.uleb128 0x3e
 13909 5165 7400     		.ascii	"t\000"
 13910 5167 01       		.byte	0x1
 13911 5168 0B01     		.2byte	0x10b
 13912 516a EB330000 		.4byte	0x33eb
 13913 516e 59130000 		.4byte	.LLST125
 13914 5172 45       		.uleb128 0x45
 13915 5173 04020000 		.4byte	.LASF689
 13916 5177 01       		.byte	0x1
 13917 5178 1201     		.2byte	0x112
 13918 517a 5B3C0000 		.4byte	0x3c5b
 13919 517e 77130000 		.4byte	.LLST126
 13920 5182 45       		.uleb128 0x45
 13921 5183 51240000 		.4byte	.LASF852
 13922 5187 01       		.byte	0x1
 13923 5188 3101     		.2byte	0x131
 13924 518a D2000000 		.4byte	0xd2
 13925 518e AB130000 		.4byte	.LLST127
 13926 5192 3E       		.uleb128 0x3e
 13927 5193 63747200 		.ascii	"ctr\000"
 13928 5197 01       		.byte	0x1
 13929 5198 3F01     		.2byte	0x13f
 13930 519a D2000000 		.4byte	0xd2
 13931 519e C9130000 		.4byte	.LLST128
 13932 51a2 41       		.uleb128 0x41
 13933 51a3 0C000000 		.4byte	.LVL353
 13934 51a7 355A0000 		.4byte	0x5a35
 13935 51ab 44       		.uleb128 0x44
 13936 51ac 14000000 		.4byte	.LVL356
 13937 51b0 64590000 		.4byte	0x5964
 13938 51b4 C2510000 		.4byte	0x51c2
 13939 51b8 43       		.uleb128 0x43
 13940 51b9 01       		.uleb128 0x1
 13941 51ba 50       		.byte	0x50
 13942 51bb 05       		.uleb128 0x5
 13943 51bc 03       		.byte	0x3
 13944 51bd 00000000 		.4byte	.LC18
 13945 51c1 00       		.byte	0
 13946 51c2 44       		.uleb128 0x44
 13947 51c3 1A000000 		.4byte	.LVL357
 13948 51c7 405A0000 		.4byte	0x5a40
 13949 51cb D6510000 		.4byte	0x51d6
 13950 51cf 43       		.uleb128 0x43
 13951 51d0 01       		.uleb128 0x1
 13952 51d1 50       		.byte	0x50
ARM GAS  /tmp/cchERvVK.s 			page 247


 13953 51d2 02       		.uleb128 0x2
 13954 51d3 76       		.byte	0x76
 13955 51d4 00       		.sleb128 0
 13956 51d5 00       		.byte	0
 13957 51d6 44       		.uleb128 0x44
 13958 51d7 22000000 		.4byte	.LVL358
 13959 51db 4B5A0000 		.4byte	0x5a4b
 13960 51df EF510000 		.4byte	0x51ef
 13961 51e3 43       		.uleb128 0x43
 13962 51e4 01       		.uleb128 0x1
 13963 51e5 50       		.byte	0x50
 13964 51e6 01       		.uleb128 0x1
 13965 51e7 31       		.byte	0x31
 13966 51e8 43       		.uleb128 0x43
 13967 51e9 01       		.uleb128 0x1
 13968 51ea 51       		.byte	0x51
 13969 51eb 02       		.uleb128 0x2
 13970 51ec 08       		.byte	0x8
 13971 51ed 2C       		.byte	0x2c
 13972 51ee 00       		.byte	0
 13973 51ef 44       		.uleb128 0x44
 13974 51f0 82000000 		.4byte	.LVL361
 13975 51f4 565A0000 		.4byte	0x5a56
 13976 51f8 15520000 		.4byte	0x5215
 13977 51fc 43       		.uleb128 0x43
 13978 51fd 01       		.uleb128 0x1
 13979 51fe 50       		.byte	0x50
 13980 51ff 02       		.uleb128 0x2
 13981 5200 74       		.byte	0x74
 13982 5201 00       		.sleb128 0
 13983 5202 43       		.uleb128 0x43
 13984 5203 01       		.uleb128 0x1
 13985 5204 51       		.byte	0x51
 13986 5205 05       		.uleb128 0x5
 13987 5206 03       		.byte	0x3
 13988 5207 00000000 		.4byte	.LANCHOR6
 13989 520b 43       		.uleb128 0x43
 13990 520c 01       		.uleb128 0x1
 13991 520d 52       		.byte	0x52
 13992 520e 05       		.uleb128 0x5
 13993 520f 03       		.byte	0x3
 13994 5210 00000000 		.4byte	.LANCHOR4
 13995 5214 00       		.byte	0
 13996 5215 44       		.uleb128 0x44
 13997 5216 8A000000 		.4byte	.LVL362
 13998 521a DD590000 		.4byte	0x59dd
 13999 521e 33520000 		.4byte	0x5233
 14000 5222 43       		.uleb128 0x43
 14001 5223 01       		.uleb128 0x1
 14002 5224 50       		.byte	0x50
 14003 5225 02       		.uleb128 0x2
 14004 5226 74       		.byte	0x74
 14005 5227 00       		.sleb128 0
 14006 5228 43       		.uleb128 0x43
 14007 5229 01       		.uleb128 0x1
 14008 522a 51       		.byte	0x51
 14009 522b 06       		.uleb128 0x6
ARM GAS  /tmp/cchERvVK.s 			page 248


 14010 522c 11       		.byte	0x11
 14011 522d 88DB8380 		.sleb128 -536810104
 14011      7E
 14012 5232 00       		.byte	0
 14013 5233 44       		.uleb128 0x44
 14014 5234 98000000 		.4byte	.LVL364
 14015 5238 FD580000 		.4byte	0x58fd
 14016 523c 57520000 		.4byte	0x5257
 14017 5240 43       		.uleb128 0x43
 14018 5241 01       		.uleb128 0x1
 14019 5242 50       		.byte	0x50
 14020 5243 02       		.uleb128 0x2
 14021 5244 74       		.byte	0x74
 14022 5245 00       		.sleb128 0
 14023 5246 43       		.uleb128 0x43
 14024 5247 01       		.uleb128 0x1
 14025 5248 51       		.byte	0x51
 14026 5249 06       		.uleb128 0x6
 14027 524a 11       		.byte	0x11
 14028 524b 88DB8380 		.sleb128 -536810104
 14028      7E
 14029 5250 43       		.uleb128 0x43
 14030 5251 01       		.uleb128 0x1
 14031 5252 52       		.byte	0x52
 14032 5253 02       		.uleb128 0x2
 14033 5254 78       		.byte	0x78
 14034 5255 00       		.sleb128 0
 14035 5256 00       		.byte	0
 14036 5257 44       		.uleb128 0x44
 14037 5258 A0000000 		.4byte	.LVL365
 14038 525c DD590000 		.4byte	0x59dd
 14039 5260 75520000 		.4byte	0x5275
 14040 5264 43       		.uleb128 0x43
 14041 5265 01       		.uleb128 0x1
 14042 5266 50       		.byte	0x50
 14043 5267 02       		.uleb128 0x2
 14044 5268 74       		.byte	0x74
 14045 5269 00       		.sleb128 0
 14046 526a 43       		.uleb128 0x43
 14047 526b 01       		.uleb128 0x1
 14048 526c 51       		.byte	0x51
 14049 526d 06       		.uleb128 0x6
 14050 526e 11       		.byte	0x11
 14051 526f 88DB8380 		.sleb128 -536810104
 14051      7E
 14052 5274 00       		.byte	0
 14053 5275 44       		.uleb128 0x44
 14054 5276 C2000000 		.4byte	.LVL366
 14055 527a DD590000 		.4byte	0x59dd
 14056 527e 93520000 		.4byte	0x5293
 14057 5282 43       		.uleb128 0x43
 14058 5283 01       		.uleb128 0x1
 14059 5284 50       		.byte	0x50
 14060 5285 02       		.uleb128 0x2
 14061 5286 74       		.byte	0x74
 14062 5287 00       		.sleb128 0
 14063 5288 43       		.uleb128 0x43
ARM GAS  /tmp/cchERvVK.s 			page 249


 14064 5289 01       		.uleb128 0x1
 14065 528a 51       		.byte	0x51
 14066 528b 06       		.uleb128 0x6
 14067 528c 11       		.byte	0x11
 14068 528d FCDA8380 		.sleb128 -536810116
 14068      7E
 14069 5292 00       		.byte	0
 14070 5293 44       		.uleb128 0x44
 14071 5294 E6000000 		.4byte	.LVL368
 14072 5298 615A0000 		.4byte	0x5a61
 14073 529c A7520000 		.4byte	0x52a7
 14074 52a0 43       		.uleb128 0x43
 14075 52a1 01       		.uleb128 0x1
 14076 52a2 50       		.byte	0x50
 14077 52a3 02       		.uleb128 0x2
 14078 52a4 74       		.byte	0x74
 14079 52a5 00       		.sleb128 0
 14080 52a6 00       		.byte	0
 14081 52a7 44       		.uleb128 0x44
 14082 52a8 F2000000 		.4byte	.LVL371
 14083 52ac 22590000 		.4byte	0x5922
 14084 52b0 BB520000 		.4byte	0x52bb
 14085 52b4 43       		.uleb128 0x43
 14086 52b5 01       		.uleb128 0x1
 14087 52b6 50       		.byte	0x50
 14088 52b7 02       		.uleb128 0x2
 14089 52b8 74       		.byte	0x74
 14090 52b9 00       		.sleb128 0
 14091 52ba 00       		.byte	0
 14092 52bb 44       		.uleb128 0x44
 14093 52bc F8000000 		.4byte	.LVL372
 14094 52c0 6C5A0000 		.4byte	0x5a6c
 14095 52c4 CF520000 		.4byte	0x52cf
 14096 52c8 43       		.uleb128 0x43
 14097 52c9 01       		.uleb128 0x1
 14098 52ca 50       		.byte	0x50
 14099 52cb 02       		.uleb128 0x2
 14100 52cc 74       		.byte	0x74
 14101 52cd 00       		.sleb128 0
 14102 52ce 00       		.byte	0
 14103 52cf 44       		.uleb128 0x44
 14104 52d0 06010000 		.4byte	.LVL373
 14105 52d4 22590000 		.4byte	0x5922
 14106 52d8 E3520000 		.4byte	0x52e3
 14107 52dc 43       		.uleb128 0x43
 14108 52dd 01       		.uleb128 0x1
 14109 52de 50       		.byte	0x50
 14110 52df 02       		.uleb128 0x2
 14111 52e0 74       		.byte	0x74
 14112 52e1 00       		.sleb128 0
 14113 52e2 00       		.byte	0
 14114 52e3 44       		.uleb128 0x44
 14115 52e4 0C010000 		.4byte	.LVL374
 14116 52e8 775A0000 		.4byte	0x5a77
 14117 52ec F7520000 		.4byte	0x52f7
 14118 52f0 43       		.uleb128 0x43
 14119 52f1 01       		.uleb128 0x1
ARM GAS  /tmp/cchERvVK.s 			page 250


 14120 52f2 50       		.byte	0x50
 14121 52f3 02       		.uleb128 0x2
 14122 52f4 74       		.byte	0x74
 14123 52f5 00       		.sleb128 0
 14124 52f6 00       		.byte	0
 14125 52f7 44       		.uleb128 0x44
 14126 52f8 1A010000 		.4byte	.LVL375
 14127 52fc 22590000 		.4byte	0x5922
 14128 5300 0B530000 		.4byte	0x530b
 14129 5304 43       		.uleb128 0x43
 14130 5305 01       		.uleb128 0x1
 14131 5306 50       		.byte	0x50
 14132 5307 02       		.uleb128 0x2
 14133 5308 74       		.byte	0x74
 14134 5309 00       		.sleb128 0
 14135 530a 00       		.byte	0
 14136 530b 44       		.uleb128 0x44
 14137 530c 20010000 		.4byte	.LVL376
 14138 5310 825A0000 		.4byte	0x5a82
 14139 5314 1F530000 		.4byte	0x531f
 14140 5318 43       		.uleb128 0x43
 14141 5319 01       		.uleb128 0x1
 14142 531a 50       		.byte	0x50
 14143 531b 02       		.uleb128 0x2
 14144 531c 74       		.byte	0x74
 14145 531d 00       		.sleb128 0
 14146 531e 00       		.byte	0
 14147 531f 44       		.uleb128 0x44
 14148 5320 2C010000 		.4byte	.LVL377
 14149 5324 22590000 		.4byte	0x5922
 14150 5328 33530000 		.4byte	0x5333
 14151 532c 43       		.uleb128 0x43
 14152 532d 01       		.uleb128 0x1
 14153 532e 50       		.byte	0x50
 14154 532f 02       		.uleb128 0x2
 14155 5330 74       		.byte	0x74
 14156 5331 00       		.sleb128 0
 14157 5332 00       		.byte	0
 14158 5333 44       		.uleb128 0x44
 14159 5334 32010000 		.4byte	.LVL378
 14160 5338 8D5A0000 		.4byte	0x5a8d
 14161 533c 47530000 		.4byte	0x5347
 14162 5340 43       		.uleb128 0x43
 14163 5341 01       		.uleb128 0x1
 14164 5342 50       		.byte	0x50
 14165 5343 02       		.uleb128 0x2
 14166 5344 74       		.byte	0x74
 14167 5345 00       		.sleb128 0
 14168 5346 00       		.byte	0
 14169 5347 44       		.uleb128 0x44
 14170 5348 3E010000 		.4byte	.LVL379
 14171 534c 22590000 		.4byte	0x5922
 14172 5350 5B530000 		.4byte	0x535b
 14173 5354 43       		.uleb128 0x43
 14174 5355 01       		.uleb128 0x1
 14175 5356 50       		.byte	0x50
 14176 5357 02       		.uleb128 0x2
ARM GAS  /tmp/cchERvVK.s 			page 251


 14177 5358 74       		.byte	0x74
 14178 5359 00       		.sleb128 0
 14179 535a 00       		.byte	0
 14180 535b 44       		.uleb128 0x44
 14181 535c 44010000 		.4byte	.LVL380
 14182 5360 64590000 		.4byte	0x5964
 14183 5364 72530000 		.4byte	0x5372
 14184 5368 43       		.uleb128 0x43
 14185 5369 01       		.uleb128 0x1
 14186 536a 50       		.byte	0x50
 14187 536b 05       		.uleb128 0x5
 14188 536c 03       		.byte	0x3
 14189 536d 18000000 		.4byte	.LC19
 14190 5371 00       		.byte	0
 14191 5372 44       		.uleb128 0x44
 14192 5373 4A010000 		.4byte	.LVL381
 14193 5377 985A0000 		.4byte	0x5a98
 14194 537b 86530000 		.4byte	0x5386
 14195 537f 43       		.uleb128 0x43
 14196 5380 01       		.uleb128 0x1
 14197 5381 50       		.byte	0x50
 14198 5382 02       		.uleb128 0x2
 14199 5383 74       		.byte	0x74
 14200 5384 00       		.sleb128 0
 14201 5385 00       		.byte	0
 14202 5386 44       		.uleb128 0x44
 14203 5387 54010000 		.4byte	.LVL382
 14204 538b 22590000 		.4byte	0x5922
 14205 538f 9A530000 		.4byte	0x539a
 14206 5393 43       		.uleb128 0x43
 14207 5394 01       		.uleb128 0x1
 14208 5395 50       		.byte	0x50
 14209 5396 02       		.uleb128 0x2
 14210 5397 74       		.byte	0x74
 14211 5398 00       		.sleb128 0
 14212 5399 00       		.byte	0
 14213 539a 44       		.uleb128 0x44
 14214 539b 60010000 		.4byte	.LVL383
 14215 539f D2590000 		.4byte	0x59d2
 14216 53a3 B3530000 		.4byte	0x53b3
 14217 53a7 43       		.uleb128 0x43
 14218 53a8 01       		.uleb128 0x1
 14219 53a9 50       		.byte	0x50
 14220 53aa 02       		.uleb128 0x2
 14221 53ab 74       		.byte	0x74
 14222 53ac 00       		.sleb128 0
 14223 53ad 43       		.uleb128 0x43
 14224 53ae 01       		.uleb128 0x1
 14225 53af 51       		.byte	0x51
 14226 53b0 01       		.uleb128 0x1
 14227 53b1 30       		.byte	0x30
 14228 53b2 00       		.byte	0
 14229 53b3 44       		.uleb128 0x44
 14230 53b4 6C010000 		.4byte	.LVL385
 14231 53b8 20540000 		.4byte	0x5420
 14232 53bc C7530000 		.4byte	0x53c7
 14233 53c0 43       		.uleb128 0x43
ARM GAS  /tmp/cchERvVK.s 			page 252


 14234 53c1 01       		.uleb128 0x1
 14235 53c2 50       		.byte	0x50
 14236 53c3 02       		.uleb128 0x2
 14237 53c4 74       		.byte	0x74
 14238 53c5 00       		.sleb128 0
 14239 53c6 00       		.byte	0
 14240 53c7 44       		.uleb128 0x44
 14241 53c8 78010000 		.4byte	.LVL387
 14242 53cc 615A0000 		.4byte	0x5a61
 14243 53d0 DB530000 		.4byte	0x53db
 14244 53d4 43       		.uleb128 0x43
 14245 53d5 01       		.uleb128 0x1
 14246 53d6 50       		.byte	0x50
 14247 53d7 02       		.uleb128 0x2
 14248 53d8 74       		.byte	0x74
 14249 53d9 00       		.sleb128 0
 14250 53da 00       		.byte	0
 14251 53db 44       		.uleb128 0x44
 14252 53dc 88010000 		.4byte	.LVL391
 14253 53e0 22590000 		.4byte	0x5922
 14254 53e4 EF530000 		.4byte	0x53ef
 14255 53e8 43       		.uleb128 0x43
 14256 53e9 01       		.uleb128 0x1
 14257 53ea 50       		.byte	0x50
 14258 53eb 02       		.uleb128 0x2
 14259 53ec 74       		.byte	0x74
 14260 53ed 00       		.sleb128 0
 14261 53ee 00       		.byte	0
 14262 53ef 44       		.uleb128 0x44
 14263 53f0 92010000 		.4byte	.LVL393
 14264 53f4 D2590000 		.4byte	0x59d2
 14265 53f8 09540000 		.4byte	0x5409
 14266 53fc 43       		.uleb128 0x43
 14267 53fd 01       		.uleb128 0x1
 14268 53fe 50       		.byte	0x50
 14269 53ff 02       		.uleb128 0x2
 14270 5400 74       		.byte	0x74
 14271 5401 00       		.sleb128 0
 14272 5402 43       		.uleb128 0x43
 14273 5403 01       		.uleb128 0x1
 14274 5404 51       		.byte	0x51
 14275 5405 02       		.uleb128 0x2
 14276 5406 76       		.byte	0x76
 14277 5407 00       		.sleb128 0
 14278 5408 00       		.byte	0
 14279 5409 42       		.uleb128 0x42
 14280 540a A0010000 		.4byte	.LVL395
 14281 540e D2590000 		.4byte	0x59d2
 14282 5412 43       		.uleb128 0x43
 14283 5413 01       		.uleb128 0x1
 14284 5414 50       		.byte	0x50
 14285 5415 02       		.uleb128 0x2
 14286 5416 74       		.byte	0x74
 14287 5417 00       		.sleb128 0
 14288 5418 43       		.uleb128 0x43
 14289 5419 01       		.uleb128 0x1
 14290 541a 51       		.byte	0x51
ARM GAS  /tmp/cchERvVK.s 			page 253


 14291 541b 02       		.uleb128 0x2
 14292 541c 77       		.byte	0x77
 14293 541d 00       		.sleb128 0
 14294 541e 00       		.byte	0
 14295 541f 00       		.byte	0
 14296 5420 61       		.uleb128 0x61
 14297 5421 21180000 		.4byte	.LASF853
 14298 5425 01       		.byte	0x1
 14299 5426 F5       		.byte	0xf5
 14300 5427 11170000 		.4byte	0x1711
 14301 542b 00000000 		.4byte	.LFB269
 14302 542f 4C000000 		.4byte	.LFE269-.LFB269
 14303 5433 01       		.uleb128 0x1
 14304 5434 9C       		.byte	0x9c
 14305 5435 BB540000 		.4byte	0x54bb
 14306 5439 62       		.uleb128 0x62
 14307 543a 7400     		.ascii	"t\000"
 14308 543c 01       		.byte	0x1
 14309 543d F5       		.byte	0xf5
 14310 543e EB330000 		.4byte	0x33eb
 14311 5442 E7130000 		.4byte	.LLST98
 14312 5446 63       		.uleb128 0x63
 14313 5447 8D200000 		.4byte	.LASF834
 14314 544b 01       		.byte	0x1
 14315 544c F9       		.byte	0xf9
 14316 544d D2000000 		.4byte	0xd2
 14317 5451 6B140000 		.4byte	.LLST99
 14318 5455 63       		.uleb128 0x63
 14319 5456 F9010000 		.4byte	.LASF854
 14320 545a 01       		.byte	0x1
 14321 545b FA       		.byte	0xfa
 14322 545c D2000000 		.4byte	0xd2
 14323 5460 8A140000 		.4byte	.LLST100
 14324 5464 44       		.uleb128 0x44
 14325 5465 08000000 		.4byte	.LVL289
 14326 5469 2A5A0000 		.4byte	0x5a2a
 14327 546d 78540000 		.4byte	0x5478
 14328 5471 43       		.uleb128 0x43
 14329 5472 01       		.uleb128 0x1
 14330 5473 50       		.byte	0x50
 14331 5474 02       		.uleb128 0x2
 14332 5475 74       		.byte	0x74
 14333 5476 00       		.sleb128 0
 14334 5477 00       		.byte	0
 14335 5478 44       		.uleb128 0x44
 14336 5479 0E000000 		.4byte	.LVL290
 14337 547d 095A0000 		.4byte	0x5a09
 14338 5481 8B540000 		.4byte	0x548b
 14339 5485 43       		.uleb128 0x43
 14340 5486 01       		.uleb128 0x1
 14341 5487 50       		.byte	0x50
 14342 5488 01       		.uleb128 0x1
 14343 5489 30       		.byte	0x30
 14344 548a 00       		.byte	0
 14345 548b 41       		.uleb128 0x41
 14346 548c 12000000 		.4byte	.LVL291
 14347 5490 A35A0000 		.4byte	0x5aa3
ARM GAS  /tmp/cchERvVK.s 			page 254


 14348 5494 41       		.uleb128 0x41
 14349 5495 1E000000 		.4byte	.LVL294
 14350 5499 DD590000 		.4byte	0x59dd
 14351 549d 44       		.uleb128 0x44
 14352 549e 2A000000 		.4byte	.LVL297
 14353 54a2 2A5A0000 		.4byte	0x5a2a
 14354 54a6 B1540000 		.4byte	0x54b1
 14355 54aa 43       		.uleb128 0x43
 14356 54ab 01       		.uleb128 0x1
 14357 54ac 50       		.byte	0x50
 14358 54ad 02       		.uleb128 0x2
 14359 54ae 74       		.byte	0x74
 14360 54af 00       		.sleb128 0
 14361 54b0 00       		.byte	0
 14362 54b1 41       		.uleb128 0x41
 14363 54b2 2E000000 		.4byte	.LVL298
 14364 54b6 A35A0000 		.4byte	0x5aa3
 14365 54ba 00       		.byte	0
 14366 54bb 64       		.uleb128 0x64
 14367 54bc A6210000 		.4byte	.LASF855
 14368 54c0 01       		.byte	0x1
 14369 54c1 EF       		.byte	0xef
 14370 54c2 00000000 		.4byte	.LFB268
 14371 54c6 14000000 		.4byte	.LFE268-.LFB268
 14372 54ca 01       		.uleb128 0x1
 14373 54cb 9C       		.byte	0x9c
 14374 54cc FA540000 		.4byte	0x54fa
 14375 54d0 65       		.uleb128 0x65
 14376 54d1 04020000 		.4byte	.LASF689
 14377 54d5 01       		.byte	0x1
 14378 54d6 EF       		.byte	0xef
 14379 54d7 AB010000 		.4byte	0x1ab
 14380 54db A8140000 		.4byte	.LLST97
 14381 54df 41       		.uleb128 0x41
 14382 54e0 0A000000 		.4byte	.LVL285
 14383 54e4 AE5A0000 		.4byte	0x5aae
 14384 54e8 52       		.uleb128 0x52
 14385 54e9 14000000 		.4byte	.LVL287
 14386 54ed B95A0000 		.4byte	0x5ab9
 14387 54f1 43       		.uleb128 0x43
 14388 54f2 01       		.uleb128 0x1
 14389 54f3 50       		.byte	0x50
 14390 54f4 03       		.uleb128 0x3
 14391 54f5 F3       		.byte	0xf3
 14392 54f6 01       		.uleb128 0x1
 14393 54f7 50       		.byte	0x50
 14394 54f8 00       		.byte	0
 14395 54f9 00       		.byte	0
 14396 54fa 66       		.uleb128 0x66
 14397 54fb 11220000 		.4byte	.LASF856
 14398 54ff 01       		.byte	0x1
 14399 5500 E9       		.byte	0xe9
 14400 5501 11170000 		.4byte	0x1711
 14401 5505 00000000 		.4byte	.LFB267
 14402 5509 14000000 		.4byte	.LFE267-.LFB267
 14403 550d 01       		.uleb128 0x1
 14404 550e 9C       		.byte	0x9c
ARM GAS  /tmp/cchERvVK.s 			page 255


 14405 550f 5D550000 		.4byte	0x555d
 14406 5513 62       		.uleb128 0x62
 14407 5514 7400     		.ascii	"t\000"
 14408 5516 01       		.byte	0x1
 14409 5517 E9       		.byte	0xe9
 14410 5518 EB330000 		.4byte	0x33eb
 14411 551c DF140000 		.4byte	.LLST0
 14412 5520 67       		.uleb128 0x67
 14413 5521 617000   		.ascii	"ap\000"
 14414 5524 01       		.byte	0x1
 14415 5525 EB       		.byte	0xeb
 14416 5526 BC390000 		.4byte	0x39bc
 14417 552a 68       		.uleb128 0x68
 14418 552b 51570000 		.4byte	0x5751
 14419 552f 02000000 		.4byte	.LBB52
 14420 5533 02000000 		.4byte	.LBE52-.LBB52
 14421 5537 01       		.byte	0x1
 14422 5538 EB       		.byte	0xeb
 14423 5539 43550000 		.4byte	0x5543
 14424 553d 5D       		.uleb128 0x5d
 14425 553e 61570000 		.4byte	0x5761
 14426 5542 00       		.byte	0
 14427 5543 69       		.uleb128 0x69
 14428 5544 A7570000 		.4byte	0x57a7
 14429 5548 08000000 		.4byte	.LBB54
 14430 554c 04000000 		.4byte	.LBE54-.LBB54
 14431 5550 01       		.byte	0x1
 14432 5551 EC       		.byte	0xec
 14433 5552 47       		.uleb128 0x47
 14434 5553 B7570000 		.4byte	0x57b7
 14435 5557 00150000 		.4byte	.LLST1
 14436 555b 00       		.byte	0
 14437 555c 00       		.byte	0
 14438 555d 64       		.uleb128 0x64
 14439 555e 61240000 		.4byte	.LASF857
 14440 5562 01       		.byte	0x1
 14441 5563 E3       		.byte	0xe3
 14442 5564 00000000 		.4byte	.LFB266
 14443 5568 30000000 		.4byte	.LFE266-.LFB266
 14444 556c 01       		.uleb128 0x1
 14445 556d 9C       		.byte	0x9c
 14446 556e 14560000 		.4byte	0x5614
 14447 5572 62       		.uleb128 0x62
 14448 5573 7400     		.ascii	"t\000"
 14449 5575 01       		.byte	0x1
 14450 5576 E3       		.byte	0xe3
 14451 5577 EB330000 		.4byte	0x33eb
 14452 557b 13150000 		.4byte	.LLST114
 14453 557f 65       		.uleb128 0x65
 14454 5580 09060000 		.4byte	.LASF843
 14455 5584 01       		.byte	0x1
 14456 5585 E3       		.byte	0xe3
 14457 5586 B1310000 		.4byte	0x31b1
 14458 558a 3F150000 		.4byte	.LLST115
 14459 558e 62       		.uleb128 0x62
 14460 558f 73726300 		.ascii	"src\000"
 14461 5593 01       		.byte	0x1
ARM GAS  /tmp/cchERvVK.s 			page 256


 14462 5594 E3       		.byte	0xe3
 14463 5595 34090000 		.4byte	0x934
 14464 5599 81150000 		.4byte	.LLST116
 14465 559d 62       		.uleb128 0x62
 14466 559e 6C656E00 		.ascii	"len\000"
 14467 55a2 01       		.byte	0x1
 14468 55a3 E3       		.byte	0xe3
 14469 55a4 F2000000 		.4byte	0xf2
 14470 55a8 B8150000 		.4byte	.LLST117
 14471 55ac 68       		.uleb128 0x68
 14472 55ad 51570000 		.4byte	0x5751
 14473 55b1 1C000000 		.4byte	.LBB143
 14474 55b5 02000000 		.4byte	.LBE143-.LBB143
 14475 55b9 01       		.byte	0x1
 14476 55ba E6       		.byte	0xe6
 14477 55bb C5550000 		.4byte	0x55c5
 14478 55bf 5D       		.uleb128 0x5d
 14479 55c0 61570000 		.4byte	0x5761
 14480 55c4 00       		.byte	0
 14481 55c5 44       		.uleb128 0x44
 14482 55c6 1C000000 		.4byte	.LVL341
 14483 55ca 0E580000 		.4byte	0x580e
 14484 55ce F4550000 		.4byte	0x55f4
 14485 55d2 43       		.uleb128 0x43
 14486 55d3 01       		.uleb128 0x1
 14487 55d4 51       		.byte	0x51
 14488 55d5 03       		.uleb128 0x3
 14489 55d6 74       		.byte	0x74
 14490 55d7 EC00     		.sleb128 108
 14491 55d9 43       		.uleb128 0x43
 14492 55da 01       		.uleb128 0x1
 14493 55db 52       		.byte	0x52
 14494 55dc 02       		.uleb128 0x2
 14495 55dd 75       		.byte	0x75
 14496 55de 00       		.sleb128 0
 14497 55df 43       		.uleb128 0x43
 14498 55e0 01       		.uleb128 0x1
 14499 55e1 53       		.byte	0x53
 14500 55e2 02       		.uleb128 0x2
 14501 55e3 77       		.byte	0x77
 14502 55e4 00       		.sleb128 0
 14503 55e5 43       		.uleb128 0x43
 14504 55e6 02       		.uleb128 0x2
 14505 55e7 7D       		.byte	0x7d
 14506 55e8 00       		.sleb128 0
 14507 55e9 01       		.uleb128 0x1
 14508 55ea 31       		.byte	0x31
 14509 55eb 5E       		.uleb128 0x5e
 14510 55ec D7560000 		.4byte	0x56d7
 14511 55f0 02       		.uleb128 0x2
 14512 55f1 74       		.byte	0x74
 14513 55f2 00       		.sleb128 0
 14514 55f3 00       		.byte	0
 14515 55f4 52       		.uleb128 0x52
 14516 55f5 30000000 		.4byte	.LVL343
 14517 55f9 C45A0000 		.4byte	0x5ac4
 14518 55fd 43       		.uleb128 0x43
ARM GAS  /tmp/cchERvVK.s 			page 257


 14519 55fe 01       		.uleb128 0x1
 14520 55ff 51       		.byte	0x51
 14521 5600 03       		.uleb128 0x3
 14522 5601 F3       		.byte	0xf3
 14523 5602 01       		.uleb128 0x1
 14524 5603 51       		.byte	0x51
 14525 5604 43       		.uleb128 0x43
 14526 5605 01       		.uleb128 0x1
 14527 5606 52       		.byte	0x52
 14528 5607 03       		.uleb128 0x3
 14529 5608 F3       		.byte	0xf3
 14530 5609 01       		.uleb128 0x1
 14531 560a 52       		.byte	0x52
 14532 560b 43       		.uleb128 0x43
 14533 560c 01       		.uleb128 0x1
 14534 560d 53       		.byte	0x53
 14535 560e 03       		.uleb128 0x3
 14536 560f F3       		.byte	0xf3
 14537 5610 01       		.uleb128 0x1
 14538 5611 53       		.byte	0x53
 14539 5612 00       		.byte	0
 14540 5613 00       		.byte	0
 14541 5614 64       		.uleb128 0x64
 14542 5615 FA160000 		.4byte	.LASF858
 14543 5619 01       		.byte	0x1
 14544 561a DD       		.byte	0xdd
 14545 561b 00000000 		.4byte	.LFB265
 14546 561f 2E000000 		.4byte	.LFE265-.LFB265
 14547 5623 01       		.uleb128 0x1
 14548 5624 9C       		.byte	0x9c
 14549 5625 CB560000 		.4byte	0x56cb
 14550 5629 62       		.uleb128 0x62
 14551 562a 7400     		.ascii	"t\000"
 14552 562c 01       		.byte	0x1
 14553 562d DD       		.byte	0xdd
 14554 562e EB330000 		.4byte	0x33eb
 14555 5632 EF150000 		.4byte	.LLST118
 14556 5636 65       		.uleb128 0x65
 14557 5637 09060000 		.4byte	.LASF843
 14558 563b 01       		.byte	0x1
 14559 563c DD       		.byte	0xdd
 14560 563d AB010000 		.4byte	0x1ab
 14561 5641 1B160000 		.4byte	.LLST119
 14562 5645 62       		.uleb128 0x62
 14563 5646 73726300 		.ascii	"src\000"
 14564 564a 01       		.byte	0x1
 14565 564b DD       		.byte	0xdd
 14566 564c B1310000 		.4byte	0x31b1
 14567 5650 52160000 		.4byte	.LLST120
 14568 5654 62       		.uleb128 0x62
 14569 5655 6C656E00 		.ascii	"len\000"
 14570 5659 01       		.byte	0x1
 14571 565a DD       		.byte	0xdd
 14572 565b F2000000 		.4byte	0xf2
 14573 565f 89160000 		.4byte	.LLST121
 14574 5663 68       		.uleb128 0x68
 14575 5664 51570000 		.4byte	0x5751
ARM GAS  /tmp/cchERvVK.s 			page 258


 14576 5668 1A000000 		.4byte	.LBB145
 14577 566c 02000000 		.4byte	.LBE145-.LBB145
 14578 5670 01       		.byte	0x1
 14579 5671 E0       		.byte	0xe0
 14580 5672 7C560000 		.4byte	0x567c
 14581 5676 5D       		.uleb128 0x5d
 14582 5677 61570000 		.4byte	0x5761
 14583 567b 00       		.byte	0
 14584 567c 44       		.uleb128 0x44
 14585 567d 1A000000 		.4byte	.LVL347
 14586 5681 0E580000 		.4byte	0x580e
 14587 5685 AB560000 		.4byte	0x56ab
 14588 5689 43       		.uleb128 0x43
 14589 568a 01       		.uleb128 0x1
 14590 568b 51       		.byte	0x51
 14591 568c 03       		.uleb128 0x3
 14592 568d 74       		.byte	0x74
 14593 568e EC00     		.sleb128 108
 14594 5690 43       		.uleb128 0x43
 14595 5691 01       		.uleb128 0x1
 14596 5692 52       		.byte	0x52
 14597 5693 02       		.uleb128 0x2
 14598 5694 76       		.byte	0x76
 14599 5695 00       		.sleb128 0
 14600 5696 43       		.uleb128 0x43
 14601 5697 01       		.uleb128 0x1
 14602 5698 53       		.byte	0x53
 14603 5699 02       		.uleb128 0x2
 14604 569a 77       		.byte	0x77
 14605 569b 00       		.sleb128 0
 14606 569c 43       		.uleb128 0x43
 14607 569d 02       		.uleb128 0x2
 14608 569e 7D       		.byte	0x7d
 14609 569f 00       		.sleb128 0
 14610 56a0 01       		.uleb128 0x1
 14611 56a1 30       		.byte	0x30
 14612 56a2 5E       		.uleb128 0x5e
 14613 56a3 D7560000 		.4byte	0x56d7
 14614 56a7 02       		.uleb128 0x2
 14615 56a8 74       		.byte	0x74
 14616 56a9 00       		.sleb128 0
 14617 56aa 00       		.byte	0
 14618 56ab 52       		.uleb128 0x52
 14619 56ac 2E000000 		.4byte	.LVL349
 14620 56b0 CF5A0000 		.4byte	0x5acf
 14621 56b4 43       		.uleb128 0x43
 14622 56b5 01       		.uleb128 0x1
 14623 56b6 51       		.byte	0x51
 14624 56b7 03       		.uleb128 0x3
 14625 56b8 F3       		.byte	0xf3
 14626 56b9 01       		.uleb128 0x1
 14627 56ba 51       		.byte	0x51
 14628 56bb 43       		.uleb128 0x43
 14629 56bc 01       		.uleb128 0x1
 14630 56bd 52       		.byte	0x52
 14631 56be 03       		.uleb128 0x3
 14632 56bf F3       		.byte	0xf3
ARM GAS  /tmp/cchERvVK.s 			page 259


 14633 56c0 01       		.uleb128 0x1
 14634 56c1 52       		.byte	0x52
 14635 56c2 43       		.uleb128 0x43
 14636 56c3 01       		.uleb128 0x1
 14637 56c4 53       		.byte	0x53
 14638 56c5 03       		.uleb128 0x3
 14639 56c6 F3       		.byte	0xf3
 14640 56c7 01       		.uleb128 0x1
 14641 56c8 53       		.byte	0x53
 14642 56c9 00       		.byte	0
 14643 56ca 00       		.byte	0
 14644 56cb 6A       		.uleb128 0x6a
 14645 56cc E7210000 		.4byte	.LASF860
 14646 56d0 01       		.byte	0x1
 14647 56d1 C4       		.byte	0xc4
 14648 56d2 01       		.byte	0x1
 14649 56d3 51570000 		.4byte	0x5751
 14650 56d7 6B       		.uleb128 0x6b
 14651 56d8 7400     		.ascii	"t\000"
 14652 56da 01       		.byte	0x1
 14653 56db C4       		.byte	0xc4
 14654 56dc EB330000 		.4byte	0x33eb
 14655 56e0 6C       		.uleb128 0x6c
 14656 56e1 12100000 		.4byte	.LASF393
 14657 56e5 01       		.byte	0x1
 14658 56e6 C4       		.byte	0xc4
 14659 56e7 B1310000 		.4byte	0x31b1
 14660 56eb 6B       		.uleb128 0x6b
 14661 56ec 6C656E00 		.ascii	"len\000"
 14662 56f0 01       		.byte	0x1
 14663 56f1 C4       		.byte	0xc4
 14664 56f2 F2000000 		.4byte	0xf2
 14665 56f6 6C       		.uleb128 0x6c
 14666 56f7 77060000 		.4byte	.LASF861
 14667 56fb 01       		.byte	0x1
 14668 56fc C4       		.byte	0xc4
 14669 56fd 11170000 		.4byte	0x1711
 14670 5701 6D       		.uleb128 0x6d
 14671 5702 04020000 		.4byte	.LASF689
 14672 5706 01       		.byte	0x1
 14673 5707 C6       		.byte	0xc6
 14674 5708 5B3C0000 		.4byte	0x3c5b
 14675 570c 6D       		.uleb128 0x6d
 14676 570d 82090000 		.4byte	.LASF862
 14677 5711 01       		.byte	0x1
 14678 5712 C9       		.byte	0xc9
 14679 5713 D2000000 		.4byte	0xd2
 14680 5717 6D       		.uleb128 0x6d
 14681 5718 591E0000 		.4byte	.LASF863
 14682 571c 01       		.byte	0x1
 14683 571d CA       		.byte	0xca
 14684 571e F2000000 		.4byte	0xf2
 14685 5722 6D       		.uleb128 0x6d
 14686 5723 BE260000 		.4byte	.LASF864
 14687 5727 01       		.byte	0x1
 14688 5728 CD       		.byte	0xcd
 14689 5729 B1310000 		.4byte	0x31b1
ARM GAS  /tmp/cchERvVK.s 			page 260


 14690 572d 38       		.uleb128 0x38
 14691 572e 67       		.uleb128 0x67
 14692 572f 7200     		.ascii	"r\000"
 14693 5731 01       		.byte	0x1
 14694 5732 CF       		.byte	0xcf
 14695 5733 83350000 		.4byte	0x3583
 14696 5737 38       		.uleb128 0x38
 14697 5738 67       		.uleb128 0x67
 14698 5739 72616D00 		.ascii	"ram\000"
 14699 573d 01       		.byte	0x1
 14700 573e D0       		.byte	0xd0
 14701 573f B1310000 		.4byte	0x31b1
 14702 5743 6D       		.uleb128 0x6d
 14703 5744 DC030000 		.4byte	.LASF865
 14704 5748 01       		.byte	0x1
 14705 5749 D1       		.byte	0xd1
 14706 574a B1310000 		.4byte	0x31b1
 14707 574e 00       		.byte	0
 14708 574f 00       		.byte	0
 14709 5750 00       		.byte	0
 14710 5751 6E       		.uleb128 0x6e
 14711 5752 9F0A0000 		.4byte	.LASF916
 14712 5756 01       		.byte	0x1
 14713 5757 BF       		.byte	0xbf
 14714 5758 BC390000 		.4byte	0x39bc
 14715 575c 01       		.byte	0x1
 14716 575d 6B570000 		.4byte	0x576b
 14717 5761 6B       		.uleb128 0x6b
 14718 5762 7400     		.ascii	"t\000"
 14719 5764 01       		.byte	0x1
 14720 5765 BF       		.byte	0xbf
 14721 5766 EB330000 		.4byte	0x33eb
 14722 576a 00       		.byte	0
 14723 576b 6F       		.uleb128 0x6f
 14724 576c 65190000 		.4byte	.LASF866
 14725 5770 02       		.byte	0x2
 14726 5771 96       		.byte	0x96
 14727 5772 D2000000 		.4byte	0xd2
 14728 5776 03       		.byte	0x3
 14729 5777 A7570000 		.4byte	0x57a7
 14730 577b 6B       		.uleb128 0x6b
 14731 577c 647000   		.ascii	"dp\000"
 14732 577f 02       		.byte	0x2
 14733 5780 96       		.byte	0x96
 14734 5781 672F0000 		.4byte	0x2f67
 14735 5785 6B       		.uleb128 0x6b
 14736 5786 526E5700 		.ascii	"RnW\000"
 14737 578a 02       		.byte	0x2
 14738 578b 96       		.byte	0x96
 14739 578c A7000000 		.4byte	0xa7
 14740 5790 6C       		.uleb128 0x6c
 14741 5791 12100000 		.4byte	.LASF393
 14742 5795 02       		.byte	0x2
 14743 5796 97       		.byte	0x97
 14744 5797 B7000000 		.4byte	0xb7
 14745 579b 6C       		.uleb128 0x6c
 14746 579c AE0D0000 		.4byte	.LASF867
ARM GAS  /tmp/cchERvVK.s 			page 261


 14747 57a0 02       		.byte	0x2
 14748 57a1 97       		.byte	0x97
 14749 57a2 D2000000 		.4byte	0xd2
 14750 57a6 00       		.byte	0
 14751 57a7 6F       		.uleb128 0x6f
 14752 57a8 730A0000 		.4byte	.LASF868
 14753 57ac 02       		.byte	0x2
 14754 57ad 91       		.byte	0x91
 14755 57ae D2000000 		.4byte	0xd2
 14756 57b2 03       		.byte	0x3
 14757 57b3 C2570000 		.4byte	0x57c2
 14758 57b7 6B       		.uleb128 0x6b
 14759 57b8 647000   		.ascii	"dp\000"
 14760 57bb 02       		.byte	0x2
 14761 57bc 91       		.byte	0x91
 14762 57bd 2D300000 		.4byte	0x302d
 14763 57c1 00       		.byte	0
 14764 57c2 6F       		.uleb128 0x6f
 14765 57c3 2C110000 		.4byte	.LASF869
 14766 57c7 02       		.byte	0x2
 14767 57c8 8C       		.byte	0x8c
 14768 57c9 D2000000 		.4byte	0xd2
 14769 57cd 03       		.byte	0x3
 14770 57ce E8570000 		.4byte	0x57e8
 14771 57d2 6B       		.uleb128 0x6b
 14772 57d3 647000   		.ascii	"dp\000"
 14773 57d6 02       		.byte	0x2
 14774 57d7 8C       		.byte	0x8c
 14775 57d8 2D300000 		.4byte	0x302d
 14776 57dc 6C       		.uleb128 0x6c
 14777 57dd 12100000 		.4byte	.LASF393
 14778 57e1 02       		.byte	0x2
 14779 57e2 8C       		.byte	0x8c
 14780 57e3 B7000000 		.4byte	0xb7
 14781 57e7 00       		.byte	0
 14782 57e8 0C       		.uleb128 0xc
 14783 57e9 D2000000 		.4byte	0xd2
 14784 57ed FB570000 		.4byte	0x57fb
 14785 57f1 4E       		.uleb128 0x4e
 14786 57f2 9B000000 		.4byte	0x9b
 14787 57f6 DA460000 		.4byte	0x46da
 14788 57fa 00       		.byte	0
 14789 57fb 0C       		.uleb128 0xc
 14790 57fc D2000000 		.4byte	0xd2
 14791 5800 0E580000 		.4byte	0x580e
 14792 5804 4E       		.uleb128 0x4e
 14793 5805 9B000000 		.4byte	0x9b
 14794 5809 E3460000 		.4byte	0x46e3
 14795 580d 00       		.byte	0
 14796 580e 70       		.uleb128 0x70
 14797 580f CB560000 		.4byte	0x56cb
 14798 5813 00000000 		.4byte	.LFB292
 14799 5817 84000000 		.4byte	.LFE292-.LFB292
 14800 581b 01       		.uleb128 0x1
 14801 581c 9C       		.byte	0x9c
 14802 581d D5580000 		.4byte	0x58d5
 14803 5821 47       		.uleb128 0x47
ARM GAS  /tmp/cchERvVK.s 			page 262


 14804 5822 E0560000 		.4byte	0x56e0
 14805 5826 C0160000 		.4byte	.LLST105
 14806 582a 47       		.uleb128 0x47
 14807 582b EB560000 		.4byte	0x56eb
 14808 582f EC160000 		.4byte	.LLST106
 14809 5833 47       		.uleb128 0x47
 14810 5834 F6560000 		.4byte	0x56f6
 14811 5838 0D170000 		.4byte	.LLST107
 14812 583c 5D       		.uleb128 0x5d
 14813 583d D7560000 		.4byte	0x56d7
 14814 5841 5D       		.uleb128 0x5d
 14815 5842 D7560000 		.4byte	0x56d7
 14816 5846 49       		.uleb128 0x49
 14817 5847 01570000 		.4byte	0x5701
 14818 584b 2D170000 		.4byte	.LLST108
 14819 584f 49       		.uleb128 0x49
 14820 5850 0C570000 		.4byte	0x570c
 14821 5854 40170000 		.4byte	.LLST109
 14822 5858 49       		.uleb128 0x49
 14823 5859 17570000 		.4byte	0x5717
 14824 585d 53170000 		.4byte	.LLST110
 14825 5861 49       		.uleb128 0x49
 14826 5862 22570000 		.4byte	0x5722
 14827 5866 66170000 		.4byte	.LLST111
 14828 586a 71       		.uleb128 0x71
 14829 586b 2D570000 		.4byte	0x572d
 14830 586f 2A000000 		.4byte	.LBB139
 14831 5873 4C000000 		.4byte	.LBE139-.LBB139
 14832 5877 49       		.uleb128 0x49
 14833 5878 2E570000 		.4byte	0x572e
 14834 587c 79170000 		.4byte	.LLST112
 14835 5880 71       		.uleb128 0x71
 14836 5881 37570000 		.4byte	0x5737
 14837 5885 34000000 		.4byte	.LBB140
 14838 5889 38000000 		.4byte	.LBE140-.LBB140
 14839 588d 55       		.uleb128 0x55
 14840 588e 38570000 		.4byte	0x5738
 14841 5892 02       		.uleb128 0x2
 14842 5893 91       		.byte	0x91
 14843 5894 54       		.sleb128 -44
 14844 5895 49       		.uleb128 0x49
 14845 5896 43570000 		.4byte	0x5743
 14846 589a 8C170000 		.4byte	.LLST113
 14847 589e 68       		.uleb128 0x68
 14848 589f 51570000 		.4byte	0x5751
 14849 58a3 52000000 		.4byte	.LBB141
 14850 58a7 02000000 		.4byte	.LBE141-.LBB141
 14851 58ab 01       		.byte	0x1
 14852 58ac D9       		.byte	0xd9
 14853 58ad B7580000 		.4byte	0x58b7
 14854 58b1 5D       		.uleb128 0x5d
 14855 58b2 61570000 		.4byte	0x5761
 14856 58b6 00       		.byte	0
 14857 58b7 42       		.uleb128 0x42
 14858 58b8 62000000 		.4byte	.LVL333
 14859 58bc C45A0000 		.4byte	0x5ac4
 14860 58c0 43       		.uleb128 0x43
ARM GAS  /tmp/cchERvVK.s 			page 263


 14861 58c1 01       		.uleb128 0x1
 14862 58c2 51       		.byte	0x51
 14863 58c3 02       		.uleb128 0x2
 14864 58c4 77       		.byte	0x77
 14865 58c5 00       		.sleb128 0
 14866 58c6 43       		.uleb128 0x43
 14867 58c7 01       		.uleb128 0x1
 14868 58c8 52       		.byte	0x52
 14869 58c9 02       		.uleb128 0x2
 14870 58ca 91       		.byte	0x91
 14871 58cb 54       		.sleb128 -44
 14872 58cc 43       		.uleb128 0x43
 14873 58cd 01       		.uleb128 0x1
 14874 58ce 53       		.byte	0x53
 14875 58cf 01       		.uleb128 0x1
 14876 58d0 34       		.byte	0x34
 14877 58d1 00       		.byte	0
 14878 58d2 00       		.byte	0
 14879 58d3 00       		.byte	0
 14880 58d4 00       		.byte	0
 14881 58d5 70       		.uleb128 0x70
 14882 58d6 51570000 		.4byte	0x5751
 14883 58da 00000000 		.4byte	.LFB263
 14884 58de 06000000 		.4byte	.LFE263-.LFB263
 14885 58e2 01       		.uleb128 0x1
 14886 58e3 9C       		.byte	0x9c
 14887 58e4 F2580000 		.4byte	0x58f2
 14888 58e8 47       		.uleb128 0x47
 14889 58e9 61570000 		.4byte	0x5761
 14890 58ed 9F170000 		.4byte	.LLST122
 14891 58f1 00       		.byte	0
 14892 58f2 72       		.uleb128 0x72
 14893 58f3 35260000 		.4byte	.LASF870
 14894 58f7 35260000 		.4byte	.LASF870
 14895 58fb 35       		.byte	0x35
 14896 58fc 24       		.byte	0x24
 14897 58fd 72       		.uleb128 0x72
 14898 58fe 081B0000 		.4byte	.LASF871
 14899 5902 081B0000 		.4byte	.LASF871
 14900 5906 32       		.byte	0x32
 14901 5907 87       		.byte	0x87
 14902 5908 72       		.uleb128 0x72
 14903 5909 9C0E0000 		.4byte	.LASF872
 14904 590d 9C0E0000 		.4byte	.LASF872
 14905 5911 32       		.byte	0x32
 14906 5912 8D       		.byte	0x8d
 14907 5913 73       		.uleb128 0x73
 14908 5914 55140000 		.4byte	.LASF917
 14909 5918 B6040000 		.4byte	.LASF918
 14910 591c 0B       		.byte	0xb
 14911 591d 00       		.byte	0
 14912 591e 55140000 		.4byte	.LASF917
 14913 5922 72       		.uleb128 0x72
 14914 5923 FD0A0000 		.4byte	.LASF873
 14915 5927 FD0A0000 		.4byte	.LASF873
 14916 592b 32       		.byte	0x32
 14917 592c 8A       		.byte	0x8a
ARM GAS  /tmp/cchERvVK.s 			page 264


 14918 592d 72       		.uleb128 0x72
 14919 592e 09070000 		.4byte	.LASF874
 14920 5932 09070000 		.4byte	.LASF874
 14921 5936 32       		.byte	0x32
 14922 5937 85       		.byte	0x85
 14923 5938 72       		.uleb128 0x72
 14924 5939 001F0000 		.4byte	.LASF875
 14925 593d 001F0000 		.4byte	.LASF875
 14926 5941 2F       		.byte	0x2f
 14927 5942 47       		.byte	0x47
 14928 5943 72       		.uleb128 0x72
 14929 5944 DD160000 		.4byte	.LASF876
 14930 5948 DD160000 		.4byte	.LASF876
 14931 594c 31       		.byte	0x31
 14932 594d 31       		.byte	0x31
 14933 594e 72       		.uleb128 0x72
 14934 594f CF1D0000 		.4byte	.LASF877
 14935 5953 CF1D0000 		.4byte	.LASF877
 14936 5957 32       		.byte	0x32
 14937 5958 90       		.byte	0x90
 14938 5959 72       		.uleb128 0x72
 14939 595a 53130000 		.4byte	.LASF878
 14940 595e 53130000 		.4byte	.LASF878
 14941 5962 31       		.byte	0x31
 14942 5963 3B       		.byte	0x3b
 14943 5964 72       		.uleb128 0x72
 14944 5965 5E000000 		.4byte	.LASF879
 14945 5969 5E000000 		.4byte	.LASF879
 14946 596d 36       		.byte	0x36
 14947 596e 20       		.byte	0x20
 14948 596f 72       		.uleb128 0x72
 14949 5970 D6020000 		.4byte	.LASF880
 14950 5974 D6020000 		.4byte	.LASF880
 14951 5978 32       		.byte	0x32
 14952 5979 9E       		.byte	0x9e
 14953 597a 72       		.uleb128 0x72
 14954 597b F20B0000 		.4byte	.LASF881
 14955 597f F20B0000 		.4byte	.LASF881
 14956 5983 31       		.byte	0x31
 14957 5984 3C       		.byte	0x3c
 14958 5985 72       		.uleb128 0x72
 14959 5986 BE1B0000 		.4byte	.LASF882
 14960 598a BE1B0000 		.4byte	.LASF882
 14961 598e 32       		.byte	0x32
 14962 598f 97       		.byte	0x97
 14963 5990 72       		.uleb128 0x72
 14964 5991 7F1D0000 		.4byte	.LASF883
 14965 5995 7F1D0000 		.4byte	.LASF883
 14966 5999 32       		.byte	0x32
 14967 599a 99       		.byte	0x99
 14968 599b 72       		.uleb128 0x72
 14969 599c 370E0000 		.4byte	.LASF884
 14970 59a0 370E0000 		.4byte	.LASF884
 14971 59a4 32       		.byte	0x32
 14972 59a5 95       		.byte	0x95
 14973 59a6 72       		.uleb128 0x72
 14974 59a7 2A0A0000 		.4byte	.LASF885
ARM GAS  /tmp/cchERvVK.s 			page 265


 14975 59ab 2A0A0000 		.4byte	.LASF885
 14976 59af 32       		.byte	0x32
 14977 59b0 9D       		.byte	0x9d
 14978 59b1 72       		.uleb128 0x72
 14979 59b2 E61F0000 		.4byte	.LASF886
 14980 59b6 E61F0000 		.4byte	.LASF886
 14981 59ba 32       		.byte	0x32
 14982 59bb 93       		.byte	0x93
 14983 59bc 72       		.uleb128 0x72
 14984 59bd 48240000 		.4byte	.LASF887
 14985 59c1 48240000 		.4byte	.LASF887
 14986 59c5 32       		.byte	0x32
 14987 59c6 94       		.byte	0x94
 14988 59c7 72       		.uleb128 0x72
 14989 59c8 400E0000 		.4byte	.LASF888
 14990 59cc 400E0000 		.4byte	.LASF888
 14991 59d0 32       		.byte	0x32
 14992 59d1 92       		.byte	0x92
 14993 59d2 72       		.uleb128 0x72
 14994 59d3 0B230000 		.4byte	.LASF889
 14995 59d7 0B230000 		.4byte	.LASF889
 14996 59db 31       		.byte	0x31
 14997 59dc 4E       		.byte	0x4e
 14998 59dd 72       		.uleb128 0x72
 14999 59de 47080000 		.4byte	.LASF890
 15000 59e2 47080000 		.4byte	.LASF890
 15001 59e6 32       		.byte	0x32
 15002 59e7 84       		.byte	0x84
 15003 59e8 72       		.uleb128 0x72
 15004 59e9 1E240000 		.4byte	.LASF891
 15005 59ed 1E240000 		.4byte	.LASF891
 15006 59f1 37       		.byte	0x37
 15007 59f2 14       		.byte	0x14
 15008 59f3 72       		.uleb128 0x72
 15009 59f4 CD010000 		.4byte	.LASF892
 15010 59f8 CD010000 		.4byte	.LASF892
 15011 59fc 31       		.byte	0x31
 15012 59fd 26       		.byte	0x26
 15013 59fe 72       		.uleb128 0x72
 15014 59ff 38080000 		.4byte	.LASF893
 15015 5a03 38080000 		.4byte	.LASF893
 15016 5a07 38       		.byte	0x38
 15017 5a08 24       		.byte	0x24
 15018 5a09 72       		.uleb128 0x72
 15019 5a0a 32240000 		.4byte	.LASF894
 15020 5a0e 32240000 		.4byte	.LASF894
 15021 5a12 38       		.byte	0x38
 15022 5a13 28       		.byte	0x28
 15023 5a14 72       		.uleb128 0x72
 15024 5a15 0D260000 		.4byte	.LASF895
 15025 5a19 0D260000 		.4byte	.LASF895
 15026 5a1d 02       		.byte	0x2
 15027 5a1e BD       		.byte	0xbd
 15028 5a1f 72       		.uleb128 0x72
 15029 5a20 06010000 		.4byte	.LASF896
 15030 5a24 06010000 		.4byte	.LASF896
 15031 5a28 02       		.byte	0x2
ARM GAS  /tmp/cchERvVK.s 			page 266


 15032 5a29 B6       		.byte	0xb6
 15033 5a2a 72       		.uleb128 0x72
 15034 5a2b 56170000 		.4byte	.LASF897
 15035 5a2f 56170000 		.4byte	.LASF897
 15036 5a33 31       		.byte	0x31
 15037 5a34 4C       		.byte	0x4c
 15038 5a35 72       		.uleb128 0x72
 15039 5a36 30050000 		.4byte	.LASF898
 15040 5a3a 30050000 		.4byte	.LASF898
 15041 5a3e 32       		.byte	0x32
 15042 5a3f 19       		.byte	0x19
 15043 5a40 72       		.uleb128 0x72
 15044 5a41 681D0000 		.4byte	.LASF899
 15045 5a45 681D0000 		.4byte	.LASF899
 15046 5a49 02       		.byte	0x2
 15047 5a4a B2       		.byte	0xb2
 15048 5a4b 72       		.uleb128 0x72
 15049 5a4c EB1E0000 		.4byte	.LASF900
 15050 5a50 EB1E0000 		.4byte	.LASF900
 15051 5a54 09       		.byte	0x9
 15052 5a55 5A       		.byte	0x5a
 15053 5a56 72       		.uleb128 0x72
 15054 5a57 921A0000 		.4byte	.LASF901
 15055 5a5b 921A0000 		.4byte	.LASF901
 15056 5a5f 32       		.byte	0x32
 15057 5a60 7F       		.byte	0x7f
 15058 5a61 72       		.uleb128 0x72
 15059 5a62 14210000 		.4byte	.LASF902
 15060 5a66 14210000 		.4byte	.LASF902
 15061 5a6a 32       		.byte	0x32
 15062 5a6b A3       		.byte	0xa3
 15063 5a6c 72       		.uleb128 0x72
 15064 5a6d 9B060000 		.4byte	.LASF903
 15065 5a71 9B060000 		.4byte	.LASF903
 15066 5a75 32       		.byte	0x32
 15067 5a76 A4       		.byte	0xa4
 15068 5a77 72       		.uleb128 0x72
 15069 5a78 79190000 		.4byte	.LASF904
 15070 5a7c 79190000 		.4byte	.LASF904
 15071 5a80 32       		.byte	0x32
 15072 5a81 A5       		.byte	0xa5
 15073 5a82 72       		.uleb128 0x72
 15074 5a83 0F1E0000 		.4byte	.LASF905
 15075 5a87 0F1E0000 		.4byte	.LASF905
 15076 5a8b 32       		.byte	0x32
 15077 5a8c A6       		.byte	0xa6
 15078 5a8d 72       		.uleb128 0x72
 15079 5a8e 63150000 		.4byte	.LASF906
 15080 5a92 63150000 		.4byte	.LASF906
 15081 5a96 32       		.byte	0x32
 15082 5a97 A8       		.byte	0xa8
 15083 5a98 72       		.uleb128 0x72
 15084 5a99 95250000 		.4byte	.LASF907
 15085 5a9d 95250000 		.4byte	.LASF907
 15086 5aa1 32       		.byte	0x32
 15087 5aa2 B0       		.byte	0xb0
 15088 5aa3 72       		.uleb128 0x72
ARM GAS  /tmp/cchERvVK.s 			page 267


 15089 5aa4 1C020000 		.4byte	.LASF908
 15090 5aa8 1C020000 		.4byte	.LASF908
 15091 5aac 39       		.byte	0x39
 15092 5aad 1B       		.byte	0x1b
 15093 5aae 72       		.uleb128 0x72
 15094 5aaf 93030000 		.4byte	.LASF909
 15095 5ab3 93030000 		.4byte	.LASF909
 15096 5ab7 02       		.byte	0x2
 15097 5ab8 B4       		.byte	0xb4
 15098 5ab9 72       		.uleb128 0x72
 15099 5aba 62050000 		.4byte	.LASF910
 15100 5abe 62050000 		.4byte	.LASF910
 15101 5ac2 09       		.byte	0x9
 15102 5ac3 5D       		.byte	0x5d
 15103 5ac4 72       		.uleb128 0x72
 15104 5ac5 A8240000 		.4byte	.LASF911
 15105 5ac9 A8240000 		.4byte	.LASF911
 15106 5acd 02       		.byte	0x2
 15107 5ace BC       		.byte	0xbc
 15108 5acf 72       		.uleb128 0x72
 15109 5ad0 601C0000 		.4byte	.LASF912
 15110 5ad4 601C0000 		.4byte	.LASF912
 15111 5ad8 02       		.byte	0x2
 15112 5ad9 BB       		.byte	0xbb
 15113 5ada 00       		.byte	0
 15114              		.section	.debug_abbrev,"",%progbits
 15115              	.Ldebug_abbrev0:
 15116 0000 01       		.uleb128 0x1
 15117 0001 11       		.uleb128 0x11
 15118 0002 01       		.byte	0x1
 15119 0003 25       		.uleb128 0x25
 15120 0004 0E       		.uleb128 0xe
 15121 0005 13       		.uleb128 0x13
 15122 0006 0B       		.uleb128 0xb
 15123 0007 03       		.uleb128 0x3
 15124 0008 0E       		.uleb128 0xe
 15125 0009 1B       		.uleb128 0x1b
 15126 000a 0E       		.uleb128 0xe
 15127 000b 55       		.uleb128 0x55
 15128 000c 17       		.uleb128 0x17
 15129 000d 11       		.uleb128 0x11
 15130 000e 01       		.uleb128 0x1
 15131 000f 10       		.uleb128 0x10
 15132 0010 17       		.uleb128 0x17
 15133 0011 00       		.byte	0
 15134 0012 00       		.byte	0
 15135 0013 02       		.uleb128 0x2
 15136 0014 24       		.uleb128 0x24
 15137 0015 00       		.byte	0
 15138 0016 0B       		.uleb128 0xb
 15139 0017 0B       		.uleb128 0xb
 15140 0018 3E       		.uleb128 0x3e
 15141 0019 0B       		.uleb128 0xb
 15142 001a 03       		.uleb128 0x3
 15143 001b 0E       		.uleb128 0xe
 15144 001c 00       		.byte	0
 15145 001d 00       		.byte	0
ARM GAS  /tmp/cchERvVK.s 			page 268


 15146 001e 03       		.uleb128 0x3
 15147 001f 16       		.uleb128 0x16
 15148 0020 00       		.byte	0
 15149 0021 03       		.uleb128 0x3
 15150 0022 0E       		.uleb128 0xe
 15151 0023 3A       		.uleb128 0x3a
 15152 0024 0B       		.uleb128 0xb
 15153 0025 3B       		.uleb128 0x3b
 15154 0026 0B       		.uleb128 0xb
 15155 0027 49       		.uleb128 0x49
 15156 0028 13       		.uleb128 0x13
 15157 0029 00       		.byte	0
 15158 002a 00       		.byte	0
 15159 002b 04       		.uleb128 0x4
 15160 002c 24       		.uleb128 0x24
 15161 002d 00       		.byte	0
 15162 002e 0B       		.uleb128 0xb
 15163 002f 0B       		.uleb128 0xb
 15164 0030 3E       		.uleb128 0x3e
 15165 0031 0B       		.uleb128 0xb
 15166 0032 03       		.uleb128 0x3
 15167 0033 08       		.uleb128 0x8
 15168 0034 00       		.byte	0
 15169 0035 00       		.byte	0
 15170 0036 05       		.uleb128 0x5
 15171 0037 26       		.uleb128 0x26
 15172 0038 00       		.byte	0
 15173 0039 49       		.uleb128 0x49
 15174 003a 13       		.uleb128 0x13
 15175 003b 00       		.byte	0
 15176 003c 00       		.byte	0
 15177 003d 06       		.uleb128 0x6
 15178 003e 35       		.uleb128 0x35
 15179 003f 00       		.byte	0
 15180 0040 49       		.uleb128 0x49
 15181 0041 13       		.uleb128 0x13
 15182 0042 00       		.byte	0
 15183 0043 00       		.byte	0
 15184 0044 07       		.uleb128 0x7
 15185 0045 0F       		.uleb128 0xf
 15186 0046 00       		.byte	0
 15187 0047 0B       		.uleb128 0xb
 15188 0048 0B       		.uleb128 0xb
 15189 0049 49       		.uleb128 0x49
 15190 004a 13       		.uleb128 0x13
 15191 004b 00       		.byte	0
 15192 004c 00       		.byte	0
 15193 004d 08       		.uleb128 0x8
 15194 004e 13       		.uleb128 0x13
 15195 004f 00       		.byte	0
 15196 0050 03       		.uleb128 0x3
 15197 0051 0E       		.uleb128 0xe
 15198 0052 3C       		.uleb128 0x3c
 15199 0053 19       		.uleb128 0x19
 15200 0054 00       		.byte	0
 15201 0055 00       		.byte	0
 15202 0056 09       		.uleb128 0x9
ARM GAS  /tmp/cchERvVK.s 			page 269


 15203 0057 16       		.uleb128 0x16
 15204 0058 00       		.byte	0
 15205 0059 03       		.uleb128 0x3
 15206 005a 0E       		.uleb128 0xe
 15207 005b 3A       		.uleb128 0x3a
 15208 005c 0B       		.uleb128 0xb
 15209 005d 3B       		.uleb128 0x3b
 15210 005e 05       		.uleb128 0x5
 15211 005f 49       		.uleb128 0x49
 15212 0060 13       		.uleb128 0x13
 15213 0061 00       		.byte	0
 15214 0062 00       		.byte	0
 15215 0063 0A       		.uleb128 0xa
 15216 0064 17       		.uleb128 0x17
 15217 0065 01       		.byte	0x1
 15218 0066 0B       		.uleb128 0xb
 15219 0067 0B       		.uleb128 0xb
 15220 0068 3A       		.uleb128 0x3a
 15221 0069 0B       		.uleb128 0xb
 15222 006a 3B       		.uleb128 0x3b
 15223 006b 0B       		.uleb128 0xb
 15224 006c 01       		.uleb128 0x1
 15225 006d 13       		.uleb128 0x13
 15226 006e 00       		.byte	0
 15227 006f 00       		.byte	0
 15228 0070 0B       		.uleb128 0xb
 15229 0071 0D       		.uleb128 0xd
 15230 0072 00       		.byte	0
 15231 0073 03       		.uleb128 0x3
 15232 0074 0E       		.uleb128 0xe
 15233 0075 3A       		.uleb128 0x3a
 15234 0076 0B       		.uleb128 0xb
 15235 0077 3B       		.uleb128 0x3b
 15236 0078 0B       		.uleb128 0xb
 15237 0079 49       		.uleb128 0x49
 15238 007a 13       		.uleb128 0x13
 15239 007b 00       		.byte	0
 15240 007c 00       		.byte	0
 15241 007d 0C       		.uleb128 0xc
 15242 007e 01       		.uleb128 0x1
 15243 007f 01       		.byte	0x1
 15244 0080 49       		.uleb128 0x49
 15245 0081 13       		.uleb128 0x13
 15246 0082 01       		.uleb128 0x1
 15247 0083 13       		.uleb128 0x13
 15248 0084 00       		.byte	0
 15249 0085 00       		.byte	0
 15250 0086 0D       		.uleb128 0xd
 15251 0087 21       		.uleb128 0x21
 15252 0088 00       		.byte	0
 15253 0089 49       		.uleb128 0x49
 15254 008a 13       		.uleb128 0x13
 15255 008b 2F       		.uleb128 0x2f
 15256 008c 0B       		.uleb128 0xb
 15257 008d 00       		.byte	0
 15258 008e 00       		.byte	0
 15259 008f 0E       		.uleb128 0xe
ARM GAS  /tmp/cchERvVK.s 			page 270


 15260 0090 13       		.uleb128 0x13
 15261 0091 01       		.byte	0x1
 15262 0092 0B       		.uleb128 0xb
 15263 0093 0B       		.uleb128 0xb
 15264 0094 3A       		.uleb128 0x3a
 15265 0095 0B       		.uleb128 0xb
 15266 0096 3B       		.uleb128 0x3b
 15267 0097 0B       		.uleb128 0xb
 15268 0098 01       		.uleb128 0x1
 15269 0099 13       		.uleb128 0x13
 15270 009a 00       		.byte	0
 15271 009b 00       		.byte	0
 15272 009c 0F       		.uleb128 0xf
 15273 009d 0D       		.uleb128 0xd
 15274 009e 00       		.byte	0
 15275 009f 03       		.uleb128 0x3
 15276 00a0 0E       		.uleb128 0xe
 15277 00a1 3A       		.uleb128 0x3a
 15278 00a2 0B       		.uleb128 0xb
 15279 00a3 3B       		.uleb128 0x3b
 15280 00a4 0B       		.uleb128 0xb
 15281 00a5 49       		.uleb128 0x49
 15282 00a6 13       		.uleb128 0x13
 15283 00a7 38       		.uleb128 0x38
 15284 00a8 0B       		.uleb128 0xb
 15285 00a9 00       		.byte	0
 15286 00aa 00       		.byte	0
 15287 00ab 10       		.uleb128 0x10
 15288 00ac 0F       		.uleb128 0xf
 15289 00ad 00       		.byte	0
 15290 00ae 0B       		.uleb128 0xb
 15291 00af 0B       		.uleb128 0xb
 15292 00b0 00       		.byte	0
 15293 00b1 00       		.byte	0
 15294 00b2 11       		.uleb128 0x11
 15295 00b3 13       		.uleb128 0x13
 15296 00b4 01       		.byte	0x1
 15297 00b5 03       		.uleb128 0x3
 15298 00b6 0E       		.uleb128 0xe
 15299 00b7 0B       		.uleb128 0xb
 15300 00b8 0B       		.uleb128 0xb
 15301 00b9 3A       		.uleb128 0x3a
 15302 00ba 0B       		.uleb128 0xb
 15303 00bb 3B       		.uleb128 0x3b
 15304 00bc 0B       		.uleb128 0xb
 15305 00bd 01       		.uleb128 0x1
 15306 00be 13       		.uleb128 0x13
 15307 00bf 00       		.byte	0
 15308 00c0 00       		.byte	0
 15309 00c1 12       		.uleb128 0x12
 15310 00c2 0D       		.uleb128 0xd
 15311 00c3 00       		.byte	0
 15312 00c4 03       		.uleb128 0x3
 15313 00c5 08       		.uleb128 0x8
 15314 00c6 3A       		.uleb128 0x3a
 15315 00c7 0B       		.uleb128 0xb
 15316 00c8 3B       		.uleb128 0x3b
ARM GAS  /tmp/cchERvVK.s 			page 271


 15317 00c9 0B       		.uleb128 0xb
 15318 00ca 49       		.uleb128 0x49
 15319 00cb 13       		.uleb128 0x13
 15320 00cc 38       		.uleb128 0x38
 15321 00cd 0B       		.uleb128 0xb
 15322 00ce 00       		.byte	0
 15323 00cf 00       		.byte	0
 15324 00d0 13       		.uleb128 0x13
 15325 00d1 13       		.uleb128 0x13
 15326 00d2 01       		.byte	0x1
 15327 00d3 03       		.uleb128 0x3
 15328 00d4 0E       		.uleb128 0xe
 15329 00d5 0B       		.uleb128 0xb
 15330 00d6 05       		.uleb128 0x5
 15331 00d7 3A       		.uleb128 0x3a
 15332 00d8 0B       		.uleb128 0xb
 15333 00d9 3B       		.uleb128 0x3b
 15334 00da 0B       		.uleb128 0xb
 15335 00db 01       		.uleb128 0x1
 15336 00dc 13       		.uleb128 0x13
 15337 00dd 00       		.byte	0
 15338 00de 00       		.byte	0
 15339 00df 14       		.uleb128 0x14
 15340 00e0 0D       		.uleb128 0xd
 15341 00e1 00       		.byte	0
 15342 00e2 03       		.uleb128 0x3
 15343 00e3 0E       		.uleb128 0xe
 15344 00e4 3A       		.uleb128 0x3a
 15345 00e5 0B       		.uleb128 0xb
 15346 00e6 3B       		.uleb128 0x3b
 15347 00e7 0B       		.uleb128 0xb
 15348 00e8 49       		.uleb128 0x49
 15349 00e9 13       		.uleb128 0x13
 15350 00ea 38       		.uleb128 0x38
 15351 00eb 05       		.uleb128 0x5
 15352 00ec 00       		.byte	0
 15353 00ed 00       		.byte	0
 15354 00ee 15       		.uleb128 0x15
 15355 00ef 15       		.uleb128 0x15
 15356 00f0 00       		.byte	0
 15357 00f1 27       		.uleb128 0x27
 15358 00f2 19       		.uleb128 0x19
 15359 00f3 00       		.byte	0
 15360 00f4 00       		.byte	0
 15361 00f5 16       		.uleb128 0x16
 15362 00f6 15       		.uleb128 0x15
 15363 00f7 01       		.byte	0x1
 15364 00f8 27       		.uleb128 0x27
 15365 00f9 19       		.uleb128 0x19
 15366 00fa 49       		.uleb128 0x49
 15367 00fb 13       		.uleb128 0x13
 15368 00fc 01       		.uleb128 0x1
 15369 00fd 13       		.uleb128 0x13
 15370 00fe 00       		.byte	0
 15371 00ff 00       		.byte	0
 15372 0100 17       		.uleb128 0x17
 15373 0101 05       		.uleb128 0x5
ARM GAS  /tmp/cchERvVK.s 			page 272


 15374 0102 00       		.byte	0
 15375 0103 49       		.uleb128 0x49
 15376 0104 13       		.uleb128 0x13
 15377 0105 00       		.byte	0
 15378 0106 00       		.byte	0
 15379 0107 18       		.uleb128 0x18
 15380 0108 13       		.uleb128 0x13
 15381 0109 01       		.byte	0x1
 15382 010a 03       		.uleb128 0x3
 15383 010b 0E       		.uleb128 0xe
 15384 010c 0B       		.uleb128 0xb
 15385 010d 05       		.uleb128 0x5
 15386 010e 3A       		.uleb128 0x3a
 15387 010f 0B       		.uleb128 0xb
 15388 0110 3B       		.uleb128 0x3b
 15389 0111 05       		.uleb128 0x5
 15390 0112 01       		.uleb128 0x1
 15391 0113 13       		.uleb128 0x13
 15392 0114 00       		.byte	0
 15393 0115 00       		.byte	0
 15394 0116 19       		.uleb128 0x19
 15395 0117 0D       		.uleb128 0xd
 15396 0118 00       		.byte	0
 15397 0119 03       		.uleb128 0x3
 15398 011a 0E       		.uleb128 0xe
 15399 011b 3A       		.uleb128 0x3a
 15400 011c 0B       		.uleb128 0xb
 15401 011d 3B       		.uleb128 0x3b
 15402 011e 05       		.uleb128 0x5
 15403 011f 49       		.uleb128 0x49
 15404 0120 13       		.uleb128 0x13
 15405 0121 38       		.uleb128 0x38
 15406 0122 0B       		.uleb128 0xb
 15407 0123 00       		.byte	0
 15408 0124 00       		.byte	0
 15409 0125 1A       		.uleb128 0x1a
 15410 0126 0D       		.uleb128 0xd
 15411 0127 00       		.byte	0
 15412 0128 03       		.uleb128 0x3
 15413 0129 0E       		.uleb128 0xe
 15414 012a 3A       		.uleb128 0x3a
 15415 012b 0B       		.uleb128 0xb
 15416 012c 3B       		.uleb128 0x3b
 15417 012d 05       		.uleb128 0x5
 15418 012e 49       		.uleb128 0x49
 15419 012f 13       		.uleb128 0x13
 15420 0130 38       		.uleb128 0x38
 15421 0131 05       		.uleb128 0x5
 15422 0132 00       		.byte	0
 15423 0133 00       		.byte	0
 15424 0134 1B       		.uleb128 0x1b
 15425 0135 13       		.uleb128 0x13
 15426 0136 01       		.byte	0x1
 15427 0137 03       		.uleb128 0x3
 15428 0138 0E       		.uleb128 0xe
 15429 0139 0B       		.uleb128 0xb
 15430 013a 0B       		.uleb128 0xb
ARM GAS  /tmp/cchERvVK.s 			page 273


 15431 013b 3A       		.uleb128 0x3a
 15432 013c 0B       		.uleb128 0xb
 15433 013d 3B       		.uleb128 0x3b
 15434 013e 05       		.uleb128 0x5
 15435 013f 01       		.uleb128 0x1
 15436 0140 13       		.uleb128 0x13
 15437 0141 00       		.byte	0
 15438 0142 00       		.byte	0
 15439 0143 1C       		.uleb128 0x1c
 15440 0144 13       		.uleb128 0x13
 15441 0145 01       		.byte	0x1
 15442 0146 0B       		.uleb128 0xb
 15443 0147 0B       		.uleb128 0xb
 15444 0148 3A       		.uleb128 0x3a
 15445 0149 0B       		.uleb128 0xb
 15446 014a 3B       		.uleb128 0x3b
 15447 014b 05       		.uleb128 0x5
 15448 014c 01       		.uleb128 0x1
 15449 014d 13       		.uleb128 0x13
 15450 014e 00       		.byte	0
 15451 014f 00       		.byte	0
 15452 0150 1D       		.uleb128 0x1d
 15453 0151 17       		.uleb128 0x17
 15454 0152 01       		.byte	0x1
 15455 0153 0B       		.uleb128 0xb
 15456 0154 0B       		.uleb128 0xb
 15457 0155 3A       		.uleb128 0x3a
 15458 0156 0B       		.uleb128 0xb
 15459 0157 3B       		.uleb128 0x3b
 15460 0158 05       		.uleb128 0x5
 15461 0159 01       		.uleb128 0x1
 15462 015a 13       		.uleb128 0x13
 15463 015b 00       		.byte	0
 15464 015c 00       		.byte	0
 15465 015d 1E       		.uleb128 0x1e
 15466 015e 0D       		.uleb128 0xd
 15467 015f 00       		.byte	0
 15468 0160 03       		.uleb128 0x3
 15469 0161 0E       		.uleb128 0xe
 15470 0162 3A       		.uleb128 0x3a
 15471 0163 0B       		.uleb128 0xb
 15472 0164 3B       		.uleb128 0x3b
 15473 0165 05       		.uleb128 0x5
 15474 0166 49       		.uleb128 0x49
 15475 0167 13       		.uleb128 0x13
 15476 0168 00       		.byte	0
 15477 0169 00       		.byte	0
 15478 016a 1F       		.uleb128 0x1f
 15479 016b 15       		.uleb128 0x15
 15480 016c 01       		.byte	0x1
 15481 016d 27       		.uleb128 0x27
 15482 016e 19       		.uleb128 0x19
 15483 016f 01       		.uleb128 0x1
 15484 0170 13       		.uleb128 0x13
 15485 0171 00       		.byte	0
 15486 0172 00       		.byte	0
 15487 0173 20       		.uleb128 0x20
ARM GAS  /tmp/cchERvVK.s 			page 274


 15488 0174 34       		.uleb128 0x34
 15489 0175 00       		.byte	0
 15490 0176 03       		.uleb128 0x3
 15491 0177 0E       		.uleb128 0xe
 15492 0178 3A       		.uleb128 0x3a
 15493 0179 0B       		.uleb128 0xb
 15494 017a 3B       		.uleb128 0x3b
 15495 017b 05       		.uleb128 0x5
 15496 017c 49       		.uleb128 0x49
 15497 017d 13       		.uleb128 0x13
 15498 017e 3F       		.uleb128 0x3f
 15499 017f 19       		.uleb128 0x19
 15500 0180 3C       		.uleb128 0x3c
 15501 0181 19       		.uleb128 0x19
 15502 0182 00       		.byte	0
 15503 0183 00       		.byte	0
 15504 0184 21       		.uleb128 0x21
 15505 0185 26       		.uleb128 0x26
 15506 0186 00       		.byte	0
 15507 0187 00       		.byte	0
 15508 0188 00       		.byte	0
 15509 0189 22       		.uleb128 0x22
 15510 018a 34       		.uleb128 0x34
 15511 018b 00       		.byte	0
 15512 018c 03       		.uleb128 0x3
 15513 018d 0E       		.uleb128 0xe
 15514 018e 3A       		.uleb128 0x3a
 15515 018f 0B       		.uleb128 0xb
 15516 0190 3B       		.uleb128 0x3b
 15517 0191 0B       		.uleb128 0xb
 15518 0192 49       		.uleb128 0x49
 15519 0193 13       		.uleb128 0x13
 15520 0194 3F       		.uleb128 0x3f
 15521 0195 19       		.uleb128 0x19
 15522 0196 3C       		.uleb128 0x3c
 15523 0197 19       		.uleb128 0x19
 15524 0198 00       		.byte	0
 15525 0199 00       		.byte	0
 15526 019a 23       		.uleb128 0x23
 15527 019b 0D       		.uleb128 0xd
 15528 019c 00       		.byte	0
 15529 019d 03       		.uleb128 0x3
 15530 019e 0E       		.uleb128 0xe
 15531 019f 49       		.uleb128 0x49
 15532 01a0 13       		.uleb128 0x13
 15533 01a1 38       		.uleb128 0x38
 15534 01a2 0B       		.uleb128 0xb
 15535 01a3 34       		.uleb128 0x34
 15536 01a4 19       		.uleb128 0x19
 15537 01a5 00       		.byte	0
 15538 01a6 00       		.byte	0
 15539 01a7 24       		.uleb128 0x24
 15540 01a8 0D       		.uleb128 0xd
 15541 01a9 00       		.byte	0
 15542 01aa 03       		.uleb128 0x3
 15543 01ab 08       		.uleb128 0x8
 15544 01ac 3A       		.uleb128 0x3a
ARM GAS  /tmp/cchERvVK.s 			page 275


 15545 01ad 0B       		.uleb128 0xb
 15546 01ae 3B       		.uleb128 0x3b
 15547 01af 05       		.uleb128 0x5
 15548 01b0 49       		.uleb128 0x49
 15549 01b1 13       		.uleb128 0x13
 15550 01b2 38       		.uleb128 0x38
 15551 01b3 0B       		.uleb128 0xb
 15552 01b4 00       		.byte	0
 15553 01b5 00       		.byte	0
 15554 01b6 25       		.uleb128 0x25
 15555 01b7 13       		.uleb128 0x13
 15556 01b8 01       		.byte	0x1
 15557 01b9 0B       		.uleb128 0xb
 15558 01ba 05       		.uleb128 0x5
 15559 01bb 3A       		.uleb128 0x3a
 15560 01bc 0B       		.uleb128 0xb
 15561 01bd 3B       		.uleb128 0x3b
 15562 01be 05       		.uleb128 0x5
 15563 01bf 01       		.uleb128 0x1
 15564 01c0 13       		.uleb128 0x13
 15565 01c1 00       		.byte	0
 15566 01c2 00       		.byte	0
 15567 01c3 26       		.uleb128 0x26
 15568 01c4 0D       		.uleb128 0xd
 15569 01c5 00       		.byte	0
 15570 01c6 03       		.uleb128 0x3
 15571 01c7 08       		.uleb128 0x8
 15572 01c8 3A       		.uleb128 0x3a
 15573 01c9 0B       		.uleb128 0xb
 15574 01ca 3B       		.uleb128 0x3b
 15575 01cb 05       		.uleb128 0x5
 15576 01cc 49       		.uleb128 0x49
 15577 01cd 13       		.uleb128 0x13
 15578 01ce 38       		.uleb128 0x38
 15579 01cf 05       		.uleb128 0x5
 15580 01d0 00       		.byte	0
 15581 01d1 00       		.byte	0
 15582 01d2 27       		.uleb128 0x27
 15583 01d3 34       		.uleb128 0x34
 15584 01d4 00       		.byte	0
 15585 01d5 03       		.uleb128 0x3
 15586 01d6 08       		.uleb128 0x8
 15587 01d7 3A       		.uleb128 0x3a
 15588 01d8 0B       		.uleb128 0xb
 15589 01d9 3B       		.uleb128 0x3b
 15590 01da 05       		.uleb128 0x5
 15591 01db 49       		.uleb128 0x49
 15592 01dc 13       		.uleb128 0x13
 15593 01dd 3F       		.uleb128 0x3f
 15594 01de 19       		.uleb128 0x19
 15595 01df 3C       		.uleb128 0x3c
 15596 01e0 19       		.uleb128 0x19
 15597 01e1 00       		.byte	0
 15598 01e2 00       		.byte	0
 15599 01e3 28       		.uleb128 0x28
 15600 01e4 0D       		.uleb128 0xd
 15601 01e5 00       		.byte	0
ARM GAS  /tmp/cchERvVK.s 			page 276


 15602 01e6 03       		.uleb128 0x3
 15603 01e7 08       		.uleb128 0x8
 15604 01e8 3A       		.uleb128 0x3a
 15605 01e9 0B       		.uleb128 0xb
 15606 01ea 3B       		.uleb128 0x3b
 15607 01eb 0B       		.uleb128 0xb
 15608 01ec 49       		.uleb128 0x49
 15609 01ed 13       		.uleb128 0x13
 15610 01ee 00       		.byte	0
 15611 01ef 00       		.byte	0
 15612 01f0 29       		.uleb128 0x29
 15613 01f1 04       		.uleb128 0x4
 15614 01f2 01       		.byte	0x1
 15615 01f3 3E       		.uleb128 0x3e
 15616 01f4 0B       		.uleb128 0xb
 15617 01f5 0B       		.uleb128 0xb
 15618 01f6 0B       		.uleb128 0xb
 15619 01f7 49       		.uleb128 0x49
 15620 01f8 13       		.uleb128 0x13
 15621 01f9 3A       		.uleb128 0x3a
 15622 01fa 0B       		.uleb128 0xb
 15623 01fb 3B       		.uleb128 0x3b
 15624 01fc 0B       		.uleb128 0xb
 15625 01fd 01       		.uleb128 0x1
 15626 01fe 13       		.uleb128 0x13
 15627 01ff 00       		.byte	0
 15628 0200 00       		.byte	0
 15629 0201 2A       		.uleb128 0x2a
 15630 0202 28       		.uleb128 0x28
 15631 0203 00       		.byte	0
 15632 0204 03       		.uleb128 0x3
 15633 0205 0E       		.uleb128 0xe
 15634 0206 1C       		.uleb128 0x1c
 15635 0207 0B       		.uleb128 0xb
 15636 0208 00       		.byte	0
 15637 0209 00       		.byte	0
 15638 020a 2B       		.uleb128 0x2b
 15639 020b 04       		.uleb128 0x4
 15640 020c 01       		.byte	0x1
 15641 020d 3E       		.uleb128 0x3e
 15642 020e 0B       		.uleb128 0xb
 15643 020f 0B       		.uleb128 0xb
 15644 0210 0B       		.uleb128 0xb
 15645 0211 49       		.uleb128 0x49
 15646 0212 13       		.uleb128 0x13
 15647 0213 3A       		.uleb128 0x3a
 15648 0214 0B       		.uleb128 0xb
 15649 0215 3B       		.uleb128 0x3b
 15650 0216 05       		.uleb128 0x5
 15651 0217 01       		.uleb128 0x1
 15652 0218 13       		.uleb128 0x13
 15653 0219 00       		.byte	0
 15654 021a 00       		.byte	0
 15655 021b 2C       		.uleb128 0x2c
 15656 021c 13       		.uleb128 0x13
 15657 021d 01       		.byte	0x1
 15658 021e 0B       		.uleb128 0xb
ARM GAS  /tmp/cchERvVK.s 			page 277


 15659 021f 06       		.uleb128 0x6
 15660 0220 3A       		.uleb128 0x3a
 15661 0221 0B       		.uleb128 0xb
 15662 0222 3B       		.uleb128 0x3b
 15663 0223 0B       		.uleb128 0xb
 15664 0224 01       		.uleb128 0x1
 15665 0225 13       		.uleb128 0x13
 15666 0226 00       		.byte	0
 15667 0227 00       		.byte	0
 15668 0228 2D       		.uleb128 0x2d
 15669 0229 0D       		.uleb128 0xd
 15670 022a 00       		.byte	0
 15671 022b 03       		.uleb128 0x3
 15672 022c 08       		.uleb128 0x8
 15673 022d 3A       		.uleb128 0x3a
 15674 022e 0B       		.uleb128 0xb
 15675 022f 3B       		.uleb128 0x3b
 15676 0230 0B       		.uleb128 0xb
 15677 0231 49       		.uleb128 0x49
 15678 0232 13       		.uleb128 0x13
 15679 0233 38       		.uleb128 0x38
 15680 0234 05       		.uleb128 0x5
 15681 0235 00       		.byte	0
 15682 0236 00       		.byte	0
 15683 0237 2E       		.uleb128 0x2e
 15684 0238 21       		.uleb128 0x21
 15685 0239 00       		.byte	0
 15686 023a 49       		.uleb128 0x49
 15687 023b 13       		.uleb128 0x13
 15688 023c 2F       		.uleb128 0x2f
 15689 023d 05       		.uleb128 0x5
 15690 023e 00       		.byte	0
 15691 023f 00       		.byte	0
 15692 0240 2F       		.uleb128 0x2f
 15693 0241 0D       		.uleb128 0xd
 15694 0242 00       		.byte	0
 15695 0243 49       		.uleb128 0x49
 15696 0244 13       		.uleb128 0x13
 15697 0245 38       		.uleb128 0x38
 15698 0246 0B       		.uleb128 0xb
 15699 0247 00       		.byte	0
 15700 0248 00       		.byte	0
 15701 0249 30       		.uleb128 0x30
 15702 024a 04       		.uleb128 0x4
 15703 024b 01       		.byte	0x1
 15704 024c 03       		.uleb128 0x3
 15705 024d 0E       		.uleb128 0xe
 15706 024e 3E       		.uleb128 0x3e
 15707 024f 0B       		.uleb128 0xb
 15708 0250 0B       		.uleb128 0xb
 15709 0251 0B       		.uleb128 0xb
 15710 0252 49       		.uleb128 0x49
 15711 0253 13       		.uleb128 0x13
 15712 0254 3A       		.uleb128 0x3a
 15713 0255 0B       		.uleb128 0xb
 15714 0256 3B       		.uleb128 0x3b
 15715 0257 0B       		.uleb128 0xb
ARM GAS  /tmp/cchERvVK.s 			page 278


 15716 0258 01       		.uleb128 0x1
 15717 0259 13       		.uleb128 0x13
 15718 025a 00       		.byte	0
 15719 025b 00       		.byte	0
 15720 025c 31       		.uleb128 0x31
 15721 025d 28       		.uleb128 0x28
 15722 025e 00       		.byte	0
 15723 025f 03       		.uleb128 0x3
 15724 0260 0E       		.uleb128 0xe
 15725 0261 1C       		.uleb128 0x1c
 15726 0262 05       		.uleb128 0x5
 15727 0263 00       		.byte	0
 15728 0264 00       		.byte	0
 15729 0265 32       		.uleb128 0x32
 15730 0266 34       		.uleb128 0x34
 15731 0267 00       		.byte	0
 15732 0268 03       		.uleb128 0x3
 15733 0269 0E       		.uleb128 0xe
 15734 026a 3A       		.uleb128 0x3a
 15735 026b 0B       		.uleb128 0xb
 15736 026c 3B       		.uleb128 0x3b
 15737 026d 0B       		.uleb128 0xb
 15738 026e 49       		.uleb128 0x49
 15739 026f 13       		.uleb128 0x13
 15740 0270 02       		.uleb128 0x2
 15741 0271 18       		.uleb128 0x18
 15742 0272 00       		.byte	0
 15743 0273 00       		.byte	0
 15744 0274 33       		.uleb128 0x33
 15745 0275 34       		.uleb128 0x34
 15746 0276 00       		.byte	0
 15747 0277 03       		.uleb128 0x3
 15748 0278 0E       		.uleb128 0xe
 15749 0279 3A       		.uleb128 0x3a
 15750 027a 0B       		.uleb128 0xb
 15751 027b 3B       		.uleb128 0x3b
 15752 027c 0B       		.uleb128 0xb
 15753 027d 49       		.uleb128 0x49
 15754 027e 13       		.uleb128 0x13
 15755 027f 3F       		.uleb128 0x3f
 15756 0280 19       		.uleb128 0x19
 15757 0281 02       		.uleb128 0x2
 15758 0282 18       		.uleb128 0x18
 15759 0283 00       		.byte	0
 15760 0284 00       		.byte	0
 15761 0285 34       		.uleb128 0x34
 15762 0286 2E       		.uleb128 0x2e
 15763 0287 01       		.byte	0x1
 15764 0288 03       		.uleb128 0x3
 15765 0289 0E       		.uleb128 0xe
 15766 028a 3A       		.uleb128 0x3a
 15767 028b 0B       		.uleb128 0xb
 15768 028c 3B       		.uleb128 0x3b
 15769 028d 05       		.uleb128 0x5
 15770 028e 27       		.uleb128 0x27
 15771 028f 19       		.uleb128 0x19
 15772 0290 49       		.uleb128 0x49
ARM GAS  /tmp/cchERvVK.s 			page 279


 15773 0291 13       		.uleb128 0x13
 15774 0292 20       		.uleb128 0x20
 15775 0293 0B       		.uleb128 0xb
 15776 0294 01       		.uleb128 0x1
 15777 0295 13       		.uleb128 0x13
 15778 0296 00       		.byte	0
 15779 0297 00       		.byte	0
 15780 0298 35       		.uleb128 0x35
 15781 0299 05       		.uleb128 0x5
 15782 029a 00       		.byte	0
 15783 029b 03       		.uleb128 0x3
 15784 029c 08       		.uleb128 0x8
 15785 029d 3A       		.uleb128 0x3a
 15786 029e 0B       		.uleb128 0xb
 15787 029f 3B       		.uleb128 0x3b
 15788 02a0 05       		.uleb128 0x5
 15789 02a1 49       		.uleb128 0x49
 15790 02a2 13       		.uleb128 0x13
 15791 02a3 00       		.byte	0
 15792 02a4 00       		.byte	0
 15793 02a5 36       		.uleb128 0x36
 15794 02a6 34       		.uleb128 0x34
 15795 02a7 00       		.byte	0
 15796 02a8 03       		.uleb128 0x3
 15797 02a9 0E       		.uleb128 0xe
 15798 02aa 3A       		.uleb128 0x3a
 15799 02ab 0B       		.uleb128 0xb
 15800 02ac 3B       		.uleb128 0x3b
 15801 02ad 05       		.uleb128 0x5
 15802 02ae 49       		.uleb128 0x49
 15803 02af 13       		.uleb128 0x13
 15804 02b0 00       		.byte	0
 15805 02b1 00       		.byte	0
 15806 02b2 37       		.uleb128 0x37
 15807 02b3 34       		.uleb128 0x34
 15808 02b4 00       		.byte	0
 15809 02b5 03       		.uleb128 0x3
 15810 02b6 08       		.uleb128 0x8
 15811 02b7 3A       		.uleb128 0x3a
 15812 02b8 0B       		.uleb128 0xb
 15813 02b9 3B       		.uleb128 0x3b
 15814 02ba 05       		.uleb128 0x5
 15815 02bb 49       		.uleb128 0x49
 15816 02bc 13       		.uleb128 0x13
 15817 02bd 00       		.byte	0
 15818 02be 00       		.byte	0
 15819 02bf 38       		.uleb128 0x38
 15820 02c0 0B       		.uleb128 0xb
 15821 02c1 01       		.byte	0x1
 15822 02c2 00       		.byte	0
 15823 02c3 00       		.byte	0
 15824 02c4 39       		.uleb128 0x39
 15825 02c5 21       		.uleb128 0x21
 15826 02c6 00       		.byte	0
 15827 02c7 49       		.uleb128 0x49
 15828 02c8 13       		.uleb128 0x13
 15829 02c9 00       		.byte	0
ARM GAS  /tmp/cchERvVK.s 			page 280


 15830 02ca 00       		.byte	0
 15831 02cb 3A       		.uleb128 0x3a
 15832 02cc 2E       		.uleb128 0x2e
 15833 02cd 01       		.byte	0x1
 15834 02ce 03       		.uleb128 0x3
 15835 02cf 0E       		.uleb128 0xe
 15836 02d0 3A       		.uleb128 0x3a
 15837 02d1 0B       		.uleb128 0xb
 15838 02d2 3B       		.uleb128 0x3b
 15839 02d3 05       		.uleb128 0x5
 15840 02d4 27       		.uleb128 0x27
 15841 02d5 19       		.uleb128 0x19
 15842 02d6 49       		.uleb128 0x49
 15843 02d7 13       		.uleb128 0x13
 15844 02d8 11       		.uleb128 0x11
 15845 02d9 01       		.uleb128 0x1
 15846 02da 12       		.uleb128 0x12
 15847 02db 06       		.uleb128 0x6
 15848 02dc 40       		.uleb128 0x40
 15849 02dd 18       		.uleb128 0x18
 15850 02de 9742     		.uleb128 0x2117
 15851 02e0 19       		.uleb128 0x19
 15852 02e1 01       		.uleb128 0x1
 15853 02e2 13       		.uleb128 0x13
 15854 02e3 00       		.byte	0
 15855 02e4 00       		.byte	0
 15856 02e5 3B       		.uleb128 0x3b
 15857 02e6 05       		.uleb128 0x5
 15858 02e7 00       		.byte	0
 15859 02e8 03       		.uleb128 0x3
 15860 02e9 08       		.uleb128 0x8
 15861 02ea 3A       		.uleb128 0x3a
 15862 02eb 0B       		.uleb128 0xb
 15863 02ec 3B       		.uleb128 0x3b
 15864 02ed 05       		.uleb128 0x5
 15865 02ee 49       		.uleb128 0x49
 15866 02ef 13       		.uleb128 0x13
 15867 02f0 02       		.uleb128 0x2
 15868 02f1 17       		.uleb128 0x17
 15869 02f2 00       		.byte	0
 15870 02f3 00       		.byte	0
 15871 02f4 3C       		.uleb128 0x3c
 15872 02f5 05       		.uleb128 0x5
 15873 02f6 00       		.byte	0
 15874 02f7 03       		.uleb128 0x3
 15875 02f8 0E       		.uleb128 0xe
 15876 02f9 3A       		.uleb128 0x3a
 15877 02fa 0B       		.uleb128 0xb
 15878 02fb 3B       		.uleb128 0x3b
 15879 02fc 05       		.uleb128 0x5
 15880 02fd 49       		.uleb128 0x49
 15881 02fe 13       		.uleb128 0x13
 15882 02ff 02       		.uleb128 0x2
 15883 0300 17       		.uleb128 0x17
 15884 0301 00       		.byte	0
 15885 0302 00       		.byte	0
 15886 0303 3D       		.uleb128 0x3d
ARM GAS  /tmp/cchERvVK.s 			page 281


 15887 0304 34       		.uleb128 0x34
 15888 0305 00       		.byte	0
 15889 0306 03       		.uleb128 0x3
 15890 0307 0E       		.uleb128 0xe
 15891 0308 3A       		.uleb128 0x3a
 15892 0309 0B       		.uleb128 0xb
 15893 030a 3B       		.uleb128 0x3b
 15894 030b 05       		.uleb128 0x5
 15895 030c 49       		.uleb128 0x49
 15896 030d 13       		.uleb128 0x13
 15897 030e 02       		.uleb128 0x2
 15898 030f 18       		.uleb128 0x18
 15899 0310 00       		.byte	0
 15900 0311 00       		.byte	0
 15901 0312 3E       		.uleb128 0x3e
 15902 0313 34       		.uleb128 0x34
 15903 0314 00       		.byte	0
 15904 0315 03       		.uleb128 0x3
 15905 0316 08       		.uleb128 0x8
 15906 0317 3A       		.uleb128 0x3a
 15907 0318 0B       		.uleb128 0xb
 15908 0319 3B       		.uleb128 0x3b
 15909 031a 05       		.uleb128 0x5
 15910 031b 49       		.uleb128 0x49
 15911 031c 13       		.uleb128 0x13
 15912 031d 02       		.uleb128 0x2
 15913 031e 17       		.uleb128 0x17
 15914 031f 00       		.byte	0
 15915 0320 00       		.byte	0
 15916 0321 3F       		.uleb128 0x3f
 15917 0322 0B       		.uleb128 0xb
 15918 0323 01       		.byte	0x1
 15919 0324 11       		.uleb128 0x11
 15920 0325 01       		.uleb128 0x1
 15921 0326 12       		.uleb128 0x12
 15922 0327 06       		.uleb128 0x6
 15923 0328 01       		.uleb128 0x1
 15924 0329 13       		.uleb128 0x13
 15925 032a 00       		.byte	0
 15926 032b 00       		.byte	0
 15927 032c 40       		.uleb128 0x40
 15928 032d 34       		.uleb128 0x34
 15929 032e 00       		.byte	0
 15930 032f 03       		.uleb128 0x3
 15931 0330 08       		.uleb128 0x8
 15932 0331 3A       		.uleb128 0x3a
 15933 0332 0B       		.uleb128 0xb
 15934 0333 3B       		.uleb128 0x3b
 15935 0334 05       		.uleb128 0x5
 15936 0335 49       		.uleb128 0x49
 15937 0336 13       		.uleb128 0x13
 15938 0337 02       		.uleb128 0x2
 15939 0338 18       		.uleb128 0x18
 15940 0339 00       		.byte	0
 15941 033a 00       		.byte	0
 15942 033b 41       		.uleb128 0x41
 15943 033c 898201   		.uleb128 0x4109
ARM GAS  /tmp/cchERvVK.s 			page 282


 15944 033f 00       		.byte	0
 15945 0340 11       		.uleb128 0x11
 15946 0341 01       		.uleb128 0x1
 15947 0342 31       		.uleb128 0x31
 15948 0343 13       		.uleb128 0x13
 15949 0344 00       		.byte	0
 15950 0345 00       		.byte	0
 15951 0346 42       		.uleb128 0x42
 15952 0347 898201   		.uleb128 0x4109
 15953 034a 01       		.byte	0x1
 15954 034b 11       		.uleb128 0x11
 15955 034c 01       		.uleb128 0x1
 15956 034d 31       		.uleb128 0x31
 15957 034e 13       		.uleb128 0x13
 15958 034f 00       		.byte	0
 15959 0350 00       		.byte	0
 15960 0351 43       		.uleb128 0x43
 15961 0352 8A8201   		.uleb128 0x410a
 15962 0355 00       		.byte	0
 15963 0356 02       		.uleb128 0x2
 15964 0357 18       		.uleb128 0x18
 15965 0358 9142     		.uleb128 0x2111
 15966 035a 18       		.uleb128 0x18
 15967 035b 00       		.byte	0
 15968 035c 00       		.byte	0
 15969 035d 44       		.uleb128 0x44
 15970 035e 898201   		.uleb128 0x4109
 15971 0361 01       		.byte	0x1
 15972 0362 11       		.uleb128 0x11
 15973 0363 01       		.uleb128 0x1
 15974 0364 31       		.uleb128 0x31
 15975 0365 13       		.uleb128 0x13
 15976 0366 01       		.uleb128 0x1
 15977 0367 13       		.uleb128 0x13
 15978 0368 00       		.byte	0
 15979 0369 00       		.byte	0
 15980 036a 45       		.uleb128 0x45
 15981 036b 34       		.uleb128 0x34
 15982 036c 00       		.byte	0
 15983 036d 03       		.uleb128 0x3
 15984 036e 0E       		.uleb128 0xe
 15985 036f 3A       		.uleb128 0x3a
 15986 0370 0B       		.uleb128 0xb
 15987 0371 3B       		.uleb128 0x3b
 15988 0372 05       		.uleb128 0x5
 15989 0373 49       		.uleb128 0x49
 15990 0374 13       		.uleb128 0x13
 15991 0375 02       		.uleb128 0x2
 15992 0376 17       		.uleb128 0x17
 15993 0377 00       		.byte	0
 15994 0378 00       		.byte	0
 15995 0379 46       		.uleb128 0x46
 15996 037a 1D       		.uleb128 0x1d
 15997 037b 01       		.byte	0x1
 15998 037c 31       		.uleb128 0x31
 15999 037d 13       		.uleb128 0x13
 16000 037e 52       		.uleb128 0x52
ARM GAS  /tmp/cchERvVK.s 			page 283


 16001 037f 01       		.uleb128 0x1
 16002 0380 55       		.uleb128 0x55
 16003 0381 17       		.uleb128 0x17
 16004 0382 58       		.uleb128 0x58
 16005 0383 0B       		.uleb128 0xb
 16006 0384 59       		.uleb128 0x59
 16007 0385 05       		.uleb128 0x5
 16008 0386 01       		.uleb128 0x1
 16009 0387 13       		.uleb128 0x13
 16010 0388 00       		.byte	0
 16011 0389 00       		.byte	0
 16012 038a 47       		.uleb128 0x47
 16013 038b 05       		.uleb128 0x5
 16014 038c 00       		.byte	0
 16015 038d 31       		.uleb128 0x31
 16016 038e 13       		.uleb128 0x13
 16017 038f 02       		.uleb128 0x2
 16018 0390 17       		.uleb128 0x17
 16019 0391 00       		.byte	0
 16020 0392 00       		.byte	0
 16021 0393 48       		.uleb128 0x48
 16022 0394 0B       		.uleb128 0xb
 16023 0395 01       		.byte	0x1
 16024 0396 55       		.uleb128 0x55
 16025 0397 17       		.uleb128 0x17
 16026 0398 00       		.byte	0
 16027 0399 00       		.byte	0
 16028 039a 49       		.uleb128 0x49
 16029 039b 34       		.uleb128 0x34
 16030 039c 00       		.byte	0
 16031 039d 31       		.uleb128 0x31
 16032 039e 13       		.uleb128 0x13
 16033 039f 02       		.uleb128 0x2
 16034 03a0 17       		.uleb128 0x17
 16035 03a1 00       		.byte	0
 16036 03a2 00       		.byte	0
 16037 03a3 4A       		.uleb128 0x4a
 16038 03a4 05       		.uleb128 0x5
 16039 03a5 00       		.byte	0
 16040 03a6 03       		.uleb128 0x3
 16041 03a7 0E       		.uleb128 0xe
 16042 03a8 3A       		.uleb128 0x3a
 16043 03a9 0B       		.uleb128 0xb
 16044 03aa 3B       		.uleb128 0x3b
 16045 03ab 05       		.uleb128 0x5
 16046 03ac 49       		.uleb128 0x49
 16047 03ad 13       		.uleb128 0x13
 16048 03ae 00       		.byte	0
 16049 03af 00       		.byte	0
 16050 03b0 4B       		.uleb128 0x4b
 16051 03b1 2E       		.uleb128 0x2e
 16052 03b2 01       		.byte	0x1
 16053 03b3 3F       		.uleb128 0x3f
 16054 03b4 19       		.uleb128 0x19
 16055 03b5 03       		.uleb128 0x3
 16056 03b6 0E       		.uleb128 0xe
 16057 03b7 3A       		.uleb128 0x3a
ARM GAS  /tmp/cchERvVK.s 			page 284


 16058 03b8 0B       		.uleb128 0xb
 16059 03b9 3B       		.uleb128 0x3b
 16060 03ba 05       		.uleb128 0x5
 16061 03bb 27       		.uleb128 0x27
 16062 03bc 19       		.uleb128 0x19
 16063 03bd 49       		.uleb128 0x49
 16064 03be 13       		.uleb128 0x13
 16065 03bf 11       		.uleb128 0x11
 16066 03c0 01       		.uleb128 0x1
 16067 03c1 12       		.uleb128 0x12
 16068 03c2 06       		.uleb128 0x6
 16069 03c3 40       		.uleb128 0x40
 16070 03c4 18       		.uleb128 0x18
 16071 03c5 9742     		.uleb128 0x2117
 16072 03c7 19       		.uleb128 0x19
 16073 03c8 01       		.uleb128 0x1
 16074 03c9 13       		.uleb128 0x13
 16075 03ca 00       		.byte	0
 16076 03cb 00       		.byte	0
 16077 03cc 4C       		.uleb128 0x4c
 16078 03cd 05       		.uleb128 0x5
 16079 03ce 00       		.byte	0
 16080 03cf 03       		.uleb128 0x3
 16081 03d0 08       		.uleb128 0x8
 16082 03d1 3A       		.uleb128 0x3a
 16083 03d2 0B       		.uleb128 0xb
 16084 03d3 3B       		.uleb128 0x3b
 16085 03d4 05       		.uleb128 0x5
 16086 03d5 49       		.uleb128 0x49
 16087 03d6 13       		.uleb128 0x13
 16088 03d7 02       		.uleb128 0x2
 16089 03d8 18       		.uleb128 0x18
 16090 03d9 00       		.byte	0
 16091 03da 00       		.byte	0
 16092 03db 4D       		.uleb128 0x4d
 16093 03dc 34       		.uleb128 0x34
 16094 03dd 00       		.byte	0
 16095 03de 49       		.uleb128 0x49
 16096 03df 13       		.uleb128 0x13
 16097 03e0 34       		.uleb128 0x34
 16098 03e1 19       		.uleb128 0x19
 16099 03e2 02       		.uleb128 0x2
 16100 03e3 17       		.uleb128 0x17
 16101 03e4 00       		.byte	0
 16102 03e5 00       		.byte	0
 16103 03e6 4E       		.uleb128 0x4e
 16104 03e7 21       		.uleb128 0x21
 16105 03e8 00       		.byte	0
 16106 03e9 49       		.uleb128 0x49
 16107 03ea 13       		.uleb128 0x13
 16108 03eb 2F       		.uleb128 0x2f
 16109 03ec 13       		.uleb128 0x13
 16110 03ed 00       		.byte	0
 16111 03ee 00       		.byte	0
 16112 03ef 4F       		.uleb128 0x4f
 16113 03f0 2E       		.uleb128 0x2e
 16114 03f1 01       		.byte	0x1
ARM GAS  /tmp/cchERvVK.s 			page 285


 16115 03f2 3F       		.uleb128 0x3f
 16116 03f3 19       		.uleb128 0x19
 16117 03f4 03       		.uleb128 0x3
 16118 03f5 0E       		.uleb128 0xe
 16119 03f6 3A       		.uleb128 0x3a
 16120 03f7 0B       		.uleb128 0xb
 16121 03f8 3B       		.uleb128 0x3b
 16122 03f9 05       		.uleb128 0x5
 16123 03fa 27       		.uleb128 0x27
 16124 03fb 19       		.uleb128 0x19
 16125 03fc 11       		.uleb128 0x11
 16126 03fd 01       		.uleb128 0x1
 16127 03fe 12       		.uleb128 0x12
 16128 03ff 06       		.uleb128 0x6
 16129 0400 40       		.uleb128 0x40
 16130 0401 18       		.uleb128 0x18
 16131 0402 9742     		.uleb128 0x2117
 16132 0404 19       		.uleb128 0x19
 16133 0405 01       		.uleb128 0x1
 16134 0406 13       		.uleb128 0x13
 16135 0407 00       		.byte	0
 16136 0408 00       		.byte	0
 16137 0409 50       		.uleb128 0x50
 16138 040a 1D       		.uleb128 0x1d
 16139 040b 01       		.byte	0x1
 16140 040c 31       		.uleb128 0x31
 16141 040d 13       		.uleb128 0x13
 16142 040e 11       		.uleb128 0x11
 16143 040f 01       		.uleb128 0x1
 16144 0410 12       		.uleb128 0x12
 16145 0411 06       		.uleb128 0x6
 16146 0412 58       		.uleb128 0x58
 16147 0413 0B       		.uleb128 0xb
 16148 0414 59       		.uleb128 0x59
 16149 0415 05       		.uleb128 0x5
 16150 0416 01       		.uleb128 0x1
 16151 0417 13       		.uleb128 0x13
 16152 0418 00       		.byte	0
 16153 0419 00       		.byte	0
 16154 041a 51       		.uleb128 0x51
 16155 041b 05       		.uleb128 0x5
 16156 041c 00       		.byte	0
 16157 041d 31       		.uleb128 0x31
 16158 041e 13       		.uleb128 0x13
 16159 041f 02       		.uleb128 0x2
 16160 0420 18       		.uleb128 0x18
 16161 0421 00       		.byte	0
 16162 0422 00       		.byte	0
 16163 0423 52       		.uleb128 0x52
 16164 0424 898201   		.uleb128 0x4109
 16165 0427 01       		.byte	0x1
 16166 0428 11       		.uleb128 0x11
 16167 0429 01       		.uleb128 0x1
 16168 042a 9542     		.uleb128 0x2115
 16169 042c 19       		.uleb128 0x19
 16170 042d 31       		.uleb128 0x31
 16171 042e 13       		.uleb128 0x13
ARM GAS  /tmp/cchERvVK.s 			page 286


 16172 042f 00       		.byte	0
 16173 0430 00       		.byte	0
 16174 0431 53       		.uleb128 0x53
 16175 0432 0B       		.uleb128 0xb
 16176 0433 01       		.byte	0x1
 16177 0434 55       		.uleb128 0x55
 16178 0435 17       		.uleb128 0x17
 16179 0436 01       		.uleb128 0x1
 16180 0437 13       		.uleb128 0x13
 16181 0438 00       		.byte	0
 16182 0439 00       		.byte	0
 16183 043a 54       		.uleb128 0x54
 16184 043b 34       		.uleb128 0x34
 16185 043c 00       		.byte	0
 16186 043d 31       		.uleb128 0x31
 16187 043e 13       		.uleb128 0x13
 16188 043f 49       		.uleb128 0x49
 16189 0440 13       		.uleb128 0x13
 16190 0441 02       		.uleb128 0x2
 16191 0442 17       		.uleb128 0x17
 16192 0443 00       		.byte	0
 16193 0444 00       		.byte	0
 16194 0445 55       		.uleb128 0x55
 16195 0446 34       		.uleb128 0x34
 16196 0447 00       		.byte	0
 16197 0448 31       		.uleb128 0x31
 16198 0449 13       		.uleb128 0x13
 16199 044a 02       		.uleb128 0x2
 16200 044b 18       		.uleb128 0x18
 16201 044c 00       		.byte	0
 16202 044d 00       		.byte	0
 16203 044e 56       		.uleb128 0x56
 16204 044f 0B       		.uleb128 0xb
 16205 0450 01       		.byte	0x1
 16206 0451 31       		.uleb128 0x31
 16207 0452 13       		.uleb128 0x13
 16208 0453 55       		.uleb128 0x55
 16209 0454 17       		.uleb128 0x17
 16210 0455 01       		.uleb128 0x1
 16211 0456 13       		.uleb128 0x13
 16212 0457 00       		.byte	0
 16213 0458 00       		.byte	0
 16214 0459 57       		.uleb128 0x57
 16215 045a 34       		.uleb128 0x34
 16216 045b 00       		.byte	0
 16217 045c 34       		.uleb128 0x34
 16218 045d 19       		.uleb128 0x19
 16219 045e 49       		.uleb128 0x49
 16220 045f 13       		.uleb128 0x13
 16221 0460 02       		.uleb128 0x2
 16222 0461 17       		.uleb128 0x17
 16223 0462 00       		.byte	0
 16224 0463 00       		.byte	0
 16225 0464 58       		.uleb128 0x58
 16226 0465 2E       		.uleb128 0x2e
 16227 0466 01       		.byte	0x1
 16228 0467 03       		.uleb128 0x3
ARM GAS  /tmp/cchERvVK.s 			page 287


 16229 0468 0E       		.uleb128 0xe
 16230 0469 3A       		.uleb128 0x3a
 16231 046a 0B       		.uleb128 0xb
 16232 046b 3B       		.uleb128 0x3b
 16233 046c 05       		.uleb128 0x5
 16234 046d 27       		.uleb128 0x27
 16235 046e 19       		.uleb128 0x19
 16236 046f 11       		.uleb128 0x11
 16237 0470 01       		.uleb128 0x1
 16238 0471 12       		.uleb128 0x12
 16239 0472 06       		.uleb128 0x6
 16240 0473 40       		.uleb128 0x40
 16241 0474 18       		.uleb128 0x18
 16242 0475 9742     		.uleb128 0x2117
 16243 0477 19       		.uleb128 0x19
 16244 0478 01       		.uleb128 0x1
 16245 0479 13       		.uleb128 0x13
 16246 047a 00       		.byte	0
 16247 047b 00       		.byte	0
 16248 047c 59       		.uleb128 0x59
 16249 047d 898201   		.uleb128 0x4109
 16250 0480 01       		.byte	0x1
 16251 0481 11       		.uleb128 0x11
 16252 0482 01       		.uleb128 0x1
 16253 0483 01       		.uleb128 0x1
 16254 0484 13       		.uleb128 0x13
 16255 0485 00       		.byte	0
 16256 0486 00       		.byte	0
 16257 0487 5A       		.uleb128 0x5a
 16258 0488 898201   		.uleb128 0x4109
 16259 048b 01       		.byte	0x1
 16260 048c 11       		.uleb128 0x11
 16261 048d 01       		.uleb128 0x1
 16262 048e 9542     		.uleb128 0x2115
 16263 0490 19       		.uleb128 0x19
 16264 0491 31       		.uleb128 0x31
 16265 0492 13       		.uleb128 0x13
 16266 0493 01       		.uleb128 0x1
 16267 0494 13       		.uleb128 0x13
 16268 0495 00       		.byte	0
 16269 0496 00       		.byte	0
 16270 0497 5B       		.uleb128 0x5b
 16271 0498 2E       		.uleb128 0x2e
 16272 0499 01       		.byte	0x1
 16273 049a 03       		.uleb128 0x3
 16274 049b 0E       		.uleb128 0xe
 16275 049c 3A       		.uleb128 0x3a
 16276 049d 0B       		.uleb128 0xb
 16277 049e 3B       		.uleb128 0x3b
 16278 049f 05       		.uleb128 0x5
 16279 04a0 27       		.uleb128 0x27
 16280 04a1 19       		.uleb128 0x19
 16281 04a2 20       		.uleb128 0x20
 16282 04a3 0B       		.uleb128 0xb
 16283 04a4 01       		.uleb128 0x1
 16284 04a5 13       		.uleb128 0x13
 16285 04a6 00       		.byte	0
ARM GAS  /tmp/cchERvVK.s 			page 288


 16286 04a7 00       		.byte	0
 16287 04a8 5C       		.uleb128 0x5c
 16288 04a9 05       		.uleb128 0x5
 16289 04aa 00       		.byte	0
 16290 04ab 03       		.uleb128 0x3
 16291 04ac 0E       		.uleb128 0xe
 16292 04ad 3A       		.uleb128 0x3a
 16293 04ae 0B       		.uleb128 0xb
 16294 04af 3B       		.uleb128 0x3b
 16295 04b0 05       		.uleb128 0x5
 16296 04b1 49       		.uleb128 0x49
 16297 04b2 13       		.uleb128 0x13
 16298 04b3 02       		.uleb128 0x2
 16299 04b4 18       		.uleb128 0x18
 16300 04b5 00       		.byte	0
 16301 04b6 00       		.byte	0
 16302 04b7 5D       		.uleb128 0x5d
 16303 04b8 05       		.uleb128 0x5
 16304 04b9 00       		.byte	0
 16305 04ba 31       		.uleb128 0x31
 16306 04bb 13       		.uleb128 0x13
 16307 04bc 00       		.byte	0
 16308 04bd 00       		.byte	0
 16309 04be 5E       		.uleb128 0x5e
 16310 04bf 8A8201   		.uleb128 0x410a
 16311 04c2 00       		.byte	0
 16312 04c3 31       		.uleb128 0x31
 16313 04c4 13       		.uleb128 0x13
 16314 04c5 9142     		.uleb128 0x2111
 16315 04c7 18       		.uleb128 0x18
 16316 04c8 00       		.byte	0
 16317 04c9 00       		.byte	0
 16318 04ca 5F       		.uleb128 0x5f
 16319 04cb 898201   		.uleb128 0x4109
 16320 04ce 01       		.byte	0x1
 16321 04cf 11       		.uleb128 0x11
 16322 04d0 01       		.uleb128 0x1
 16323 04d1 9342     		.uleb128 0x2113
 16324 04d3 18       		.uleb128 0x18
 16325 04d4 00       		.byte	0
 16326 04d5 00       		.byte	0
 16327 04d6 60       		.uleb128 0x60
 16328 04d7 898201   		.uleb128 0x4109
 16329 04da 01       		.byte	0x1
 16330 04db 11       		.uleb128 0x11
 16331 04dc 01       		.uleb128 0x1
 16332 04dd 00       		.byte	0
 16333 04de 00       		.byte	0
 16334 04df 61       		.uleb128 0x61
 16335 04e0 2E       		.uleb128 0x2e
 16336 04e1 01       		.byte	0x1
 16337 04e2 03       		.uleb128 0x3
 16338 04e3 0E       		.uleb128 0xe
 16339 04e4 3A       		.uleb128 0x3a
 16340 04e5 0B       		.uleb128 0xb
 16341 04e6 3B       		.uleb128 0x3b
 16342 04e7 0B       		.uleb128 0xb
ARM GAS  /tmp/cchERvVK.s 			page 289


 16343 04e8 27       		.uleb128 0x27
 16344 04e9 19       		.uleb128 0x19
 16345 04ea 49       		.uleb128 0x49
 16346 04eb 13       		.uleb128 0x13
 16347 04ec 11       		.uleb128 0x11
 16348 04ed 01       		.uleb128 0x1
 16349 04ee 12       		.uleb128 0x12
 16350 04ef 06       		.uleb128 0x6
 16351 04f0 40       		.uleb128 0x40
 16352 04f1 18       		.uleb128 0x18
 16353 04f2 9742     		.uleb128 0x2117
 16354 04f4 19       		.uleb128 0x19
 16355 04f5 01       		.uleb128 0x1
 16356 04f6 13       		.uleb128 0x13
 16357 04f7 00       		.byte	0
 16358 04f8 00       		.byte	0
 16359 04f9 62       		.uleb128 0x62
 16360 04fa 05       		.uleb128 0x5
 16361 04fb 00       		.byte	0
 16362 04fc 03       		.uleb128 0x3
 16363 04fd 08       		.uleb128 0x8
 16364 04fe 3A       		.uleb128 0x3a
 16365 04ff 0B       		.uleb128 0xb
 16366 0500 3B       		.uleb128 0x3b
 16367 0501 0B       		.uleb128 0xb
 16368 0502 49       		.uleb128 0x49
 16369 0503 13       		.uleb128 0x13
 16370 0504 02       		.uleb128 0x2
 16371 0505 17       		.uleb128 0x17
 16372 0506 00       		.byte	0
 16373 0507 00       		.byte	0
 16374 0508 63       		.uleb128 0x63
 16375 0509 34       		.uleb128 0x34
 16376 050a 00       		.byte	0
 16377 050b 03       		.uleb128 0x3
 16378 050c 0E       		.uleb128 0xe
 16379 050d 3A       		.uleb128 0x3a
 16380 050e 0B       		.uleb128 0xb
 16381 050f 3B       		.uleb128 0x3b
 16382 0510 0B       		.uleb128 0xb
 16383 0511 49       		.uleb128 0x49
 16384 0512 13       		.uleb128 0x13
 16385 0513 02       		.uleb128 0x2
 16386 0514 17       		.uleb128 0x17
 16387 0515 00       		.byte	0
 16388 0516 00       		.byte	0
 16389 0517 64       		.uleb128 0x64
 16390 0518 2E       		.uleb128 0x2e
 16391 0519 01       		.byte	0x1
 16392 051a 03       		.uleb128 0x3
 16393 051b 0E       		.uleb128 0xe
 16394 051c 3A       		.uleb128 0x3a
 16395 051d 0B       		.uleb128 0xb
 16396 051e 3B       		.uleb128 0x3b
 16397 051f 0B       		.uleb128 0xb
 16398 0520 27       		.uleb128 0x27
 16399 0521 19       		.uleb128 0x19
ARM GAS  /tmp/cchERvVK.s 			page 290


 16400 0522 11       		.uleb128 0x11
 16401 0523 01       		.uleb128 0x1
 16402 0524 12       		.uleb128 0x12
 16403 0525 06       		.uleb128 0x6
 16404 0526 40       		.uleb128 0x40
 16405 0527 18       		.uleb128 0x18
 16406 0528 9742     		.uleb128 0x2117
 16407 052a 19       		.uleb128 0x19
 16408 052b 01       		.uleb128 0x1
 16409 052c 13       		.uleb128 0x13
 16410 052d 00       		.byte	0
 16411 052e 00       		.byte	0
 16412 052f 65       		.uleb128 0x65
 16413 0530 05       		.uleb128 0x5
 16414 0531 00       		.byte	0
 16415 0532 03       		.uleb128 0x3
 16416 0533 0E       		.uleb128 0xe
 16417 0534 3A       		.uleb128 0x3a
 16418 0535 0B       		.uleb128 0xb
 16419 0536 3B       		.uleb128 0x3b
 16420 0537 0B       		.uleb128 0xb
 16421 0538 49       		.uleb128 0x49
 16422 0539 13       		.uleb128 0x13
 16423 053a 02       		.uleb128 0x2
 16424 053b 17       		.uleb128 0x17
 16425 053c 00       		.byte	0
 16426 053d 00       		.byte	0
 16427 053e 66       		.uleb128 0x66
 16428 053f 2E       		.uleb128 0x2e
 16429 0540 01       		.byte	0x1
 16430 0541 03       		.uleb128 0x3
 16431 0542 0E       		.uleb128 0xe
 16432 0543 3A       		.uleb128 0x3a
 16433 0544 0B       		.uleb128 0xb
 16434 0545 3B       		.uleb128 0x3b
 16435 0546 0B       		.uleb128 0xb
 16436 0547 27       		.uleb128 0x27
 16437 0548 19       		.uleb128 0x19
 16438 0549 49       		.uleb128 0x49
 16439 054a 13       		.uleb128 0x13
 16440 054b 11       		.uleb128 0x11
 16441 054c 01       		.uleb128 0x1
 16442 054d 12       		.uleb128 0x12
 16443 054e 06       		.uleb128 0x6
 16444 054f 40       		.uleb128 0x40
 16445 0550 18       		.uleb128 0x18
 16446 0551 9642     		.uleb128 0x2116
 16447 0553 19       		.uleb128 0x19
 16448 0554 01       		.uleb128 0x1
 16449 0555 13       		.uleb128 0x13
 16450 0556 00       		.byte	0
 16451 0557 00       		.byte	0
 16452 0558 67       		.uleb128 0x67
 16453 0559 34       		.uleb128 0x34
 16454 055a 00       		.byte	0
 16455 055b 03       		.uleb128 0x3
 16456 055c 08       		.uleb128 0x8
ARM GAS  /tmp/cchERvVK.s 			page 291


 16457 055d 3A       		.uleb128 0x3a
 16458 055e 0B       		.uleb128 0xb
 16459 055f 3B       		.uleb128 0x3b
 16460 0560 0B       		.uleb128 0xb
 16461 0561 49       		.uleb128 0x49
 16462 0562 13       		.uleb128 0x13
 16463 0563 00       		.byte	0
 16464 0564 00       		.byte	0
 16465 0565 68       		.uleb128 0x68
 16466 0566 1D       		.uleb128 0x1d
 16467 0567 01       		.byte	0x1
 16468 0568 31       		.uleb128 0x31
 16469 0569 13       		.uleb128 0x13
 16470 056a 11       		.uleb128 0x11
 16471 056b 01       		.uleb128 0x1
 16472 056c 12       		.uleb128 0x12
 16473 056d 06       		.uleb128 0x6
 16474 056e 58       		.uleb128 0x58
 16475 056f 0B       		.uleb128 0xb
 16476 0570 59       		.uleb128 0x59
 16477 0571 0B       		.uleb128 0xb
 16478 0572 01       		.uleb128 0x1
 16479 0573 13       		.uleb128 0x13
 16480 0574 00       		.byte	0
 16481 0575 00       		.byte	0
 16482 0576 69       		.uleb128 0x69
 16483 0577 1D       		.uleb128 0x1d
 16484 0578 01       		.byte	0x1
 16485 0579 31       		.uleb128 0x31
 16486 057a 13       		.uleb128 0x13
 16487 057b 11       		.uleb128 0x11
 16488 057c 01       		.uleb128 0x1
 16489 057d 12       		.uleb128 0x12
 16490 057e 06       		.uleb128 0x6
 16491 057f 58       		.uleb128 0x58
 16492 0580 0B       		.uleb128 0xb
 16493 0581 59       		.uleb128 0x59
 16494 0582 0B       		.uleb128 0xb
 16495 0583 00       		.byte	0
 16496 0584 00       		.byte	0
 16497 0585 6A       		.uleb128 0x6a
 16498 0586 2E       		.uleb128 0x2e
 16499 0587 01       		.byte	0x1
 16500 0588 03       		.uleb128 0x3
 16501 0589 0E       		.uleb128 0xe
 16502 058a 3A       		.uleb128 0x3a
 16503 058b 0B       		.uleb128 0xb
 16504 058c 3B       		.uleb128 0x3b
 16505 058d 0B       		.uleb128 0xb
 16506 058e 27       		.uleb128 0x27
 16507 058f 19       		.uleb128 0x19
 16508 0590 20       		.uleb128 0x20
 16509 0591 0B       		.uleb128 0xb
 16510 0592 01       		.uleb128 0x1
 16511 0593 13       		.uleb128 0x13
 16512 0594 00       		.byte	0
 16513 0595 00       		.byte	0
ARM GAS  /tmp/cchERvVK.s 			page 292


 16514 0596 6B       		.uleb128 0x6b
 16515 0597 05       		.uleb128 0x5
 16516 0598 00       		.byte	0
 16517 0599 03       		.uleb128 0x3
 16518 059a 08       		.uleb128 0x8
 16519 059b 3A       		.uleb128 0x3a
 16520 059c 0B       		.uleb128 0xb
 16521 059d 3B       		.uleb128 0x3b
 16522 059e 0B       		.uleb128 0xb
 16523 059f 49       		.uleb128 0x49
 16524 05a0 13       		.uleb128 0x13
 16525 05a1 00       		.byte	0
 16526 05a2 00       		.byte	0
 16527 05a3 6C       		.uleb128 0x6c
 16528 05a4 05       		.uleb128 0x5
 16529 05a5 00       		.byte	0
 16530 05a6 03       		.uleb128 0x3
 16531 05a7 0E       		.uleb128 0xe
 16532 05a8 3A       		.uleb128 0x3a
 16533 05a9 0B       		.uleb128 0xb
 16534 05aa 3B       		.uleb128 0x3b
 16535 05ab 0B       		.uleb128 0xb
 16536 05ac 49       		.uleb128 0x49
 16537 05ad 13       		.uleb128 0x13
 16538 05ae 00       		.byte	0
 16539 05af 00       		.byte	0
 16540 05b0 6D       		.uleb128 0x6d
 16541 05b1 34       		.uleb128 0x34
 16542 05b2 00       		.byte	0
 16543 05b3 03       		.uleb128 0x3
 16544 05b4 0E       		.uleb128 0xe
 16545 05b5 3A       		.uleb128 0x3a
 16546 05b6 0B       		.uleb128 0xb
 16547 05b7 3B       		.uleb128 0x3b
 16548 05b8 0B       		.uleb128 0xb
 16549 05b9 49       		.uleb128 0x49
 16550 05ba 13       		.uleb128 0x13
 16551 05bb 00       		.byte	0
 16552 05bc 00       		.byte	0
 16553 05bd 6E       		.uleb128 0x6e
 16554 05be 2E       		.uleb128 0x2e
 16555 05bf 01       		.byte	0x1
 16556 05c0 3F       		.uleb128 0x3f
 16557 05c1 19       		.uleb128 0x19
 16558 05c2 03       		.uleb128 0x3
 16559 05c3 0E       		.uleb128 0xe
 16560 05c4 3A       		.uleb128 0x3a
 16561 05c5 0B       		.uleb128 0xb
 16562 05c6 3B       		.uleb128 0x3b
 16563 05c7 0B       		.uleb128 0xb
 16564 05c8 27       		.uleb128 0x27
 16565 05c9 19       		.uleb128 0x19
 16566 05ca 49       		.uleb128 0x49
 16567 05cb 13       		.uleb128 0x13
 16568 05cc 20       		.uleb128 0x20
 16569 05cd 0B       		.uleb128 0xb
 16570 05ce 01       		.uleb128 0x1
ARM GAS  /tmp/cchERvVK.s 			page 293


 16571 05cf 13       		.uleb128 0x13
 16572 05d0 00       		.byte	0
 16573 05d1 00       		.byte	0
 16574 05d2 6F       		.uleb128 0x6f
 16575 05d3 2E       		.uleb128 0x2e
 16576 05d4 01       		.byte	0x1
 16577 05d5 03       		.uleb128 0x3
 16578 05d6 0E       		.uleb128 0xe
 16579 05d7 3A       		.uleb128 0x3a
 16580 05d8 0B       		.uleb128 0xb
 16581 05d9 3B       		.uleb128 0x3b
 16582 05da 0B       		.uleb128 0xb
 16583 05db 27       		.uleb128 0x27
 16584 05dc 19       		.uleb128 0x19
 16585 05dd 49       		.uleb128 0x49
 16586 05de 13       		.uleb128 0x13
 16587 05df 20       		.uleb128 0x20
 16588 05e0 0B       		.uleb128 0xb
 16589 05e1 01       		.uleb128 0x1
 16590 05e2 13       		.uleb128 0x13
 16591 05e3 00       		.byte	0
 16592 05e4 00       		.byte	0
 16593 05e5 70       		.uleb128 0x70
 16594 05e6 2E       		.uleb128 0x2e
 16595 05e7 01       		.byte	0x1
 16596 05e8 31       		.uleb128 0x31
 16597 05e9 13       		.uleb128 0x13
 16598 05ea 11       		.uleb128 0x11
 16599 05eb 01       		.uleb128 0x1
 16600 05ec 12       		.uleb128 0x12
 16601 05ed 06       		.uleb128 0x6
 16602 05ee 40       		.uleb128 0x40
 16603 05ef 18       		.uleb128 0x18
 16604 05f0 9742     		.uleb128 0x2117
 16605 05f2 19       		.uleb128 0x19
 16606 05f3 01       		.uleb128 0x1
 16607 05f4 13       		.uleb128 0x13
 16608 05f5 00       		.byte	0
 16609 05f6 00       		.byte	0
 16610 05f7 71       		.uleb128 0x71
 16611 05f8 0B       		.uleb128 0xb
 16612 05f9 01       		.byte	0x1
 16613 05fa 31       		.uleb128 0x31
 16614 05fb 13       		.uleb128 0x13
 16615 05fc 11       		.uleb128 0x11
 16616 05fd 01       		.uleb128 0x1
 16617 05fe 12       		.uleb128 0x12
 16618 05ff 06       		.uleb128 0x6
 16619 0600 00       		.byte	0
 16620 0601 00       		.byte	0
 16621 0602 72       		.uleb128 0x72
 16622 0603 2E       		.uleb128 0x2e
 16623 0604 00       		.byte	0
 16624 0605 3F       		.uleb128 0x3f
 16625 0606 19       		.uleb128 0x19
 16626 0607 3C       		.uleb128 0x3c
 16627 0608 19       		.uleb128 0x19
ARM GAS  /tmp/cchERvVK.s 			page 294


 16628 0609 6E       		.uleb128 0x6e
 16629 060a 0E       		.uleb128 0xe
 16630 060b 03       		.uleb128 0x3
 16631 060c 0E       		.uleb128 0xe
 16632 060d 3A       		.uleb128 0x3a
 16633 060e 0B       		.uleb128 0xb
 16634 060f 3B       		.uleb128 0x3b
 16635 0610 0B       		.uleb128 0xb
 16636 0611 00       		.byte	0
 16637 0612 00       		.byte	0
 16638 0613 73       		.uleb128 0x73
 16639 0614 2E       		.uleb128 0x2e
 16640 0615 00       		.byte	0
 16641 0616 3F       		.uleb128 0x3f
 16642 0617 19       		.uleb128 0x19
 16643 0618 3C       		.uleb128 0x3c
 16644 0619 19       		.uleb128 0x19
 16645 061a 6E       		.uleb128 0x6e
 16646 061b 0E       		.uleb128 0xe
 16647 061c 03       		.uleb128 0x3
 16648 061d 0E       		.uleb128 0xe
 16649 061e 3A       		.uleb128 0x3a
 16650 061f 0B       		.uleb128 0xb
 16651 0620 3B       		.uleb128 0x3b
 16652 0621 0B       		.uleb128 0xb
 16653 0622 6E       		.uleb128 0x6e
 16654 0623 0E       		.uleb128 0xe
 16655 0624 00       		.byte	0
 16656 0625 00       		.byte	0
 16657 0626 00       		.byte	0
 16658              		.section	.debug_loc,"",%progbits
 16659              	.Ldebug_loc0:
 16660              	.LLST2:
 16661 0000 00000000 		.4byte	.LVL3
 16662 0004 0E000000 		.4byte	.LVL4
 16663 0008 0100     		.2byte	0x1
 16664 000a 50       		.byte	0x50
 16665 000b 0E000000 		.4byte	.LVL4
 16666 000f E8000000 		.4byte	.LFE289
 16667 0013 0100     		.2byte	0x1
 16668 0015 58       		.byte	0x58
 16669 0016 00000000 		.4byte	0
 16670 001a 00000000 		.4byte	0
 16671              	.LLST3:
 16672 001e 00000000 		.4byte	.LVL3
 16673 0022 0E000000 		.4byte	.LVL4
 16674 0026 0100     		.2byte	0x1
 16675 0028 51       		.byte	0x51
 16676 0029 0E000000 		.4byte	.LVL4
 16677 002d 3E000000 		.4byte	.LVL6
 16678 0031 0100     		.2byte	0x1
 16679 0033 5A       		.byte	0x5a
 16680 0034 3E000000 		.4byte	.LVL6
 16681 0038 86000000 		.4byte	.LVL13
 16682 003c 0400     		.2byte	0x4
 16683 003e F3       		.byte	0xf3
 16684 003f 01       		.uleb128 0x1
ARM GAS  /tmp/cchERvVK.s 			page 295


 16685 0040 51       		.byte	0x51
 16686 0041 9F       		.byte	0x9f
 16687 0042 86000000 		.4byte	.LVL13
 16688 0046 8A000000 		.4byte	.LVL14
 16689 004a 0100     		.2byte	0x1
 16690 004c 5A       		.byte	0x5a
 16691 004d 8A000000 		.4byte	.LVL14
 16692 0051 E8000000 		.4byte	.LFE289
 16693 0055 0400     		.2byte	0x4
 16694 0057 F3       		.byte	0xf3
 16695 0058 01       		.uleb128 0x1
 16696 0059 51       		.byte	0x51
 16697 005a 9F       		.byte	0x9f
 16698 005b 00000000 		.4byte	0
 16699 005f 00000000 		.4byte	0
 16700              	.LLST4:
 16701 0063 00000000 		.4byte	.LVL3
 16702 0067 0E000000 		.4byte	.LVL4
 16703 006b 0100     		.2byte	0x1
 16704 006d 52       		.byte	0x52
 16705 006e 0E000000 		.4byte	.LVL4
 16706 0072 3E000000 		.4byte	.LVL6
 16707 0076 0100     		.2byte	0x1
 16708 0078 55       		.byte	0x55
 16709 0079 3E000000 		.4byte	.LVL6
 16710 007d 86000000 		.4byte	.LVL13
 16711 0081 0400     		.2byte	0x4
 16712 0083 F3       		.byte	0xf3
 16713 0084 01       		.uleb128 0x1
 16714 0085 52       		.byte	0x52
 16715 0086 9F       		.byte	0x9f
 16716 0087 86000000 		.4byte	.LVL13
 16717 008b 90000000 		.4byte	.LVL15
 16718 008f 0100     		.2byte	0x1
 16719 0091 55       		.byte	0x55
 16720 0092 90000000 		.4byte	.LVL15
 16721 0096 E8000000 		.4byte	.LFE289
 16722 009a 0400     		.2byte	0x4
 16723 009c F3       		.byte	0xf3
 16724 009d 01       		.uleb128 0x1
 16725 009e 52       		.byte	0x52
 16726 009f 9F       		.byte	0x9f
 16727 00a0 00000000 		.4byte	0
 16728 00a4 00000000 		.4byte	0
 16729              	.LLST5:
 16730 00a8 48000000 		.4byte	.LVL7
 16731 00ac 52000000 		.4byte	.LVL8
 16732 00b0 0200     		.2byte	0x2
 16733 00b2 30       		.byte	0x30
 16734 00b3 9F       		.byte	0x9f
 16735 00b4 52000000 		.4byte	.LVL8
 16736 00b8 60000000 		.4byte	.LVL10
 16737 00bc 0100     		.2byte	0x1
 16738 00be 54       		.byte	0x54
 16739 00bf 60000000 		.4byte	.LVL10
 16740 00c3 72000000 		.4byte	.LVL11
 16741 00c7 0300     		.2byte	0x3
ARM GAS  /tmp/cchERvVK.s 			page 296


 16742 00c9 74       		.byte	0x74
 16743 00ca 7F       		.sleb128 -1
 16744 00cb 9F       		.byte	0x9f
 16745 00cc 72000000 		.4byte	.LVL11
 16746 00d0 86000000 		.4byte	.LVL13
 16747 00d4 0100     		.2byte	0x1
 16748 00d6 54       		.byte	0x54
 16749 00d7 90000000 		.4byte	.LVL15
 16750 00db 96000000 		.4byte	.LVL16
 16751 00df 0200     		.2byte	0x2
 16752 00e1 30       		.byte	0x30
 16753 00e2 9F       		.byte	0x9f
 16754 00e3 96000000 		.4byte	.LVL16
 16755 00e7 E8000000 		.4byte	.LFE289
 16756 00eb 0100     		.2byte	0x1
 16757 00ed 54       		.byte	0x54
 16758 00ee 00000000 		.4byte	0
 16759 00f2 00000000 		.4byte	0
 16760              	.LLST6:
 16761 00f6 00000000 		.4byte	.LVL22
 16762 00fa 23000000 		.4byte	.LVL27-1
 16763 00fe 0100     		.2byte	0x1
 16764 0100 50       		.byte	0x50
 16765 0101 23000000 		.4byte	.LVL27-1
 16766 0105 28000000 		.4byte	.LVL28
 16767 0109 0400     		.2byte	0x4
 16768 010b F3       		.byte	0xf3
 16769 010c 01       		.uleb128 0x1
 16770 010d 50       		.byte	0x50
 16771 010e 9F       		.byte	0x9f
 16772 010f 28000000 		.4byte	.LVL28
 16773 0113 2A000000 		.4byte	.LVL29
 16774 0117 0100     		.2byte	0x1
 16775 0119 50       		.byte	0x50
 16776 011a 2A000000 		.4byte	.LVL29
 16777 011e 2C000000 		.4byte	.LVL30
 16778 0122 0400     		.2byte	0x4
 16779 0124 F3       		.byte	0xf3
 16780 0125 01       		.uleb128 0x1
 16781 0126 50       		.byte	0x50
 16782 0127 9F       		.byte	0x9f
 16783 0128 2C000000 		.4byte	.LVL30
 16784 012c 41000000 		.4byte	.LVL35-1
 16785 0130 0100     		.2byte	0x1
 16786 0132 50       		.byte	0x50
 16787 0133 41000000 		.4byte	.LVL35-1
 16788 0137 4C000000 		.4byte	.LFE287
 16789 013b 0400     		.2byte	0x4
 16790 013d F3       		.byte	0xf3
 16791 013e 01       		.uleb128 0x1
 16792 013f 50       		.byte	0x50
 16793 0140 9F       		.byte	0x9f
 16794 0141 00000000 		.4byte	0
 16795 0145 00000000 		.4byte	0
 16796              	.LLST7:
 16797 0149 00000000 		.4byte	.LVL22
 16798 014d 04000000 		.4byte	.LVL23
ARM GAS  /tmp/cchERvVK.s 			page 297


 16799 0151 0100     		.2byte	0x1
 16800 0153 51       		.byte	0x51
 16801 0154 04000000 		.4byte	.LVL23
 16802 0158 4C000000 		.4byte	.LFE287
 16803 015c 0400     		.2byte	0x4
 16804 015e F3       		.byte	0xf3
 16805 015f 01       		.uleb128 0x1
 16806 0160 51       		.byte	0x51
 16807 0161 9F       		.byte	0x9f
 16808 0162 00000000 		.4byte	0
 16809 0166 00000000 		.4byte	0
 16810              	.LLST8:
 16811 016a 0A000000 		.4byte	.LVL24
 16812 016e 14000000 		.4byte	.LVL25
 16813 0172 0100     		.2byte	0x1
 16814 0174 53       		.byte	0x53
 16815 0175 14000000 		.4byte	.LVL25
 16816 0179 23000000 		.4byte	.LVL27-1
 16817 017d 0300     		.2byte	0x3
 16818 017f 70       		.byte	0x70
 16819 0180 EC00     		.sleb128 108
 16820 0182 28000000 		.4byte	.LVL28
 16821 0186 2E000000 		.4byte	.LVL31
 16822 018a 0100     		.2byte	0x1
 16823 018c 53       		.byte	0x53
 16824 018d 2E000000 		.4byte	.LVL31
 16825 0191 41000000 		.4byte	.LVL35-1
 16826 0195 0300     		.2byte	0x3
 16827 0197 70       		.byte	0x70
 16828 0198 EC00     		.sleb128 108
 16829 019a 00000000 		.4byte	0
 16830 019e 00000000 		.4byte	0
 16831              	.LLST9:
 16832 01a2 0A000000 		.4byte	.LVL24
 16833 01a6 20000000 		.4byte	.LVL26
 16834 01aa 0100     		.2byte	0x1
 16835 01ac 51       		.byte	0x51
 16836 01ad 20000000 		.4byte	.LVL26
 16837 01b1 23000000 		.4byte	.LVL27-1
 16838 01b5 0500     		.2byte	0x5
 16839 01b7 F3       		.byte	0xf3
 16840 01b8 01       		.uleb128 0x1
 16841 01b9 51       		.byte	0x51
 16842 01ba 23       		.byte	0x23
 16843 01bb 10       		.uleb128 0x10
 16844 01bc 28000000 		.4byte	.LVL28
 16845 01c0 32000000 		.4byte	.LVL32
 16846 01c4 0100     		.2byte	0x1
 16847 01c6 51       		.byte	0x51
 16848 01c7 32000000 		.4byte	.LVL32
 16849 01cb 38000000 		.4byte	.LVL33
 16850 01cf 0700     		.2byte	0x7
 16851 01d1 71       		.byte	0x71
 16852 01d2 808080C0 		.sleb128 -939524096
 16852      7C
 16853 01d7 9F       		.byte	0x9f
 16854 01d8 38000000 		.4byte	.LVL33
ARM GAS  /tmp/cchERvVK.s 			page 298


 16855 01dc 3A000000 		.4byte	.LVL34
 16856 01e0 0700     		.2byte	0x7
 16857 01e2 71       		.byte	0x71
 16858 01e3 FEEFFFBF 		.sleb128 -939526146
 16858      7C
 16859 01e8 9F       		.byte	0x9f
 16860 01e9 3A000000 		.4byte	.LVL34
 16861 01ed 41000000 		.4byte	.LVL35-1
 16862 01f1 0500     		.2byte	0x5
 16863 01f3 F3       		.byte	0xf3
 16864 01f4 01       		.uleb128 0x1
 16865 01f5 51       		.byte	0x51
 16866 01f6 23       		.byte	0x23
 16867 01f7 10       		.uleb128 0x10
 16868 01f8 00000000 		.4byte	0
 16869 01fc 00000000 		.4byte	0
 16870              	.LLST10:
 16871 0200 00000000 		.4byte	.LVL36
 16872 0204 10000000 		.4byte	.LVL37
 16873 0208 0100     		.2byte	0x1
 16874 020a 50       		.byte	0x50
 16875 020b 10000000 		.4byte	.LVL37
 16876 020f 54010000 		.4byte	.LFE286
 16877 0213 0100     		.2byte	0x1
 16878 0215 56       		.byte	0x56
 16879 0216 00000000 		.4byte	0
 16880 021a 00000000 		.4byte	0
 16881              	.LLST11:
 16882 021e 00000000 		.4byte	.LVL36
 16883 0222 2C000000 		.4byte	.LVL39
 16884 0226 0100     		.2byte	0x1
 16885 0228 51       		.byte	0x51
 16886 0229 2C000000 		.4byte	.LVL39
 16887 022d 46000000 		.4byte	.LVL45
 16888 0231 0100     		.2byte	0x1
 16889 0233 55       		.byte	0x55
 16890 0234 46000000 		.4byte	.LVL45
 16891 0238 68000000 		.4byte	.LVL49
 16892 023c 0100     		.2byte	0x1
 16893 023e 51       		.byte	0x51
 16894 023f 68000000 		.4byte	.LVL49
 16895 0243 7E000000 		.4byte	.LVL53
 16896 0247 0100     		.2byte	0x1
 16897 0249 55       		.byte	0x55
 16898 024a 7E000000 		.4byte	.LVL53
 16899 024e 98000000 		.4byte	.LVL57
 16900 0252 0100     		.2byte	0x1
 16901 0254 51       		.byte	0x51
 16902 0255 98000000 		.4byte	.LVL57
 16903 0259 30010000 		.4byte	.LVL78
 16904 025d 0100     		.2byte	0x1
 16905 025f 55       		.byte	0x55
 16906 0260 30010000 		.4byte	.LVL78
 16907 0264 32010000 		.4byte	.LVL79
 16908 0268 0100     		.2byte	0x1
 16909 026a 51       		.byte	0x51
 16910 026b 32010000 		.4byte	.LVL79
ARM GAS  /tmp/cchERvVK.s 			page 299


 16911 026f 34010000 		.4byte	.LVL80
 16912 0273 0100     		.2byte	0x1
 16913 0275 55       		.byte	0x55
 16914 0276 34010000 		.4byte	.LVL80
 16915 027a 3C010000 		.4byte	.LVL81
 16916 027e 0100     		.2byte	0x1
 16917 0280 51       		.byte	0x51
 16918 0281 3C010000 		.4byte	.LVL81
 16919 0285 54010000 		.4byte	.LFE286
 16920 0289 0100     		.2byte	0x1
 16921 028b 55       		.byte	0x55
 16922 028c 00000000 		.4byte	0
 16923 0290 00000000 		.4byte	0
 16924              	.LLST12:
 16925 0294 10000000 		.4byte	.LVL37
 16926 0298 42000000 		.4byte	.LVL44
 16927 029c 0100     		.2byte	0x1
 16928 029e 50       		.byte	0x50
 16929 029f 42000000 		.4byte	.LVL44
 16930 02a3 46000000 		.4byte	.LVL45
 16931 02a7 0300     		.2byte	0x3
 16932 02a9 76       		.byte	0x76
 16933 02aa EC00     		.sleb128 108
 16934 02ac 46000000 		.4byte	.LVL45
 16935 02b0 48000000 		.4byte	.LVL46
 16936 02b4 0100     		.2byte	0x1
 16937 02b6 50       		.byte	0x50
 16938 02b7 48000000 		.4byte	.LVL46
 16939 02bb 4C000000 		.4byte	.LVL47
 16940 02bf 0300     		.2byte	0x3
 16941 02c1 76       		.byte	0x76
 16942 02c2 EC00     		.sleb128 108
 16943 02c4 4C000000 		.4byte	.LVL47
 16944 02c8 AA000000 		.4byte	.LVL59
 16945 02cc 0100     		.2byte	0x1
 16946 02ce 50       		.byte	0x50
 16947 02cf AA000000 		.4byte	.LVL59
 16948 02d3 B3000000 		.4byte	.LVL60-1
 16949 02d7 0300     		.2byte	0x3
 16950 02d9 76       		.byte	0x76
 16951 02da EC00     		.sleb128 108
 16952 02dc 00010000 		.4byte	.LVL68
 16953 02e0 10010000 		.4byte	.LVL70
 16954 02e4 0100     		.2byte	0x1
 16955 02e6 50       		.byte	0x50
 16956 02e7 10010000 		.4byte	.LVL70
 16957 02eb 15010000 		.4byte	.LVL71-1
 16958 02ef 0300     		.2byte	0x3
 16959 02f1 76       		.byte	0x76
 16960 02f2 EC00     		.sleb128 108
 16961 02f4 30010000 		.4byte	.LVL78
 16962 02f8 54010000 		.4byte	.LFE286
 16963 02fc 0100     		.2byte	0x1
 16964 02fe 50       		.byte	0x50
 16965 02ff 00000000 		.4byte	0
 16966 0303 00000000 		.4byte	0
 16967              	.LLST13:
ARM GAS  /tmp/cchERvVK.s 			page 300


 16968 0307 18000000 		.4byte	.LVL38
 16969 030b 30000000 		.4byte	.LVL40
 16970 030f 0200     		.2byte	0x2
 16971 0311 30       		.byte	0x30
 16972 0312 9F       		.byte	0x9f
 16973 0313 30000000 		.4byte	.LVL40
 16974 0317 38000000 		.4byte	.LVL41
 16975 031b 0100     		.2byte	0x1
 16976 031d 54       		.byte	0x54
 16977 031e 38000000 		.4byte	.LVL41
 16978 0322 3A000000 		.4byte	.LVL42
 16979 0326 0100     		.2byte	0x1
 16980 0328 53       		.byte	0x53
 16981 0329 3A000000 		.4byte	.LVL42
 16982 032d 3E000000 		.4byte	.LVL43
 16983 0331 0100     		.2byte	0x1
 16984 0333 54       		.byte	0x54
 16985 0334 58000000 		.4byte	.LVL48
 16986 0338 6C000000 		.4byte	.LVL50
 16987 033c 0200     		.2byte	0x2
 16988 033e 30       		.byte	0x30
 16989 033f 9F       		.byte	0x9f
 16990 0340 6C000000 		.4byte	.LVL50
 16991 0344 76000000 		.4byte	.LVL51
 16992 0348 0100     		.2byte	0x1
 16993 034a 54       		.byte	0x54
 16994 034b 76000000 		.4byte	.LVL51
 16995 034f 78000000 		.4byte	.LVL52
 16996 0353 0100     		.2byte	0x1
 16997 0355 53       		.byte	0x53
 16998 0356 78000000 		.4byte	.LVL52
 16999 035a 7E000000 		.4byte	.LVL53
 17000 035e 0100     		.2byte	0x1
 17001 0360 54       		.byte	0x54
 17002 0361 98000000 		.4byte	.LVL57
 17003 0365 A8000000 		.4byte	.LVL58
 17004 0369 0100     		.2byte	0x1
 17005 036b 54       		.byte	0x54
 17006 036c 00010000 		.4byte	.LVL68
 17007 0370 0A010000 		.4byte	.LVL69
 17008 0374 0100     		.2byte	0x1
 17009 0376 54       		.byte	0x54
 17010 0377 30010000 		.4byte	.LVL78
 17011 037b 54010000 		.4byte	.LFE286
 17012 037f 0200     		.2byte	0x2
 17013 0381 30       		.byte	0x30
 17014 0382 9F       		.byte	0x9f
 17015 0383 00000000 		.4byte	0
 17016 0387 00000000 		.4byte	0
 17017              	.LLST14:
 17018 038b 10000000 		.4byte	.LVL37
 17019 038f 86000000 		.4byte	.LVL54
 17020 0393 0100     		.2byte	0x1
 17021 0395 52       		.byte	0x52
 17022 0396 86000000 		.4byte	.LVL54
 17023 039a 8A000000 		.4byte	.LVL55
 17024 039e 0200     		.2byte	0x2
ARM GAS  /tmp/cchERvVK.s 			page 301


 17025 03a0 71       		.byte	0x71
 17026 03a1 08       		.sleb128 8
 17027 03a2 8A000000 		.4byte	.LVL55
 17028 03a6 B3000000 		.4byte	.LVL60-1
 17029 03aa 0100     		.2byte	0x1
 17030 03ac 52       		.byte	0x52
 17031 03ad 00010000 		.4byte	.LVL68
 17032 03b1 15010000 		.4byte	.LVL71-1
 17033 03b5 0100     		.2byte	0x1
 17034 03b7 52       		.byte	0x52
 17035 03b8 30010000 		.4byte	.LVL78
 17036 03bc 54010000 		.4byte	.LFE286
 17037 03c0 0100     		.2byte	0x1
 17038 03c2 52       		.byte	0x52
 17039 03c3 00000000 		.4byte	0
 17040 03c7 00000000 		.4byte	0
 17041              	.LLST15:
 17042 03cb CC000000 		.4byte	.LVL63
 17043 03cf F8000000 		.4byte	.LVL67
 17044 03d3 0100     		.2byte	0x1
 17045 03d5 56       		.byte	0x56
 17046 03d6 1E010000 		.4byte	.LVL72
 17047 03da 30010000 		.4byte	.LVL78
 17048 03de 0100     		.2byte	0x1
 17049 03e0 56       		.byte	0x56
 17050 03e1 00000000 		.4byte	0
 17051 03e5 00000000 		.4byte	0
 17052              	.LLST16:
 17053 03e9 CC000000 		.4byte	.LVL63
 17054 03ed E8000000 		.4byte	.LVL65
 17055 03f1 0100     		.2byte	0x1
 17056 03f3 53       		.byte	0x53
 17057 03f4 1E010000 		.4byte	.LVL72
 17058 03f8 30010000 		.4byte	.LVL78
 17059 03fc 0100     		.2byte	0x1
 17060 03fe 53       		.byte	0x53
 17061 03ff 00000000 		.4byte	0
 17062 0403 00000000 		.4byte	0
 17063              	.LLST17:
 17064 0407 CC000000 		.4byte	.LVL63
 17065 040b D8000000 		.4byte	.LVL64
 17066 040f 0200     		.2byte	0x2
 17067 0411 30       		.byte	0x30
 17068 0412 9F       		.byte	0x9f
 17069 0413 D8000000 		.4byte	.LVL64
 17070 0417 E8000000 		.4byte	.LVL65
 17071 041b 0100     		.2byte	0x1
 17072 041d 52       		.byte	0x52
 17073 041e 1E010000 		.4byte	.LVL72
 17074 0422 22010000 		.4byte	.LVL73
 17075 0426 0100     		.2byte	0x1
 17076 0428 52       		.byte	0x52
 17077 0429 22010000 		.4byte	.LVL73
 17078 042d 24010000 		.4byte	.LVL74
 17079 0431 2700     		.2byte	0x27
 17080 0433 30       		.byte	0x30
 17081 0434 0A       		.byte	0xa
ARM GAS  /tmp/cchERvVK.s 			page 302


 17082 0435 0008     		.2byte	0x800
 17083 0437 76       		.byte	0x76
 17084 0438 CC00     		.sleb128 76
 17085 043a 06       		.byte	0x6
 17086 043b 76       		.byte	0x76
 17087 043c CC00     		.sleb128 76
 17088 043e 06       		.byte	0x6
 17089 043f 33       		.byte	0x33
 17090 0440 24       		.byte	0x24
 17091 0441 33       		.byte	0x33
 17092 0442 25       		.byte	0x25
 17093 0443 30       		.byte	0x30
 17094 0444 29       		.byte	0x29
 17095 0445 28       		.byte	0x28
 17096 0446 0100     		.2byte	0x1
 17097 0448 16       		.byte	0x16
 17098 0449 13       		.byte	0x13
 17099 044a 76       		.byte	0x76
 17100 044b CC00     		.sleb128 76
 17101 044d 06       		.byte	0x6
 17102 044e 33       		.byte	0x33
 17103 044f 24       		.byte	0x24
 17104 0450 33       		.byte	0x33
 17105 0451 25       		.byte	0x25
 17106 0452 30       		.byte	0x30
 17107 0453 2E       		.byte	0x2e
 17108 0454 28       		.byte	0x28
 17109 0455 0100     		.2byte	0x1
 17110 0457 16       		.byte	0x16
 17111 0458 13       		.byte	0x13
 17112 0459 9F       		.byte	0x9f
 17113 045a 24010000 		.4byte	.LVL74
 17114 045e 28010000 		.4byte	.LVL75
 17115 0462 0100     		.2byte	0x1
 17116 0464 52       		.byte	0x52
 17117 0465 28010000 		.4byte	.LVL75
 17118 0469 2A010000 		.4byte	.LVL76
 17119 046d 2700     		.2byte	0x27
 17120 046f 30       		.byte	0x30
 17121 0470 0A       		.byte	0xa
 17122 0471 0008     		.2byte	0x800
 17123 0473 76       		.byte	0x76
 17124 0474 CC00     		.sleb128 76
 17125 0476 06       		.byte	0x6
 17126 0477 76       		.byte	0x76
 17127 0478 CC00     		.sleb128 76
 17128 047a 06       		.byte	0x6
 17129 047b 33       		.byte	0x33
 17130 047c 24       		.byte	0x24
 17131 047d 33       		.byte	0x33
 17132 047e 25       		.byte	0x25
 17133 047f 30       		.byte	0x30
 17134 0480 29       		.byte	0x29
 17135 0481 28       		.byte	0x28
 17136 0482 0100     		.2byte	0x1
 17137 0484 16       		.byte	0x16
 17138 0485 13       		.byte	0x13
ARM GAS  /tmp/cchERvVK.s 			page 303


 17139 0486 76       		.byte	0x76
 17140 0487 CC00     		.sleb128 76
 17141 0489 06       		.byte	0x6
 17142 048a 33       		.byte	0x33
 17143 048b 24       		.byte	0x24
 17144 048c 33       		.byte	0x33
 17145 048d 25       		.byte	0x25
 17146 048e 30       		.byte	0x30
 17147 048f 2E       		.byte	0x2e
 17148 0490 28       		.byte	0x28
 17149 0491 0100     		.2byte	0x1
 17150 0493 16       		.byte	0x16
 17151 0494 13       		.byte	0x13
 17152 0495 9F       		.byte	0x9f
 17153 0496 2A010000 		.4byte	.LVL76
 17154 049a 2E010000 		.4byte	.LVL77
 17155 049e 0100     		.2byte	0x1
 17156 04a0 52       		.byte	0x52
 17157 04a1 2E010000 		.4byte	.LVL77
 17158 04a5 30010000 		.4byte	.LVL78
 17159 04a9 2700     		.2byte	0x27
 17160 04ab 30       		.byte	0x30
 17161 04ac 0A       		.byte	0xa
 17162 04ad 0008     		.2byte	0x800
 17163 04af 76       		.byte	0x76
 17164 04b0 CC00     		.sleb128 76
 17165 04b2 06       		.byte	0x6
 17166 04b3 76       		.byte	0x76
 17167 04b4 CC00     		.sleb128 76
 17168 04b6 06       		.byte	0x6
 17169 04b7 33       		.byte	0x33
 17170 04b8 24       		.byte	0x24
 17171 04b9 33       		.byte	0x33
 17172 04ba 25       		.byte	0x25
 17173 04bb 30       		.byte	0x30
 17174 04bc 29       		.byte	0x29
 17175 04bd 28       		.byte	0x28
 17176 04be 0100     		.2byte	0x1
 17177 04c0 16       		.byte	0x16
 17178 04c1 13       		.byte	0x13
 17179 04c2 76       		.byte	0x76
 17180 04c3 CC00     		.sleb128 76
 17181 04c5 06       		.byte	0x6
 17182 04c6 33       		.byte	0x33
 17183 04c7 24       		.byte	0x24
 17184 04c8 33       		.byte	0x33
 17185 04c9 25       		.byte	0x25
 17186 04ca 30       		.byte	0x30
 17187 04cb 2E       		.byte	0x2e
 17188 04cc 28       		.byte	0x28
 17189 04cd 0100     		.2byte	0x1
 17190 04cf 16       		.byte	0x16
 17191 04d0 13       		.byte	0x13
 17192 04d1 9F       		.byte	0x9f
 17193 04d2 00000000 		.4byte	0
 17194 04d6 00000000 		.4byte	0
 17195              	.LLST135:
ARM GAS  /tmp/cchERvVK.s 			page 304


 17196 04da 00000000 		.4byte	.LVL404
 17197 04de 12000000 		.4byte	.LVL407
 17198 04e2 0100     		.2byte	0x1
 17199 04e4 50       		.byte	0x50
 17200 04e5 12000000 		.4byte	.LVL407
 17201 04e9 B4000000 		.4byte	.LFE283
 17202 04ed 0100     		.2byte	0x1
 17203 04ef 54       		.byte	0x54
 17204 04f0 00000000 		.4byte	0
 17205 04f4 00000000 		.4byte	0
 17206              	.LLST136:
 17207 04f8 00000000 		.4byte	.LVL404
 17208 04fc 08000000 		.4byte	.LVL405
 17209 0500 0100     		.2byte	0x1
 17210 0502 51       		.byte	0x51
 17211 0503 08000000 		.4byte	.LVL405
 17212 0507 B4000000 		.4byte	.LFE283
 17213 050b 0100     		.2byte	0x1
 17214 050d 55       		.byte	0x55
 17215 050e 00000000 		.4byte	0
 17216 0512 00000000 		.4byte	0
 17217              	.LLST137:
 17218 0516 00000000 		.4byte	.LVL404
 17219 051a 26000000 		.4byte	.LVL409
 17220 051e 0100     		.2byte	0x1
 17221 0520 52       		.byte	0x52
 17222 0521 26000000 		.4byte	.LVL409
 17223 0525 B4000000 		.4byte	.LFE283
 17224 0529 0100     		.2byte	0x1
 17225 052b 5A       		.byte	0x5a
 17226 052c 00000000 		.4byte	0
 17227 0530 00000000 		.4byte	0
 17228              	.LLST138:
 17229 0534 00000000 		.4byte	.LVL404
 17230 0538 2B000000 		.4byte	.LVL410-1
 17231 053c 0100     		.2byte	0x1
 17232 053e 53       		.byte	0x53
 17233 053f 2B000000 		.4byte	.LVL410-1
 17234 0543 32000000 		.4byte	.LVL411
 17235 0547 0100     		.2byte	0x1
 17236 0549 56       		.byte	0x56
 17237 054a 32000000 		.4byte	.LVL411
 17238 054e 51000000 		.4byte	.LVL412-1
 17239 0552 0200     		.2byte	0x2
 17240 0554 78       		.byte	0x78
 17241 0555 04       		.sleb128 4
 17242 0556 51000000 		.4byte	.LVL412-1
 17243 055a B4000000 		.4byte	.LFE283
 17244 055e 0400     		.2byte	0x4
 17245 0560 F3       		.byte	0xf3
 17246 0561 01       		.uleb128 0x1
 17247 0562 53       		.byte	0x53
 17248 0563 9F       		.byte	0x9f
 17249 0564 00000000 		.4byte	0
 17250 0568 00000000 		.4byte	0
 17251              	.LLST139:
 17252 056c 6A000000 		.4byte	.LVL415
ARM GAS  /tmp/cchERvVK.s 			page 305


 17253 0570 78000000 		.4byte	.LVL416
 17254 0574 0100     		.2byte	0x1
 17255 0576 50       		.byte	0x50
 17256 0577 94000000 		.4byte	.LVL421
 17257 057b 99000000 		.4byte	.LVL422-1
 17258 057f 0100     		.2byte	0x1
 17259 0581 50       		.byte	0x50
 17260 0582 00000000 		.4byte	0
 17261 0586 00000000 		.4byte	0
 17262              	.LLST140:
 17263 058a 7C000000 		.4byte	.LVL417
 17264 058e 80000000 		.4byte	.LVL418
 17265 0592 0100     		.2byte	0x1
 17266 0594 50       		.byte	0x50
 17267 0595 80000000 		.4byte	.LVL418
 17268 0599 83000000 		.4byte	.LVL419-1
 17269 059d 0100     		.2byte	0x1
 17270 059f 51       		.byte	0x51
 17271 05a0 00000000 		.4byte	0
 17272 05a4 00000000 		.4byte	0
 17273              	.LLST141:
 17274 05a8 84000000 		.4byte	.LVL419
 17275 05ac 8E000000 		.4byte	.LVL420
 17276 05b0 0100     		.2byte	0x1
 17277 05b2 50       		.byte	0x50
 17278 05b3 00000000 		.4byte	0
 17279 05b7 00000000 		.4byte	0
 17280              	.LLST134:
 17281 05bb 0E000000 		.4byte	.LVL406
 17282 05bf 12000000 		.4byte	.LVL407
 17283 05c3 0800     		.2byte	0x8
 17284 05c5 70       		.byte	0x70
 17285 05c6 1C       		.sleb128 28
 17286 05c7 06       		.byte	0x6
 17287 05c8 32       		.byte	0x32
 17288 05c9 25       		.byte	0x25
 17289 05ca 31       		.byte	0x31
 17290 05cb 1C       		.byte	0x1c
 17291 05cc 9F       		.byte	0x9f
 17292 05cd 12000000 		.4byte	.LVL407
 17293 05d1 2B000000 		.4byte	.LVL410-1
 17294 05d5 0800     		.2byte	0x8
 17295 05d7 74       		.byte	0x74
 17296 05d8 1C       		.sleb128 28
 17297 05d9 06       		.byte	0x6
 17298 05da 32       		.byte	0x32
 17299 05db 25       		.byte	0x25
 17300 05dc 31       		.byte	0x31
 17301 05dd 1C       		.byte	0x1c
 17302 05de 9F       		.byte	0x9f
 17303 05df 00000000 		.4byte	0
 17304 05e3 00000000 		.4byte	0
 17305              	.LLST23:
 17306 05e7 00000000 		.4byte	.LVL105
 17307 05eb 21000000 		.4byte	.LVL109-1
 17308 05ef 0100     		.2byte	0x1
 17309 05f1 50       		.byte	0x50
ARM GAS  /tmp/cchERvVK.s 			page 306


 17310 05f2 21000000 		.4byte	.LVL109-1
 17311 05f6 42000000 		.4byte	.LVL111
 17312 05fa 0100     		.2byte	0x1
 17313 05fc 57       		.byte	0x57
 17314 05fd 42000000 		.4byte	.LVL111
 17315 0601 45000000 		.4byte	.LVL112-1
 17316 0605 0100     		.2byte	0x1
 17317 0607 50       		.byte	0x50
 17318 0608 45000000 		.4byte	.LVL112-1
 17319 060c 46000000 		.4byte	.LVL112
 17320 0610 0400     		.2byte	0x4
 17321 0612 F3       		.byte	0xf3
 17322 0613 01       		.uleb128 0x1
 17323 0614 50       		.byte	0x50
 17324 0615 9F       		.byte	0x9f
 17325 0616 46000000 		.4byte	.LVL112
 17326 061a 94000000 		.4byte	.LFE281
 17327 061e 0100     		.2byte	0x1
 17328 0620 57       		.byte	0x57
 17329 0621 00000000 		.4byte	0
 17330 0625 00000000 		.4byte	0
 17331              	.LLST24:
 17332 0629 00000000 		.4byte	.LVL105
 17333 062d 1E000000 		.4byte	.LVL108
 17334 0631 0100     		.2byte	0x1
 17335 0633 51       		.byte	0x51
 17336 0634 1E000000 		.4byte	.LVL108
 17337 0638 94000000 		.4byte	.LFE281
 17338 063c 0400     		.2byte	0x4
 17339 063e F3       		.byte	0xf3
 17340 063f 01       		.uleb128 0x1
 17341 0640 51       		.byte	0x51
 17342 0641 9F       		.byte	0x9f
 17343 0642 00000000 		.4byte	0
 17344 0646 00000000 		.4byte	0
 17345              	.LLST25:
 17346 064a 04000000 		.4byte	.LVL106
 17347 064e 42000000 		.4byte	.LVL111
 17348 0652 0100     		.2byte	0x1
 17349 0654 56       		.byte	0x56
 17350 0655 46000000 		.4byte	.LVL112
 17351 0659 94000000 		.4byte	.LFE281
 17352 065d 0100     		.2byte	0x1
 17353 065f 56       		.byte	0x56
 17354 0660 00000000 		.4byte	0
 17355 0664 00000000 		.4byte	0
 17356              	.LLST26:
 17357 0668 04000000 		.4byte	.LVL106
 17358 066c 10000000 		.4byte	.LVL107
 17359 0670 0600     		.2byte	0x6
 17360 0672 9E       		.byte	0x9e
 17361 0673 04       		.uleb128 0x4
 17362 0674 01005FA0 		.4byte	0xa05f0001
 17363 0678 10000000 		.4byte	.LVL107
 17364 067c 42000000 		.4byte	.LVL111
 17365 0680 0100     		.2byte	0x1
 17366 0682 54       		.byte	0x54
ARM GAS  /tmp/cchERvVK.s 			page 307


 17367 0683 42000000 		.4byte	.LVL111
 17368 0687 45000000 		.4byte	.LVL112-1
 17369 068b 0100     		.2byte	0x1
 17370 068d 52       		.byte	0x52
 17371 068e 46000000 		.4byte	.LVL112
 17372 0692 94000000 		.4byte	.LFE281
 17373 0696 0100     		.2byte	0x1
 17374 0698 54       		.byte	0x54
 17375 0699 00000000 		.4byte	0
 17376 069d 00000000 		.4byte	0
 17377              	.LLST27:
 17378 06a1 50000000 		.4byte	.LVL114
 17379 06a5 52000000 		.4byte	.LVL115
 17380 06a9 0100     		.2byte	0x1
 17381 06ab 50       		.byte	0x50
 17382 06ac 52000000 		.4byte	.LVL115
 17383 06b0 55000000 		.4byte	.LVL116-1
 17384 06b4 0100     		.2byte	0x1
 17385 06b6 51       		.byte	0x51
 17386 06b7 55000000 		.4byte	.LVL116-1
 17387 06bb 94000000 		.4byte	.LFE281
 17388 06bf 0100     		.2byte	0x1
 17389 06c1 55       		.byte	0x55
 17390 06c2 00000000 		.4byte	0
 17391 06c6 00000000 		.4byte	0
 17392              	.LLST28:
 17393 06ca 60000000 		.4byte	.LVL117
 17394 06ce 62000000 		.4byte	.LVL118
 17395 06d2 0300     		.2byte	0x3
 17396 06d4 75       		.byte	0x75
 17397 06d5 02       		.sleb128 2
 17398 06d6 9F       		.byte	0x9f
 17399 06d7 62000000 		.4byte	.LVL118
 17400 06db 69000000 		.4byte	.LVL119-1
 17401 06df 0100     		.2byte	0x1
 17402 06e1 52       		.byte	0x52
 17403 06e2 69000000 		.4byte	.LVL119-1
 17404 06e6 94000000 		.4byte	.LFE281
 17405 06ea 0300     		.2byte	0x3
 17406 06ec 75       		.byte	0x75
 17407 06ed 02       		.sleb128 2
 17408 06ee 9F       		.byte	0x9f
 17409 06ef 00000000 		.4byte	0
 17410 06f3 00000000 		.4byte	0
 17411              	.LLST29:
 17412 06f7 00000000 		.4byte	.LVL121
 17413 06fb 20000000 		.4byte	.LVL122
 17414 06ff 0100     		.2byte	0x1
 17415 0701 50       		.byte	0x50
 17416 0702 20000000 		.4byte	.LVL122
 17417 0706 35000000 		.4byte	.LVL124-1
 17418 070a 0100     		.2byte	0x1
 17419 070c 5C       		.byte	0x5c
 17420 070d 35000000 		.4byte	.LVL124-1
 17421 0711 64000000 		.4byte	.LVL126
 17422 0715 0200     		.2byte	0x2
 17423 0717 7D       		.byte	0x7d
ARM GAS  /tmp/cchERvVK.s 			page 308


 17424 0718 3C       		.sleb128 60
 17425 0719 64000000 		.4byte	.LVL126
 17426 071d 6E000000 		.4byte	.LVL127
 17427 0721 0400     		.2byte	0x4
 17428 0723 F3       		.byte	0xf3
 17429 0724 01       		.uleb128 0x1
 17430 0725 50       		.byte	0x50
 17431 0726 9F       		.byte	0x9f
 17432 0727 6E000000 		.4byte	.LVL127
 17433 072b 0C010000 		.4byte	.LVL141
 17434 072f 0200     		.2byte	0x2
 17435 0731 7D       		.byte	0x7d
 17436 0732 3C       		.sleb128 60
 17437 0733 0C010000 		.4byte	.LVL141
 17438 0737 22020000 		.4byte	.LVL174
 17439 073b 0300     		.2byte	0x3
 17440 073d 91       		.byte	0x91
 17441 073e C47E     		.sleb128 -188
 17442 0740 22020000 		.4byte	.LVL174
 17443 0744 26020000 		.4byte	.LVL175
 17444 0748 0400     		.2byte	0x4
 17445 074a F3       		.byte	0xf3
 17446 074b 01       		.uleb128 0x1
 17447 074c 50       		.byte	0x50
 17448 074d 9F       		.byte	0x9f
 17449 074e 26020000 		.4byte	.LVL175
 17450 0752 68020000 		.4byte	.LVL185
 17451 0756 0300     		.2byte	0x3
 17452 0758 91       		.byte	0x91
 17453 0759 C47E     		.sleb128 -188
 17454 075b 68020000 		.4byte	.LVL185
 17455 075f DA030000 		.4byte	.LVL213
 17456 0763 0400     		.2byte	0x4
 17457 0765 F3       		.byte	0xf3
 17458 0766 01       		.uleb128 0x1
 17459 0767 50       		.byte	0x50
 17460 0768 9F       		.byte	0x9f
 17461 0769 DA030000 		.4byte	.LVL213
 17462 076d E4030000 		.4byte	.LVL215
 17463 0771 0300     		.2byte	0x3
 17464 0773 91       		.byte	0x91
 17465 0774 C47E     		.sleb128 -188
 17466 0776 E4030000 		.4byte	.LVL215
 17467 077a 10040000 		.4byte	.LFE280
 17468 077e 0400     		.2byte	0x4
 17469 0780 F3       		.byte	0xf3
 17470 0781 01       		.uleb128 0x1
 17471 0782 50       		.byte	0x50
 17472 0783 9F       		.byte	0x9f
 17473 0784 00000000 		.4byte	0
 17474 0788 00000000 		.4byte	0
 17475              	.LLST30:
 17476 078c 00000000 		.4byte	.LVL121
 17477 0790 35000000 		.4byte	.LVL124-1
 17478 0794 0100     		.2byte	0x1
 17479 0796 51       		.byte	0x51
 17480 0797 35000000 		.4byte	.LVL124-1
ARM GAS  /tmp/cchERvVK.s 			page 309


 17481 079b 64000000 		.4byte	.LVL126
 17482 079f 0200     		.2byte	0x2
 17483 07a1 7D       		.byte	0x7d
 17484 07a2 34       		.sleb128 52
 17485 07a3 64000000 		.4byte	.LVL126
 17486 07a7 6E000000 		.4byte	.LVL127
 17487 07ab 0400     		.2byte	0x4
 17488 07ad F3       		.byte	0xf3
 17489 07ae 01       		.uleb128 0x1
 17490 07af 51       		.byte	0x51
 17491 07b0 9F       		.byte	0x9f
 17492 07b1 6E000000 		.4byte	.LVL127
 17493 07b5 0C010000 		.4byte	.LVL141
 17494 07b9 0200     		.2byte	0x2
 17495 07bb 7D       		.byte	0x7d
 17496 07bc 34       		.sleb128 52
 17497 07bd 0C010000 		.4byte	.LVL141
 17498 07c1 22020000 		.4byte	.LVL174
 17499 07c5 0300     		.2byte	0x3
 17500 07c7 91       		.byte	0x91
 17501 07c8 BC7E     		.sleb128 -196
 17502 07ca 22020000 		.4byte	.LVL174
 17503 07ce 26020000 		.4byte	.LVL175
 17504 07d2 0400     		.2byte	0x4
 17505 07d4 F3       		.byte	0xf3
 17506 07d5 01       		.uleb128 0x1
 17507 07d6 51       		.byte	0x51
 17508 07d7 9F       		.byte	0x9f
 17509 07d8 26020000 		.4byte	.LVL175
 17510 07dc 68020000 		.4byte	.LVL185
 17511 07e0 0300     		.2byte	0x3
 17512 07e2 91       		.byte	0x91
 17513 07e3 BC7E     		.sleb128 -196
 17514 07e5 68020000 		.4byte	.LVL185
 17515 07e9 DA030000 		.4byte	.LVL213
 17516 07ed 0400     		.2byte	0x4
 17517 07ef F3       		.byte	0xf3
 17518 07f0 01       		.uleb128 0x1
 17519 07f1 51       		.byte	0x51
 17520 07f2 9F       		.byte	0x9f
 17521 07f3 DA030000 		.4byte	.LVL213
 17522 07f7 E4030000 		.4byte	.LVL215
 17523 07fb 0300     		.2byte	0x3
 17524 07fd 91       		.byte	0x91
 17525 07fe BC7E     		.sleb128 -196
 17526 0800 E4030000 		.4byte	.LVL215
 17527 0804 10040000 		.4byte	.LFE280
 17528 0808 0400     		.2byte	0x4
 17529 080a F3       		.byte	0xf3
 17530 080b 01       		.uleb128 0x1
 17531 080c 51       		.byte	0x51
 17532 080d 9F       		.byte	0x9f
 17533 080e 00000000 		.4byte	0
 17534 0812 00000000 		.4byte	0
 17535              	.LLST31:
 17536 0816 2C000000 		.4byte	.LVL123
 17537 081a 35000000 		.4byte	.LVL124-1
ARM GAS  /tmp/cchERvVK.s 			page 310


 17538 081e 0100     		.2byte	0x1
 17539 0820 53       		.byte	0x53
 17540 0821 35000000 		.4byte	.LVL124-1
 17541 0825 64000000 		.4byte	.LVL126
 17542 0829 0200     		.2byte	0x2
 17543 082b 7D       		.byte	0x7d
 17544 082c 38       		.sleb128 56
 17545 082d 6E000000 		.4byte	.LVL127
 17546 0831 0C010000 		.4byte	.LVL141
 17547 0835 0200     		.2byte	0x2
 17548 0837 7D       		.byte	0x7d
 17549 0838 38       		.sleb128 56
 17550 0839 0C010000 		.4byte	.LVL141
 17551 083d 22020000 		.4byte	.LVL174
 17552 0841 0300     		.2byte	0x3
 17553 0843 91       		.byte	0x91
 17554 0844 C07E     		.sleb128 -192
 17555 0846 26020000 		.4byte	.LVL175
 17556 084a 68020000 		.4byte	.LVL185
 17557 084e 0300     		.2byte	0x3
 17558 0850 91       		.byte	0x91
 17559 0851 C07E     		.sleb128 -192
 17560 0853 DA030000 		.4byte	.LVL213
 17561 0857 E4030000 		.4byte	.LVL215
 17562 085b 0300     		.2byte	0x3
 17563 085d 91       		.byte	0x91
 17564 085e C07E     		.sleb128 -192
 17565 0860 00000000 		.4byte	0
 17566 0864 00000000 		.4byte	0
 17567              	.LLST32:
 17568 0868 84000000 		.4byte	.LVL129
 17569 086c 88000000 		.4byte	.LVL130
 17570 0870 0100     		.2byte	0x1
 17571 0872 50       		.byte	0x50
 17572 0873 88000000 		.4byte	.LVL130
 17573 0877 8B000000 		.4byte	.LVL131-1
 17574 087b 0100     		.2byte	0x1
 17575 087d 52       		.byte	0x52
 17576 087e 8B000000 		.4byte	.LVL131-1
 17577 0882 C2000000 		.4byte	.LVL134
 17578 0886 0100     		.2byte	0x1
 17579 0888 54       		.byte	0x54
 17580 0889 10010000 		.4byte	.LVL142
 17581 088d E4010000 		.4byte	.LVL164
 17582 0891 0100     		.2byte	0x1
 17583 0893 54       		.byte	0x54
 17584 0894 FC010000 		.4byte	.LVL168
 17585 0898 1E020000 		.4byte	.LVL173
 17586 089c 0100     		.2byte	0x1
 17587 089e 54       		.byte	0x54
 17588 089f 26020000 		.4byte	.LVL175
 17589 08a3 2C020000 		.4byte	.LVL178
 17590 08a7 0100     		.2byte	0x1
 17591 08a9 54       		.byte	0x54
 17592 08aa DA030000 		.4byte	.LVL213
 17593 08ae E4030000 		.4byte	.LVL215
 17594 08b2 0100     		.2byte	0x1
ARM GAS  /tmp/cchERvVK.s 			page 311


 17595 08b4 54       		.byte	0x54
 17596 08b5 00000000 		.4byte	0
 17597 08b9 00000000 		.4byte	0
 17598              	.LLST46:
 17599 08bd 04020000 		.4byte	.LVL169
 17600 08c1 08020000 		.4byte	.LVL170
 17601 08c5 0100     		.2byte	0x1
 17602 08c7 50       		.byte	0x50
 17603 08c8 08020000 		.4byte	.LVL170
 17604 08cc 0B020000 		.4byte	.LVL171-1
 17605 08d0 0100     		.2byte	0x1
 17606 08d2 51       		.byte	0x51
 17607 08d3 00000000 		.4byte	0
 17608 08d7 00000000 		.4byte	0
 17609              	.LLST47:
 17610 08db 0C020000 		.4byte	.LVL171
 17611 08df 16020000 		.4byte	.LVL172
 17612 08e3 0100     		.2byte	0x1
 17613 08e5 50       		.byte	0x50
 17614 08e6 2A020000 		.4byte	.LVL177
 17615 08ea 44020000 		.4byte	.LVL181
 17616 08ee 0100     		.2byte	0x1
 17617 08f0 50       		.byte	0x50
 17618 08f1 00000000 		.4byte	0
 17619 08f5 00000000 		.4byte	0
 17620              	.LLST48:
 17621 08f9 2A020000 		.4byte	.LVL177
 17622 08fd 68020000 		.4byte	.LVL185
 17623 0901 0300     		.2byte	0x3
 17624 0903 91       		.byte	0x91
 17625 0904 C47E     		.sleb128 -188
 17626 0906 00000000 		.4byte	0
 17627 090a 00000000 		.4byte	0
 17628              	.LLST50:
 17629 090e 40020000 		.4byte	.LVL180
 17630 0912 B4020000 		.4byte	.LVL191
 17631 0916 0200     		.2byte	0x2
 17632 0918 75       		.byte	0x75
 17633 0919 00       		.sleb128 0
 17634 091a E8020000 		.4byte	.LVL193
 17635 091e DA030000 		.4byte	.LVL213
 17636 0922 0200     		.2byte	0x2
 17637 0924 75       		.byte	0x75
 17638 0925 00       		.sleb128 0
 17639 0926 E4030000 		.4byte	.LVL215
 17640 092a 10040000 		.4byte	.LFE280
 17641 092e 0200     		.2byte	0x2
 17642 0930 75       		.byte	0x75
 17643 0931 00       		.sleb128 0
 17644 0932 00000000 		.4byte	0
 17645 0936 00000000 		.4byte	0
 17646              	.LLST51:
 17647 093a 60020000 		.4byte	.LVL184
 17648 093e 70020000 		.4byte	.LVL186
 17649 0942 0100     		.2byte	0x1
 17650 0944 54       		.byte	0x54
 17651 0945 70020000 		.4byte	.LVL186
ARM GAS  /tmp/cchERvVK.s 			page 312


 17652 0949 73020000 		.4byte	.LVL187-1
 17653 094d 0100     		.2byte	0x1
 17654 094f 51       		.byte	0x51
 17655 0950 73020000 		.4byte	.LVL187-1
 17656 0954 A0020000 		.4byte	.LVL188
 17657 0958 0300     		.2byte	0x3
 17658 095a 74       		.byte	0x74
 17659 095b 01       		.sleb128 1
 17660 095c 9F       		.byte	0x9f
 17661 095d E8020000 		.4byte	.LVL193
 17662 0961 8E030000 		.4byte	.LVL207
 17663 0965 0300     		.2byte	0x3
 17664 0967 74       		.byte	0x74
 17665 0968 01       		.sleb128 1
 17666 0969 9F       		.byte	0x9f
 17667 096a E8030000 		.4byte	.LVL217
 17668 096e EC030000 		.4byte	.LVL218
 17669 0972 0300     		.2byte	0x3
 17670 0974 74       		.byte	0x74
 17671 0975 01       		.sleb128 1
 17672 0976 9F       		.byte	0x9f
 17673 0977 00000000 		.4byte	0
 17674 097b 00000000 		.4byte	0
 17675              	.LLST52:
 17676 097f 60020000 		.4byte	.LVL184
 17677 0983 A0020000 		.4byte	.LVL188
 17678 0987 0200     		.2byte	0x2
 17679 0989 30       		.byte	0x30
 17680 098a 9F       		.byte	0x9f
 17681 098b A0020000 		.4byte	.LVL188
 17682 098f A8020000 		.4byte	.LVL189
 17683 0993 0100     		.2byte	0x1
 17684 0995 50       		.byte	0x50
 17685 0996 A8020000 		.4byte	.LVL189
 17686 099a AB020000 		.4byte	.LVL190-1
 17687 099e 0200     		.2byte	0x2
 17688 09a0 71       		.byte	0x71
 17689 09a1 00       		.sleb128 0
 17690 09a2 E8020000 		.4byte	.LVL193
 17691 09a6 F0020000 		.4byte	.LVL194
 17692 09aa 0200     		.2byte	0x2
 17693 09ac 30       		.byte	0x30
 17694 09ad 9F       		.byte	0x9f
 17695 09ae F0020000 		.4byte	.LVL194
 17696 09b2 F2020000 		.4byte	.LVL195
 17697 09b6 0100     		.2byte	0x1
 17698 09b8 50       		.byte	0x50
 17699 09b9 F2020000 		.4byte	.LVL195
 17700 09bd 50030000 		.4byte	.LVL200
 17701 09c1 0200     		.2byte	0x2
 17702 09c3 30       		.byte	0x30
 17703 09c4 9F       		.byte	0x9f
 17704 09c5 50030000 		.4byte	.LVL200
 17705 09c9 5A030000 		.4byte	.LVL202
 17706 09cd 0100     		.2byte	0x1
 17707 09cf 50       		.byte	0x50
 17708 09d0 5A030000 		.4byte	.LVL202
ARM GAS  /tmp/cchERvVK.s 			page 313


 17709 09d4 68030000 		.4byte	.LVL203
 17710 09d8 0200     		.2byte	0x2
 17711 09da 30       		.byte	0x30
 17712 09db 9F       		.byte	0x9f
 17713 09dc 68030000 		.4byte	.LVL203
 17714 09e0 6E030000 		.4byte	.LVL204
 17715 09e4 0100     		.2byte	0x1
 17716 09e6 50       		.byte	0x50
 17717 09e7 6E030000 		.4byte	.LVL204
 17718 09eb D6030000 		.4byte	.LVL211
 17719 09ef 0200     		.2byte	0x2
 17720 09f1 30       		.byte	0x30
 17721 09f2 9F       		.byte	0x9f
 17722 09f3 D8030000 		.4byte	.LVL212
 17723 09f7 DA030000 		.4byte	.LVL213
 17724 09fb 0100     		.2byte	0x1
 17725 09fd 50       		.byte	0x50
 17726 09fe E4030000 		.4byte	.LVL215
 17727 0a02 E6030000 		.4byte	.LVL216
 17728 0a06 0200     		.2byte	0x2
 17729 0a08 30       		.byte	0x30
 17730 0a09 9F       		.byte	0x9f
 17731 0a0a E6030000 		.4byte	.LVL216
 17732 0a0e E8030000 		.4byte	.LVL217
 17733 0a12 0100     		.2byte	0x1
 17734 0a14 50       		.byte	0x50
 17735 0a15 E8030000 		.4byte	.LVL217
 17736 0a19 00040000 		.4byte	.LVL219
 17737 0a1d 0200     		.2byte	0x2
 17738 0a1f 30       		.byte	0x30
 17739 0a20 9F       		.byte	0x9f
 17740 0a21 00040000 		.4byte	.LVL219
 17741 0a25 10040000 		.4byte	.LFE280
 17742 0a29 0100     		.2byte	0x1
 17743 0a2b 50       		.byte	0x50
 17744 0a2c 00000000 		.4byte	0
 17745 0a30 00000000 		.4byte	0
 17746              	.LLST53:
 17747 0a34 B4030000 		.4byte	.LVL208
 17748 0a38 D6030000 		.4byte	.LVL211
 17749 0a3c 0100     		.2byte	0x1
 17750 0a3e 54       		.byte	0x54
 17751 0a3f E4030000 		.4byte	.LVL215
 17752 0a43 E8030000 		.4byte	.LVL217
 17753 0a47 0100     		.2byte	0x1
 17754 0a49 54       		.byte	0x54
 17755 0a4a EC030000 		.4byte	.LVL218
 17756 0a4e 02040000 		.4byte	.LVL220
 17757 0a52 0100     		.2byte	0x1
 17758 0a54 54       		.byte	0x54
 17759 0a55 00000000 		.4byte	0
 17760 0a59 00000000 		.4byte	0
 17761              	.LLST33:
 17762 0a5d AE000000 		.4byte	.LVL132
 17763 0a61 FA000000 		.4byte	.LVL139
 17764 0a65 0200     		.2byte	0x2
 17765 0a67 7D       		.byte	0x7d
ARM GAS  /tmp/cchERvVK.s 			page 314


 17766 0a68 3C       		.sleb128 60
 17767 0a69 1E020000 		.4byte	.LVL173
 17768 0a6d 22020000 		.4byte	.LVL174
 17769 0a71 0300     		.2byte	0x3
 17770 0a73 91       		.byte	0x91
 17771 0a74 C47E     		.sleb128 -188
 17772 0a76 00000000 		.4byte	0
 17773 0a7a 00000000 		.4byte	0
 17774              	.LLST34:
 17775 0a7e B2000000 		.4byte	.LVL133
 17776 0a82 FA000000 		.4byte	.LVL139
 17777 0a86 0100     		.2byte	0x1
 17778 0a88 56       		.byte	0x56
 17779 0a89 1E020000 		.4byte	.LVL173
 17780 0a8d 22020000 		.4byte	.LVL174
 17781 0a91 0100     		.2byte	0x1
 17782 0a93 56       		.byte	0x56
 17783 0a94 00000000 		.4byte	0
 17784 0a98 00000000 		.4byte	0
 17785              	.LLST35:
 17786 0a9c B2000000 		.4byte	.LVL133
 17787 0aa0 C4000000 		.4byte	.LVL135
 17788 0aa4 0200     		.2byte	0x2
 17789 0aa6 30       		.byte	0x30
 17790 0aa7 9F       		.byte	0x9f
 17791 0aa8 C4000000 		.4byte	.LVL135
 17792 0aac FA000000 		.4byte	.LVL139
 17793 0ab0 0100     		.2byte	0x1
 17794 0ab2 54       		.byte	0x54
 17795 0ab3 00000000 		.4byte	0
 17796 0ab7 00000000 		.4byte	0
 17797              	.LLST36:
 17798 0abb 28010000 		.4byte	.LVL143
 17799 0abf FA010000 		.4byte	.LVL167
 17800 0ac3 0300     		.2byte	0x3
 17801 0ac5 91       		.byte	0x91
 17802 0ac6 C47E     		.sleb128 -188
 17803 0ac8 26020000 		.4byte	.LVL175
 17804 0acc 28020000 		.4byte	.LVL176
 17805 0ad0 0300     		.2byte	0x3
 17806 0ad2 91       		.byte	0x91
 17807 0ad3 C47E     		.sleb128 -188
 17808 0ad5 DA030000 		.4byte	.LVL213
 17809 0ad9 E4030000 		.4byte	.LVL215
 17810 0add 0300     		.2byte	0x3
 17811 0adf 91       		.byte	0x91
 17812 0ae0 C47E     		.sleb128 -188
 17813 0ae2 00000000 		.4byte	0
 17814 0ae6 00000000 		.4byte	0
 17815              	.LLST37:
 17816 0aea 3E010000 		.4byte	.LVL145
 17817 0aee 40010000 		.4byte	.LVL146
 17818 0af2 0100     		.2byte	0x1
 17819 0af4 50       		.byte	0x50
 17820 0af5 40010000 		.4byte	.LVL146
 17821 0af9 7A010000 		.4byte	.LVL153
 17822 0afd 0100     		.2byte	0x1
ARM GAS  /tmp/cchERvVK.s 			page 315


 17823 0aff 55       		.byte	0x55
 17824 0b00 00000000 		.4byte	0
 17825 0b04 00000000 		.4byte	0
 17826              	.LLST38:
 17827 0b08 48010000 		.4byte	.LVL148
 17828 0b0c 4C010000 		.4byte	.LVL149
 17829 0b10 0100     		.2byte	0x1
 17830 0b12 50       		.byte	0x50
 17831 0b13 4C010000 		.4byte	.LVL149
 17832 0b17 8A010000 		.4byte	.LVL156
 17833 0b1b 0100     		.2byte	0x1
 17834 0b1d 59       		.byte	0x59
 17835 0b1e 00000000 		.4byte	0
 17836 0b22 00000000 		.4byte	0
 17837              	.LLST40:
 17838 0b26 7A010000 		.4byte	.LVL153
 17839 0b2a FA010000 		.4byte	.LVL167
 17840 0b2e 0200     		.2byte	0x2
 17841 0b30 75       		.byte	0x75
 17842 0b31 00       		.sleb128 0
 17843 0b32 26020000 		.4byte	.LVL175
 17844 0b36 28020000 		.4byte	.LVL176
 17845 0b3a 0200     		.2byte	0x2
 17846 0b3c 75       		.byte	0x75
 17847 0b3d 00       		.sleb128 0
 17848 0b3e DA030000 		.4byte	.LVL213
 17849 0b42 E4030000 		.4byte	.LVL215
 17850 0b46 0200     		.2byte	0x2
 17851 0b48 75       		.byte	0x75
 17852 0b49 00       		.sleb128 0
 17853 0b4a 00000000 		.4byte	0
 17854 0b4e 00000000 		.4byte	0
 17855              	.LLST41:
 17856 0b52 82010000 		.4byte	.LVL155
 17857 0b56 B0010000 		.4byte	.LVL160
 17858 0b5a 0100     		.2byte	0x1
 17859 0b5c 56       		.byte	0x56
 17860 0b5d 26020000 		.4byte	.LVL175
 17861 0b61 28020000 		.4byte	.LVL176
 17862 0b65 0100     		.2byte	0x1
 17863 0b67 56       		.byte	0x56
 17864 0b68 00000000 		.4byte	0
 17865 0b6c 00000000 		.4byte	0
 17866              	.LLST42:
 17867 0b70 BA010000 		.4byte	.LVL161
 17868 0b74 CE010000 		.4byte	.LVL163
 17869 0b78 0100     		.2byte	0x1
 17870 0b7a 53       		.byte	0x53
 17871 0b7b DA030000 		.4byte	.LVL213
 17872 0b7f DE030000 		.4byte	.LVL214
 17873 0b83 0100     		.2byte	0x1
 17874 0b85 53       		.byte	0x53
 17875 0b86 00000000 		.4byte	0
 17876 0b8a 00000000 		.4byte	0
 17877              	.LLST43:
 17878 0b8e 82010000 		.4byte	.LVL155
 17879 0b92 B0010000 		.4byte	.LVL160
ARM GAS  /tmp/cchERvVK.s 			page 316


 17880 0b96 0700     		.2byte	0x7
 17881 0b98 76       		.byte	0x76
 17882 0b99 00       		.sleb128 0
 17883 0b9a 34       		.byte	0x34
 17884 0b9b 1A       		.byte	0x1a
 17885 0b9c 30       		.byte	0x30
 17886 0b9d 2E       		.byte	0x2e
 17887 0b9e 9F       		.byte	0x9f
 17888 0b9f 26020000 		.4byte	.LVL175
 17889 0ba3 2A020000 		.4byte	.LVL177
 17890 0ba7 0700     		.2byte	0x7
 17891 0ba9 76       		.byte	0x76
 17892 0baa 00       		.sleb128 0
 17893 0bab 34       		.byte	0x34
 17894 0bac 1A       		.byte	0x1a
 17895 0bad 30       		.byte	0x30
 17896 0bae 2E       		.byte	0x2e
 17897 0baf 9F       		.byte	0x9f
 17898 0bb0 00000000 		.4byte	0
 17899 0bb4 00000000 		.4byte	0
 17900              	.LLST44:
 17901 0bb8 82010000 		.4byte	.LVL155
 17902 0bbc B0010000 		.4byte	.LVL160
 17903 0bc0 0700     		.2byte	0x7
 17904 0bc2 76       		.byte	0x76
 17905 0bc3 00       		.sleb128 0
 17906 0bc4 40       		.byte	0x40
 17907 0bc5 1A       		.byte	0x1a
 17908 0bc6 30       		.byte	0x30
 17909 0bc7 29       		.byte	0x29
 17910 0bc8 9F       		.byte	0x9f
 17911 0bc9 B0010000 		.4byte	.LVL160
 17912 0bcd FC010000 		.4byte	.LVL168
 17913 0bd1 0500     		.2byte	0x5
 17914 0bd3 76       		.byte	0x76
 17915 0bd4 00       		.sleb128 0
 17916 0bd5 30       		.byte	0x30
 17917 0bd6 29       		.byte	0x29
 17918 0bd7 9F       		.byte	0x9f
 17919 0bd8 26020000 		.4byte	.LVL175
 17920 0bdc 2A020000 		.4byte	.LVL177
 17921 0be0 0700     		.2byte	0x7
 17922 0be2 76       		.byte	0x76
 17923 0be3 00       		.sleb128 0
 17924 0be4 40       		.byte	0x40
 17925 0be5 1A       		.byte	0x1a
 17926 0be6 30       		.byte	0x30
 17927 0be7 29       		.byte	0x29
 17928 0be8 9F       		.byte	0x9f
 17929 0be9 DA030000 		.4byte	.LVL213
 17930 0bed E4030000 		.4byte	.LVL215
 17931 0bf1 0500     		.2byte	0x5
 17932 0bf3 76       		.byte	0x76
 17933 0bf4 00       		.sleb128 0
 17934 0bf5 30       		.byte	0x30
 17935 0bf6 29       		.byte	0x29
 17936 0bf7 9F       		.byte	0x9f
ARM GAS  /tmp/cchERvVK.s 			page 317


 17937 0bf8 00000000 		.4byte	0
 17938 0bfc 00000000 		.4byte	0
 17939              	.LLST45:
 17940 0c00 90010000 		.4byte	.LVL157
 17941 0c04 9B010000 		.4byte	.LVL158-1
 17942 0c08 0100     		.2byte	0x1
 17943 0c0a 52       		.byte	0x52
 17944 0c0b 00000000 		.4byte	0
 17945 0c0f 00000000 		.4byte	0
 17946              	.LLST39:
 17947 0c13 74010000 		.4byte	.LVL152
 17948 0c17 7F010000 		.4byte	.LVL154-1
 17949 0c1b 0800     		.2byte	0x8
 17950 0c1d 70       		.byte	0x70
 17951 0c1e 1C       		.sleb128 28
 17952 0c1f 06       		.byte	0x6
 17953 0c20 32       		.byte	0x32
 17954 0c21 25       		.byte	0x25
 17955 0c22 31       		.byte	0x31
 17956 0c23 1C       		.byte	0x1c
 17957 0c24 9F       		.byte	0x9f
 17958 0c25 00000000 		.4byte	0
 17959 0c29 00000000 		.4byte	0
 17960              	.LLST49:
 17961 0c2d 3A020000 		.4byte	.LVL179
 17962 0c31 4D020000 		.4byte	.LVL182-1
 17963 0c35 0A00     		.2byte	0xa
 17964 0c37 91       		.byte	0x91
 17965 0c38 C47E     		.sleb128 -188
 17966 0c3a 06       		.byte	0x6
 17967 0c3b 23       		.byte	0x23
 17968 0c3c 1C       		.uleb128 0x1c
 17969 0c3d 06       		.byte	0x6
 17970 0c3e 31       		.byte	0x31
 17971 0c3f 1C       		.byte	0x1c
 17972 0c40 9F       		.byte	0x9f
 17973 0c41 00000000 		.4byte	0
 17974 0c45 00000000 		.4byte	0
 17975              	.LLST22:
 17976 0c49 00000000 		.4byte	.LVL99
 17977 0c4d 14000000 		.4byte	.LVL100
 17978 0c51 0100     		.2byte	0x1
 17979 0c53 50       		.byte	0x50
 17980 0c54 14000000 		.4byte	.LVL100
 17981 0c58 52000000 		.4byte	.LVL104
 17982 0c5c 0300     		.2byte	0x3
 17983 0c5e 91       		.byte	0x91
 17984 0c5f FC7E     		.sleb128 -132
 17985 0c61 52000000 		.4byte	.LVL104
 17986 0c65 64000000 		.4byte	.LFE279
 17987 0c69 0300     		.2byte	0x3
 17988 0c6b 7D       		.byte	0x7d
 17989 0c6c FC7E     		.sleb128 -132
 17990 0c6e 00000000 		.4byte	0
 17991 0c72 00000000 		.4byte	0
 17992              	.LLST54:
 17993 0c76 00000000 		.4byte	.LVL221
ARM GAS  /tmp/cchERvVK.s 			page 318


 17994 0c7a 06000000 		.4byte	.LVL222
 17995 0c7e 0100     		.2byte	0x1
 17996 0c80 50       		.byte	0x50
 17997 0c81 06000000 		.4byte	.LVL222
 17998 0c85 44000000 		.4byte	.LVL228
 17999 0c89 0100     		.2byte	0x1
 18000 0c8b 54       		.byte	0x54
 18001 0c8c 44000000 		.4byte	.LVL228
 18002 0c90 48000000 		.4byte	.LVL229
 18003 0c94 0400     		.2byte	0x4
 18004 0c96 F3       		.byte	0xf3
 18005 0c97 01       		.uleb128 0x1
 18006 0c98 50       		.byte	0x50
 18007 0c99 9F       		.byte	0x9f
 18008 0c9a 48000000 		.4byte	.LVL229
 18009 0c9e 68000000 		.4byte	.LFE278
 18010 0ca2 0100     		.2byte	0x1
 18011 0ca4 54       		.byte	0x54
 18012 0ca5 00000000 		.4byte	0
 18013 0ca9 00000000 		.4byte	0
 18014              	.LLST18:
 18015 0cad 00000000 		.4byte	.LVL82
 18016 0cb1 0B000000 		.4byte	.LVL83-1
 18017 0cb5 0100     		.2byte	0x1
 18018 0cb7 50       		.byte	0x50
 18019 0cb8 0B000000 		.4byte	.LVL83-1
 18020 0cbc 14000000 		.4byte	.LVL84
 18021 0cc0 0100     		.2byte	0x1
 18022 0cc2 54       		.byte	0x54
 18023 0cc3 14000000 		.4byte	.LVL84
 18024 0cc7 17000000 		.4byte	.LVL85-1
 18025 0ccb 0100     		.2byte	0x1
 18026 0ccd 50       		.byte	0x50
 18027 0cce 17000000 		.4byte	.LVL85-1
 18028 0cd2 20000000 		.4byte	.LFE276
 18029 0cd6 0400     		.2byte	0x4
 18030 0cd8 F3       		.byte	0xf3
 18031 0cd9 01       		.uleb128 0x1
 18032 0cda 50       		.byte	0x50
 18033 0cdb 9F       		.byte	0x9f
 18034 0cdc 00000000 		.4byte	0
 18035 0ce0 00000000 		.4byte	0
 18036              	.LLST129:
 18037 0ce4 00000000 		.4byte	.LVL397
 18038 0ce8 0E000000 		.4byte	.LVL398
 18039 0cec 0100     		.2byte	0x1
 18040 0cee 50       		.byte	0x50
 18041 0cef 0E000000 		.4byte	.LVL398
 18042 0cf3 40000000 		.4byte	.LFE275
 18043 0cf7 0100     		.2byte	0x1
 18044 0cf9 54       		.byte	0x54
 18045 0cfa 00000000 		.4byte	0
 18046 0cfe 00000000 		.4byte	0
 18047              	.LLST130:
 18048 0d02 00000000 		.4byte	.LVL397
 18049 0d06 18000000 		.4byte	.LVL400
 18050 0d0a 0100     		.2byte	0x1
ARM GAS  /tmp/cchERvVK.s 			page 319


 18051 0d0c 51       		.byte	0x51
 18052 0d0d 18000000 		.4byte	.LVL400
 18053 0d11 21000000 		.4byte	.LVL401-1
 18054 0d15 0100     		.2byte	0x1
 18055 0d17 52       		.byte	0x52
 18056 0d18 21000000 		.4byte	.LVL401-1
 18057 0d1c 40000000 		.4byte	.LFE275
 18058 0d20 0100     		.2byte	0x1
 18059 0d22 55       		.byte	0x55
 18060 0d23 00000000 		.4byte	0
 18061 0d27 00000000 		.4byte	0
 18062              	.LLST131:
 18063 0d2b 00000000 		.4byte	.LVL397
 18064 0d2f 14000000 		.4byte	.LVL399
 18065 0d33 0100     		.2byte	0x1
 18066 0d35 52       		.byte	0x52
 18067 0d36 14000000 		.4byte	.LVL399
 18068 0d3a 40000000 		.4byte	.LFE275
 18069 0d3e 0100     		.2byte	0x1
 18070 0d40 56       		.byte	0x56
 18071 0d41 00000000 		.4byte	0
 18072 0d45 00000000 		.4byte	0
 18073              	.LLST132:
 18074 0d49 00000000 		.4byte	.LVL397
 18075 0d4d 21000000 		.4byte	.LVL401-1
 18076 0d51 0100     		.2byte	0x1
 18077 0d53 53       		.byte	0x53
 18078 0d54 21000000 		.4byte	.LVL401-1
 18079 0d58 40000000 		.4byte	.LFE275
 18080 0d5c 0100     		.2byte	0x1
 18081 0d5e 57       		.byte	0x57
 18082 0d5f 00000000 		.4byte	0
 18083 0d63 00000000 		.4byte	0
 18084              	.LLST55:
 18085 0d67 00000000 		.4byte	.LVL232
 18086 0d6b 1A000000 		.4byte	.LVL235
 18087 0d6f 0100     		.2byte	0x1
 18088 0d71 50       		.byte	0x50
 18089 0d72 1A000000 		.4byte	.LVL235
 18090 0d76 BE000000 		.4byte	.LVL257
 18091 0d7a 0100     		.2byte	0x1
 18092 0d7c 5A       		.byte	0x5a
 18093 0d7d BE000000 		.4byte	.LVL257
 18094 0d81 CC000000 		.4byte	.LFE274
 18095 0d85 0400     		.2byte	0x4
 18096 0d87 F3       		.byte	0xf3
 18097 0d88 01       		.uleb128 0x1
 18098 0d89 50       		.byte	0x50
 18099 0d8a 9F       		.byte	0x9f
 18100 0d8b 00000000 		.4byte	0
 18101 0d8f 00000000 		.4byte	0
 18102              	.LLST56:
 18103 0d93 00000000 		.4byte	.LVL232
 18104 0d97 16000000 		.4byte	.LVL233
 18105 0d9b 0100     		.2byte	0x1
 18106 0d9d 51       		.byte	0x51
 18107 0d9e 16000000 		.4byte	.LVL233
ARM GAS  /tmp/cchERvVK.s 			page 320


 18108 0da2 8C000000 		.4byte	.LVL249
 18109 0da6 0100     		.2byte	0x1
 18110 0da8 59       		.byte	0x59
 18111 0da9 8C000000 		.4byte	.LVL249
 18112 0dad BA000000 		.4byte	.LVL256
 18113 0db1 0400     		.2byte	0x4
 18114 0db3 79       		.byte	0x79
 18115 0db4 AC7E     		.sleb128 -212
 18116 0db6 9F       		.byte	0x9f
 18117 0db7 BA000000 		.4byte	.LVL256
 18118 0dbb CC000000 		.4byte	.LFE274
 18119 0dbf 0400     		.2byte	0x4
 18120 0dc1 F3       		.byte	0xf3
 18121 0dc2 01       		.uleb128 0x1
 18122 0dc3 51       		.byte	0x51
 18123 0dc4 9F       		.byte	0x9f
 18124 0dc5 00000000 		.4byte	0
 18125 0dc9 00000000 		.4byte	0
 18126              	.LLST57:
 18127 0dcd 18000000 		.4byte	.LVL234
 18128 0dd1 52000000 		.4byte	.LVL241
 18129 0dd5 0100     		.2byte	0x1
 18130 0dd7 59       		.byte	0x59
 18131 0dd8 52000000 		.4byte	.LVL241
 18132 0ddc 5E000000 		.4byte	.LVL244
 18133 0de0 0100     		.2byte	0x1
 18134 0de2 54       		.byte	0x54
 18135 0de3 5E000000 		.4byte	.LVL244
 18136 0de7 7A000000 		.4byte	.LVL248
 18137 0deb 0300     		.2byte	0x3
 18138 0ded 74       		.byte	0x74
 18139 0dee 7C       		.sleb128 -4
 18140 0def 9F       		.byte	0x9f
 18141 0df0 7A000000 		.4byte	.LVL248
 18142 0df4 9A000000 		.4byte	.LVL251
 18143 0df8 0100     		.2byte	0x1
 18144 0dfa 54       		.byte	0x54
 18145 0dfb 9A000000 		.4byte	.LVL251
 18146 0dff B6000000 		.4byte	.LVL255
 18147 0e03 0300     		.2byte	0x3
 18148 0e05 74       		.byte	0x74
 18149 0e06 7C       		.sleb128 -4
 18150 0e07 9F       		.byte	0x9f
 18151 0e08 B6000000 		.4byte	.LVL255
 18152 0e0c BE000000 		.4byte	.LVL257
 18153 0e10 0100     		.2byte	0x1
 18154 0e12 54       		.byte	0x54
 18155 0e13 00000000 		.4byte	0
 18156 0e17 00000000 		.4byte	0
 18157              	.LLST58:
 18158 0e1b 52000000 		.4byte	.LVL241
 18159 0e1f 54000000 		.4byte	.LVL242
 18160 0e23 0200     		.2byte	0x2
 18161 0e25 31       		.byte	0x31
 18162 0e26 9F       		.byte	0x9f
 18163 0e27 00000000 		.4byte	0
 18164 0e2b 00000000 		.4byte	0
ARM GAS  /tmp/cchERvVK.s 			page 321


 18165              	.LLST59:
 18166 0e2f 20000000 		.4byte	.LVL237
 18167 0e33 2E000000 		.4byte	.LVL238
 18168 0e37 0600     		.2byte	0x6
 18169 0e39 9E       		.byte	0x9e
 18170 0e3a 04       		.uleb128 0x4
 18171 0e3b F0ED00E0 		.4byte	0xe000edf0
 18172 0e3f 00000000 		.4byte	0
 18173 0e43 00000000 		.4byte	0
 18174              	.LLST60:
 18175 0e47 20000000 		.4byte	.LVL237
 18176 0e4b 2E000000 		.4byte	.LVL238
 18177 0e4f 0400     		.2byte	0x4
 18178 0e51 0A       		.byte	0xa
 18179 0e52 0401     		.2byte	0x104
 18180 0e54 9F       		.byte	0x9f
 18181 0e55 00000000 		.4byte	0
 18182 0e59 00000000 		.4byte	0
 18183              	.LLST61:
 18184 0e5d 20000000 		.4byte	.LVL237
 18185 0e61 2E000000 		.4byte	.LVL238
 18186 0e65 0200     		.2byte	0x2
 18187 0e67 30       		.byte	0x30
 18188 0e68 9F       		.byte	0x9f
 18189 0e69 00000000 		.4byte	0
 18190 0e6d 00000000 		.4byte	0
 18191              	.LLST62:
 18192 0e71 20000000 		.4byte	.LVL237
 18193 0e75 2D000000 		.4byte	.LVL238-1
 18194 0e79 0100     		.2byte	0x1
 18195 0e7b 50       		.byte	0x50
 18196 0e7c 00000000 		.4byte	0
 18197 0e80 00000000 		.4byte	0
 18198              	.LLST63:
 18199 0e84 5A000000 		.4byte	.LVL243
 18200 0e88 5E000000 		.4byte	.LVL244
 18201 0e8c 0200     		.2byte	0x2
 18202 0e8e 74       		.byte	0x74
 18203 0e8f 7C       		.sleb128 -4
 18204 0e90 5E000000 		.4byte	.LVL244
 18205 0e94 69000000 		.4byte	.LVL245-1
 18206 0e98 0200     		.2byte	0x2
 18207 0e9a 74       		.byte	0x74
 18208 0e9b 78       		.sleb128 -8
 18209 0e9c 00000000 		.4byte	0
 18210 0ea0 00000000 		.4byte	0
 18211              	.LLST64:
 18212 0ea4 5A000000 		.4byte	.LVL243
 18213 0ea8 6A000000 		.4byte	.LVL245
 18214 0eac 0400     		.2byte	0x4
 18215 0eae 0A       		.byte	0xa
 18216 0eaf 1801     		.2byte	0x118
 18217 0eb1 9F       		.byte	0x9f
 18218 0eb2 00000000 		.4byte	0
 18219 0eb6 00000000 		.4byte	0
 18220              	.LLST65:
 18221 0eba 5A000000 		.4byte	.LVL243
ARM GAS  /tmp/cchERvVK.s 			page 322


 18222 0ebe 6A000000 		.4byte	.LVL245
 18223 0ec2 0200     		.2byte	0x2
 18224 0ec4 30       		.byte	0x30
 18225 0ec5 9F       		.byte	0x9f
 18226 0ec6 00000000 		.4byte	0
 18227 0eca 00000000 		.4byte	0
 18228              	.LLST66:
 18229 0ece 5A000000 		.4byte	.LVL243
 18230 0ed2 69000000 		.4byte	.LVL245-1
 18231 0ed6 0100     		.2byte	0x1
 18232 0ed8 50       		.byte	0x50
 18233 0ed9 00000000 		.4byte	0
 18234 0edd 00000000 		.4byte	0
 18235              	.LLST67:
 18236 0ee1 6C000000 		.4byte	.LVL246
 18237 0ee5 70000000 		.4byte	.LVL247
 18238 0ee9 0700     		.2byte	0x7
 18239 0eeb 76       		.byte	0x76
 18240 0eec 00       		.sleb128 0
 18241 0eed 40       		.byte	0x40
 18242 0eee 3C       		.byte	0x3c
 18243 0eef 24       		.byte	0x24
 18244 0ef0 21       		.byte	0x21
 18245 0ef1 9F       		.byte	0x9f
 18246 0ef2 70000000 		.4byte	.LVL247
 18247 0ef6 79000000 		.4byte	.LVL248-1
 18248 0efa 0100     		.2byte	0x1
 18249 0efc 53       		.byte	0x53
 18250 0efd 00000000 		.4byte	0
 18251 0f01 00000000 		.4byte	0
 18252              	.LLST68:
 18253 0f05 6C000000 		.4byte	.LVL246
 18254 0f09 7A000000 		.4byte	.LVL248
 18255 0f0d 0400     		.2byte	0x4
 18256 0f0f 0A       		.byte	0xa
 18257 0f10 1401     		.2byte	0x114
 18258 0f12 9F       		.byte	0x9f
 18259 0f13 00000000 		.4byte	0
 18260 0f17 00000000 		.4byte	0
 18261              	.LLST69:
 18262 0f1b 6C000000 		.4byte	.LVL246
 18263 0f1f 7A000000 		.4byte	.LVL248
 18264 0f23 0200     		.2byte	0x2
 18265 0f25 30       		.byte	0x30
 18266 0f26 9F       		.byte	0x9f
 18267 0f27 00000000 		.4byte	0
 18268 0f2b 00000000 		.4byte	0
 18269              	.LLST70:
 18270 0f2f 6C000000 		.4byte	.LVL246
 18271 0f33 79000000 		.4byte	.LVL248-1
 18272 0f37 0100     		.2byte	0x1
 18273 0f39 50       		.byte	0x50
 18274 0f3a 00000000 		.4byte	0
 18275 0f3e 00000000 		.4byte	0
 18276              	.LLST71:
 18277 0f42 96000000 		.4byte	.LVL250
 18278 0f46 9A000000 		.4byte	.LVL251
ARM GAS  /tmp/cchERvVK.s 			page 323


 18279 0f4a 0200     		.2byte	0x2
 18280 0f4c 74       		.byte	0x74
 18281 0f4d 7C       		.sleb128 -4
 18282 0f4e 9A000000 		.4byte	.LVL251
 18283 0f52 A5000000 		.4byte	.LVL252-1
 18284 0f56 0200     		.2byte	0x2
 18285 0f58 74       		.byte	0x74
 18286 0f59 78       		.sleb128 -8
 18287 0f5a 00000000 		.4byte	0
 18288 0f5e 00000000 		.4byte	0
 18289              	.LLST72:
 18290 0f62 96000000 		.4byte	.LVL250
 18291 0f66 A6000000 		.4byte	.LVL252
 18292 0f6a 0400     		.2byte	0x4
 18293 0f6c 0A       		.byte	0xa
 18294 0f6d 1801     		.2byte	0x118
 18295 0f6f 9F       		.byte	0x9f
 18296 0f70 00000000 		.4byte	0
 18297 0f74 00000000 		.4byte	0
 18298              	.LLST73:
 18299 0f78 96000000 		.4byte	.LVL250
 18300 0f7c A6000000 		.4byte	.LVL252
 18301 0f80 0200     		.2byte	0x2
 18302 0f82 30       		.byte	0x30
 18303 0f83 9F       		.byte	0x9f
 18304 0f84 00000000 		.4byte	0
 18305 0f88 00000000 		.4byte	0
 18306              	.LLST74:
 18307 0f8c 96000000 		.4byte	.LVL250
 18308 0f90 A5000000 		.4byte	.LVL252-1
 18309 0f94 0100     		.2byte	0x1
 18310 0f96 50       		.byte	0x50
 18311 0f97 00000000 		.4byte	0
 18312 0f9b 00000000 		.4byte	0
 18313              	.LLST75:
 18314 0f9f A8000000 		.4byte	.LVL253
 18315 0fa3 AC000000 		.4byte	.LVL254
 18316 0fa7 0700     		.2byte	0x7
 18317 0fa9 76       		.byte	0x76
 18318 0faa 00       		.sleb128 0
 18319 0fab 40       		.byte	0x40
 18320 0fac 3C       		.byte	0x3c
 18321 0fad 24       		.byte	0x24
 18322 0fae 21       		.byte	0x21
 18323 0faf 9F       		.byte	0x9f
 18324 0fb0 AC000000 		.4byte	.LVL254
 18325 0fb4 B5000000 		.4byte	.LVL255-1
 18326 0fb8 0100     		.2byte	0x1
 18327 0fba 53       		.byte	0x53
 18328 0fbb 00000000 		.4byte	0
 18329 0fbf 00000000 		.4byte	0
 18330              	.LLST76:
 18331 0fc3 A8000000 		.4byte	.LVL253
 18332 0fc7 B6000000 		.4byte	.LVL255
 18333 0fcb 0400     		.2byte	0x4
 18334 0fcd 0A       		.byte	0xa
 18335 0fce 1401     		.2byte	0x114
ARM GAS  /tmp/cchERvVK.s 			page 324


 18336 0fd0 9F       		.byte	0x9f
 18337 0fd1 00000000 		.4byte	0
 18338 0fd5 00000000 		.4byte	0
 18339              	.LLST77:
 18340 0fd9 A8000000 		.4byte	.LVL253
 18341 0fdd B6000000 		.4byte	.LVL255
 18342 0fe1 0200     		.2byte	0x2
 18343 0fe3 30       		.byte	0x30
 18344 0fe4 9F       		.byte	0x9f
 18345 0fe5 00000000 		.4byte	0
 18346 0fe9 00000000 		.4byte	0
 18347              	.LLST78:
 18348 0fed A8000000 		.4byte	.LVL253
 18349 0ff1 B5000000 		.4byte	.LVL255-1
 18350 0ff5 0100     		.2byte	0x1
 18351 0ff7 50       		.byte	0x50
 18352 0ff8 00000000 		.4byte	0
 18353 0ffc 00000000 		.4byte	0
 18354              	.LLST79:
 18355 1000 00000000 		.4byte	.LVL258
 18356 1004 1A000000 		.4byte	.LVL261
 18357 1008 0100     		.2byte	0x1
 18358 100a 50       		.byte	0x50
 18359 100b 1A000000 		.4byte	.LVL261
 18360 100f AC000000 		.4byte	.LVL282
 18361 1013 0100     		.2byte	0x1
 18362 1015 59       		.byte	0x59
 18363 1016 AC000000 		.4byte	.LVL282
 18364 101a B8000000 		.4byte	.LFE273
 18365 101e 0400     		.2byte	0x4
 18366 1020 F3       		.byte	0xf3
 18367 1021 01       		.uleb128 0x1
 18368 1022 50       		.byte	0x50
 18369 1023 9F       		.byte	0x9f
 18370 1024 00000000 		.4byte	0
 18371 1028 00000000 		.4byte	0
 18372              	.LLST80:
 18373 102c 00000000 		.4byte	.LVL258
 18374 1030 16000000 		.4byte	.LVL259
 18375 1034 0100     		.2byte	0x1
 18376 1036 51       		.byte	0x51
 18377 1037 16000000 		.4byte	.LVL259
 18378 103b 82000000 		.4byte	.LVL275
 18379 103f 0100     		.2byte	0x1
 18380 1041 58       		.byte	0x58
 18381 1042 82000000 		.4byte	.LVL275
 18382 1046 A8000000 		.4byte	.LVL281
 18383 104a 0400     		.2byte	0x4
 18384 104c 78       		.byte	0x78
 18385 104d AC7E     		.sleb128 -212
 18386 104f 9F       		.byte	0x9f
 18387 1050 A8000000 		.4byte	.LVL281
 18388 1054 B8000000 		.4byte	.LFE273
 18389 1058 0400     		.2byte	0x4
 18390 105a F3       		.byte	0xf3
 18391 105b 01       		.uleb128 0x1
 18392 105c 51       		.byte	0x51
ARM GAS  /tmp/cchERvVK.s 			page 325


 18393 105d 9F       		.byte	0x9f
 18394 105e 00000000 		.4byte	0
 18395 1062 00000000 		.4byte	0
 18396              	.LLST81:
 18397 1066 18000000 		.4byte	.LVL260
 18398 106a 48000000 		.4byte	.LVL267
 18399 106e 0100     		.2byte	0x1
 18400 1070 58       		.byte	0x58
 18401 1071 48000000 		.4byte	.LVL267
 18402 1075 AC000000 		.4byte	.LVL282
 18403 1079 0100     		.2byte	0x1
 18404 107b 54       		.byte	0x54
 18405 107c 00000000 		.4byte	0
 18406 1080 00000000 		.4byte	0
 18407              	.LLST82:
 18408 1084 4C000000 		.4byte	.LVL268
 18409 1088 50000000 		.4byte	.LVL269
 18410 108c 0200     		.2byte	0x2
 18411 108e 31       		.byte	0x31
 18412 108f 9F       		.byte	0x9f
 18413 1090 00000000 		.4byte	0
 18414 1094 00000000 		.4byte	0
 18415              	.LLST83:
 18416 1098 20000000 		.4byte	.LVL263
 18417 109c 2C000000 		.4byte	.LVL264
 18418 10a0 0600     		.2byte	0x6
 18419 10a2 9E       		.byte	0x9e
 18420 10a3 04       		.uleb128 0x4
 18421 10a4 F0ED00E0 		.4byte	0xe000edf0
 18422 10a8 00000000 		.4byte	0
 18423 10ac 00000000 		.4byte	0
 18424              	.LLST84:
 18425 10b0 20000000 		.4byte	.LVL263
 18426 10b4 2C000000 		.4byte	.LVL264
 18427 10b8 0400     		.2byte	0x4
 18428 10ba 0A       		.byte	0xa
 18429 10bb 0401     		.2byte	0x104
 18430 10bd 9F       		.byte	0x9f
 18431 10be 00000000 		.4byte	0
 18432 10c2 00000000 		.4byte	0
 18433              	.LLST85:
 18434 10c6 20000000 		.4byte	.LVL263
 18435 10ca 2C000000 		.4byte	.LVL264
 18436 10ce 0200     		.2byte	0x2
 18437 10d0 30       		.byte	0x30
 18438 10d1 9F       		.byte	0x9f
 18439 10d2 00000000 		.4byte	0
 18440 10d6 00000000 		.4byte	0
 18441              	.LLST86:
 18442 10da 20000000 		.4byte	.LVL263
 18443 10de 2B000000 		.4byte	.LVL264-1
 18444 10e2 0100     		.2byte	0x1
 18445 10e4 50       		.byte	0x50
 18446 10e5 00000000 		.4byte	0
 18447 10e9 00000000 		.4byte	0
 18448              	.LLST87:
 18449 10ed 56000000 		.4byte	.LVL270
ARM GAS  /tmp/cchERvVK.s 			page 326


 18450 10f1 62000000 		.4byte	.LVL271
 18451 10f5 0400     		.2byte	0x4
 18452 10f7 0A       		.byte	0xa
 18453 10f8 1401     		.2byte	0x114
 18454 10fa 9F       		.byte	0x9f
 18455 10fb 00000000 		.4byte	0
 18456 10ff 00000000 		.4byte	0
 18457              	.LLST88:
 18458 1103 56000000 		.4byte	.LVL270
 18459 1107 62000000 		.4byte	.LVL271
 18460 110b 0200     		.2byte	0x2
 18461 110d 30       		.byte	0x30
 18462 110e 9F       		.byte	0x9f
 18463 110f 00000000 		.4byte	0
 18464 1113 00000000 		.4byte	0
 18465              	.LLST89:
 18466 1117 56000000 		.4byte	.LVL270
 18467 111b 61000000 		.4byte	.LVL271-1
 18468 111f 0100     		.2byte	0x1
 18469 1121 50       		.byte	0x50
 18470 1122 00000000 		.4byte	0
 18471 1126 00000000 		.4byte	0
 18472              	.LLST90:
 18473 112a 64000000 		.4byte	.LVL272
 18474 112e 6C000000 		.4byte	.LVL273
 18475 1132 0400     		.2byte	0x4
 18476 1134 0A       		.byte	0xa
 18477 1135 1801     		.2byte	0x118
 18478 1137 9F       		.byte	0x9f
 18479 1138 00000000 		.4byte	0
 18480 113c 00000000 		.4byte	0
 18481              	.LLST91:
 18482 1140 64000000 		.4byte	.LVL272
 18483 1144 6B000000 		.4byte	.LVL273-1
 18484 1148 0100     		.2byte	0x1
 18485 114a 50       		.byte	0x50
 18486 114b 00000000 		.4byte	0
 18487 114f 00000000 		.4byte	0
 18488              	.LLST92:
 18489 1153 8C000000 		.4byte	.LVL276
 18490 1157 96000000 		.4byte	.LVL277
 18491 115b 0400     		.2byte	0x4
 18492 115d 0A       		.byte	0xa
 18493 115e 1401     		.2byte	0x114
 18494 1160 9F       		.byte	0x9f
 18495 1161 00000000 		.4byte	0
 18496 1165 00000000 		.4byte	0
 18497              	.LLST93:
 18498 1169 8C000000 		.4byte	.LVL276
 18499 116d 96000000 		.4byte	.LVL277
 18500 1171 0200     		.2byte	0x2
 18501 1173 30       		.byte	0x30
 18502 1174 9F       		.byte	0x9f
 18503 1175 00000000 		.4byte	0
 18504 1179 00000000 		.4byte	0
 18505              	.LLST94:
 18506 117d 8C000000 		.4byte	.LVL276
ARM GAS  /tmp/cchERvVK.s 			page 327


 18507 1181 95000000 		.4byte	.LVL277-1
 18508 1185 0100     		.2byte	0x1
 18509 1187 50       		.byte	0x50
 18510 1188 00000000 		.4byte	0
 18511 118c 00000000 		.4byte	0
 18512              	.LLST95:
 18513 1190 98000000 		.4byte	.LVL278
 18514 1194 A0000000 		.4byte	.LVL279
 18515 1198 0400     		.2byte	0x4
 18516 119a 0A       		.byte	0xa
 18517 119b 1801     		.2byte	0x118
 18518 119d 9F       		.byte	0x9f
 18519 119e 00000000 		.4byte	0
 18520 11a2 00000000 		.4byte	0
 18521              	.LLST96:
 18522 11a6 98000000 		.4byte	.LVL278
 18523 11aa 9F000000 		.4byte	.LVL279-1
 18524 11ae 0100     		.2byte	0x1
 18525 11b0 50       		.byte	0x50
 18526 11b1 00000000 		.4byte	0
 18527 11b5 00000000 		.4byte	0
 18528              	.LLST19:
 18529 11b9 00000000 		.4byte	.LVL86
 18530 11bd 0E000000 		.4byte	.LVL88
 18531 11c1 0100     		.2byte	0x1
 18532 11c3 50       		.byte	0x50
 18533 11c4 0E000000 		.4byte	.LVL88
 18534 11c8 54000000 		.4byte	.LVL97
 18535 11cc 0100     		.2byte	0x1
 18536 11ce 56       		.byte	0x56
 18537 11cf 54000000 		.4byte	.LVL97
 18538 11d3 57000000 		.4byte	.LVL98-1
 18539 11d7 0100     		.2byte	0x1
 18540 11d9 50       		.byte	0x50
 18541 11da 57000000 		.4byte	.LVL98-1
 18542 11de 68000000 		.4byte	.LFE272
 18543 11e2 0400     		.2byte	0x4
 18544 11e4 F3       		.byte	0xf3
 18545 11e5 01       		.uleb128 0x1
 18546 11e6 50       		.byte	0x50
 18547 11e7 9F       		.byte	0x9f
 18548 11e8 00000000 		.4byte	0
 18549 11ec 00000000 		.4byte	0
 18550              	.LLST20:
 18551 11f0 04000000 		.4byte	.LVL87
 18552 11f4 54000000 		.4byte	.LVL97
 18553 11f8 0100     		.2byte	0x1
 18554 11fa 57       		.byte	0x57
 18555 11fb 00000000 		.4byte	0
 18556 11ff 00000000 		.4byte	0
 18557              	.LLST21:
 18558 1203 04000000 		.4byte	.LVL87
 18559 1207 0E000000 		.4byte	.LVL88
 18560 120b 0200     		.2byte	0x2
 18561 120d 30       		.byte	0x30
 18562 120e 9F       		.byte	0x9f
 18563 120f 0E000000 		.4byte	.LVL88
ARM GAS  /tmp/cchERvVK.s 			page 328


 18564 1213 24000000 		.4byte	.LVL91
 18565 1217 0100     		.2byte	0x1
 18566 1219 54       		.byte	0x54
 18567 121a 24000000 		.4byte	.LVL91
 18568 121e 2C000000 		.4byte	.LVL92
 18569 1222 0200     		.2byte	0x2
 18570 1224 30       		.byte	0x30
 18571 1225 9F       		.byte	0x9f
 18572 1226 2C000000 		.4byte	.LVL92
 18573 122a 42000000 		.4byte	.LVL95
 18574 122e 0100     		.2byte	0x1
 18575 1230 54       		.byte	0x54
 18576 1231 00000000 		.4byte	0
 18577 1235 00000000 		.4byte	0
 18578              	.LLST101:
 18579 1239 00000000 		.4byte	.LVL304
 18580 123d 0B000000 		.4byte	.LVL306-1
 18581 1241 0100     		.2byte	0x1
 18582 1243 50       		.byte	0x50
 18583 1244 0B000000 		.4byte	.LVL306-1
 18584 1248 DA000000 		.4byte	.LVL325
 18585 124c 0100     		.2byte	0x1
 18586 124e 54       		.byte	0x54
 18587 124f DA000000 		.4byte	.LVL325
 18588 1253 F4000000 		.4byte	.LFE271
 18589 1257 0400     		.2byte	0x4
 18590 1259 F3       		.byte	0xf3
 18591 125a 01       		.uleb128 0x1
 18592 125b 50       		.byte	0x50
 18593 125c 9F       		.byte	0x9f
 18594 125d 00000000 		.4byte	0
 18595 1261 00000000 		.4byte	0
 18596              	.LLST102:
 18597 1265 08000000 		.4byte	.LVL305
 18598 1269 DA000000 		.4byte	.LVL325
 18599 126d 0100     		.2byte	0x1
 18600 126f 55       		.byte	0x55
 18601 1270 00000000 		.4byte	0
 18602 1274 00000000 		.4byte	0
 18603              	.LLST103:
 18604 1278 5E000000 		.4byte	.LVL314
 18605 127c 7E000000 		.4byte	.LVL316
 18606 1280 0200     		.2byte	0x2
 18607 1282 30       		.byte	0x30
 18608 1283 9F       		.byte	0x9f
 18609 1284 7E000000 		.4byte	.LVL316
 18610 1288 9A000000 		.4byte	.LVL319
 18611 128c 0800     		.2byte	0x8
 18612 128e 76       		.byte	0x76
 18613 128f 00       		.sleb128 0
 18614 1290 75       		.byte	0x75
 18615 1291 00       		.sleb128 0
 18616 1292 1C       		.byte	0x1c
 18617 1293 44       		.byte	0x44
 18618 1294 1C       		.byte	0x1c
 18619 1295 9F       		.byte	0x9f
 18620 1296 9A000000 		.4byte	.LVL319
ARM GAS  /tmp/cchERvVK.s 			page 329


 18621 129a AE000000 		.4byte	.LVL320
 18622 129e 0200     		.2byte	0x2
 18623 12a0 30       		.byte	0x30
 18624 12a1 9F       		.byte	0x9f
 18625 12a2 AE000000 		.4byte	.LVL320
 18626 12a6 CA000000 		.4byte	.LVL323
 18627 12aa 0800     		.2byte	0x8
 18628 12ac 76       		.byte	0x76
 18629 12ad 00       		.sleb128 0
 18630 12ae 75       		.byte	0x75
 18631 12af 00       		.sleb128 0
 18632 12b0 1C       		.byte	0x1c
 18633 12b1 36       		.byte	0x36
 18634 12b2 1C       		.byte	0x1c
 18635 12b3 9F       		.byte	0x9f
 18636 12b4 00000000 		.4byte	0
 18637 12b8 00000000 		.4byte	0
 18638              	.LLST104:
 18639 12bc 42000000 		.4byte	.LVL312
 18640 12c0 52000000 		.4byte	.LVL313
 18641 12c4 0100     		.2byte	0x1
 18642 12c6 50       		.byte	0x50
 18643 12c7 5E000000 		.4byte	.LVL314
 18644 12cb 62000000 		.4byte	.LVL315
 18645 12cf 0100     		.2byte	0x1
 18646 12d1 50       		.byte	0x50
 18647 12d2 00000000 		.4byte	0
 18648 12d6 00000000 		.4byte	0
 18649              	.LLST123:
 18650 12da 00000000 		.4byte	.LVL352
 18651 12de 0B000000 		.4byte	.LVL353-1
 18652 12e2 0100     		.2byte	0x1
 18653 12e4 50       		.byte	0x50
 18654 12e5 0B000000 		.4byte	.LVL353-1
 18655 12e9 EA000000 		.4byte	.LVL370
 18656 12ed 0100     		.2byte	0x1
 18657 12ef 56       		.byte	0x56
 18658 12f0 EA000000 		.4byte	.LVL370
 18659 12f4 66010000 		.4byte	.LVL384
 18660 12f8 0400     		.2byte	0x4
 18661 12fa F3       		.byte	0xf3
 18662 12fb 01       		.uleb128 0x1
 18663 12fc 50       		.byte	0x50
 18664 12fd 9F       		.byte	0x9f
 18665 12fe 66010000 		.4byte	.LVL384
 18666 1302 7C010000 		.4byte	.LVL388
 18667 1306 0100     		.2byte	0x1
 18668 1308 56       		.byte	0x56
 18669 1309 7C010000 		.4byte	.LVL388
 18670 130d 82010000 		.4byte	.LVL389
 18671 1311 0400     		.2byte	0x4
 18672 1313 F3       		.byte	0xf3
 18673 1314 01       		.uleb128 0x1
 18674 1315 50       		.byte	0x50
 18675 1316 9F       		.byte	0x9f
 18676 1317 82010000 		.4byte	.LVL389
 18677 131b 8A010000 		.4byte	.LVL392
ARM GAS  /tmp/cchERvVK.s 			page 330


 18678 131f 0100     		.2byte	0x1
 18679 1321 56       		.byte	0x56
 18680 1322 8A010000 		.4byte	.LVL392
 18681 1326 04020000 		.4byte	.LFE270
 18682 132a 0400     		.2byte	0x4
 18683 132c F3       		.byte	0xf3
 18684 132d 01       		.uleb128 0x1
 18685 132e 50       		.byte	0x50
 18686 132f 9F       		.byte	0x9f
 18687 1330 00000000 		.4byte	0
 18688 1334 00000000 		.4byte	0
 18689              	.LLST124:
 18690 1338 00000000 		.4byte	.LVL352
 18691 133c 0B000000 		.4byte	.LVL353-1
 18692 1340 0100     		.2byte	0x1
 18693 1342 51       		.byte	0x51
 18694 1343 0B000000 		.4byte	.LVL353-1
 18695 1347 04020000 		.4byte	.LFE270
 18696 134b 0400     		.2byte	0x4
 18697 134d F3       		.byte	0xf3
 18698 134e 01       		.uleb128 0x1
 18699 134f 51       		.byte	0x51
 18700 1350 9F       		.byte	0x9f
 18701 1351 00000000 		.4byte	0
 18702 1355 00000000 		.4byte	0
 18703              	.LLST125:
 18704 1359 0E000000 		.4byte	.LVL354
 18705 135d 10000000 		.4byte	.LVL355
 18706 1361 0100     		.2byte	0x1
 18707 1363 50       		.byte	0x50
 18708 1364 10000000 		.4byte	.LVL355
 18709 1368 A6010000 		.4byte	.LVL396
 18710 136c 0100     		.2byte	0x1
 18711 136e 54       		.byte	0x54
 18712 136f 00000000 		.4byte	0
 18713 1373 00000000 		.4byte	0
 18714              	.LLST126:
 18715 1377 2E000000 		.4byte	.LVL359
 18716 137b 34000000 		.4byte	.LVL360
 18717 137f 0100     		.2byte	0x1
 18718 1381 50       		.byte	0x50
 18719 1382 34000000 		.4byte	.LVL360
 18720 1386 E8000000 		.4byte	.LVL369
 18721 138a 0100     		.2byte	0x1
 18722 138c 55       		.byte	0x55
 18723 138d 66010000 		.4byte	.LVL384
 18724 1391 6E010000 		.4byte	.LVL386
 18725 1395 0100     		.2byte	0x1
 18726 1397 55       		.byte	0x55
 18727 1398 82010000 		.4byte	.LVL389
 18728 139c 8A010000 		.4byte	.LVL392
 18729 13a0 0100     		.2byte	0x1
 18730 13a2 55       		.byte	0x55
 18731 13a3 00000000 		.4byte	0
 18732 13a7 00000000 		.4byte	0
 18733              	.LLST127:
 18734 13ab 8A000000 		.4byte	.LVL362
ARM GAS  /tmp/cchERvVK.s 			page 331


 18735 13af 8E000000 		.4byte	.LVL363
 18736 13b3 0100     		.2byte	0x1
 18737 13b5 50       		.byte	0x50
 18738 13b6 8E000000 		.4byte	.LVL363
 18739 13ba A6010000 		.4byte	.LVL396
 18740 13be 0100     		.2byte	0x1
 18741 13c0 58       		.byte	0x58
 18742 13c1 00000000 		.4byte	0
 18743 13c5 00000000 		.4byte	0
 18744              	.LLST128:
 18745 13c9 C2000000 		.4byte	.LVL366
 18746 13cd CC000000 		.4byte	.LVL367
 18747 13d1 0100     		.2byte	0x1
 18748 13d3 50       		.byte	0x50
 18749 13d4 82010000 		.4byte	.LVL389
 18750 13d8 84010000 		.4byte	.LVL390
 18751 13dc 0100     		.2byte	0x1
 18752 13de 50       		.byte	0x50
 18753 13df 00000000 		.4byte	0
 18754 13e3 00000000 		.4byte	0
 18755              	.LLST98:
 18756 13e7 00000000 		.4byte	.LVL288
 18757 13eb 07000000 		.4byte	.LVL289-1
 18758 13ef 0100     		.2byte	0x1
 18759 13f1 50       		.byte	0x50
 18760 13f2 07000000 		.4byte	.LVL289-1
 18761 13f6 1A000000 		.4byte	.LVL293
 18762 13fa 0100     		.2byte	0x1
 18763 13fc 54       		.byte	0x54
 18764 13fd 1A000000 		.4byte	.LVL293
 18765 1401 1D000000 		.4byte	.LVL294-1
 18766 1405 0100     		.2byte	0x1
 18767 1407 50       		.byte	0x50
 18768 1408 1D000000 		.4byte	.LVL294-1
 18769 140c 26000000 		.4byte	.LVL296
 18770 1410 0100     		.2byte	0x1
 18771 1412 54       		.byte	0x54
 18772 1413 26000000 		.4byte	.LVL296
 18773 1417 29000000 		.4byte	.LVL297-1
 18774 141b 0100     		.2byte	0x1
 18775 141d 50       		.byte	0x50
 18776 141e 29000000 		.4byte	.LVL297-1
 18777 1422 3A000000 		.4byte	.LVL299
 18778 1426 0100     		.2byte	0x1
 18779 1428 54       		.byte	0x54
 18780 1429 3A000000 		.4byte	.LVL299
 18781 142d 3C000000 		.4byte	.LVL300
 18782 1431 0100     		.2byte	0x1
 18783 1433 50       		.byte	0x50
 18784 1434 3C000000 		.4byte	.LVL300
 18785 1438 3E000000 		.4byte	.LVL301
 18786 143c 0100     		.2byte	0x1
 18787 143e 54       		.byte	0x54
 18788 143f 3E000000 		.4byte	.LVL301
 18789 1443 40000000 		.4byte	.LVL302
 18790 1447 0100     		.2byte	0x1
 18791 1449 50       		.byte	0x50
ARM GAS  /tmp/cchERvVK.s 			page 332


 18792 144a 40000000 		.4byte	.LVL302
 18793 144e 42000000 		.4byte	.LVL303
 18794 1452 0100     		.2byte	0x1
 18795 1454 54       		.byte	0x54
 18796 1455 42000000 		.4byte	.LVL303
 18797 1459 4C000000 		.4byte	.LFE269
 18798 145d 0400     		.2byte	0x4
 18799 145f F3       		.byte	0xf3
 18800 1460 01       		.uleb128 0x1
 18801 1461 50       		.byte	0x50
 18802 1462 9F       		.byte	0x9f
 18803 1463 00000000 		.4byte	0
 18804 1467 00000000 		.4byte	0
 18805              	.LLST99:
 18806 146b 0E000000 		.4byte	.LVL290
 18807 146f 1A000000 		.4byte	.LVL293
 18808 1473 0200     		.2byte	0x2
 18809 1475 30       		.byte	0x30
 18810 1476 9F       		.byte	0x9f
 18811 1477 1E000000 		.4byte	.LVL294
 18812 147b 24000000 		.4byte	.LVL295
 18813 147f 0100     		.2byte	0x1
 18814 1481 50       		.byte	0x50
 18815 1482 00000000 		.4byte	0
 18816 1486 00000000 		.4byte	0
 18817              	.LLST100:
 18818 148a 18000000 		.4byte	.LVL292
 18819 148e 1A000000 		.4byte	.LVL293
 18820 1492 0100     		.2byte	0x1
 18821 1494 50       		.byte	0x50
 18822 1495 1A000000 		.4byte	.LVL293
 18823 1499 42000000 		.4byte	.LVL303
 18824 149d 0100     		.2byte	0x1
 18825 149f 55       		.byte	0x55
 18826 14a0 00000000 		.4byte	0
 18827 14a4 00000000 		.4byte	0
 18828              	.LLST97:
 18829 14a8 00000000 		.4byte	.LVL283
 18830 14ac 06000000 		.4byte	.LVL284
 18831 14b0 0100     		.2byte	0x1
 18832 14b2 50       		.byte	0x50
 18833 14b3 06000000 		.4byte	.LVL284
 18834 14b7 10000000 		.4byte	.LVL286
 18835 14bb 0100     		.2byte	0x1
 18836 14bd 54       		.byte	0x54
 18837 14be 10000000 		.4byte	.LVL286
 18838 14c2 13000000 		.4byte	.LVL287-1
 18839 14c6 0100     		.2byte	0x1
 18840 14c8 50       		.byte	0x50
 18841 14c9 13000000 		.4byte	.LVL287-1
 18842 14cd 14000000 		.4byte	.LFE268
 18843 14d1 0400     		.2byte	0x4
 18844 14d3 F3       		.byte	0xf3
 18845 14d4 01       		.uleb128 0x1
 18846 14d5 50       		.byte	0x50
 18847 14d6 9F       		.byte	0x9f
 18848 14d7 00000000 		.4byte	0
ARM GAS  /tmp/cchERvVK.s 			page 333


 18849 14db 00000000 		.4byte	0
 18850              	.LLST0:
 18851 14df 00000000 		.4byte	.LVL0
 18852 14e3 08000000 		.4byte	.LVL1
 18853 14e7 0100     		.2byte	0x1
 18854 14e9 50       		.byte	0x50
 18855 14ea 08000000 		.4byte	.LVL1
 18856 14ee 14000000 		.4byte	.LFE267
 18857 14f2 0400     		.2byte	0x4
 18858 14f4 F3       		.byte	0xf3
 18859 14f5 01       		.uleb128 0x1
 18860 14f6 50       		.byte	0x50
 18861 14f7 9F       		.byte	0x9f
 18862 14f8 00000000 		.4byte	0
 18863 14fc 00000000 		.4byte	0
 18864              	.LLST1:
 18865 1500 08000000 		.4byte	.LVL1
 18866 1504 0B000000 		.4byte	.LVL2-1
 18867 1508 0100     		.2byte	0x1
 18868 150a 50       		.byte	0x50
 18869 150b 00000000 		.4byte	0
 18870 150f 00000000 		.4byte	0
 18871              	.LLST114:
 18872 1513 00000000 		.4byte	.LVL337
 18873 1517 0C000000 		.4byte	.LVL338
 18874 151b 0100     		.2byte	0x1
 18875 151d 50       		.byte	0x50
 18876 151e 0C000000 		.4byte	.LVL338
 18877 1522 2C000000 		.4byte	.LVL342
 18878 1526 0100     		.2byte	0x1
 18879 1528 54       		.byte	0x54
 18880 1529 2C000000 		.4byte	.LVL342
 18881 152d 30000000 		.4byte	.LFE266
 18882 1531 0400     		.2byte	0x4
 18883 1533 F3       		.byte	0xf3
 18884 1534 01       		.uleb128 0x1
 18885 1535 50       		.byte	0x50
 18886 1536 9F       		.byte	0x9f
 18887 1537 00000000 		.4byte	0
 18888 153b 00000000 		.4byte	0
 18889              	.LLST115:
 18890 153f 00000000 		.4byte	.LVL337
 18891 1543 16000000 		.4byte	.LVL340
 18892 1547 0100     		.2byte	0x1
 18893 1549 51       		.byte	0x51
 18894 154a 16000000 		.4byte	.LVL340
 18895 154e 1B000000 		.4byte	.LVL341-1
 18896 1552 0100     		.2byte	0x1
 18897 1554 52       		.byte	0x52
 18898 1555 1B000000 		.4byte	.LVL341-1
 18899 1559 2C000000 		.4byte	.LVL342
 18900 155d 0100     		.2byte	0x1
 18901 155f 55       		.byte	0x55
 18902 1560 2C000000 		.4byte	.LVL342
 18903 1564 2F000000 		.4byte	.LVL343-1
 18904 1568 0100     		.2byte	0x1
 18905 156a 51       		.byte	0x51
ARM GAS  /tmp/cchERvVK.s 			page 334


 18906 156b 2F000000 		.4byte	.LVL343-1
 18907 156f 30000000 		.4byte	.LFE266
 18908 1573 0400     		.2byte	0x4
 18909 1575 F3       		.byte	0xf3
 18910 1576 01       		.uleb128 0x1
 18911 1577 51       		.byte	0x51
 18912 1578 9F       		.byte	0x9f
 18913 1579 00000000 		.4byte	0
 18914 157d 00000000 		.4byte	0
 18915              	.LLST116:
 18916 1581 00000000 		.4byte	.LVL337
 18917 1585 12000000 		.4byte	.LVL339
 18918 1589 0100     		.2byte	0x1
 18919 158b 52       		.byte	0x52
 18920 158c 12000000 		.4byte	.LVL339
 18921 1590 2C000000 		.4byte	.LVL342
 18922 1594 0100     		.2byte	0x1
 18923 1596 56       		.byte	0x56
 18924 1597 2C000000 		.4byte	.LVL342
 18925 159b 2F000000 		.4byte	.LVL343-1
 18926 159f 0100     		.2byte	0x1
 18927 15a1 52       		.byte	0x52
 18928 15a2 2F000000 		.4byte	.LVL343-1
 18929 15a6 30000000 		.4byte	.LFE266
 18930 15aa 0400     		.2byte	0x4
 18931 15ac F3       		.byte	0xf3
 18932 15ad 01       		.uleb128 0x1
 18933 15ae 52       		.byte	0x52
 18934 15af 9F       		.byte	0x9f
 18935 15b0 00000000 		.4byte	0
 18936 15b4 00000000 		.4byte	0
 18937              	.LLST117:
 18938 15b8 00000000 		.4byte	.LVL337
 18939 15bc 1B000000 		.4byte	.LVL341-1
 18940 15c0 0100     		.2byte	0x1
 18941 15c2 53       		.byte	0x53
 18942 15c3 1B000000 		.4byte	.LVL341-1
 18943 15c7 2C000000 		.4byte	.LVL342
 18944 15cb 0100     		.2byte	0x1
 18945 15cd 57       		.byte	0x57
 18946 15ce 2C000000 		.4byte	.LVL342
 18947 15d2 2F000000 		.4byte	.LVL343-1
 18948 15d6 0100     		.2byte	0x1
 18949 15d8 53       		.byte	0x53
 18950 15d9 2F000000 		.4byte	.LVL343-1
 18951 15dd 30000000 		.4byte	.LFE266
 18952 15e1 0400     		.2byte	0x4
 18953 15e3 F3       		.byte	0xf3
 18954 15e4 01       		.uleb128 0x1
 18955 15e5 53       		.byte	0x53
 18956 15e6 9F       		.byte	0x9f
 18957 15e7 00000000 		.4byte	0
 18958 15eb 00000000 		.4byte	0
 18959              	.LLST118:
 18960 15ef 00000000 		.4byte	.LVL344
 18961 15f3 0A000000 		.4byte	.LVL345
 18962 15f7 0100     		.2byte	0x1
ARM GAS  /tmp/cchERvVK.s 			page 335


 18963 15f9 50       		.byte	0x50
 18964 15fa 0A000000 		.4byte	.LVL345
 18965 15fe 2A000000 		.4byte	.LVL348
 18966 1602 0100     		.2byte	0x1
 18967 1604 54       		.byte	0x54
 18968 1605 2A000000 		.4byte	.LVL348
 18969 1609 2E000000 		.4byte	.LFE265
 18970 160d 0400     		.2byte	0x4
 18971 160f F3       		.byte	0xf3
 18972 1610 01       		.uleb128 0x1
 18973 1611 50       		.byte	0x50
 18974 1612 9F       		.byte	0x9f
 18975 1613 00000000 		.4byte	0
 18976 1617 00000000 		.4byte	0
 18977              	.LLST119:
 18978 161b 00000000 		.4byte	.LVL344
 18979 161f 12000000 		.4byte	.LVL346
 18980 1623 0100     		.2byte	0x1
 18981 1625 51       		.byte	0x51
 18982 1626 12000000 		.4byte	.LVL346
 18983 162a 2A000000 		.4byte	.LVL348
 18984 162e 0100     		.2byte	0x1
 18985 1630 55       		.byte	0x55
 18986 1631 2A000000 		.4byte	.LVL348
 18987 1635 2D000000 		.4byte	.LVL349-1
 18988 1639 0100     		.2byte	0x1
 18989 163b 51       		.byte	0x51
 18990 163c 2D000000 		.4byte	.LVL349-1
 18991 1640 2E000000 		.4byte	.LFE265
 18992 1644 0400     		.2byte	0x4
 18993 1646 F3       		.byte	0xf3
 18994 1647 01       		.uleb128 0x1
 18995 1648 51       		.byte	0x51
 18996 1649 9F       		.byte	0x9f
 18997 164a 00000000 		.4byte	0
 18998 164e 00000000 		.4byte	0
 18999              	.LLST120:
 19000 1652 00000000 		.4byte	.LVL344
 19001 1656 19000000 		.4byte	.LVL347-1
 19002 165a 0100     		.2byte	0x1
 19003 165c 52       		.byte	0x52
 19004 165d 19000000 		.4byte	.LVL347-1
 19005 1661 2A000000 		.4byte	.LVL348
 19006 1665 0100     		.2byte	0x1
 19007 1667 56       		.byte	0x56
 19008 1668 2A000000 		.4byte	.LVL348
 19009 166c 2D000000 		.4byte	.LVL349-1
 19010 1670 0100     		.2byte	0x1
 19011 1672 52       		.byte	0x52
 19012 1673 2D000000 		.4byte	.LVL349-1
 19013 1677 2E000000 		.4byte	.LFE265
 19014 167b 0400     		.2byte	0x4
 19015 167d F3       		.byte	0xf3
 19016 167e 01       		.uleb128 0x1
 19017 167f 52       		.byte	0x52
 19018 1680 9F       		.byte	0x9f
 19019 1681 00000000 		.4byte	0
ARM GAS  /tmp/cchERvVK.s 			page 336


 19020 1685 00000000 		.4byte	0
 19021              	.LLST121:
 19022 1689 00000000 		.4byte	.LVL344
 19023 168d 19000000 		.4byte	.LVL347-1
 19024 1691 0100     		.2byte	0x1
 19025 1693 53       		.byte	0x53
 19026 1694 19000000 		.4byte	.LVL347-1
 19027 1698 2A000000 		.4byte	.LVL348
 19028 169c 0100     		.2byte	0x1
 19029 169e 57       		.byte	0x57
 19030 169f 2A000000 		.4byte	.LVL348
 19031 16a3 2D000000 		.4byte	.LVL349-1
 19032 16a7 0100     		.2byte	0x1
 19033 16a9 53       		.byte	0x53
 19034 16aa 2D000000 		.4byte	.LVL349-1
 19035 16ae 2E000000 		.4byte	.LFE265
 19036 16b2 0400     		.2byte	0x4
 19037 16b4 F3       		.byte	0xf3
 19038 16b5 01       		.uleb128 0x1
 19039 16b6 53       		.byte	0x53
 19040 16b7 9F       		.byte	0x9f
 19041 16b8 00000000 		.4byte	0
 19042 16bc 00000000 		.4byte	0
 19043              	.LLST105:
 19044 16c0 00000000 		.4byte	.LVL326
 19045 16c4 20000000 		.4byte	.LVL328
 19046 16c8 0100     		.2byte	0x1
 19047 16ca 52       		.byte	0x52
 19048 16cb 20000000 		.4byte	.LVL328
 19049 16cf 76000000 		.4byte	.LVL335
 19050 16d3 0100     		.2byte	0x1
 19051 16d5 5A       		.byte	0x5a
 19052 16d6 76000000 		.4byte	.LVL335
 19053 16da 84000000 		.4byte	.LFE292
 19054 16de 0400     		.2byte	0x4
 19055 16e0 F3       		.byte	0xf3
 19056 16e1 01       		.uleb128 0x1
 19057 16e2 52       		.byte	0x52
 19058 16e3 9F       		.byte	0x9f
 19059 16e4 00000000 		.4byte	0
 19060 16e8 00000000 		.4byte	0
 19061              	.LLST106:
 19062 16ec 00000000 		.4byte	.LVL326
 19063 16f0 34000000 		.4byte	.LVL330
 19064 16f4 0100     		.2byte	0x1
 19065 16f6 53       		.byte	0x53
 19066 16f7 34000000 		.4byte	.LVL330
 19067 16fb 84000000 		.4byte	.LFE292
 19068 16ff 0400     		.2byte	0x4
 19069 1701 F3       		.byte	0xf3
 19070 1702 01       		.uleb128 0x1
 19071 1703 53       		.byte	0x53
 19072 1704 9F       		.byte	0x9f
 19073 1705 00000000 		.4byte	0
 19074 1709 00000000 		.4byte	0
 19075              	.LLST107:
 19076 170d 00000000 		.4byte	.LVL326
ARM GAS  /tmp/cchERvVK.s 			page 337


 19077 1711 7C000000 		.4byte	.LVL336
 19078 1715 0200     		.2byte	0x2
 19079 1717 91       		.byte	0x91
 19080 1718 00       		.sleb128 0
 19081 1719 7C000000 		.4byte	.LVL336
 19082 171d 84000000 		.4byte	.LFE292
 19083 1721 0200     		.2byte	0x2
 19084 1723 7D       		.byte	0x7d
 19085 1724 00       		.sleb128 0
 19086 1725 00000000 		.4byte	0
 19087 1729 00000000 		.4byte	0
 19088              	.LLST108:
 19089 172d 08000000 		.4byte	.LVL327
 19090 1731 34000000 		.4byte	.LVL330
 19091 1735 0100     		.2byte	0x1
 19092 1737 51       		.byte	0x51
 19093 1738 00000000 		.4byte	0
 19094 173c 00000000 		.4byte	0
 19095              	.LLST109:
 19096 1740 2A000000 		.4byte	.LVL329
 19097 1744 76000000 		.4byte	.LVL335
 19098 1748 0100     		.2byte	0x1
 19099 174a 57       		.byte	0x57
 19100 174b 00000000 		.4byte	0
 19101 174f 00000000 		.4byte	0
 19102              	.LLST110:
 19103 1753 2A000000 		.4byte	.LVL329
 19104 1757 76000000 		.4byte	.LVL335
 19105 175b 0100     		.2byte	0x1
 19106 175d 56       		.byte	0x56
 19107 175e 00000000 		.4byte	0
 19108 1762 00000000 		.4byte	0
 19109              	.LLST111:
 19110 1766 2A000000 		.4byte	.LVL329
 19111 176a 76000000 		.4byte	.LVL335
 19112 176e 0100     		.2byte	0x1
 19113 1770 59       		.byte	0x59
 19114 1771 00000000 		.4byte	0
 19115 1775 00000000 		.4byte	0
 19116              	.LLST112:
 19117 1779 2A000000 		.4byte	.LVL329
 19118 177d 76000000 		.4byte	.LVL335
 19119 1781 0100     		.2byte	0x1
 19120 1783 58       		.byte	0x58
 19121 1784 00000000 		.4byte	0
 19122 1788 00000000 		.4byte	0
 19123              	.LLST113:
 19124 178c 3A000000 		.4byte	.LVL331
 19125 1790 76000000 		.4byte	.LVL335
 19126 1794 0100     		.2byte	0x1
 19127 1796 54       		.byte	0x54
 19128 1797 00000000 		.4byte	0
 19129 179b 00000000 		.4byte	0
 19130              	.LLST122:
 19131 179f 00000000 		.4byte	.LVL350
 19132 17a3 04000000 		.4byte	.LVL351
 19133 17a7 0100     		.2byte	0x1
ARM GAS  /tmp/cchERvVK.s 			page 338


 19134 17a9 50       		.byte	0x50
 19135 17aa 04000000 		.4byte	.LVL351
 19136 17ae 06000000 		.4byte	.LFE263
 19137 17b2 0400     		.2byte	0x4
 19138 17b4 F3       		.byte	0xf3
 19139 17b5 01       		.uleb128 0x1
 19140 17b6 50       		.byte	0x50
 19141 17b7 9F       		.byte	0x9f
 19142 17b8 00000000 		.4byte	0
 19143 17bc 00000000 		.4byte	0
 19144              		.section	.debug_aranges,"",%progbits
 19145 0000 C4000000 		.4byte	0xc4
 19146 0004 0200     		.2byte	0x2
 19147 0006 00000000 		.4byte	.Ldebug_info0
 19148 000a 04       		.byte	0x4
 19149 000b 00       		.byte	0
 19150 000c 0000     		.2byte	0
 19151 000e 0000     		.2byte	0
 19152 0010 00000000 		.4byte	.LFB267
 19153 0014 14000000 		.4byte	.LFE267-.LFB267
 19154 0018 00000000 		.4byte	.LFB289
 19155 001c E8000000 		.4byte	.LFE289-.LFB289
 19156 0020 00000000 		.4byte	.LFB287
 19157 0024 4C000000 		.4byte	.LFE287-.LFB287
 19158 0028 00000000 		.4byte	.LFB286
 19159 002c 54010000 		.4byte	.LFE286-.LFB286
 19160 0030 00000000 		.4byte	.LFB276
 19161 0034 20000000 		.4byte	.LFE276-.LFB276
 19162 0038 00000000 		.4byte	.LFB272
 19163 003c 68000000 		.4byte	.LFE272-.LFB272
 19164 0040 00000000 		.4byte	.LFB279
 19165 0044 64000000 		.4byte	.LFE279-.LFB279
 19166 0048 00000000 		.4byte	.LFB281
 19167 004c 94000000 		.4byte	.LFE281-.LFB281
 19168 0050 00000000 		.4byte	.LFB280
 19169 0054 10040000 		.4byte	.LFE280-.LFB280
 19170 0058 00000000 		.4byte	.LFB278
 19171 005c 68000000 		.4byte	.LFE278-.LFB278
 19172 0060 00000000 		.4byte	.LFB274
 19173 0064 CC000000 		.4byte	.LFE274-.LFB274
 19174 0068 00000000 		.4byte	.LFB273
 19175 006c B8000000 		.4byte	.LFE273-.LFB273
 19176 0070 00000000 		.4byte	.LFB268
 19177 0074 14000000 		.4byte	.LFE268-.LFB268
 19178 0078 00000000 		.4byte	.LFB269
 19179 007c 4C000000 		.4byte	.LFE269-.LFB269
 19180 0080 00000000 		.4byte	.LFB271
 19181 0084 F4000000 		.4byte	.LFE271-.LFB271
 19182 0088 00000000 		.4byte	.LFB292
 19183 008c 84000000 		.4byte	.LFE292-.LFB292
 19184 0090 00000000 		.4byte	.LFB266
 19185 0094 30000000 		.4byte	.LFE266-.LFB266
 19186 0098 00000000 		.4byte	.LFB265
 19187 009c 2E000000 		.4byte	.LFE265-.LFB265
 19188 00a0 00000000 		.4byte	.LFB263
 19189 00a4 06000000 		.4byte	.LFE263-.LFB263
 19190 00a8 00000000 		.4byte	.LFB270
ARM GAS  /tmp/cchERvVK.s 			page 339


 19191 00ac 04020000 		.4byte	.LFE270-.LFB270
 19192 00b0 00000000 		.4byte	.LFB275
 19193 00b4 40000000 		.4byte	.LFE275-.LFB275
 19194 00b8 00000000 		.4byte	.LFB283
 19195 00bc B4000000 		.4byte	.LFE283-.LFB283
 19196 00c0 00000000 		.4byte	0
 19197 00c4 00000000 		.4byte	0
 19198              		.section	.debug_ranges,"",%progbits
 19199              	.Ldebug_ranges0:
 19200 0000 C8000000 		.4byte	.LBB58
 19201 0004 CA000000 		.4byte	.LBE58
 19202 0008 CC000000 		.4byte	.LBB62
 19203 000c E8000000 		.4byte	.LBE62
 19204 0010 1E010000 		.4byte	.LBB63
 19205 0014 30010000 		.4byte	.LBE63
 19206 0018 00000000 		.4byte	0
 19207 001c 00000000 		.4byte	0
 19208 0020 AE000000 		.4byte	.LBB79
 19209 0024 FA000000 		.4byte	.LBE79
 19210 0028 1E020000 		.4byte	.LBB102
 19211 002c 22020000 		.4byte	.LBE102
 19212 0030 00000000 		.4byte	0
 19213 0034 00000000 		.4byte	0
 19214 0038 28010000 		.4byte	.LBB82
 19215 003c F6010000 		.4byte	.LBE82
 19216 0040 F8010000 		.4byte	.LBB91
 19217 0044 FC010000 		.4byte	.LBE91
 19218 0048 26020000 		.4byte	.LBB103
 19219 004c 2A020000 		.4byte	.LBE103
 19220 0050 DA030000 		.4byte	.LBB105
 19221 0054 E4030000 		.4byte	.LBE105
 19222 0058 00000000 		.4byte	0
 19223 005c 00000000 		.4byte	0
 19224 0060 64010000 		.4byte	.LBB84
 19225 0064 F6010000 		.4byte	.LBE84
 19226 0068 F8010000 		.4byte	.LBB85
 19227 006c FC010000 		.4byte	.LBE85
 19228 0070 26020000 		.4byte	.LBB86
 19229 0074 2A020000 		.4byte	.LBE86
 19230 0078 DA030000 		.4byte	.LBB87
 19231 007c E4030000 		.4byte	.LBE87
 19232 0080 00000000 		.4byte	0
 19233 0084 00000000 		.4byte	0
 19234 0088 FC010000 		.4byte	.LBB92
 19235 008c 14020000 		.4byte	.LBE92
 19236 0090 2A020000 		.4byte	.LBB104
 19237 0094 DA030000 		.4byte	.LBE104
 19238 0098 E4030000 		.4byte	.LBB106
 19239 009c 10040000 		.4byte	.LBE106
 19240 00a0 00000000 		.4byte	0
 19241 00a4 00000000 		.4byte	0
 19242 00a8 2A020000 		.4byte	.LBB93
 19243 00ac B4020000 		.4byte	.LBE93
 19244 00b0 E8020000 		.4byte	.LBB100
 19245 00b4 DA030000 		.4byte	.LBE100
 19246 00b8 E4030000 		.4byte	.LBB101
 19247 00bc 10040000 		.4byte	.LBE101
ARM GAS  /tmp/cchERvVK.s 			page 340


 19248 00c0 00000000 		.4byte	0
 19249 00c4 00000000 		.4byte	0
 19250 00c8 88030000 		.4byte	.LBB95
 19251 00cc DA030000 		.4byte	.LBE95
 19252 00d0 E4030000 		.4byte	.LBB96
 19253 00d4 E8030000 		.4byte	.LBE96
 19254 00d8 EC030000 		.4byte	.LBB97
 19255 00dc 10040000 		.4byte	.LBE97
 19256 00e0 00000000 		.4byte	0
 19257 00e4 00000000 		.4byte	0
 19258 00e8 20000000 		.4byte	.LBB109
 19259 00ec 24000000 		.4byte	.LBE109
 19260 00f0 26000000 		.4byte	.LBB112
 19261 00f4 2E000000 		.4byte	.LBE112
 19262 00f8 00000000 		.4byte	0
 19263 00fc 00000000 		.4byte	0
 19264 0100 00000000 		.4byte	.LBB123
 19265 0104 02000000 		.4byte	.LBE123
 19266 0108 06000000 		.4byte	.LBB126
 19267 010c 0A000000 		.4byte	.LBE126
 19268 0110 00000000 		.4byte	0
 19269 0114 00000000 		.4byte	0
 19270 0118 00000000 		.4byte	.LFB267
 19271 011c 14000000 		.4byte	.LFE267
 19272 0120 00000000 		.4byte	.LFB289
 19273 0124 E8000000 		.4byte	.LFE289
 19274 0128 00000000 		.4byte	.LFB287
 19275 012c 4C000000 		.4byte	.LFE287
 19276 0130 00000000 		.4byte	.LFB286
 19277 0134 54010000 		.4byte	.LFE286
 19278 0138 00000000 		.4byte	.LFB276
 19279 013c 20000000 		.4byte	.LFE276
 19280 0140 00000000 		.4byte	.LFB272
 19281 0144 68000000 		.4byte	.LFE272
 19282 0148 00000000 		.4byte	.LFB279
 19283 014c 64000000 		.4byte	.LFE279
 19284 0150 00000000 		.4byte	.LFB281
 19285 0154 94000000 		.4byte	.LFE281
 19286 0158 00000000 		.4byte	.LFB280
 19287 015c 10040000 		.4byte	.LFE280
 19288 0160 00000000 		.4byte	.LFB278
 19289 0164 68000000 		.4byte	.LFE278
 19290 0168 00000000 		.4byte	.LFB274
 19291 016c CC000000 		.4byte	.LFE274
 19292 0170 00000000 		.4byte	.LFB273
 19293 0174 B8000000 		.4byte	.LFE273
 19294 0178 00000000 		.4byte	.LFB268
 19295 017c 14000000 		.4byte	.LFE268
 19296 0180 00000000 		.4byte	.LFB269
 19297 0184 4C000000 		.4byte	.LFE269
 19298 0188 00000000 		.4byte	.LFB271
 19299 018c F4000000 		.4byte	.LFE271
 19300 0190 00000000 		.4byte	.LFB292
 19301 0194 84000000 		.4byte	.LFE292
 19302 0198 00000000 		.4byte	.LFB266
 19303 019c 30000000 		.4byte	.LFE266
 19304 01a0 00000000 		.4byte	.LFB265
ARM GAS  /tmp/cchERvVK.s 			page 341


 19305 01a4 2E000000 		.4byte	.LFE265
 19306 01a8 00000000 		.4byte	.LFB263
 19307 01ac 06000000 		.4byte	.LFE263
 19308 01b0 00000000 		.4byte	.LFB270
 19309 01b4 04020000 		.4byte	.LFE270
 19310 01b8 00000000 		.4byte	.LFB275
 19311 01bc 40000000 		.4byte	.LFE275
 19312 01c0 00000000 		.4byte	.LFB283
 19313 01c4 B4000000 		.4byte	.LFE283
 19314 01c8 00000000 		.4byte	0
 19315 01cc 00000000 		.4byte	0
 19316              		.section	.debug_line,"",%progbits
 19317              	.Ldebug_line0:
 19318 0000 D00B0000 		.section	.debug_str,"MS",%progbits,1
 19318      0200CF05 
 19318      00000201 
 19318      FB0E0D00 
 19318      01010101 
 19319              	.LASF485:
 19320 0000 5553425F 		.ascii	"USB_STOP\000"
 19320      53544F50 
 19320      00
 19321              	.LASF250:
 19322 0009 706F7274 		.ascii	"port_intctx\000"
 19322      5F696E74 
 19322      63747800 
 19323              	.LASF271:
 19324 0015 63685F70 		.ascii	"ch_ptrsize\000"
 19324      74727369 
 19324      7A6500
 19325              	.LASF705:
 19326 0020 54415247 		.ascii	"TARGET_WATCH_READ\000"
 19326      45545F57 
 19326      41544348 
 19326      5F524541 
 19326      4400
 19327              	.LASF441:
 19328 0032 6576656E 		.ascii	"event\000"
 19328      7400
 19329              	.LASF776:
 19330 0038 72657365 		.ascii	"reserved\000"
 19330      72766564 
 19330      00
 19331              	.LASF352:
 19332 0041 43414E5F 		.ascii	"CAN_STARTING\000"
 19332      53544152 
 19332      54494E47 
 19332      00
 19333              	.LASF735:
 19334 004e 54415247 		.ascii	"TARGET_SEEK_SET\000"
 19334      45545F53 
 19334      45454B5F 
 19334      53455400 
 19335              	.LASF879:
 19336 005e 636F6D6D 		.ascii	"commands_printf\000"
 19336      616E6473 
 19336      5F707269 
ARM GAS  /tmp/cchERvVK.s 			page 342


 19336      6E746600 
 19337              	.LASF772:
 19338 006e 73706563 		.ascii	"specific_name\000"
 19338      69666963 
 19338      5F6E616D 
 19338      6500
 19339              	.LASF710:
 19340 007c 54415247 		.ascii	"TARGET_EINTR\000"
 19340      45545F45 
 19340      494E5452 
 19340      00
 19341              	.LASF144:
 19342 0089 6D73675F 		.ascii	"msg_t\000"
 19342      7400
 19343              	.LASF378:
 19344 008f 4F504D4F 		.ascii	"OPMODE_SMBUS_DEVICE\000"
 19344      44455F53 
 19344      4D425553 
 19344      5F444556 
 19344      49434500 
 19345              	.LASF651:
 19346 00a3 72656663 		.ascii	"refcnt\000"
 19346      6E7400
 19347              	.LASF762:
 19348 00aa 65726173 		.ascii	"erased\000"
 19348      656400
 19349              	.LASF720:
 19350 00b1 54415247 		.ascii	"TARGET_EMFILE\000"
 19350      45545F45 
 19350      4D46494C 
 19350      4500
 19351              	.LASF544:
 19352 00bf 44494550 		.ascii	"DIEPTXF0\000"
 19352      54584630 
 19352      00
 19353              	.LASF621:
 19354 00c8 55534244 		.ascii	"USBD1\000"
 19354      3100
 19355              	.LASF351:
 19356 00ce 43414E5F 		.ascii	"CAN_STOP\000"
 19356      53544F50 
 19356      00
 19357              	.LASF284:
 19358 00d7 63665F6F 		.ascii	"cf_off_time\000"
 19358      66665F74 
 19358      696D6500 
 19359              	.LASF197:
 19360 00e3 63685F73 		.ascii	"ch_system_t\000"
 19360      79737465 
 19360      6D5F7400 
 19361              	.LASF3:
 19362 00ef 5F5F7569 		.ascii	"__uint8_t\000"
 19362      6E74385F 
 19362      7400
 19363              	.LASF257:
 19364 00f9 77747365 		.ascii	"wtsemp\000"
 19364      6D7000
ARM GAS  /tmp/cchERvVK.s 			page 343


 19365              	.LASF312:
 19366 0100 5F426F6F 		.ascii	"_Bool\000"
 19366      6C00
 19367              	.LASF896:
 19368 0106 61646976 		.ascii	"adiv5_ap_write\000"
 19368      355F6170 
 19368      5F777269 
 19368      746500
 19369              	.LASF396:
 19370 0115 646D6172 		.ascii	"dmarx\000"
 19370      7800
 19371              	.LASF74:
 19372 011b 5F6D6273 		.ascii	"_mbstate\000"
 19372      74617465 
 19372      00
 19373              	.LASF53:
 19374 0124 5F617465 		.ascii	"_atexit\000"
 19374      78697400 
 19375              	.LASF696:
 19376 012c 54415247 		.ascii	"TARGET_HALT_REQUEST\000"
 19376      45545F48 
 19376      414C545F 
 19376      52455155 
 19376      45535400 
 19377              	.LASF563:
 19378 0140 72657376 		.ascii	"resvd700\000"
 19378      64373030 
 19378      00
 19379              	.LASF574:
 19380 0149 44564255 		.ascii	"DVBUSDIS\000"
 19380      53444953 
 19380      00
 19381              	.LASF390:
 19382 0152 6572726F 		.ascii	"errors\000"
 19382      727300
 19383              	.LASF459:
 19384 0159 73706963 		.ascii	"spicallback_t\000"
 19384      616C6C62 
 19384      61636B5F 
 19384      7400
 19385              	.LASF193:
 19386 0167 76745F73 		.ascii	"vt_systime\000"
 19386      79737469 
 19386      6D6500
 19387              	.LASF483:
 19388 0172 75736265 		.ascii	"usbep_t\000"
 19388      705F7400 
 19389              	.LASF43:
 19390 017a 5F5F746D 		.ascii	"__tm_mon\000"
 19390      5F6D6F6E 
 19390      00
 19391              	.LASF51:
 19392 0183 5F666E74 		.ascii	"_fntypes\000"
 19392      79706573 
 19392      00
 19393              	.LASF693:
 19394 018c 74617267 		.ascii	"target_halt_reason\000"
ARM GAS  /tmp/cchERvVK.s 			page 344


 19394      65745F68 
 19394      616C745F 
 19394      72656173 
 19394      6F6E00
 19395              	.LASF266:
 19396 019f 6D5F6E65 		.ascii	"m_next\000"
 19396      787400
 19397              	.LASF340:
 19398 01a6 50434461 		.ascii	"PCData\000"
 19398      746100
 19399              	.LASF81:
 19400 01ad 5F696E63 		.ascii	"_inc\000"
 19400      00
 19401              	.LASF54:
 19402 01b2 5F696E64 		.ascii	"_ind\000"
 19402      00
 19403              	.LASF841:
 19404 01b7 636F7274 		.ascii	"cortexm_run_stub\000"
 19404      65786D5F 
 19404      72756E5F 
 19404      73747562 
 19404      00
 19405              	.LASF447:
 19406 01c8 72656164 		.ascii	"read\000"
 19406      00
 19407              	.LASF892:
 19408 01cd 74617267 		.ascii	"target_list_free\000"
 19408      65745F6C 
 19408      6973745F 
 19408      66726565 
 19408      00
 19409              	.LASF548:
 19410 01de 47434346 		.ascii	"GCCFG\000"
 19410      4700
 19411              	.LASF833:
 19412 01e4 73746570 		.ascii	"step\000"
 19412      00
 19413              	.LASF831:
 19414 01e9 73707365 		.ascii	"spsel\000"
 19414      6C00
 19415              	.LASF415:
 19416 01ef 42445452 		.ascii	"BDTR\000"
 19416      00
 19417              	.LASF746:
 19418 01f4 73746174 		.ascii	"stat\000"
 19418      00
 19419              	.LASF854:
 19420 01f9 73746172 		.ascii	"start_time\000"
 19420      745F7469 
 19420      6D6500
 19421              	.LASF689:
 19422 0204 70726976 		.ascii	"priv\000"
 19422      00
 19423              	.LASF388:
 19424 0209 49324343 		.ascii	"I2CConfig\000"
 19424      6F6E6669 
 19424      6700
ARM GAS  /tmp/cchERvVK.s 			page 345


 19425              	.LASF15:
 19426 0213 75696E74 		.ascii	"uint16_t\000"
 19426      31365F74 
 19426      00
 19427              	.LASF908:
 19428 021c 706C6174 		.ascii	"platform_time_ms\000"
 19428      666F726D 
 19428      5F74696D 
 19428      655F6D73 
 19428      00
 19429              	.LASF397:
 19430 022d 646D6174 		.ascii	"dmatx\000"
 19430      7800
 19431              	.LASF660:
 19432 0233 61707365 		.ascii	"apsel\000"
 19432      6C00
 19433              	.LASF619:
 19434 0239 736F665F 		.ascii	"sof_cb\000"
 19434      636200
 19435              	.LASF652:
 19436 0240 64705F69 		.ascii	"dp_idcode\000"
 19436      64636F64 
 19436      6500
 19437              	.LASF60:
 19438 024a 5F666C61 		.ascii	"_flags\000"
 19438      677300
 19439              	.LASF688:
 19440 0251 6E657874 		.ascii	"next\000"
 19440      00
 19441              	.LASF333:
 19442 0256 6F737065 		.ascii	"ospeedr\000"
 19442      65647200 
 19443              	.LASF756:
 19444 025e 6C656E67 		.ascii	"length\000"
 19444      746800
 19445              	.LASF671:
 19446 0265 72656773 		.ascii	"regs_size\000"
 19446      5F73697A 
 19446      6500
 19447              	.LASF551:
 19448 026f 44494550 		.ascii	"DIEPTXF\000"
 19448      54584600 
 19449              	.LASF290:
 19450 0277 656C5F6E 		.ascii	"el_next\000"
 19450      65787400 
 19451              	.LASF468:
 19452 027f 696E5F70 		.ascii	"in_params\000"
 19452      6172616D 
 19452      7300
 19453              	.LASF91:
 19454 0289 5F637674 		.ascii	"_cvtlen\000"
 19454      6C656E00 
 19455              	.LASF174:
 19456 0291 63685F74 		.ascii	"ch_threads_queue\000"
 19456      68726561 
 19456      64735F71 
 19456      75657565 
ARM GAS  /tmp/cchERvVK.s 			page 346


 19456      00
 19457              	.LASF795:
 19458 02a2 64636163 		.ascii	"dcache_minline\000"
 19458      68655F6D 
 19458      696E6C69 
 19458      6E6500
 19459              	.LASF95:
 19460 02b1 5F736967 		.ascii	"_sig_func\000"
 19460      5F66756E 
 19460      6300
 19461              	.LASF844:
 19462 02bb 636F7274 		.ascii	"cortexm_regs_write\000"
 19462      65786D5F 
 19462      72656773 
 19462      5F777269 
 19462      746500
 19463              	.LASF155:
 19464 02ce 705F6E65 		.ascii	"p_newer\000"
 19464      77657200 
 19465              	.LASF880:
 19466 02d6 74635F73 		.ascii	"tc_system\000"
 19466      79737465 
 19466      6D00
 19467              	.LASF561:
 19468 02e0 48505254 		.ascii	"HPRT\000"
 19468      00
 19469              	.LASF839:
 19470 02e5 636F7274 		.ascii	"cortexm_reset\000"
 19470      65786D5F 
 19470      72657365 
 19470      7400
 19471              	.LASF515:
 19472 02f3 4843494E 		.ascii	"HCINT\000"
 19472      5400
 19473              	.LASF793:
 19474 02f9 64656D63 		.ascii	"demcr\000"
 19474      7200
 19475              	.LASF784:
 19476 02ff 636F7274 		.ascii	"cortexm_cmd_list\000"
 19476      65786D5F 
 19476      636D645F 
 19476      6C697374 
 19476      00
 19477              	.LASF281:
 19478 0310 63665F6F 		.ascii	"cf_off_flags\000"
 19478      66665F66 
 19478      6C616773 
 19478      00
 19479              	.LASF73:
 19480 031d 5F6C6F63 		.ascii	"_lock\000"
 19480      6B00
 19481              	.LASF69:
 19482 0323 5F6E6275 		.ascii	"_nbuf\000"
 19482      6600
 19483              	.LASF453:
 19484 0329 5350495F 		.ascii	"SPI_STOP\000"
 19484      53544F50 
ARM GAS  /tmp/cchERvVK.s 			page 347


 19484      00
 19485              	.LASF758:
 19486 0332 74617267 		.ascii	"target_flash\000"
 19486      65745F66 
 19486      6C617368 
 19486      00
 19487              	.LASF127:
 19488 033f 5F756E75 		.ascii	"_unused\000"
 19488      73656400 
 19489              	.LASF339:
 19490 0347 50424461 		.ascii	"PBData\000"
 19490      746100
 19491              	.LASF791:
 19492 034e 68775F62 		.ascii	"hw_breakpoint\000"
 19492      7265616B 
 19492      706F696E 
 19492      7400
 19493              	.LASF847:
 19494 035c 636F7274 		.ascii	"cortexm_halt_resume\000"
 19494      65786D5F 
 19494      68616C74 
 19494      5F726573 
 19494      756D6500 
 19495              	.LASF269:
 19496 0370 63685F73 		.ascii	"ch_size\000"
 19496      697A6500 
 19497              	.LASF638:
 19498 0378 69725F70 		.ascii	"ir_postscan\000"
 19498      6F737473 
 19498      63616E00 
 19499              	.LASF557:
 19500 0384 48505458 		.ascii	"HPTXSTS\000"
 19500      53545300 
 19501              	.LASF332:
 19502 038c 6F747970 		.ascii	"otyper\000"
 19502      657200
 19503              	.LASF909:
 19504 0393 61646976 		.ascii	"adiv5_ap_unref\000"
 19504      355F6170 
 19504      5F756E72 
 19504      656600
 19505              	.LASF323:
 19506 03a2 4F545950 		.ascii	"OTYPER\000"
 19506      455200
 19507              	.LASF457:
 19508 03a9 73706973 		.ascii	"spistate_t\000"
 19508      74617465 
 19508      5F7400
 19509              	.LASF513:
 19510 03b4 48434348 		.ascii	"HCCHAR\000"
 19510      415200
 19511              	.LASF372:
 19512 03bb 4932435F 		.ascii	"I2C_ACTIVE_RX\000"
 19512      41435449 
 19512      56455F52 
 19512      5800
 19513              	.LASF149:
ARM GAS  /tmp/cchERvVK.s 			page 348


 19514 03c9 74687265 		.ascii	"thread_t\000"
 19514      61645F74 
 19514      00
 19515              	.LASF292:
 19516 03d2 656C5F65 		.ascii	"el_events\000"
 19516      76656E74 
 19516      7300
 19517              	.LASF865:
 19518 03dc 72616D5F 		.ascii	"ram_end\000"
 19518      656E6400 
 19519              	.LASF747:
 19520 03e4 66737461 		.ascii	"fstat\000"
 19520      7400
 19521              	.LASF364:
 19522 03ea 736C6565 		.ascii	"sleep_event\000"
 19522      705F6576 
 19522      656E7400 
 19523              	.LASF192:
 19524 03f6 63685F76 		.ascii	"ch_virtual_timers_list\000"
 19524      69727475 
 19524      616C5F74 
 19524      696D6572 
 19524      735F6C69 
 19525              	.LASF318:
 19526 040d 76656374 		.ascii	"vector\000"
 19526      6F7200
 19527              	.LASF539:
 19528 0414 47494E54 		.ascii	"GINTSTS\000"
 19528      53545300 
 19529              	.LASF748:
 19530 041c 67657474 		.ascii	"gettimeofday\000"
 19530      696D656F 
 19530      66646179 
 19530      00
 19531              	.LASF16:
 19532 0429 696E7433 		.ascii	"int32_t\000"
 19532      325F7400 
 19533              	.LASF386:
 19534 0431 636C6F63 		.ascii	"clock_speed\000"
 19534      6B5F7370 
 19534      65656400 
 19535              	.LASF148:
 19536 043d 73797374 		.ascii	"systime_t\000"
 19536      696D655F 
 19536      7400
 19537              	.LASF824:
 19538 0447 626B7074 		.ascii	"bkpt_instr\000"
 19538      5F696E73 
 19538      747200
 19539              	.LASF366:
 19540 0452 43414E44 		.ascii	"CANDriver\000"
 19540      72697665 
 19540      7200
 19541              	.LASF629:
 19542 045c 6D61736B 		.ascii	"mask\000"
 19542      00
 19543              	.LASF105:
ARM GAS  /tmp/cchERvVK.s 			page 349


 19544 0461 5F616464 		.ascii	"_add\000"
 19544      00
 19545              	.LASF231:
 19546 0466 4D304152 		.ascii	"M0AR\000"
 19546      00
 19547              	.LASF520:
 19548 046b 72657376 		.ascii	"resvd1c\000"
 19548      64316300 
 19549              	.LASF804:
 19550 0473 44425F44 		.ascii	"DB_DEMCR\000"
 19550      454D4352 
 19550      00
 19551              	.LASF376:
 19552 047c 69326366 		.ascii	"i2cflags_t\000"
 19552      6C616773 
 19552      5F7400
 19553              	.LASF558:
 19554 0487 4841494E 		.ascii	"HAINT\000"
 19554      5400
 19555              	.LASF226:
 19556 048d 46413152 		.ascii	"FA1R\000"
 19556      00
 19557              	.LASF707:
 19558 0492 74617267 		.ascii	"target_errno\000"
 19558      65745F65 
 19558      72726E6F 
 19558      00
 19559              	.LASF555:
 19560 049f 48464E55 		.ascii	"HFNUM\000"
 19560      4D00
 19561              	.LASF308:
 19562 04a5 716E6F74 		.ascii	"qnotify_t\000"
 19562      6966795F 
 19562      7400
 19563              	.LASF316:
 19564 04af 69736869 		.ascii	"ishift\000"
 19564      667400
 19565              	.LASF918:
 19566 04b6 5F5F6275 		.ascii	"__builtin_memset\000"
 19566      696C7469 
 19566      6E5F6D65 
 19566      6D736574 
 19566      00
 19567              	.LASF303:
 19568 04c7 715F746F 		.ascii	"q_top\000"
 19568      7000
 19569              	.LASF62:
 19570 04cd 5F6C6266 		.ascii	"_lbfsize\000"
 19570      73697A65 
 19570      00
 19571              	.LASF506:
 19572 04d6 75645F73 		.ascii	"ud_string\000"
 19572      7472696E 
 19572      6700
 19573              	.LASF389:
 19574 04e0 49324344 		.ascii	"I2CDriver\000"
 19574      72697665 
ARM GAS  /tmp/cchERvVK.s 			page 350


 19574      7200
 19575              	.LASF657:
 19576 04ea 61626F72 		.ascii	"abort\000"
 19576      7400
 19577              	.LASF371:
 19578 04f0 4932435F 		.ascii	"I2C_ACTIVE_TX\000"
 19578      41435449 
 19578      56455F54 
 19578      5800
 19579              	.LASF377:
 19580 04fe 4F504D4F 		.ascii	"OPMODE_I2C\000"
 19580      44455F49 
 19580      324300
 19581              	.LASF567:
 19582 0509 72657376 		.ascii	"resvd80C\000"
 19582      64383043 
 19582      00
 19583              	.LASF616:
 19584 0512 6576656E 		.ascii	"event_cb\000"
 19584      745F6362 
 19584      00
 19585              	.LASF711:
 19586 051b 54415247 		.ascii	"TARGET_EBADF\000"
 19586      45545F45 
 19586      42414446 
 19586      00
 19587              	.LASF534:
 19588 0528 474F5447 		.ascii	"GOTGCTL\000"
 19588      43544C00 
 19589              	.LASF898:
 19590 0530 74617267 		.ascii	"target_new\000"
 19590      65745F6E 
 19590      657700
 19591              	.LASF509:
 19592 053b 75736265 		.ascii	"usbepcallback_t\000"
 19592      7063616C 
 19592      6C626163 
 19592      6B5F7400 
 19593              	.LASF72:
 19594 054b 5F646174 		.ascii	"_data\000"
 19594      6100
 19595              	.LASF200:
 19596 0551 76746C69 		.ascii	"vtlist\000"
 19596      737400
 19597              	.LASF401:
 19598 0558 4943555F 		.ascii	"ICU_READY\000"
 19598      52454144 
 19598      5900
 19599              	.LASF910:
 19600 0562 66726565 		.ascii	"free\000"
 19600      00
 19601              	.LASF236:
 19602 0567 54524953 		.ascii	"TRISE\000"
 19602      4500
 19603              	.LASF573:
 19604 056d 72657376 		.ascii	"resvd824\000"
 19604      64383234 
ARM GAS  /tmp/cchERvVK.s 			page 351


 19604      00
 19605              	.LASF163:
 19606 0576 705F7761 		.ascii	"p_waiting\000"
 19606      6974696E 
 19606      6700
 19607              	.LASF822:
 19608 0580 72656773 		.ascii	"regs\000"
 19608      00
 19609              	.LASF408:
 19610 0585 70636372 		.ascii	"pccrp\000"
 19610      7000
 19611              	.LASF300:
 19612 058b 715F7761 		.ascii	"q_waiting\000"
 19612      6974696E 
 19612      6700
 19613              	.LASF208:
 19614 0595 43414E5F 		.ascii	"CAN_TxMailBox_TypeDef\000"
 19614      54784D61 
 19614      696C426F 
 19614      785F5479 
 19614      70654465 
 19615              	.LASF199:
 19616 05ab 726C6973 		.ascii	"rlist\000"
 19616      7400
 19617              	.LASF171:
 19618 05b1 74687265 		.ascii	"threads_list_t\000"
 19618      6164735F 
 19618      6C697374 
 19618      5F7400
 19619              	.LASF252:
 19620 05c0 746D5F63 		.ascii	"tm_calibration_t\000"
 19620      616C6962 
 19620      72617469 
 19620      6F6E5F74 
 19620      00
 19621              	.LASF309:
 19622 05d1 696E7075 		.ascii	"input_queue_t\000"
 19622      745F7175 
 19622      6575655F 
 19622      7400
 19623              	.LASF128:
 19624 05df 5F5F6C6F 		.ascii	"__lock\000"
 19624      636B00
 19625              	.LASF381:
 19626 05e6 5354445F 		.ascii	"STD_DUTY_CYCLE\000"
 19626      44555459 
 19626      5F435943 
 19626      4C4500
 19627              	.LASF76:
 19628 05f5 5F726565 		.ascii	"_reent\000"
 19628      6E7400
 19629              	.LASF277:
 19630 05fc 63665F6F 		.ascii	"cf_off_older\000"
 19630      66665F6F 
 19630      6C646572 
 19630      00
 19631              	.LASF843:
ARM GAS  /tmp/cchERvVK.s 			page 352


 19632 0609 64657374 		.ascii	"dest\000"
 19632      00
 19633              	.LASF601:
 19634 060e 72787175 		.ascii	"rxqueued\000"
 19634      65756564 
 19634      00
 19635              	.LASF709:
 19636 0617 54415247 		.ascii	"TARGET_ENOENT\000"
 19636      45545F45 
 19636      4E4F454E 
 19636      5400
 19637              	.LASF426:
 19638 0625 69637563 		.ascii	"icuchannel_t\000"
 19638      68616E6E 
 19638      656C5F74 
 19638      00
 19639              	.LASF355:
 19640 0632 63616E73 		.ascii	"canstate_t\000"
 19640      74617465 
 19640      5F7400
 19641              	.LASF228:
 19642 063d 7346696C 		.ascii	"sFilterRegister\000"
 19642      74657252 
 19642      65676973 
 19642      74657200 
 19643              	.LASF97:
 19644 064d 5F5F7366 		.ascii	"__sf\000"
 19644      00
 19645              	.LASF572:
 19646 0652 72657376 		.ascii	"resvd820\000"
 19646      64383230 
 19646      00
 19647              	.LASF57:
 19648 065b 5F626173 		.ascii	"_base\000"
 19648      6500
 19649              	.LASF385:
 19650 0661 6F705F6D 		.ascii	"op_mode\000"
 19650      6F646500 
 19651              	.LASF114:
 19652 0669 5F6D6274 		.ascii	"_mbtowc_state\000"
 19652      6F77635F 
 19652      73746174 
 19652      6500
 19653              	.LASF861:
 19654 0677 696E7661 		.ascii	"invalidate\000"
 19654      6C696461 
 19654      746500
 19655              	.LASF721:
 19656 0682 54415247 		.ascii	"TARGET_ENFILE\000"
 19656      45545F45 
 19656      4E46494C 
 19656      4500
 19657              	.LASF368:
 19658 0690 4932435F 		.ascii	"I2C_UNINIT\000"
 19658      554E494E 
 19658      495400
 19659              	.LASF903:
ARM GAS  /tmp/cchERvVK.s 			page 353


 19660 069b 73746D33 		.ascii	"stm32f4_probe\000"
 19660      3266345F 
 19660      70726F62 
 19660      6500
 19661              	.LASF436:
 19662 06a9 53445F55 		.ascii	"SD_UNINIT\000"
 19662      4E494E49 
 19662      5400
 19663              	.LASF633:
 19664 06b3 64725F70 		.ascii	"dr_prescan\000"
 19664      72657363 
 19664      616E00
 19665              	.LASF811:
 19666 06be 61726763 		.ascii	"argc\000"
 19666      00
 19667              	.LASF674:
 19668 06c3 72656773 		.ascii	"regs_write\000"
 19668      5F777269 
 19668      746500
 19669              	.LASF774:
 19670 06ce 62726561 		.ascii	"breakwatch\000"
 19670      6B776174 
 19670      636800
 19671              	.LASF143:
 19672 06d9 74707269 		.ascii	"tprio_t\000"
 19672      6F5F7400 
 19673              	.LASF576:
 19674 06e1 72657376 		.ascii	"resvd830\000"
 19674      64383330 
 19674      00
 19675              	.LASF632:
 19676 06ea 696E6E65 		.ascii	"innermost_exception\000"
 19676      726D6F73 
 19676      745F6578 
 19676      63657074 
 19676      696F6E00 
 19677              	.LASF38:
 19678 06fe 5F5F746D 		.ascii	"__tm\000"
 19678      00
 19679              	.LASF685:
 19680 0703 666C6173 		.ascii	"flash\000"
 19680      6800
 19681              	.LASF874:
 19682 0709 74617267 		.ascii	"target_mem_read16\000"
 19682      65745F6D 
 19682      656D5F72 
 19682      65616431 
 19682      3600
 19683              	.LASF578:
 19684 071b 72657376 		.ascii	"resvd838\000"
 19684      64383338 
 19684      00
 19685              	.LASF384:
 19686 0724 69326364 		.ascii	"i2cdutycycle_t\000"
 19686      75747963 
 19686      79636C65 
 19686      5F7400
ARM GAS  /tmp/cchERvVK.s 			page 354


 19687              	.LASF826:
 19688 0733 68667372 		.ascii	"hfsr\000"
 19688      00
 19689              	.LASF779:
 19690 0738 6F707461 		.ascii	"optarg\000"
 19690      726700
 19691              	.LASF579:
 19692 073f 72657376 		.ascii	"resvd83C\000"
 19692      64383343 
 19692      00
 19693              	.LASF392:
 19694 0748 74687265 		.ascii	"thread\000"
 19694      616400
 19695              	.LASF575:
 19696 074f 44564255 		.ascii	"DVBUSPULSE\000"
 19696      5350554C 
 19696      534500
 19697              	.LASF474:
 19698 075a 73657475 		.ascii	"setup\000"
 19698      7000
 19699              	.LASF452:
 19700 0760 5350495F 		.ascii	"SPI_UNINIT\000"
 19700      554E494E 
 19700      495400
 19701              	.LASF527:
 19702 076b 44545846 		.ascii	"DTXFSTS\000"
 19702      53545300 
 19703              	.LASF370:
 19704 0773 4932435F 		.ascii	"I2C_READY\000"
 19704      52454144 
 19704      5900
 19705              	.LASF809:
 19706 077d 70666C61 		.ascii	"pflag\000"
 19706      6700
 19707              	.LASF46:
 19708 0783 5F5F746D 		.ascii	"__tm_yday\000"
 19708      5F796461 
 19708      7900
 19709              	.LASF794:
 19710 078d 6861735F 		.ascii	"has_cache\000"
 19710      63616368 
 19710      6500
 19711              	.LASF414:
 19712 0797 43434552 		.ascii	"CCER\000"
 19712      00
 19713              	.LASF243:
 19714 079c 49325350 		.ascii	"I2SPR\000"
 19714      5200
 19715              	.LASF628:
 19716 07a2 74797065 		.ascii	"type\000"
 19716      00
 19717              	.LASF536:
 19718 07a7 47414842 		.ascii	"GAHBCFG\000"
 19718      43464700 
 19719              	.LASF20:
 19720 07af 5F4C4F43 		.ascii	"_LOCK_T\000"
 19720      4B5F5400 
ARM GAS  /tmp/cchERvVK.s 			page 355


 19721              	.LASF745:
 19722 07b7 756E6C69 		.ascii	"unlink\000"
 19722      6E6B00
 19723              	.LASF580:
 19724 07be 72657376 		.ascii	"resvd840\000"
 19724      64383430 
 19724      00
 19725              	.LASF239:
 19726 07c7 43524350 		.ascii	"CRCPR\000"
 19726      5200
 19727              	.LASF686:
 19728 07cd 64726976 		.ascii	"driver\000"
 19728      657200
 19729              	.LASF761:
 19730 07d4 646F6E65 		.ascii	"done\000"
 19730      00
 19731              	.LASF4:
 19732 07d9 5F5F7569 		.ascii	"__uint16_t\000"
 19732      6E743136 
 19732      5F7400
 19733              	.LASF595:
 19734 07e4 74787175 		.ascii	"txqueued\000"
 19734      65756564 
 19734      00
 19735              	.LASF165:
 19736 07ed 705F6D73 		.ascii	"p_msg\000"
 19736      6700
 19737              	.LASF106:
 19738 07f3 5F756E75 		.ascii	"_unused_rand\000"
 19738      7365645F 
 19738      72616E64 
 19738      00
 19739              	.LASF542:
 19740 0800 47525853 		.ascii	"GRXSTSP\000"
 19740      54535000 
 19741              	.LASF541:
 19742 0808 47525853 		.ascii	"GRXSTSR\000"
 19742      54535200 
 19743              	.LASF232:
 19744 0810 4D314152 		.ascii	"M1AR\000"
 19744      00
 19745              	.LASF481:
 19746 0815 77616974 		.ascii	"wait\000"
 19746      00
 19747              	.LASF233:
 19748 081a 444D415F 		.ascii	"DMA_Stream_TypeDef\000"
 19748      53747265 
 19748      616D5F54 
 19748      79706544 
 19748      656600
 19749              	.LASF488:
 19750 082d 5553425F 		.ascii	"USB_ACTIVE\000"
 19750      41435449 
 19750      564500
 19751              	.LASF893:
 19752 0838 706C6174 		.ascii	"platform_delay\000"
 19752      666F726D 
ARM GAS  /tmp/cchERvVK.s 			page 356


 19752      5F64656C 
 19752      617900
 19753              	.LASF890:
 19754 0847 74617267 		.ascii	"target_mem_read32\000"
 19754      65745F6D 
 19754      656D5F72 
 19754      65616433 
 19754      3200
 19755              	.LASF836:
 19756 0859 77617463 		.ascii	"watch\000"
 19756      6800
 19757              	.LASF641:
 19758 085f 63757272 		.ascii	"current_ir\000"
 19758      656E745F 
 19758      697200
 19759              	.LASF783:
 19760 086a 6F707472 		.ascii	"optreset\000"
 19760      65736574 
 19760      00
 19761              	.LASF739:
 19762 0873 64657374 		.ascii	"destroy_callback\000"
 19762      726F795F 
 19762      63616C6C 
 19762      6261636B 
 19762      00
 19763              	.LASF529:
 19764 0884 73746D33 		.ascii	"stm32_otg_in_ep_t\000"
 19764      325F6F74 
 19764      675F696E 
 19764      5F65705F 
 19764      7400
 19765              	.LASF603:
 19766 0896 7278636E 		.ascii	"rxcnt\000"
 19766      7400
 19767              	.LASF394:
 19768 089c 7278646D 		.ascii	"rxdmamode\000"
 19768      616D6F64 
 19768      6500
 19769              	.LASF88:
 19770 08a6 5F726573 		.ascii	"_result_k\000"
 19770      756C745F 
 19770      6B00
 19771              	.LASF427:
 19772 08b0 6D6F6465 		.ascii	"mode\000"
 19772      00
 19773              	.LASF80:
 19774 08b5 5F737464 		.ascii	"_stderr\000"
 19774      65727200 
 19775              	.LASF87:
 19776 08bd 5F726573 		.ascii	"_result\000"
 19776      756C7400 
 19777              	.LASF420:
 19778 08c5 4943555F 		.ascii	"ICU_INPUT_ACTIVE_HIGH\000"
 19778      494E5055 
 19778      545F4143 
 19778      54495645 
 19778      5F484947 
ARM GAS  /tmp/cchERvVK.s 			page 357


 19779              	.LASF764:
 19780 08db 6275665F 		.ascii	"buf_addr\000"
 19780      61646472 
 19780      00
 19781              	.LASF50:
 19782 08e4 5F64736F 		.ascii	"_dso_handle\000"
 19782      5F68616E 
 19782      646C6500 
 19783              	.LASF462:
 19784 08f0 73737061 		.ascii	"sspad\000"
 19784      6400
 19785              	.LASF395:
 19786 08f6 7478646D 		.ascii	"txdmamode\000"
 19786      616D6F64 
 19786      6500
 19787              	.LASF133:
 19788 0900 5F5F676E 		.ascii	"__gnuc_va_list\000"
 19788      75635F76 
 19788      615F6C69 
 19788      737400
 19789              	.LASF796:
 19790 090f 636F7274 		.ascii	"cortexm_driver_str\000"
 19790      65786D5F 
 19790      64726976 
 19790      65725F73 
 19790      747200
 19791              	.LASF45:
 19792 0922 5F5F746D 		.ascii	"__tm_wday\000"
 19792      5F776461 
 19792      7900
 19793              	.LASF47:
 19794 092c 5F5F746D 		.ascii	"__tm_isdst\000"
 19794      5F697364 
 19794      737400
 19795              	.LASF691:
 19796 0937 74617267 		.ascii	"target_addr\000"
 19796      65745F61 
 19796      64647200 
 19797              	.LASF712:
 19798 0943 54415247 		.ascii	"TARGET_EACCES\000"
 19798      45545F45 
 19798      41434345 
 19798      5300
 19799              	.LASF248:
 19800 0951 73746B61 		.ascii	"stkalign_t\000"
 19800      6C69676E 
 19800      5F7400
 19801              	.LASF588:
 19802 095c 72785F66 		.ascii	"rx_fifo_size\000"
 19802      69666F5F 
 19802      73697A65 
 19802      00
 19803              	.LASF684:
 19804 0969 74617267 		.ascii	"target_storage\000"
 19804      65745F73 
 19804      746F7261 
 19804      676500
ARM GAS  /tmp/cchERvVK.s 			page 358


 19805              	.LASF678:
 19806 0978 68616C74 		.ascii	"halt_poll\000"
 19806      5F706F6C 
 19806      6C00
 19807              	.LASF862:
 19808 0982 63616368 		.ascii	"cache_reg\000"
 19808      655F7265 
 19808      6700
 19809              	.LASF778:
 19810 098c 656E7669 		.ascii	"environ\000"
 19810      726F6E00 
 19811              	.LASF768:
 19812 0994 636F6D6D 		.ascii	"command_s\000"
 19812      616E645F 
 19812      7300
 19813              	.LASF365:
 19814 099e 77616B65 		.ascii	"wakeup_event\000"
 19814      75705F65 
 19814      76656E74 
 19814      00
 19815              	.LASF187:
 19816 09ab 76745F70 		.ascii	"vt_prev\000"
 19816      72657600 
 19817              	.LASF460:
 19818 09b3 656E645F 		.ascii	"end_cb\000"
 19818      636200
 19819              	.LASF606:
 19820 09ba 73657475 		.ascii	"setup_cb\000"
 19820      705F6362 
 19820      00
 19821              	.LASF1:
 19822 09c3 756E7369 		.ascii	"unsigned char\000"
 19822      676E6564 
 19822      20636861 
 19822      7200
 19823              	.LASF79:
 19824 09d1 5F737464 		.ascii	"_stdout\000"
 19824      6F757400 
 19825              	.LASF289:
 19826 09d9 6576656E 		.ascii	"event_listener\000"
 19826      745F6C69 
 19826      7374656E 
 19826      657200
 19827              	.LASF359:
 19828 09e8 74787175 		.ascii	"txqueue\000"
 19828      65756500 
 19829              	.LASF262:
 19830 09f0 735F636E 		.ascii	"s_cnt\000"
 19830      7400
 19831              	.LASF175:
 19832 09f6 72656164 		.ascii	"ready_list_t\000"
 19832      795F6C69 
 19832      73745F74 
 19832      00
 19833              	.LASF150:
 19834 0a03 63685F74 		.ascii	"ch_thread\000"
 19834      68726561 
ARM GAS  /tmp/cchERvVK.s 			page 359


 19834      6400
 19835              	.LASF379:
 19836 0a0d 4F504D4F 		.ascii	"OPMODE_SMBUS_HOST\000"
 19836      44455F53 
 19836      4D425553 
 19836      5F484F53 
 19836      5400
 19837              	.LASF645:
 19838 0a1f 414C4947 		.ascii	"ALIGN_BYTE\000"
 19838      4E5F4259 
 19838      544500
 19839              	.LASF885:
 19840 0a2a 74635F69 		.ascii	"tc_isatty\000"
 19840      73617474 
 19840      7900
 19841              	.LASF121:
 19842 0a34 5F6D6273 		.ascii	"_mbsrtowcs_state\000"
 19842      72746F77 
 19842      63735F73 
 19842      74617465 
 19842      00
 19843              	.LASF36:
 19844 0a45 5F776473 		.ascii	"_wds\000"
 19844      00
 19845              	.LASF659:
 19846 0a4a 41444976 		.ascii	"ADIv5_AP_s\000"
 19846      355F4150 
 19846      5F7300
 19847              	.LASF662:
 19848 0a55 41444976 		.ascii	"ADIv5_AP_t\000"
 19848      355F4150 
 19848      5F7400
 19849              	.LASF311:
 19850 0a60 666C6F61 		.ascii	"float\000"
 19850      7400
 19851              	.LASF725:
 19852 0a66 54415247 		.ascii	"TARGET_EROFS\000"
 19852      45545F45 
 19852      524F4653 
 19852      00
 19853              	.LASF868:
 19854 0a73 61646976 		.ascii	"adiv5_dp_error\000"
 19854      355F6470 
 19854      5F657272 
 19854      6F7200
 19855              	.LASF631:
 19856 0a82 6F757465 		.ascii	"outer\000"
 19856      7200
 19857              	.LASF722:
 19858 0a88 54415247 		.ascii	"TARGET_EFBIG\000"
 19858      45545F45 
 19858      46424947 
 19858      00
 19859              	.LASF354:
 19860 0a95 43414E5F 		.ascii	"CAN_SLEEP\000"
 19860      534C4545 
 19860      5000
ARM GAS  /tmp/cchERvVK.s 			page 360


 19861              	.LASF916:
 19862 0a9f 636F7274 		.ascii	"cortexm_ap\000"
 19862      65786D5F 
 19862      617000
 19863              	.LASF749:
 19864 0aaa 69736174 		.ascii	"isatty\000"
 19864      747900
 19865              	.LASF58:
 19866 0ab1 5F73697A 		.ascii	"_size\000"
 19866      6500
 19867              	.LASF194:
 19868 0ab7 73797374 		.ascii	"system_debug_t\000"
 19868      656D5F64 
 19868      65627567 
 19868      5F7400
 19869              	.LASF837:
 19870 0ac6 64667372 		.ascii	"dfsr\000"
 19870      00
 19871              	.LASF411:
 19872 0acb 44494552 		.ascii	"DIER\000"
 19872      00
 19873              	.LASF670:
 19874 0ad0 6D656D5F 		.ascii	"mem_write\000"
 19874      77726974 
 19874      6500
 19875              	.LASF663:
 19876 0ada 74617267 		.ascii	"target\000"
 19876      657400
 19877              	.LASF154:
 19878 0ae1 705F6374 		.ascii	"p_ctx\000"
 19878      7800
 19879              	.LASF190:
 19880 0ae7 76745F70 		.ascii	"vt_par\000"
 19880      617200
 19881              	.LASF683:
 19882 0aee 74617267 		.ascii	"target_options\000"
 19882      65745F6F 
 19882      7074696F 
 19882      6E7300
 19883              	.LASF873:
 19884 0afd 74617267 		.ascii	"target_check_error\000"
 19884      65745F63 
 19884      6865636B 
 19884      5F657272 
 19884      6F7200
 19885              	.LASF753:
 19886 0b10 74617267 		.ascii	"target_list\000"
 19886      65745F6C 
 19886      69737400 
 19887              	.LASF65:
 19888 0b1c 5F777269 		.ascii	"_write\000"
 19888      746500
 19889              	.LASF241:
 19890 0b23 54584352 		.ascii	"TXCRCR\000"
 19890      435200
 19891              	.LASF787:
 19892 0b2a 6F6E5F62 		.ascii	"on_bkpt\000"
ARM GAS  /tmp/cchERvVK.s 			page 361


 19892      6B707400 
 19893              	.LASF383:
 19894 0b32 46415354 		.ascii	"FAST_DUTY_CYCLE_16_9\000"
 19894      5F445554 
 19894      595F4359 
 19894      434C455F 
 19894      31365F39 
 19895              	.LASF431:
 19896 0b47 6F766572 		.ascii	"overflow_cb\000"
 19896      666C6F77 
 19896      5F636200 
 19897              	.LASF18:
 19898 0b53 75696E74 		.ascii	"uint64_t\000"
 19898      36345F74 
 19898      00
 19899              	.LASF22:
 19900 0b5c 5F5F6D6F 		.ascii	"__mode_t\000"
 19900      64655F74 
 19900      00
 19901              	.LASF286:
 19902 0b65 63685F64 		.ascii	"ch_debug\000"
 19902      65627567 
 19902      00
 19903              	.LASF664:
 19904 0b6e 74617267 		.ascii	"target_s\000"
 19904      65745F73 
 19904      00
 19905              	.LASF220:
 19906 0b77 464D3152 		.ascii	"FM1R\000"
 19906      00
 19907              	.LASF850:
 19908 0b7c 636F7274 		.ascii	"cortexm_probe\000"
 19908      65786D5F 
 19908      70726F62 
 19908      6500
 19909              	.LASF347:
 19910 0b8a 50414C43 		.ascii	"PALConfig\000"
 19910      6F6E6669 
 19910      6700
 19911              	.LASF624:
 19912 0b94 706C6174 		.ascii	"platform_swclk_port\000"
 19912      666F726D 
 19912      5F737763 
 19912      6C6B5F70 
 19912      6F727400 
 19913              	.LASF510:
 19914 0ba8 75736265 		.ascii	"usbeventcb_t\000"
 19914      76656E74 
 19914      63625F74 
 19914      00
 19915              	.LASF646:
 19916 0bb5 414C4947 		.ascii	"ALIGN_HALFWORD\000"
 19916      4E5F4841 
 19916      4C46574F 
 19916      524400
 19917              	.LASF44:
 19918 0bc4 5F5F746D 		.ascii	"__tm_year\000"
ARM GAS  /tmp/cchERvVK.s 			page 362


 19918      5F796561 
 19918      7200
 19919              	.LASF288:
 19920 0bce 6576656E 		.ascii	"event_listener_t\000"
 19920      745F6C69 
 19920      7374656E 
 19920      65725F74 
 19920      00
 19921              	.LASF828:
 19922 0bdf 73746163 		.ascii	"stack\000"
 19922      6B00
 19923              	.LASF589:
 19924 0be5 6F74675F 		.ascii	"otg_ram_size\000"
 19924      72616D5F 
 19924      73697A65 
 19924      00
 19925              	.LASF881:
 19926 0bf2 74617267 		.ascii	"target_regs_write\000"
 19926      65745F72 
 19926      6567735F 
 19926      77726974 
 19926      6500
 19927              	.LASF815:
 19928 0c04 636F7274 		.ascii	"cortexm_check_watch\000"
 19928      65786D5F 
 19928      63686563 
 19928      6B5F7761 
 19928      74636800 
 19929              	.LASF591:
 19930 0c18 73746D33 		.ascii	"stm32_otg_params_t\000"
 19930      325F6F74 
 19930      675F7061 
 19930      72616D73 
 19930      5F7400
 19931              	.LASF583:
 19932 0c2b 72657376 		.ascii	"resvdD00\000"
 19932      64443030 
 19932      00
 19933              	.LASF240:
 19934 0c34 52584352 		.ascii	"RXCRCR\000"
 19934      435200
 19935              	.LASF600:
 19936 0c3b 72786275 		.ascii	"rxbuf\000"
 19936      6600
 19937              	.LASF104:
 19938 0c41 5F6D756C 		.ascii	"_mult\000"
 19938      7400
 19939              	.LASF263:
 19940 0c47 63685F6D 		.ascii	"ch_mutex\000"
 19940      75746578 
 19940      00
 19941              	.LASF741:
 19942 0c50 6F70656E 		.ascii	"open\000"
 19942      00
 19943              	.LASF362:
 19944 0c55 7478656D 		.ascii	"txempty_event\000"
 19944      7074795F 
ARM GAS  /tmp/cchERvVK.s 			page 363


 19944      6576656E 
 19944      7400
 19945              	.LASF344:
 19946 0c63 50474461 		.ascii	"PGData\000"
 19946      746100
 19947              	.LASF913:
 19948 0c6a 474E5520 		.ascii	"GNU C99 7.3.1 20180622 (release) [ARM/embedded-7-br"
 19948      43393920 
 19948      372E332E 
 19948      31203230 
 19948      31383036 
 19949 0c9d 616E6368 		.ascii	"anch revision 261907] -mcpu=cortex-m4 -mfloat-abi=h"
 19949      20726576 
 19949      6973696F 
 19949      6E203236 
 19949      31393037 
 19950 0cd0 61726420 		.ascii	"ard -mfpu=fpv4-sp-d16 -mno-thumb-interwork -mthumb "
 19950      2D6D6670 
 19950      753D6670 
 19950      76342D73 
 19950      702D6431 
 19951 0d03 2D676764 		.ascii	"-ggdb -O2 -std=gnu99 -fomit-frame-pointer -falign-f"
 19951      62202D4F 
 19951      32202D73 
 19951      74643D67 
 19951      6E753939 
 19952 0d36 756E6374 		.ascii	"unctions=16 -ffunction-sections -fdata-sections -fn"
 19952      696F6E73 
 19952      3D313620 
 19952      2D666675 
 19952      6E637469 
 19953 0d69 6F2D636F 		.ascii	"o-common -fsingle-precision-constant\000"
 19953      6D6D6F6E 
 19953      202D6673 
 19953      696E676C 
 19953      652D7072 
 19954              	.LASF119:
 19955 0d8e 5F6D6272 		.ascii	"_mbrlen_state\000"
 19955      6C656E5F 
 19955      73746174 
 19955      6500
 19956              	.LASF626:
 19957 0d9c 6A6D705F 		.ascii	"jmp_buf\000"
 19957      62756600 
 19958              	.LASF643:
 19959 0da4 6A746167 		.ascii	"jtag_devs\000"
 19959      5F646576 
 19959      7300
 19960              	.LASF867:
 19961 0dae 76616C75 		.ascii	"value\000"
 19961      6500
 19962              	.LASF276:
 19963 0db4 63665F6F 		.ascii	"cf_off_newer\000"
 19963      66665F6E 
 19963      65776572 
 19963      00
 19964              	.LASF698:
ARM GAS  /tmp/cchERvVK.s 			page 364


 19965 0dc1 54415247 		.ascii	"TARGET_HALT_BREAKPOINT\000"
 19965      45545F48 
 19965      414C545F 
 19965      42524541 
 19965      4B504F49 
 19966              	.LASF568:
 19967 0dd8 44494550 		.ascii	"DIEPMSK\000"
 19967      4D534B00 
 19968              	.LASF535:
 19969 0de0 474F5447 		.ascii	"GOTGINT\000"
 19969      494E5400 
 19970              	.LASF718:
 19971 0de8 54415247 		.ascii	"TARGET_EISDIR\000"
 19971      45545F45 
 19971      49534449 
 19971      5200
 19972              	.LASF608:
 19973 0df6 6F75745F 		.ascii	"out_cb\000"
 19973      636200
 19974              	.LASF559:
 19975 0dfd 4841494E 		.ascii	"HAINTMSK\000"
 19975      544D534B 
 19975      00
 19976              	.LASF469:
 19977 0e06 6F75745F 		.ascii	"out_params\000"
 19977      70617261 
 19977      6D7300
 19978              	.LASF136:
 19979 0e11 76615F6C 		.ascii	"va_list\000"
 19979      69737400 
 19980              	.LASF78:
 19981 0e19 5F737464 		.ascii	"_stdin\000"
 19981      696E00
 19982              	.LASF126:
 19983 0e20 5F6E6D61 		.ascii	"_nmalloc\000"
 19983      6C6C6F63 
 19983      00
 19984              	.LASF433:
 19985 0e29 64696572 		.ascii	"dier\000"
 19985      00
 19986              	.LASF556:
 19987 0e2e 72657376 		.ascii	"resvd40C\000"
 19987      64343043 
 19987      00
 19988              	.LASF884:
 19989 0e37 74635F6C 		.ascii	"tc_lseek\000"
 19989      7365656B 
 19989      00
 19990              	.LASF888:
 19991 0e40 74635F63 		.ascii	"tc_close\000"
 19991      6C6F7365 
 19991      00
 19992              	.LASF697:
 19993 0e49 54415247 		.ascii	"TARGET_HALT_STEPPING\000"
 19993      45545F48 
 19993      414C545F 
 19993      53544550 
ARM GAS  /tmp/cchERvVK.s 			page 365


 19993      50494E47 
 19994              	.LASF184:
 19995 0e5e 76697274 		.ascii	"virtual_timer_t\000"
 19995      75616C5F 
 19995      74696D65 
 19995      725F7400 
 19996              	.LASF179:
 19997 0e6e 725F6374 		.ascii	"r_ctx\000"
 19997      7800
 19998              	.LASF186:
 19999 0e74 76745F6E 		.ascii	"vt_next\000"
 19999      65787400 
 20000              	.LASF714:
 20001 0e7c 54415247 		.ascii	"TARGET_EBUSY\000"
 20001      45545F45 
 20001      42555359 
 20001      00
 20002              	.LASF138:
 20003 0e89 7274636E 		.ascii	"rtcnt_t\000"
 20003      745F7400 
 20004              	.LASF391:
 20005 0e91 6D757465 		.ascii	"mutex\000"
 20005      7800
 20006              	.LASF775:
 20007 0e97 73697A65 		.ascii	"size\000"
 20007      00
 20008              	.LASF872:
 20009 0e9c 74635F70 		.ascii	"tc_printf\000"
 20009      72696E74 
 20009      6600
 20010              	.LASF807:
 20011 0ea6 73797363 		.ascii	"syscall\000"
 20011      616C6C00 
 20012              	.LASF840:
 20013 0eae 636F7274 		.ascii	"cortexm_pc_read\000"
 20013      65786D5F 
 20013      70635F72 
 20013      65616400 
 20014              	.LASF480:
 20015 0ebe 74787065 		.ascii	"txpending\000"
 20015      6E64696E 
 20015      6700
 20016              	.LASF406:
 20017 0ec8 636C6F63 		.ascii	"clock\000"
 20017      6B00
 20018              	.LASF814:
 20019 0ece 636F7274 		.ascii	"cortexm_hostio_request\000"
 20019      65786D5F 
 20019      686F7374 
 20019      696F5F72 
 20019      65717565 
 20020              	.LASF321:
 20021 0ee5 636C6561 		.ascii	"clear\000"
 20021      7200
 20022              	.LASF418:
 20023 0eeb 43435852 		.ascii	"CCXR\000"
 20023      00
ARM GAS  /tmp/cchERvVK.s 			page 366


 20024              	.LASF229:
 20025 0ef0 43414E5F 		.ascii	"CAN_TypeDef\000"
 20025      54797065 
 20025      44656600 
 20026              	.LASF21:
 20027 0efc 5F6F6666 		.ascii	"_off_t\000"
 20027      5F7400
 20028              	.LASF523:
 20029 0f03 72657376 		.ascii	"resvd4\000"
 20029      643400
 20030              	.LASF777:
 20031 0f0a 636F7274 		.ascii	"cortexm_wait_timeout\000"
 20031      65786D5F 
 20031      77616974 
 20031      5F74696D 
 20031      656F7574 
 20032              	.LASF437:
 20033 0f1f 53445F53 		.ascii	"SD_STOP\000"
 20033      544F5000 
 20034              	.LASF634:
 20035 0f27 6A746167 		.ascii	"jtag_dev_s\000"
 20035      5F646576 
 20035      5F7300
 20036              	.LASF514:
 20037 0f32 72657376 		.ascii	"resvd8\000"
 20037      643800
 20038              	.LASF19:
 20039 0f39 73697A65 		.ascii	"size_t\000"
 20039      5F7400
 20040              	.LASF109:
 20041 0f40 5F6C6F63 		.ascii	"_localtime_buf\000"
 20041      616C7469 
 20041      6D655F62 
 20041      756600
 20042              	.LASF581:
 20043 0f4f 72657376 		.ascii	"resvd880\000"
 20043      64383830 
 20043      00
 20044              	.LASF27:
 20045 0f58 5F5F636F 		.ascii	"__count\000"
 20045      756E7400 
 20046              	.LASF14:
 20047 0f60 75696E74 		.ascii	"uint8_t\000"
 20047      385F7400 
 20048              	.LASF518:
 20049 0f68 72657376 		.ascii	"resvd14\000"
 20049      64313400 
 20050              	.LASF350:
 20051 0f70 43414E5F 		.ascii	"CAN_UNINIT\000"
 20051      554E494E 
 20051      495400
 20052              	.LASF519:
 20053 0f7b 72657376 		.ascii	"resvd18\000"
 20053      64313800 
 20054              	.LASF181:
 20055 0f83 725F6F6C 		.ascii	"r_older\000"
 20055      64657200 
ARM GAS  /tmp/cchERvVK.s 			page 367


 20056              	.LASF152:
 20057 0f8b 705F7072 		.ascii	"p_prev\000"
 20057      657600
 20058              	.LASF278:
 20059 0f92 63665F6F 		.ascii	"cf_off_name\000"
 20059      66665F6E 
 20059      616D6500 
 20060              	.LASF577:
 20061 0f9e 44494550 		.ascii	"DIEPEMPMSK\000"
 20061      454D504D 
 20061      534B00
 20062              	.LASF522:
 20063 0fa9 44494550 		.ascii	"DIEPCTL\000"
 20063      43544C00 
 20064              	.LASF294:
 20065 0fb1 656C5F77 		.ascii	"el_wflags\000"
 20065      666C6167 
 20065      7300
 20066              	.LASF478:
 20067 0fbb 6F746770 		.ascii	"otgparams\000"
 20067      6172616D 
 20067      7300
 20068              	.LASF254:
 20069 0fc5 65786974 		.ascii	"exitcode\000"
 20069      636F6465 
 20069      00
 20070              	.LASF341:
 20071 0fce 50444461 		.ascii	"PDData\000"
 20071      746100
 20072              	.LASF92:
 20073 0fd5 5F637674 		.ascii	"_cvtbuf\000"
 20073      62756600 
 20074              	.LASF612:
 20075 0fdd 6F75745F 		.ascii	"out_state\000"
 20075      73746174 
 20075      6500
 20076              	.LASF298:
 20077 0fe7 696F5F71 		.ascii	"io_queue_t\000"
 20077      75657565 
 20077      5F7400
 20078              	.LASF668:
 20079 0ff2 63686563 		.ascii	"check_error\000"
 20079      6B5F6572 
 20079      726F7200 
 20080              	.LASF647:
 20081 0ffe 414C4947 		.ascii	"ALIGN_WORD\000"
 20081      4E5F574F 
 20081      524400
 20082              	.LASF369:
 20083 1009 4932435F 		.ascii	"I2C_STOP\000"
 20083      53544F50 
 20083      00
 20084              	.LASF393:
 20085 1012 61646472 		.ascii	"addr\000"
 20085      00
 20086              	.LASF214:
 20087 1017 52463052 		.ascii	"RF0R\000"
ARM GAS  /tmp/cchERvVK.s 			page 368


 20087      00
 20088              	.LASF363:
 20089 101c 6572726F 		.ascii	"error_event\000"
 20089      725F6576 
 20089      656E7400 
 20090              	.LASF245:
 20091 1028 47545052 		.ascii	"GTPR\000"
 20091      00
 20092              	.LASF738:
 20093 102d 74617267 		.ascii	"target_controller\000"
 20093      65745F63 
 20093      6F6E7472 
 20093      6F6C6C65 
 20093      7200
 20094              	.LASF324:
 20095 103f 4F535045 		.ascii	"OSPEEDR\000"
 20095      45445200 
 20096              	.LASF546:
 20097 1047 72657376 		.ascii	"resvd30\000"
 20097      64333000 
 20098              	.LASF26:
 20099 104f 5F5F7763 		.ascii	"__wchb\000"
 20099      686200
 20100              	.LASF120:
 20101 1056 5F6D6272 		.ascii	"_mbrtowc_state\000"
 20101      746F7763 
 20101      5F737461 
 20101      746500
 20102              	.LASF435:
 20103 1065 49435544 		.ascii	"ICUD4\000"
 20103      3400
 20104              	.LASF41:
 20105 106b 5F5F746D 		.ascii	"__tm_hour\000"
 20105      5F686F75 
 20105      7200
 20106              	.LASF445:
 20107 1075 53657269 		.ascii	"SerialDriverVMT\000"
 20107      616C4472 
 20107      69766572 
 20107      564D5400 
 20108              	.LASF496:
 20109 1085 5553425F 		.ascii	"USB_EP0_ERROR\000"
 20109      4550305F 
 20109      4552524F 
 20109      5200
 20110              	.LASF24:
 20111 1093 77696E74 		.ascii	"wint_t\000"
 20111      5F7400
 20112              	.LASF93:
 20113 109a 5F6E6577 		.ascii	"_new\000"
 20113      00
 20114              	.LASF585:
 20115 109f 72657376 		.ascii	"resvdE04\000"
 20115      64453034 
 20115      00
 20116              	.LASF590:
 20117 10a8 6E756D5F 		.ascii	"num_endpoints\000"
ARM GAS  /tmp/cchERvVK.s 			page 369


 20117      656E6470 
 20117      6F696E74 
 20117      7300
 20118              	.LASF732:
 20119 10b6 54415247 		.ascii	"TARGET_O_CREAT\000"
 20119      45545F4F 
 20119      5F435245 
 20119      415400
 20120              	.LASF598:
 20121 10c5 746F7473 		.ascii	"totsize\000"
 20121      697A6500 
 20122              	.LASF100:
 20123 10cd 5F6E696F 		.ascii	"_niobs\000"
 20123      627300
 20124              	.LASF279:
 20125 10d4 63665F6F 		.ascii	"cf_off_stklimit\000"
 20125      66665F73 
 20125      746B6C69 
 20125      6D697400 
 20126              	.LASF512:
 20127 10e4 75736267 		.ascii	"usbgetdescriptor_t\000"
 20127      65746465 
 20127      73637269 
 20127      70746F72 
 20127      5F7400
 20128              	.LASF729:
 20129 10f7 54415247 		.ascii	"TARGET_O_WRONLY\000"
 20129      45545F4F 
 20129      5F57524F 
 20129      4E4C5900 
 20130              	.LASF182:
 20131 1107 725F6375 		.ascii	"r_current\000"
 20131      7272656E 
 20131      7400
 20132              	.LASF77:
 20133 1111 5F657272 		.ascii	"_errno\000"
 20133      6E6F00
 20134              	.LASF491:
 20135 1118 5553425F 		.ascii	"USB_EP0_TX\000"
 20135      4550305F 
 20135      545800
 20136              	.LASF470:
 20137 1123 65703073 		.ascii	"ep0state\000"
 20137      74617465 
 20137      00
 20138              	.LASF869:
 20139 112c 61646976 		.ascii	"adiv5_dp_read\000"
 20139      355F6470 
 20139      5F726561 
 20139      6400
 20140              	.LASF42:
 20141 113a 5F5F746D 		.ascii	"__tm_mday\000"
 20141      5F6D6461 
 20141      7900
 20142              	.LASF315:
 20143 1144 69666372 		.ascii	"ifcr\000"
 20143      00
ARM GAS  /tmp/cchERvVK.s 			page 370


 20144              	.LASF610:
 20145 1149 6F75745F 		.ascii	"out_maxsize\000"
 20145      6D617873 
 20145      697A6500 
 20146              	.LASF785:
 20147 1155 636F7274 		.ascii	"cortexm_priv\000"
 20147      65786D5F 
 20147      70726976 
 20147      00
 20148              	.LASF330:
 20149 1162 73746D33 		.ascii	"stm32_gpio_t\000"
 20149      325F6770 
 20149      696F5F74 
 20149      00
 20150              	.LASF253:
 20151 116f 7264796D 		.ascii	"rdymsg\000"
 20151      736700
 20152              	.LASF49:
 20153 1176 5F666E61 		.ascii	"_fnargs\000"
 20153      72677300 
 20154              	.LASF205:
 20155 117e 54445452 		.ascii	"TDTR\000"
 20155      00
 20156              	.LASF665:
 20157 1183 61747461 		.ascii	"attached\000"
 20157      63686564 
 20157      00
 20158              	.LASF213:
 20159 118c 43414E5F 		.ascii	"CAN_FilterRegister_TypeDef\000"
 20159      46696C74 
 20159      65725265 
 20159      67697374 
 20159      65725F54 
 20160              	.LASF699:
 20161 11a7 54415247 		.ascii	"TARGET_HALT_WATCHPOINT\000"
 20161      45545F48 
 20161      414C545F 
 20161      57415443 
 20161      48504F49 
 20162              	.LASF549:
 20163 11be 72657376 		.ascii	"resvd58\000"
 20163      64353800 
 20164              	.LASF820:
 20165 11c6 6477745F 		.ascii	"dwt_mask\000"
 20165      6D61736B 
 20165      00
 20166              	.LASF599:
 20167 11cf 55534249 		.ascii	"USBInEndpointState\000"
 20167      6E456E64 
 20167      706F696E 
 20167      74537461 
 20167      746500
 20168              	.LASF153:
 20169 11e2 705F7072 		.ascii	"p_prio\000"
 20169      696F00
 20170              	.LASF713:
 20171 11e9 54415247 		.ascii	"TARGET_EFAULT\000"
ARM GAS  /tmp/cchERvVK.s 			page 371


 20171      45545F45 
 20171      4641554C 
 20171      5400
 20172              	.LASF299:
 20173 11f7 696F5F71 		.ascii	"io_queue\000"
 20173      75657565 
 20173      00
 20174              	.LASF690:
 20175 1200 70726976 		.ascii	"priv_free\000"
 20175      5F667265 
 20175      6500
 20176              	.LASF338:
 20177 120a 50414461 		.ascii	"PAData\000"
 20177      746100
 20178              	.LASF11:
 20179 1211 5F5F7569 		.ascii	"__uint64_t\000"
 20179      6E743634 
 20179      5F7400
 20180              	.LASF33:
 20181 121c 5F6E6578 		.ascii	"_next\000"
 20181      7400
 20182              	.LASF806:
 20183 1222 70617261 		.ascii	"params\000"
 20183      6D7300
 20184              	.LASF495:
 20185 1229 5553425F 		.ascii	"USB_EP0_SENDING_STS\000"
 20185      4550305F 
 20185      53454E44 
 20185      494E475F 
 20185      53545300 
 20186              	.LASF117:
 20187 123d 5F736967 		.ascii	"_signal_buf\000"
 20187      6E616C5F 
 20187      62756600 
 20188              	.LASF702:
 20189 1249 54415247 		.ascii	"TARGET_BREAK_SOFT\000"
 20189      45545F42 
 20189      5245414B 
 20189      5F534F46 
 20189      5400
 20190              	.LASF430:
 20191 125b 70657269 		.ascii	"period_cb\000"
 20191      6F645F63 
 20191      6200
 20192              	.LASF374:
 20193 1265 69326373 		.ascii	"i2cstate_t\000"
 20193      74617465 
 20193      5F7400
 20194              	.LASF63:
 20195 1270 5F636F6F 		.ascii	"_cookie\000"
 20195      6B696500 
 20196              	.LASF653:
 20197 1278 74617267 		.ascii	"targetid\000"
 20197      65746964 
 20197      00
 20198              	.LASF497:
 20199 1281 75736265 		.ascii	"usbep0state_t\000"
ARM GAS  /tmp/cchERvVK.s 			page 372


 20199      70307374 
 20199      6174655F 
 20199      7400
 20200              	.LASF687:
 20201 128f 636F6D6D 		.ascii	"commands\000"
 20201      616E6473 
 20201      00
 20202              	.LASF217:
 20203 1298 7354784D 		.ascii	"sTxMailBox\000"
 20203      61696C42 
 20203      6F7800
 20204              	.LASF455:
 20205 12a3 5350495F 		.ascii	"SPI_ACTIVE\000"
 20205      41435449 
 20205      564500
 20206              	.LASF302:
 20207 12ae 715F6275 		.ascii	"q_buffer\000"
 20207      66666572 
 20207      00
 20208              	.LASF151:
 20209 12b7 705F6E65 		.ascii	"p_next\000"
 20209      787400
 20210              	.LASF398:
 20211 12be 49324344 		.ascii	"I2CD2\000"
 20211      3200
 20212              	.LASF465:
 20213 12c4 55534244 		.ascii	"USBDriver\000"
 20213      72697665 
 20213      7200
 20214              	.LASF582:
 20215 12ce 72657376 		.ascii	"resvd8C0\000"
 20215      64384330 
 20215      00
 20216              	.LASF620:
 20217 12d7 55534243 		.ascii	"USBConfig\000"
 20217      6F6E6669 
 20217      6700
 20218              	.LASF525:
 20219 12e1 72657376 		.ascii	"resvdC\000"
 20219      644300
 20220              	.LASF432:
 20221 12e8 6368616E 		.ascii	"channel\000"
 20221      6E656C00 
 20222              	.LASF755:
 20223 12f0 73746172 		.ascii	"start\000"
 20223      7400
 20224              	.LASF759:
 20225 12f6 626C6F63 		.ascii	"blocksize\000"
 20225      6B73697A 
 20225      6500
 20226              	.LASF443:
 20227 1300 6F717565 		.ascii	"oqueue\000"
 20227      756500
 20228              	.LASF141:
 20229 1307 74726566 		.ascii	"trefs_t\000"
 20229      735F7400 
 20230              	.LASF169:
ARM GAS  /tmp/cchERvVK.s 			page 373


 20231 130f 705F6D70 		.ascii	"p_mpool\000"
 20231      6F6F6C00 
 20232              	.LASF832:
 20233 1317 66706361 		.ascii	"fpca\000"
 20233      00
 20234              	.LASF238:
 20235 131c 4932435F 		.ascii	"I2C_TypeDef\000"
 20235      54797065 
 20235      44656600 
 20236              	.LASF706:
 20237 1328 54415247 		.ascii	"TARGET_WATCH_ACCESS\000"
 20237      45545F57 
 20237      41544348 
 20237      5F414343 
 20237      45535300 
 20238              	.LASF39:
 20239 133c 5F5F746D 		.ascii	"__tm_sec\000"
 20239      5F736563 
 20239      00
 20240              	.LASF613:
 20241 1345 696E5F6D 		.ascii	"in_multiplier\000"
 20241      756C7469 
 20241      706C6965 
 20241      7200
 20242              	.LASF878:
 20243 1353 74617267 		.ascii	"target_regs_read\000"
 20243      65745F72 
 20243      6567735F 
 20243      72656164 
 20243      00
 20244              	.LASF48:
 20245 1364 5F6F6E5F 		.ascii	"_on_exit_args\000"
 20245      65786974 
 20245      5F617267 
 20245      7300
 20246              	.LASF754:
 20247 1372 74617267 		.ascii	"target_ram\000"
 20247      65745F72 
 20247      616D00
 20248              	.LASF249:
 20249 137d 636F6E74 		.ascii	"context\000"
 20249      65787400 
 20250              	.LASF139:
 20251 1385 746D6F64 		.ascii	"tmode_t\000"
 20251      655F7400 
 20252              	.LASF727:
 20253 138d 74617267 		.ascii	"target_open_flags\000"
 20253      65745F6F 
 20253      70656E5F 
 20253      666C6167 
 20253      7300
 20254              	.LASF566:
 20255 139f 44535453 		.ascii	"DSTS\000"
 20255      00
 20256              	.LASF673:
 20257 13a4 72656773 		.ascii	"regs_read\000"
 20257      5F726561 
ARM GAS  /tmp/cchERvVK.s 			page 374


 20257      6400
 20258              	.LASF326:
 20259 13ae 42535252 		.ascii	"BSRR\000"
 20259      00
 20260              	.LASF319:
 20261 13b3 73746D33 		.ascii	"stm32_dma_stream_t\000"
 20261      325F646D 
 20261      615F7374 
 20261      7265616D 
 20261      5F7400
 20262              	.LASF618:
 20263 13c6 72657175 		.ascii	"requests_hook_cb\000"
 20263      65737473 
 20263      5F686F6F 
 20263      6B5F6362 
 20263      00
 20264              	.LASF122:
 20265 13d7 5F776372 		.ascii	"_wcrtomb_state\000"
 20265      746F6D62 
 20265      5F737461 
 20265      746500
 20266              	.LASF625:
 20267 13e6 706C6174 		.ascii	"platform_swclk_pin\000"
 20267      666F726D 
 20267      5F737763 
 20267      6C6B5F70 
 20267      696E00
 20268              	.LASF596:
 20269 13f9 74787369 		.ascii	"txsize\000"
 20269      7A6500
 20270              	.LASF717:
 20271 1400 54415247 		.ascii	"TARGET_ENOTDIR\000"
 20271      45545F45 
 20271      4E4F5444 
 20271      495200
 20272              	.LASF842:
 20273 140f 636F7274 		.ascii	"cortexm_mem_write_sized\000"
 20273      65786D5F 
 20273      6D656D5F 
 20273      77726974 
 20273      655F7369 
 20274              	.LASF818:
 20275 1427 636F7274 		.ascii	"cortexm_breakwatch_set\000"
 20275      65786D5F 
 20275      62726561 
 20275      6B776174 
 20275      63685F73 
 20276              	.LASF733:
 20277 143e 54415247 		.ascii	"TARGET_O_TRUNC\000"
 20277      45545F4F 
 20277      5F545255 
 20277      4E4300
 20278              	.LASF264:
 20279 144d 6D5F7175 		.ascii	"m_queue\000"
 20279      65756500 
 20280              	.LASF917:
 20281 1455 6D656D73 		.ascii	"memset\000"
ARM GAS  /tmp/cchERvVK.s 			page 375


 20281      657400
 20282              	.LASF373:
 20283 145c 4932435F 		.ascii	"I2C_LOCKED\000"
 20283      4C4F434B 
 20283      454400
 20284              	.LASF429:
 20285 1467 77696474 		.ascii	"width_cb\000"
 20285      685F6362 
 20285      00
 20286              	.LASF486:
 20287 1470 5553425F 		.ascii	"USB_READY\000"
 20287      52454144 
 20287      5900
 20288              	.LASF451:
 20289 147a 72656164 		.ascii	"readt\000"
 20289      7400
 20290              	.LASF786:
 20291 1480 73746570 		.ascii	"stepping\000"
 20291      70696E67 
 20291      00
 20292              	.LASF538:
 20293 1489 47525354 		.ascii	"GRSTCTL\000"
 20293      43544C00 
 20294              	.LASF32:
 20295 1491 5F5F554C 		.ascii	"__ULong\000"
 20295      6F6E6700 
 20296              	.LASF196:
 20297 1499 70616E69 		.ascii	"panic_msg\000"
 20297      635F6D73 
 20297      6700
 20298              	.LASF456:
 20299 14a3 5350495F 		.ascii	"SPI_COMPLETE\000"
 20299      434F4D50 
 20299      4C455445 
 20299      00
 20300              	.LASF180:
 20301 14b0 725F6E65 		.ascii	"r_newer\000"
 20301      77657200 
 20302              	.LASF503:
 20303 14b8 5553425F 		.ascii	"USB_EVENT_STALLED\000"
 20303      4556454E 
 20303      545F5354 
 20303      414C4C45 
 20303      4400
 20304              	.LASF848:
 20305 14ca 636F7274 		.ascii	"cortexm_detach\000"
 20305      65786D5F 
 20305      64657461 
 20305      636800
 20306              	.LASF285:
 20307 14d9 63686465 		.ascii	"chdebug_t\000"
 20307      6275675F 
 20307      7400
 20308              	.LASF635:
 20309 14e3 64725F70 		.ascii	"dr_postscan\000"
 20309      6F737473 
 20309      63616E00 
ARM GAS  /tmp/cchERvVK.s 			page 376


 20310              	.LASF602:
 20311 14ef 72787369 		.ascii	"rxsize\000"
 20311      7A6500
 20312              	.LASF402:
 20313 14f6 4943555F 		.ascii	"ICU_WAITING\000"
 20313      57414954 
 20313      494E4700 
 20314              	.LASF517:
 20315 1502 48435453 		.ascii	"HCTSIZ\000"
 20315      495A00
 20316              	.LASF708:
 20317 1509 54415247 		.ascii	"TARGET_EPERM\000"
 20317      45545F45 
 20317      5045524D 
 20317      00
 20318              	.LASF500:
 20319 1516 5553425F 		.ascii	"USB_EVENT_CONFIGURED\000"
 20319      4556454E 
 20319      545F434F 
 20319      4E464947 
 20319      55524544 
 20320              	.LASF782:
 20321 152b 6F70746F 		.ascii	"optopt\000"
 20321      707400
 20322              	.LASF648:
 20323 1532 414C4947 		.ascii	"ALIGN_DWORD\000"
 20323      4E5F4457 
 20323      4F524400 
 20324              	.LASF448:
 20325 153e 70757474 		.ascii	"putt\000"
 20325      00
 20326              	.LASF669:
 20327 1543 6D656D5F 		.ascii	"mem_read\000"
 20327      72656164 
 20327      00
 20328              	.LASF142:
 20329 154c 74736C69 		.ascii	"tslices_t\000"
 20329      6365735F 
 20329      7400
 20330              	.LASF107:
 20331 1556 5F737472 		.ascii	"_strtok_last\000"
 20331      746F6B5F 
 20331      6C617374 
 20331      00
 20332              	.LASF906:
 20333 1563 73746D33 		.ascii	"stm32l4_probe\000"
 20333      326C345F 
 20333      70726F62 
 20333      6500
 20334              	.LASF272:
 20335 1571 63685F74 		.ascii	"ch_timesize\000"
 20335      696D6573 
 20335      697A6500 
 20336              	.LASF675:
 20337 157d 72657365 		.ascii	"reset\000"
 20337      7400
 20338              	.LASF482:
ARM GAS  /tmp/cchERvVK.s 			page 377


 20339 1583 77615F70 		.ascii	"wa_pump\000"
 20339      756D7000 
 20340              	.LASF297:
 20341 158b 6576656E 		.ascii	"event_source_t\000"
 20341      745F736F 
 20341      75726365 
 20341      5F7400
 20342              	.LASF552:
 20343 159a 72657376 		.ascii	"resvd140\000"
 20343      64313430 
 20343      00
 20344              	.LASF188:
 20345 15a3 76745F64 		.ascii	"vt_delta\000"
 20345      656C7461 
 20345      00
 20346              	.LASF103:
 20347 15ac 5F736565 		.ascii	"_seed\000"
 20347      6400
 20348              	.LASF66:
 20349 15b2 5F736565 		.ascii	"_seek\000"
 20349      6B00
 20350              	.LASF501:
 20351 15b8 5553425F 		.ascii	"USB_EVENT_SUSPEND\000"
 20351      4556454E 
 20351      545F5355 
 20351      5350454E 
 20351      4400
 20352              	.LASF816:
 20353 15ca 636F7274 		.ascii	"cortexm_vector_catch\000"
 20353      65786D5F 
 20353      76656374 
 20353      6F725F63 
 20353      61746368 
 20354              	.LASF750:
 20355 15df 73797374 		.ascii	"system\000"
 20355      656D00
 20356              	.LASF530:
 20357 15e6 444F4550 		.ascii	"DOEPCTL\000"
 20357      43544C00 
 20358              	.LASF5:
 20359 15ee 73686F72 		.ascii	"short unsigned int\000"
 20359      7420756E 
 20359      7369676E 
 20359      65642069 
 20359      6E7400
 20360              	.LASF672:
 20361 1601 74646573 		.ascii	"tdesc\000"
 20361      6300
 20362              	.LASF0:
 20363 1607 7369676E 		.ascii	"signed char\000"
 20363      65642063 
 20363      68617200 
 20364              	.LASF161:
 20365 1613 705F7072 		.ascii	"p_preempt\000"
 20365      65656D70 
 20365      7400
 20366              	.LASF162:
ARM GAS  /tmp/cchERvVK.s 			page 378


 20367 161d 705F7469 		.ascii	"p_time\000"
 20367      6D6500
 20368              	.LASF207:
 20369 1624 54444852 		.ascii	"TDHR\000"
 20369      00
 20370              	.LASF494:
 20371 1629 5553425F 		.ascii	"USB_EP0_RX\000"
 20371      4550305F 
 20371      525800
 20372              	.LASF790:
 20373 1634 68775F77 		.ascii	"hw_watchpoint_max\000"
 20373      61746368 
 20373      706F696E 
 20373      745F6D61 
 20373      7800
 20374              	.LASF719:
 20375 1646 54415247 		.ascii	"TARGET_EINVAL\000"
 20375      45545F45 
 20375      494E5641 
 20375      4C00
 20376              	.LASF723:
 20377 1654 54415247 		.ascii	"TARGET_ENOSPC\000"
 20377      45545F45 
 20377      4E4F5350 
 20377      4300
 20378              	.LASF810:
 20379 1662 66696C65 		.ascii	"filename\000"
 20379      6E616D65 
 20379      00
 20380              	.LASF475:
 20381 166b 73746174 		.ascii	"status\000"
 20381      757300
 20382              	.LASF507:
 20383 1672 55534244 		.ascii	"USBDescriptor\000"
 20383      65736372 
 20383      6970746F 
 20383      7200
 20384              	.LASF90:
 20385 1680 5F667265 		.ascii	"_freelist\000"
 20385      656C6973 
 20385      7400
 20386              	.LASF476:
 20387 168a 61646472 		.ascii	"address\000"
 20387      65737300 
 20388              	.LASF164:
 20389 1692 705F6D73 		.ascii	"p_msgqueue\000"
 20389      67717565 
 20389      756500
 20390              	.LASF666:
 20391 169d 61747461 		.ascii	"attach\000"
 20391      636800
 20392              	.LASF282:
 20393 16a4 63665F6F 		.ascii	"cf_off_refs\000"
 20393      66665F72 
 20393      65667300 
 20394              	.LASF280:
 20395 16b0 63665F6F 		.ascii	"cf_off_state\000"
ARM GAS  /tmp/cchERvVK.s 			page 379


 20395      66665F73 
 20395      74617465 
 20395      00
 20396              	.LASF265:
 20397 16bd 6D5F6F77 		.ascii	"m_owner\000"
 20397      6E657200 
 20398              	.LASF71:
 20399 16c5 5F6F6666 		.ascii	"_offset\000"
 20399      73657400 
 20400              	.LASF204:
 20401 16cd 53797374 		.ascii	"SystemCoreClock\000"
 20401      656D436F 
 20401      7265436C 
 20401      6F636B00 
 20402              	.LASF876:
 20403 16dd 74617267 		.ascii	"target_mem_read\000"
 20403      65745F6D 
 20403      656D5F72 
 20403      65616400 
 20404              	.LASF639:
 20405 16ed 6964636F 		.ascii	"idcode\000"
 20405      646500
 20406              	.LASF357:
 20407 16f4 73746174 		.ascii	"state\000"
 20407      6500
 20408              	.LASF858:
 20409 16fa 636F7274 		.ascii	"cortexm_mem_read\000"
 20409      65786D5F 
 20409      6D656D5F 
 20409      72656164 
 20409      00
 20410              	.LASF270:
 20411 170b 63685F76 		.ascii	"ch_version\000"
 20411      65727369 
 20411      6F6E00
 20412              	.LASF56:
 20413 1716 5F5F7362 		.ascii	"__sbuf\000"
 20413      756600
 20414              	.LASF493:
 20415 171d 5553425F 		.ascii	"USB_EP0_WAITING_STS\000"
 20415      4550305F 
 20415      57414954 
 20415      494E475F 
 20415      53545300 
 20416              	.LASF116:
 20417 1731 5F6C3634 		.ascii	"_l64a_buf\000"
 20417      615F6275 
 20417      6600
 20418              	.LASF211:
 20419 173b 52444852 		.ascii	"RDHR\000"
 20419      00
 20420              	.LASF781:
 20421 1740 6F707465 		.ascii	"opterr\000"
 20421      727200
 20422              	.LASF416:
 20423 1747 444D4152 		.ascii	"DMAR\000"
 20423      00
ARM GAS  /tmp/cchERvVK.s 			page 380


 20424              	.LASF198:
 20425 174c 63685F73 		.ascii	"ch_system\000"
 20425      79737465 
 20425      6D00
 20426              	.LASF897:
 20427 1756 74617267 		.ascii	"target_halt_request\000"
 20427      65745F68 
 20427      616C745F 
 20427      72657175 
 20427      65737400 
 20428              	.LASF771:
 20429 176a 74617267 		.ascii	"target_command_s\000"
 20429      65745F63 
 20429      6F6D6D61 
 20429      6E645F73 
 20429      00
 20430              	.LASF744:
 20431 177b 72656E61 		.ascii	"rename\000"
 20431      6D6500
 20432              	.LASF108:
 20433 1782 5F617363 		.ascii	"_asctime_buf\000"
 20433      74696D65 
 20433      5F627566 
 20433      00
 20434              	.LASF730:
 20435 178f 54415247 		.ascii	"TARGET_O_RDWR\000"
 20435      45545F4F 
 20435      5F524457 
 20435      5200
 20436              	.LASF25:
 20437 179d 5F5F7763 		.ascii	"__wch\000"
 20437      6800
 20438              	.LASF260:
 20439 17a3 63685F73 		.ascii	"ch_semaphore\000"
 20439      656D6170 
 20439      686F7265 
 20439      00
 20440              	.LASF123:
 20441 17b0 5F776373 		.ascii	"_wcsrtombs_state\000"
 20441      72746F6D 
 20441      62735F73 
 20441      74617465 
 20441      00
 20442              	.LASF526:
 20443 17c1 44494550 		.ascii	"DIEPTSIZ\000"
 20443      5453495A 
 20443      00
 20444              	.LASF743:
 20445 17ca 6C736565 		.ascii	"lseek\000"
 20445      6B00
 20446              	.LASF742:
 20447 17d0 636C6F73 		.ascii	"close\000"
 20447      6500
 20448              	.LASF173:
 20449 17d6 74687265 		.ascii	"threads_queue_t\000"
 20449      6164735F 
 20449      71756575 
ARM GAS  /tmp/cchERvVK.s 			page 381


 20449      655F7400 
 20450              	.LASF160:
 20451 17e6 705F7265 		.ascii	"p_refs\000"
 20451      667300
 20452              	.LASF605:
 20453 17ed 65705F6D 		.ascii	"ep_mode\000"
 20453      6F646500 
 20454              	.LASF533:
 20455 17f5 73746D33 		.ascii	"stm32_otg_out_ep_t\000"
 20455      325F6F74 
 20455      675F6F75 
 20455      745F6570 
 20455      5F7400
 20456              	.LASF206:
 20457 1808 54444C52 		.ascii	"TDLR\000"
 20457      00
 20458              	.LASF7:
 20459 180d 6C6F6E67 		.ascii	"long int\000"
 20459      20696E74 
 20459      00
 20460              	.LASF201:
 20461 1816 6D61696E 		.ascii	"mainthread\000"
 20461      74687265 
 20461      616400
 20462              	.LASF853:
 20463 1821 636F7274 		.ascii	"cortexm_forced_halt\000"
 20463      65786D5F 
 20463      666F7263 
 20463      65645F68 
 20463      616C7400 
 20464              	.LASF472:
 20465 1835 6570306E 		.ascii	"ep0n\000"
 20465      00
 20466              	.LASF375:
 20467 183a 69326361 		.ascii	"i2caddr_t\000"
 20467      6464725F 
 20467      7400
 20468              	.LASF115:
 20469 1844 5F776374 		.ascii	"_wctomb_state\000"
 20469      6F6D625F 
 20469      73746174 
 20469      6500
 20470              	.LASF728:
 20471 1852 54415247 		.ascii	"TARGET_O_RDONLY\000"
 20471      45545F4F 
 20471      5F52444F 
 20471      4E4C5900 
 20472              	.LASF301:
 20473 1862 715F636F 		.ascii	"q_counter\000"
 20473      756E7465 
 20473      7200
 20474              	.LASF345:
 20475 186c 50484461 		.ascii	"PHData\000"
 20475      746100
 20476              	.LASF348:
 20477 1873 696F706F 		.ascii	"ioportid_t\000"
 20477      72746964 
ARM GAS  /tmp/cchERvVK.s 			page 382


 20477      5F7400
 20478              	.LASF553:
 20479 187e 48434647 		.ascii	"HCFG\000"
 20479      00
 20480              	.LASF798:
 20481 1883 7265676E 		.ascii	"regnum_cortex_mf\000"
 20481      756D5F63 
 20481      6F727465 
 20481      785F6D66 
 20481      00
 20482              	.LASF101:
 20483 1894 5F696F62 		.ascii	"_iobs\000"
 20483      7300
 20484              	.LASF82:
 20485 189a 5F656D65 		.ascii	"_emergency\000"
 20485      7267656E 
 20485      637900
 20486              	.LASF449:
 20487 18a5 67657474 		.ascii	"gett\000"
 20487      00
 20488              	.LASF770:
 20489 18aa 68656C70 		.ascii	"help\000"
 20489      00
 20490              	.LASF724:
 20491 18af 54415247 		.ascii	"TARGET_ESPIPE\000"
 20491      45545F45 
 20491      53504950 
 20491      4500
 20492              	.LASF825:
 20493 18bd 636F7274 		.ascii	"cortexm_fault_unwind\000"
 20493      65786D5F 
 20493      6661756C 
 20493      745F756E 
 20493      77696E64 
 20494              	.LASF256:
 20495 18d2 77747472 		.ascii	"wttrp\000"
 20495      7000
 20496              	.LASF305:
 20497 18d8 715F7264 		.ascii	"q_rdptr\000"
 20497      70747200 
 20498              	.LASF125:
 20499 18e0 5F6E6578 		.ascii	"_nextf\000"
 20499      746600
 20500              	.LASF446:
 20501 18e7 77726974 		.ascii	"write\000"
 20501      6500
 20502              	.LASF111:
 20503 18ed 5F72616E 		.ascii	"_rand_next\000"
 20503      645F6E65 
 20503      787400
 20504              	.LASF442:
 20505 18f8 69717565 		.ascii	"iqueue\000"
 20505      756500
 20506              	.LASF607:
 20507 18ff 696E5F63 		.ascii	"in_cb\000"
 20507      6200
 20508              	.LASF731:
ARM GAS  /tmp/cchERvVK.s 			page 383


 20509 1905 54415247 		.ascii	"TARGET_O_APPEND\000"
 20509      45545F4F 
 20509      5F415050 
 20509      454E4400 
 20510              	.LASF531:
 20511 1915 444F4550 		.ascii	"DOEPINT\000"
 20511      494E5400 
 20512              	.LASF327:
 20513 191d 4C434B52 		.ascii	"LCKR\000"
 20513      00
 20514              	.LASF676:
 20515 1922 65787465 		.ascii	"extended_reset\000"
 20515      6E646564 
 20515      5F726573 
 20515      657400
 20516              	.LASF439:
 20517 1931 73647374 		.ascii	"sdstate_t\000"
 20517      6174655F 
 20517      7400
 20518              	.LASF17:
 20519 193b 75696E74 		.ascii	"uint32_t\000"
 20519      33325F74 
 20519      00
 20520              	.LASF313:
 20521 1944 636F6E66 		.ascii	"conf_general_permanent_nrf_found\000"
 20521      5F67656E 
 20521      6572616C 
 20521      5F706572 
 20521      6D616E65 
 20522              	.LASF866:
 20523 1965 61646976 		.ascii	"adiv5_dp_low_access\000"
 20523      355F6470 
 20523      5F6C6F77 
 20523      5F616363 
 20523      65737300 
 20524              	.LASF904:
 20525 1979 73746D33 		.ascii	"stm32h7_probe\000"
 20525      3268375F 
 20525      70726F62 
 20525      6500
 20526              	.LASF34:
 20527 1987 5F6D6178 		.ascii	"_maxwds\000"
 20527      77647300 
 20528              	.LASF511:
 20529 198f 75736272 		.ascii	"usbreqhandler_t\000"
 20529      65716861 
 20529      6E646C65 
 20529      725F7400 
 20530              	.LASF210:
 20531 199f 52444C52 		.ascii	"RDLR\000"
 20531      00
 20532              	.LASF247:
 20533 19a4 72656761 		.ascii	"regarm_t\000"
 20533      726D5F74 
 20533      00
 20534              	.LASF145:
 20535 19ad 6576656E 		.ascii	"eventmask_t\000"
ARM GAS  /tmp/cchERvVK.s 			page 384


 20535      746D6173 
 20535      6B5F7400 
 20536              	.LASF132:
 20537 19b9 7375626F 		.ascii	"suboptarg\000"
 20537      70746172 
 20537      6700
 20538              	.LASF803:
 20539 19c3 44425F44 		.ascii	"DB_DCRDR\000"
 20539      43524452 
 20539      00
 20540              	.LASF224:
 20541 19cc 46464131 		.ascii	"FFA1R\000"
 20541      5200
 20542              	.LASF215:
 20543 19d2 52463152 		.ascii	"RF1R\000"
 20543      00
 20544              	.LASF487:
 20545 19d7 5553425F 		.ascii	"USB_SELECTED\000"
 20545      53454C45 
 20545      43544544 
 20545      00
 20546              	.LASF353:
 20547 19e4 43414E5F 		.ascii	"CAN_READY\000"
 20547      52454144 
 20547      5900
 20548              	.LASF637:
 20549 19ee 69725F70 		.ascii	"ir_prescan\000"
 20549      72657363 
 20549      616E00
 20550              	.LASF9:
 20551 19f9 6C6F6E67 		.ascii	"long unsigned int\000"
 20551      20756E73 
 20551      69676E65 
 20551      6420696E 
 20551      7400
 20552              	.LASF630:
 20553 1a0b 6A6D7062 		.ascii	"jmpbuf\000"
 20553      756600
 20554              	.LASF304:
 20555 1a12 715F7772 		.ascii	"q_wrptr\000"
 20555      70747200 
 20556              	.LASF757:
 20557 1a1a 666C6173 		.ascii	"flash_erase_func\000"
 20557      685F6572 
 20557      6173655F 
 20557      66756E63 
 20557      00
 20558              	.LASF640:
 20559 1a2b 64657363 		.ascii	"descr\000"
 20559      7200
 20560              	.LASF405:
 20561 1a31 49435544 		.ascii	"ICUDriver\000"
 20561      72697665 
 20561      7200
 20562              	.LASF434:
 20563 1a3b 49435543 		.ascii	"ICUConfig\000"
 20563      6F6E6669 
ARM GAS  /tmp/cchERvVK.s 			page 385


 20563      6700
 20564              	.LASF823:
 20565 1a45 72656173 		.ascii	"reason\000"
 20565      6F6E00
 20566              	.LASF499:
 20567 1a4c 5553425F 		.ascii	"USB_EVENT_ADDRESS\000"
 20567      4556454E 
 20567      545F4144 
 20567      44524553 
 20567      5300
 20568              	.LASF789:
 20569 1a5e 666C6173 		.ascii	"flash_patch_revision\000"
 20569      685F7061 
 20569      7463685F 
 20569      72657669 
 20569      73696F6E 
 20570              	.LASF361:
 20571 1a73 72786675 		.ascii	"rxfull_event\000"
 20571      6C6C5F65 
 20571      76656E74 
 20571      00
 20572              	.LASF504:
 20573 1a80 75736265 		.ascii	"usbevent_t\000"
 20573      76656E74 
 20573      5F7400
 20574              	.LASF67:
 20575 1a8b 5F636C6F 		.ascii	"_close\000"
 20575      736500
 20576              	.LASF901:
 20577 1a92 74617267 		.ascii	"target_add_commands\000"
 20577      65745F61 
 20577      64645F63 
 20577      6F6D6D61 
 20577      6E647300 
 20578              	.LASF31:
 20579 1aa6 63686172 		.ascii	"char\000"
 20579      00
 20580              	.LASF356:
 20581 1aab 43414E43 		.ascii	"CANConfig\000"
 20581      6F6E6669 
 20581      6700
 20582              	.LASF342:
 20583 1ab5 50454461 		.ascii	"PEData\000"
 20583      746100
 20584              	.LASF177:
 20585 1abc 725F7175 		.ascii	"r_queue\000"
 20585      65756500 
 20586              	.LASF99:
 20587 1ac4 5F676C75 		.ascii	"_glue\000"
 20587      6500
 20588              	.LASF681:
 20589 1aca 62726561 		.ascii	"breakwatch_clear\000"
 20589      6B776174 
 20589      63685F63 
 20589      6C656172 
 20589      00
 20590              	.LASF805:
ARM GAS  /tmp/cchERvVK.s 			page 386


 20591 1adb 61726D5F 		.ascii	"arm_regs\000"
 20591      72656773 
 20591      00
 20592              	.LASF543:
 20593 1ae4 47525846 		.ascii	"GRXFSIZ\000"
 20593      53495A00 
 20594              	.LASF680:
 20595 1aec 62726561 		.ascii	"breakwatch_set\000"
 20595      6B776174 
 20595      63685F73 
 20595      657400
 20596              	.LASF444:
 20597 1afb 75736172 		.ascii	"usart\000"
 20597      7400
 20598              	.LASF307:
 20599 1b01 715F6C69 		.ascii	"q_link\000"
 20599      6E6B00
 20600              	.LASF871:
 20601 1b08 74617267 		.ascii	"target_mem_write32\000"
 20601      65745F6D 
 20601      656D5F77 
 20601      72697465 
 20601      333200
 20602              	.LASF726:
 20603 1b1b 54415247 		.ascii	"TARGET_ENAMETOOLONG\000"
 20603      45545F45 
 20603      4E414D45 
 20603      544F4F4C 
 20603      4F4E4700 
 20604              	.LASF424:
 20605 1b2f 4943555F 		.ascii	"ICU_CHANNEL_1\000"
 20605      4348414E 
 20605      4E454C5F 
 20605      3100
 20606              	.LASF695:
 20607 1b3d 54415247 		.ascii	"TARGET_HALT_ERROR\000"
 20607      45545F48 
 20607      414C545F 
 20607      4552524F 
 20607      5200
 20608              	.LASF650:
 20609 1b4f 41444976 		.ascii	"ADIv5_DP_s\000"
 20609      355F4450 
 20609      5F7300
 20610              	.LASF658:
 20611 1b5a 41444976 		.ascii	"ADIv5_DP_t\000"
 20611      355F4450 
 20611      5F7400
 20612              	.LASF37:
 20613 1b65 5F426967 		.ascii	"_Bigint\000"
 20613      696E7400 
 20614              	.LASF799:
 20615 1b6d 74646573 		.ascii	"tdesc_cortex_m\000"
 20615      635F636F 
 20615      72746578 
 20615      5F6D00
 20616              	.LASF540:
ARM GAS  /tmp/cchERvVK.s 			page 387


 20617 1b7c 47494E54 		.ascii	"GINTMSK\000"
 20617      4D534B00 
 20618              	.LASF409:
 20619 1b84 69637563 		.ascii	"icucallback_t\000"
 20619      616C6C62 
 20619      61636B5F 
 20619      7400
 20620              	.LASF545:
 20621 1b92 484E5054 		.ascii	"HNPTXSTS\000"
 20621      58535453 
 20621      00
 20622              	.LASF649:
 20623 1b9b 6661756C 		.ascii	"fault\000"
 20623      7400
 20624              	.LASF477:
 20625 1ba1 636F6E66 		.ascii	"configuration\000"
 20625      69677572 
 20625      6174696F 
 20625      6E00
 20626              	.LASF94:
 20627 1baf 5F617465 		.ascii	"_atexit0\000"
 20627      78697430 
 20627      00
 20628              	.LASF692:
 20629 1bb8 616C6967 		.ascii	"align\000"
 20629      6E00
 20630              	.LASF882:
 20631 1bbe 74635F72 		.ascii	"tc_rename\000"
 20631      656E616D 
 20631      6500
 20632              	.LASF337:
 20633 1bc8 73746D33 		.ascii	"stm32_gpio_setup_t\000"
 20633      325F6770 
 20633      696F5F73 
 20633      65747570 
 20633      5F7400
 20634              	.LASF851:
 20635 1bdb 666F7263 		.ascii	"forced\000"
 20635      656400
 20636              	.LASF421:
 20637 1be2 4943555F 		.ascii	"ICU_INPUT_ACTIVE_LOW\000"
 20637      494E5055 
 20637      545F4143 
 20637      54495645 
 20637      5F4C4F57 
 20638              	.LASF320:
 20639 1bf7 5F73746D 		.ascii	"_stm32_dma_streams\000"
 20639      33325F64 
 20639      6D615F73 
 20639      74726561 
 20639      6D7300
 20640              	.LASF118:
 20641 1c0a 5F676574 		.ascii	"_getdate_err\000"
 20641      64617465 
 20641      5F657272 
 20641      00
 20642              	.LASF423:
ARM GAS  /tmp/cchERvVK.s 			page 388


 20643 1c17 69637566 		.ascii	"icufreq_t\000"
 20643      7265715F 
 20643      7400
 20644              	.LASF736:
 20645 1c21 54415247 		.ascii	"TARGET_SEEK_CUR\000"
 20645      45545F53 
 20645      45454B5F 
 20645      43555200 
 20646              	.LASF788:
 20647 1c31 68775F77 		.ascii	"hw_watchpoint\000"
 20647      61746368 
 20647      706F696E 
 20647      7400
 20648              	.LASF817:
 20649 1c3f 636F7274 		.ascii	"cortexm_breakwatch_clear\000"
 20649      65786D5F 
 20649      62726561 
 20649      6B776174 
 20649      63685F63 
 20650              	.LASF813:
 20651 1c58 76656374 		.ascii	"vectors\000"
 20651      6F727300 
 20652              	.LASF912:
 20653 1c60 61646976 		.ascii	"adiv5_mem_read\000"
 20653      355F6D65 
 20653      6D5F7265 
 20653      616400
 20654              	.LASF147:
 20655 1c6f 636E745F 		.ascii	"cnt_t\000"
 20655      7400
 20656              	.LASF492:
 20657 1c75 5553425F 		.ascii	"USB_EP0_WAITING_TX0\000"
 20657      4550305F 
 20657      57414954 
 20657      494E475F 
 20657      54583000 
 20658              	.LASF471:
 20659 1c89 6570306E 		.ascii	"ep0next\000"
 20659      65787400 
 20660              	.LASF700:
 20661 1c91 54415247 		.ascii	"TARGET_HALT_FAULT\000"
 20661      45545F48 
 20661      414C545F 
 20661      4641554C 
 20661      5400
 20662              	.LASF701:
 20663 1ca3 74617267 		.ascii	"target_breakwatch\000"
 20663      65745F62 
 20663      7265616B 
 20663      77617463 
 20663      6800
 20664              	.LASF521:
 20665 1cb5 73746D33 		.ascii	"stm32_otg_host_chn_t\000"
 20665      325F6F74 
 20665      675F686F 
 20665      73745F63 
 20665      686E5F74 
ARM GAS  /tmp/cchERvVK.s 			page 389


 20666              	.LASF329:
 20667 1cca 41465248 		.ascii	"AFRH\000"
 20667      00
 20668              	.LASF328:
 20669 1ccf 4146524C 		.ascii	"AFRL\000"
 20669      00
 20670              	.LASF656:
 20671 1cd4 6C6F775F 		.ascii	"low_access\000"
 20671      61636365 
 20671      737300
 20672              	.LASF734:
 20673 1cdf 74617267 		.ascii	"target_seek_flag\000"
 20673      65745F73 
 20673      65656B5F 
 20673      666C6167 
 20673      00
 20674              	.LASF130:
 20675 1cf0 5F696D70 		.ascii	"_impure_ptr\000"
 20675      7572655F 
 20675      70747200 
 20676              	.LASF283:
 20677 1cfc 63665F6F 		.ascii	"cf_off_preempt\000"
 20677      66665F70 
 20677      7265656D 
 20677      707400
 20678              	.LASF70:
 20679 1d0b 5F626C6B 		.ascii	"_blksize\000"
 20679      73697A65 
 20679      00
 20680              	.LASF838:
 20681 1d14 636F7274 		.ascii	"cortexm_halt_request\000"
 20681      65786D5F 
 20681      68616C74 
 20681      5F726571 
 20681      75657374 
 20682              	.LASF516:
 20683 1d29 4843494E 		.ascii	"HCINTMSK\000"
 20683      544D534B 
 20683      00
 20684              	.LASF68:
 20685 1d32 5F756275 		.ascii	"_ubuf\000"
 20685      6600
 20686              	.LASF358:
 20687 1d38 636F6E66 		.ascii	"config\000"
 20687      696700
 20688              	.LASF113:
 20689 1d3f 5F6D626C 		.ascii	"_mblen_state\000"
 20689      656E5F73 
 20689      74617465 
 20689      00
 20690              	.LASF96:
 20691 1d4c 5F5F7367 		.ascii	"__sglue\000"
 20691      6C756500 
 20692              	.LASF129:
 20693 1d54 5F5F6C6F 		.ascii	"__locale_t\000"
 20693      63616C65 
 20693      5F7400
ARM GAS  /tmp/cchERvVK.s 			page 390


 20694              	.LASF763:
 20695 1d5f 6275665F 		.ascii	"buf_size\000"
 20695      73697A65 
 20695      00
 20696              	.LASF899:
 20697 1d68 61646976 		.ascii	"adiv5_ap_ref\000"
 20697      355F6170 
 20697      5F726566 
 20697      00
 20698              	.LASF86:
 20699 1d75 5F5F636C 		.ascii	"__cleanup\000"
 20699      65616E75 
 20699      7000
 20700              	.LASF883:
 20701 1d7f 74635F75 		.ascii	"tc_unlink\000"
 20701      6E6C696E 
 20701      6B00
 20702              	.LASF704:
 20703 1d89 54415247 		.ascii	"TARGET_WATCH_WRITE\000"
 20703      45545F57 
 20703      41544348 
 20703      5F575249 
 20703      544500
 20704              	.LASF403:
 20705 1d9c 4943555F 		.ascii	"ICU_ACTIVE\000"
 20705      41435449 
 20705      564500
 20706              	.LASF636:
 20707 1da7 69725F6C 		.ascii	"ir_len\000"
 20707      656E00
 20708              	.LASF183:
 20709 1dae 76746675 		.ascii	"vtfunc_t\000"
 20709      6E635F74 
 20709      00
 20710              	.LASF212:
 20711 1db7 43414E5F 		.ascii	"CAN_FIFOMailBox_TypeDef\000"
 20711      4649464F 
 20711      4D61696C 
 20711      426F785F 
 20711      54797065 
 20712              	.LASF877:
 20713 1dcf 74635F6F 		.ascii	"tc_open\000"
 20713      70656E00 
 20714              	.LASF255:
 20715 1dd7 77746F62 		.ascii	"wtobjp\000"
 20715      6A7000
 20716              	.LASF23:
 20717 1dde 5F66706F 		.ascii	"_fpos_t\000"
 20717      735F7400 
 20718              	.LASF61:
 20719 1de6 5F66696C 		.ascii	"_file\000"
 20719      6500
 20720              	.LASF168:
 20721 1dec 705F7265 		.ascii	"p_realprio\000"
 20721      616C7072 
 20721      696F00
 20722              	.LASF306:
ARM GAS  /tmp/cchERvVK.s 			page 391


 20723 1df7 715F6E6F 		.ascii	"q_notify\000"
 20723      74696679 
 20723      00
 20724              	.LASF258:
 20725 1e00 77746D74 		.ascii	"wtmtxp\000"
 20725      787000
 20726              	.LASF59:
 20727 1e07 5F5F7346 		.ascii	"__sFILE\000"
 20727      494C4500 
 20728              	.LASF905:
 20729 1e0f 73746D33 		.ascii	"stm32l0_probe\000"
 20729      326C305F 
 20729      70726F62 
 20729      6500
 20730              	.LASF760:
 20731 1e1d 65726173 		.ascii	"erase\000"
 20731      6500
 20732              	.LASF55:
 20733 1e23 5F666E73 		.ascii	"_fns\000"
 20733      00
 20734              	.LASF604:
 20735 1e28 5553424F 		.ascii	"USBOutEndpointState\000"
 20735      7574456E 
 20735      64706F69 
 20735      6E745374 
 20735      61746500 
 20736              	.LASF560:
 20737 1e3c 72657376 		.ascii	"resvd41C\000"
 20737      64343143 
 20737      00
 20738              	.LASF29:
 20739 1e45 5F6D6273 		.ascii	"_mbstate_t\000"
 20739      74617465 
 20739      5F7400
 20740              	.LASF124:
 20741 1e50 5F685F65 		.ascii	"_h_errno\000"
 20741      72726E6F 
 20741      00
 20742              	.LASF863:
 20743 1e59 6D696E6C 		.ascii	"minline\000"
 20743      696E6500 
 20744              	.LASF846:
 20745 1e61 636F7274 		.ascii	"cortexm_regs_read\000"
 20745      65786D5F 
 20745      72656773 
 20745      5F726561 
 20745      6400
 20746              	.LASF623:
 20747 1e73 706C6174 		.ascii	"platform_swdio_pin\000"
 20747      666F726D 
 20747      5F737764 
 20747      696F5F70 
 20747      696E00
 20748              	.LASF209:
 20749 1e86 52445452 		.ascii	"RDTR\000"
 20749      00
 20750              	.LASF827:
ARM GAS  /tmp/cchERvVK.s 			page 392


 20751 1e8b 63667372 		.ascii	"cfsr\000"
 20751      00
 20752              	.LASF812:
 20753 1e90 61726776 		.ascii	"argv\000"
 20753      00
 20754              	.LASF498:
 20755 1e95 5553425F 		.ascii	"USB_EVENT_RESET\000"
 20755      4556454E 
 20755      545F5245 
 20755      53455400 
 20756              	.LASF176:
 20757 1ea5 63685F72 		.ascii	"ch_ready_list\000"
 20757      65616479 
 20757      5F6C6973 
 20757      7400
 20758              	.LASF325:
 20759 1eb3 50555044 		.ascii	"PUPDR\000"
 20759      5200
 20760              	.LASF6:
 20761 1eb9 5F5F696E 		.ascii	"__int32_t\000"
 20761      7433325F 
 20761      7400
 20762              	.LASF8:
 20763 1ec3 5F5F7569 		.ascii	"__uint32_t\000"
 20763      6E743332 
 20763      5F7400
 20764              	.LASF740:
 20765 1ece 7072696E 		.ascii	"printf\000"
 20765      746600
 20766              	.LASF407:
 20767 1ed5 77636372 		.ascii	"wccrp\000"
 20767      7000
 20768              	.LASF195:
 20769 1edb 63685F73 		.ascii	"ch_system_debug\000"
 20769      79737465 
 20769      6D5F6465 
 20769      62756700 
 20770              	.LASF900:
 20771 1eeb 63616C6C 		.ascii	"calloc\000"
 20771      6F6300
 20772              	.LASF845:
 20773 1ef2 64617461 		.ascii	"data\000"
 20773      00
 20774              	.LASF571:
 20775 1ef7 4441494E 		.ascii	"DAINTMSK\000"
 20775      544D534B 
 20775      00
 20776              	.LASF875:
 20777 1f00 72616973 		.ascii	"raise_exception\000"
 20777      655F6578 
 20777      63657074 
 20777      696F6E00 
 20778              	.LASF915:
 20779 1f10 2F6D6564 		.ascii	"/media/sf_Scuddy_FW/scuddy_spv2_113_v2\000"
 20779      69612F73 
 20779      665F5363 
 20779      75646479 
ARM GAS  /tmp/cchERvVK.s 			page 393


 20779      5F46572F 
 20780              	.LASF28:
 20781 1f37 5F5F7661 		.ascii	"__value\000"
 20781      6C756500 
 20782              	.LASF490:
 20783 1f3f 5553425F 		.ascii	"USB_EP0_WAITING_SETUP\000"
 20783      4550305F 
 20783      57414954 
 20783      494E475F 
 20783      53455455 
 20784              	.LASF52:
 20785 1f55 5F69735F 		.ascii	"_is_cxa\000"
 20785      63786100 
 20786              	.LASF336:
 20787 1f5d 61667268 		.ascii	"afrh\000"
 20787      00
 20788              	.LASF400:
 20789 1f62 4943555F 		.ascii	"ICU_STOP\000"
 20789      53544F50 
 20789      00
 20790              	.LASF335:
 20791 1f6b 6166726C 		.ascii	"afrl\000"
 20791      00
 20792              	.LASF737:
 20793 1f70 54415247 		.ascii	"TARGET_SEEK_END\000"
 20793      45545F53 
 20793      45454B5F 
 20793      454E4400 
 20794              	.LASF594:
 20795 1f80 71756575 		.ascii	"queue\000"
 20795      6500
 20796              	.LASF473:
 20797 1f86 65703065 		.ascii	"ep0endcb\000"
 20797      6E646362 
 20797      00
 20798              	.LASF317:
 20799 1f8f 73656C66 		.ascii	"selfindex\000"
 20799      696E6465 
 20799      7800
 20800              	.LASF287:
 20801 1f99 6D757465 		.ascii	"mutex_t\000"
 20801      785F7400 
 20802              	.LASF89:
 20803 1fa1 5F703573 		.ascii	"_p5s\000"
 20803      00
 20804              	.LASF166:
 20805 1fa6 705F6570 		.ascii	"p_epending\000"
 20805      656E6469 
 20805      6E6700
 20806              	.LASF564:
 20807 1fb1 44434647 		.ascii	"DCFG\000"
 20807      00
 20808              	.LASF322:
 20809 1fb6 4D4F4445 		.ascii	"MODER\000"
 20809      5200
 20810              	.LASF914:
 20811 1fbc 626C6163 		.ascii	"blackmagic/target/cortexm.c\000"
ARM GAS  /tmp/cchERvVK.s 			page 394


 20811      6B6D6167 
 20811      69632F74 
 20811      61726765 
 20811      742F636F 
 20812              	.LASF661:
 20813 1fd8 62617365 		.ascii	"base\000"
 20813      00
 20814              	.LASF821:
 20815 1fdd 6C6F6164 		.ascii	"loadaddr\000"
 20815      61646472 
 20815      00
 20816              	.LASF886:
 20817 1fe6 74635F72 		.ascii	"tc_read\000"
 20817      65616400 
 20818              	.LASF216:
 20819 1fee 52455345 		.ascii	"RESERVED0\000"
 20819      52564544 
 20819      3000
 20820              	.LASF219:
 20821 1ff8 52455345 		.ascii	"RESERVED1\000"
 20821      52564544 
 20821      3100
 20822              	.LASF221:
 20823 2002 52455345 		.ascii	"RESERVED2\000"
 20823      52564544 
 20823      3200
 20824              	.LASF223:
 20825 200c 52455345 		.ascii	"RESERVED3\000"
 20825      52564544 
 20825      3300
 20826              	.LASF225:
 20827 2016 52455345 		.ascii	"RESERVED4\000"
 20827      52564544 
 20827      3400
 20828              	.LASF227:
 20829 2020 52455345 		.ascii	"RESERVED5\000"
 20829      52564544 
 20829      3500
 20830              	.LASF716:
 20831 202a 54415247 		.ascii	"TARGET_ENODEV\000"
 20831      45545F45 
 20831      4E4F4445 
 20831      5600
 20832              	.LASF615:
 20833 2038 55534245 		.ascii	"USBEndpointConfig\000"
 20833      6E64706F 
 20833      696E7443 
 20833      6F6E6669 
 20833      6700
 20834              	.LASF360:
 20835 204a 72787175 		.ascii	"rxqueue\000"
 20835      65756500 
 20836              	.LASF562:
 20837 2052 72657376 		.ascii	"resvd444\000"
 20837      64343434 
 20837      00
 20838              	.LASF349:
ARM GAS  /tmp/cchERvVK.s 			page 395


 20839 205b 70616C5F 		.ascii	"pal_default_config\000"
 20839      64656661 
 20839      756C745F 
 20839      636F6E66 
 20839      696700
 20840              	.LASF291:
 20841 206e 656C5F6C 		.ascii	"el_listener\000"
 20841      69737465 
 20841      6E657200 
 20842              	.LASF593:
 20843 207a 6C696E65 		.ascii	"linear\000"
 20843      617200
 20844              	.LASF419:
 20845 2081 73746D33 		.ascii	"stm32_tim_t\000"
 20845      325F7469 
 20845      6D5F7400 
 20846              	.LASF834:
 20847 208d 64686373 		.ascii	"dhcsr\000"
 20847      7200
 20848              	.LASF178:
 20849 2093 725F7072 		.ascii	"r_prio\000"
 20849      696F00
 20850              	.LASF479:
 20851 209a 706D6E65 		.ascii	"pmnext\000"
 20851      787400
 20852              	.LASF797:
 20853 20a1 7265676E 		.ascii	"regnum_cortex_m\000"
 20853      756D5F63 
 20853      6F727465 
 20853      785F6D00 
 20854              	.LASF137:
 20855 20b1 6D6F6465 		.ascii	"mode_t\000"
 20855      5F7400
 20856              	.LASF767:
 20857 20b8 636D645F 		.ascii	"cmd_handler\000"
 20857      68616E64 
 20857      6C657200 
 20858              	.LASF203:
 20859 20c4 49544D5F 		.ascii	"ITM_RxBuffer\000"
 20859      52784275 
 20859      66666572 
 20859      00
 20860              	.LASF425:
 20861 20d1 4943555F 		.ascii	"ICU_CHANNEL_2\000"
 20861      4348414E 
 20861      4E454C5F 
 20861      3200
 20862              	.LASF859:
 20863 20df 636F7274 		.ascii	"cortexm_pc_write\000"
 20863      65786D5F 
 20863      70635F77 
 20863      72697465 
 20863      00
 20864              	.LASF12:
 20865 20f0 6C6F6E67 		.ascii	"long long unsigned int\000"
 20865      206C6F6E 
 20865      6720756E 
ARM GAS  /tmp/cchERvVK.s 			page 396


 20865      7369676E 
 20865      65642069 
 20866              	.LASF251:
 20867 2107 6F666673 		.ascii	"offset\000"
 20867      657400
 20868              	.LASF464:
 20869 210e 53504944 		.ascii	"SPID1\000"
 20869      3100
 20870              	.LASF902:
 20871 2114 73746D33 		.ascii	"stm32f1_probe\000"
 20871      3266315F 
 20871      70726F62 
 20871      6500
 20872              	.LASF715:
 20873 2122 54415247 		.ascii	"TARGET_EEXIST\000"
 20873      45545F45 
 20873      45584953 
 20873      5400
 20874              	.LASF230:
 20875 2130 4E445452 		.ascii	"NDTR\000"
 20875      00
 20876              	.LASF296:
 20877 2135 65735F6E 		.ascii	"es_next\000"
 20877      65787400 
 20878              	.LASF110:
 20879 213d 5F67616D 		.ascii	"_gamma_signgam\000"
 20879      6D615F73 
 20879      69676E67 
 20879      616D00
 20880              	.LASF528:
 20881 214c 72657376 		.ascii	"resvd1C\000"
 20881      64314300 
 20882              	.LASF202:
 20883 2154 69646C65 		.ascii	"idle_thread_wa\000"
 20883      5F746872 
 20883      6561645F 
 20883      776100
 20884              	.LASF524:
 20885 2163 44494550 		.ascii	"DIEPINT\000"
 20885      494E5400 
 20886              	.LASF404:
 20887 216b 69637573 		.ascii	"icustate_t\000"
 20887      74617465 
 20887      5F7400
 20888              	.LASF244:
 20889 2176 5350495F 		.ascii	"SPI_TypeDef\000"
 20889      54797065 
 20889      44656600 
 20890              	.LASF189:
 20891 2182 76745F66 		.ascii	"vt_func\000"
 20891      756E6300 
 20892              	.LASF410:
 20893 218a 534D4352 		.ascii	"SMCR\000"
 20893      00
 20894              	.LASF849:
 20895 218f 636F7274 		.ascii	"cortexm_attach\000"
 20895      65786D5F 
ARM GAS  /tmp/cchERvVK.s 			page 397


 20895      61747461 
 20895      636800
 20896              	.LASF569:
 20897 219e 444F4550 		.ascii	"DOEPMSK\000"
 20897      4D534B00 
 20898              	.LASF855:
 20899 21a6 636F7274 		.ascii	"cortexm_priv_free\000"
 20899      65786D5F 
 20899      70726976 
 20899      5F667265 
 20899      6500
 20900              	.LASF185:
 20901 21b8 63685F76 		.ascii	"ch_virtual_timer\000"
 20901      69727475 
 20901      616C5F74 
 20901      696D6572 
 20901      00
 20902              	.LASF159:
 20903 21c9 705F666C 		.ascii	"p_flags\000"
 20903      61677300 
 20904              	.LASF655:
 20905 21d1 6572726F 		.ascii	"error\000"
 20905      7200
 20906              	.LASF259:
 20907 21d7 65776D61 		.ascii	"ewmask\000"
 20907      736B00
 20908              	.LASF293:
 20909 21de 656C5F66 		.ascii	"el_flags\000"
 20909      6C616773 
 20909      00
 20910              	.LASF860:
 20911 21e7 636F7274 		.ascii	"cortexm_cache_clean\000"
 20911      65786D5F 
 20911      63616368 
 20911      655F636C 
 20911      65616E00 
 20912              	.LASF801:
 20913 21fb 44425F44 		.ascii	"DB_DHCSR\000"
 20913      48435352 
 20913      00
 20914              	.LASF295:
 20915 2204 6576656E 		.ascii	"event_source\000"
 20915      745F736F 
 20915      75726365 
 20915      00
 20916              	.LASF856:
 20917 2211 636F7274 		.ascii	"cortexm_check_error\000"
 20917      65786D5F 
 20917      63686563 
 20917      6B5F6572 
 20917      726F7200 
 20918              	.LASF167:
 20919 2225 705F6D74 		.ascii	"p_mtxlist\000"
 20919      786C6973 
 20919      7400
 20920              	.LASF765:
 20921 222f 666C6173 		.ascii	"flash_write_func\000"
ARM GAS  /tmp/cchERvVK.s 			page 398


 20921      685F7772 
 20921      6974655F 
 20921      66756E63 
 20921      00
 20922              	.LASF367:
 20923 2240 43414E44 		.ascii	"CAND1\000"
 20923      3100
 20924              	.LASF222:
 20925 2246 46533152 		.ascii	"FS1R\000"
 20925      00
 20926              	.LASF140:
 20927 224b 74737461 		.ascii	"tstate_t\000"
 20927      74655F74 
 20927      00
 20928              	.LASF131:
 20929 2254 5F676C6F 		.ascii	"_global_impure_ptr\000"
 20929      62616C5F 
 20929      696D7075 
 20929      72655F70 
 20929      747200
 20930              	.LASF570:
 20931 2267 4441494E 		.ascii	"DAINT\000"
 20931      5400
 20932              	.LASF463:
 20933 226d 53504943 		.ascii	"SPIConfig\000"
 20933      6F6E6669 
 20933      6700
 20934              	.LASF83:
 20935 2277 5F756E73 		.ascii	"_unspecified_locale_info\000"
 20935      70656369 
 20935      66696564 
 20935      5F6C6F63 
 20935      616C655F 
 20936              	.LASF334:
 20937 2290 70757064 		.ascii	"pupdr\000"
 20937      7200
 20938              	.LASF466:
 20939 2296 7472616E 		.ascii	"transmitting\000"
 20939      736D6974 
 20939      74696E67 
 20939      00
 20940              	.LASF157:
 20941 22a3 705F6E61 		.ascii	"p_name\000"
 20941      6D6500
 20942              	.LASF85:
 20943 22aa 5F5F7364 		.ascii	"__sdidinit\000"
 20943      6964696E 
 20943      697400
 20944              	.LASF440:
 20945 22b5 53657269 		.ascii	"SerialDriver\000"
 20945      616C4472 
 20945      69766572 
 20945      00
 20946              	.LASF489:
 20947 22c2 75736273 		.ascii	"usbstate_t\000"
 20947      74617465 
 20947      5F7400
ARM GAS  /tmp/cchERvVK.s 			page 399


 20948              	.LASF532:
 20949 22cd 444F4550 		.ascii	"DOEPTSIZ\000"
 20949      5453495A 
 20949      00
 20950              	.LASF135:
 20951 22d6 5F5F6170 		.ascii	"__ap\000"
 20951      00
 20952              	.LASF275:
 20953 22db 63665F6F 		.ascii	"cf_off_ctx\000"
 20953      66665F63 
 20953      747800
 20954              	.LASF30:
 20955 22e6 5F666C6F 		.ascii	"_flock_t\000"
 20955      636B5F74 
 20955      00
 20956              	.LASF191:
 20957 22ef 76697274 		.ascii	"virtual_timers_list_t\000"
 20957      75616C5F 
 20957      74696D65 
 20957      72735F6C 
 20957      6973745F 
 20958              	.LASF331:
 20959 2305 6D6F6465 		.ascii	"moder\000"
 20959      7200
 20960              	.LASF889:
 20961 230b 74617267 		.ascii	"target_halt_resume\000"
 20961      65745F68 
 20961      616C745F 
 20961      72657375 
 20961      6D6500
 20962              	.LASF751:
 20963 231e 6572726E 		.ascii	"errno_\000"
 20963      6F5F00
 20964              	.LASF458:
 20965 2325 53504944 		.ascii	"SPIDriver\000"
 20965      72697665 
 20965      7200
 20966              	.LASF627:
 20967 232f 65786365 		.ascii	"exception\000"
 20967      7074696F 
 20967      6E00
 20968              	.LASF261:
 20969 2339 735F7175 		.ascii	"s_queue\000"
 20969      65756500 
 20970              	.LASF835:
 20971 2341 636F7274 		.ascii	"cortexm_halt_poll\000"
 20971      65786D5F 
 20971      68616C74 
 20971      5F706F6C 
 20971      6C00
 20972              	.LASF242:
 20973 2353 49325343 		.ascii	"I2SCFGR\000"
 20973      46475200 
 20974              	.LASF819:
 20975 235b 6477745F 		.ascii	"dwt_func\000"
 20975      66756E63 
 20975      00
ARM GAS  /tmp/cchERvVK.s 			page 400


 20976              	.LASF766:
 20977 2364 666C6173 		.ascii	"flash_done_func\000"
 20977      685F646F 
 20977      6E655F66 
 20977      756E6300 
 20978              	.LASF780:
 20979 2374 6F707469 		.ascii	"optind\000"
 20979      6E6400
 20980              	.LASF267:
 20981 237b 63685F69 		.ascii	"ch_identifier\000"
 20981      64656E74 
 20981      69666965 
 20981      7200
 20982              	.LASF450:
 20983 2389 77726974 		.ascii	"writet\000"
 20983      657400
 20984              	.LASF802:
 20985 2390 44425F44 		.ascii	"DB_DCRSR\000"
 20985      43525352 
 20985      00
 20986              	.LASF10:
 20987 2399 6C6F6E67 		.ascii	"long long int\000"
 20987      206C6F6E 
 20987      6720696E 
 20987      7400
 20988              	.LASF550:
 20989 23a7 48505458 		.ascii	"HPTXFSIZ\000"
 20989      4653495A 
 20989      00
 20990              	.LASF274:
 20991 23b0 63665F6F 		.ascii	"cf_off_prio\000"
 20991      66665F70 
 20991      72696F00 
 20992              	.LASF75:
 20993 23bc 5F666C61 		.ascii	"_flags2\000"
 20993      67733200 
 20994              	.LASF830:
 20995 23c4 6672616D 		.ascii	"framesize\000"
 20995      6573697A 
 20995      6500
 20996              	.LASF769:
 20997 23ce 68616E64 		.ascii	"handler\000"
 20997      6C657200 
 20998              	.LASF667:
 20999 23d6 64657461 		.ascii	"detach\000"
 20999      636800
 21000              	.LASF422:
 21001 23dd 6963756D 		.ascii	"icumode_t\000"
 21001      6F64655F 
 21001      7400
 21002              	.LASF597:
 21003 23e7 7478636E 		.ascii	"txcnt\000"
 21003      7400
 21004              	.LASF617:
 21005 23ed 6765745F 		.ascii	"get_descriptor_cb\000"
 21005      64657363 
 21005      72697074 
ARM GAS  /tmp/cchERvVK.s 			page 401


 21005      6F725F63 
 21005      6200
 21006              	.LASF84:
 21007 23ff 5F6C6F63 		.ascii	"_locale\000"
 21007      616C6500 
 21008              	.LASF146:
 21009 2407 6576656E 		.ascii	"eventflags_t\000"
 21009      74666C61 
 21009      67735F74 
 21009      00
 21010              	.LASF454:
 21011 2414 5350495F 		.ascii	"SPI_READY\000"
 21011      52454144 
 21011      5900
 21012              	.LASF891:
 21013 241e 7365746A 		.ascii	"setjmp\000"
 21013      6D7000
 21014              	.LASF677:
 21015 2425 68616C74 		.ascii	"halt_request\000"
 21015      5F726571 
 21015      75657374 
 21015      00
 21016              	.LASF894:
 21017 2432 706C6174 		.ascii	"platform_srst_set_val\000"
 21017      666F726D 
 21017      5F737273 
 21017      745F7365 
 21017      745F7661 
 21018              	.LASF887:
 21019 2448 74635F77 		.ascii	"tc_write\000"
 21019      72697465 
 21019      00
 21020              	.LASF852:
 21021 2451 63706163 		.ascii	"cpacr\000"
 21021      7200
 21022              	.LASF773:
 21023 2457 636D6473 		.ascii	"cmds\000"
 21023      00
 21024              	.LASF586:
 21025 245c 4649464F 		.ascii	"FIFO\000"
 21025      00
 21026              	.LASF857:
 21027 2461 636F7274 		.ascii	"cortexm_mem_write\000"
 21027      65786D5F 
 21027      6D656D5F 
 21027      77726974 
 21027      6500
 21028              	.LASF218:
 21029 2473 73464946 		.ascii	"sFIFOMailBox\000"
 21029      4F4D6169 
 21029      6C426F78 
 21029      00
 21030              	.LASF644:
 21031 2480 6A746167 		.ascii	"jtag_dev_count\000"
 21031      5F646576 
 21031      5F636F75 
 21031      6E7400
ARM GAS  /tmp/cchERvVK.s 			page 402


 21032              	.LASF622:
 21033 248f 706C6174 		.ascii	"platform_swdio_port\000"
 21033      666F726D 
 21033      5F737764 
 21033      696F5F70 
 21033      6F727400 
 21034              	.LASF565:
 21035 24a3 4443544C 		.ascii	"DCTL\000"
 21035      00
 21036              	.LASF911:
 21037 24a8 61646976 		.ascii	"adiv5_mem_write\000"
 21037      355F6D65 
 21037      6D5F7772 
 21037      69746500 
 21038              	.LASF592:
 21039 24b8 74786275 		.ascii	"txbuf\000"
 21039      6600
 21040              	.LASF584:
 21041 24be 50434743 		.ascii	"PCGCCTL\000"
 21041      43544C00 
 21042              	.LASF502:
 21043 24c6 5553425F 		.ascii	"USB_EVENT_WAKEUP\000"
 21043      4556454E 
 21043      545F5741 
 21043      4B455550 
 21043      00
 21044              	.LASF682:
 21045 24d7 62775F6C 		.ascii	"bw_list\000"
 21045      69737400 
 21046              	.LASF156:
 21047 24df 705F6F6C 		.ascii	"p_older\000"
 21047      64657200 
 21048              	.LASF346:
 21049 24e7 50494461 		.ascii	"PIData\000"
 21049      746100
 21050              	.LASF614:
 21051 24ee 73657475 		.ascii	"setup_buf\000"
 21051      705F6275 
 21051      6600
 21052              	.LASF547:
 21053 24f8 72657376 		.ascii	"resvd34\000"
 21053      64333400 
 21054              	.LASF461:
 21055 2500 7373706F 		.ascii	"ssport\000"
 21055      727400
 21056              	.LASF399:
 21057 2507 4943555F 		.ascii	"ICU_UNINIT\000"
 21057      554E494E 
 21057      495400
 21058              	.LASF170:
 21059 2512 74687265 		.ascii	"thread_reference_t\000"
 21059      61645F72 
 21059      65666572 
 21059      656E6365 
 21059      5F7400
 21060              	.LASF467:
 21061 2525 72656365 		.ascii	"receiving\000"
ARM GAS  /tmp/cchERvVK.s 			page 403


 21061      6976696E 
 21061      6700
 21062              	.LASF98:
 21063 252f 5F5F4649 		.ascii	"__FILE\000"
 21063      4C4500
 21064              	.LASF800:
 21065 2536 74646573 		.ascii	"tdesc_cortex_mf\000"
 21065      635F636F 
 21065      72746578 
 21065      5F6D6600 
 21066              	.LASF428:
 21067 2546 66726571 		.ascii	"frequency\000"
 21067      75656E63 
 21067      7900
 21068              	.LASF829:
 21069 2550 72657463 		.ascii	"retcode\000"
 21069      6F646500 
 21070              	.LASF35:
 21071 2558 5F736967 		.ascii	"_sign\000"
 21071      6E00
 21072              	.LASF611:
 21073 255e 696E5F73 		.ascii	"in_state\000"
 21073      74617465 
 21073      00
 21074              	.LASF642:
 21075 2567 6A746167 		.ascii	"jtag_dev_t\000"
 21075      5F646576 
 21075      5F7400
 21076              	.LASF40:
 21077 2572 5F5F746D 		.ascii	"__tm_min\000"
 21077      5F6D696E 
 21077      00
 21078              	.LASF268:
 21079 257b 63685F7A 		.ascii	"ch_zero\000"
 21079      65726F00 
 21080              	.LASF382:
 21081 2583 46415354 		.ascii	"FAST_DUTY_CYCLE_2\000"
 21081      5F445554 
 21081      595F4359 
 21081      434C455F 
 21081      3200
 21082              	.LASF907:
 21083 2595 6E726635 		.ascii	"nrf51_probe\000"
 21083      315F7072 
 21083      6F626500 
 21084              	.LASF273:
 21085 25a1 63685F74 		.ascii	"ch_threadsize\000"
 21085      68726561 
 21085      6473697A 
 21085      6500
 21086              	.LASF237:
 21087 25af 464C5452 		.ascii	"FLTR\000"
 21087      00
 21088              	.LASF412:
 21089 25b4 43434D52 		.ascii	"CCMR1\000"
 21089      3100
 21090              	.LASF413:
ARM GAS  /tmp/cchERvVK.s 			page 404


 21091 25ba 43434D52 		.ascii	"CCMR2\000"
 21091      3200
 21092              	.LASF417:
 21093 25c0 43434D52 		.ascii	"CCMR3\000"
 21093      3300
 21094              	.LASF13:
 21095 25c6 756E7369 		.ascii	"unsigned int\000"
 21095      676E6564 
 21095      20696E74 
 21095      00
 21096              	.LASF112:
 21097 25d3 5F723438 		.ascii	"_r48\000"
 21097      00
 21098              	.LASF554:
 21099 25d8 48464952 		.ascii	"HFIR\000"
 21099      00
 21100              	.LASF484:
 21101 25dd 5553425F 		.ascii	"USB_UNINIT\000"
 21101      554E494E 
 21101      495400
 21102              	.LASF314:
 21103 25e8 73747265 		.ascii	"stream\000"
 21103      616D00
 21104              	.LASF703:
 21105 25ef 54415247 		.ascii	"TARGET_BREAK_HARD\000"
 21105      45545F42 
 21105      5245414B 
 21105      5F484152 
 21105      4400
 21106              	.LASF380:
 21107 2601 6932636F 		.ascii	"i2copmode_t\000"
 21107      706D6F64 
 21107      655F7400 
 21108              	.LASF895:
 21109 260d 61646976 		.ascii	"adiv5_mem_write_sized\000"
 21109      355F6D65 
 21109      6D5F7772 
 21109      6974655F 
 21109      73697A65 
 21110              	.LASF792:
 21111 2623 68775F62 		.ascii	"hw_breakpoint_max\000"
 21111      7265616B 
 21111      706F696E 
 21111      745F6D61 
 21111      7800
 21112              	.LASF870:
 21113 2635 73747263 		.ascii	"strcmp\000"
 21113      6D7000
 21114              	.LASF752:
 21115 263c 696E7465 		.ascii	"interrupted\000"
 21115      72727570 
 21115      74656400 
 21116              	.LASF2:
 21117 2648 73686F72 		.ascii	"short int\000"
 21117      7420696E 
 21117      7400
 21118              	.LASF508:
ARM GAS  /tmp/cchERvVK.s 			page 405


 21119 2652 75736263 		.ascii	"usbcallback_t\000"
 21119      616C6C62 
 21119      61636B5F 
 21119      7400
 21120              	.LASF64:
 21121 2660 5F726561 		.ascii	"_read\000"
 21121      6400
 21122              	.LASF694:
 21123 2666 54415247 		.ascii	"TARGET_HALT_RUNNING\000"
 21123      45545F48 
 21123      414C545F 
 21123      52554E4E 
 21123      494E4700 
 21124              	.LASF537:
 21125 267a 47555342 		.ascii	"GUSBCFG\000"
 21125      43464700 
 21126              	.LASF246:
 21127 2682 55534152 		.ascii	"USART_TypeDef\000"
 21127      545F5479 
 21127      70654465 
 21127      6600
 21128              	.LASF310:
 21129 2690 6F757470 		.ascii	"output_queue_t\000"
 21129      75745F71 
 21129      75657565 
 21129      5F7400
 21130              	.LASF102:
 21131 269f 5F72616E 		.ascii	"_rand48\000"
 21131      64343800 
 21132              	.LASF587:
 21133 26a7 73746D33 		.ascii	"stm32_otg_t\000"
 21133      325F6F74 
 21133      675F7400 
 21134              	.LASF387:
 21135 26b3 64757479 		.ascii	"duty_cycle\000"
 21135      5F637963 
 21135      6C6500
 21136              	.LASF864:
 21137 26be 6D656D5F 		.ascii	"mem_end\000"
 21137      656E6400 
 21138              	.LASF505:
 21139 26c6 75645F73 		.ascii	"ud_size\000"
 21139      697A6500 
 21140              	.LASF654:
 21141 26ce 64705F72 		.ascii	"dp_read\000"
 21141      65616400 
 21142              	.LASF609:
 21143 26d6 696E5F6D 		.ascii	"in_maxsize\000"
 21143      61787369 
 21143      7A6500
 21144              	.LASF134:
 21145 26e1 5F5F7661 		.ascii	"__va_list\000"
 21145      5F6C6973 
 21145      7400
 21146              	.LASF343:
 21147 26eb 50464461 		.ascii	"PFData\000"
 21147      746100
ARM GAS  /tmp/cchERvVK.s 			page 406


 21148              	.LASF808:
 21149 26f2 666C6167 		.ascii	"flags\000"
 21149      7300
 21150              	.LASF158:
 21151 26f8 705F7374 		.ascii	"p_state\000"
 21151      61746500 
 21152              	.LASF172:
 21153 2700 63685F74 		.ascii	"ch_threads_list\000"
 21153      68726561 
 21153      64735F6C 
 21153      69737400 
 21154              	.LASF234:
 21155 2710 4F415231 		.ascii	"OAR1\000"
 21155      00
 21156              	.LASF235:
 21157 2715 4F415232 		.ascii	"OAR2\000"
 21157      00
 21158              	.LASF679:
 21159 271a 68616C74 		.ascii	"halt_resume\000"
 21159      5F726573 
 21159      756D6500 
 21160              	.LASF438:
 21161 2726 53445F52 		.ascii	"SD_READY\000"
 21161      45414459 
 21161      00
 21162              		.ident	"GCC: (GNU Tools for Arm Embedded Processors 7-2018-q3-update) 7.3.1 20180622 (release) [AR
ARM GAS  /tmp/cchERvVK.s 			page 407


DEFINED SYMBOLS
                            *ABS*:0000000000000000 cortexm.c
     /tmp/cchERvVK.s:18     .text.cortexm_check_error:0000000000000000 $t
     /tmp/cchERvVK.s:25     .text.cortexm_check_error:0000000000000000 cortexm_check_error
     /tmp/cchERvVK.s:65     .text.cortexm_vector_catch:0000000000000000 $t
     /tmp/cchERvVK.s:72     .text.cortexm_vector_catch:0000000000000000 cortexm_vector_catch
     /tmp/cchERvVK.s:251    .text.cortexm_vector_catch:00000000000000d0 $d
     /tmp/cchERvVK.s:262    .text.cortexm_breakwatch_clear:0000000000000000 $t
     /tmp/cchERvVK.s:269    .text.cortexm_breakwatch_clear:0000000000000000 cortexm_breakwatch_clear
     /tmp/cchERvVK.s:351    .text.cortexm_breakwatch_clear:0000000000000048 $d
     /tmp/cchERvVK.s:356    .text.cortexm_breakwatch_set:0000000000000000 $t
     /tmp/cchERvVK.s:363    .text.cortexm_breakwatch_set:0000000000000000 cortexm_breakwatch_set
     /tmp/cchERvVK.s:630    .text.cortexm_breakwatch_set:0000000000000140 $d
     /tmp/cchERvVK.s:639    .text.cortexm_pc_read:0000000000000000 $t
     /tmp/cchERvVK.s:646    .text.cortexm_pc_read:0000000000000000 cortexm_pc_read
     /tmp/cchERvVK.s:680    .text.cortexm_pc_read:0000000000000018 $d
     /tmp/cchERvVK.s:686    .text.cortexm_detach:0000000000000000 $t
     /tmp/cchERvVK.s:694    .text.cortexm_detach:0000000000000000 cortexm_detach
     /tmp/cchERvVK.s:784    .text.cortexm_detach:0000000000000058 $d
     /tmp/cchERvVK.s:792    .text.cortexm_halt_request:0000000000000000 $t
     /tmp/cchERvVK.s:799    .text.cortexm_halt_request:0000000000000000 cortexm_halt_request
     /tmp/cchERvVK.s:873    .text.cortexm_halt_request:0000000000000054 $d
     /tmp/cchERvVK.s:881    .text.cortexm_halt_resume:0000000000000000 $t
     /tmp/cchERvVK.s:889    .text.cortexm_halt_resume:0000000000000000 cortexm_halt_resume
     /tmp/cchERvVK.s:1005   .text.cortexm_halt_resume:0000000000000078 $d
     /tmp/cchERvVK.s:1019   .text.cortexm_halt_poll:0000000000000000 $t
     /tmp/cchERvVK.s:1026   .text.cortexm_halt_poll:0000000000000000 cortexm_halt_poll
     /tmp/cchERvVK.s:1533   .text.cortexm_halt_poll:000000000000027e $d
     /tmp/cchERvVK.s:1592   .text.cortexm_halt_poll:00000000000002c4 $d
     /tmp/cchERvVK.s:1606   .text.cortexm_halt_poll:00000000000002e8 $t
     /tmp/cchERvVK.s:1814   .text.cortexm_halt_poll:0000000000000408 $d
     /tmp/cchERvVK.s:1824   .text.cortexm_reset:0000000000000000 $t
     /tmp/cchERvVK.s:1831   .text.cortexm_reset:0000000000000000 cortexm_reset
     /tmp/cchERvVK.s:1914   .text.cortexm_reset:0000000000000058 $d
     /tmp/cchERvVK.s:1922   .text.cortexm_regs_write:0000000000000000 $t
     /tmp/cchERvVK.s:1929   .text.cortexm_regs_write:0000000000000000 cortexm_regs_write
     /tmp/cchERvVK.s:2107   .text.cortexm_regs_write:00000000000000c0 $d
     /tmp/cchERvVK.s:2114   .text.cortexm_regs_read:0000000000000000 $t
     /tmp/cchERvVK.s:2121   .text.cortexm_regs_read:0000000000000000 cortexm_regs_read
     /tmp/cchERvVK.s:2293   .text.cortexm_regs_read:00000000000000ac $d
     /tmp/cchERvVK.s:2300   .text.cortexm_priv_free:0000000000000000 $t
     /tmp/cchERvVK.s:2307   .text.cortexm_priv_free:0000000000000000 cortexm_priv_free
     /tmp/cchERvVK.s:2340   .text.cortexm_forced_halt:0000000000000000 $t
     /tmp/cchERvVK.s:2347   .text.cortexm_forced_halt:0000000000000000 cortexm_forced_halt
     /tmp/cchERvVK.s:2427   .text.cortexm_forced_halt:0000000000000044 $d
     /tmp/cchERvVK.s:2433   .text.cortexm_attach:0000000000000000 $t
     /tmp/cchERvVK.s:2441   .text.cortexm_attach:0000000000000000 cortexm_attach
     /tmp/cchERvVK.s:2599   .text.cortexm_attach:00000000000000dc $d
     /tmp/cchERvVK.s:2609   .text.cortexm_cache_clean.isra.1:0000000000000000 $t
     /tmp/cchERvVK.s:2616   .text.cortexm_cache_clean.isra.1:0000000000000000 cortexm_cache_clean.isra.1
     /tmp/cchERvVK.s:2726   .text.cortexm_cache_clean.isra.1:000000000000007c $d
     /tmp/cchERvVK.s:2732   .text.cortexm_mem_write:0000000000000000 $t
     /tmp/cchERvVK.s:2739   .text.cortexm_mem_write:0000000000000000 cortexm_mem_write
     /tmp/cchERvVK.s:2807   .text.cortexm_mem_read:0000000000000000 $t
     /tmp/cchERvVK.s:2814   .text.cortexm_mem_read:0000000000000000 cortexm_mem_read
     /tmp/cchERvVK.s:2878   .text.cortexm_ap:0000000000000000 $t
     /tmp/cchERvVK.s:2886   .text.cortexm_ap:0000000000000000 cortexm_ap
ARM GAS  /tmp/cchERvVK.s 			page 408


     /tmp/cchERvVK.s:2904   .text.cortexm_probe:0000000000000000 $t
     /tmp/cchERvVK.s:2912   .text.cortexm_probe:0000000000000000 cortexm_probe
     /tmp/cchERvVK.s:3227   .text.cortexm_probe:00000000000001a8 $d
     /tmp/cchERvVK.s:3254   .text.cortexm_mem_write_sized:0000000000000000 $t
     /tmp/cchERvVK.s:3262   .text.cortexm_mem_write_sized:0000000000000000 cortexm_mem_write_sized
     /tmp/cchERvVK.s:3329   .text.cortexm_run_stub:0000000000000000 $t
     /tmp/cchERvVK.s:3337   .text.cortexm_run_stub:0000000000000000 cortexm_run_stub
     /tmp/cchERvVK.s:3484   .text.cortexm_run_stub:00000000000000b0 $d
     /tmp/cchERvVK.s:3526   .rodata.cortexm_cmd_list:0000000000000000 cortexm_cmd_list
     /tmp/cchERvVK.s:3490   .rodata:0000000000000000 $d
     /tmp/cchERvVK.s:3512   .rodata.CSWTCH.44:0000000000000000 $d
     /tmp/cchERvVK.s:3516   .rodata.CSWTCH.44:0000000000000000 CSWTCH.44
     /tmp/cchERvVK.s:3522   .rodata.cortexm_cmd_list:0000000000000000 $d
     /tmp/cchERvVK.s:3534   .rodata.cortexm_driver_str:0000000000000000 $d
     /tmp/cchERvVK.s:3538   .rodata.cortexm_driver_str:0000000000000000 cortexm_driver_str
     /tmp/cchERvVK.s:3541   .rodata.cortexm_halt_poll.str1.4:0000000000000000 $d
     /tmp/cchERvVK.s:3548   .rodata.cortexm_halt_request.str1.4:0000000000000000 $d
     /tmp/cchERvVK.s:3552   .rodata.cortexm_probe.str1.4:0000000000000000 $d
     /tmp/cchERvVK.s:3558   .rodata.cortexm_run_stub.str1.4:0000000000000000 $d
     /tmp/cchERvVK.s:3562   .rodata.cortexm_vector_catch.str1.4:0000000000000000 $d
     /tmp/cchERvVK.s:3574   .rodata.regnum_cortex_m:0000000000000000 $d
     /tmp/cchERvVK.s:3578   .rodata.regnum_cortex_m:0000000000000000 regnum_cortex_m
     /tmp/cchERvVK.s:3600   .rodata.regnum_cortex_mf:0000000000000000 $d
     /tmp/cchERvVK.s:3604   .rodata.regnum_cortex_mf:0000000000000000 regnum_cortex_mf
     /tmp/cchERvVK.s:3639   .rodata.str1.4:0000000000000000 $d
     /tmp/cchERvVK.s:3667   .rodata.tdesc_cortex_m:0000000000000000 $d
     /tmp/cchERvVK.s:3671   .rodata.tdesc_cortex_m:0000000000000000 tdesc_cortex_m
     /tmp/cchERvVK.s:3674   .rodata.tdesc_cortex_mf:0000000000000000 $d
     /tmp/cchERvVK.s:3678   .rodata.tdesc_cortex_mf:0000000000000000 tdesc_cortex_mf
     /tmp/cchERvVK.s:1552   .text.cortexm_halt_poll:0000000000000291 $d
     /tmp/cchERvVK.s:1552   .text.cortexm_halt_poll:0000000000000292 $t

UNDEFINED SYMBOLS
tc_printf
strcmp
target_mem_write32
target_mem_read32
setjmp
innermost_exception
target_mem_read16
target_list_free
target_regs_read
target_mem_read
target_check_error
target_regs_write
commands_printf
tc_system
target_halt_resume
tc_rename
tc_unlink
tc_lseek
tc_isatty
tc_read
tc_write
tc_close
tc_open
platform_delay
ARM GAS  /tmp/cchERvVK.s 			page 409


platform_srst_set_val
adiv5_ap_write
adiv5_ap_unref
free
target_halt_request
platform_time_ms
cortexm_wait_timeout
adiv5_mem_write
adiv5_mem_read
target_new
adiv5_ap_ref
calloc
target_add_commands
stm32f1_probe
stm32f4_probe
stm32h7_probe
stm32l0_probe
stm32l4_probe
nrf51_probe
adiv5_mem_write_sized
memset
raise_exception
