ARM GAS  /tmp/ccDVrNjO.s 			page 1


   1              		.cpu cortex-m4
   2              		.eabi_attribute 27, 1
   3              		.eabi_attribute 28, 1
   4              		.eabi_attribute 20, 1
   5              		.eabi_attribute 21, 1
   6              		.eabi_attribute 23, 3
   7              		.eabi_attribute 24, 1
   8              		.eabi_attribute 25, 1
   9              		.eabi_attribute 26, 1
  10              		.eabi_attribute 30, 2
  11              		.eabi_attribute 34, 1
  12              		.eabi_attribute 18, 4
  13              		.file	"flash_helper.c"
  14              		.text
  15              	.Ltext0:
  16              		.cfi_sections	.debug_frame
  17              		.section	.text.flash_helper_erase_new_app,"ax",%progbits
  18              		.align	1
  19              		.p2align 4,,15
  20              		.global	flash_helper_erase_new_app
  21              		.syntax unified
  22              		.thumb
  23              		.thumb_func
  24              		.fpu fpv4-sp-d16
  25              		.type	flash_helper_erase_new_app, %function
  26              	flash_helper_erase_new_app:
  27              	.LFB256:
  28              		.file 1 "flash_helper.c"
  29              		.loc 1 104 0
  30              		.cfi_startproc
  31              		@ args = 0, pretend = 0, frame = 8
  32              		@ frame_needed = 0, uses_anonymous_args = 0
  33              	.LVL0:
  34 0000 10B5     		push	{r4, lr}
  35              		.cfi_def_cfa_offset 8
  36              		.cfi_offset 4, -8
  37              		.cfi_offset 14, -4
  38 0002 82B0     		sub	sp, sp, #8
  39              		.cfi_def_cfa_offset 16
  40              		.loc 1 104 0
  41 0004 0446     		mov	r4, r0
  42              		.loc 1 105 0
  43 0006 FFF7FEFF 		bl	FLASH_Unlock
  44              	.LVL1:
  45              		.loc 1 106 0
  46 000a F220     		movs	r0, #242
  47 000c FFF7FEFF 		bl	FLASH_ClearFlag
  48              	.LVL2:
  49              		.loc 1 109 0
  50 0010 04F10064 		add	r4, r4, #134217728
  51              	.LVL3:
  52              		.loc 1 111 0
  53 0014 FFF7FEFF 		bl	mc_interface_unlock
  54              	.LVL4:
  55              		.loc 1 112 0
  56 0018 FFF7FEFF 		bl	mc_interface_release_motor
  57              	.LVL5:
ARM GAS  /tmp/ccDVrNjO.s 			page 2


  58              		.loc 1 113 0
  59 001c FFF7FEFF 		bl	utils_sys_lock_cnt
  60              	.LVL6:
  61              		.loc 1 114 0
  62 0020 FFF7FEFF 		bl	timeout_configure_IWDT_slowest
  63              	.LVL7:
  64              	.LBB23:
  65              		.loc 1 117 0
  66 0024 194B     		ldr	r3, .L10
  67              	.LBE23:
  68              		.loc 1 109 0
  69 0026 04F50024 		add	r4, r4, #524288
  70              	.LVL8:
  71              	.LBB28:
  72              		.loc 1 117 0
  73 002a 9C42     		cmp	r4, r3
  74 002c 1AD9     		bls	.L2
  75              	.LBB24:
  76              		.loc 1 118 0
  77 002e 0221     		movs	r1, #2
  78 0030 4020     		movs	r0, #64
  79 0032 FFF7FEFF 		bl	FLASH_EraseSector
  80              	.LVL9:
  81 0036 80B2     		uxth	r0, r0
  82              	.LVL10:
  83              		.loc 1 119 0
  84 0038 0928     		cmp	r0, #9
  85 003a 1CD1     		bne	.L3
  86              	.LVL11:
  87              	.LBE24:
  88              		.loc 1 117 0
  89 003c 144B     		ldr	r3, .L10+4
  90 003e 9C42     		cmp	r4, r3
  91 0040 10D9     		bls	.L2
  92              	.LBB25:
  93              		.loc 1 118 0
  94 0042 0221     		movs	r1, #2
  95 0044 4820     		movs	r0, #72
  96              	.LVL12:
  97 0046 FFF7FEFF 		bl	FLASH_EraseSector
  98              	.LVL13:
  99 004a 80B2     		uxth	r0, r0
 100              	.LVL14:
 101              		.loc 1 119 0
 102 004c 0928     		cmp	r0, #9
 103 004e 12D1     		bne	.L3
 104              	.LVL15:
 105              	.LBE25:
 106              		.loc 1 117 0
 107 0050 104B     		ldr	r3, .L10+8
 108 0052 9C42     		cmp	r4, r3
 109 0054 06D9     		bls	.L2
 110              	.LBB26:
 111              		.loc 1 118 0
 112 0056 0221     		movs	r1, #2
 113 0058 5020     		movs	r0, #80
 114              	.LVL16:
ARM GAS  /tmp/ccDVrNjO.s 			page 3


 115 005a FFF7FEFF 		bl	FLASH_EraseSector
 116              	.LVL17:
 117 005e 80B2     		uxth	r0, r0
 118              	.LVL18:
 119              		.loc 1 119 0
 120 0060 0928     		cmp	r0, #9
 121 0062 08D1     		bne	.L3
 122              	.LVL19:
 123              	.L2:
 124              	.LBE26:
 125              	.LBE28:
 126              		.loc 1 130 0
 127 0064 FFF7FEFF 		bl	FLASH_Lock
 128              	.LVL20:
 129              		.loc 1 131 0
 130 0068 FFF7FEFF 		bl	timeout_configure_IWDT
 131              	.LVL21:
 132              		.loc 1 132 0
 133 006c FFF7FEFF 		bl	utils_sys_unlock_cnt
 134              	.LVL22:
 135              		.loc 1 134 0
 136 0070 0920     		movs	r0, #9
 137              		.loc 1 135 0
 138 0072 02B0     		add	sp, sp, #8
 139              		.cfi_remember_state
 140              		.cfi_def_cfa_offset 8
 141              		@ sp needed
 142 0074 10BD     		pop	{r4, pc}
 143              	.LVL23:
 144              	.L3:
 145              		.cfi_restore_state
 146 0076 0190     		str	r0, [sp, #4]
 147              	.LBB29:
 148              	.LBB27:
 149              		.loc 1 120 0
 150 0078 FFF7FEFF 		bl	FLASH_Lock
 151              	.LVL24:
 152              		.loc 1 121 0
 153 007c FFF7FEFF 		bl	timeout_configure_IWDT
 154              	.LVL25:
 155              		.loc 1 122 0
 156 0080 FFF7FEFF 		bl	utils_sys_unlock_cnt
 157              	.LVL26:
 158              		.loc 1 123 0
 159 0084 0198     		ldr	r0, [sp, #4]
 160              	.LBE27:
 161              	.LBE29:
 162              		.loc 1 135 0
 163 0086 02B0     		add	sp, sp, #8
 164              		.cfi_def_cfa_offset 8
 165              		@ sp needed
 166 0088 10BD     		pop	{r4, pc}
 167              	.LVL27:
 168              	.L11:
 169 008a 00BF     		.align	2
 170              	.L10:
 171 008c 00000808 		.word	134742016
ARM GAS  /tmp/ccDVrNjO.s 			page 4


 172 0090 00000A08 		.word	134873088
 173 0094 00000C08 		.word	135004160
 174              		.cfi_endproc
 175              	.LFE256:
 176              		.size	flash_helper_erase_new_app, .-flash_helper_erase_new_app
 177              		.section	.text.flash_helper_erase_bootloader,"ax",%progbits
 178              		.align	1
 179              		.p2align 4,,15
 180              		.global	flash_helper_erase_bootloader
 181              		.syntax unified
 182              		.thumb
 183              		.thumb_func
 184              		.fpu fpv4-sp-d16
 185              		.type	flash_helper_erase_bootloader, %function
 186              	flash_helper_erase_bootloader:
 187              	.LFB257:
 188              		.loc 1 137 0
 189              		.cfi_startproc
 190              		@ args = 0, pretend = 0, frame = 0
 191              		@ frame_needed = 0, uses_anonymous_args = 0
 192 0000 10B5     		push	{r4, lr}
 193              		.cfi_def_cfa_offset 8
 194              		.cfi_offset 4, -8
 195              		.cfi_offset 14, -4
 196              		.loc 1 138 0
 197 0002 FFF7FEFF 		bl	FLASH_Unlock
 198              	.LVL28:
 199              		.loc 1 139 0
 200 0006 F220     		movs	r0, #242
 201 0008 FFF7FEFF 		bl	FLASH_ClearFlag
 202              	.LVL29:
 203              		.loc 1 142 0
 204 000c FFF7FEFF 		bl	mc_interface_unlock
 205              	.LVL30:
 206              		.loc 1 143 0
 207 0010 FFF7FEFF 		bl	mc_interface_release_motor
 208              	.LVL31:
 209              		.loc 1 144 0
 210 0014 FFF7FEFF 		bl	utils_sys_lock_cnt
 211              	.LVL32:
 212              		.loc 1 145 0
 213 0018 FFF7FEFF 		bl	timeout_configure_IWDT_slowest
 214              	.LVL33:
 215              		.loc 1 147 0
 216 001c 0221     		movs	r1, #2
 217 001e 5820     		movs	r0, #88
 218 0020 FFF7FEFF 		bl	FLASH_EraseSector
 219              	.LVL34:
 220 0024 84B2     		uxth	r4, r0
 221              	.LVL35:
 222              		.loc 1 148 0
 223 0026 092C     		cmp	r4, #9
 224 0028 03D0     		beq	.L13
 225              		.loc 1 149 0
 226 002a FFF7FEFF 		bl	FLASH_Lock
 227              	.LVL36:
 228              		.loc 1 158 0
ARM GAS  /tmp/ccDVrNjO.s 			page 5


 229 002e 2046     		mov	r0, r4
 230 0030 10BD     		pop	{r4, pc}
 231              	.LVL37:
 232              	.L13:
 233              		.loc 1 153 0
 234 0032 FFF7FEFF 		bl	FLASH_Lock
 235              	.LVL38:
 236              		.loc 1 154 0
 237 0036 FFF7FEFF 		bl	timeout_configure_IWDT
 238              	.LVL39:
 239              		.loc 1 155 0
 240 003a FFF7FEFF 		bl	utils_sys_unlock_cnt
 241              	.LVL40:
 242              		.loc 1 158 0
 243 003e 2046     		mov	r0, r4
 244 0040 10BD     		pop	{r4, pc}
 245              		.cfi_endproc
 246              	.LFE257:
 247              		.size	flash_helper_erase_bootloader, .-flash_helper_erase_bootloader
 248 0042 00BF     		.section	.text.flash_helper_write_new_app_data,"ax",%progbits
 249              		.align	1
 250              		.p2align 4,,15
 251              		.global	flash_helper_write_new_app_data
 252              		.syntax unified
 253              		.thumb
 254              		.thumb_func
 255              		.fpu fpv4-sp-d16
 256              		.type	flash_helper_write_new_app_data, %function
 257              	flash_helper_write_new_app_data:
 258              	.LFB258:
 259              		.loc 1 160 0
 260              		.cfi_startproc
 261              		@ args = 0, pretend = 0, frame = 0
 262              		@ frame_needed = 0, uses_anonymous_args = 0
 263              	.LVL41:
 264 0000 F8B5     		push	{r3, r4, r5, r6, r7, lr}
 265              		.cfi_def_cfa_offset 24
 266              		.cfi_offset 3, -24
 267              		.cfi_offset 4, -20
 268              		.cfi_offset 5, -16
 269              		.cfi_offset 6, -12
 270              		.cfi_offset 7, -8
 271              		.cfi_offset 14, -4
 272              		.loc 1 160 0
 273 0002 1746     		mov	r7, r2
 274 0004 0D46     		mov	r5, r1
 275 0006 0646     		mov	r6, r0
 276              		.loc 1 161 0
 277 0008 FFF7FEFF 		bl	FLASH_Unlock
 278              	.LVL42:
 279              		.loc 1 162 0
 280 000c F220     		movs	r0, #242
 281 000e FFF7FEFF 		bl	FLASH_ClearFlag
 282              	.LVL43:
 283              		.loc 1 165 0
 284 0012 FFF7FEFF 		bl	mc_interface_unlock
 285              	.LVL44:
ARM GAS  /tmp/ccDVrNjO.s 			page 6


 286              		.loc 1 166 0
 287 0016 FFF7FEFF 		bl	mc_interface_release_motor
 288              	.LVL45:
 289              		.loc 1 167 0
 290 001a FFF7FEFF 		bl	utils_sys_lock_cnt
 291              	.LVL46:
 292              		.loc 1 168 0
 293 001e FFF7FEFF 		bl	timeout_configure_IWDT_slowest
 294              	.LVL47:
 295              	.LBB30:
 296              		.loc 1 170 0
 297 0022 AFB1     		cbz	r7, .L17
 298 0024 A6F1F736 		sub	r6, r6, #-134744073
 299              	.LVL48:
 300 0028 A6F60806 		subw	r6, r6, #2056
 301              	.LVL49:
 302 002c 6C1E     		subs	r4, r5, #1
 303 002e 761B     		subs	r6, r6, r5
 304              	.LVL50:
 305 0030 2744     		add	r7, r7, r4
 306              	.LVL51:
 307 0032 01E0     		b	.L20
 308              	.LVL52:
 309              	.L18:
 310              		.loc 1 170 0 is_stmt 0 discriminator 2
 311 0034 BC42     		cmp	r4, r7
 312 0036 0BD0     		beq	.L17
 313              	.LVL53:
 314              	.L20:
 315 0038 3019     		adds	r0, r6, r4
 316              	.LBB31:
 317              		.loc 1 171 0 is_stmt 1
 318 003a 14F8011F 		ldrb	r1, [r4, #1]!	@ zero_extendqisi2
 319              	.LVL54:
 320 003e FFF7FEFF 		bl	FLASH_ProgramByte
 321              	.LVL55:
 322 0042 85B2     		uxth	r5, r0
 323              	.LVL56:
 324              		.loc 1 172 0
 325 0044 092D     		cmp	r5, #9
 326 0046 F5D0     		beq	.L18
 327              		.loc 1 173 0
 328 0048 FFF7FEFF 		bl	FLASH_Lock
 329              	.LVL57:
 330              	.LBE31:
 331              	.LBE30:
 332              		.loc 1 184 0
 333 004c 2846     		mov	r0, r5
 334 004e F8BD     		pop	{r3, r4, r5, r6, r7, pc}
 335              	.LVL58:
 336              	.L17:
 337              		.loc 1 183 0
 338 0050 0925     		movs	r5, #9
 339              		.loc 1 177 0
 340 0052 FFF7FEFF 		bl	FLASH_Lock
 341              	.LVL59:
 342              		.loc 1 179 0
ARM GAS  /tmp/ccDVrNjO.s 			page 7


 343 0056 FFF7FEFF 		bl	timeout_configure_IWDT
 344              	.LVL60:
 345              		.loc 1 181 0
 346 005a FFF7FEFF 		bl	utils_sys_unlock_cnt
 347              	.LVL61:
 348              		.loc 1 184 0
 349 005e 2846     		mov	r0, r5
 350 0060 F8BD     		pop	{r3, r4, r5, r6, r7, pc}
 351              		.cfi_endproc
 352              	.LFE258:
 353              		.size	flash_helper_write_new_app_data, .-flash_helper_write_new_app_data
 354 0062 00BF     		.section	.text.flash_helper_jump_to_bootloader,"ax",%progbits
 355              		.align	1
 356              		.p2align 4,,15
 357              		.global	flash_helper_jump_to_bootloader
 358              		.syntax unified
 359              		.thumb
 360              		.thumb_func
 361              		.fpu fpv4-sp-d16
 362              		.type	flash_helper_jump_to_bootloader, %function
 363              	flash_helper_jump_to_bootloader:
 364              	.LFB259:
 365              		.loc 1 189 0
 366              		.cfi_startproc
 367              		@ args = 0, pretend = 0, frame = 0
 368              		@ frame_needed = 1, uses_anonymous_args = 0
 369 0000 80B5     		push	{r7, lr}
 370              		.cfi_def_cfa_offset 8
 371              		.cfi_offset 7, -8
 372              		.cfi_offset 14, -4
 373 0002 00AF     		add	r7, sp, #0
 374              		.cfi_def_cfa_register 7
 375              		.loc 1 192 0
 376 0004 FFF7FEFF 		bl	mc_interface_unlock
 377              	.LVL62:
 378              		.loc 1 193 0
 379 0008 FFF7FEFF 		bl	mc_interface_release_motor
 380              	.LVL63:
 381              		.loc 1 194 0
 382 000c 1A48     		ldr	r0, .L30
 383 000e 026D     		ldr	r2, [r0, #80]
 384 0010 936B     		ldr	r3, [r2, #56]
 385 0012 23F40023 		bic	r3, r3, #524288
 386 0016 9363     		str	r3, [r2, #56]
 387              		.loc 1 195 0
 388 0018 FFF7FEFF 		bl	usbStop
 389              	.LVL64:
 390              		.loc 1 197 0
 391 001c 1748     		ldr	r0, .L30+4
 392 001e FFF7FEFF 		bl	sdStop
 393              	.LVL65:
 394              		.loc 1 198 0
 395 0022 0022     		movs	r2, #0
 396 0024 4FF48061 		mov	r1, #1024
 397 0028 1548     		ldr	r0, .L30+8
 398 002a FFF7FEFF 		bl	_pal_lld_setgroupmode
 399              	.LVL66:
ARM GAS  /tmp/ccDVrNjO.s 			page 8


 400              		.loc 1 199 0
 401 002e 0022     		movs	r2, #0
 402 0030 4FF40061 		mov	r1, #2048
 403 0034 1248     		ldr	r0, .L30+8
 404 0036 FFF7FEFF 		bl	_pal_lld_setgroupmode
 405              	.LVL67:
 406              		.loc 1 202 0
 407 003a FFF7FEFF 		bl	timeout_configure_IWDT_slowest
 408              	.LVL68:
 409              	.LBB32:
 410              	.LBB33:
 411              	.LBB34:
 412              	.LBB35:
 413              		.file 2 "ChibiOS_3.0.2/os/ext/CMSIS/include/core_cmFunc.h"
 414              		.loc 2 342 0
 415              		.syntax unified
 416              	@ 342 "ChibiOS_3.0.2/os/ext/CMSIS/include/core_cmFunc.h" 1
 417 003e 72B6     		cpsid i
 418              	@ 0 "" 2
 419              	.LVL69:
 420              		.thumb
 421              		.syntax unified
 422              	.LBE35:
 423              	.LBE34:
 424              	.LBE33:
 425              	.LBE32:
 426              		.loc 1 213 0
 427 0040 104A     		ldr	r2, .L30+12
 428              		.loc 1 219 0
 429 0042 114B     		ldr	r3, .L30+16
 430              		.loc 1 213 0
 431 0044 1068     		ldr	r0, [r2]
 432              	.LVL70:
 433              		.loc 1 219 0
 434 0046 4FF00062 		mov	r2, #134217728
 435 004a 5A60     		str	r2, [r3, #4]
 436              	.LVL71:
 437              	.LBB36:
 438              		.loc 1 222 0
 439 004c 0022     		movs	r2, #0
 440              	.LVL72:
 441              	.L27:
 442 004e 9300     		lsls	r3, r2, #2
 443 0050 03F16043 		add	r3, r3, #-536870912
 444 0054 03F56143 		add	r3, r3, #57600
 445              		.loc 1 222 0 is_stmt 0 discriminator 3
 446 0058 0132     		adds	r2, r2, #1
 447              	.LVL73:
 448              		.loc 1 223 0 is_stmt 1 discriminator 3
 449 005a D3F80012 		ldr	r1, [r3, #512]
 450 005e C3F88010 		str	r1, [r3, #128]
 451              		.loc 1 222 0 discriminator 3
 452 0062 082A     		cmp	r2, #8
 453 0064 F3D1     		bne	.L27
 454              	.LBE36:
 455              		.loc 1 227 0
 456 0066 094B     		ldr	r3, .L30+20
ARM GAS  /tmp/ccDVrNjO.s 			page 9


 457 0068 1B68     		ldr	r3, [r3]
 458              	.LVL74:
 459              	.LBB37:
 460              	.LBB38:
 461              		.loc 2 468 0
 462              		.syntax unified
 463              	@ 468 "ChibiOS_3.0.2/os/ext/CMSIS/include/core_cmFunc.h" 1
 464 006a 83F30888 		MSR msp, r3
 465              	
 466              	@ 0 "" 2
 467              	.LVL75:
 468              		.thumb
 469              		.syntax unified
 470              	.LBE38:
 471              	.LBE37:
 472              		.loc 1 231 0
 473 006e BD46     		mov	sp, r7
 474              		.cfi_def_cfa_register 13
 475              		@ sp needed
 476 0070 BDE88040 		pop	{r7, lr}
 477              		.cfi_restore 14
 478              		.cfi_restore 7
 479              		.cfi_def_cfa_offset 0
 480              		.loc 1 230 0
 481 0074 0047     		bx	r0	@ indirect register sibling call
 482              	.LVL76:
 483              	.L31:
 484 0076 00BF     		.align	2
 485              	.L30:
 486 0078 00000000 		.word	USBD1
 487 007c 00000000 		.word	SD3
 488 0080 00040240 		.word	1073873920
 489 0084 04000E08 		.word	135135236
 490 0088 00ED00E0 		.word	-536810240
 491 008c 00000E08 		.word	135135232
 492              		.cfi_endproc
 493              	.LFE259:
 494              		.size	flash_helper_jump_to_bootloader, .-flash_helper_jump_to_bootloader
 495              		.section	.text.flash_helper_get_sector_address,"ax",%progbits
 496              		.align	1
 497              		.p2align 4,,15
 498              		.global	flash_helper_get_sector_address
 499              		.syntax unified
 500              		.thumb
 501              		.thumb_func
 502              		.fpu fpv4-sp-d16
 503              		.type	flash_helper_get_sector_address, %function
 504              	flash_helper_get_sector_address:
 505              	.LFB260:
 506              		.loc 1 233 0
 507              		.cfi_startproc
 508              		@ args = 0, pretend = 0, frame = 0
 509              		@ frame_needed = 0, uses_anonymous_args = 0
 510              		@ link register save eliminated.
 511              	.LVL77:
 512              		.loc 1 233 0
 513 0000 0022     		movs	r2, #0
ARM GAS  /tmp/ccDVrNjO.s 			page 10


 514 0002 0849     		ldr	r1, .L40
 515              	.LBB39:
 516              		.loc 1 236 0
 517 0004 1346     		mov	r3, r2
 518 0006 01E0     		b	.L35
 519              	.LVL78:
 520              	.L39:
 521 0008 31F8022F 		ldrh	r2, [r1, #2]!
 522              	.LVL79:
 523              	.L35:
 524              		.loc 1 237 0
 525 000c 8242     		cmp	r2, r0
 526 000e 04D0     		beq	.L38
 527              		.loc 1 236 0 discriminator 2
 528 0010 0133     		adds	r3, r3, #1
 529              	.LVL80:
 530 0012 0C2B     		cmp	r3, #12
 531 0014 F8D1     		bne	.L39
 532              	.LBE39:
 533              		.loc 1 234 0
 534 0016 0020     		movs	r0, #0
 535              	.LVL81:
 536              		.loc 1 244 0
 537 0018 7047     		bx	lr
 538              	.LVL82:
 539              	.L38:
 540              	.LBB40:
 541              		.loc 1 238 0
 542 001a 034A     		ldr	r2, .L40+4
 543 001c 52F82300 		ldr	r0, [r2, r3, lsl #2]
 544              	.LVL83:
 545              		.loc 1 239 0
 546 0020 7047     		bx	lr
 547              	.L41:
 548 0022 00BF     		.align	2
 549              	.L40:
 550 0024 00000000 		.word	.LANCHOR0
 551 0028 00000000 		.word	.LANCHOR1
 552              	.LBE40:
 553              		.cfi_endproc
 554              	.LFE260:
 555              		.size	flash_helper_get_sector_address, .-flash_helper_get_sector_address
 556              		.section	.text.flash_helper_verify_flash_memory,"ax",%progbits
 557              		.align	1
 558              		.p2align 4,,15
 559              		.global	flash_helper_verify_flash_memory
 560              		.syntax unified
 561              		.thumb
 562              		.thumb_func
 563              		.fpu fpv4-sp-d16
 564              		.type	flash_helper_verify_flash_memory, %function
 565              	flash_helper_verify_flash_memory:
 566              	.LFB261:
 567              		.loc 1 250 0
 568              		.cfi_startproc
 569              		@ args = 0, pretend = 0, frame = 0
 570              		@ frame_needed = 0, uses_anonymous_args = 0
ARM GAS  /tmp/ccDVrNjO.s 			page 11


 571 0000 38B5     		push	{r3, r4, r5, lr}
 572              		.cfi_def_cfa_offset 16
 573              		.cfi_offset 3, -16
 574              		.cfi_offset 4, -12
 575              		.cfi_offset 5, -8
 576              		.cfi_offset 14, -4
 577              		.loc 1 254 0
 578 0002 2D4C     		ldr	r4, .L52
 579 0004 2568     		ldr	r5, [r4]
 580 0006 DDB9     		cbnz	r5, .L43
 581              		.loc 1 255 0
 582 0008 0121     		movs	r1, #1
 583 000a 4FF48050 		mov	r0, #4096
 584 000e FFF7FEFF 		bl	RCC_AHB1PeriphClockCmd
 585              	.LVL84:
 586              		.loc 1 256 0
 587 0012 FFF7FEFF 		bl	crc32_reset
 588              	.LVL85:
 589              		.loc 1 259 0
 590 0016 4FF48051 		mov	r1, #4096
 591 001a 4FF00060 		mov	r0, #134217728
 592 001e FFF7FEFF 		bl	crc32
 593              	.LVL86:
 594              		.loc 1 264 0
 595 0022 2649     		ldr	r1, .L52+4
 596 0024 2648     		ldr	r0, .L52+8
 597 0026 FFF7FEFF 		bl	crc32
 598              	.LVL87:
 599              		.loc 1 266 0
 600 002a 2946     		mov	r1, r5
 601              		.loc 1 264 0
 602 002c 0446     		mov	r4, r0
 603              	.LVL88:
 604              		.loc 1 266 0
 605 002e 4FF48050 		mov	r0, #4096
 606              	.LVL89:
 607 0032 FFF7FEFF 		bl	RCC_AHB1PeriphClockCmd
 608              	.LVL90:
 609              		.loc 1 269 0
 610 0036 002C     		cmp	r4, #0
 611 0038 18BF     		it	ne
 612 003a 0E24     		movne	r4, #14
 613              	.LVL91:
 614              		.loc 1 308 0
 615 003c 2046     		mov	r0, r4
 616 003e 38BD     		pop	{r3, r4, r5, pc}
 617              	.L43:
 618              	.LBB48:
 619              		.loc 1 271 0
 620 0040 FFF7FEFF 		bl	FLASH_Unlock
 621              	.LVL92:
 622              		.loc 1 272 0
 623 0044 F220     		movs	r0, #242
 624 0046 FFF7FEFF 		bl	FLASH_ClearFlag
 625              	.LVL93:
 626              		.loc 1 276 0
 627 004a 2046     		mov	r0, r4
ARM GAS  /tmp/ccDVrNjO.s 			page 12


 628 004c 0021     		movs	r1, #0
 629 004e FFF7FEFF 		bl	FLASH_ProgramWord
 630              	.LVL94:
 631              		.loc 1 277 0
 632 0052 0928     		cmp	r0, #9
 633 0054 1CD1     		bne	.L46
 634              		.loc 1 283 0
 635 0056 0121     		movs	r1, #1
 636 0058 4FF48050 		mov	r0, #4096
 637              	.LVL95:
 638 005c FFF7FEFF 		bl	RCC_AHB1PeriphClockCmd
 639              	.LVL96:
 640              		.loc 1 284 0
 641 0060 FFF7FEFF 		bl	crc32_reset
 642              	.LVL97:
 643              		.loc 1 287 0
 644 0064 4FF48051 		mov	r1, #4096
 645 0068 4FF00060 		mov	r0, #134217728
 646 006c FFF7FEFF 		bl	crc32
 647              	.LVL98:
 648              		.loc 1 292 0
 649 0070 1449     		ldr	r1, .L52+12
 650 0072 1348     		ldr	r0, .L52+8
 651 0074 FFF7FEFF 		bl	crc32
 652              	.LVL99:
 653              		.loc 1 294 0
 654 0078 0021     		movs	r1, #0
 655              		.loc 1 292 0
 656 007a 0446     		mov	r4, r0
 657              	.LVL100:
 658              		.loc 1 294 0
 659 007c 4FF48050 		mov	r0, #4096
 660              	.LVL101:
 661 0080 FFF7FEFF 		bl	RCC_AHB1PeriphClockCmd
 662              	.LVL102:
 663              		.loc 1 297 0
 664 0084 2146     		mov	r1, r4
 665 0086 1048     		ldr	r0, .L52+16
 666 0088 FFF7FEFF 		bl	FLASH_ProgramWord
 667              	.LVL103:
 668              		.loc 1 298 0
 669 008c 0928     		cmp	r0, #9
 670 008e 04D0     		beq	.L51
 671              	.LVL104:
 672              	.L46:
 673              		.loc 1 279 0
 674 0090 0E24     		movs	r4, #14
 675              		.loc 1 278 0
 676 0092 FFF7FEFF 		bl	FLASH_Lock
 677              	.LVL105:
 678              	.LBE48:
 679              		.loc 1 308 0
 680 0096 2046     		mov	r0, r4
 681 0098 38BD     		pop	{r3, r4, r5, pc}
 682              	.LVL106:
 683              	.L51:
 684              	.LBB55:
ARM GAS  /tmp/ccDVrNjO.s 			page 13


 685              		.loc 1 302 0
 686 009a FFF7FEFF 		bl	FLASH_Lock
 687              	.LVL107:
 688              	.LBB49:
 689              	.LBB50:
 690              	.LBB51:
 691              	.LBB52:
 692              		.file 3 "ChibiOS_3.0.2/os/ext/CMSIS/include/core_cmInstr.h"
 693              		.loc 3 382 0
 694              		.syntax unified
 695              	@ 382 "ChibiOS_3.0.2/os/ext/CMSIS/include/core_cmInstr.h" 1
 696 009e BFF34F8F 		dsb
 697              	@ 0 "" 2
 698              		.thumb
 699              		.syntax unified
 700              	.LBE52:
 701              	.LBE51:
 702              		.file 4 "ChibiOS_3.0.2/os/ext/CMSIS/include/core_cm4.h"
 703              		.loc 4 1643 0
 704 00a2 0A49     		ldr	r1, .L52+20
 705 00a4 0A4B     		ldr	r3, .L52+24
 706 00a6 CA68     		ldr	r2, [r1, #12]
 707 00a8 02F4E062 		and	r2, r2, #1792
 708 00ac 1343     		orrs	r3, r3, r2
 709              		.loc 4 1642 0
 710 00ae CB60     		str	r3, [r1, #12]
 711              	.LBB53:
 712              	.LBB54:
 713              		.loc 3 382 0
 714              		.syntax unified
 715              	@ 382 "ChibiOS_3.0.2/os/ext/CMSIS/include/core_cmInstr.h" 1
 716 00b0 BFF34F8F 		dsb
 717              	@ 0 "" 2
 718              		.thumb
 719              		.syntax unified
 720              	.L47:
 721 00b4 FEE7     		b	.L47
 722              	.L53:
 723 00b6 00BF     		.align	2
 724              	.L52:
 725 00b8 F0FF0508 		.word	134610928
 726 00bc FE4F0100 		.word	86014
 727 00c0 00C00008 		.word	134266880
 728 00c4 FD4F0100 		.word	86013
 729 00c8 F4FF0508 		.word	134610932
 730 00cc 00ED00E0 		.word	-536810240
 731 00d0 0400FA05 		.word	100270084
 732              	.LBE54:
 733              	.LBE53:
 734              	.LBE50:
 735              	.LBE49:
 736              	.LBE55:
 737              		.cfi_endproc
 738              	.LFE261:
 739              		.size	flash_helper_verify_flash_memory, .-flash_helper_verify_flash_memory
 740              		.section	.text.flash_helper_verify_flash_memory_chunk,"ax",%progbits
 741              		.align	1
ARM GAS  /tmp/ccDVrNjO.s 			page 14


 742              		.p2align 4,,15
 743              		.global	flash_helper_verify_flash_memory_chunk
 744              		.syntax unified
 745              		.thumb
 746              		.thumb_func
 747              		.fpu fpv4-sp-d16
 748              		.type	flash_helper_verify_flash_memory_chunk, %function
 749              	flash_helper_verify_flash_memory_chunk:
 750              	.LFB262:
 751              		.loc 1 310 0
 752              		.cfi_startproc
 753              		@ args = 0, pretend = 0, frame = 0
 754              		@ frame_needed = 0, uses_anonymous_args = 0
 755              	.LVL108:
 756 0000 38B5     		push	{r3, r4, r5, lr}
 757              		.cfi_def_cfa_offset 16
 758              		.cfi_offset 3, -16
 759              		.cfi_offset 4, -12
 760              		.cfi_offset 5, -8
 761              		.cfi_offset 14, -4
 762              		.loc 1 318 0
 763 0002 204C     		ldr	r4, .L70
 764 0004 2068     		ldr	r0, [r4]
 765 0006 A8B3     		cbz	r0, .L67
 766              	.L55:
 767              		.loc 1 322 0
 768 0008 1F4D     		ldr	r5, .L70+4
 769 000a 00F58063 		add	r3, r0, #1024
 770 000e AB42     		cmp	r3, r5
 771 0010 18D9     		bls	.L56
 772              		.loc 1 323 0
 773 0012 C0F5AF25 		rsb	r5, r0, #358400
 774 0016 05F5FF65 		add	r5, r5, #2040
 775              	.LVL109:
 776              	.L57:
 777              		.loc 1 329 0
 778 001a A0F58040 		sub	r0, r0, #16384
 779 001e 20F00300 		bic	r0, r0, #3
 780 0022 00F10060 		add	r0, r0, #134217728
 781 0026 A908     		lsrs	r1, r5, #2
 782 0028 00F54040 		add	r0, r0, #49152
 783 002c FFF7FEFF 		bl	crc32
 784              	.LVL110:
 785              		.loc 1 332 0
 786 0030 2268     		ldr	r2, [r4]
 787              		.loc 1 333 0
 788 0032 154B     		ldr	r3, .L70+4
 789              		.loc 1 332 0
 790 0034 1544     		add	r5, r5, r2
 791              	.LVL111:
 792              		.loc 1 333 0
 793 0036 9D42     		cmp	r5, r3
 794 0038 17D9     		bls	.L68
 795              		.loc 1 334 0
 796 003a 0023     		movs	r3, #0
 797 003c 2360     		str	r3, [r4]
 798              		.loc 1 335 0
ARM GAS  /tmp/ccDVrNjO.s 			page 15


 799 003e A8B1     		cbz	r0, .L61
 800              		.loc 1 336 0
 801 0040 0E20     		movs	r0, #14
 802              	.LVL112:
 803              		.loc 1 341 0
 804 0042 38BD     		pop	{r3, r4, r5, pc}
 805              	.LVL113:
 806              	.L56:
 807              		.loc 1 326 0
 808 0044 B0F5804F 		cmp	r0, #16384
 809 0048 18D2     		bcs	.L62
 810              		.loc 1 327 0
 811 004a 20F00300 		bic	r0, r0, #3
 812 004e 00F10060 		add	r0, r0, #134217728
 813 0052 4FF48071 		mov	r1, #256
 814 0056 FFF7FEFF 		bl	crc32
 815              	.LVL114:
 816              		.loc 1 332 0
 817 005a 2368     		ldr	r3, [r4]
 818 005c 03F58063 		add	r3, r3, #1024
 819              		.loc 1 333 0
 820 0060 AB42     		cmp	r3, r5
 821 0062 05D9     		bls	.L69
 822              		.loc 1 334 0
 823 0064 0020     		movs	r0, #0
 824 0066 2060     		str	r0, [r4]
 825              		.loc 1 341 0
 826 0068 38BD     		pop	{r3, r4, r5, pc}
 827              	.LVL115:
 828              	.L68:
 829              		.loc 1 332 0
 830 006a 2560     		str	r5, [r4]
 831              	.LVL116:
 832              	.L61:
 833              		.loc 1 313 0
 834 006c 0020     		movs	r0, #0
 835              		.loc 1 341 0
 836 006e 38BD     		pop	{r3, r4, r5, pc}
 837              	.LVL117:
 838              	.L69:
 839              		.loc 1 332 0
 840 0070 2360     		str	r3, [r4]
 841 0072 FBE7     		b	.L61
 842              	.L67:
 843              		.loc 1 319 0
 844 0074 FFF7FEFF 		bl	crc32_reset
 845              	.LVL118:
 846 0078 2068     		ldr	r0, [r4]
 847 007a C5E7     		b	.L55
 848              	.L62:
 849              		.loc 1 312 0
 850 007c 4FF48065 		mov	r5, #1024
 851 0080 CBE7     		b	.L57
 852              	.L71:
 853 0082 00BF     		.align	2
 854              	.L70:
 855 0084 00000000 		.word	.LANCHOR2
ARM GAS  /tmp/ccDVrNjO.s 			page 16


 856 0088 F77F0500 		.word	360439
 857              		.cfi_endproc
 858              	.LFE262:
 859              		.size	flash_helper_verify_flash_memory_chunk, .-flash_helper_verify_flash_memory_chunk
 860              		.global	crc_info
 861              		.section	.bss.index.11600,"aw",%nobits
 862              		.align	2
 863              		.set	.LANCHOR2,. + 0
 864              		.type	index.11600, %object
 865              		.size	index.11600, 4
 866              	index.11600:
 867 0000 00000000 		.space	4
 868              		.section	.crcinfo,"a",%progbits
 869              		.align	2
 870              		.type	crc_info, %object
 871              		.size	crc_info, 8
 872              	crc_info:
 873 0000 FFFFFFFF 		.word	-1
 874 0004 FFFFFFFF 		.word	-1
 875              		.section	.rodata.flash_addr,"a",%progbits
 876              		.align	2
 877              		.set	.LANCHOR1,. + 0
 878              		.type	flash_addr, %object
 879              		.size	flash_addr, 48
 880              	flash_addr:
 881 0000 00000008 		.word	134217728
 882 0004 00400008 		.word	134234112
 883 0008 00800008 		.word	134250496
 884 000c 00C00008 		.word	134266880
 885 0010 00000108 		.word	134283264
 886 0014 00000208 		.word	134348800
 887 0018 00000408 		.word	134479872
 888 001c 00000608 		.word	134610944
 889 0020 00000808 		.word	134742016
 890 0024 00000A08 		.word	134873088
 891 0028 00000C08 		.word	135004160
 892 002c 00000E08 		.word	135135232
 893              		.section	.rodata.flash_sector,"a",%progbits
 894              		.align	2
 895              		.set	.LANCHOR0,. + 0
 896              		.type	flash_sector, %object
 897              		.size	flash_sector, 24
 898              	flash_sector:
 899 0000 0000     		.short	0
 900 0002 0800     		.short	8
 901 0004 1000     		.short	16
 902 0006 1800     		.short	24
 903 0008 2000     		.short	32
 904 000a 2800     		.short	40
 905 000c 3000     		.short	48
 906 000e 3800     		.short	56
 907 0010 4000     		.short	64
 908 0012 4800     		.short	72
 909 0014 5000     		.short	80
 910 0016 5800     		.short	88
 911              		.text
 912              	.Letext0:
ARM GAS  /tmp/ccDVrNjO.s 			page 17


 913              		.file 5 "/usr/arm-none-eabi/include/machine/_default_types.h"
 914              		.file 6 "/usr/arm-none-eabi/include/sys/_stdint.h"
 915              		.file 7 "/usr/lib/gcc/arm-none-eabi/7.3.1/include/stddef.h"
 916              		.file 8 "ChibiOS_3.0.2/os/rt/ports/ARMCMx/compilers/GCC/chtypes.h"
 917              		.file 9 "ChibiOS_3.0.2/os/rt/include/chsystypes.h"
 918              		.file 10 "ChibiOS_3.0.2/os/rt/include/chschd.h"
 919              		.file 11 "ChibiOS_3.0.2/os/ext/CMSIS/ST/system_stm32f4xx.h"
 920              		.file 12 "ChibiOS_3.0.2/os/ext/CMSIS/ST/stm32f407xx.h"
 921              		.file 13 "ChibiOS_3.0.2/os/rt/ports/ARMCMx/chcore.h"
 922              		.file 14 "ChibiOS_3.0.2/os/rt/ports/ARMCMx/chcore_v7m.h"
 923              		.file 15 "ChibiOS_3.0.2/os/rt/include/chtm.h"
 924              		.file 16 "ChibiOS_3.0.2/os/rt/include/chsem.h"
 925              		.file 17 "ChibiOS_3.0.2/os/rt/include/chmtx.h"
 926              		.file 18 "ChibiOS_3.0.2/os/rt/include/chregistry.h"
 927              		.file 19 "ChibiOS_3.0.2/os/rt/include/chevents.h"
 928              		.file 20 "ChibiOS_3.0.2/os/rt/include/chqueues.h"
 929              		.file 21 "ChibiOS_3.0.2/os/ext/CMSIS/ST/stm32f4xx.h"
 930              		.file 22 "datatypes.h"
 931              		.file 23 "ChibiOS_3.0.2/ext/stdperiph_stm32f4/inc/stm32f4xx_flash.h"
 932              		.file 24 "conf_general.h"
 933              		.file 25 "ChibiOS_3.0.2/os/hal/ports/STM32/STM32F4xx/stm32_dma.h"
 934              		.file 26 "ChibiOS_3.0.2/os/hal/ports/STM32/LLD/GPIOv2/pal_lld.h"
 935              		.file 27 "ChibiOS_3.0.2/os/hal/include/can.h"
 936              		.file 28 "ChibiOS_3.0.2/os/hal/ports/STM32/LLD/can_lld.h"
 937              		.file 29 "ChibiOS_3.0.2/os/hal/include/i2c.h"
 938              		.file 30 "ChibiOS_3.0.2/os/hal/ports/STM32/LLD/I2Cv1/i2c_lld.h"
 939              		.file 31 "ChibiOS_3.0.2/os/hal/include/icu.h"
 940              		.file 32 "ChibiOS_3.0.2/os/hal/ports/STM32/LLD/TIMv1/icu_lld.h"
 941              		.file 33 "ChibiOS_3.0.2/os/hal/ports/STM32/LLD/TIMv1/stm32_tim.h"
 942              		.file 34 "ChibiOS_3.0.2/os/hal/include/serial.h"
 943              		.file 35 "ChibiOS_3.0.2/os/hal/ports/STM32/LLD/USARTv1/serial_lld.h"
 944              		.file 36 "ChibiOS_3.0.2/os/hal/include/spi.h"
 945              		.file 37 "ChibiOS_3.0.2/os/hal/ports/STM32/LLD/SPIv1/spi_lld.h"
 946              		.file 38 "ChibiOS_3.0.2/os/hal/include/usb.h"
 947              		.file 39 "ChibiOS_3.0.2/os/hal/ports/STM32/LLD/OTGv1/usb_lld.h"
 948              		.file 40 "ChibiOS_3.0.2/os/hal/ports/STM32/LLD/OTGv1/stm32_otg.h"
 949              		.file 41 "mc_interface.h"
 950              		.file 42 "/usr/arm-none-eabi/include/sys/lock.h"
 951              		.file 43 "/usr/arm-none-eabi/include/sys/_types.h"
 952              		.file 44 "/usr/arm-none-eabi/include/sys/reent.h"
 953              		.file 45 "ChibiOS_3.0.2/os/rt/include/chsys.h"
 954              		.file 46 "crc.h"
 955              		.file 47 "ChibiOS_3.0.2/ext/stdperiph_stm32f4/inc/stm32f4xx_rcc.h"
 956              		.file 48 "timeout.h"
 957              		.file 49 "utils.h"