ARM GAS  /tmp/cci3EeN8.s 			page 1


   1              		.cpu cortex-m4
   2              		.eabi_attribute 27, 1
   3              		.eabi_attribute 28, 1
   4              		.eabi_attribute 20, 1
   5              		.eabi_attribute 21, 1
   6              		.eabi_attribute 23, 3
   7              		.eabi_attribute 24, 1
   8              		.eabi_attribute 25, 1
   9              		.eabi_attribute 26, 1
  10              		.eabi_attribute 30, 2
  11              		.eabi_attribute 34, 1
  12              		.eabi_attribute 18, 4
  13              		.file	"hw.c"
  14              		.text
  15              	.Ltext0:
  16              		.cfi_sections	.debug_frame
  17              		.section	.text.hw_init_gpio,"ax",%progbits
  18              		.align	1
  19              		.p2align 4,,15
  20              		.global	hw_init_gpio
  21              		.syntax unified
  22              		.thumb
  23              		.thumb_func
  24              		.fpu fpv4-sp-d16
  25              		.type	hw_init_gpio, %function
  26              	hw_init_gpio:
  27              	.LFB256:
  28              		.file 1 "hwconf/hw_SV30.c"
  29              		.loc 1 36 0
  30              		.cfi_startproc
  31              		@ args = 0, pretend = 0, frame = 0
  32              		@ frame_needed = 0, uses_anonymous_args = 0
  33              		.loc 1 38 0
  34 0000 0121     		movs	r1, #1
  35              		.loc 1 36 0
  36 0002 2DE9F84F 		push	{r3, r4, r5, r6, r7, r8, r9, r10, fp, lr}
  37              		.cfi_def_cfa_offset 40
  38              		.cfi_offset 3, -40
  39              		.cfi_offset 4, -36
  40              		.cfi_offset 5, -32
  41              		.cfi_offset 6, -28
  42              		.cfi_offset 7, -24
  43              		.cfi_offset 8, -20
  44              		.cfi_offset 9, -16
  45              		.cfi_offset 10, -12
  46              		.cfi_offset 11, -8
  47              		.cfi_offset 14, -4
  48              		.loc 1 38 0
  49 0006 0846     		mov	r0, r1
  50 0008 FFF7FEFF 		bl	RCC_AHB1PeriphClockCmd
  51              	.LVL0:
  52              		.loc 1 39 0
  53 000c 0121     		movs	r1, #1
  54 000e 0220     		movs	r0, #2
  55              		.loc 1 44 0
  56 0010 664D     		ldr	r5, .L4
  57              		.loc 1 72 0
ARM GAS  /tmp/cci3EeN8.s 			page 2


  58 0012 DFF8A4A1 		ldr	r10, .L4+12
  59              		.loc 1 96 0
  60 0016 664C     		ldr	r4, .L4+4
  61              		.loc 1 117 0
  62 0018 664E     		ldr	r6, .L4+8
  63              		.loc 1 39 0
  64 001a FFF7FEFF 		bl	RCC_AHB1PeriphClockCmd
  65              	.LVL1:
  66              		.loc 1 40 0
  67 001e 0121     		movs	r1, #1
  68 0020 0420     		movs	r0, #4
  69 0022 FFF7FEFF 		bl	RCC_AHB1PeriphClockCmd
  70              	.LVL2:
  71              		.loc 1 41 0
  72 0026 0121     		movs	r1, #1
  73 0028 0820     		movs	r0, #8
  74 002a FFF7FEFF 		bl	RCC_AHB1PeriphClockCmd
  75              	.LVL3:
  76              		.loc 1 44 0
  77 002e 2846     		mov	r0, r5
  78 0030 1922     		movs	r2, #25
  79 0032 0121     		movs	r1, #1
  80              		.loc 1 68 0
  81 0034 2027     		movs	r7, #32
  82              		.loc 1 44 0
  83 0036 FFF7FEFF 		bl	_pal_lld_setgroupmode
  84              	.LVL4:
  85              		.loc 1 47 0
  86 003a 2846     		mov	r0, r5
  87 003c 1922     		movs	r2, #25
  88 003e 0221     		movs	r1, #2
  89 0040 FFF7FEFF 		bl	_pal_lld_setgroupmode
  90              	.LVL5:
  91              		.loc 1 75 0
  92 0044 4FF00409 		mov	r9, #4
  93              		.loc 1 65 0
  94 0048 2846     		mov	r0, r5
  95 004a 3946     		mov	r1, r7
  96 004c 1922     		movs	r2, #25
  97 004e FFF7FEFF 		bl	_pal_lld_setgroupmode
  98              	.LVL6:
  99              		.loc 1 81 0
 100 0052 4FF00808 		mov	r8, #8
 101              		.loc 1 72 0
 102 0056 5046     		mov	r0, r10
 103 0058 4946     		mov	r1, r9
 104              		.loc 1 68 0
 105 005a 2F83     		strh	r7, [r5, #24]	@ movhi
 106              		.loc 1 72 0
 107 005c 1922     		movs	r2, #25
 108 005e FFF7FEFF 		bl	_pal_lld_setgroupmode
 109              	.LVL7:
 110              		.loc 1 75 0
 111 0062 AAF81A90 		strh	r9, [r10, #26]	@ movhi
 112              		.loc 1 78 0
 113 0066 2846     		mov	r0, r5
 114 0068 4146     		mov	r1, r8
ARM GAS  /tmp/cci3EeN8.s 			page 3


 115 006a 1922     		movs	r2, #25
 116 006c FFF7FEFF 		bl	_pal_lld_setgroupmode
 117              	.LVL8:
 118              		.loc 1 84 0
 119 0070 2846     		mov	r0, r5
 120              		.loc 1 81 0
 121 0072 A5F81A80 		strh	r8, [r5, #26]	@ movhi
 122              		.loc 1 84 0
 123 0076 1922     		movs	r2, #25
 124 0078 1021     		movs	r1, #16
 125 007a FFF7FEFF 		bl	_pal_lld_setgroupmode
 126              	.LVL9:
 127              		.loc 1 93 0
 128 007e 4FF0400A 		mov	r10, #64
 129              		.loc 1 87 0
 130 0082 4FF01003 		mov	r3, #16	@ movhi
 131 0086 6B83     		strh	r3, [r5, #26]	@ movhi
 132              		.loc 1 99 0
 133 0088 4FF4804B 		mov	fp, #16384
 134              		.loc 1 90 0
 135 008c 2846     		mov	r0, r5
 136 008e 5146     		mov	r1, r10
 137 0090 1922     		movs	r2, #25
 138 0092 FFF7FEFF 		bl	_pal_lld_setgroupmode
 139              	.LVL10:
 140              		.loc 1 96 0
 141 0096 2046     		mov	r0, r4
 142 0098 5946     		mov	r1, fp
 143              		.loc 1 93 0
 144 009a A5F81AA0 		strh	r10, [r5, #26]	@ movhi
 145              		.loc 1 96 0
 146 009e 1922     		movs	r2, #25
 147 00a0 FFF7FEFF 		bl	_pal_lld_setgroupmode
 148              	.LVL11:
 149              		.loc 1 102 0
 150 00a4 2046     		mov	r0, r4
 151              		.loc 1 99 0
 152 00a6 A4F81AB0 		strh	fp, [r4, #26]	@ movhi
 153              		.loc 1 102 0
 154 00aa 1922     		movs	r2, #25
 155 00ac 4FF40041 		mov	r1, #32768
 156 00b0 FFF7FEFF 		bl	_pal_lld_setgroupmode
 157              	.LVL12:
 158              		.loc 1 105 0
 159 00b4 48F20003 		movw	r3, 32768	@ movhi
 160 00b8 6383     		strh	r3, [r4, #26]	@ movhi
 161              		.loc 1 109 0
 162 00ba 3946     		mov	r1, r7
 163 00bc 2046     		mov	r0, r4
 164 00be 1922     		movs	r2, #25
 165 00c0 FFF7FEFF 		bl	_pal_lld_setgroupmode
 166              	.LVL13:
 167              		.loc 1 117 0
 168 00c4 3046     		mov	r0, r6
 169              		.loc 1 112 0
 170 00c6 2783     		strh	r7, [r4, #24]	@ movhi
 171              		.loc 1 117 0
ARM GAS  /tmp/cci3EeN8.s 			page 4


 172 00c8 9A22     		movs	r2, #154
 173 00ca 4FF48071 		mov	r1, #256
 174 00ce FFF7FEFF 		bl	_pal_lld_setgroupmode
 175              	.LVL14:
 176              		.loc 1 120 0
 177 00d2 3046     		mov	r0, r6
 178 00d4 9A22     		movs	r2, #154
 179 00d6 4FF40071 		mov	r1, #512
 180 00da FFF7FEFF 		bl	_pal_lld_setgroupmode
 181              	.LVL15:
 182              		.loc 1 123 0
 183 00de 3046     		mov	r0, r6
 184 00e0 9A22     		movs	r2, #154
 185 00e2 4FF48061 		mov	r1, #1024
 186 00e6 FFF7FEFF 		bl	_pal_lld_setgroupmode
 187              	.LVL16:
 188              		.loc 1 127 0
 189 00ea 2846     		mov	r0, r5
 190 00ec 9A22     		movs	r2, #154
 191 00ee 4FF40051 		mov	r1, #8192
 192 00f2 FFF7FEFF 		bl	_pal_lld_setgroupmode
 193              	.LVL17:
 194              		.loc 1 130 0
 195 00f6 5946     		mov	r1, fp
 196 00f8 2846     		mov	r0, r5
 197 00fa 9A22     		movs	r2, #154
 198 00fc FFF7FEFF 		bl	_pal_lld_setgroupmode
 199              	.LVL18:
 200              		.loc 1 133 0
 201 0100 2846     		mov	r0, r5
 202 0102 4FF40041 		mov	r1, #32768
 203 0106 9A22     		movs	r2, #154
 204 0108 FFF7FEFF 		bl	_pal_lld_setgroupmode
 205              	.LVL19:
 206              		.loc 1 138 0
 207 010c 3A46     		mov	r2, r7
 208 010e 5146     		mov	r1, r10
 209 0110 2046     		mov	r0, r4
 210 0112 FFF7FEFF 		bl	_pal_lld_setgroupmode
 211              	.LVL20:
 212              		.loc 1 139 0
 213 0116 3A46     		mov	r2, r7
 214 0118 2046     		mov	r0, r4
 215 011a 8021     		movs	r1, #128
 216 011c FFF7FEFF 		bl	_pal_lld_setgroupmode
 217              	.LVL21:
 218              		.loc 1 140 0
 219 0120 3A46     		mov	r2, r7
 220 0122 2046     		mov	r0, r4
 221 0124 4FF48071 		mov	r1, #256
 222 0128 FFF7FEFF 		bl	_pal_lld_setgroupmode
 223              	.LVL22:
 224              		.loc 1 143 0
 225 012c 3A46     		mov	r2, r7
 226 012e 2846     		mov	r0, r5
 227 0130 8021     		movs	r1, #128
 228 0132 FFF7FEFF 		bl	_pal_lld_setgroupmode
ARM GAS  /tmp/cci3EeN8.s 			page 5


 229              	.LVL23:
 230              		.loc 1 146 0
 231 0136 3046     		mov	r0, r6
 232 0138 0322     		movs	r2, #3
 233 013a 0121     		movs	r1, #1
 234 013c FFF7FEFF 		bl	_pal_lld_setgroupmode
 235              	.LVL24:
 236              		.loc 1 147 0
 237 0140 3046     		mov	r0, r6
 238 0142 0322     		movs	r2, #3
 239 0144 0221     		movs	r1, #2
 240 0146 FFF7FEFF 		bl	_pal_lld_setgroupmode
 241              	.LVL25:
 242              		.loc 1 148 0
 243 014a 4946     		mov	r1, r9
 244 014c 3046     		mov	r0, r6
 245 014e 0322     		movs	r2, #3
 246 0150 FFF7FEFF 		bl	_pal_lld_setgroupmode
 247              	.LVL26:
 248              		.loc 1 149 0
 249 0154 4146     		mov	r1, r8
 250 0156 3046     		mov	r0, r6
 251 0158 0322     		movs	r2, #3
 252 015a FFF7FEFF 		bl	_pal_lld_setgroupmode
 253              	.LVL27:
 254              		.loc 1 150 0
 255 015e 3946     		mov	r1, r7
 256 0160 3046     		mov	r0, r6
 257 0162 0322     		movs	r2, #3
 258 0164 FFF7FEFF 		bl	_pal_lld_setgroupmode
 259              	.LVL28:
 260              		.loc 1 151 0
 261 0168 5146     		mov	r1, r10
 262 016a 3046     		mov	r0, r6
 263 016c 0322     		movs	r2, #3
 264 016e FFF7FEFF 		bl	_pal_lld_setgroupmode
 265              	.LVL29:
 266              		.loc 1 153 0
 267 0172 2046     		mov	r0, r4
 268 0174 0322     		movs	r2, #3
 269 0176 0121     		movs	r1, #1
 270 0178 FFF7FEFF 		bl	_pal_lld_setgroupmode
 271              	.LVL30:
 272              		.loc 1 154 0
 273 017c 2046     		mov	r0, r4
 274 017e 0322     		movs	r2, #3
 275 0180 0221     		movs	r1, #2
 276 0182 FFF7FEFF 		bl	_pal_lld_setgroupmode
 277              	.LVL31:
 278              		.loc 1 155 0
 279 0186 4946     		mov	r1, r9
 280 0188 2046     		mov	r0, r4
 281 018a 0322     		movs	r2, #3
 282 018c FFF7FEFF 		bl	_pal_lld_setgroupmode
 283              	.LVL32:
 284              		.loc 1 156 0
 285 0190 4146     		mov	r1, r8
ARM GAS  /tmp/cci3EeN8.s 			page 6


 286 0192 2046     		mov	r0, r4
 287 0194 0322     		movs	r2, #3
 288 0196 FFF7FEFF 		bl	_pal_lld_setgroupmode
 289              	.LVL33:
 290              		.loc 1 157 0
 291 019a 2046     		mov	r0, r4
 292 019c 1021     		movs	r1, #16
 293 019e 0322     		movs	r2, #3
 294 01a0 FFF7FEFF 		bl	_pal_lld_setgroupmode
 295              	.LVL34:
 296              		.loc 1 161 0
 297 01a4 BDE8F84F 		pop	{r3, r4, r5, r6, r7, r8, r9, r10, fp, lr}
 298              		.cfi_restore 14
 299              		.cfi_restore 11
 300              		.cfi_restore 10
 301              		.cfi_restore 9
 302              		.cfi_restore 8
 303              		.cfi_restore 7
 304              		.cfi_restore 6
 305              		.cfi_restore 5
 306              		.cfi_restore 4
 307              		.cfi_restore 3
 308              		.cfi_def_cfa_offset 0
 309              		.loc 1 160 0
 310 01a8 FFF7FEBF 		b	drv8350_init
 311              	.LVL35:
 312              	.L5:
 313              		.align	2
 314              	.L4:
 315 01ac 00040240 		.word	1073873920
 316 01b0 00080240 		.word	1073874944
 317 01b4 00000240 		.word	1073872896
 318 01b8 000C0240 		.word	1073875968
 319              		.cfi_endproc
 320              	.LFE256:
 321              		.size	hw_init_gpio, .-hw_init_gpio
 322              		.section	.text.hw_setup_adc_channels,"ax",%progbits
 323              		.align	1
 324              		.p2align 4,,15
 325              		.global	hw_setup_adc_channels
 326              		.syntax unified
 327              		.thumb
 328              		.thumb_func
 329              		.fpu fpv4-sp-d16
 330              		.type	hw_setup_adc_channels, %function
 331              	hw_setup_adc_channels:
 332              	.LFB257:
 333              		.loc 1 163 0
 334              		.cfi_startproc
 335              		@ args = 0, pretend = 0, frame = 0
 336              		@ frame_needed = 0, uses_anonymous_args = 0
 337 0000 70B5     		push	{r4, r5, r6, lr}
 338              		.cfi_def_cfa_offset 16
 339              		.cfi_offset 4, -16
 340              		.cfi_offset 5, -12
 341              		.cfi_offset 6, -8
 342              		.cfi_offset 14, -4
ARM GAS  /tmp/cci3EeN8.s 			page 7


 343              		.loc 1 165 0
 344 0002 4A4E     		ldr	r6, .L8
 345              		.loc 1 172 0
 346 0004 4A4D     		ldr	r5, .L8+4
 347              		.loc 1 179 0
 348 0006 4B4C     		ldr	r4, .L8+8
 349              		.loc 1 165 0
 350 0008 0123     		movs	r3, #1
 351 000a 3046     		mov	r0, r6
 352 000c 1A46     		mov	r2, r3
 353 000e 0021     		movs	r1, #0
 354 0010 FFF7FEFF 		bl	ADC_RegularChannelConfig
 355              	.LVL36:
 356              		.loc 1 166 0
 357 0014 3046     		mov	r0, r6
 358 0016 0123     		movs	r3, #1
 359 0018 0222     		movs	r2, #2
 360 001a 0A21     		movs	r1, #10
 361 001c FFF7FEFF 		bl	ADC_RegularChannelConfig
 362              	.LVL37:
 363              		.loc 1 167 0
 364 0020 3046     		mov	r0, r6
 365 0022 0123     		movs	r3, #1
 366 0024 0322     		movs	r2, #3
 367 0026 0521     		movs	r1, #5
 368 0028 FFF7FEFF 		bl	ADC_RegularChannelConfig
 369              	.LVL38:
 370              		.loc 1 168 0
 371 002c 3046     		mov	r0, r6
 372 002e 0123     		movs	r3, #1
 373 0030 0422     		movs	r2, #4
 374 0032 0E21     		movs	r1, #14
 375 0034 FFF7FEFF 		bl	ADC_RegularChannelConfig
 376              	.LVL39:
 377              		.loc 1 169 0
 378 0038 3046     		mov	r0, r6
 379 003a 0123     		movs	r3, #1
 380 003c 0522     		movs	r2, #5
 381 003e 1121     		movs	r1, #17
 382 0040 FFF7FEFF 		bl	ADC_RegularChannelConfig
 383              	.LVL40:
 384              		.loc 1 172 0
 385 0044 0123     		movs	r3, #1
 386 0046 2846     		mov	r0, r5
 387 0048 1A46     		mov	r2, r3
 388 004a 1946     		mov	r1, r3
 389 004c FFF7FEFF 		bl	ADC_RegularChannelConfig
 390              	.LVL41:
 391              		.loc 1 173 0
 392 0050 2846     		mov	r0, r5
 393 0052 0123     		movs	r3, #1
 394 0054 0222     		movs	r2, #2
 395 0056 0B21     		movs	r1, #11
 396 0058 FFF7FEFF 		bl	ADC_RegularChannelConfig
 397              	.LVL42:
 398              		.loc 1 174 0
 399 005c 2846     		mov	r0, r5
ARM GAS  /tmp/cci3EeN8.s 			page 8


 400 005e 0123     		movs	r3, #1
 401 0060 0322     		movs	r2, #3
 402 0062 0621     		movs	r1, #6
 403 0064 FFF7FEFF 		bl	ADC_RegularChannelConfig
 404              	.LVL43:
 405              		.loc 1 175 0
 406 0068 2846     		mov	r0, r5
 407 006a 0123     		movs	r3, #1
 408 006c 0422     		movs	r2, #4
 409 006e 0F21     		movs	r1, #15
 410 0070 FFF7FEFF 		bl	ADC_RegularChannelConfig
 411              	.LVL44:
 412              		.loc 1 176 0
 413 0074 2846     		mov	r0, r5
 414 0076 0123     		movs	r3, #1
 415 0078 0522     		movs	r2, #5
 416 007a 0021     		movs	r1, #0
 417 007c FFF7FEFF 		bl	ADC_RegularChannelConfig
 418              	.LVL45:
 419              		.loc 1 179 0
 420 0080 0123     		movs	r3, #1
 421 0082 2046     		mov	r0, r4
 422 0084 1A46     		mov	r2, r3
 423 0086 0221     		movs	r1, #2
 424 0088 FFF7FEFF 		bl	ADC_RegularChannelConfig
 425              	.LVL46:
 426              		.loc 1 180 0
 427 008c 2046     		mov	r0, r4
 428 008e 0123     		movs	r3, #1
 429 0090 0222     		movs	r2, #2
 430 0092 0C21     		movs	r1, #12
 431 0094 FFF7FEFF 		bl	ADC_RegularChannelConfig
 432              	.LVL47:
 433              		.loc 1 181 0
 434 0098 0322     		movs	r2, #3
 435 009a 2046     		mov	r0, r4
 436 009c 1146     		mov	r1, r2
 437 009e 0123     		movs	r3, #1
 438 00a0 FFF7FEFF 		bl	ADC_RegularChannelConfig
 439              	.LVL48:
 440              		.loc 1 182 0
 441 00a4 2046     		mov	r0, r4
 442 00a6 0123     		movs	r3, #1
 443 00a8 0422     		movs	r2, #4
 444 00aa 0D21     		movs	r1, #13
 445 00ac FFF7FEFF 		bl	ADC_RegularChannelConfig
 446              	.LVL49:
 447              		.loc 1 183 0
 448 00b0 0123     		movs	r3, #1
 449 00b2 2046     		mov	r0, r4
 450 00b4 1946     		mov	r1, r3
 451 00b6 0522     		movs	r2, #5
 452 00b8 FFF7FEFF 		bl	ADC_RegularChannelConfig
 453              	.LVL50:
 454              		.loc 1 186 0
 455 00bc 0123     		movs	r3, #1
 456 00be 3046     		mov	r0, r6
ARM GAS  /tmp/cci3EeN8.s 			page 9


 457 00c0 1A46     		mov	r2, r3
 458 00c2 0A21     		movs	r1, #10
 459 00c4 FFF7FEFF 		bl	ADC_InjectedChannelConfig
 460              	.LVL51:
 461              		.loc 1 187 0
 462 00c8 0123     		movs	r3, #1
 463 00ca 2846     		mov	r0, r5
 464 00cc 1A46     		mov	r2, r3
 465 00ce 0B21     		movs	r1, #11
 466 00d0 FFF7FEFF 		bl	ADC_InjectedChannelConfig
 467              	.LVL52:
 468              		.loc 1 188 0
 469 00d4 0123     		movs	r3, #1
 470 00d6 2046     		mov	r0, r4
 471 00d8 1A46     		mov	r2, r3
 472 00da 0C21     		movs	r1, #12
 473 00dc FFF7FEFF 		bl	ADC_InjectedChannelConfig
 474              	.LVL53:
 475              		.loc 1 189 0
 476 00e0 3046     		mov	r0, r6
 477 00e2 0123     		movs	r3, #1
 478 00e4 0222     		movs	r2, #2
 479 00e6 0A21     		movs	r1, #10
 480 00e8 FFF7FEFF 		bl	ADC_InjectedChannelConfig
 481              	.LVL54:
 482              		.loc 1 190 0
 483 00ec 2846     		mov	r0, r5
 484 00ee 0123     		movs	r3, #1
 485 00f0 0222     		movs	r2, #2
 486 00f2 0B21     		movs	r1, #11
 487 00f4 FFF7FEFF 		bl	ADC_InjectedChannelConfig
 488              	.LVL55:
 489              		.loc 1 191 0
 490 00f8 2046     		mov	r0, r4
 491 00fa 0123     		movs	r3, #1
 492 00fc 0222     		movs	r2, #2
 493 00fe 0C21     		movs	r1, #12
 494 0100 FFF7FEFF 		bl	ADC_InjectedChannelConfig
 495              	.LVL56:
 496              		.loc 1 192 0
 497 0104 3046     		mov	r0, r6
 498 0106 0123     		movs	r3, #1
 499 0108 0322     		movs	r2, #3
 500 010a 0A21     		movs	r1, #10
 501 010c FFF7FEFF 		bl	ADC_InjectedChannelConfig
 502              	.LVL57:
 503              		.loc 1 193 0
 504 0110 2846     		mov	r0, r5
 505 0112 0123     		movs	r3, #1
 506 0114 0322     		movs	r2, #3
 507 0116 0B21     		movs	r1, #11
 508 0118 FFF7FEFF 		bl	ADC_InjectedChannelConfig
 509              	.LVL58:
 510              		.loc 1 194 0
 511 011c 2046     		mov	r0, r4
 512 011e 0123     		movs	r3, #1
 513 0120 0322     		movs	r2, #3
ARM GAS  /tmp/cci3EeN8.s 			page 10


 514 0122 0C21     		movs	r1, #12
 515              		.loc 1 195 0
 516 0124 BDE87040 		pop	{r4, r5, r6, lr}
 517              		.cfi_restore 14
 518              		.cfi_restore 6
 519              		.cfi_restore 5
 520              		.cfi_restore 4
 521              		.cfi_def_cfa_offset 0
 522              		.loc 1 194 0
 523 0128 FFF7FEBF 		b	ADC_InjectedChannelConfig
 524              	.LVL59:
 525              	.L9:
 526              		.align	2
 527              	.L8:
 528 012c 00200140 		.word	1073815552
 529 0130 00210140 		.word	1073815808
 530 0134 00220140 		.word	1073816064
 531              		.cfi_endproc
 532              	.LFE257:
 533              		.size	hw_setup_adc_channels, .-hw_setup_adc_channels
 534              		.section	.text.hw_start_i2c,"ax",%progbits
 535              		.align	1
 536              		.p2align 4,,15
 537              		.global	hw_start_i2c
 538              		.syntax unified
 539              		.thumb
 540              		.thumb_func
 541              		.fpu fpv4-sp-d16
 542              		.type	hw_start_i2c, %function
 543              	hw_start_i2c:
 544              	.LFB258:
 545              		.loc 1 197 0
 546              		.cfi_startproc
 547              		@ args = 0, pretend = 0, frame = 0
 548              		@ frame_needed = 0, uses_anonymous_args = 0
 549 0000 10B5     		push	{r4, lr}
 550              		.cfi_def_cfa_offset 8
 551              		.cfi_offset 4, -8
 552              		.cfi_offset 14, -4
 553              		.loc 1 200 0
 554 0002 0F4C     		ldr	r4, .L13
 555              		.loc 1 198 0
 556 0004 0F48     		ldr	r0, .L13+4
 557 0006 FFF7FEFF 		bl	i2cAcquireBus
 558              	.LVL60:
 559              		.loc 1 200 0
 560 000a 2378     		ldrb	r3, [r4]	@ zero_extendqisi2
 561 000c 9BB9     		cbnz	r3, .L11
 562              		.loc 1 201 0
 563 000e 40F22E22 		movw	r2, #558
 564 0012 4FF48061 		mov	r1, #1024
 565 0016 0C48     		ldr	r0, .L13+8
 566 0018 FFF7FEFF 		bl	_pal_lld_setgroupmode
 567              	.LVL61:
 568              		.loc 1 206 0
 569 001c 40F22E22 		movw	r2, #558
 570 0020 4FF40061 		mov	r1, #2048
ARM GAS  /tmp/cci3EeN8.s 			page 11


 571 0024 0848     		ldr	r0, .L13+8
 572 0026 FFF7FEFF 		bl	_pal_lld_setgroupmode
 573              	.LVL62:
 574              		.loc 1 212 0
 575 002a 0849     		ldr	r1, .L13+12
 576 002c 0548     		ldr	r0, .L13+4
 577 002e FFF7FEFF 		bl	i2cStart
 578              	.LVL63:
 579              		.loc 1 213 0
 580 0032 0123     		movs	r3, #1
 581 0034 2370     		strb	r3, [r4]
 582              	.L11:
 583              		.loc 1 216 0
 584 0036 0348     		ldr	r0, .L13+4
 585              		.loc 1 217 0
 586 0038 BDE81040 		pop	{r4, lr}
 587              		.cfi_restore 14
 588              		.cfi_restore 4
 589              		.cfi_def_cfa_offset 0
 590              		.loc 1 216 0
 591 003c FFF7FEBF 		b	i2cReleaseBus
 592              	.LVL64:
 593              	.L14:
 594              		.align	2
 595              	.L13:
 596 0040 00000000 		.word	.LANCHOR0
 597 0044 00000000 		.word	I2CD2
 598 0048 00040240 		.word	1073873920
 599 004c 00000000 		.word	.LANCHOR1
 600              		.cfi_endproc
 601              	.LFE258:
 602              		.size	hw_start_i2c, .-hw_start_i2c
 603              		.section	.text.hw_stop_i2c,"ax",%progbits
 604              		.align	1
 605              		.p2align 4,,15
 606              		.global	hw_stop_i2c
 607              		.syntax unified
 608              		.thumb
 609              		.thumb_func
 610              		.fpu fpv4-sp-d16
 611              		.type	hw_stop_i2c, %function
 612              	hw_stop_i2c:
 613              	.LFB259:
 614              		.loc 1 219 0
 615              		.cfi_startproc
 616              		@ args = 0, pretend = 0, frame = 0
 617              		@ frame_needed = 0, uses_anonymous_args = 0
 618 0000 10B5     		push	{r4, lr}
 619              		.cfi_def_cfa_offset 8
 620              		.cfi_offset 4, -8
 621              		.cfi_offset 14, -4
 622              		.loc 1 222 0
 623 0002 0E4C     		ldr	r4, .L21
 624              		.loc 1 220 0
 625 0004 0E48     		ldr	r0, .L21+4
 626 0006 FFF7FEFF 		bl	i2cAcquireBus
 627              	.LVL65:
ARM GAS  /tmp/cci3EeN8.s 			page 12


 628              		.loc 1 222 0
 629 000a 2378     		ldrb	r3, [r4]	@ zero_extendqisi2
 630 000c 83B1     		cbz	r3, .L16
 631              		.loc 1 223 0
 632 000e 0022     		movs	r2, #0
 633 0010 4FF48061 		mov	r1, #1024
 634 0014 0B48     		ldr	r0, .L21+8
 635 0016 FFF7FEFF 		bl	_pal_lld_setgroupmode
 636              	.LVL66:
 637              		.loc 1 224 0
 638 001a 0022     		movs	r2, #0
 639 001c 4FF40061 		mov	r1, #2048
 640 0020 0848     		ldr	r0, .L21+8
 641 0022 FFF7FEFF 		bl	_pal_lld_setgroupmode
 642              	.LVL67:
 643              		.loc 1 226 0
 644 0026 0648     		ldr	r0, .L21+4
 645 0028 FFF7FEFF 		bl	i2cStop
 646              	.LVL68:
 647              		.loc 1 227 0
 648 002c 0023     		movs	r3, #0
 649 002e 2370     		strb	r3, [r4]
 650              	.L16:
 651              		.loc 1 231 0
 652 0030 0348     		ldr	r0, .L21+4
 653              		.loc 1 232 0
 654 0032 BDE81040 		pop	{r4, lr}
 655              		.cfi_restore 14
 656              		.cfi_restore 4
 657              		.cfi_def_cfa_offset 0
 658              		.loc 1 231 0
 659 0036 FFF7FEBF 		b	i2cReleaseBus
 660              	.LVL69:
 661              	.L22:
 662 003a 00BF     		.align	2
 663              	.L21:
 664 003c 00000000 		.word	.LANCHOR0
 665 0040 00000000 		.word	I2CD2
 666 0044 00040240 		.word	1073873920
 667              		.cfi_endproc
 668              	.LFE259:
 669              		.size	hw_stop_i2c, .-hw_stop_i2c
 670              		.section	.text.hw_try_restore_i2c,"ax",%progbits
 671              		.align	1
 672              		.p2align 4,,15
 673              		.global	hw_try_restore_i2c
 674              		.syntax unified
 675              		.thumb
 676              		.thumb_func
 677              		.fpu fpv4-sp-d16
 678              		.type	hw_try_restore_i2c, %function
 679              	hw_try_restore_i2c:
 680              	.LFB260:
 681              		.loc 1 237 0
 682              		.cfi_startproc
 683              		@ args = 0, pretend = 0, frame = 0
 684              		@ frame_needed = 0, uses_anonymous_args = 0
ARM GAS  /tmp/cci3EeN8.s 			page 13


 685 0000 F8B5     		push	{r3, r4, r5, r6, r7, lr}
 686              		.cfi_def_cfa_offset 24
 687              		.cfi_offset 3, -24
 688              		.cfi_offset 4, -20
 689              		.cfi_offset 5, -16
 690              		.cfi_offset 6, -12
 691              		.cfi_offset 7, -8
 692              		.cfi_offset 14, -4
 693              		.loc 1 238 0
 694 0002 284B     		ldr	r3, .L29
 695 0004 1B78     		ldrb	r3, [r3]	@ zero_extendqisi2
 696 0006 03B9     		cbnz	r3, .L28
 697              		.loc 1 289 0
 698 0008 F8BD     		pop	{r3, r4, r5, r6, r7, pc}
 699              	.L28:
 700              		.loc 1 241 0
 701 000a 274D     		ldr	r5, .L29+4
 702              		.loc 1 239 0
 703 000c 2748     		ldr	r0, .L29+8
 704 000e FFF7FEFF 		bl	i2cAcquireBus
 705              	.LVL70:
 706              		.loc 1 241 0
 707 0012 2846     		mov	r0, r5
 708 0014 2C22     		movs	r2, #44
 709 0016 4FF48061 		mov	r1, #1024
 710 001a FFF7FEFF 		bl	_pal_lld_setgroupmode
 711              	.LVL71:
 712              		.loc 1 246 0
 713 001e 2846     		mov	r0, r5
 714 0020 2C22     		movs	r2, #44
 715 0022 4FF40061 		mov	r1, #2048
 716 0026 FFF7FEFF 		bl	_pal_lld_setgroupmode
 717              	.LVL72:
 718              		.loc 1 251 0
 719 002a 4FF48066 		mov	r6, #1024
 720              		.loc 1 252 0
 721 002e 4FF40063 		mov	r3, #2048
 722              		.loc 1 251 0
 723 0032 2E83     		strh	r6, [r5, #24]	@ movhi
 724              		.loc 1 254 0
 725 0034 0120     		movs	r0, #1
 726              		.loc 1 252 0
 727 0036 2B83     		strh	r3, [r5, #24]	@ movhi
 728              		.loc 1 254 0
 729 0038 FFF7FEFF 		bl	chThdSleep
 730              	.LVL73:
 731              	.LBB2:
 732              		.loc 1 257 0
 733 003c 3746     		mov	r7, r6	@ movhi
 734              	.LBE2:
 735              		.loc 1 254 0
 736 003e 1024     		movs	r4, #16
 737              	.LVL74:
 738              	.L25:
 739              	.LBB3:
 740              		.loc 1 258 0 discriminator 3
 741 0040 0120     		movs	r0, #1
ARM GAS  /tmp/cci3EeN8.s 			page 14


 742              		.loc 1 257 0 discriminator 3
 743 0042 6F83     		strh	r7, [r5, #26]	@ movhi
 744              		.loc 1 258 0 discriminator 3
 745 0044 FFF7FEFF 		bl	chThdSleep
 746              	.LVL75:
 747              		.loc 1 259 0 discriminator 3
 748 0048 2E83     		strh	r6, [r5, #24]	@ movhi
 749              		.loc 1 260 0 discriminator 3
 750 004a 0120     		movs	r0, #1
 751 004c FFF7FEFF 		bl	chThdSleep
 752              	.LVL76:
 753              		.loc 1 256 0 discriminator 3
 754 0050 013C     		subs	r4, r4, #1
 755              	.LVL77:
 756 0052 F5D1     		bne	.L25
 757              	.LBE3:
 758              		.loc 1 264 0
 759 0054 4FF40067 		mov	r7, #2048
 760 0058 6F83     		strh	r7, [r5, #26]	@ movhi
 761              		.loc 1 265 0
 762 005a 0120     		movs	r0, #1
 763 005c FFF7FEFF 		bl	chThdSleep
 764              	.LVL78:
 765              		.loc 1 266 0
 766 0060 6E83     		strh	r6, [r5, #26]	@ movhi
 767              		.loc 1 267 0
 768 0062 0120     		movs	r0, #1
 769 0064 FFF7FEFF 		bl	chThdSleep
 770              	.LVL79:
 771              		.loc 1 268 0
 772 0068 2E83     		strh	r6, [r5, #24]	@ movhi
 773              		.loc 1 269 0
 774 006a 0120     		movs	r0, #1
 775 006c FFF7FEFF 		bl	chThdSleep
 776              	.LVL80:
 777              		.loc 1 284 0
 778 0070 0E4C     		ldr	r4, .L29+8
 779              	.LVL81:
 780              		.loc 1 270 0
 781 0072 2F83     		strh	r7, [r5, #24]	@ movhi
 782              		.loc 1 272 0
 783 0074 40F22E22 		movw	r2, #558
 784 0078 4FF48061 		mov	r1, #1024
 785 007c 0A48     		ldr	r0, .L29+4
 786 007e FFF7FEFF 		bl	_pal_lld_setgroupmode
 787              	.LVL82:
 788              		.loc 1 278 0
 789 0082 3946     		mov	r1, r7
 790 0084 40F22E22 		movw	r2, #558
 791 0088 0748     		ldr	r0, .L29+4
 792 008a FFF7FEFF 		bl	_pal_lld_setgroupmode
 793              	.LVL83:
 794              		.loc 1 284 0
 795 008e 0123     		movs	r3, #1
 796              		.loc 1 285 0
 797 0090 2046     		mov	r0, r4
 798 0092 0749     		ldr	r1, .L29+12
ARM GAS  /tmp/cci3EeN8.s 			page 15


 799              		.loc 1 284 0
 800 0094 2370     		strb	r3, [r4]
 801              		.loc 1 285 0
 802 0096 FFF7FEFF 		bl	i2cStart
 803              	.LVL84:
 804              		.loc 1 287 0
 805 009a 2046     		mov	r0, r4
 806              		.loc 1 289 0
 807 009c BDE8F840 		pop	{r3, r4, r5, r6, r7, lr}
 808              		.cfi_restore 14
 809              		.cfi_restore 7
 810              		.cfi_restore 6
 811              		.cfi_restore 5
 812              		.cfi_restore 4
 813              		.cfi_restore 3
 814              		.cfi_def_cfa_offset 0
 815              		.loc 1 287 0
 816 00a0 FFF7FEBF 		b	i2cReleaseBus
 817              	.LVL85:
 818              	.L30:
 819              		.align	2
 820              	.L29:
 821 00a4 00000000 		.word	.LANCHOR0
 822 00a8 00040240 		.word	1073873920
 823 00ac 00000000 		.word	I2CD2
 824 00b0 00000000 		.word	.LANCHOR1
 825              		.cfi_endproc
 826              	.LFE260:
 827              		.size	hw_try_restore_i2c, .-hw_try_restore_i2c
 828              		.section	.text.hw_id_from_uuid,"ax",%progbits
 829              		.align	1
 830              		.p2align 4,,15
 831              		.global	hw_id_from_uuid
 832              		.syntax unified
 833              		.thumb
 834              		.thumb_func
 835              		.fpu fpv4-sp-d16
 836              		.type	hw_id_from_uuid, %function
 837              	hw_id_from_uuid:
 838              	.LFB261:
 839              		.file 2 "hwconf/hw.c"
 840              		.loc 2 24 0
 841              		.cfi_startproc
 842              		@ args = 0, pretend = 0, frame = 0
 843              		@ frame_needed = 0, uses_anonymous_args = 0
 844 0000 08B5     		push	{r3, lr}
 845              		.cfi_def_cfa_offset 8
 846              		.cfi_offset 3, -8
 847              		.cfi_offset 14, -4
 848              		.loc 2 25 0
 849 0002 0C21     		movs	r1, #12
 850 0004 0248     		ldr	r0, .L33
 851 0006 FFF7FEFF 		bl	utils_crc32c
 852              	.LVL86:
 853              		.loc 2 26 0
 854 000a 00F07F00 		and	r0, r0, #127
 855 000e 08BD     		pop	{r3, pc}
ARM GAS  /tmp/cci3EeN8.s 			page 16


 856              	.L34:
 857              		.align	2
 858              	.L33:
 859 0010 107AFF1F 		.word	536836624
 860              		.cfi_endproc
 861              	.LFE261:
 862              		.size	hw_id_from_uuid, .-hw_id_from_uuid
 863              		.section	.bss.i2c_running,"aw",%nobits
 864              		.set	.LANCHOR0,. + 0
 865              		.type	i2c_running, %object
 866              		.size	i2c_running, 1
 867              	i2c_running:
 868 0000 00       		.space	1
 869              		.section	.rodata.i2cfg,"a",%progbits
 870              		.align	2
 871              		.set	.LANCHOR1,. + 0
 872              		.type	i2cfg, %object
 873              		.size	i2cfg, 12
 874              	i2cfg:
 875 0000 01       		.byte	1
 876 0001 000000   		.space	3
 877 0004 A0860100 		.word	100000
 878 0008 01       		.byte	1
 879 0009 000000   		.space	3
 880              		.text
 881              	.Letext0:
 882              		.file 3 "/usr/arm-none-eabi/include/machine/_default_types.h"
 883              		.file 4 "/usr/arm-none-eabi/include/sys/_stdint.h"
 884              		.file 5 "/usr/lib/gcc/arm-none-eabi/7.3.1/include/stddef.h"
 885              		.file 6 "ChibiOS_3.0.2/os/rt/ports/ARMCMx/compilers/GCC/chtypes.h"
 886              		.file 7 "ChibiOS_3.0.2/os/rt/include/chsystypes.h"
 887              		.file 8 "ChibiOS_3.0.2/os/rt/include/chschd.h"
 888              		.file 9 "ChibiOS_3.0.2/os/ext/CMSIS/include/core_cm4.h"
 889              		.file 10 "ChibiOS_3.0.2/os/ext/CMSIS/ST/system_stm32f4xx.h"
 890              		.file 11 "ChibiOS_3.0.2/os/ext/CMSIS/ST/stm32f407xx.h"
 891              		.file 12 "ChibiOS_3.0.2/os/rt/ports/ARMCMx/chcore.h"
 892              		.file 13 "ChibiOS_3.0.2/os/rt/ports/ARMCMx/chcore_v7m.h"
 893              		.file 14 "ChibiOS_3.0.2/os/rt/include/chtm.h"
 894              		.file 15 "ChibiOS_3.0.2/os/rt/include/chsem.h"
 895              		.file 16 "ChibiOS_3.0.2/os/rt/include/chmtx.h"
 896              		.file 17 "ChibiOS_3.0.2/os/rt/include/chregistry.h"
 897              		.file 18 "ChibiOS_3.0.2/os/rt/include/chevents.h"
 898              		.file 19 "ChibiOS_3.0.2/os/rt/include/chqueues.h"
 899              		.file 20 "./conf_general.h"
 900              		.file 21 "ChibiOS_3.0.2/os/hal/ports/STM32/STM32F4xx/stm32_dma.h"
 901              		.file 22 "ChibiOS_3.0.2/os/hal/ports/STM32/LLD/GPIOv2/pal_lld.h"
 902              		.file 23 "ChibiOS_3.0.2/os/ext/CMSIS/ST/stm32f4xx.h"
 903              		.file 24 "ChibiOS_3.0.2/os/hal/include/can.h"
 904              		.file 25 "ChibiOS_3.0.2/os/hal/ports/STM32/LLD/can_lld.h"
 905              		.file 26 "ChibiOS_3.0.2/os/hal/include/i2c.h"
 906              		.file 27 "ChibiOS_3.0.2/os/hal/ports/STM32/LLD/I2Cv1/i2c_lld.h"
 907              		.file 28 "ChibiOS_3.0.2/os/hal/include/icu.h"
 908              		.file 29 "ChibiOS_3.0.2/os/hal/ports/STM32/LLD/TIMv1/icu_lld.h"
 909              		.file 30 "ChibiOS_3.0.2/os/hal/ports/STM32/LLD/TIMv1/stm32_tim.h"
 910              		.file 31 "ChibiOS_3.0.2/os/hal/include/serial.h"
 911              		.file 32 "ChibiOS_3.0.2/os/hal/ports/STM32/LLD/USARTv1/serial_lld.h"
 912              		.file 33 "ChibiOS_3.0.2/os/hal/include/spi.h"
ARM GAS  /tmp/cci3EeN8.s 			page 17


 913              		.file 34 "ChibiOS_3.0.2/os/hal/ports/STM32/LLD/SPIv1/spi_lld.h"
 914              		.file 35 "ChibiOS_3.0.2/os/hal/include/usb.h"
 915              		.file 36 "ChibiOS_3.0.2/os/hal/ports/STM32/LLD/OTGv1/usb_lld.h"
 916              		.file 37 "ChibiOS_3.0.2/os/hal/ports/STM32/LLD/OTGv1/stm32_otg.h"
 917              		.file 38 "./utils.h"
 918              		.file 39 "ChibiOS_3.0.2/os/rt/include/chthreads.h"
 919              		.file 40 "ChibiOS_3.0.2/ext/stdperiph_stm32f4/inc/stm32f4xx_adc.h"
 920              		.file 41 "ChibiOS_3.0.2/ext/stdperiph_stm32f4/inc/stm32f4xx_rcc.h"
 921              		.file 42 "hwconf/drv8350.h"