ARM GAS  /tmp/ccOvtDtJ.s 			page 1


   1              		.cpu cortex-m4
   2              		.eabi_attribute 27, 1
   3              		.eabi_attribute 28, 1
   4              		.eabi_attribute 20, 1
   5              		.eabi_attribute 21, 1
   6              		.eabi_attribute 23, 3
   7              		.eabi_attribute 24, 1
   8              		.eabi_attribute 25, 1
   9              		.eabi_attribute 26, 1
  10              		.eabi_attribute 30, 2
  11              		.eabi_attribute 34, 1
  12              		.eabi_attribute 18, 4
  13              		.file	"icu_lld.c"
  14              		.text
  15              	.Ltext0:
  16              		.cfi_sections	.debug_frame
  17              		.section	.text.icu_lld_wait_edge.isra.0,"ax",%progbits
  18              		.align	1
  19              		.p2align 4,,15
  20              		.syntax unified
  21              		.thumb
  22              		.thumb_func
  23              		.fpu fpv4-sp-d16
  24              		.type	icu_lld_wait_edge.isra.0, %function
  25              	icu_lld_wait_edge.isra.0:
  26              	.LFB267:
  27              		.file 1 "ChibiOS_3.0.2/os/hal/ports/STM32/LLD/TIMv1/icu_lld.c"
  28              		.loc 1 105 0
  29              		.cfi_startproc
  30              		@ args = 0, pretend = 0, frame = 0
  31              		@ frame_needed = 0, uses_anonymous_args = 0
  32              		@ link register save eliminated.
  33              	.LBB33:
  34              	.LBB34:
  35              	.LBB35:
  36              	.LBB36:
  37              	.LBB37:
  38              		.file 2 "ChibiOS_3.0.2/os/ext/CMSIS/include/core_cmFunc.h"
  39              		.loc 2 331 0
  40              		.syntax unified
  41              	@ 331 "ChibiOS_3.0.2/os/ext/CMSIS/include/core_cmFunc.h" 1
  42 0000 62B6     		cpsie i
  43              	@ 0 "" 2
  44              		.thumb
  45              		.syntax unified
  46              	.LBE37:
  47              	.LBE36:
  48              	.LBE35:
  49              	.LBE34:
  50              	.LBE33:
  51              		.loc 1 114 0
  52 0002 0368     		ldr	r3, [r0]
  53 0004 1B7D     		ldrb	r3, [r3, #20]	@ zero_extendqisi2
  54 0006 63B9     		cbnz	r3, .L2
  55              		.loc 1 116 0
  56 0008 0B68     		ldr	r3, [r1]
  57              	.L3:
ARM GAS  /tmp/ccOvtDtJ.s 			page 2


  58 000a 1869     		ldr	r0, [r3, #16]
  59              	.LVL0:
  60 000c 8207     		lsls	r2, r0, #30
  61 000e FCD0     		beq	.L3
  62              	.L4:
  63              	.LVL1:
  64              	.LBB38:
  65              	.LBB39:
  66              	.LBB40:
  67              	.LBB41:
  68              		.loc 2 342 0
  69              		.syntax unified
  70              	@ 342 "ChibiOS_3.0.2/os/ext/CMSIS/include/core_cmFunc.h" 1
  71 0010 72B6     		cpsid i
  72              	@ 0 "" 2
  73              		.thumb
  74              		.syntax unified
  75              	.LBE41:
  76              	.LBE40:
  77              	.LBE39:
  78              	.LBE38:
  79              		.loc 1 134 0
  80 0012 0A68     		ldr	r2, [r1]
  81 0014 1369     		ldr	r3, [r2, #16]
  82 0016 23F00703 		bic	r3, r3, #7
  83              		.loc 1 139 0
  84 001a 00F00100 		and	r0, r0, #1
  85              	.LVL2:
  86              		.loc 1 134 0
  87 001e 1361     		str	r3, [r2, #16]
  88              		.loc 1 139 0
  89 0020 7047     		bx	lr
  90              	.L2:
  91              		.loc 1 122 0
  92 0022 0B68     		ldr	r3, [r1]
  93              	.L5:
  94 0024 1869     		ldr	r0, [r3, #16]
  95              	.LVL3:
  96 0026 10F0050F 		tst	r0, #5
  97 002a FBD0     		beq	.L5
  98 002c F0E7     		b	.L4
  99              		.cfi_endproc
 100              	.LFE267:
 101              		.size	icu_lld_wait_edge.isra.0, .-icu_lld_wait_edge.isra.0
 102 002e 00BF     		.section	.text.VectorB8,"ax",%progbits
 103              		.align	1
 104              		.p2align 4,,15
 105              		.global	VectorB8
 106              		.syntax unified
 107              		.thumb
 108              		.thumb_func
 109              		.fpu fpv4-sp-d16
 110              		.type	VectorB8, %function
 111              	VectorB8:
 112              	.LFB258:
 113              		.loc 1 270 0
 114              		.cfi_startproc
ARM GAS  /tmp/ccOvtDtJ.s 			page 3


 115              		@ args = 0, pretend = 0, frame = 0
 116              		@ frame_needed = 0, uses_anonymous_args = 0
 117              	.LVL4:
 118 0000 F8B5     		push	{r3, r4, r5, r6, r7, lr}
 119              		.cfi_def_cfa_offset 24
 120              		.cfi_offset 3, -24
 121              		.cfi_offset 4, -20
 122              		.cfi_offset 5, -16
 123              		.cfi_offset 6, -12
 124              		.cfi_offset 7, -8
 125              		.cfi_offset 14, -4
 126              	.LBB44:
 127              	.LBB45:
 128              		.loc 1 149 0
 129 0002 264D     		ldr	r5, .L55
 130 0004 EB68     		ldr	r3, [r5, #12]
 131              		.loc 1 152 0
 132 0006 6968     		ldr	r1, [r5, #4]
 133              		.loc 1 149 0
 134 0008 1C69     		ldr	r4, [r3, #16]
 135              	.LVL5:
 136              		.loc 1 150 0
 137 000a DA68     		ldr	r2, [r3, #12]
 138              		.loc 1 152 0
 139 000c 087D     		ldrb	r0, [r1, #20]	@ zero_extendqisi2
 140 000e 1440     		ands	r4, r4, r2
 141              	.LVL6:
 142              		.loc 1 150 0
 143 0010 E2B2     		uxtb	r2, r4
 144              		.loc 1 151 0
 145 0012 D243     		mvns	r2, r2
 146 0014 1A61     		str	r2, [r3, #16]
 147 0016 04F00206 		and	r6, r4, #2
 148              		.loc 1 152 0
 149 001a 88B9     		cbnz	r0, .L12
 150              		.loc 1 153 0
 151 001c 6207     		lsls	r2, r4, #29
 152 001e 30D5     		bpl	.L13
 153              		.loc 1 154 0
 154 0020 2B78     		ldrb	r3, [r5]	@ zero_extendqisi2
 155 0022 042B     		cmp	r3, #4
 156 0024 29D0     		beq	.L52
 157              		.loc 1 155 0
 158 0026 9EB9     		cbnz	r6, .L19
 159              	.L17:
 160              		.loc 1 164 0
 161 0028 E307     		lsls	r3, r4, #31
 162 002a 05D5     		bpl	.L25
 163              		.loc 1 165 0
 164 002c 6B68     		ldr	r3, [r5, #4]
 165 002e 1B48     		ldr	r0, .L55
 166 0030 1B69     		ldr	r3, [r3, #16]
 167 0032 9847     		blx	r3
 168              	.LVL7:
 169 0034 0323     		movs	r3, #3
 170 0036 2B70     		strb	r3, [r5]
 171              	.L25:
ARM GAS  /tmp/ccOvtDtJ.s 			page 4


 172              	.LVL8:
 173              	.LBE45:
 174              	.LBE44:
 175              		.loc 1 277 0
 176 0038 BDE8F840 		pop	{r3, r4, r5, r6, r7, lr}
 177              		.cfi_remember_state
 178              		.cfi_restore 14
 179              		.cfi_restore 7
 180              		.cfi_restore 6
 181              		.cfi_restore 5
 182              		.cfi_restore 4
 183              		.cfi_restore 3
 184              		.cfi_def_cfa_offset 0
 185              		.loc 1 276 0
 186 003c FFF7FEBF 		b	_port_irq_epilogue
 187              	.LVL9:
 188              	.L12:
 189              		.cfi_restore_state
 190 0040 04F00407 		and	r7, r4, #4
 191              	.LBB47:
 192              	.LBB46:
 193              		.loc 1 159 0
 194 0044 5EB1     		cbz	r6, .L21
 195              		.loc 1 160 0
 196 0046 2B78     		ldrb	r3, [r5]	@ zero_extendqisi2
 197 0048 042B     		cmp	r3, #4
 198 004a 04D0     		beq	.L53
 199              		.loc 1 161 0
 200 004c 002F     		cmp	r7, #0
 201 004e EBD0     		beq	.L17
 202              	.L19:
 203              		.loc 1 156 0
 204 0050 0423     		movs	r3, #4
 205 0052 2B70     		strb	r3, [r5]
 206 0054 E8E7     		b	.L17
 207              	.L53:
 208              		.loc 1 160 0
 209 0056 8B68     		ldr	r3, [r1, #8]
 210 0058 E3B1     		cbz	r3, .L23
 211 005a 2846     		mov	r0, r5
 212 005c 9847     		blx	r3
 213              	.LVL10:
 214              	.L21:
 215              		.loc 1 161 0
 216 005e 002F     		cmp	r7, #0
 217 0060 E2D0     		beq	.L17
 218              		.loc 1 156 0
 219 0062 2B78     		ldrb	r3, [r5]	@ zero_extendqisi2
 220 0064 042B     		cmp	r3, #4
 221 0066 F3D1     		bne	.L19
 222              	.L54:
 223 0068 6968     		ldr	r1, [r5, #4]
 224              	.L26:
 225 006a CB68     		ldr	r3, [r1, #12]
 226 006c 002B     		cmp	r3, #0
 227 006e EFD0     		beq	.L19
 228 0070 0A48     		ldr	r0, .L55
ARM GAS  /tmp/ccOvtDtJ.s 			page 5


 229 0072 9847     		blx	r3
 230              	.LVL11:
 231 0074 0423     		movs	r3, #4
 232 0076 2B70     		strb	r3, [r5]
 233 0078 D6E7     		b	.L17
 234              	.L52:
 235              		.loc 1 154 0
 236 007a 8B68     		ldr	r3, [r1, #8]
 237 007c 3BB1     		cbz	r3, .L15
 238 007e 2846     		mov	r0, r5
 239 0080 9847     		blx	r3
 240              	.LVL12:
 241              	.L13:
 242              		.loc 1 155 0
 243 0082 002E     		cmp	r6, #0
 244 0084 D0D0     		beq	.L17
 245              		.loc 1 156 0
 246 0086 2B78     		ldrb	r3, [r5]	@ zero_extendqisi2
 247 0088 042B     		cmp	r3, #4
 248 008a E1D1     		bne	.L19
 249 008c ECE7     		b	.L54
 250              	.L15:
 251              		.loc 1 155 0
 252 008e 002E     		cmp	r6, #0
 253 0090 CAD0     		beq	.L17
 254 0092 EAE7     		b	.L26
 255              	.L23:
 256              		.loc 1 161 0
 257 0094 002F     		cmp	r7, #0
 258 0096 C7D0     		beq	.L17
 259 0098 E7E7     		b	.L26
 260              	.L56:
 261 009a 00BF     		.align	2
 262              	.L55:
 263 009c 00000000 		.word	.LANCHOR0
 264              	.LBE46:
 265              	.LBE47:
 266              		.cfi_endproc
 267              	.LFE258:
 268              		.size	VectorB8, .-VectorB8
 269              		.section	.text.icu_lld_init,"ax",%progbits
 270              		.align	1
 271              		.p2align 4,,15
 272              		.global	icu_lld_init
 273              		.syntax unified
 274              		.thumb
 275              		.thumb_func
 276              		.fpu fpv4-sp-d16
 277              		.type	icu_lld_init, %function
 278              	icu_lld_init:
 279              	.LFB259:
 280              		.loc 1 375 0
 281              		.cfi_startproc
 282              		@ args = 0, pretend = 0, frame = 0
 283              		@ frame_needed = 0, uses_anonymous_args = 0
 284 0000 10B5     		push	{r4, lr}
 285              		.cfi_def_cfa_offset 8
ARM GAS  /tmp/ccOvtDtJ.s 			page 6


 286              		.cfi_offset 4, -8
 287              		.cfi_offset 14, -4
 288              		.loc 1 397 0
 289 0002 034C     		ldr	r4, .L59
 290 0004 2046     		mov	r0, r4
 291 0006 FFF7FEFF 		bl	icuObjectInit
 292              	.LVL13:
 293              		.loc 1 398 0
 294 000a 024B     		ldr	r3, .L59+4
 295 000c E360     		str	r3, [r4, #12]
 296              		.loc 1 418 0
 297 000e 10BD     		pop	{r4, pc}
 298              	.L60:
 299              		.align	2
 300              	.L59:
 301 0010 00000000 		.word	.LANCHOR0
 302 0014 00080040 		.word	1073743872
 303              		.cfi_endproc
 304              	.LFE259:
 305              		.size	icu_lld_init, .-icu_lld_init
 306              		.section	.text.icu_lld_start,"ax",%progbits
 307              		.align	1
 308              		.p2align 4,,15
 309              		.global	icu_lld_start
 310              		.syntax unified
 311              		.thumb
 312              		.thumb_func
 313              		.fpu fpv4-sp-d16
 314              		.type	icu_lld_start, %function
 315              	icu_lld_start:
 316              	.LFB260:
 317              		.loc 1 427 0
 318              		.cfi_startproc
 319              		@ args = 0, pretend = 0, frame = 0
 320              		@ frame_needed = 0, uses_anonymous_args = 0
 321              	.LVL14:
 322              		.loc 1 434 0
 323 0000 0378     		ldrb	r3, [r0]	@ zero_extendqisi2
 324 0002 012B     		cmp	r3, #1
 325              		.loc 1 427 0
 326 0004 70B5     		push	{r4, r5, r6, lr}
 327              		.cfi_def_cfa_offset 16
 328              		.cfi_offset 4, -16
 329              		.cfi_offset 5, -12
 330              		.cfi_offset 6, -8
 331              		.cfi_offset 14, -4
 332              		.loc 1 427 0
 333 0006 0446     		mov	r4, r0
 334              		.loc 1 434 0
 335 0008 3AD0     		beq	.L73
 336              		.loc 1 505 0
 337 000a C368     		ldr	r3, [r0, #12]
 338 000c 0022     		movs	r2, #0
 339 000e 1A60     		str	r2, [r3]
 340              		.loc 1 506 0
 341 0010 5A63     		str	r2, [r3, #52]
 342              		.loc 1 507 0
ARM GAS  /tmp/ccOvtDtJ.s 			page 7


 343 0012 9A63     		str	r2, [r3, #56]
 344              		.loc 1 508 0
 345 0014 5A62     		str	r2, [r3, #36]
 346              	.LVL15:
 347              	.L64:
 348              		.loc 1 515 0
 349 0016 D4E90112 		ldrd	r1, r2, [r4, #4]
 350              		.loc 1 513 0
 351 001a 8869     		ldr	r0, [r1, #24]
 352              		.loc 1 522 0
 353 001c 0D7D     		ldrb	r5, [r1, #20]	@ zero_extendqisi2
 354              		.loc 1 513 0
 355 001e 20F0FF00 		bic	r0, r0, #255
 356              		.loc 1 512 0
 357 0022 0026     		movs	r6, #0
 358 0024 1E61     		str	r6, [r3, #16]
 359              		.loc 1 513 0
 360 0026 D860     		str	r0, [r3, #12]
 361              		.loc 1 515 0
 362 0028 4868     		ldr	r0, [r1, #4]
 363 002a B2FBF0F2 		udiv	r2, r2, r0
 364              		.loc 1 520 0
 365 002e 4FF6FF70 		movw	r0, #65535
 366              		.loc 1 515 0
 367 0032 013A     		subs	r2, r2, #1
 368              	.LVL16:
 369              		.loc 1 519 0
 370 0034 9A62     		str	r2, [r3, #40]
 371 0036 0A78     		ldrb	r2, [r1]	@ zero_extendqisi2
 372              	.LVL17:
 373              		.loc 1 520 0
 374 0038 D862     		str	r0, [r3, #44]
 375              	.LVL18:
 376              		.loc 1 522 0
 377 003a 6DB9     		cbnz	r5, .L65
 378              		.loc 1 526 0
 379 003c 40F20120 		movw	r0, #513
 380              		.loc 1 530 0
 381 0040 5421     		movs	r1, #84
 382              	.LVL19:
 383              		.loc 1 526 0
 384 0042 9861     		str	r0, [r3, #24]
 385              		.loc 1 530 0
 386 0044 9960     		str	r1, [r3, #8]
 387              		.loc 1 535 0
 388 0046 C2B1     		cbz	r2, .L74
 389              		.loc 1 539 0
 390 0048 1322     		movs	r2, #19
 391 004a 1A62     		str	r2, [r3, #32]
 392              	.LVL20:
 393              	.L67:
 394              		.loc 1 544 0
 395 004c 03F13802 		add	r2, r3, #56
 396              		.loc 1 545 0
 397 0050 3433     		adds	r3, r3, #52
 398 0052 C4E90423 		strd	r2, r3, [r4, #16]
 399              		.loc 1 572 0
ARM GAS  /tmp/ccOvtDtJ.s 			page 8


 400 0056 70BD     		pop	{r4, r5, r6, pc}
 401              	.LVL21:
 402              	.L65:
 403              		.loc 1 551 0
 404 0058 4FF48170 		mov	r0, #258
 405              		.loc 1 555 0
 406 005c 6421     		movs	r1, #100
 407              	.LVL22:
 408              		.loc 1 551 0
 409 005e 9861     		str	r0, [r3, #24]
 410              		.loc 1 555 0
 411 0060 9960     		str	r1, [r3, #8]
 412              		.loc 1 560 0
 413 0062 3AB1     		cbz	r2, .L75
 414              		.loc 1 564 0
 415 0064 3122     		movs	r2, #49
 416 0066 1A62     		str	r2, [r3, #32]
 417              	.LVL23:
 418              	.L70:
 419              		.loc 1 569 0
 420 0068 03F13402 		add	r2, r3, #52
 421              		.loc 1 570 0
 422 006c 3833     		adds	r3, r3, #56
 423 006e C4E90423 		strd	r2, r3, [r4, #16]
 424              		.loc 1 572 0
 425 0072 70BD     		pop	{r4, r5, r6, pc}
 426              	.LVL24:
 427              	.L75:
 428              		.loc 1 561 0
 429 0074 1322     		movs	r2, #19
 430 0076 1A62     		str	r2, [r3, #32]
 431              	.LVL25:
 432 0078 F6E7     		b	.L70
 433              	.LVL26:
 434              	.L74:
 435              		.loc 1 536 0
 436 007a 3122     		movs	r2, #49
 437 007c 1A62     		str	r2, [r3, #32]
 438              	.LVL27:
 439 007e E5E7     		b	.L67
 440              	.LVL28:
 441              	.L73:
 442              		.loc 1 466 0
 443 0080 0B4B     		ldr	r3, .L76
 444 0082 9842     		cmp	r0, r3
 445 0084 01D0     		beq	.L63
 446              	.LVL29:
 447              	.L72:
 448 0086 E368     		ldr	r3, [r4, #12]
 449 0088 C5E7     		b	.L64
 450              	.LVL30:
 451              	.L63:
 452              		.loc 1 467 0
 453 008a 0A4B     		ldr	r3, .L76+4
 454 008c 1A6C     		ldr	r2, [r3, #64]
 455 008e 42F00402 		orr	r2, r2, #4
 456 0092 1A64     		str	r2, [r3, #64]
ARM GAS  /tmp/ccOvtDtJ.s 			page 9


 457              		.loc 1 468 0
 458 0094 1A6A     		ldr	r2, [r3, #32]
 459 0096 0020     		movs	r0, #0
 460              	.LVL31:
 461 0098 42F00402 		orr	r2, r2, #4
 462 009c 1A62     		str	r2, [r3, #32]
 463              		.loc 1 469 0
 464 009e 0721     		movs	r1, #7
 465              		.loc 1 468 0
 466 00a0 1862     		str	r0, [r3, #32]
 467              		.loc 1 469 0
 468 00a2 1E20     		movs	r0, #30
 469 00a4 FFF7FEFF 		bl	nvicEnableVector
 470              	.LVL32:
 471              		.loc 1 470 0
 472 00a8 034B     		ldr	r3, .L76+8
 473 00aa A360     		str	r3, [r4, #8]
 474 00ac EBE7     		b	.L72
 475              	.L77:
 476 00ae 00BF     		.align	2
 477              	.L76:
 478 00b0 00000000 		.word	.LANCHOR0
 479 00b4 00380240 		.word	1073887232
 480 00b8 00BD0105 		.word	84000000
 481              		.cfi_endproc
 482              	.LFE260:
 483              		.size	icu_lld_start, .-icu_lld_start
 484              		.section	.text.icu_lld_stop,"ax",%progbits
 485              		.align	1
 486              		.p2align 4,,15
 487              		.global	icu_lld_stop
 488              		.syntax unified
 489              		.thumb
 490              		.thumb_func
 491              		.fpu fpv4-sp-d16
 492              		.type	icu_lld_stop, %function
 493              	icu_lld_stop:
 494              	.LFB261:
 495              		.loc 1 581 0
 496              		.cfi_startproc
 497              		@ args = 0, pretend = 0, frame = 0
 498              		@ frame_needed = 0, uses_anonymous_args = 0
 499              	.LVL33:
 500 0000 08B5     		push	{r3, lr}
 501              		.cfi_def_cfa_offset 8
 502              		.cfi_offset 3, -8
 503              		.cfi_offset 14, -4
 504              		.loc 1 583 0
 505 0002 0378     		ldrb	r3, [r0]	@ zero_extendqisi2
 506 0004 022B     		cmp	r3, #2
 507 0006 00D0     		beq	.L83
 508              	.L78:
 509              		.loc 1 634 0
 510 0008 08BD     		pop	{r3, pc}
 511              	.L83:
 512              		.loc 1 609 0
 513 000a 0849     		ldr	r1, .L84
ARM GAS  /tmp/ccOvtDtJ.s 			page 10


 514              		.loc 1 585 0
 515 000c C368     		ldr	r3, [r0, #12]
 516 000e 0022     		movs	r2, #0
 517              		.loc 1 609 0
 518 0010 8842     		cmp	r0, r1
 519              		.loc 1 585 0
 520 0012 1A60     		str	r2, [r3]
 521              		.loc 1 586 0
 522 0014 DA60     		str	r2, [r3, #12]
 523              		.loc 1 587 0
 524 0016 1A61     		str	r2, [r3, #16]
 525              		.loc 1 609 0
 526 0018 F6D1     		bne	.L78
 527              		.loc 1 610 0
 528 001a 1E20     		movs	r0, #30
 529              	.LVL34:
 530 001c FFF7FEFF 		bl	nvicDisableVector
 531              	.LVL35:
 532              		.loc 1 611 0
 533 0020 034A     		ldr	r2, .L84+4
 534 0022 136C     		ldr	r3, [r2, #64]
 535 0024 23F00403 		bic	r3, r3, #4
 536 0028 1364     		str	r3, [r2, #64]
 537              		.loc 1 634 0
 538 002a 08BD     		pop	{r3, pc}
 539              	.L85:
 540              		.align	2
 541              	.L84:
 542 002c 00000000 		.word	.LANCHOR0
 543 0030 00380240 		.word	1073887232
 544              		.cfi_endproc
 545              	.LFE261:
 546              		.size	icu_lld_stop, .-icu_lld_stop
 547              		.section	.text.icu_lld_start_capture,"ax",%progbits
 548              		.align	1
 549              		.p2align 4,,15
 550              		.global	icu_lld_start_capture
 551              		.syntax unified
 552              		.thumb
 553              		.thumb_func
 554              		.fpu fpv4-sp-d16
 555              		.type	icu_lld_start_capture, %function
 556              	icu_lld_start_capture:
 557              	.LFB262:
 558              		.loc 1 643 0
 559              		.cfi_startproc
 560              		@ args = 0, pretend = 0, frame = 0
 561              		@ frame_needed = 0, uses_anonymous_args = 0
 562              		@ link register save eliminated.
 563              	.LVL36:
 564              		.loc 1 646 0
 565 0000 C368     		ldr	r3, [r0, #12]
 566 0002 5A69     		ldr	r2, [r3, #20]
 567              		.loc 1 647 0
 568 0004 0020     		movs	r0, #0
 569              	.LVL37:
 570              		.loc 1 646 0
ARM GAS  /tmp/ccOvtDtJ.s 			page 11


 571 0006 42F00102 		orr	r2, r2, #1
 572              		.loc 1 650 0
 573 000a 0521     		movs	r1, #5
 574              		.loc 1 646 0
 575 000c 5A61     		str	r2, [r3, #20]
 576              		.loc 1 647 0
 577 000e 1861     		str	r0, [r3, #16]
 578              		.loc 1 650 0
 579 0010 1960     		str	r1, [r3]
 580              		.loc 1 651 0
 581 0012 7047     		bx	lr
 582              		.cfi_endproc
 583              	.LFE262:
 584              		.size	icu_lld_start_capture, .-icu_lld_start_capture
 585              		.section	.text.icu_lld_wait_capture,"ax",%progbits
 586              		.align	1
 587              		.p2align 4,,15
 588              		.global	icu_lld_wait_capture
 589              		.syntax unified
 590              		.thumb
 591              		.thumb_func
 592              		.fpu fpv4-sp-d16
 593              		.type	icu_lld_wait_capture, %function
 594              	icu_lld_wait_capture:
 595              	.LFB263:
 596              		.loc 1 665 0
 597              		.cfi_startproc
 598              		@ args = 0, pretend = 0, frame = 0
 599              		@ frame_needed = 0, uses_anonymous_args = 0
 600              	.LVL38:
 601 0000 38B5     		push	{r3, r4, r5, lr}
 602              		.cfi_def_cfa_offset 16
 603              		.cfi_offset 3, -16
 604              		.cfi_offset 4, -12
 605              		.cfi_offset 5, -8
 606              		.cfi_offset 14, -4
 607              		.loc 1 669 0
 608 0002 0378     		ldrb	r3, [r0]	@ zero_extendqisi2
 609 0004 032B     		cmp	r3, #3
 610 0006 00F10405 		add	r5, r0, #4
 611 000a 00F10C04 		add	r4, r0, #12
 612 000e 05D0     		beq	.L88
 613              	.LVL39:
 614              	.L89:
 615              		.loc 1 674 0
 616 0010 2146     		mov	r1, r4
 617 0012 2846     		mov	r0, r5
 618              		.loc 1 675 0
 619 0014 BDE83840 		pop	{r3, r4, r5, lr}
 620              		.cfi_remember_state
 621              		.cfi_restore 14
 622              		.cfi_restore 5
 623              		.cfi_restore 4
 624              		.cfi_restore 3
 625              		.cfi_def_cfa_offset 0
 626              	.LVL40:
 627              		.loc 1 674 0
ARM GAS  /tmp/ccOvtDtJ.s 			page 12


 628 0018 FFF7FEBF 		b	icu_lld_wait_edge.isra.0
 629              	.LVL41:
 630              	.L88:
 631              		.cfi_restore_state
 632              		.loc 1 670 0
 633 001c 2146     		mov	r1, r4
 634 001e 2846     		mov	r0, r5
 635              	.LVL42:
 636 0020 FFF7FEFF 		bl	icu_lld_wait_edge.isra.0
 637              	.LVL43:
 638 0024 0028     		cmp	r0, #0
 639 0026 F3D0     		beq	.L89
 640              	.LVL44:
 641              		.loc 1 675 0
 642 0028 38BD     		pop	{r3, r4, r5, pc}
 643              		.cfi_endproc
 644              	.LFE263:
 645              		.size	icu_lld_wait_capture, .-icu_lld_wait_capture
 646 002a 00BF     		.section	.text.icu_lld_stop_capture,"ax",%progbits
 647              		.align	1
 648              		.p2align 4,,15
 649              		.global	icu_lld_stop_capture
 650              		.syntax unified
 651              		.thumb
 652              		.thumb_func
 653              		.fpu fpv4-sp-d16
 654              		.type	icu_lld_stop_capture, %function
 655              	icu_lld_stop_capture:
 656              	.LFB264:
 657              		.loc 1 684 0
 658              		.cfi_startproc
 659              		@ args = 0, pretend = 0, frame = 0
 660              		@ frame_needed = 0, uses_anonymous_args = 0
 661              		@ link register save eliminated.
 662              	.LVL45:
 663              		.loc 1 687 0
 664 0000 C368     		ldr	r3, [r0, #12]
 665 0002 0022     		movs	r2, #0
 666 0004 1A60     		str	r2, [r3]
 667              		.loc 1 690 0
 668 0006 DA68     		ldr	r2, [r3, #12]
 669 0008 22F0FF02 		bic	r2, r2, #255
 670 000c DA60     		str	r2, [r3, #12]
 671              		.loc 1 691 0
 672 000e 7047     		bx	lr
 673              		.cfi_endproc
 674              	.LFE264:
 675              		.size	icu_lld_stop_capture, .-icu_lld_stop_capture
 676              		.section	.text.icu_lld_enable_notifications,"ax",%progbits
 677              		.align	1
 678              		.p2align 4,,15
 679              		.global	icu_lld_enable_notifications
 680              		.syntax unified
 681              		.thumb
 682              		.thumb_func
 683              		.fpu fpv4-sp-d16
 684              		.type	icu_lld_enable_notifications, %function
ARM GAS  /tmp/ccOvtDtJ.s 			page 13


 685              	icu_lld_enable_notifications:
 686              	.LFB265:
 687              		.loc 1 702 0
 688              		.cfi_startproc
 689              		@ args = 0, pretend = 0, frame = 0
 690              		@ frame_needed = 0, uses_anonymous_args = 0
 691              		@ link register save eliminated.
 692              	.LVL46:
 693              		.loc 1 703 0
 694 0000 C268     		ldr	r2, [r0, #12]
 695 0002 D368     		ldr	r3, [r2, #12]
 696              	.LVL47:
 697              		.loc 1 702 0
 698 0004 10B4     		push	{r4}
 699              		.cfi_def_cfa_offset 4
 700              		.cfi_offset 4, -4
 701              		.loc 1 708 0
 702 0006 13F0FF04 		ands	r4, r3, #255
 703 000a 0CD1     		bne	.L95
 704              		.loc 1 712 0
 705 000c 4168     		ldr	r1, [r0, #4]
 706              		.loc 1 710 0
 707 000e 1461     		str	r4, [r2, #16]
 708              		.loc 1 712 0
 709 0010 0C7D     		ldrb	r4, [r1, #20]	@ zero_extendqisi2
 710 0012 8868     		ldr	r0, [r1, #8]
 711              	.LVL48:
 712 0014 54B9     		cbnz	r4, .L97
 713              	.LVL49:
 714              		.loc 1 717 0
 715 0016 70B1     		cbz	r0, .L106
 716              	.LVL50:
 717              	.L100:
 718              		.loc 1 726 0
 719 0018 43F00603 		orr	r3, r3, #6
 720              	.LVL51:
 721              	.L99:
 722              		.loc 1 731 0
 723 001c 0969     		ldr	r1, [r1, #16]
 724 001e 09B1     		cbz	r1, .L101
 725              		.loc 1 732 0
 726 0020 43F00103 		orr	r3, r3, #1
 727              	.LVL52:
 728              	.L101:
 729              		.loc 1 735 0
 730 0024 D360     		str	r3, [r2, #12]
 731              	.L95:
 732              		.loc 1 737 0
 733 0026 5DF8044B 		ldr	r4, [sp], #4
 734              		.cfi_remember_state
 735              		.cfi_restore 4
 736              		.cfi_def_cfa_offset 0
 737 002a 7047     		bx	lr
 738              	.L97:
 739              		.cfi_restore_state
 740              	.LVL53:
 741              		.loc 1 725 0
ARM GAS  /tmp/ccOvtDtJ.s 			page 14


 742 002c 0028     		cmp	r0, #0
 743 002e F3D1     		bne	.L100
 744              		.loc 1 722 0
 745 0030 43F00403 		orr	r3, r3, #4
 746              	.LVL54:
 747 0034 F2E7     		b	.L99
 748              	.LVL55:
 749              	.L106:
 750              		.loc 1 714 0
 751 0036 43F00203 		orr	r3, r3, #2
 752              	.LVL56:
 753 003a EFE7     		b	.L99
 754              		.cfi_endproc
 755              	.LFE265:
 756              		.size	icu_lld_enable_notifications, .-icu_lld_enable_notifications
 757              		.section	.text.icu_lld_disable_notifications,"ax",%progbits
 758              		.align	1
 759              		.p2align 4,,15
 760              		.global	icu_lld_disable_notifications
 761              		.syntax unified
 762              		.thumb
 763              		.thumb_func
 764              		.fpu fpv4-sp-d16
 765              		.type	icu_lld_disable_notifications, %function
 766              	icu_lld_disable_notifications:
 767              	.LFB266:
 768              		.loc 1 748 0
 769              		.cfi_startproc
 770              		@ args = 0, pretend = 0, frame = 0
 771              		@ frame_needed = 0, uses_anonymous_args = 0
 772              		@ link register save eliminated.
 773              	.LVL57:
 774              		.loc 1 751 0
 775 0000 C268     		ldr	r2, [r0, #12]
 776 0002 D368     		ldr	r3, [r2, #12]
 777 0004 23F0FF03 		bic	r3, r3, #255
 778 0008 D360     		str	r3, [r2, #12]
 779              		.loc 1 752 0
 780 000a 7047     		bx	lr
 781              		.cfi_endproc
 782              	.LFE266:
 783              		.size	icu_lld_disable_notifications, .-icu_lld_disable_notifications
 784              		.global	ICUD4
 785              		.section	.bss.ICUD4,"aw",%nobits
 786              		.align	2
 787              		.set	.LANCHOR0,. + 0
 788              		.type	ICUD4, %object
 789              		.size	ICUD4, 24
 790              	ICUD4:
 791 0000 00000000 		.space	24
 791      00000000 
 791      00000000 
 791      00000000 
 791      00000000 
 792              		.text
 793              	.Letext0:
 794              		.file 3 "/usr/lib/gcc/arm-none-eabi/7.3.1/include/stddef.h"
ARM GAS  /tmp/ccOvtDtJ.s 			page 15


 795              		.file 4 "/usr/arm-none-eabi/include/machine/_default_types.h"
 796              		.file 5 "/usr/arm-none-eabi/include/sys/_stdint.h"
 797              		.file 6 "ChibiOS_3.0.2/os/rt/ports/ARMCMx/compilers/GCC/chtypes.h"
 798              		.file 7 "ChibiOS_3.0.2/os/rt/include/chsystypes.h"
 799              		.file 8 "ChibiOS_3.0.2/os/rt/include/chschd.h"
 800              		.file 9 "ChibiOS_3.0.2/os/ext/CMSIS/include/core_cm4.h"
 801              		.file 10 "ChibiOS_3.0.2/os/ext/CMSIS/ST/system_stm32f4xx.h"
 802              		.file 11 "ChibiOS_3.0.2/os/ext/CMSIS/ST/stm32f407xx.h"
 803              		.file 12 "ChibiOS_3.0.2/os/rt/ports/ARMCMx/chcore.h"
 804              		.file 13 "ChibiOS_3.0.2/os/rt/ports/ARMCMx/chcore_v7m.h"
 805              		.file 14 "ChibiOS_3.0.2/os/rt/include/chtm.h"
 806              		.file 15 "ChibiOS_3.0.2/os/rt/include/chsem.h"
 807              		.file 16 "ChibiOS_3.0.2/os/rt/include/chmtx.h"
 808              		.file 17 "ChibiOS_3.0.2/os/rt/include/chregistry.h"
 809              		.file 18 "ChibiOS_3.0.2/os/rt/include/chevents.h"
 810              		.file 19 "ChibiOS_3.0.2/os/rt/include/chqueues.h"
 811              		.file 20 "./conf_general.h"
 812              		.file 21 "ChibiOS_3.0.2/os/hal/ports/STM32/STM32F4xx/stm32_dma.h"
 813              		.file 22 "ChibiOS_3.0.2/os/hal/ports/STM32/LLD/GPIOv2/pal_lld.h"
 814              		.file 23 "ChibiOS_3.0.2/os/hal/include/can.h"
 815              		.file 24 "ChibiOS_3.0.2/os/hal/ports/STM32/LLD/can_lld.h"
 816              		.file 25 "ChibiOS_3.0.2/os/hal/include/i2c.h"
 817              		.file 26 "ChibiOS_3.0.2/os/hal/ports/STM32/LLD/I2Cv1/i2c_lld.h"
 818              		.file 27 "ChibiOS_3.0.2/os/hal/include/icu.h"
 819              		.file 28 "ChibiOS_3.0.2/os/hal/ports/STM32/LLD/TIMv1/icu_lld.h"
 820              		.file 29 "ChibiOS_3.0.2/os/hal/ports/STM32/LLD/TIMv1/stm32_tim.h"
 821              		.file 30 "ChibiOS_3.0.2/os/hal/include/serial.h"
 822              		.file 31 "ChibiOS_3.0.2/os/hal/ports/STM32/LLD/USARTv1/serial_lld.h"
 823              		.file 32 "ChibiOS_3.0.2/os/hal/include/spi.h"
 824              		.file 33 "ChibiOS_3.0.2/os/hal/ports/STM32/LLD/SPIv1/spi_lld.h"
 825              		.file 34 "ChibiOS_3.0.2/os/hal/include/usb.h"
 826              		.file 35 "ChibiOS_3.0.2/os/hal/ports/STM32/LLD/OTGv1/usb_lld.h"
 827              		.file 36 "ChibiOS_3.0.2/os/hal/ports/STM32/LLD/OTGv1/stm32_otg.h"
 828              		.file 37 "ChibiOS_3.0.2/os/rt/include/chsys.h"
 829              		.file 38 "ChibiOS_3.0.2/os/hal/ports/common/ARMCMx/nvic.h"