ARM GAS  /tmp/ccqzIfgg.s 			page 1


   1              		.cpu cortex-m4
   2              		.eabi_attribute 27, 1
   3              		.eabi_attribute 28, 1
   4              		.eabi_attribute 20, 1
   5              		.eabi_attribute 21, 1
   6              		.eabi_attribute 23, 3
   7              		.eabi_attribute 24, 1
   8              		.eabi_attribute 25, 1
   9              		.eabi_attribute 26, 1
  10              		.eabi_attribute 30, 2
  11              		.eabi_attribute 34, 1
  12              		.eabi_attribute 18, 4
  13              		.file	"imu.c"
  14              		.text
  15              	.Ltext0:
  16              		.cfi_sections	.debug_frame
  17              		.global	__aeabi_f2d
  18              		.section	.text.terminal_gyro_info,"ax",%progbits
  19              		.align	1
  20              		.p2align 4,,15
  21              		.syntax unified
  22              		.thumb
  23              		.thumb_func
  24              		.fpu fpv4-sp-d16
  25              		.type	terminal_gyro_info, %function
  26              	terminal_gyro_info:
  27              	.LFB273:
  28              		.file 1 "imu/imu.c"
  29              		.loc 1 331 0
  30              		.cfi_startproc
  31              		@ args = 0, pretend = 0, frame = 0
  32              		@ frame_needed = 0, uses_anonymous_args = 0
  33              	.LVL0:
  34 0000 F0B5     		push	{r4, r5, r6, r7, lr}
  35              		.cfi_def_cfa_offset 20
  36              		.cfi_offset 4, -20
  37              		.cfi_offset 5, -16
  38              		.cfi_offset 6, -12
  39              		.cfi_offset 7, -8
  40              		.cfi_offset 14, -4
  41              		.loc 1 336 0
  42 0002 174D     		ldr	r5, .L4
  43 0004 174C     		ldr	r4, .L4+4
  44 0006 95ED0C7A 		vldr.32	s14, [r5, #48]
  45 000a D4ED007A 		vldr.32	s15, [r4]
  46              		.loc 1 335 0
  47 000e 77EE277A 		vadd.f32	s15, s14, s15
  48              		.loc 1 331 0
  49 0012 85B0     		sub	sp, sp, #20
  50              		.cfi_def_cfa_offset 40
  51              		.loc 1 335 0
  52 0014 17EE900A 		vmov	r0, s15
  53              	.LVL1:
  54 0018 FFF7FEFF 		bl	__aeabi_f2d
  55              	.LVL2:
  56              		.loc 1 338 0
  57 001c 95ED0E7A 		vldr.32	s14, [r5, #56]
ARM GAS  /tmp/ccqzIfgg.s 			page 2


  58 0020 D4ED027A 		vldr.32	s15, [r4, #8]
  59              		.loc 1 335 0
  60 0024 77EE277A 		vadd.f32	s15, s14, s15
  61 0028 0646     		mov	r6, r0
  62 002a 17EE900A 		vmov	r0, s15
  63 002e 0F46     		mov	r7, r1
  64 0030 FFF7FEFF 		bl	__aeabi_f2d
  65              	.LVL3:
  66              		.loc 1 337 0
  67 0034 95ED0D7A 		vldr.32	s14, [r5, #52]
  68 0038 D4ED017A 		vldr.32	s15, [r4, #4]
  69              		.loc 1 335 0
  70 003c 77EE277A 		vadd.f32	s15, s14, s15
  71 0040 CDE90201 		strd	r0, [sp, #8]
  72 0044 17EE900A 		vmov	r0, s15
  73 0048 FFF7FEFF 		bl	__aeabi_f2d
  74              	.LVL4:
  75 004c 3246     		mov	r2, r6
  76 004e CDE90001 		strd	r0, [sp]
  77 0052 3B46     		mov	r3, r7
  78 0054 0448     		ldr	r0, .L4+8
  79 0056 FFF7FEFF 		bl	commands_printf
  80              	.LVL5:
  81              		.loc 1 339 0
  82 005a 05B0     		add	sp, sp, #20
  83              		.cfi_def_cfa_offset 20
  84              		@ sp needed
  85 005c F0BD     		pop	{r4, r5, r6, r7, pc}
  86              	.L5:
  87 005e 00BF     		.align	2
  88              	.L4:
  89 0060 00000000 		.word	.LANCHOR0
  90 0064 00000000 		.word	.LANCHOR1
  91 0068 00000000 		.word	.LC0
  92              		.cfi_endproc
  93              	.LFE273:
  94              		.size	terminal_gyro_info, .-terminal_gyro_info
  95              		.section	.text.imu_read_callback,"ax",%progbits
  96              		.align	1
  97              		.p2align 4,,15
  98              		.syntax unified
  99              		.thumb
 100              		.thumb_func
 101              		.fpu fpv4-sp-d16
 102              		.type	imu_read_callback, %function
 103              	imu_read_callback:
 104              	.LFB272:
 105              		.loc 1 223 0
 106              		.cfi_startproc
 107              		@ args = 0, pretend = 0, frame = 24
 108              		@ frame_needed = 0, uses_anonymous_args = 0
 109              	.LVL6:
 110 0000 2DE9F04F 		push	{r4, r5, r6, r7, r8, r9, r10, fp, lr}
 111              		.cfi_def_cfa_offset 36
 112              		.cfi_offset 4, -36
 113              		.cfi_offset 5, -32
 114              		.cfi_offset 6, -28
ARM GAS  /tmp/ccqzIfgg.s 			page 3


 115              		.cfi_offset 7, -24
 116              		.cfi_offset 8, -20
 117              		.cfi_offset 9, -16
 118              		.cfi_offset 10, -12
 119              		.cfi_offset 11, -8
 120              		.cfi_offset 14, -4
 121 0004 2DED088B 		vpush.64	{d8, d9, d10, d11}
 122              		.cfi_def_cfa_offset 68
 123              		.cfi_offset 80, -68
 124              		.cfi_offset 81, -64
 125              		.cfi_offset 82, -60
 126              		.cfi_offset 83, -56
 127              		.cfi_offset 84, -52
 128              		.cfi_offset 85, -48
 129              		.cfi_offset 86, -44
 130              		.cfi_offset 87, -40
 131              		.loc 1 225 0
 132 0008 D94E     		ldr	r6, .L26
 133              		.loc 1 228 0
 134 000a DA4C     		ldr	r4, .L26+4
 135              		.loc 1 223 0
 136 000c 87B0     		sub	sp, sp, #28
 137              		.cfi_def_cfa_offset 96
 138              		.loc 1 223 0
 139 000e 0546     		mov	r5, r0
 140              		.loc 1 225 0
 141 0010 3068     		ldr	r0, [r6]
 142              	.LVL7:
 143              		.loc 1 223 0
 144 0012 8A46     		mov	r10, r1
 145 0014 9146     		mov	r9, r2
 146              		.loc 1 225 0
 147 0016 FFF7FEFF 		bl	timer_seconds_elapsed_since
 148              	.LVL8:
 149 001a F0EE408A 		vmov.f32	s17, s0
 150              	.LVL9:
 151              		.loc 1 226 0
 152 001e FFF7FEFF 		bl	timer_time_now
 153              	.LVL10:
 154              		.loc 1 228 0
 155 0022 2378     		ldrb	r3, [r4]	@ zero_extendqisi2
 156              		.loc 1 226 0
 157 0024 3060     		str	r0, [r6]
 158              		.loc 1 228 0
 159 0026 002B     		cmp	r3, #0
 160 0028 00F06B81 		beq	.L18
 161 002c DFF89083 		ldr	r8, .L26+80
 162              	.L7:
 163              		.loc 1 259 0
 164 0030 DFEDD1BA 		vldr.32	s23, .L26+8
 165 0034 D8ED087A 		vldr.32	s15, [r8, #32]
 166 0038 9FEDD0AA 		vldr.32	s20, .L26+12
 167 003c D04E     		ldr	r6, .L26+16
 168 003e D14C     		ldr	r4, .L26+20
 169              	.LBB9:
 170              		.loc 1 287 0
 171 0040 9FEDD18A 		vldr.32	s16, .L26+24
ARM GAS  /tmp/ccqzIfgg.s 			page 4


 172              	.LBE9:
 173              		.loc 1 259 0
 174 0044 67EEAB7A 		vmul.f32	s15, s15, s23
 175 0048 87EE8A9A 		vdiv.f32	s18, s15, s20
 176 004c B0EE490A 		vmov.f32	s0, s18
 177 0050 FFF7FEFF 		bl	sinf
 178              	.LVL11:
 179 0054 B0EE40BA 		vmov.f32	s22, s0
 180              	.LVL12:
 181              		.loc 1 260 0
 182 0058 B0EE490A 		vmov.f32	s0, s18
 183              	.LVL13:
 184 005c FFF7FEFF 		bl	cosf
 185              	.LVL14:
 186              		.loc 1 261 0
 187 0060 D8ED077A 		vldr.32	s15, [r8, #28]
 188 0064 67EEAB7A 		vmul.f32	s15, s15, s23
 189              		.loc 1 260 0
 190 0068 B0EE409A 		vmov.f32	s18, s0
 191              	.LVL15:
 192              		.loc 1 261 0
 193 006c C7EE8AAA 		vdiv.f32	s21, s15, s20
 194 0070 B0EE6A0A 		vmov.f32	s0, s21
 195              	.LVL16:
 196 0074 FFF7FEFF 		bl	sinf
 197              	.LVL17:
 198 0078 F0EE409A 		vmov.f32	s19, s0
 199              	.LVL18:
 200              		.loc 1 262 0
 201 007c B0EE6A0A 		vmov.f32	s0, s21
 202              	.LVL19:
 203 0080 FFF7FEFF 		bl	cosf
 204              	.LVL20:
 205              		.loc 1 263 0
 206 0084 D8ED067A 		vldr.32	s15, [r8, #24]
 207 0088 67EEAB7A 		vmul.f32	s15, s15, s23
 208              		.loc 1 262 0
 209 008c F0EE40AA 		vmov.f32	s21, s0
 210              	.LVL21:
 211              		.loc 1 263 0
 212 0090 C7EE8ABA 		vdiv.f32	s23, s15, s20
 213 0094 B0EE6B0A 		vmov.f32	s0, s23
 214              	.LVL22:
 215 0098 FFF7FEFF 		bl	sinf
 216              	.LVL23:
 217 009c B0EE40AA 		vmov.f32	s20, s0
 218              	.LVL24:
 219              		.loc 1 264 0
 220 00a0 B0EE6B0A 		vmov.f32	s0, s23
 221              	.LVL25:
 222 00a4 FFF7FEFF 		bl	cosf
 223              	.LVL26:
 224              		.loc 1 266 0
 225 00a8 2BEE005A 		vmul.f32	s10, s22, s0
 226 00ac 69EE297A 		vmul.f32	s15, s18, s19
 227 00b0 F0EE454A 		vmov.f32	s9, s10
 228 00b4 D7EE8A4A 		vfnms.f32	s9, s15, s20
ARM GAS  /tmp/ccqzIfgg.s 			page 5


 229              		.loc 1 270 0
 230 00b8 B449     		ldr	r1, .L26+28
 231              		.loc 1 274 0
 232 00ba B54A     		ldr	r2, .L26+32
 233              		.loc 1 270 0
 234 00bc D5ED016A 		vldr.32	s13, [r5, #4]
 235 00c0 95ED006A 		vldr.32	s12, [r5]
 236 00c4 D5ED023A 		vldr.32	s7, [r5, #8]
 237              		.loc 1 278 0
 238 00c8 B248     		ldr	r0, .L26+36
 239              		.loc 1 266 0
 240 00ca 69EE007A 		vmul.f32	s15, s18, s0
 241              		.loc 1 270 0
 242 00ce 26EEA47A 		vmul.f32	s14, s13, s9
 243              		.loc 1 266 0
 244 00d2 29EE2A2A 		vmul.f32	s4, s18, s21
 245              	.LVL27:
 246 00d6 67EEA92A 		vmul.f32	s5, s15, s19
 247              		.loc 1 270 0
 248 00da A6EE027A 		vfma.f32	s14, s12, s4
 249 00de 8B46     		mov	fp, r1
 250 00e0 1346     		mov	r3, r2
 251              		.loc 1 266 0
 252 00e2 EBEE0A2A 		vfma.f32	s5, s22, s20
 253              	.LVL28:
 254 00e6 0F46     		mov	r7, r1
 255              		.loc 1 267 0
 256 00e8 2BEE296A 		vmul.f32	s12, s22, s19
 257              		.loc 1 270 0
 258 00ec A3EEA27A 		vfma.f32	s14, s7, s5
 259              		.loc 1 267 0
 260 00f0 E6EE0A7A 		vfma.f32	s15, s12, s20
 261              		.loc 1 270 0
 262 00f4 81ED007A 		vstr.32	s14, [r1]
 263              		.loc 1 267 0
 264 00f8 B0EE673A 		vmov.f32	s6, s15
 265 00fc 2BEE2A4A 		vmul.f32	s8, s22, s21
 266              	.LVL29:
 267              		.loc 1 271 0
 268 0100 66EEA76A 		vmul.f32	s13, s13, s15
 269              		.loc 1 267 0
 270 0104 2AEE496A 		vnmul.f32	s12, s20, s18
 271              		.loc 1 271 0
 272 0108 D5ED007A 		vldr.32	s15, [r5]
 273              		.loc 1 267 0
 274 010c A5EE296A 		vfma.f32	s12, s10, s19
 275              	.LVL30:
 276              		.loc 1 271 0
 277 0110 E7EE846A 		vfma.f32	s13, s15, s8
 278              		.loc 1 270 0
 279 0114 F0EE475A 		vmov.f32	s11, s14
 280              		.loc 1 271 0
 281 0118 E3EE866A 		vfma.f32	s13, s7, s12
 282              		.loc 1 268 0
 283 011c 2AEE8A7A 		vmul.f32	s14, s21, s20
 284              		.loc 1 271 0
 285 0120 C1ED016A 		vstr.32	s13, [r1, #4]
ARM GAS  /tmp/ccqzIfgg.s 			page 6


 286              		.loc 1 272 0
 287 0124 D5ED016A 		vldr.32	s13, [r5, #4]
 288 0128 D5ED007A 		vldr.32	s15, [r5]
 289 012c 67EE266A 		vmul.f32	s13, s14, s13
 290              		.loc 1 268 0
 291 0130 B1EE695A 		vneg.f32	s10, s19
 292              	.LVL31:
 293              		.loc 1 272 0
 294 0134 E7EE856A 		vfma.f32	s13, s15, s10
 295 0138 1546     		mov	r5, r2
 296              	.LVL32:
 297              		.loc 1 268 0
 298 013a 2AEE800A 		vmul.f32	s0, s21, s0
 299              	.LVL33:
 300              		.loc 1 272 0
 301 013e E3EE806A 		vfma.f32	s13, s7, s0
 302 0142 C1ED026A 		vstr.32	s13, [r1, #8]
 303              		.loc 1 274 0
 304 0146 DAED013A 		vldr.32	s7, [r10, #4]
 305 014a DAED006A 		vldr.32	s13, [r10]
 306 014e DAED021A 		vldr.32	s3, [r10, #8]
 307 0152 63EEA47A 		vmul.f32	s15, s7, s9
 308              		.loc 1 275 0
 309 0156 63EE833A 		vmul.f32	s7, s7, s6
 310              		.loc 1 274 0
 311 015a E6EE827A 		vfma.f32	s15, s13, s4
 312 015e E1EEA27A 		vfma.f32	s15, s3, s5
 313 0162 C2ED007A 		vstr.32	s15, [r2]
 314 0166 F0EE676A 		vmov.f32	s13, s15
 315              		.loc 1 275 0
 316 016a DAED007A 		vldr.32	s15, [r10]
 317 016e E7EE843A 		vfma.f32	s7, s15, s8
 318 0172 E1EE863A 		vfma.f32	s7, s3, s12
 319 0176 C2ED013A 		vstr.32	s7, [r2, #4]
 320              		.loc 1 276 0
 321 017a DAED013A 		vldr.32	s7, [r10, #4]
 322 017e DAED007A 		vldr.32	s15, [r10]
 323 0182 67EE233A 		vmul.f32	s7, s14, s7
 324 0186 01F10C0A 		add	r10, r1, #12
 325              	.LVL34:
 326 018a E7EE853A 		vfma.f32	s7, s15, s10
 327 018e E1EE803A 		vfma.f32	s7, s3, s0
 328 0192 C2ED023A 		vstr.32	s7, [r2, #8]
 329              		.loc 1 278 0
 330 0196 D9ED017A 		vldr.32	s15, [r9, #4]
 331 019a D9ED001A 		vldr.32	s3, [r9]
 332 019e D9ED023A 		vldr.32	s7, [r9, #8]
 333 01a2 67EEA44A 		vmul.f32	s9, s15, s9
 334              	.LVL35:
 335              		.loc 1 279 0
 336 01a6 67EE837A 		vmul.f32	s15, s15, s6
 337              		.loc 1 278 0
 338 01aa E1EE824A 		vfma.f32	s9, s3, s4
 339 01ae E3EEA24A 		vfma.f32	s9, s7, s5
 340 01b2 C0ED004A 		vstr.32	s9, [r0]
 341              		.loc 1 279 0
 342 01b6 D9ED004A 		vldr.32	s9, [r9]
ARM GAS  /tmp/ccqzIfgg.s 			page 7


 343 01ba E4EE847A 		vfma.f32	s15, s9, s8
 344 01be E3EE867A 		vfma.f32	s15, s7, s12
 345 01c2 C0ED017A 		vstr.32	s15, [r0, #4]
 346              		.loc 1 280 0
 347 01c6 D9ED017A 		vldr.32	s15, [r9, #4]
 348 01ca 99ED006A 		vldr.32	s12, [r9]
 349              	.LVL36:
 350 01ce 67EE277A 		vmul.f32	s15, s14, s15
 351 01d2 E6EE057A 		vfma.f32	s15, s12, s10
 352 01d6 E3EE807A 		vfma.f32	s15, s7, s0
 353 01da C0ED027A 		vstr.32	s15, [r0, #8]
 354              	.LVL37:
 355              	.L12:
 356              	.LBB10:
 357              		.loc 1 284 0
 358 01de B6EC017A 		vldmia.32	r6!, {s14}
 359              		.loc 1 285 0
 360 01e2 D6ED027A 		vldr.32	s15, [r6, #8]
 361              		.loc 1 287 0
 362 01e6 D6ED050A 		vldr.32	s1, [r6, #20]
 363              		.loc 1 285 0
 364 01ea 76EEE77A 		vsub.f32	s15, s13, s15
 365              		.loc 1 284 0
 366 01ee 35EEC77A 		vsub.f32	s14, s11, s14
 367              		.loc 1 287 0
 368 01f2 F5EEC00A 		vcmpe.f32	s1, #0
 369 01f6 F1EE10FA 		vmrs	APSR_nzcv, FPSCR
 370              		.loc 1 284 0
 371 01fa A7EC017A 		vstmia.32	r7!, {s14}
 372              		.loc 1 285 0
 373 01fe E5EC017A 		vstmia.32	r5!, {s15}
 374              		.loc 1 288 0
 375 0202 B0EE670A 		vmov.f32	s0, s15
 376 0206 2046     		mov	r0, r4
 377              		.loc 1 287 0
 378 0208 10DC     		bgt	.L22
 379              		.loc 1 291 0
 380 020a B0EE487A 		vmov.f32	s14, s16
 381              		.loc 1 294 0
 382 020e 77EEC77A 		vsub.f32	s15, s15, s14
 383              		.loc 1 283 0
 384 0212 BA45     		cmp	r10, r7
 385              		.loc 1 291 0
 386 0214 84ED008A 		vstr.32	s16, [r4]
 387              		.loc 1 294 0
 388 0218 45ED017A 		vstr.32	s15, [r5, #-4]
 389 021c 04F10404 		add	r4, r4, #4
 390              		.loc 1 283 0
 391 0220 1BD0     		beq	.L11
 392              	.L23:
 393 0222 D7ED005A 		vldr.32	s11, [r7]
 394 0226 D5ED006A 		vldr.32	s13, [r5]
 395 022a D8E7     		b	.L12
 396              	.L22:
 397              		.loc 1 288 0
 398 022c 60EEA80A 		vmul.f32	s1, s1, s17
 399 0230 0193     		str	r3, [sp, #4]
ARM GAS  /tmp/ccqzIfgg.s 			page 8


 400 0232 FFF7FEFF 		bl	utils_step_towards
 401              	.LVL38:
 402              		.loc 1 289 0
 403 0236 2046     		mov	r0, r4
 404 0238 98ED120A 		vldr.32	s0, [r8, #72]
 405 023c FFF7FEFF 		bl	utils_truncate_number_abs
 406              	.LVL39:
 407 0240 55ED017A 		vldr.32	s15, [r5, #-4]
 408 0244 94ED007A 		vldr.32	s14, [r4]
 409 0248 019B     		ldr	r3, [sp, #4]
 410              		.loc 1 294 0
 411 024a 77EEC77A 		vsub.f32	s15, s15, s14
 412              		.loc 1 283 0
 413 024e BA45     		cmp	r10, r7
 414 0250 04F10404 		add	r4, r4, #4
 415              		.loc 1 294 0
 416 0254 45ED017A 		vstr.32	s15, [r5, #-4]
 417              		.loc 1 283 0
 418 0258 E3D1     		bne	.L23
 419              	.L11:
 420              	.LBE10:
 421              		.loc 1 298 0
 422 025a DFED475A 		vldr.32	s11, .L26+8
 423 025e 93ED006A 		vldr.32	s12, [r3]
 424              		.loc 1 299 0
 425 0262 D3ED016A 		vldr.32	s13, [r3, #4]
 426              		.loc 1 300 0
 427 0266 93ED027A 		vldr.32	s14, [r3, #8]
 428              		.loc 1 298 0
 429 026a DFED447A 		vldr.32	s15, .L26+12
 430              		.loc 1 308 0
 431 026e 4A4C     		ldr	r4, .L26+40
 432              		.loc 1 300 0
 433 0270 27EE257A 		vmul.f32	s14, s14, s11
 434              		.loc 1 299 0
 435 0274 66EEA56A 		vmul.f32	s13, s13, s11
 436              		.loc 1 298 0
 437 0278 26EE256A 		vmul.f32	s12, s12, s11
 438 027c C6EE275A 		vdiv.f32	s11, s12, s15
 439              		.loc 1 299 0
 440 0280 86EEA76A 		vdiv.f32	s12, s13, s15
 441              		.loc 1 300 0
 442 0284 C7EE276A 		vdiv.f32	s13, s14, s15
 443              		.loc 1 298 0
 444 0288 CDED035A 		vstr.32	s11, [sp, #12]
 445              		.loc 1 299 0
 446 028c 8DED046A 		vstr.32	s12, [sp, #16]
 447              		.loc 1 300 0
 448 0290 CDED056A 		vstr.32	s13, [sp, #20]
 449              		.loc 1 305 0
 450 0294 FFF7FEFF 		bl	mc_interface_get_speed
 451              	.LVL40:
 452              		.loc 1 307 0
 453 0298 404A     		ldr	r2, .L26+44
 454 029a 9FED416A 		vldr.32	s12, .L26+48
 455 029e D2ED007A 		vldr.32	s15, [r2]
 456              		.loc 1 308 0
ARM GAS  /tmp/ccqzIfgg.s 			page 9


 457 02a2 404B     		ldr	r3, .L26+52
 458 02a4 9FED407A 		vldr.32	s14, .L26+56
 459 02a8 D3ED006A 		vldr.32	s13, [r3]
 460              		.loc 1 307 0
 461 02ac 37EEC00A 		vsub.f32	s0, s15, s0
 462              	.LVL41:
 463              		.loc 1 308 0
 464 02b0 28EE877A 		vmul.f32	s14, s17, s14
 465              		.loc 1 307 0
 466 02b4 E0EE467A 		vfms.f32	s15, s0, s12
 467              		.loc 1 310 0
 468 02b8 2046     		mov	r0, r4
 469 02ba F5EE000A 		vmov.f32	s1, #2.5e-1
 470              		.loc 1 308 0
 471 02be 77EEE66A 		vsub.f32	s13, s15, s13
 472              		.loc 1 310 0
 473 02c2 BDEE000A 		vmov.f32	s0, #-2.5e-1
 474              		.loc 1 308 0
 475 02c6 86EE876A 		vdiv.f32	s12, s13, s14
 476              		.loc 1 309 0
 477 02ca C3ED007A 		vstr.32	s15, [r3]
 478              		.loc 1 307 0
 479 02ce C2ED007A 		vstr.32	s15, [r2]
 480              		.loc 1 308 0
 481 02d2 84ED006A 		vstr.32	s12, [r4]
 482              		.loc 1 310 0
 483 02d6 FFF7FEFF 		bl	utils_truncate_number
 484              	.LVL42:
 485              		.loc 1 312 0
 486 02da DBED007A 		vldr.32	s15, [fp]
 487 02de D4ED006A 		vldr.32	s13, [r4]
 488 02e2 9FED327A 		vldr.32	s14, .L26+60
 489              		.loc 1 315 0
 490 02e6 98F80130 		ldrb	r3, [r8, #1]	@ zero_extendqisi2
 491              		.loc 1 312 0
 492 02ea E6EE877A 		vfma.f32	s15, s13, s14
 493 02ee CBED007A 		vstr.32	s15, [fp]
 494              		.loc 1 315 0
 495 02f2 23B3     		cbz	r3, .L24
 496              		.loc 1 321 0
 497 02f4 012B     		cmp	r3, #1
 498 02f6 2DD0     		beq	.L25
 499              	.L6:
 500              		.loc 1 329 0
 501 02f8 07B0     		add	sp, sp, #28
 502              		.cfi_remember_state
 503              		.cfi_def_cfa_offset 68
 504              		@ sp needed
 505 02fa BDEC088B 		vldm	sp!, {d8-d11}
 506              		.cfi_restore 86
 507              		.cfi_restore 87
 508              		.cfi_restore 84
 509              		.cfi_restore 85
 510              		.cfi_restore 82
 511              		.cfi_restore 83
 512              		.cfi_restore 80
 513              		.cfi_restore 81
ARM GAS  /tmp/ccqzIfgg.s 			page 10


 514              		.cfi_def_cfa_offset 36
 515              	.LVL43:
 516 02fe BDE8F08F 		pop	{r4, r5, r6, r7, r8, r9, r10, fp, pc}
 517              	.LVL44:
 518              	.L18:
 519              		.cfi_restore_state
 520              		.loc 1 228 0
 521 0302 2B4A     		ldr	r2, .L26+64
 522              	.LBB11:
 523              	.LBB12:
 524              		.file 2 "ChibiOS_3.0.2/os/rt/include/chvt.h"
 525              		.loc 2 231 0
 526 0304 2B4B     		ldr	r3, .L26+68
 527              	.LBE12:
 528              	.LBE11:
 529              		.loc 1 228 0
 530 0306 1168     		ldr	r1, [r2]
 531              	.LBB14:
 532              	.LBB13:
 533              		.loc 2 231 0
 534 0308 9B6A     		ldr	r3, [r3, #40]
 535              	.LBE13:
 536              	.LBE14:
 537              		.loc 1 228 0
 538 030a 2B4A     		ldr	r2, .L26+72
 539              		.loc 1 229 0
 540 030c DFF8B080 		ldr	r8, .L26+80
 541              		.loc 1 228 0
 542 0310 5B1A     		subs	r3, r3, r1
 543 0312 4FF47A70 		mov	r0, #1000
 544 0316 42F20F71 		movw	r1, #9999
 545 031a 00FB0313 		mla	r3, r0, r3, r1
 546 031e 9342     		cmp	r3, r2
 547 0320 7FF686AE 		bls	.L7
 548              		.loc 1 229 0
 549 0324 D8ED051A 		vldr.32	s3, [r8, #20]
 550 0328 98ED041A 		vldr.32	s2, [r8, #16]
 551 032c D8ED030A 		vldr.32	s1, [r8, #12]
 552 0330 98ED020A 		vldr.32	s0, [r8, #8]
 553 0334 FFF7FEFF 		bl	ahrs_update_all_parameters
 554              	.LVL45:
 555              		.loc 1 234 0
 556 0338 0123     		movs	r3, #1
 557 033a 2370     		strb	r3, [r4]
 558 033c 78E6     		b	.L7
 559              	.LVL46:
 560              	.L24:
 561              		.loc 1 316 0
 562 033e 1F4A     		ldr	r2, .L26+76
 563 0340 1249     		ldr	r1, .L26+28
 564 0342 B0EE680A 		vmov.f32	s0, s17
 565 0346 03A8     		add	r0, sp, #12
 566 0348 FFF7FEFF 		bl	ahrs_update_madgwick_imu
 567              	.LVL47:
 568 034c 98F80130 		ldrb	r3, [r8, #1]	@ zero_extendqisi2
 569              		.loc 1 321 0
 570 0350 012B     		cmp	r3, #1
ARM GAS  /tmp/ccqzIfgg.s 			page 11


 571 0352 D1D1     		bne	.L6
 572              	.L25:
 573              		.loc 1 323 0
 574 0354 B0EE680A 		vmov.f32	s0, s17
 575 0358 184B     		ldr	r3, .L26+76
 576 035a 0E4A     		ldr	r2, .L26+36
 577 035c 0B49     		ldr	r1, .L26+28
 578 035e 03A8     		add	r0, sp, #12
 579 0360 FFF7FEFF 		bl	ahrs_update_mahony
 580              	.LVL48:
 581              		.loc 1 329 0
 582 0364 07B0     		add	sp, sp, #28
 583              		.cfi_def_cfa_offset 68
 584              		@ sp needed
 585 0366 BDEC088B 		vldm	sp!, {d8-d11}
 586              		.cfi_restore 86
 587              		.cfi_restore 87
 588              		.cfi_restore 84
 589              		.cfi_restore 85
 590              		.cfi_restore 82
 591              		.cfi_restore 83
 592              		.cfi_restore 80
 593              		.cfi_restore 81
 594              		.cfi_def_cfa_offset 36
 595              	.LVL49:
 596 036a BDE8F08F 		pop	{r4, r5, r6, r7, r8, r9, r10, fp, pc}
 597              	.LVL50:
 598              	.L27:
 599 036e 00BF     		.align	2
 600              	.L26:
 601 0370 00000000 		.word	.LANCHOR2
 602 0374 00000000 		.word	.LANCHOR3
 603 0378 DB0F4940 		.word	1078530011
 604 037c 00003443 		.word	1127481344
 605 0380 24000000 		.word	.LANCHOR0+36
 606 0384 00000000 		.word	.LANCHOR1
 607 0388 00000000 		.word	0
 608 038c 00000000 		.word	.LANCHOR5
 609 0390 00000000 		.word	.LANCHOR6
 610 0394 00000000 		.word	.LANCHOR7
 611 0398 00000000 		.word	.LANCHOR9
 612 039c 00000000 		.word	.LANCHOR8
 613 03a0 CDCCCC3D 		.word	1036831949
 614 03a4 00000000 		.word	.LANCHOR10
 615 03a8 C3F51C41 		.word	1092416963
 616 03ac CDCC4C3F 		.word	1061997773
 617 03b0 00000000 		.word	.LANCHOR4
 618 03b4 00000000 		.word	ch
 619 03b8 8FBD9800 		.word	10009999
 620 03bc 00000000 		.word	.LANCHOR11
 621 03c0 00000000 		.word	.LANCHOR0
 622              		.cfi_endproc
 623              	.LFE272:
 624              		.size	imu_read_callback, .-imu_read_callback
 625              		.section	.text.user_i2c_read,"ax",%progbits
 626              		.align	1
 627              		.p2align 4,,15
ARM GAS  /tmp/ccqzIfgg.s 			page 12


 628              		.global	user_i2c_read
 629              		.syntax unified
 630              		.thumb
 631              		.thumb_func
 632              		.fpu fpv4-sp-d16
 633              		.type	user_i2c_read, %function
 634              	user_i2c_read:
 635              	.LFB274:
 636              		.loc 1 341 0
 637              		.cfi_startproc
 638              		@ args = 0, pretend = 0, frame = 8
 639              		@ frame_needed = 0, uses_anonymous_args = 0
 640              	.LVL51:
 641 0000 30B5     		push	{r4, r5, lr}
 642              		.cfi_def_cfa_offset 12
 643              		.cfi_offset 4, -12
 644              		.cfi_offset 5, -8
 645              		.cfi_offset 14, -4
 646 0002 85B0     		sub	sp, sp, #20
 647              		.cfi_def_cfa_offset 32
 648              		.loc 1 345 0
 649 0004 04AC     		add	r4, sp, #16
 650              		.loc 1 342 0
 651 0006 0A4D     		ldr	r5, .L32
 652              		.loc 1 345 0
 653 0008 04F8041D 		strb	r1, [r4, #-4]!
 654              		.loc 1 346 0
 655 000c CDE90023 		strd	r2, r3, [sp]
 656 0010 0146     		mov	r1, r0
 657              	.LVL52:
 658 0012 2246     		mov	r2, r4
 659              	.LVL53:
 660 0014 2846     		mov	r0, r5
 661              	.LVL54:
 662              		.loc 1 342 0
 663 0016 0024     		movs	r4, #0
 664              	.LVL55:
 665              		.loc 1 346 0
 666 0018 0123     		movs	r3, #1
 667              	.LVL56:
 668              		.loc 1 342 0
 669 001a 6C74     		strb	r4, [r5, #17]
 670              		.loc 1 346 0
 671 001c FFF7FEFF 		bl	i2c_bb_tx_rx
 672              	.LVL57:
 673 0020 A042     		cmp	r0, r4
 674              		.loc 1 347 0
 675 0022 0CBF     		ite	eq
 676 0024 6FF00100 		mvneq	r0, #1
 677 0028 2046     		movne	r0, r4
 678 002a 05B0     		add	sp, sp, #20
 679              		.cfi_def_cfa_offset 12
 680              		@ sp needed
 681 002c 30BD     		pop	{r4, r5, pc}
 682              	.L33:
 683 002e 00BF     		.align	2
 684              	.L32:
ARM GAS  /tmp/ccqzIfgg.s 			page 13


 685 0030 00000000 		.word	.LANCHOR12
 686              		.cfi_endproc
 687              	.LFE274:
 688              		.size	user_i2c_read, .-user_i2c_read
 689              		.section	.text.user_i2c_write,"ax",%progbits
 690              		.align	1
 691              		.p2align 4,,15
 692              		.global	user_i2c_write
 693              		.syntax unified
 694              		.thumb
 695              		.thumb_func
 696              		.fpu fpv4-sp-d16
 697              		.type	user_i2c_write, %function
 698              	user_i2c_write:
 699              	.LFB275:
 700              		.loc 1 349 0
 701              		.cfi_startproc
 702              		@ args = 0, pretend = 0, frame = 0
 703              		@ frame_needed = 1, uses_anonymous_args = 0
 704              	.LVL58:
 705 0000 2DE9F043 		push	{r4, r5, r6, r7, r8, r9, lr}
 706              		.cfi_def_cfa_offset 28
 707              		.cfi_offset 4, -28
 708              		.cfi_offset 5, -24
 709              		.cfi_offset 6, -20
 710              		.cfi_offset 7, -16
 711              		.cfi_offset 8, -12
 712              		.cfi_offset 9, -8
 713              		.cfi_offset 14, -4
 714              		.loc 1 352 0
 715 0004 03F10804 		add	r4, r3, #8
 716              		.loc 1 349 0
 717 0008 83B0     		sub	sp, sp, #12
 718              		.cfi_def_cfa_offset 40
 719              		.loc 1 352 0
 720 000a 6D46     		mov	r5, sp
 721 000c E408     		lsrs	r4, r4, #3
 722 000e A5EBC404 		sub	r4, r5, r4, lsl #3
 723              		.loc 1 349 0
 724 0012 02AF     		add	r7, sp, #8
 725              		.cfi_def_cfa 7, 32
 726              		.loc 1 352 0
 727 0014 A546     		mov	sp, r4
 728              		.loc 1 350 0
 729 0016 104D     		ldr	r5, .L38
 730              		.loc 1 353 0
 731 0018 8DF80810 		strb	r1, [sp, #8]
 732              		.loc 1 350 0
 733 001c 0024     		movs	r4, #0
 734              		.loc 1 349 0
 735 001e 8046     		mov	r8, r0
 736              		.loc 1 354 0
 737 0020 1146     		mov	r1, r2
 738              	.LVL59:
 739              		.loc 1 352 0
 740 0022 03F10109 		add	r9, r3, #1
 741              		.loc 1 354 0
ARM GAS  /tmp/ccqzIfgg.s 			page 14


 742 0026 1A46     		mov	r2, r3
 743              	.LVL60:
 744 0028 0DF10900 		add	r0, sp, #9
 745              	.LVL61:
 746              		.loc 1 352 0
 747 002c 02AE     		add	r6, sp, #8
 748              	.LVL62:
 749              		.loc 1 350 0
 750 002e 6C74     		strb	r4, [r5, #17]
 751              	.LVL63:
 752              		.loc 1 354 0
 753 0030 FFF7FEFF 		bl	memcpy
 754              	.LVL64:
 755              		.loc 1 355 0
 756 0034 CDE90044 		strd	r4, r4, [sp]
 757 0038 4B46     		mov	r3, r9
 758 003a 4146     		mov	r1, r8
 759 003c 2846     		mov	r0, r5
 760 003e 3246     		mov	r2, r6
 761 0040 FFF7FEFF 		bl	i2c_bb_tx_rx
 762              	.LVL65:
 763 0044 A042     		cmp	r0, r4
 764              		.loc 1 356 0
 765 0046 0CBF     		ite	eq
 766 0048 6FF00100 		mvneq	r0, #1
 767 004c 2046     		movne	r0, r4
 768 004e 0437     		adds	r7, r7, #4
 769              		.cfi_def_cfa_offset 28
 770 0050 BD46     		mov	sp, r7
 771              		.cfi_def_cfa_register 13
 772              		@ sp needed
 773 0052 BDE8F083 		pop	{r4, r5, r6, r7, r8, r9, pc}
 774              	.LVL66:
 775              	.L39:
 776 0056 00BF     		.align	2
 777              	.L38:
 778 0058 00000000 		.word	.LANCHOR12
 779              		.cfi_endproc
 780              	.LFE275:
 781              		.size	user_i2c_write, .-user_i2c_write
 782              		.section	.text.imu_get_i2c,"ax",%progbits
 783              		.align	1
 784              		.p2align 4,,15
 785              		.global	imu_get_i2c
 786              		.syntax unified
 787              		.thumb
 788              		.thumb_func
 789              		.fpu fpv4-sp-d16
 790              		.type	imu_get_i2c, %function
 791              	imu_get_i2c:
 792              	.LFB257:
 793              		.loc 1 103 0
 794              		.cfi_startproc
 795              		@ args = 0, pretend = 0, frame = 0
 796              		@ frame_needed = 0, uses_anonymous_args = 0
 797              		@ link register save eliminated.
 798              		.loc 1 105 0
ARM GAS  /tmp/ccqzIfgg.s 			page 15


 799 0000 0048     		ldr	r0, .L41
 800 0002 7047     		bx	lr
 801              	.L42:
 802              		.align	2
 803              	.L41:
 804 0004 00000000 		.word	.LANCHOR12
 805              		.cfi_endproc
 806              	.LFE257:
 807              		.size	imu_get_i2c, .-imu_get_i2c
 808              		.section	.text.imu_stop,"ax",%progbits
 809              		.align	1
 810              		.p2align 4,,15
 811              		.global	imu_stop
 812              		.syntax unified
 813              		.thumb
 814              		.thumb_func
 815              		.fpu fpv4-sp-d16
 816              		.type	imu_stop, %function
 817              	imu_stop:
 818              	.LFB261:
 819              		.loc 1 152 0
 820              		.cfi_startproc
 821              		@ args = 0, pretend = 0, frame = 0
 822              		@ frame_needed = 0, uses_anonymous_args = 0
 823 0000 08B5     		push	{r3, lr}
 824              		.cfi_def_cfa_offset 8
 825              		.cfi_offset 3, -8
 826              		.cfi_offset 14, -4
 827              		.loc 1 153 0
 828 0002 FFF7FEFF 		bl	mpu9150_stop
 829              	.LVL67:
 830              		.loc 1 154 0
 831 0006 0448     		ldr	r0, .L45
 832 0008 FFF7FEFF 		bl	icm20948_stop
 833              	.LVL68:
 834              		.loc 1 155 0
 835 000c 0348     		ldr	r0, .L45+4
 836              		.loc 1 156 0
 837 000e BDE80840 		pop	{r3, lr}
 838              		.cfi_restore 14
 839              		.cfi_restore 3
 840              		.cfi_def_cfa_offset 0
 841              		.loc 1 155 0
 842 0012 FFF7FEBF 		b	bmi160_wrapper_stop
 843              	.LVL69:
 844              	.L46:
 845 0016 00BF     		.align	2
 846              	.L45:
 847 0018 00000000 		.word	.LANCHOR13
 848 001c 00000000 		.word	.LANCHOR14
 849              		.cfi_endproc
 850              	.LFE261:
 851              		.size	imu_stop, .-imu_stop
 852              		.section	.text.imu_init_mpu9x50,"ax",%progbits
 853              		.align	1
 854              		.p2align 4,,15
 855              		.global	imu_init_mpu9x50
ARM GAS  /tmp/ccqzIfgg.s 			page 16


 856              		.syntax unified
 857              		.thumb
 858              		.thumb_func
 859              		.fpu fpv4-sp-d16
 860              		.type	imu_init_mpu9x50, %function
 861              	imu_init_mpu9x50:
 862              	.LFB258:
 863              		.loc 1 108 0
 864              		.cfi_startproc
 865              		@ args = 0, pretend = 0, frame = 0
 866              		@ frame_needed = 0, uses_anonymous_args = 0
 867              	.LVL70:
 868 0000 2DE9F041 		push	{r4, r5, r6, r7, r8, lr}
 869              		.cfi_def_cfa_offset 24
 870              		.cfi_offset 4, -24
 871              		.cfi_offset 5, -20
 872              		.cfi_offset 6, -16
 873              		.cfi_offset 7, -12
 874              		.cfi_offset 8, -8
 875              		.cfi_offset 14, -4
 876 0004 82B0     		sub	sp, sp, #8
 877              		.cfi_def_cfa_offset 32
 878              		.loc 1 108 0
 879 0006 9846     		mov	r8, r3
 880 0008 0546     		mov	r5, r0
 881 000a 0E46     		mov	r6, r1
 882 000c 1746     		mov	r7, r2
 883              		.loc 1 111 0
 884 000e 094C     		ldr	r4, .L49
 885              		.loc 1 109 0
 886 0010 FFF7FEFF 		bl	imu_stop
 887              	.LVL71:
 888              		.loc 1 111 0
 889 0014 40F69813 		movw	r3, #2456
 890 0018 0193     		str	r3, [sp, #4]
 891 001a 2846     		mov	r0, r5
 892 001c 4346     		mov	r3, r8
 893 001e 3A46     		mov	r2, r7
 894 0020 3146     		mov	r1, r6
 895 0022 0094     		str	r4, [sp]
 896 0024 FFF7FEFF 		bl	mpu9150_init
 897              	.LVL72:
 898              		.loc 1 114 0
 899 0028 0348     		ldr	r0, .L49+4
 900              		.loc 1 115 0
 901 002a 02B0     		add	sp, sp, #8
 902              		.cfi_def_cfa_offset 24
 903              		@ sp needed
 904 002c BDE8F041 		pop	{r4, r5, r6, r7, r8, lr}
 905              		.cfi_restore 14
 906              		.cfi_restore 8
 907              		.cfi_restore 7
 908              		.cfi_restore 6
 909              		.cfi_restore 5
 910              		.cfi_restore 4
 911              		.cfi_def_cfa_offset 0
 912              	.LVL73:
ARM GAS  /tmp/ccqzIfgg.s 			page 17


 913              		.loc 1 114 0
 914 0030 FFF7FEBF 		b	mpu9150_set_read_callback
 915              	.LVL74:
 916              	.L50:
 917              		.align	2
 918              	.L49:
 919 0034 00000000 		.word	.LANCHOR15
 920 0038 00000000 		.word	imu_read_callback
 921              		.cfi_endproc
 922              	.LFE258:
 923              		.size	imu_init_mpu9x50, .-imu_init_mpu9x50
 924              		.section	.text.imu_init_icm20948,"ax",%progbits
 925              		.align	1
 926              		.p2align 4,,15
 927              		.global	imu_init_icm20948
 928              		.syntax unified
 929              		.thumb
 930              		.thumb_func
 931              		.fpu fpv4-sp-d16
 932              		.type	imu_init_icm20948, %function
 933              	imu_init_icm20948:
 934              	.LFB259:
 935              		.loc 1 118 0
 936              		.cfi_startproc
 937              		@ args = 4, pretend = 0, frame = 0
 938              		@ frame_needed = 0, uses_anonymous_args = 0
 939              	.LVL75:
 940 0000 2DE9F047 		push	{r4, r5, r6, r7, r8, r9, r10, lr}
 941              		.cfi_def_cfa_offset 32
 942              		.cfi_offset 4, -32
 943              		.cfi_offset 5, -28
 944              		.cfi_offset 6, -24
 945              		.cfi_offset 7, -20
 946              		.cfi_offset 8, -16
 947              		.cfi_offset 9, -12
 948              		.cfi_offset 10, -8
 949              		.cfi_offset 14, -4
 950              		.loc 1 121 0
 951 0004 104C     		ldr	r4, .L53
 952              		.loc 1 127 0
 953 0006 114D     		ldr	r5, .L53+4
 954              		.loc 1 118 0
 955 0008 82B0     		sub	sp, sp, #8
 956              		.cfi_def_cfa_offset 40
 957              		.loc 1 118 0
 958 000a 8946     		mov	r9, r1
 959 000c 9046     		mov	r8, r2
 960 000e 1F46     		mov	r7, r3
 961 0010 8246     		mov	r10, r0
 962 0012 0A9E     		ldr	r6, [sp, #40]
 963              		.loc 1 119 0
 964 0014 FFF7FEFF 		bl	imu_stop
 965              	.LVL76:
 966              		.loc 1 125 0
 967 0018 2046     		mov	r0, r4
 968              		.loc 1 121 0
 969 001a C4F800A0 		str	r10, [r4]
ARM GAS  /tmp/ccqzIfgg.s 			page 18


 970              		.loc 1 123 0
 971 001e C4E90198 		strd	r9, r8, [r4, #4]
 972              		.loc 1 124 0
 973 0022 E760     		str	r7, [r4, #12]
 974              		.loc 1 125 0
 975 0024 FFF7FEFF 		bl	i2c_bb_init
 976              	.LVL77:
 977              		.loc 1 127 0
 978 0028 40F69813 		movw	r3, #2456
 979 002c 2146     		mov	r1, r4
 980 002e 2846     		mov	r0, r5
 981 0030 0093     		str	r3, [sp]
 982 0032 3246     		mov	r2, r6
 983 0034 064B     		ldr	r3, .L53+8
 984 0036 FFF7FEFF 		bl	icm20948_init
 985              	.LVL78:
 986              		.loc 1 130 0
 987 003a 0649     		ldr	r1, .L53+12
 988 003c 2846     		mov	r0, r5
 989              		.loc 1 131 0
 990 003e 02B0     		add	sp, sp, #8
 991              		.cfi_def_cfa_offset 32
 992              		@ sp needed
 993 0040 BDE8F047 		pop	{r4, r5, r6, r7, r8, r9, r10, lr}
 994              		.cfi_restore 14
 995              		.cfi_restore 10
 996              		.cfi_restore 9
 997              		.cfi_restore 8
 998              		.cfi_restore 7
 999              		.cfi_restore 6
 1000              		.cfi_restore 5
 1001              		.cfi_restore 4
 1002              		.cfi_def_cfa_offset 0
 1003              	.LVL79:
 1004              		.loc 1 130 0
 1005 0044 FFF7FEBF 		b	icm20948_set_read_callback
 1006              	.LVL80:
 1007              	.L54:
 1008              		.align	2
 1009              	.L53:
 1010 0048 00000000 		.word	.LANCHOR12
 1011 004c 00000000 		.word	.LANCHOR13
 1012 0050 00000000 		.word	.LANCHOR15
 1013 0054 00000000 		.word	imu_read_callback
 1014              		.cfi_endproc
 1015              	.LFE259:
 1016              		.size	imu_init_icm20948, .-imu_init_icm20948
 1017              		.section	.text.imu_init_bmi160,"ax",%progbits
 1018              		.align	1
 1019              		.p2align 4,,15
 1020              		.global	imu_init_bmi160
 1021              		.syntax unified
 1022              		.thumb
 1023              		.thumb_func
 1024              		.fpu fpv4-sp-d16
 1025              		.type	imu_init_bmi160, %function
 1026              	imu_init_bmi160:
ARM GAS  /tmp/ccqzIfgg.s 			page 19


 1027              	.LFB260:
 1028              		.loc 1 134 0
 1029              		.cfi_startproc
 1030              		@ args = 0, pretend = 0, frame = 0
 1031              		@ frame_needed = 0, uses_anonymous_args = 0
 1032              	.LVL81:
 1033 0000 2DE9F843 		push	{r3, r4, r5, r6, r7, r8, r9, lr}
 1034              		.cfi_def_cfa_offset 32
 1035              		.cfi_offset 3, -32
 1036              		.cfi_offset 4, -28
 1037              		.cfi_offset 5, -24
 1038              		.cfi_offset 6, -20
 1039              		.cfi_offset 7, -16
 1040              		.cfi_offset 8, -12
 1041              		.cfi_offset 9, -8
 1042              		.cfi_offset 14, -4
 1043              		.loc 1 137 0
 1044 0004 114D     		ldr	r5, .L57
 1045              		.loc 1 143 0
 1046 0006 124C     		ldr	r4, .L57+4
 1047              		.loc 1 134 0
 1048 0008 8846     		mov	r8, r1
 1049 000a 1746     		mov	r7, r2
 1050 000c 1E46     		mov	r6, r3
 1051 000e 8146     		mov	r9, r0
 1052              		.loc 1 135 0
 1053 0010 FFF7FEFF 		bl	imu_stop
 1054              	.LVL82:
 1055              		.loc 1 141 0
 1056 0014 2846     		mov	r0, r5
 1057              		.loc 1 137 0
 1058 0016 C5F80090 		str	r9, [r5]
 1059              		.loc 1 139 0
 1060 001a C5E90187 		strd	r8, r7, [r5, #4]
 1061              		.loc 1 140 0
 1062 001e EE60     		str	r6, [r5, #12]
 1063              		.loc 1 141 0
 1064 0020 FFF7FEFF 		bl	i2c_bb_init
 1065              	.LVL83:
 1066              		.loc 1 145 0
 1067 0024 0B4D     		ldr	r5, .L57+8
 1068              		.loc 1 146 0
 1069 0026 0C4B     		ldr	r3, .L57+12
 1070              		.loc 1 148 0
 1071 0028 0C49     		ldr	r1, .L57+16
 1072              		.loc 1 143 0
 1073 002a 6820     		movs	r0, #104
 1074              		.loc 1 144 0
 1075 002c 0022     		movs	r2, #0
 1076              		.loc 1 143 0
 1077 002e 6071     		strb	r0, [r4, #5]
 1078              		.loc 1 144 0
 1079 0030 A271     		strb	r2, [r4, #6]
 1080              		.loc 1 148 0
 1081 0032 2046     		mov	r0, r4
 1082 0034 40F69812 		movw	r2, #2456
 1083              		.loc 1 146 0
ARM GAS  /tmp/ccqzIfgg.s 			page 20


 1084 0038 C4E90853 		strd	r5, r3, [r4, #32]
 1085              		.loc 1 148 0
 1086 003c FFF7FEFF 		bl	bmi160_wrapper_init
 1087              	.LVL84:
 1088              		.loc 1 149 0
 1089 0040 2046     		mov	r0, r4
 1090 0042 0749     		ldr	r1, .L57+20
 1091              		.loc 1 150 0
 1092 0044 BDE8F843 		pop	{r3, r4, r5, r6, r7, r8, r9, lr}
 1093              		.cfi_restore 14
 1094              		.cfi_restore 9
 1095              		.cfi_restore 8
 1096              		.cfi_restore 7
 1097              		.cfi_restore 6
 1098              		.cfi_restore 5
 1099              		.cfi_restore 4
 1100              		.cfi_restore 3
 1101              		.cfi_def_cfa_offset 0
 1102              	.LVL85:
 1103              		.loc 1 149 0
 1104 0048 FFF7FEBF 		b	bmi160_wrapper_set_read_callback
 1105              	.LVL86:
 1106              	.L58:
 1107              		.align	2
 1108              	.L57:
 1109 004c 00000000 		.word	.LANCHOR12
 1110 0050 00000000 		.word	.LANCHOR14
 1111 0054 00000000 		.word	user_i2c_read
 1112 0058 00000000 		.word	user_i2c_write
 1113 005c 00000000 		.word	.LANCHOR15
 1114 0060 00000000 		.word	imu_read_callback
 1115              		.cfi_endproc
 1116              	.LFE260:
 1117              		.size	imu_init_bmi160, .-imu_init_bmi160
 1118              		.section	.text.imu_init,"ax",%progbits
 1119              		.align	1
 1120              		.p2align 4,,15
 1121              		.global	imu_init
 1122              		.syntax unified
 1123              		.thumb
 1124              		.thumb_func
 1125              		.fpu fpv4-sp-d16
 1126              		.type	imu_init, %function
 1127              	imu_init:
 1128              	.LFB256:
 1129              		.loc 1 53 0
 1130              		.cfi_startproc
 1131              		@ args = 0, pretend = 0, frame = 0
 1132              		@ frame_needed = 0, uses_anonymous_args = 0
 1133              	.LVL87:
 1134 0000 30B5     		push	{r4, r5, lr}
 1135              		.cfi_def_cfa_offset 12
 1136              		.cfi_offset 4, -12
 1137              		.cfi_offset 5, -8
 1138              		.cfi_offset 14, -4
 1139              		.loc 1 54 0
 1140 0002 0146     		mov	r1, r0
ARM GAS  /tmp/ccqzIfgg.s 			page 21


 1141              		.loc 1 53 0
 1142 0004 83B0     		sub	sp, sp, #12
 1143              		.cfi_def_cfa_offset 24
 1144              		.loc 1 53 0
 1145 0006 0546     		mov	r5, r0
 1146              		.loc 1 54 0
 1147 0008 4C22     		movs	r2, #76
 1148 000a 2A48     		ldr	r0, .L69
 1149              	.LVL88:
 1150 000c FFF7FEFF 		bl	memcpy
 1151              	.LVL89:
 1152              		.loc 1 55 0
 1153 0010 294B     		ldr	r3, .L69+4
 1154 0012 0024     		movs	r4, #0
 1155 0014 C3E90044 		strd	r4, r4, [r3]
 1156 0018 9C60     		str	r4, [r3, #8]
 1157              		.loc 1 57 0
 1158 001a FFF7FEFF 		bl	imu_stop
 1159              	.LVL90:
 1160              	.LBB15:
 1161              	.LBB16:
 1162              		.loc 2 231 0
 1163 001e 274A     		ldr	r2, .L69+8
 1164              	.LBE16:
 1165              	.LBE15:
 1166              		.loc 1 59 0
 1167 0020 2749     		ldr	r1, .L69+12
 1168              		.loc 1 60 0
 1169 0022 284B     		ldr	r3, .L69+16
 1170              	.LBB18:
 1171              	.LBB17:
 1172              		.loc 2 231 0
 1173 0024 926A     		ldr	r2, [r2, #40]
 1174              	.LBE17:
 1175              	.LBE18:
 1176              		.loc 1 61 0
 1177 0026 9FED281A 		vldr.32	s2, .L69+20
 1178 002a DFED280A 		vldr.32	s1, .L69+24
 1179              		.loc 1 60 0
 1180 002e 1A60     		str	r2, [r3]
 1181              		.loc 1 61 0
 1182 0030 F0EE001A 		vmov.f32	s3, #2.0e+0
 1183 0034 B7EE000A 		vmov.f32	s0, #1.0e+0
 1184              		.loc 1 59 0
 1185 0038 0C70     		strb	r4, [r1]
 1186              		.loc 1 61 0
 1187 003a FFF7FEFF 		bl	ahrs_update_all_parameters
 1188              	.LVL91:
 1189              		.loc 1 63 0
 1190 003e 2448     		ldr	r0, .L69+28
 1191 0040 FFF7FEFF 		bl	ahrs_init_attitude_info
 1192              	.LVL92:
 1193              		.loc 1 65 0
 1194 0044 6868     		ldr	r0, [r5, #4]
 1195 0046 FFF7FEFF 		bl	mpu9150_set_rate_hz
 1196              	.LVL93:
 1197              		.loc 1 69 0
ARM GAS  /tmp/ccqzIfgg.s 			page 22


 1198 004a 2B78     		ldrb	r3, [r5]	@ zero_extendqisi2
 1199              		.loc 1 66 0
 1200 004c 2148     		ldr	r0, .L69+32
 1201              		.loc 1 67 0
 1202 004e 2249     		ldr	r1, .L69+36
 1203              		.loc 1 66 0
 1204 0050 6A68     		ldr	r2, [r5, #4]
 1205 0052 0261     		str	r2, [r0, #16]
 1206              		.loc 1 69 0
 1207 0054 012B     		cmp	r3, #1
 1208              		.loc 1 67 0
 1209 0056 0A63     		str	r2, [r1, #48]
 1210              		.loc 1 69 0
 1211 0058 15D0     		beq	.L65
 1212              		.loc 1 85 0
 1213 005a 022B     		cmp	r3, #2
 1214 005c 1BD0     		beq	.L66
 1215              		.loc 1 88 0
 1216 005e 032B     		cmp	r3, #3
 1217 0060 20D0     		beq	.L67
 1218              		.loc 1 91 0
 1219 0062 042B     		cmp	r3, #4
 1220 0064 08D0     		beq	.L68
 1221              	.L61:
 1222              		.loc 1 96 0
 1223 0066 1D4B     		ldr	r3, .L69+40
 1224 0068 1D49     		ldr	r1, .L69+44
 1225 006a 1E48     		ldr	r0, .L69+48
 1226 006c 0022     		movs	r2, #0
 1227              		.loc 1 101 0
 1228 006e 03B0     		add	sp, sp, #12
 1229              		.cfi_remember_state
 1230              		.cfi_def_cfa_offset 12
 1231              		@ sp needed
 1232 0070 BDE83040 		pop	{r4, r5, lr}
 1233              		.cfi_restore 14
 1234              		.cfi_restore 5
 1235              		.cfi_restore 4
 1236              		.cfi_def_cfa_offset 0
 1237              	.LVL94:
 1238              		.loc 1 96 0
 1239 0074 FFF7FEBF 		b	terminal_register_command_callback
 1240              	.LVL95:
 1241              	.L68:
 1242              		.cfi_restore_state
 1243              		.loc 1 92 0
 1244 0078 1B4A     		ldr	r2, .L69+52
 1245 007a 0A23     		movs	r3, #10
 1246 007c 1046     		mov	r0, r2
 1247 007e 0B21     		movs	r1, #11
 1248 0080 FFF7FEFF 		bl	imu_init_bmi160
 1249              	.LVL96:
 1250 0084 EFE7     		b	.L61
 1251              	.L65:
 1252              		.loc 1 76 0
 1253 0086 0094     		str	r4, [sp]
 1254 0088 0F23     		movs	r3, #15
ARM GAS  /tmp/ccqzIfgg.s 			page 23


 1255 008a 184A     		ldr	r2, .L69+56
 1256 008c 1648     		ldr	r0, .L69+52
 1257 008e 0221     		movs	r1, #2
 1258 0090 FFF7FEFF 		bl	imu_init_icm20948
 1259              	.LVL97:
 1260 0094 E7E7     		b	.L61
 1261              	.L66:
 1262              		.loc 1 86 0
 1263 0096 144A     		ldr	r2, .L69+52
 1264 0098 0A23     		movs	r3, #10
 1265 009a 1046     		mov	r0, r2
 1266 009c 0B21     		movs	r1, #11
 1267 009e FFF7FEFF 		bl	imu_init_mpu9x50
 1268              	.LVL98:
 1269 00a2 E0E7     		b	.L61
 1270              	.L67:
 1271              		.loc 1 89 0
 1272 00a4 104A     		ldr	r2, .L69+52
 1273 00a6 0094     		str	r4, [sp]
 1274 00a8 1046     		mov	r0, r2
 1275 00aa 0A23     		movs	r3, #10
 1276 00ac 0B21     		movs	r1, #11
 1277 00ae FFF7FEFF 		bl	imu_init_icm20948
 1278              	.LVL99:
 1279 00b2 D8E7     		b	.L61
 1280              	.L70:
 1281              		.align	2
 1282              	.L69:
 1283 00b4 00000000 		.word	.LANCHOR0
 1284 00b8 00000000 		.word	.LANCHOR1
 1285 00bc 00000000 		.word	ch
 1286 00c0 00000000 		.word	.LANCHOR3
 1287 00c4 00000000 		.word	.LANCHOR4
 1288 00c8 00000000 		.word	0
 1289 00cc 9A99993E 		.word	1050253722
 1290 00d0 00000000 		.word	.LANCHOR11
 1291 00d4 00000000 		.word	.LANCHOR13
 1292 00d8 00000000 		.word	.LANCHOR14
 1293 00dc 00000000 		.word	terminal_gyro_info
 1294 00e0 00000000 		.word	.LC1
 1295 00e4 14000000 		.word	.LC2
 1296 00e8 00040240 		.word	1073873920
 1297 00ec 00000240 		.word	1073872896
 1298              		.cfi_endproc
 1299              	.LFE256:
 1300              		.size	imu_init, .-imu_init
 1301              		.section	.text.imu_startup_done,"ax",%progbits
 1302              		.align	1
 1303              		.p2align 4,,15
 1304              		.global	imu_startup_done
 1305              		.syntax unified
 1306              		.thumb
 1307              		.thumb_func
 1308              		.fpu fpv4-sp-d16
 1309              		.type	imu_startup_done, %function
 1310              	imu_startup_done:
 1311              	.LFB262:
ARM GAS  /tmp/ccqzIfgg.s 			page 24


 1312              		.loc 1 158 0
 1313              		.cfi_startproc
 1314              		@ args = 0, pretend = 0, frame = 0
 1315              		@ frame_needed = 0, uses_anonymous_args = 0
 1316              		@ link register save eliminated.
 1317              		.loc 1 159 0
 1318 0000 014B     		ldr	r3, .L72
 1319              		.loc 1 160 0
 1320 0002 1878     		ldrb	r0, [r3]	@ zero_extendqisi2
 1321 0004 7047     		bx	lr
 1322              	.L73:
 1323 0006 00BF     		.align	2
 1324              	.L72:
 1325 0008 00000000 		.word	.LANCHOR3
 1326              		.cfi_endproc
 1327              	.LFE262:
 1328              		.size	imu_startup_done, .-imu_startup_done
 1329              		.section	.text.imu_get_roll,"ax",%progbits
 1330              		.align	1
 1331              		.p2align 4,,15
 1332              		.global	imu_get_roll
 1333              		.syntax unified
 1334              		.thumb
 1335              		.thumb_func
 1336              		.fpu fpv4-sp-d16
 1337              		.type	imu_get_roll, %function
 1338              	imu_get_roll:
 1339              	.LFB263:
 1340              		.loc 1 162 0
 1341              		.cfi_startproc
 1342              		@ args = 0, pretend = 0, frame = 0
 1343              		@ frame_needed = 0, uses_anonymous_args = 0
 1344              		@ link register save eliminated.
 1345              		.loc 1 163 0
 1346 0000 0148     		ldr	r0, .L75
 1347 0002 FFF7FEBF 		b	ahrs_get_roll
 1348              	.LVL100:
 1349              	.L76:
 1350 0006 00BF     		.align	2
 1351              	.L75:
 1352 0008 00000000 		.word	.LANCHOR11
 1353              		.cfi_endproc
 1354              	.LFE263:
 1355              		.size	imu_get_roll, .-imu_get_roll
 1356              		.section	.text.imu_get_pitch,"ax",%progbits
 1357              		.align	1
 1358              		.p2align 4,,15
 1359              		.global	imu_get_pitch
 1360              		.syntax unified
 1361              		.thumb
 1362              		.thumb_func
 1363              		.fpu fpv4-sp-d16
 1364              		.type	imu_get_pitch, %function
 1365              	imu_get_pitch:
 1366              	.LFB264:
 1367              		.loc 1 166 0
 1368              		.cfi_startproc
ARM GAS  /tmp/ccqzIfgg.s 			page 25


 1369              		@ args = 0, pretend = 0, frame = 0
 1370              		@ frame_needed = 0, uses_anonymous_args = 0
 1371              		@ link register save eliminated.
 1372              		.loc 1 167 0
 1373 0000 0148     		ldr	r0, .L78
 1374 0002 FFF7FEBF 		b	ahrs_get_pitch
 1375              	.LVL101:
 1376              	.L79:
 1377 0006 00BF     		.align	2
 1378              	.L78:
 1379 0008 00000000 		.word	.LANCHOR11
 1380              		.cfi_endproc
 1381              	.LFE264:
 1382              		.size	imu_get_pitch, .-imu_get_pitch
 1383              		.section	.text.imu_get_yaw,"ax",%progbits
 1384              		.align	1
 1385              		.p2align 4,,15
 1386              		.global	imu_get_yaw
 1387              		.syntax unified
 1388              		.thumb
 1389              		.thumb_func
 1390              		.fpu fpv4-sp-d16
 1391              		.type	imu_get_yaw, %function
 1392              	imu_get_yaw:
 1393              	.LFB265:
 1394              		.loc 1 170 0
 1395              		.cfi_startproc
 1396              		@ args = 0, pretend = 0, frame = 0
 1397              		@ frame_needed = 0, uses_anonymous_args = 0
 1398              		@ link register save eliminated.
 1399              		.loc 1 171 0
 1400 0000 0148     		ldr	r0, .L81
 1401 0002 FFF7FEBF 		b	ahrs_get_yaw
 1402              	.LVL102:
 1403              	.L82:
 1404 0006 00BF     		.align	2
 1405              	.L81:
 1406 0008 00000000 		.word	.LANCHOR11
 1407              		.cfi_endproc
 1408              	.LFE265:
 1409              		.size	imu_get_yaw, .-imu_get_yaw
 1410              		.section	.text.imu_get_rpy,"ax",%progbits
 1411              		.align	1
 1412              		.p2align 4,,15
 1413              		.global	imu_get_rpy
 1414              		.syntax unified
 1415              		.thumb
 1416              		.thumb_func
 1417              		.fpu fpv4-sp-d16
 1418              		.type	imu_get_rpy, %function
 1419              	imu_get_rpy:
 1420              	.LFB266:
 1421              		.loc 1 174 0
 1422              		.cfi_startproc
 1423              		@ args = 0, pretend = 0, frame = 0
 1424              		@ frame_needed = 0, uses_anonymous_args = 0
 1425              		@ link register save eliminated.
ARM GAS  /tmp/ccqzIfgg.s 			page 26


 1426              	.LVL103:
 1427              		.loc 1 175 0
 1428 0000 0149     		ldr	r1, .L84
 1429 0002 FFF7FEBF 		b	ahrs_get_roll_pitch_yaw
 1430              	.LVL104:
 1431              	.L85:
 1432 0006 00BF     		.align	2
 1433              	.L84:
 1434 0008 00000000 		.word	.LANCHOR11
 1435              		.cfi_endproc
 1436              	.LFE266:
 1437              		.size	imu_get_rpy, .-imu_get_rpy
 1438              		.section	.text.imu_get_accel,"ax",%progbits
 1439              		.align	1
 1440              		.p2align 4,,15
 1441              		.global	imu_get_accel
 1442              		.syntax unified
 1443              		.thumb
 1444              		.thumb_func
 1445              		.fpu fpv4-sp-d16
 1446              		.type	imu_get_accel, %function
 1447              	imu_get_accel:
 1448              	.LFB267:
 1449              		.loc 1 178 0
 1450              		.cfi_startproc
 1451              		@ args = 0, pretend = 0, frame = 0
 1452              		@ frame_needed = 0, uses_anonymous_args = 0
 1453              		@ link register save eliminated.
 1454              	.LVL105:
 1455 0000 10B4     		push	{r4}
 1456              		.cfi_def_cfa_offset 4
 1457              		.cfi_offset 4, -4
 1458              		.loc 1 179 0
 1459 0002 044B     		ldr	r3, .L88
 1460              		.loc 1 178 0
 1461 0004 0446     		mov	r4, r0
 1462              		.loc 1 179 0
 1463 0006 07CB     		ldmia	r3!, {r0, r1, r2}
 1464              	.LVL106:
 1465 0008 2060     		str	r0, [r4]	@ unaligned
 1466 000a 6160     		str	r1, [r4, #4]	@ unaligned
 1467 000c A260     		str	r2, [r4, #8]	@ unaligned
 1468              		.loc 1 180 0
 1469 000e 5DF8044B 		ldr	r4, [sp], #4
 1470              		.cfi_restore 4
 1471              		.cfi_def_cfa_offset 0
 1472              	.LVL107:
 1473 0012 7047     		bx	lr
 1474              	.L89:
 1475              		.align	2
 1476              	.L88:
 1477 0014 00000000 		.word	.LANCHOR5
 1478              		.cfi_endproc
 1479              	.LFE267:
 1480              		.size	imu_get_accel, .-imu_get_accel
 1481              		.section	.text.imu_get_gyro,"ax",%progbits
 1482              		.align	1
ARM GAS  /tmp/ccqzIfgg.s 			page 27


 1483              		.p2align 4,,15
 1484              		.global	imu_get_gyro
 1485              		.syntax unified
 1486              		.thumb
 1487              		.thumb_func
 1488              		.fpu fpv4-sp-d16
 1489              		.type	imu_get_gyro, %function
 1490              	imu_get_gyro:
 1491              	.LFB268:
 1492              		.loc 1 182 0
 1493              		.cfi_startproc
 1494              		@ args = 0, pretend = 0, frame = 0
 1495              		@ frame_needed = 0, uses_anonymous_args = 0
 1496              		@ link register save eliminated.
 1497              	.LVL108:
 1498 0000 10B4     		push	{r4}
 1499              		.cfi_def_cfa_offset 4
 1500              		.cfi_offset 4, -4
 1501              		.loc 1 183 0
 1502 0002 044B     		ldr	r3, .L92
 1503              		.loc 1 182 0
 1504 0004 0446     		mov	r4, r0
 1505              		.loc 1 183 0
 1506 0006 07CB     		ldmia	r3!, {r0, r1, r2}
 1507              	.LVL109:
 1508 0008 2060     		str	r0, [r4]	@ unaligned
 1509 000a 6160     		str	r1, [r4, #4]	@ unaligned
 1510 000c A260     		str	r2, [r4, #8]	@ unaligned
 1511              		.loc 1 184 0
 1512 000e 5DF8044B 		ldr	r4, [sp], #4
 1513              		.cfi_restore 4
 1514              		.cfi_def_cfa_offset 0
 1515              	.LVL110:
 1516 0012 7047     		bx	lr
 1517              	.L93:
 1518              		.align	2
 1519              	.L92:
 1520 0014 00000000 		.word	.LANCHOR6
 1521              		.cfi_endproc
 1522              	.LFE268:
 1523              		.size	imu_get_gyro, .-imu_get_gyro
 1524              		.section	.text.imu_get_mag,"ax",%progbits
 1525              		.align	1
 1526              		.p2align 4,,15
 1527              		.global	imu_get_mag
 1528              		.syntax unified
 1529              		.thumb
 1530              		.thumb_func
 1531              		.fpu fpv4-sp-d16
 1532              		.type	imu_get_mag, %function
 1533              	imu_get_mag:
 1534              	.LFB269:
 1535              		.loc 1 186 0
 1536              		.cfi_startproc
 1537              		@ args = 0, pretend = 0, frame = 0
 1538              		@ frame_needed = 0, uses_anonymous_args = 0
 1539              		@ link register save eliminated.
ARM GAS  /tmp/ccqzIfgg.s 			page 28


 1540              	.LVL111:
 1541 0000 10B4     		push	{r4}
 1542              		.cfi_def_cfa_offset 4
 1543              		.cfi_offset 4, -4
 1544              		.loc 1 187 0
 1545 0002 044B     		ldr	r3, .L96
 1546              		.loc 1 186 0
 1547 0004 0446     		mov	r4, r0
 1548              		.loc 1 187 0
 1549 0006 07CB     		ldmia	r3!, {r0, r1, r2}
 1550              	.LVL112:
 1551 0008 2060     		str	r0, [r4]	@ unaligned
 1552 000a 6160     		str	r1, [r4, #4]	@ unaligned
 1553 000c A260     		str	r2, [r4, #8]	@ unaligned
 1554              		.loc 1 188 0
 1555 000e 5DF8044B 		ldr	r4, [sp], #4
 1556              		.cfi_restore 4
 1557              		.cfi_def_cfa_offset 0
 1558              	.LVL113:
 1559 0012 7047     		bx	lr
 1560              	.L97:
 1561              		.align	2
 1562              	.L96:
 1563 0014 00000000 		.word	.LANCHOR7
 1564              		.cfi_endproc
 1565              	.LFE269:
 1566              		.size	imu_get_mag, .-imu_get_mag
 1567              		.section	.text.imu_get_accel_derotated,"ax",%progbits
 1568              		.align	1
 1569              		.p2align 4,,15
 1570              		.global	imu_get_accel_derotated
 1571              		.syntax unified
 1572              		.thumb
 1573              		.thumb_func
 1574              		.fpu fpv4-sp-d16
 1575              		.type	imu_get_accel_derotated, %function
 1576              	imu_get_accel_derotated:
 1577              	.LFB270:
 1578              		.loc 1 190 0
 1579              		.cfi_startproc
 1580              		@ args = 0, pretend = 0, frame = 16
 1581              		@ frame_needed = 0, uses_anonymous_args = 0
 1582              	.LVL114:
 1583 0000 10B5     		push	{r4, lr}
 1584              		.cfi_def_cfa_offset 8
 1585              		.cfi_offset 4, -8
 1586              		.cfi_offset 14, -4
 1587 0002 2DED0A8B 		vpush.64	{d8, d9, d10, d11, d12}
 1588              		.cfi_def_cfa_offset 48
 1589              		.cfi_offset 80, -48
 1590              		.cfi_offset 81, -44
 1591              		.cfi_offset 82, -40
 1592              		.cfi_offset 83, -36
 1593              		.cfi_offset 84, -32
 1594              		.cfi_offset 85, -28
 1595              		.cfi_offset 86, -24
 1596              		.cfi_offset 87, -20
ARM GAS  /tmp/ccqzIfgg.s 			page 29


 1597              		.cfi_offset 88, -16
 1598              		.cfi_offset 89, -12
 1599 0006 84B0     		sub	sp, sp, #16
 1600              		.cfi_def_cfa_offset 64
 1601              	.LVL115:
 1602              	.LBB19:
 1603              	.LBB20:
 1604              		.loc 1 175 0
 1605 0008 2E49     		ldr	r1, .L100
 1606              	.LBE20:
 1607              	.LBE19:
 1608              		.loc 1 190 0
 1609 000a 0446     		mov	r4, r0
 1610              	.LBB22:
 1611              	.LBB21:
 1612              		.loc 1 175 0
 1613 000c 01A8     		add	r0, sp, #4
 1614              	.LVL116:
 1615 000e FFF7FEFF 		bl	ahrs_get_roll_pitch_yaw
 1616              	.LVL117:
 1617              	.LBE21:
 1618              	.LBE22:
 1619              		.loc 1 198 0
 1620 0012 DDED018A 		vldr.32	s17, [sp, #4]
 1621              		.loc 1 194 0
 1622 0016 2C4B     		ldr	r3, .L100+4
 1623              		.loc 1 198 0
 1624 0018 B0EE680A 		vmov.f32	s0, s17
 1625              		.loc 1 195 0
 1626 001c D3ED01AA 		vldr.32	s21, [r3, #4]
 1627              		.loc 1 196 0
 1628 0020 93ED028A 		vldr.32	s16, [r3, #8]
 1629              		.loc 1 194 0
 1630 0024 D3ED00BA 		vldr.32	s23, [r3]
 1631              	.LVL118:
 1632              		.loc 1 198 0
 1633 0028 FFF7FEFF 		bl	sinf
 1634              	.LVL119:
 1635 002c B0EE40AA 		vmov.f32	s20, s0
 1636              	.LVL120:
 1637              		.loc 1 199 0
 1638 0030 B0EE680A 		vmov.f32	s0, s17
 1639              	.LVL121:
 1640 0034 FFF7FEFF 		bl	cosf
 1641              	.LVL122:
 1642              		.loc 1 200 0
 1643 0038 9DED029A 		vldr.32	s18, [sp, #8]
 1644              		.loc 1 199 0
 1645 003c F1EE408A 		vneg.f32	s17, s0
 1646              	.LVL123:
 1647              		.loc 1 200 0
 1648 0040 B0EE490A 		vmov.f32	s0, s18
 1649 0044 FFF7FEFF 		bl	sinf
 1650              	.LVL124:
 1651 0048 F0EE409A 		vmov.f32	s19, s0
 1652              	.LVL125:
 1653              		.loc 1 201 0
ARM GAS  /tmp/ccqzIfgg.s 			page 30


 1654 004c B0EE490A 		vmov.f32	s0, s18
 1655              	.LVL126:
 1656 0050 FFF7FEFF 		bl	cosf
 1657              	.LVL127:
 1658              		.loc 1 202 0
 1659 0054 9DED03CA 		vldr.32	s24, [sp, #12]
 1660              		.loc 1 201 0
 1661 0058 B1EE409A 		vneg.f32	s18, s0
 1662              	.LVL128:
 1663              		.loc 1 202 0
 1664 005c B0EE4C0A 		vmov.f32	s0, s24
 1665 0060 FFF7FEFF 		bl	sinf
 1666              	.LVL129:
 1667 0064 B0EE40BA 		vmov.f32	s22, s0
 1668              	.LVL130:
 1669              		.loc 1 203 0
 1670 0068 B0EE4C0A 		vmov.f32	s0, s24
 1671              	.LVL131:
 1672 006c FFF7FEFF 		bl	cosf
 1673              	.LVL132:
 1674              		.loc 1 205 0
 1675 0070 2AEEA97A 		vmul.f32	s14, s21, s19
 1676              		.loc 1 206 0
 1677 0074 6AEE487A 		vnmul.f32	s15, s20, s16
 1678              		.loc 1 205 0
 1679 0078 27EE0A7A 		vmul.f32	s14, s14, s20
 1680              		.loc 1 207 0
 1681 007c 6AEE896A 		vmul.f32	s13, s21, s18
 1682              		.loc 1 205 0
 1683 0080 ABEE897A 		vfma.f32	s14, s23, s18
 1684 0084 28EE296A 		vmul.f32	s12, s16, s19
 1685              		.loc 1 206 0
 1686 0088 EAEEA87A 		vfma.f32	s15, s21, s17
 1687              		.loc 1 207 0
 1688 008c 66EE8A6A 		vmul.f32	s13, s13, s20
 1689              		.loc 1 205 0
 1690 0090 A6EE287A 		vfma.f32	s14, s12, s17
 1691              	.LVL133:
 1692              		.loc 1 207 0
 1693 0094 EBEEE96A 		vfms.f32	s13, s23, s19
 1694              		.loc 1 208 0
 1695 0098 2BEE276A 		vmul.f32	s12, s22, s15
 1696              		.loc 1 207 0
 1697 009c 28EE098A 		vmul.f32	s16, s16, s18
 1698              	.LVL134:
 1699              		.loc 1 209 0
 1700 00a0 67EEC07A 		vnmul.f32	s15, s15, s0
 1701              	.LVL135:
 1702              		.loc 1 207 0
 1703 00a4 E8EE286A 		vfma.f32	s13, s16, s17
 1704              		.loc 1 208 0
 1705 00a8 A0EE076A 		vfma.f32	s12, s0, s14
 1706              	.LVL136:
 1707              		.loc 1 209 0
 1708 00ac EBEE077A 		vfma.f32	s15, s22, s14
 1709              	.LVL137:
 1710              		.loc 1 213 0
ARM GAS  /tmp/ccqzIfgg.s 			page 31


 1711 00b0 C4ED026A 		vstr.32	s13, [r4, #8]
 1712              		.loc 1 211 0
 1713 00b4 84ED006A 		vstr.32	s12, [r4]
 1714              		.loc 1 212 0
 1715 00b8 C4ED017A 		vstr.32	s15, [r4, #4]
 1716              		.loc 1 214 0
 1717 00bc 04B0     		add	sp, sp, #16
 1718              		.cfi_def_cfa_offset 48
 1719              		@ sp needed
 1720 00be BDEC0A8B 		vldm	sp!, {d8-d12}
 1721              		.cfi_restore 88
 1722              		.cfi_restore 89
 1723              		.cfi_restore 86
 1724              		.cfi_restore 87
 1725              		.cfi_restore 84
 1726              		.cfi_restore 85
 1727              		.cfi_restore 82
 1728              		.cfi_restore 83
 1729              		.cfi_restore 80
 1730              		.cfi_restore 81
 1731              		.cfi_def_cfa_offset 8
 1732              	.LVL138:
 1733 00c2 10BD     		pop	{r4, pc}
 1734              	.LVL139:
 1735              	.L101:
 1736              		.align	2
 1737              	.L100:
 1738 00c4 00000000 		.word	.LANCHOR11
 1739 00c8 00000000 		.word	.LANCHOR5
 1740              		.cfi_endproc
 1741              	.LFE270:
 1742              		.size	imu_get_accel_derotated, .-imu_get_accel_derotated
 1743              		.section	.text.imu_get_quaternions,"ax",%progbits
 1744              		.align	1
 1745              		.p2align 4,,15
 1746              		.global	imu_get_quaternions
 1747              		.syntax unified
 1748              		.thumb
 1749              		.thumb_func
 1750              		.fpu fpv4-sp-d16
 1751              		.type	imu_get_quaternions, %function
 1752              	imu_get_quaternions:
 1753              	.LFB271:
 1754              		.loc 1 216 0
 1755              		.cfi_startproc
 1756              		@ args = 0, pretend = 0, frame = 0
 1757              		@ frame_needed = 0, uses_anonymous_args = 0
 1758              		@ link register save eliminated.
 1759              	.LVL140:
 1760              		.loc 1 217 0
 1761 0000 044B     		ldr	r3, .L103
 1762 0002 1A68     		ldr	r2, [r3]	@ float
 1763 0004 0260     		str	r2, [r0]	@ float
 1764              		.loc 1 218 0
 1765 0006 5A68     		ldr	r2, [r3, #4]	@ float
 1766 0008 4260     		str	r2, [r0, #4]	@ float
 1767              		.loc 1 219 0
ARM GAS  /tmp/ccqzIfgg.s 			page 32


 1768 000a 9A68     		ldr	r2, [r3, #8]	@ float
 1769 000c 8260     		str	r2, [r0, #8]	@ float
 1770              		.loc 1 220 0
 1771 000e DB68     		ldr	r3, [r3, #12]	@ float
 1772 0010 C360     		str	r3, [r0, #12]	@ float
 1773              		.loc 1 221 0
 1774 0012 7047     		bx	lr
 1775              	.L104:
 1776              		.align	2
 1777              	.L103:
 1778 0014 00000000 		.word	.LANCHOR11
 1779              		.cfi_endproc
 1780              	.LFE271:
 1781              		.size	imu_get_quaternions, .-imu_get_quaternions
 1782              		.section	.bss.ax_dyn.13234,"aw",%nobits
 1783              		.align	2
 1784              		.set	.LANCHOR9,. + 0
 1785              		.type	ax_dyn.13234, %object
 1786              		.size	ax_dyn.13234, 4
 1787              	ax_dyn.13234:
 1788 0000 00000000 		.space	4
 1789              		.section	.bss.filter_speed.13237,"aw",%nobits
 1790              		.align	2
 1791              		.set	.LANCHOR8,. + 0
 1792              		.type	filter_speed.13237, %object
 1793              		.size	filter_speed.13237, 4
 1794              	filter_speed.13237:
 1795 0000 00000000 		.space	4
 1796              		.section	.bss.imu_ready,"aw",%nobits
 1797              		.set	.LANCHOR3,. + 0
 1798              		.type	imu_ready, %object
 1799              		.size	imu_ready, 1
 1800              	imu_ready:
 1801 0000 00       		.space	1
 1802              		.section	.bss.init_time,"aw",%nobits
 1803              		.align	2
 1804              		.set	.LANCHOR4,. + 0
 1805              		.type	init_time, %object
 1806              		.size	init_time, 4
 1807              	init_time:
 1808 0000 00000000 		.space	4
 1809              		.section	.bss.last_time.13212,"aw",%nobits
 1810              		.align	2
 1811              		.set	.LANCHOR2,. + 0
 1812              		.type	last_time.13212, %object
 1813              		.size	last_time.13212, 4
 1814              	last_time.13212:
 1815 0000 00000000 		.space	4
 1816              		.section	.bss.m_accel,"aw",%nobits
 1817              		.align	2
 1818              		.set	.LANCHOR5,. + 0
 1819              		.type	m_accel, %object
 1820              		.size	m_accel, 12
 1821              	m_accel:
 1822 0000 00000000 		.space	12
 1822      00000000 
 1822      00000000 
ARM GAS  /tmp/ccqzIfgg.s 			page 33


 1823              		.section	.bss.m_att,"aw",%nobits
 1824              		.align	2
 1825              		.set	.LANCHOR11,. + 0
 1826              		.type	m_att, %object
 1827              		.size	m_att, 36
 1828              	m_att:
 1829 0000 00000000 		.space	36
 1829      00000000 
 1829      00000000 
 1829      00000000 
 1829      00000000 
 1830              		.section	.bss.m_bmi_state,"aw",%nobits
 1831              		.align	2
 1832              		.set	.LANCHOR14,. + 0
 1833              		.type	m_bmi_state, %object
 1834              		.size	m_bmi_state, 52
 1835              	m_bmi_state:
 1836 0000 00000000 		.space	52
 1836      00000000 
 1836      00000000 
 1836      00000000 
 1836      00000000 
 1837              		.section	.bss.m_gyro,"aw",%nobits
 1838              		.align	2
 1839              		.set	.LANCHOR6,. + 0
 1840              		.type	m_gyro, %object
 1841              		.size	m_gyro, 12
 1842              	m_gyro:
 1843 0000 00000000 		.space	12
 1843      00000000 
 1843      00000000 
 1844              		.section	.bss.m_gyro_offset,"aw",%nobits
 1845              		.align	2
 1846              		.set	.LANCHOR1,. + 0
 1847              		.type	m_gyro_offset, %object
 1848              		.size	m_gyro_offset, 12
 1849              	m_gyro_offset:
 1850 0000 00000000 		.space	12
 1850      00000000 
 1850      00000000 
 1851              		.section	.bss.m_i2c_bb,"aw",%nobits
 1852              		.align	2
 1853              		.set	.LANCHOR12,. + 0
 1854              		.type	m_i2c_bb, %object
 1855              		.size	m_i2c_bb, 36
 1856              	m_i2c_bb:
 1857 0000 00000000 		.space	36
 1857      00000000 
 1857      00000000 
 1857      00000000 
 1857      00000000 
 1858              		.section	.bss.m_icm20948_state,"aw",%nobits
 1859              		.align	2
 1860              		.set	.LANCHOR13,. + 0
 1861              		.type	m_icm20948_state, %object
 1862              		.size	m_icm20948_state, 20
 1863              	m_icm20948_state:
ARM GAS  /tmp/ccqzIfgg.s 			page 34


 1864 0000 00000000 		.space	20
 1864      00000000 
 1864      00000000 
 1864      00000000 
 1864      00000000 
 1865              		.section	.bss.m_mag,"aw",%nobits
 1866              		.align	2
 1867              		.set	.LANCHOR7,. + 0
 1868              		.type	m_mag, %object
 1869              		.size	m_mag, 12
 1870              	m_mag:
 1871 0000 00000000 		.space	12
 1871      00000000 
 1871      00000000 
 1872              		.section	.bss.m_settings,"aw",%nobits
 1873              		.align	2
 1874              		.set	.LANCHOR0,. + 0
 1875              		.type	m_settings, %object
 1876              		.size	m_settings, 76
 1877              	m_settings:
 1878 0000 00000000 		.space	76
 1878      00000000 
 1878      00000000 
 1878      00000000 
 1878      00000000 
 1879              		.section	.bss.m_thd_work_area,"aw",%nobits
 1880              		.align	3
 1881              		.set	.LANCHOR15,. + 0
 1882              		.type	m_thd_work_area, %object
 1883              		.size	m_thd_work_area, 2456
 1884              	m_thd_work_area:
 1885 0000 00000000 		.space	2456
 1885      00000000 
 1885      00000000 
 1885      00000000 
 1885      00000000 
 1886              		.section	.bss.speed_last.13235,"aw",%nobits
 1887              		.align	2
 1888              		.set	.LANCHOR10,. + 0
 1889              		.type	speed_last.13235, %object
 1890              		.size	speed_last.13235, 4
 1891              	speed_last.13235:
 1892 0000 00000000 		.space	4
 1893              		.section	.rodata.imu_init.str1.4,"aMS",%progbits,1
 1894              		.align	2
 1895              	.LC1:
 1896 0000 5072696E 		.ascii	"Print gyro offsets\000"
 1896      74206779 
 1896      726F206F 
 1896      66667365 
 1896      747300
 1897 0013 00       		.space	1
 1898              	.LC2:
 1899 0014 696D755F 		.ascii	"imu_gyro_info\000"
 1899      6779726F 
 1899      5F696E66 
 1899      6F00
ARM GAS  /tmp/ccqzIfgg.s 			page 35


 1900              		.section	.rodata.terminal_gyro_info.str1.4,"aMS",%progbits,1
 1901              		.align	2
 1902              	.LC0:
 1903 0000 4779726F 		.ascii	"Gyro offsets: [%.3f %.3f %.3f]\012\000"
 1903      206F6666 
 1903      73657473 
 1903      3A205B25 
 1903      2E336620 
 1904              		.text
 1905              	.Letext0:
 1906              		.file 3 "/usr/lib/gcc/arm-none-eabi/7.3.1/include/stddef.h"
 1907              		.file 4 "/usr/arm-none-eabi/include/machine/_default_types.h"
 1908              		.file 5 "/usr/arm-none-eabi/include/sys/_stdint.h"
 1909              		.file 6 "ChibiOS_3.0.2/os/rt/ports/ARMCMx/compilers/GCC/chtypes.h"
 1910              		.file 7 "ChibiOS_3.0.2/os/rt/include/chsystypes.h"
 1911              		.file 8 "ChibiOS_3.0.2/os/rt/include/chschd.h"
 1912              		.file 9 "ChibiOS_3.0.2/os/ext/CMSIS/include/core_cm4.h"
 1913              		.file 10 "ChibiOS_3.0.2/os/ext/CMSIS/ST/system_stm32f4xx.h"
 1914              		.file 11 "ChibiOS_3.0.2/os/ext/CMSIS/ST/stm32f407xx.h"
 1915              		.file 12 "ChibiOS_3.0.2/os/rt/ports/ARMCMx/chcore.h"
 1916              		.file 13 "ChibiOS_3.0.2/os/rt/ports/ARMCMx/chcore_v7m.h"
 1917              		.file 14 "ChibiOS_3.0.2/os/rt/include/chtm.h"
 1918              		.file 15 "ChibiOS_3.0.2/os/rt/include/chsem.h"
 1919              		.file 16 "ChibiOS_3.0.2/os/rt/include/chmtx.h"
 1920              		.file 17 "ChibiOS_3.0.2/os/rt/include/chregistry.h"
 1921              		.file 18 "ChibiOS_3.0.2/os/rt/include/chevents.h"
 1922              		.file 19 "ChibiOS_3.0.2/os/rt/include/chqueues.h"
 1923              		.file 20 "./datatypes.h"
 1924              		.file 21 "./conf_general.h"
 1925              		.file 22 "ChibiOS_3.0.2/os/hal/ports/STM32/STM32F4xx/stm32_dma.h"
 1926              		.file 23 "ChibiOS_3.0.2/os/hal/ports/STM32/LLD/GPIOv2/pal_lld.h"
 1927              		.file 24 "ChibiOS_3.0.2/os/hal/include/can.h"
 1928              		.file 25 "ChibiOS_3.0.2/os/hal/ports/STM32/LLD/can_lld.h"
 1929              		.file 26 "ChibiOS_3.0.2/os/hal/include/i2c.h"
 1930              		.file 27 "ChibiOS_3.0.2/os/hal/ports/STM32/LLD/I2Cv1/i2c_lld.h"
 1931              		.file 28 "ChibiOS_3.0.2/os/hal/include/icu.h"
 1932              		.file 29 "ChibiOS_3.0.2/os/hal/ports/STM32/LLD/TIMv1/icu_lld.h"
 1933              		.file 30 "ChibiOS_3.0.2/os/hal/ports/STM32/LLD/TIMv1/stm32_tim.h"
 1934              		.file 31 "ChibiOS_3.0.2/os/hal/include/serial.h"
 1935              		.file 32 "ChibiOS_3.0.2/os/hal/ports/STM32/LLD/USARTv1/serial_lld.h"
 1936              		.file 33 "ChibiOS_3.0.2/os/hal/include/spi.h"
 1937              		.file 34 "ChibiOS_3.0.2/os/hal/ports/STM32/LLD/SPIv1/spi_lld.h"
 1938              		.file 35 "ChibiOS_3.0.2/os/hal/include/usb.h"
 1939              		.file 36 "ChibiOS_3.0.2/os/hal/ports/STM32/LLD/OTGv1/usb_lld.h"
 1940              		.file 37 "ChibiOS_3.0.2/os/hal/ports/STM32/LLD/OTGv1/stm32_otg.h"
 1941              		.file 38 "./i2c_bb.h"
 1942              		.file 39 "imu/icm20948.h"
 1943              		.file 40 "imu/BMI160_driver/bmi160_defs.h"
 1944              		.file 41 "/usr/arm-none-eabi/include/sys/lock.h"
 1945              		.file 42 "/usr/arm-none-eabi/include/sys/_types.h"
 1946              		.file 43 "/usr/arm-none-eabi/include/sys/reent.h"
 1947              		.file 44 "/usr/arm-none-eabi/include/math.h"
 1948              		.file 45 "/usr/arm-none-eabi/include/stdlib.h"
 1949              		.file 46 "imu/bmi160_wrapper.h"
 1950              		.file 47 "./mc_interface.h"
 1951              		.file 48 "./commands.h"
 1952              		.file 49 "./utils.h"
ARM GAS  /tmp/ccqzIfgg.s 			page 36


 1953              		.file 50 "./timer.h"
 1954              		.file 51 "imu/ahrs.h"
 1955              		.file 52 "imu/mpu9150.h"
 1956              		.file 53 "./terminal.h"
 1957              		.file 54 "<built-in>"