ARM GAS  /tmp/ccMaXc4o.s 			page 1


   1              		.cpu cortex-m4
   2              		.eabi_attribute 27, 1
   3              		.eabi_attribute 28, 1
   4              		.eabi_attribute 20, 1
   5              		.eabi_attribute 21, 1
   6              		.eabi_attribute 23, 3
   7              		.eabi_attribute 24, 1
   8              		.eabi_attribute 25, 1
   9              		.eabi_attribute 26, 1
  10              		.eabi_attribute 30, 2
  11              		.eabi_attribute 34, 1
  12              		.eabi_attribute 18, 4
  13              		.file	"led_external.c"
  14              		.text
  15              	.Ltext0:
  16              		.cfi_sections	.debug_frame
  17              		.section	.text.wait_for_state_change,"ax",%progbits
  18              		.align	1
  19              		.p2align 4,,15
  20              		.syntax unified
  21              		.thumb
  22              		.thumb_func
  23              		.fpu fpv4-sp-d16
  24              		.type	wait_for_state_change, %function
  25              	wait_for_state_change:
  26              	.LFB261:
  27              		.file 1 "led_external.c"
  28              		.loc 1 201 0
  29              		.cfi_startproc
  30              		@ args = 0, pretend = 0, frame = 0
  31              		@ frame_needed = 0, uses_anonymous_args = 0
  32 0000 F8B5     		push	{r3, r4, r5, r6, r7, lr}
  33              		.cfi_def_cfa_offset 24
  34              		.cfi_offset 3, -24
  35              		.cfi_offset 4, -20
  36              		.cfi_offset 5, -16
  37              		.cfi_offset 6, -12
  38              		.cfi_offset 7, -8
  39              		.cfi_offset 14, -4
  40              		.loc 1 202 0
  41 0002 0D4E     		ldr	r6, .L9
  42              		.loc 1 203 0
  43 0004 0D4F     		ldr	r7, .L9+4
  44              		.loc 1 202 0
  45 0006 3478     		ldrb	r4, [r6]	@ zero_extendqisi2
  46              		.loc 1 203 0
  47 0008 3D78     		ldrb	r5, [r7]	@ zero_extendqisi2
  48              		.loc 1 204 0
  49 000a 3378     		ldrb	r3, [r6]	@ zero_extendqisi2
  50              		.loc 1 202 0
  51 000c E4B2     		uxtb	r4, r4
  52              	.LVL0:
  53              		.loc 1 204 0
  54 000e 9C42     		cmp	r4, r3
  55 0010 11D1     		bne	.L1
  56 0012 3B78     		ldrb	r3, [r7]	@ zero_extendqisi2
  57 0014 EDB2     		uxtb	r5, r5
ARM GAS  /tmp/ccMaXc4o.s 			page 2


  58 0016 9D42     		cmp	r5, r3
  59 0018 09D0     		beq	.L3
  60 001a 0CE0     		b	.L1
  61              	.L5:
  62              		.loc 1 205 0
  63 001c 6420     		movs	r0, #100
  64 001e FFF7FEFF 		bl	chThdSleep
  65              	.LVL1:
  66              		.loc 1 204 0
  67 0022 3378     		ldrb	r3, [r6]	@ zero_extendqisi2
  68 0024 A342     		cmp	r3, r4
  69 0026 06D1     		bne	.L1
  70              		.loc 1 204 0 is_stmt 0 discriminator 1
  71 0028 3B78     		ldrb	r3, [r7]	@ zero_extendqisi2
  72 002a AB42     		cmp	r3, r5
  73 002c 03D1     		bne	.L1
  74              	.L3:
  75              		.loc 1 204 0 discriminator 2
  76 002e FFF7FEFF 		bl	mc_interface_get_fault
  77              	.LVL2:
  78 0032 0028     		cmp	r0, #0
  79 0034 F2D0     		beq	.L5
  80              	.LVL3:
  81              	.L1:
  82              		.loc 1 207 0 is_stmt 1
  83 0036 F8BD     		pop	{r3, r4, r5, r6, r7, pc}
  84              	.LVL4:
  85              	.L10:
  86              		.align	2
  87              	.L9:
  88 0038 00000000 		.word	.LANCHOR0
  89 003c 00000000 		.word	.LANCHOR1
  90              		.cfi_endproc
  91              	.LFE261:
  92              		.size	wait_for_state_change, .-wait_for_state_change
  93              		.section	.text.set_led_wrapper,"ax",%progbits
  94              		.align	1
  95              		.p2align 4,,15
  96              		.syntax unified
  97              		.thumb
  98              		.thumb_func
  99              		.fpu fpv4-sp-d16
 100              		.type	set_led_wrapper, %function
 101              	set_led_wrapper:
 102              	.LFB262:
 103              		.loc 1 209 0
 104              		.cfi_startproc
 105              		@ args = 0, pretend = 0, frame = 0
 106              		@ frame_needed = 0, uses_anonymous_args = 0
 107              		@ link register save eliminated.
 108              	.LVL5:
 109              		.loc 1 210 0
 110 0000 064B     		ldr	r3, .L14
 111 0002 1A78     		ldrb	r2, [r3]	@ zero_extendqisi2
 112 0004 3AB1     		cbz	r2, .L12
 113              	.LVL6:
 114              	.LBB72:
ARM GAS  /tmp/ccMaXc4o.s 			page 3


 115              	.LBB73:
 116              		.loc 1 211 0
 117 0006 0D28     		cmp	r0, #13
 118 0008 02DC     		bgt	.L13
 119              		.loc 1 212 0
 120 000a 0E30     		adds	r0, r0, #14
 121              	.LVL7:
 122 000c FFF7FEBF 		b	ws2811_set_led_color
 123              	.LVL8:
 124              	.L13:
 125              		.loc 1 214 0
 126 0010 0E38     		subs	r0, r0, #14
 127              	.LVL9:
 128 0012 FFF7FEBF 		b	ws2811_set_led_color
 129              	.LVL10:
 130              	.L12:
 131              	.LBE73:
 132              	.LBE72:
 133              		.loc 1 217 0
 134 0016 FFF7FEBF 		b	ws2811_set_led_color
 135              	.LVL11:
 136              	.L15:
 137 001a 00BF     		.align	2
 138              	.L14:
 139 001c 00000000 		.word	.LANCHOR1
 140              		.cfi_endproc
 141              	.LFE262:
 142              		.size	set_led_wrapper, .-set_led_wrapper
 143              		.section	.text.led_thread,"ax",%progbits
 144              		.align	1
 145              		.p2align 4,,15
 146              		.syntax unified
 147              		.thumb
 148              		.thumb_func
 149              		.fpu fpv4-sp-d16
 150              		.type	led_thread, %function
 151              	led_thread:
 152              	.LFB259:
 153              		.loc 1 56 0
 154              		.cfi_startproc
 155              		@ args = 0, pretend = 0, frame = 0
 156              		@ frame_needed = 0, uses_anonymous_args = 0
 157              	.LVL12:
 158 0000 2DE9F84F 		push	{r3, r4, r5, r6, r7, r8, r9, r10, fp, lr}
 159              		.cfi_def_cfa_offset 40
 160              		.cfi_offset 3, -40
 161              		.cfi_offset 4, -36
 162              		.cfi_offset 5, -32
 163              		.cfi_offset 6, -28
 164              		.cfi_offset 7, -24
 165              		.cfi_offset 8, -20
 166              		.cfi_offset 9, -16
 167              		.cfi_offset 10, -12
 168              		.cfi_offset 11, -8
 169              		.cfi_offset 14, -4
 170              	.LBB74:
 171              	.LBB75:
ARM GAS  /tmp/ccMaXc4o.s 			page 4


 172              		.file 2 "ChibiOS_3.0.2/os/rt/include/chregistry.h"
 173              		.loc 2 135 0
 174 0004 DFF87493 		ldr	r9, .L77+48
 175 0008 D04A     		ldr	r2, .L77
 176 000a D9F81830 		ldr	r3, [r9, #24]
 177 000e D04F     		ldr	r7, .L77+4
 178 0010 DFF86C83 		ldr	r8, .L77+52
 179              	.LBE75:
 180              	.LBE74:
 181              		.loc 1 56 0
 182 0014 2DED068B 		vpush.64	{d8, d9, d10}
 183              		.cfi_def_cfa_offset 64
 184              		.cfi_offset 80, -64
 185              		.cfi_offset 81, -60
 186              		.cfi_offset 82, -56
 187              		.cfi_offset 83, -52
 188              		.cfi_offset 84, -48
 189              		.cfi_offset 85, -44
 190              	.LBB77:
 191              	.LBB76:
 192              		.loc 2 135 0
 193 0018 9A61     		str	r2, [r3, #24]
 194              	.LVL13:
 195              	.LBE76:
 196              	.LBE77:
 197              	.LBB78:
 198              		.loc 1 63 0
 199 001a FFF7FEFF 		bl	mc_interface_get_fault
 200              	.LVL14:
 201              	.LBB79:
 202              		.loc 1 157 0
 203 001e DFEDCDAA 		vldr.32	s21, .L77+8
 204 0022 9FEDCDAA 		vldr.32	s20, .L77+12
 205 0026 DFEDCD8A 		vldr.32	s17, .L77+16
 206              	.LBE79:
 207              		.loc 1 64 0
 208 002a 0546     		mov	r5, r0
 209 002c 0028     		cmp	r0, #0
 210 002e 40F0D880 		bne	.L71
 211              	.LVL15:
 212              	.L17:
 213              	.LBB113:
 214              		.loc 1 84 0
 215 0032 3D78     		ldrb	r5, [r7]	@ zero_extendqisi2
 216              		.loc 1 85 0
 217 0034 98F80060 		ldrb	r6, [r8]	@ zero_extendqisi2
 218              		.loc 1 87 0
 219 0038 3B78     		ldrb	r3, [r7]	@ zero_extendqisi2
 220              		.loc 1 84 0
 221 003a EDB2     		uxtb	r5, r5
 222              	.LVL16:
 223              		.loc 1 85 0
 224 003c F6B2     		uxtb	r6, r6
 225              	.LVL17:
 226              		.loc 1 87 0
 227 003e 072B     		cmp	r3, #7
 228 0040 00F27F81 		bhi	.L22
ARM GAS  /tmp/ccMaXc4o.s 			page 5


 229 0044 DFE813F0 		tbh	[pc, r3, lsl #1]
 230              	.L24:
 231 0048 BF00     		.2byte	(.L23-.L24)/2
 232 004a AD00     		.2byte	(.L53-.L24)/2
 233 004c 9B00     		.2byte	(.L54-.L24)/2
 234 004e 5300     		.2byte	(.L55-.L24)/2
 235 0050 0800     		.2byte	(.L56-.L24)/2
 236 0052 5300     		.2byte	(.L55-.L24)/2
 237 0054 0800     		.2byte	(.L56-.L24)/2
 238 0056 0A01     		.2byte	(.L29-.L24)/2
 239              		.p2align 1
 240              	.L56:
 241              	.LBB80:
 242              		.loc 1 134 0
 243 0058 0024     		movs	r4, #0
 244              	.LVL18:
 245              	.L28:
 246              		.loc 1 135 0
 247 005a 3B78     		ldrb	r3, [r7]	@ zero_extendqisi2
 248 005c 042B     		cmp	r3, #4
 249              		.loc 1 138 0
 250 005e 2046     		mov	r0, r4
 251 0060 4FF47F01 		mov	r1, #16711680
 252              		.loc 1 136 0
 253 0064 08BF     		it	eq
 254 0066 4FF4FE01 		moveq	r1, #8323072
 255              		.loc 1 138 0
 256 006a FFF7FEFF 		bl	set_led_wrapper
 257              	.LVL19:
 258              		.loc 1 140 0
 259 006e 04F10E00 		add	r0, r4, #14
 260 0072 6FF07F41 		mvn	r1, #-16777216
 261              		.loc 1 134 0
 262 0076 0134     		adds	r4, r4, #1
 263              	.LVL20:
 264              		.loc 1 140 0
 265 0078 FFF7FEFF 		bl	set_led_wrapper
 266              	.LVL21:
 267              		.loc 1 134 0
 268 007c 0E2C     		cmp	r4, #14
 269 007e ECD1     		bne	.L28
 270              	.LBE80:
 271              		.loc 1 143 0
 272 0080 3B78     		ldrb	r3, [r7]	@ zero_extendqisi2
 273 0082 AB42     		cmp	r3, r5
 274 0084 40F0A480 		bne	.L21
 275 0088 98F80030 		ldrb	r3, [r8]	@ zero_extendqisi2
 276 008c B342     		cmp	r3, r6
 277 008e 40F09F80 		bne	.L21
 278              		.loc 1 145 0
 279 0092 B34C     		ldr	r4, .L77+20
 280              	.LVL22:
 281 0094 11E0     		b	.L41
 282              	.L72:
 283 0096 FFF7FEFF 		bl	set_led_wrapper
 284              	.LVL23:
 285              		.loc 1 146 0
ARM GAS  /tmp/ccMaXc4o.s 			page 6


 286 009a 2146     		mov	r1, r4
 287 009c 1B20     		movs	r0, #27
 288 009e FFF7FEFF 		bl	set_led_wrapper
 289              	.LVL24:
 290              	.L43:
 291              		.loc 1 151 0
 292 00a2 6420     		movs	r0, #100
 293 00a4 FFF7FEFF 		bl	chThdSleep
 294              	.LVL25:
 295              		.loc 1 143 0
 296 00a8 3B78     		ldrb	r3, [r7]	@ zero_extendqisi2
 297 00aa AB42     		cmp	r3, r5
 298 00ac 40F09080 		bne	.L21
 299              		.loc 1 143 0 is_stmt 0 discriminator 1
 300 00b0 98F80030 		ldrb	r3, [r8]	@ zero_extendqisi2
 301 00b4 B342     		cmp	r3, r6
 302 00b6 40F08B80 		bne	.L21
 303              	.L41:
 304              		.loc 1 143 0 discriminator 2
 305 00ba FFF7FEFF 		bl	mc_interface_get_fault
 306              	.LVL26:
 307 00be 0028     		cmp	r0, #0
 308 00c0 40F08680 		bne	.L21
 309              	.LBB81:
 310              	.LBB82:
 311              	.LBB83:
 312              	.LBB84:
 313              	.LBB85:
 314              	.LBB86:
 315              		.file 3 "ChibiOS_3.0.2/os/ext/CMSIS/include/core_cmFunc.h"
 316              		.loc 3 342 0 is_stmt 1
 317              		.syntax unified
 318              	@ 342 "ChibiOS_3.0.2/os/ext/CMSIS/include/core_cmFunc.h" 1
 319 00c4 72B6     		cpsid i
 320              	@ 0 "" 2
 321              		.thumb
 322              		.syntax unified
 323              	.LBE86:
 324              	.LBE85:
 325              	.LBE84:
 326              	.LBE83:
 327              	.LBB87:
 328              	.LBB88:
 329              		.file 4 "ChibiOS_3.0.2/os/rt/include/chvt.h"
 330              		.loc 4 231 0
 331 00c6 D9F82830 		ldr	r3, [r9, #40]
 332              	.LBE88:
 333              	.LBE87:
 334              	.LBB89:
 335              	.LBB90:
 336              	.LBB91:
 337              	.LBB92:
 338              	.LBB93:
 339              		.loc 3 331 0
 340              		.syntax unified
 341              	@ 331 "ChibiOS_3.0.2/os/ext/CMSIS/include/core_cmFunc.h" 1
 342 00ca 62B6     		cpsie i
ARM GAS  /tmp/ccMaXc4o.s 			page 7


 343              	@ 0 "" 2
 344              		.thumb
 345              		.syntax unified
 346              	.LBE93:
 347              	.LBE92:
 348              	.LBE91:
 349              	.LBE90:
 350              	.LBE89:
 351              	.LBE82:
 352              	.LBE81:
 353              		.loc 1 144 0
 354 00cc A54A     		ldr	r2, .L77+24
 355 00ce A2FB0323 		umull	r2, r3, r2, r3
 356 00d2 C3F3003A 		ubfx	r10, r3, #12, #1
 357              		.loc 1 145 0
 358 00d6 2146     		mov	r1, r4
 359              		.loc 1 144 0
 360 00d8 BAF1000F 		cmp	r10, #0
 361 00dc DBD1     		bne	.L72
 362              		.loc 1 148 0
 363 00de 5146     		mov	r1, r10
 364 00e0 FFF7FEFF 		bl	set_led_wrapper
 365              	.LVL27:
 366              		.loc 1 149 0
 367 00e4 5146     		mov	r1, r10
 368 00e6 1B20     		movs	r0, #27
 369 00e8 FFF7FEFF 		bl	set_led_wrapper
 370              	.LVL28:
 371 00ec D9E7     		b	.L43
 372              	.LVL29:
 373              	.L55:
 374              	.LBB94:
 375              		.loc 1 111 0
 376 00ee 0024     		movs	r4, #0
 377              	.LVL30:
 378              	.L27:
 379              		.loc 1 112 0
 380 00f0 3B78     		ldrb	r3, [r7]	@ zero_extendqisi2
 381 00f2 032B     		cmp	r3, #3
 382              		.loc 1 115 0
 383 00f4 2046     		mov	r0, r4
 384 00f6 4FF47F01 		mov	r1, #16711680
 385              		.loc 1 113 0
 386 00fa 08BF     		it	eq
 387 00fc 4FF4FE01 		moveq	r1, #8323072
 388              		.loc 1 115 0
 389 0100 FFF7FEFF 		bl	set_led_wrapper
 390              	.LVL31:
 391              		.loc 1 117 0
 392 0104 04F10E00 		add	r0, r4, #14
 393 0108 6FF07F41 		mvn	r1, #-16777216
 394              		.loc 1 111 0
 395 010c 0134     		adds	r4, r4, #1
 396              	.LVL32:
 397              		.loc 1 117 0
 398 010e FFF7FEFF 		bl	set_led_wrapper
 399              	.LVL33:
ARM GAS  /tmp/ccMaXc4o.s 			page 8


 400              		.loc 1 111 0
 401 0112 0E2C     		cmp	r4, #14
 402 0114 ECD1     		bne	.L27
 403              	.LBE94:
 404              		.loc 1 120 0
 405 0116 3B78     		ldrb	r3, [r7]	@ zero_extendqisi2
 406 0118 9D42     		cmp	r5, r3
 407 011a 59D1     		bne	.L21
 408 011c 98F80030 		ldrb	r3, [r8]	@ zero_extendqisi2
 409 0120 B342     		cmp	r3, r6
 410 0122 55D1     		bne	.L21
 411              		.loc 1 122 0
 412 0124 8E4C     		ldr	r4, .L77+20
 413              	.LVL34:
 414 0126 0FE0     		b	.L35
 415              	.L73:
 416 0128 FFF7FEFF 		bl	set_led_wrapper
 417              	.LVL35:
 418              		.loc 1 123 0
 419 012c 2146     		mov	r1, r4
 420 012e 0E20     		movs	r0, #14
 421 0130 FFF7FEFF 		bl	set_led_wrapper
 422              	.LVL36:
 423              	.L37:
 424              		.loc 1 128 0
 425 0134 6420     		movs	r0, #100
 426 0136 FFF7FEFF 		bl	chThdSleep
 427              	.LVL37:
 428              		.loc 1 120 0
 429 013a 3B78     		ldrb	r3, [r7]	@ zero_extendqisi2
 430 013c AB42     		cmp	r3, r5
 431 013e 47D1     		bne	.L21
 432              		.loc 1 120 0 is_stmt 0 discriminator 1
 433 0140 98F80030 		ldrb	r3, [r8]	@ zero_extendqisi2
 434 0144 B342     		cmp	r3, r6
 435 0146 43D1     		bne	.L21
 436              	.L35:
 437              		.loc 1 120 0 discriminator 2
 438 0148 FFF7FEFF 		bl	mc_interface_get_fault
 439              	.LVL38:
 440 014c 0028     		cmp	r0, #0
 441 014e 3FD1     		bne	.L21
 442              	.LBB95:
 443              	.LBB96:
 444              	.LBB97:
 445              	.LBB98:
 446              	.LBB99:
 447              	.LBB100:
 448              		.loc 3 342 0 is_stmt 1
 449              		.syntax unified
 450              	@ 342 "ChibiOS_3.0.2/os/ext/CMSIS/include/core_cmFunc.h" 1
 451 0150 72B6     		cpsid i
 452              	@ 0 "" 2
 453              		.thumb
 454              		.syntax unified
 455              	.LBE100:
 456              	.LBE99:
ARM GAS  /tmp/ccMaXc4o.s 			page 9


 457              	.LBE98:
 458              	.LBE97:
 459              	.LBB101:
 460              	.LBB102:
 461              		.loc 4 231 0
 462 0152 D9F82830 		ldr	r3, [r9, #40]
 463              	.LBE102:
 464              	.LBE101:
 465              	.LBB103:
 466              	.LBB104:
 467              	.LBB105:
 468              	.LBB106:
 469              	.LBB107:
 470              		.loc 3 331 0
 471              		.syntax unified
 472              	@ 331 "ChibiOS_3.0.2/os/ext/CMSIS/include/core_cmFunc.h" 1
 473 0156 62B6     		cpsie i
 474              	@ 0 "" 2
 475              		.thumb
 476              		.syntax unified
 477              	.LBE107:
 478              	.LBE106:
 479              	.LBE105:
 480              	.LBE104:
 481              	.LBE103:
 482              	.LBE96:
 483              	.LBE95:
 484              		.loc 1 121 0
 485 0158 824A     		ldr	r2, .L77+24
 486 015a A2FB0323 		umull	r2, r3, r2, r3
 487 015e C3F3003A 		ubfx	r10, r3, #12, #1
 488              		.loc 1 122 0
 489 0162 2146     		mov	r1, r4
 490 0164 0D20     		movs	r0, #13
 491              		.loc 1 121 0
 492 0166 BAF1000F 		cmp	r10, #0
 493 016a DDD1     		bne	.L73
 494              		.loc 1 125 0
 495 016c 5146     		mov	r1, r10
 496 016e 0D20     		movs	r0, #13
 497 0170 FFF7FEFF 		bl	set_led_wrapper
 498              	.LVL39:
 499              		.loc 1 126 0
 500 0174 5146     		mov	r1, r10
 501 0176 0E20     		movs	r0, #14
 502 0178 FFF7FEFF 		bl	set_led_wrapper
 503              	.LVL40:
 504 017c DAE7     		b	.L37
 505              	.LVL41:
 506              	.L54:
 507              	.LBB108:
 508              		.loc 1 102 0
 509 017e 0024     		movs	r4, #0
 510              	.LVL42:
 511              	.L26:
 512              		.loc 1 103 0 discriminator 3
 513 0180 2046     		mov	r0, r4
ARM GAS  /tmp/ccMaXc4o.s 			page 10


 514 0182 4FF47F01 		mov	r1, #16711680
 515 0186 FFF7FEFF 		bl	set_led_wrapper
 516              	.LVL43:
 517              		.loc 1 104 0 discriminator 3
 518 018a 04F10E00 		add	r0, r4, #14
 519 018e 6FF07F41 		mvn	r1, #-16777216
 520              		.loc 1 102 0 discriminator 3
 521 0192 0134     		adds	r4, r4, #1
 522              	.LVL44:
 523              		.loc 1 104 0 discriminator 3
 524 0194 FFF7FEFF 		bl	set_led_wrapper
 525              	.LVL45:
 526              		.loc 1 102 0 discriminator 3
 527 0198 0E2C     		cmp	r4, #14
 528 019a F1D1     		bne	.L26
 529              	.LBE108:
 530              		.loc 1 98 0
 531 019c FFF7FEFF 		bl	wait_for_state_change
 532              	.LVL46:
 533              		.loc 1 99 0
 534 01a0 16E0     		b	.L21
 535              	.LVL47:
 536              	.L53:
 537              	.LBB109:
 538              		.loc 1 94 0
 539 01a2 0024     		movs	r4, #0
 540              	.LVL48:
 541              	.L25:
 542              		.loc 1 95 0 discriminator 3
 543 01a4 2046     		mov	r0, r4
 544 01a6 4FF4FE01 		mov	r1, #8323072
 545 01aa FFF7FEFF 		bl	set_led_wrapper
 546              	.LVL49:
 547              		.loc 1 96 0 discriminator 3
 548 01ae 04F10E00 		add	r0, r4, #14
 549 01b2 6FF07F41 		mvn	r1, #-16777216
 550              		.loc 1 94 0 discriminator 3
 551 01b6 0134     		adds	r4, r4, #1
 552              	.LVL50:
 553              		.loc 1 96 0 discriminator 3
 554 01b8 FFF7FEFF 		bl	set_led_wrapper
 555              	.LVL51:
 556              		.loc 1 94 0 discriminator 3
 557 01bc 0E2C     		cmp	r4, #14
 558 01be F1D1     		bne	.L25
 559              	.LBE109:
 560              		.loc 1 98 0
 561 01c0 FFF7FEFF 		bl	wait_for_state_change
 562              	.LVL52:
 563 01c4 04E0     		b	.L21
 564              	.LVL53:
 565              	.L23:
 566              		.loc 1 89 0
 567 01c6 0020     		movs	r0, #0
 568              	.LVL54:
 569 01c8 FFF7FEFF 		bl	ws2811_set_all
 570              	.LVL55:
ARM GAS  /tmp/ccMaXc4o.s 			page 11


 571              		.loc 1 90 0
 572 01cc FFF7FEFF 		bl	wait_for_state_change
 573              	.LVL56:
 574              	.L21:
 575              	.LBE113:
 576              		.loc 1 185 0
 577 01d0 0A20     		movs	r0, #10
 578 01d2 FFF7FEFF 		bl	chThdSleep
 579              	.LVL57:
 580              		.loc 1 63 0
 581 01d6 FFF7FEFF 		bl	mc_interface_get_fault
 582              	.LVL58:
 583              		.loc 1 64 0
 584 01da 0546     		mov	r5, r0
 585 01dc 0028     		cmp	r0, #0
 586 01de 3FF428AF 		beq	.L17
 587              	.L71:
 588              	.LBB114:
 589              		.loc 1 65 0
 590 01e2 0020     		movs	r0, #0
 591              	.LVL59:
 592 01e4 FFF7FEFF 		bl	ws2811_set_all
 593              	.LVL60:
 594              	.LBB115:
 595              		.loc 1 66 0
 596 01e8 0024     		movs	r4, #0
 597              	.LVL61:
 598              	.L18:
 599              		.loc 1 67 0 discriminator 3
 600 01ea 2046     		mov	r0, r4
 601 01ec 4FF47F01 		mov	r1, #16711680
 602 01f0 FFF7FEFF 		bl	set_led_wrapper
 603              	.LVL62:
 604              		.loc 1 66 0 discriminator 3
 605 01f4 0134     		adds	r4, r4, #1
 606              	.LVL63:
 607              		.loc 1 68 0 discriminator 3
 608 01f6 4FF4FA60 		mov	r0, #2000
 609 01fa FFF7FEFF 		bl	chThdSleep
 610              	.LVL64:
 611              		.loc 1 66 0 discriminator 3
 612 01fe AC42     		cmp	r4, r5
 613 0200 F3D1     		bne	.L18
 614              	.LBE115:
 615              		.loc 1 71 0
 616 0202 42F21070 		movw	r0, #10000
 617 0206 FFF7FEFF 		bl	chThdSleep
 618              	.LVL65:
 619              	.LBB116:
 620              	.LBB117:
 621              		.loc 1 75 0
 622 020a DFED579A 		vldr.32	s19, .L77+28
 623              	.LBB118:
 624              	.LBB119:
 625              		.loc 1 194 0
 626 020e 9FED579A 		vldr.32	s18, .L77+32
 627              	.LBE119:
ARM GAS  /tmp/ccMaXc4o.s 			page 12


 628              	.LBE118:
 629              	.LBE117:
 630              	.LBE116:
 631              		.loc 1 71 0
 632 0212 3226     		movs	r6, #50
 633              		.loc 1 73 0
 634 0214 B7EE008A 		vmov.f32	s16, #1.0e+0
 635              	.LVL66:
 636              	.L20:
 637              	.LBB125:
 638              	.LBB124:
 639              		.loc 1 75 0
 640 0218 38EE698A 		vsub.f32	s16, s16, s19
 641              	.LVL67:
 642              	.LBB121:
 643              		.loc 1 77 0
 644 021c 4FF0000A 		mov	r10, #0
 645              	.LBE121:
 646              	.LBB122:
 647              	.LBB120:
 648              		.loc 1 195 0
 649 0220 68EE287A 		vmul.f32	s15, s16, s17
 650              		.loc 1 194 0
 651 0224 28EE097A 		vmul.f32	s14, s16, s18
 652              		.loc 1 195 0
 653 0228 FCEEE77A 		vcvt.u32.f32	s15, s15
 654 022c 17EE904A 		vmov	r4, s15	@ int
 655              	.LVL68:
 656              		.loc 1 194 0
 657 0230 FCEEC77A 		vcvt.u32.f32	s15, s14
 658              		.loc 1 198 0
 659 0234 2102     		lsls	r1, r4, #8
 660              		.loc 1 194 0
 661 0236 17EE902A 		vmov	r2, s15	@ int
 662              		.loc 1 198 0
 663 023a 41EA0242 		orr	r2, r1, r2, lsl #16
 664 023e 1443     		orrs	r4, r4, r2
 665              	.LVL69:
 666              	.L19:
 667              	.LBE120:
 668              	.LBE122:
 669              	.LBB123:
 670              		.loc 1 78 0 discriminator 3
 671 0240 5046     		mov	r0, r10
 672 0242 2146     		mov	r1, r4
 673              		.loc 1 77 0 discriminator 3
 674 0244 0AF1010A 		add	r10, r10, #1
 675              	.LVL70:
 676              		.loc 1 78 0 discriminator 3
 677 0248 FFF7FEFF 		bl	set_led_wrapper
 678              	.LVL71:
 679              		.loc 1 77 0 discriminator 3
 680 024c AA45     		cmp	r10, r5
 681 024e F7D1     		bne	.L19
 682              	.LBE123:
 683              		.loc 1 80 0 discriminator 2
 684 0250 6420     		movs	r0, #100
ARM GAS  /tmp/ccMaXc4o.s 			page 13


 685 0252 FFF7FEFF 		bl	chThdSleep
 686              	.LVL72:
 687              	.LBE124:
 688              		.loc 1 74 0 discriminator 2
 689 0256 013E     		subs	r6, r6, #1
 690              	.LVL73:
 691 0258 DED1     		bne	.L20
 692 025a B9E7     		b	.L21
 693              	.LVL74:
 694              	.L29:
 695              	.LBE125:
 696              	.LBE114:
 697              	.LBB126:
 698              		.loc 1 156 0
 699 025c 3B78     		ldrb	r3, [r7]	@ zero_extendqisi2
 700 025e AB42     		cmp	r3, r5
 701 0260 B6D1     		bne	.L21
 702 0262 98F80030 		ldrb	r3, [r8]	@ zero_extendqisi2
 703 0266 B342     		cmp	r3, r6
 704 0268 B2D1     		bne	.L21
 705              		.loc 1 157 0
 706 026a 9FED419A 		vldr.32	s18, .L77+36
 707              	.LBB110:
 708              		.loc 1 164 0
 709 026e 414C     		ldr	r4, .L77+40
 710              	.LVL75:
 711              	.L31:
 712              	.LBE110:
 713              		.loc 1 156 0 discriminator 2
 714 0270 FFF7FEFF 		bl	mc_interface_get_fault
 715              	.LVL76:
 716 0274 8346     		mov	fp, r0
 717 0276 0028     		cmp	r0, #0
 718 0278 AAD1     		bne	.L21
 719              		.loc 1 157 0
 720 027a 3F4B     		ldr	r3, .L77+44
 721 027c DB8A     		ldrh	r3, [r3, #22]
 722 027e 00EE103A 		vmov	s0, r3	@ int
 723 0282 B8EE400A 		vcvt.f32.u32	s0, s0
 724 0286 B7EE002A 		vmov.f32	s4, #1.0e+0
 725 028a 20EE2A0A 		vmul.f32	s0, s0, s21
 726 028e F0EE681A 		vmov.f32	s3, s17
 727 0292 20EE0A0A 		vmul.f32	s0, s0, s20
 728 0296 B0EE491A 		vmov.f32	s2, s18
 729 029a F3EE0C0A 		vmov.f32	s1, #2.8e+1
 730 029e FFF7FEFF 		bl	utils_map
 731              	.LVL77:
 732              	.LBB111:
 733              		.loc 1 159 0
 734 02a2 B2EE0C8A 		vmov.f32	s16, #1.4e+1
 735 02a6 20EE088A 		vmul.f32	s16, s0, s16
 736 02aa 12E0     		b	.L50
 737              	.LVL78:
 738              	.L76:
 739              		.loc 1 160 0
 740 02ac BBF1030F 		cmp	fp, #3
 741              		.loc 1 164 0
ARM GAS  /tmp/ccMaXc4o.s 			page 14


 742 02b0 2146     		mov	r1, r4
 743 02b2 5846     		mov	r0, fp
 744              		.loc 1 160 0
 745 02b4 31DD     		ble	.L74
 746              	.LVL79:
 747              		.loc 1 163 0
 748 02b6 BBF1080F 		cmp	fp, #8
 749 02ba 38DC     		bgt	.L49
 750              		.loc 1 164 0
 751 02bc FFF7FEFF 		bl	set_led_wrapper
 752              	.LVL80:
 753              		.loc 1 165 0
 754 02c0 2146     		mov	r1, r4
 755 02c2 5046     		mov	r0, r10
 756 02c4 FFF7FEFF 		bl	set_led_wrapper
 757              	.LVL81:
 758              	.L48:
 759              		.loc 1 158 0 discriminator 2
 760 02c8 0BF1010B 		add	fp, fp, #1
 761              	.LVL82:
 762 02cc BBF10E0F 		cmp	fp, #14
 763 02d0 17D0     		beq	.L75
 764              	.LVL83:
 765              	.L50:
 766              		.loc 1 159 0
 767 02d2 07EE90BA 		vmov	s15, fp	@ int
 768 02d6 F8EEE77A 		vcvt.f32.s32	s15, s15
 769 02da CBF11B0A 		rsb	r10, fp, #27
 770 02de F4EEC87A 		vcmpe.f32	s15, s16
 771 02e2 F1EE10FA 		vmrs	APSR_nzcv, FPSCR
 772 02e6 E1D4     		bmi	.L76
 773              		.loc 1 171 0
 774 02e8 5846     		mov	r0, fp
 775 02ea 0021     		movs	r1, #0
 776 02ec FFF7FEFF 		bl	set_led_wrapper
 777              	.LVL84:
 778              		.loc 1 158 0
 779 02f0 0BF1010B 		add	fp, fp, #1
 780              	.LVL85:
 781              		.loc 1 172 0
 782 02f4 5046     		mov	r0, r10
 783 02f6 0021     		movs	r1, #0
 784 02f8 FFF7FEFF 		bl	set_led_wrapper
 785              	.LVL86:
 786              		.loc 1 158 0
 787 02fc BBF10E0F 		cmp	fp, #14
 788 0300 E7D1     		bne	.L50
 789              	.L75:
 790              	.LBE111:
 791              		.loc 1 175 0
 792 0302 6420     		movs	r0, #100
 793 0304 FFF7FEFF 		bl	chThdSleep
 794              	.LVL87:
 795              		.loc 1 156 0
 796 0308 3B78     		ldrb	r3, [r7]	@ zero_extendqisi2
 797 030a AB42     		cmp	r3, r5
 798 030c 7FF460AF 		bne	.L21
ARM GAS  /tmp/ccMaXc4o.s 			page 15


 799              		.loc 1 156 0 is_stmt 0 discriminator 1
 800 0310 98F80030 		ldrb	r3, [r8]	@ zero_extendqisi2
 801 0314 B342     		cmp	r3, r6
 802 0316 ABD0     		beq	.L31
 803 0318 5AE7     		b	.L21
 804              	.LVL88:
 805              	.L74:
 806              	.LBB112:
 807              		.loc 1 161 0 is_stmt 1
 808 031a 4FF47F01 		mov	r1, #16711680
 809 031e FFF7FEFF 		bl	set_led_wrapper
 810              	.LVL89:
 811              		.loc 1 162 0
 812 0322 5046     		mov	r0, r10
 813 0324 4FF47F01 		mov	r1, #16711680
 814 0328 FFF7FEFF 		bl	set_led_wrapper
 815              	.LVL90:
 816 032c CCE7     		b	.L48
 817              	.LVL91:
 818              	.L49:
 819              		.loc 1 167 0
 820 032e 4FF47F41 		mov	r1, #65280
 821 0332 FFF7FEFF 		bl	set_led_wrapper
 822              	.LVL92:
 823              		.loc 1 168 0
 824 0336 5046     		mov	r0, r10
 825 0338 4FF47F41 		mov	r1, #65280
 826 033c FFF7FEFF 		bl	set_led_wrapper
 827              	.LVL93:
 828 0340 C2E7     		b	.L48
 829              	.LVL94:
 830              	.L22:
 831              	.LBE112:
 832              		.loc 1 180 0
 833 0342 6420     		movs	r0, #100
 834              	.LVL95:
 835 0344 FFF7FEFF 		bl	chThdSleep
 836              	.LVL96:
 837              		.loc 1 181 0
 838 0348 42E7     		b	.L21
 839              	.L78:
 840 034a 00BF     		.align	2
 841              	.L77:
 842 034c 00000000 		.word	.LC0
 843 0350 00000000 		.word	.LANCHOR0
 844 0354 C07B523A 		.word	978484160
 845 0358 BAE8B241 		.word	1102244026
 846 035c 00000000 		.word	0
 847 0360 00A5FF00 		.word	16753920
 848 0364 5917B7D1 		.word	-776530087
 849 0368 0AD7A33C 		.word	1017370378
 850 036c 00007F43 		.word	1132396544
 851 0370 00000442 		.word	1107558400
 852 0374 00FFFF00 		.word	16776960
 853 0378 00000000 		.word	ADC_Value
 854 037c 00000000 		.word	ch
 855 0380 00000000 		.word	.LANCHOR1
ARM GAS  /tmp/ccMaXc4o.s 			page 16


 856              	.LBE126:
 857              	.LBE78:
 858              		.cfi_endproc
 859              	.LFE259:
 860              		.size	led_thread, .-led_thread
 861              		.section	.text.led_external_init,"ax",%progbits
 862              		.align	1
 863              		.p2align 4,,15
 864              		.global	led_external_init
 865              		.syntax unified
 866              		.thumb
 867              		.thumb_func
 868              		.fpu fpv4-sp-d16
 869              		.type	led_external_init, %function
 870              	led_external_init:
 871              	.LFB256:
 872              		.loc 1 42 0
 873              		.cfi_startproc
 874              		@ args = 0, pretend = 0, frame = 0
 875              		@ frame_needed = 0, uses_anonymous_args = 0
 876 0000 30B5     		push	{r4, r5, lr}
 877              		.cfi_def_cfa_offset 12
 878              		.cfi_offset 4, -12
 879              		.cfi_offset 5, -8
 880              		.cfi_offset 14, -4
 881              		.loc 1 43 0
 882 0002 0849     		ldr	r1, .L81
 883              		.loc 1 44 0
 884 0004 084D     		ldr	r5, .L81+4
 885              		.loc 1 45 0
 886 0006 094B     		ldr	r3, .L81+8
 887 0008 0948     		ldr	r0, .L81+12
 888              		.loc 1 42 0
 889 000a 83B0     		sub	sp, sp, #12
 890              		.cfi_def_cfa_offset 24
 891              		.loc 1 43 0
 892 000c 0024     		movs	r4, #0
 893              		.loc 1 45 0
 894 000e 0094     		str	r4, [sp]
 895 0010 0222     		movs	r2, #2
 896              		.loc 1 43 0
 897 0012 0C70     		strb	r4, [r1]
 898              		.loc 1 45 0
 899 0014 4FF4B361 		mov	r1, #1432
 900              		.loc 1 44 0
 901 0018 2C70     		strb	r4, [r5]
 902              		.loc 1 45 0
 903 001a FFF7FEFF 		bl	chThdCreateStatic
 904              	.LVL97:
 905              		.loc 1 46 0
 906 001e 03B0     		add	sp, sp, #12
 907              		.cfi_def_cfa_offset 12
 908              		@ sp needed
 909 0020 30BD     		pop	{r4, r5, pc}
 910              	.L82:
 911 0022 00BF     		.align	2
 912              	.L81:
ARM GAS  /tmp/ccMaXc4o.s 			page 17


 913 0024 00000000 		.word	.LANCHOR1
 914 0028 00000000 		.word	.LANCHOR0
 915 002c 00000000 		.word	led_thread
 916 0030 00000000 		.word	.LANCHOR2
 917              		.cfi_endproc
 918              	.LFE256:
 919              		.size	led_external_init, .-led_external_init
 920              		.section	.text.led_external_set_state,"ax",%progbits
 921              		.align	1
 922              		.p2align 4,,15
 923              		.global	led_external_set_state
 924              		.syntax unified
 925              		.thumb
 926              		.thumb_func
 927              		.fpu fpv4-sp-d16
 928              		.type	led_external_set_state, %function
 929              	led_external_set_state:
 930              	.LFB257:
 931              		.loc 1 48 0
 932              		.cfi_startproc
 933              		@ args = 0, pretend = 0, frame = 0
 934              		@ frame_needed = 0, uses_anonymous_args = 0
 935              		@ link register save eliminated.
 936              	.LVL98:
 937              		.loc 1 49 0
 938 0000 014B     		ldr	r3, .L84
 939 0002 1870     		strb	r0, [r3]
 940              		.loc 1 50 0
 941 0004 7047     		bx	lr
 942              	.L85:
 943 0006 00BF     		.align	2
 944              	.L84:
 945 0008 00000000 		.word	.LANCHOR0
 946              		.cfi_endproc
 947              	.LFE257:
 948              		.size	led_external_set_state, .-led_external_set_state
 949              		.section	.text.led_external_set_reversed,"ax",%progbits
 950              		.align	1
 951              		.p2align 4,,15
 952              		.global	led_external_set_reversed
 953              		.syntax unified
 954              		.thumb
 955              		.thumb_func
 956              		.fpu fpv4-sp-d16
 957              		.type	led_external_set_reversed, %function
 958              	led_external_set_reversed:
 959              	.LFB258:
 960              		.loc 1 52 0
 961              		.cfi_startproc
 962              		@ args = 0, pretend = 0, frame = 0
 963              		@ frame_needed = 0, uses_anonymous_args = 0
 964              		@ link register save eliminated.
 965              	.LVL99:
 966              		.loc 1 53 0
 967 0000 014B     		ldr	r3, .L87
 968 0002 1870     		strb	r0, [r3]
 969              		.loc 1 54 0
ARM GAS  /tmp/ccMaXc4o.s 			page 18


 970 0004 7047     		bx	lr
 971              	.L88:
 972 0006 00BF     		.align	2
 973              	.L87:
 974 0008 00000000 		.word	.LANCHOR1
 975              		.cfi_endproc
 976              	.LFE258:
 977              		.size	led_external_set_reversed, .-led_external_set_reversed
 978              		.section	.bss.led_thread_wa,"aw",%nobits
 979              		.align	3
 980              		.set	.LANCHOR2,. + 0
 981              		.type	led_thread_wa, %object
 982              		.size	led_thread_wa, 1432
 983              	led_thread_wa:
 984 0000 00000000 		.space	1432
 984      00000000 
 984      00000000 
 984      00000000 
 984      00000000 
 985              		.section	.bss.reverse_leds,"aw",%nobits
 986              		.set	.LANCHOR1,. + 0
 987              		.type	reverse_leds, %object
 988              		.size	reverse_leds, 1
 989              	reverse_leds:
 990 0000 00       		.space	1
 991              		.section	.bss.state,"aw",%nobits
 992              		.set	.LANCHOR0,. + 0
 993              		.type	state, %object
 994              		.size	state, 1
 995              	state:
 996 0000 00       		.space	1
 997              		.section	.rodata.led_thread.str1.4,"aMS",%progbits,1
 998              		.align	2
 999              	.LC0:
 1000 0000 4C454473 		.ascii	"LEDs External\000"
 1000      20457874 
 1000      65726E61 
 1000      6C00
 1001              		.text
 1002              	.Letext0:
 1003              		.file 5 "/usr/arm-none-eabi/include/machine/_default_types.h"
 1004              		.file 6 "/usr/arm-none-eabi/include/sys/_stdint.h"
 1005              		.file 7 "/usr/lib/gcc/arm-none-eabi/7.3.1/include/stddef.h"
 1006              		.file 8 "ChibiOS_3.0.2/os/rt/ports/ARMCMx/compilers/GCC/chtypes.h"
 1007              		.file 9 "ChibiOS_3.0.2/os/rt/include/chsystypes.h"
 1008              		.file 10 "ChibiOS_3.0.2/os/rt/include/chschd.h"
 1009              		.file 11 "ChibiOS_3.0.2/os/ext/CMSIS/include/core_cm4.h"
 1010              		.file 12 "ChibiOS_3.0.2/os/ext/CMSIS/ST/system_stm32f4xx.h"
 1011              		.file 13 "ChibiOS_3.0.2/os/ext/CMSIS/ST/stm32f407xx.h"
 1012              		.file 14 "ChibiOS_3.0.2/os/rt/ports/ARMCMx/chcore.h"
 1013              		.file 15 "ChibiOS_3.0.2/os/rt/ports/ARMCMx/chcore_v7m.h"
 1014              		.file 16 "ChibiOS_3.0.2/os/rt/include/chtm.h"
 1015              		.file 17 "ChibiOS_3.0.2/os/rt/include/chsem.h"
 1016              		.file 18 "ChibiOS_3.0.2/os/rt/include/chmtx.h"
 1017              		.file 19 "ChibiOS_3.0.2/os/rt/include/chevents.h"
 1018              		.file 20 "ChibiOS_3.0.2/os/rt/include/chqueues.h"
 1019              		.file 21 "datatypes.h"
ARM GAS  /tmp/ccMaXc4o.s 			page 19


 1020              		.file 22 "./conf_general.h"
 1021              		.file 23 "ChibiOS_3.0.2/os/hal/ports/STM32/STM32F4xx/stm32_dma.h"
 1022              		.file 24 "ChibiOS_3.0.2/os/hal/ports/STM32/LLD/GPIOv2/pal_lld.h"
 1023              		.file 25 "ChibiOS_3.0.2/os/hal/include/can.h"
 1024              		.file 26 "ChibiOS_3.0.2/os/hal/ports/STM32/LLD/can_lld.h"
 1025              		.file 27 "ChibiOS_3.0.2/os/hal/include/i2c.h"
 1026              		.file 28 "ChibiOS_3.0.2/os/hal/ports/STM32/LLD/I2Cv1/i2c_lld.h"
 1027              		.file 29 "ChibiOS_3.0.2/os/hal/include/icu.h"
 1028              		.file 30 "ChibiOS_3.0.2/os/hal/ports/STM32/LLD/TIMv1/icu_lld.h"
 1029              		.file 31 "ChibiOS_3.0.2/os/hal/ports/STM32/LLD/TIMv1/stm32_tim.h"
 1030              		.file 32 "ChibiOS_3.0.2/os/hal/include/serial.h"
 1031              		.file 33 "ChibiOS_3.0.2/os/hal/ports/STM32/LLD/USARTv1/serial_lld.h"
 1032              		.file 34 "ChibiOS_3.0.2/os/hal/include/spi.h"
 1033              		.file 35 "ChibiOS_3.0.2/os/hal/ports/STM32/LLD/SPIv1/spi_lld.h"
 1034              		.file 36 "ChibiOS_3.0.2/os/hal/include/usb.h"
 1035              		.file 37 "ChibiOS_3.0.2/os/hal/ports/STM32/LLD/OTGv1/usb_lld.h"
 1036              		.file 38 "ChibiOS_3.0.2/os/hal/ports/STM32/LLD/OTGv1/stm32_otg.h"
 1037              		.file 39 "mc_interface.h"
 1038              		.file 40 "ChibiOS_3.0.2/os/rt/include/chsys.h"
 1039              		.file 41 "ChibiOS_3.0.2/os/rt/include/chthreads.h"
 1040              		.file 42 "ws2811.h"
 1041              		.file 43 "utils.h"