ARM GAS  /tmp/ccDgV6Fa.s 			page 1


   1              		.cpu cortex-m4
   2              		.eabi_attribute 27, 1
   3              		.eabi_attribute 28, 1
   4              		.eabi_attribute 20, 1
   5              		.eabi_attribute 21, 1
   6              		.eabi_attribute 23, 3
   7              		.eabi_attribute 24, 1
   8              		.eabi_attribute 25, 1
   9              		.eabi_attribute 26, 1
  10              		.eabi_attribute 30, 2
  11              		.eabi_attribute 34, 1
  12              		.eabi_attribute 18, 4
  13              		.file	"mcpwm_foc.c"
  14              		.text
  15              	.Ltext0:
  16              		.cfi_sections	.debug_frame
  17              		.section	.text.correct_encoder,"ax",%progbits
  18              		.align	1
  19              		.p2align 4,,15
  20              		.syntax unified
  21              		.thumb
  22              		.thumb_func
  23              		.fpu fpv4-sp-d16
  24              		.type	correct_encoder, %function
  25              	correct_encoder:
  26              	.LFB330:
  27              		.file 1 "mcpwm_foc.c"
  28              		.loc 1 3181 0
  29              		.cfi_startproc
  30              		@ args = 0, pretend = 0, frame = 0
  31              		@ frame_needed = 0, uses_anonymous_args = 0
  32              		@ link register save eliminated.
  33              	.LVL0:
  34              		.loc 1 3182 0
  35 0000 DFED186A 		vldr.32	s13, .L11
  36              		.loc 1 3185 0
  37 0004 184A     		ldr	r2, .L11+4
  38              		.loc 1 3186 0
  39 0006 194B     		ldr	r3, .L11+8
  40              		.loc 1 3185 0
  41 0008 1268     		ldr	r2, [r2]
  42 000a 9FED197A 		vldr.32	s14, .L11+12
  43 000e D2ED487A 		vldr.32	s15, [r2, #288]
  44              		.loc 1 3186 0
  45 0012 1978     		ldrb	r1, [r3]	@ zero_extendqisi2
  46              		.loc 1 3182 0
  47 0014 81EE261A 		vdiv.f32	s2, s2, s13
  48              	.LVL1:
  49              		.loc 1 3185 0
  50 0018 67EE877A 		vmul.f32	s15, s15, s14
  51              		.loc 1 3182 0
  52 001c B0EEC11A 		vabs.f32	s2, s2
  53              	.LVL2:
  54              		.loc 1 3187 0
  55 0020 92ED487A 		vldr.32	s14, [r2, #288]
  56              		.loc 1 3186 0
  57 0024 71B1     		cbz	r1, .L2
ARM GAS  /tmp/ccDgV6Fa.s 			page 2


  58              		.loc 1 3187 0
  59 0026 77EE277A 		vadd.f32	s15, s14, s15
  60              	.LVL3:
  61 002a F4EEC17A 		vcmpe.f32	s15, s2
  62 002e F1EE10FA 		vmrs	APSR_nzcv, FPSCR
  63 0032 01D5     		bpl	.L3
  64              		.loc 1 3188 0
  65 0034 0022     		movs	r2, #0
  66 0036 1A70     		strb	r2, [r3]
  67              	.L3:
  68              		.loc 1 3196 0
  69 0038 1B78     		ldrb	r3, [r3]	@ zero_extendqisi2
  70 003a 002B     		cmp	r3, #0
  71              		.loc 1 3197 0
  72 003c 18BF     		it	ne
  73 003e B0EE600A 		vmovne.f32	s0, s1
  74              	.LVL4:
  75 0042 7047     		bx	lr
  76              	.LVL5:
  77              	.L2:
  78              		.loc 1 3191 0
  79 0044 77EE677A 		vsub.f32	s15, s14, s15
  80              	.LVL6:
  81 0048 F4EEC17A 		vcmpe.f32	s15, s2
  82 004c F1EE10FA 		vmrs	APSR_nzcv, FPSCR
  83              		.loc 1 3192 0
  84 0050 C4BF     		itt	gt
  85 0052 0122     		movgt	r2, #1
  86 0054 1A70     		strbgt	r2, [r3]
  87              		.loc 1 3196 0
  88 0056 1B78     		ldrb	r3, [r3]	@ zero_extendqisi2
  89 0058 002B     		cmp	r3, #0
  90              		.loc 1 3197 0
  91 005a 18BF     		it	ne
  92 005c B0EE600A 		vmovne.f32	s0, s1
  93              	.LVL7:
  94 0060 7047     		bx	lr
  95              	.L12:
  96 0062 00BF     		.align	2
  97              	.L11:
  98 0064 5077D63D 		.word	1037465424
  99 0068 00000000 		.word	.LANCHOR0
 100 006c 00000000 		.word	.LANCHOR1
 101 0070 CDCC4C3D 		.word	1028443341
 102              		.cfi_endproc
 103              	.LFE330:
 104              		.size	correct_encoder, .-correct_encoder
 105              		.section	.text.start_pwm_hw,"ax",%progbits
 106              		.align	1
 107              		.p2align 4,,15
 108              		.syntax unified
 109              		.thumb
 110              		.thumb_func
 111              		.fpu fpv4-sp-d16
 112              		.type	start_pwm_hw, %function
 113              	start_pwm_hw:
 114              	.LFB328:
ARM GAS  /tmp/ccDgV6Fa.s 			page 3


 115              		.loc 1 3141 0
 116              		.cfi_startproc
 117              		@ args = 0, pretend = 0, frame = 0
 118              		@ frame_needed = 0, uses_anonymous_args = 0
 119 0000 10B5     		push	{r4, lr}
 120              		.cfi_def_cfa_offset 8
 121              		.cfi_offset 4, -8
 122              		.cfi_offset 14, -4
 123              		.loc 1 3142 0
 124 0002 194C     		ldr	r4, .L15
 125 0004 6022     		movs	r2, #96
 126 0006 2046     		mov	r0, r4
 127 0008 0021     		movs	r1, #0
 128 000a FFF7FEFF 		bl	TIM_SelectOCxM
 129              	.LVL8:
 130              		.loc 1 3143 0
 131 000e 2046     		mov	r0, r4
 132 0010 0122     		movs	r2, #1
 133 0012 0021     		movs	r1, #0
 134 0014 FFF7FEFF 		bl	TIM_CCxCmd
 135              	.LVL9:
 136              		.loc 1 3144 0
 137 0018 2046     		mov	r0, r4
 138 001a 0422     		movs	r2, #4
 139 001c 0021     		movs	r1, #0
 140 001e FFF7FEFF 		bl	TIM_CCxNCmd
 141              	.LVL10:
 142              		.loc 1 3146 0
 143 0022 2046     		mov	r0, r4
 144 0024 6022     		movs	r2, #96
 145 0026 0421     		movs	r1, #4
 146 0028 FFF7FEFF 		bl	TIM_SelectOCxM
 147              	.LVL11:
 148              		.loc 1 3147 0
 149 002c 2046     		mov	r0, r4
 150 002e 0122     		movs	r2, #1
 151 0030 0421     		movs	r1, #4
 152 0032 FFF7FEFF 		bl	TIM_CCxCmd
 153              	.LVL12:
 154              		.loc 1 3148 0
 155 0036 0422     		movs	r2, #4
 156 0038 1146     		mov	r1, r2
 157 003a 2046     		mov	r0, r4
 158 003c FFF7FEFF 		bl	TIM_CCxNCmd
 159              	.LVL13:
 160              		.loc 1 3150 0
 161 0040 2046     		mov	r0, r4
 162 0042 6022     		movs	r2, #96
 163 0044 0821     		movs	r1, #8
 164 0046 FFF7FEFF 		bl	TIM_SelectOCxM
 165              	.LVL14:
 166              		.loc 1 3151 0
 167 004a 2046     		mov	r0, r4
 168 004c 0122     		movs	r2, #1
 169 004e 0821     		movs	r1, #8
 170 0050 FFF7FEFF 		bl	TIM_CCxCmd
 171              	.LVL15:
ARM GAS  /tmp/ccDgV6Fa.s 			page 4


 172              		.loc 1 3152 0
 173 0054 0422     		movs	r2, #4
 174 0056 2046     		mov	r0, r4
 175 0058 0821     		movs	r1, #8
 176 005a FFF7FEFF 		bl	TIM_CCxNCmd
 177              	.LVL16:
 178              		.loc 1 3160 0
 179 005e 034B     		ldr	r3, .L15+4
 180 0060 0122     		movs	r2, #1
 181 0062 1A70     		strb	r2, [r3]
 182              		.loc 1 3161 0
 183 0064 10BD     		pop	{r4, pc}
 184              	.L16:
 185 0066 00BF     		.align	2
 186              	.L15:
 187 0068 00000140 		.word	1073807360
 188 006c 00000000 		.word	.LANCHOR2
 189              		.cfi_endproc
 190              	.LFE328:
 191              		.size	start_pwm_hw, .-start_pwm_hw
 192              		.section	.text.stop_pwm_hw,"ax",%progbits
 193              		.align	1
 194              		.p2align 4,,15
 195              		.syntax unified
 196              		.thumb
 197              		.thumb_func
 198              		.fpu fpv4-sp-d16
 199              		.type	stop_pwm_hw, %function
 200              	stop_pwm_hw:
 201              	.LFB327:
 202              		.loc 1 3120 0
 203              		.cfi_startproc
 204              		@ args = 0, pretend = 0, frame = 0
 205              		@ frame_needed = 0, uses_anonymous_args = 0
 206 0000 10B5     		push	{r4, lr}
 207              		.cfi_def_cfa_offset 8
 208              		.cfi_offset 4, -8
 209              		.cfi_offset 14, -4
 210              		.loc 1 3121 0
 211 0002 1B4C     		ldr	r4, .L19
 212 0004 4022     		movs	r2, #64
 213 0006 2046     		mov	r0, r4
 214 0008 0021     		movs	r1, #0
 215 000a FFF7FEFF 		bl	TIM_SelectOCxM
 216              	.LVL17:
 217              		.loc 1 3122 0
 218 000e 2046     		mov	r0, r4
 219 0010 0122     		movs	r2, #1
 220 0012 0021     		movs	r1, #0
 221 0014 FFF7FEFF 		bl	TIM_CCxCmd
 222              	.LVL18:
 223              		.loc 1 3123 0
 224 0018 0022     		movs	r2, #0
 225 001a 1146     		mov	r1, r2
 226 001c 2046     		mov	r0, r4
 227 001e FFF7FEFF 		bl	TIM_CCxNCmd
 228              	.LVL19:
ARM GAS  /tmp/ccDgV6Fa.s 			page 5


 229              		.loc 1 3125 0
 230 0022 2046     		mov	r0, r4
 231 0024 4022     		movs	r2, #64
 232 0026 0421     		movs	r1, #4
 233 0028 FFF7FEFF 		bl	TIM_SelectOCxM
 234              	.LVL20:
 235              		.loc 1 3126 0
 236 002c 2046     		mov	r0, r4
 237 002e 0122     		movs	r2, #1
 238 0030 0421     		movs	r1, #4
 239 0032 FFF7FEFF 		bl	TIM_CCxCmd
 240              	.LVL21:
 241              		.loc 1 3127 0
 242 0036 2046     		mov	r0, r4
 243 0038 0022     		movs	r2, #0
 244 003a 0421     		movs	r1, #4
 245 003c FFF7FEFF 		bl	TIM_CCxNCmd
 246              	.LVL22:
 247              		.loc 1 3129 0
 248 0040 2046     		mov	r0, r4
 249 0042 4022     		movs	r2, #64
 250 0044 0821     		movs	r1, #8
 251 0046 FFF7FEFF 		bl	TIM_SelectOCxM
 252              	.LVL23:
 253              		.loc 1 3130 0
 254 004a 2046     		mov	r0, r4
 255 004c 0122     		movs	r2, #1
 256 004e 0821     		movs	r1, #8
 257 0050 FFF7FEFF 		bl	TIM_CCxCmd
 258              	.LVL24:
 259              		.loc 1 3131 0
 260 0054 0022     		movs	r2, #0
 261 0056 2046     		mov	r0, r4
 262 0058 0821     		movs	r1, #8
 263 005a FFF7FEFF 		bl	TIM_CCxNCmd
 264              	.LVL25:
 265              		.loc 1 3133 0
 266 005e 2046     		mov	r0, r4
 267 0060 2021     		movs	r1, #32
 268 0062 FFF7FEFF 		bl	TIM_GenerateEvent
 269              	.LVL26:
 270              		.loc 1 3138 0
 271 0066 034B     		ldr	r3, .L19+4
 272 0068 0022     		movs	r2, #0
 273 006a 1A70     		strb	r2, [r3]
 274              		.loc 1 3139 0
 275 006c 10BD     		pop	{r4, pc}
 276              	.L20:
 277 006e 00BF     		.align	2
 278              	.L19:
 279 0070 00000140 		.word	1073807360
 280 0074 00000000 		.word	.LANCHOR2
 281              		.cfi_endproc
 282              	.LFE327:
 283              		.size	stop_pwm_hw, .-stop_pwm_hw
 284              		.section	.text.read_hall,"ax",%progbits
 285              		.align	1
ARM GAS  /tmp/ccDgV6Fa.s 			page 6


 286              		.p2align 4,,15
 287              		.syntax unified
 288              		.thumb
 289              		.thumb_func
 290              		.fpu fpv4-sp-d16
 291              		.type	read_hall, %function
 292              	read_hall:
 293              	.LFB329:
 294              		.loc 1 3163 0
 295              		.cfi_startproc
 296              		@ args = 0, pretend = 0, frame = 0
 297              		@ frame_needed = 0, uses_anonymous_args = 0
 298              		.loc 1 3164 0
 299 0000 174B     		ldr	r3, .L23
 300              		.loc 1 3163 0
 301 0002 2DE9F047 		push	{r4, r5, r6, r7, r8, r9, r10, lr}
 302              		.cfi_def_cfa_offset 32
 303              		.cfi_offset 4, -32
 304              		.cfi_offset 5, -28
 305              		.cfi_offset 6, -24
 306              		.cfi_offset 7, -20
 307              		.cfi_offset 8, -16
 308              		.cfi_offset 9, -12
 309              		.cfi_offset 10, -8
 310              		.cfi_offset 14, -4
 311              		.loc 1 3164 0
 312 0006 1869     		ldr	r0, [r3, #16]
 313              	.LVL27:
 314              		.loc 1 3165 0
 315 0008 1D69     		ldr	r5, [r3, #16]
 316              	.LVL28:
 317              		.loc 1 3166 0
 318 000a 1E69     		ldr	r6, [r3, #16]
 319              	.LVL29:
 320              		.loc 1 3168 0
 321 000c 1969     		ldr	r1, [r3, #16]
 322              	.LVL30:
 323              		.loc 1 3169 0
 324 000e D3F81090 		ldr	r9, [r3, #16]
 325              	.LVL31:
 326              		.loc 1 3170 0
 327 0012 1F69     		ldr	r7, [r3, #16]
 328              	.LVL32:
 329              		.loc 1 3172 0
 330 0014 1A69     		ldr	r2, [r3, #16]
 331              	.LVL33:
 332              		.loc 1 3173 0
 333 0016 D3F810A0 		ldr	r10, [r3, #16]
 334              	.LVL34:
 335              		.loc 1 3174 0
 336 001a D3F81080 		ldr	r8, [r3, #16]
 337              	.LVL35:
 338              		.loc 1 3176 0
 339 001e C1F38011 		ubfx	r1, r1, #6, #1
 340              	.LVL36:
 341 0022 C2F38012 		ubfx	r2, r2, #6, #1
 342              	.LVL37:
ARM GAS  /tmp/ccDgV6Fa.s 			page 7


 343 0026 C0F38010 		ubfx	r0, r0, #6, #1
 344              	.LVL38:
 345 002a FFF7FEFF 		bl	utils_middle_of_3_int
 346              	.LVL39:
 347              		.loc 1 3177 0
 348 002e CAF3C012 		ubfx	r2, r10, #7, #1
 349              		.loc 1 3176 0
 350 0032 0446     		mov	r4, r0
 351              		.loc 1 3177 0
 352 0034 C9F3C011 		ubfx	r1, r9, #7, #1
 353 0038 C5F3C010 		ubfx	r0, r5, #7, #1
 354 003c FFF7FEFF 		bl	utils_middle_of_3_int
 355              	.LVL40:
 356              		.loc 1 3178 0
 357 0040 C8F30022 		ubfx	r2, r8, #8, #1
 358              		.loc 1 3177 0
 359 0044 0546     		mov	r5, r0
 360              	.LVL41:
 361              		.loc 1 3178 0
 362 0046 C7F30021 		ubfx	r1, r7, #8, #1
 363 004a C6F30020 		ubfx	r0, r6, #8, #1
 364 004e FFF7FEFF 		bl	utils_middle_of_3_int
 365              	.LVL42:
 366 0052 8000     		lsls	r0, r0, #2
 367              		.loc 1 3177 0
 368 0054 40EA4500 		orr	r0, r0, r5, lsl #1
 369              		.loc 1 3179 0
 370 0058 2043     		orrs	r0, r0, r4
 371 005a BDE8F087 		pop	{r4, r5, r6, r7, r8, r9, r10, pc}
 372              	.LVL43:
 373              	.L24:
 374 005e 00BF     		.align	2
 375              	.L23:
 376 0060 00080240 		.word	1073874944
 377              		.cfi_endproc
 378              	.LFE329:
 379              		.size	read_hall, .-read_hall
 380              		.section	.text.correct_hall,"ax",%progbits
 381              		.align	1
 382              		.p2align 4,,15
 383              		.syntax unified
 384              		.thumb
 385              		.thumb_func
 386              		.fpu fpv4-sp-d16
 387              		.type	correct_hall, %function
 388              	correct_hall:
 389              	.LFB331:
 390              		.loc 1 3199 0
 391              		.cfi_startproc
 392              		@ args = 0, pretend = 0, frame = 0
 393              		@ frame_needed = 0, uses_anonymous_args = 0
 394              	.LVL44:
 395 0000 F8B5     		push	{r3, r4, r5, r6, r7, lr}
 396              		.cfi_def_cfa_offset 24
 397              		.cfi_offset 3, -24
 398              		.cfi_offset 4, -20
 399              		.cfi_offset 5, -16
ARM GAS  /tmp/ccDgV6Fa.s 			page 8


 400              		.cfi_offset 6, -12
 401              		.cfi_offset 7, -8
 402              		.cfi_offset 14, -4
 403              		.loc 1 3201 0
 404 0002 DFED6B6A 		vldr.32	s13, .L62
 405              		.loc 1 3205 0
 406 0006 6B4A     		ldr	r2, .L62+4
 407              		.loc 1 3206 0
 408 0008 6B4B     		ldr	r3, .L62+8
 409              		.loc 1 3205 0
 410 000a 1568     		ldr	r5, [r2]
 411 000c 9FED6B7A 		vldr.32	s14, .L62+12
 412 0010 D5ED487A 		vldr.32	s15, [r5, #288]
 413              		.loc 1 3206 0
 414 0014 1A78     		ldrb	r2, [r3]	@ zero_extendqisi2
 415              		.loc 1 3199 0
 416 0016 2DED028B 		vpush.64	{d8}
 417              		.cfi_def_cfa_offset 32
 418              		.cfi_offset 80, -32
 419              		.cfi_offset 81, -28
 420              		.loc 1 3201 0
 421 001a 80EEA68A 		vdiv.f32	s16, s1, s13
 422              		.loc 1 3205 0
 423 001e 67EE877A 		vmul.f32	s15, s15, s14
 424              		.loc 1 3201 0
 425 0022 B0EEC88A 		vabs.f32	s16, s16
 426              	.LVL45:
 427              		.loc 1 3207 0
 428 0026 95ED487A 		vldr.32	s14, [r5, #288]
 429              		.loc 1 3206 0
 430 002a 7AB1     		cbz	r2, .L26
 431              		.loc 1 3207 0
 432 002c 77EE277A 		vadd.f32	s15, s14, s15
 433              	.LVL46:
 434 0030 F4EEC87A 		vcmpe.f32	s15, s16
 435 0034 F1EE10FA 		vmrs	APSR_nzcv, FPSCR
 436 0038 11D5     		bpl	.L27
 437              		.loc 1 3208 0
 438 003a 0022     		movs	r2, #0
 439 003c 1A70     		strb	r2, [r3]
 440              	.L29:
 441              		.loc 1 3279 0
 442 003e 604B     		ldr	r3, .L62+16
 443 0040 6FF00102 		mvn	r2, #1
 444 0044 1A60     		str	r2, [r3]
 445              	.LVL47:
 446              	.L25:
 447              		.loc 1 3283 0
 448 0046 BDEC028B 		vldm	sp!, {d8}
 449              		.cfi_remember_state
 450              		.cfi_restore 80
 451              		.cfi_restore 81
 452              		.cfi_def_cfa_offset 24
 453              	.LVL48:
 454 004a F8BD     		pop	{r3, r4, r5, r6, r7, pc}
 455              	.LVL49:
 456              	.L26:
ARM GAS  /tmp/ccDgV6Fa.s 			page 9


 457              		.cfi_restore_state
 458              		.loc 1 3211 0
 459 004c 77EE677A 		vsub.f32	s15, s14, s15
 460              	.LVL50:
 461 0050 F4EEC87A 		vcmpe.f32	s15, s16
 462 0054 F1EE10FA 		vmrs	APSR_nzcv, FPSCR
 463 0058 F1DD     		ble	.L29
 464              		.loc 1 3212 0
 465 005a 0122     		movs	r2, #1
 466 005c 1A70     		strb	r2, [r3]
 467              	.L27:
 468 005e 11EE107A 		vmov	r7, s2
 469 0062 10EE104A 		vmov	r4, s0
 470 0066 10EE906A 		vmov	r6, s1
 471              	.LBB38:
 472              		.loc 1 3217 0
 473 006a FFF7FEFF 		bl	read_hall
 474              	.LVL51:
 475 006e 2844     		add	r0, r0, r5
 476 0070 90F81531 		ldrb	r3, [r0, #277]	@ zero_extendqisi2
 477 0074 DBB2     		uxtb	r3, r3
 478              	.LVL52:
 479              		.loc 1 3220 0
 480 0076 C82B     		cmp	r3, #200
 481 0078 3FDC     		bgt	.L57
 482              	.LBB39:
 483              		.loc 1 3222 0
 484 007a 07EE903A 		vmov	s15, r3	@ int
 485 007e DFED515A 		vldr.32	s11, .L62+20
 486 0082 9FED516A 		vldr.32	s12, .L62+24
 487              		.loc 1 3224 0
 488 0086 4E49     		ldr	r1, .L62+16
 489              		.loc 1 3222 0
 490 0088 9FED507A 		vldr.32	s14, .L62+28
 491              		.loc 1 3224 0
 492 008c 0A68     		ldr	r2, [r1]
 493              		.loc 1 3222 0
 494 008e DFED506A 		vldr.32	s13, .L62+32
 495 0092 B8EEE75A 		vcvt.f32.s32	s10, s15
 496              		.loc 1 3224 0
 497 0096 002A     		cmp	r2, #0
 498              		.loc 1 3222 0
 499 0098 C5EE257A 		vdiv.f32	s15, s10, s11
 500 009c 67EE867A 		vmul.f32	s15, s15, s12
 501 00a0 67EE877A 		vmul.f32	s15, s15, s14
 502 00a4 C7EEA60A 		vdiv.f32	s1, s15, s13
 503              	.LVL53:
 504              		.loc 1 3224 0
 505 00a8 37DB     		blt	.L58
 506              		.loc 1 3235 0
 507 00aa 9A42     		cmp	r2, r3
 508 00ac 79D0     		beq	.L59
 509              	.LBB40:
 510              		.loc 1 3237 0
 511 00ae 981A     		subs	r0, r3, r2
 512 00b0 0028     		cmp	r0, #0
 513 00b2 B8BF     		it	lt
ARM GAS  /tmp/ccDgV6Fa.s 			page 10


 514 00b4 4042     		rsblt	r0, r0, #0
 515              	.LVL54:
 516              		.loc 1 3238 0
 517 00b6 6328     		cmp	r0, #99
 518 00b8 5CDD     		ble	.L60
 519              		.loc 1 3240 0
 520 00ba 6428     		cmp	r0, #100
 521 00bc 19D0     		beq	.L34
 522              	.LVL55:
 523              		.loc 1 3241 0
 524 00be 1A44     		add	r2, r2, r3
 525              	.LVL56:
 526 00c0 02EBD272 		add	r2, r2, r2, lsr #31
 527 00c4 5210     		asrs	r2, r2, #1
 528 00c6 434C     		ldr	r4, .L62+36
 529              	.LVL57:
 530 00c8 6432     		adds	r2, r2, #100
 531 00ca 84FB0204 		smull	r0, r4, r4, r2
 532 00ce D017     		asrs	r0, r2, #31
 533 00d0 C0EBA410 		rsb	r0, r0, r4, asr #6
 534 00d4 C824     		movs	r4, #200
 535 00d6 04FB1022 		mls	r2, r4, r0, r2
 536              	.LVL58:
 537              	.L56:
 538 00da 07EE902A 		vmov	s15, r2	@ int
 539 00de F8EEE77A 		vcvt.f32.s32	s15, s15
 540 00e2 87EEA55A 		vdiv.f32	s10, s15, s11
 541 00e6 25EE066A 		vmul.f32	s12, s10, s12
 542 00ea 26EE076A 		vmul.f32	s12, s12, s14
 543 00ee 86EE267A 		vdiv.f32	s14, s12, s13
 544              	.L34:
 545              		.loc 1 3244 0
 546 00f2 394C     		ldr	r4, .L62+40
 547 00f4 84ED007A 		vstr.32	s14, [r4]
 548 00f8 12E0     		b	.L32
 549              	.LVL59:
 550              	.L57:
 551              	.LBE40:
 552              	.LBE39:
 553              		.loc 1 3273 0
 554 00fa 384B     		ldr	r3, .L62+44
 555              	.LVL60:
 556              		.loc 1 3268 0
 557 00fc 304A     		ldr	r2, .L62+16
 558              		.loc 1 3273 0
 559 00fe 1B78     		ldrb	r3, [r3]	@ zero_extendqisi2
 560              		.loc 1 3268 0
 561 0100 4FF0FF31 		mov	r1, #-1
 562 0104 1160     		str	r1, [r2]
 563              		.loc 1 3273 0
 564 0106 1BB1     		cbz	r3, .L45
 565              		.loc 1 3273 0 is_stmt 0 discriminator 1
 566 0108 354B     		ldr	r3, .L62+48
 567 010a 1B78     		ldrb	r3, [r3]	@ zero_extendqisi2
 568 010c 022B     		cmp	r3, #2
 569 010e 4AD0     		beq	.L61
 570              	.L45:
ARM GAS  /tmp/ccDgV6Fa.s 			page 11


 571              	.LBE38:
 572              		.loc 1 3283 0 is_stmt 1
 573 0110 BDEC028B 		vldm	sp!, {d8}
 574              		.cfi_remember_state
 575              		.cfi_restore 80
 576              		.cfi_restore 81
 577              		.cfi_def_cfa_offset 24
 578              	.LVL61:
 579              	.LBB47:
 580 0114 00EE104A 		vmov	s0, r4
 581              	.LBE47:
 582 0118 F8BD     		pop	{r3, r4, r5, r6, r7, pc}
 583              	.LVL62:
 584              	.L58:
 585              		.cfi_restore_state
 586              	.LBB48:
 587              	.LBB44:
 588              		.loc 1 3233 0
 589 011a 2F4C     		ldr	r4, .L62+40
 590              	.LVL63:
 591 011c C4ED000A 		vstr.32	s1, [r4]
 592              	.L32:
 593              		.loc 1 3249 0
 594 0120 DFED308A 		vldr.32	s17, .L62+52
 595              		.loc 1 3247 0
 596 0124 0B60     		str	r3, [r1]
 597              		.loc 1 3249 0
 598 0126 B4EEE88A 		vcmpe.f32	s16, s17
 599 012a F1EE10FA 		vmrs	APSR_nzcv, FPSCR
 600 012e 09D5     		bpl	.L52
 601              		.loc 1 3251 0
 602 0130 C4ED000A 		vstr.32	s1, [r4]
 603              	.LVL64:
 604              	.L37:
 605              		.loc 1 3264 0
 606 0134 2848     		ldr	r0, .L62+40
 607 0136 FFF7FEFF 		bl	utils_norm_angle_rad
 608              	.LVL65:
 609              	.LBE44:
 610              	.LBE48:
 611              		.loc 1 3283 0
 612 013a BDEC028B 		vldm	sp!, {d8}
 613              		.cfi_remember_state
 614              		.cfi_restore 80
 615              		.cfi_restore 81
 616              		.cfi_def_cfa_offset 24
 617              	.LVL66:
 618              	.LBB49:
 619              	.LBB45:
 620              		.loc 1 3265 0
 621 013e 94ED000A 		vldr.32	s0, [r4]
 622              	.LVL67:
 623              	.LBE45:
 624              	.LBE49:
 625              		.loc 1 3283 0
 626 0142 F8BD     		pop	{r3, r4, r5, r6, r7, pc}
 627              	.LVL68:
ARM GAS  /tmp/ccDgV6Fa.s 			page 12


 628              	.L52:
 629              		.cfi_restore_state
 630              	.LBB50:
 631              	.LBB46:
 632              	.LBB41:
 633              		.loc 1 3254 0
 634 0144 94ED000A 		vldr.32	s0, [r4]
 635 0148 FFF7FEFF 		bl	utils_angle_difference_rad
 636              	.LVL69:
 637              		.loc 1 3255 0
 638 014c DFED267A 		vldr.32	s15, .L62+56
 639 0150 B0EEC07A 		vabs.f32	s14, s0
 640 0154 B4EEE77A 		vcmpe.f32	s14, s15
 641 0158 F1EE10FA 		vmrs	APSR_nzcv, FPSCR
 642 015c 18D5     		bpl	.L53
 643              		.loc 1 3257 0
 644 015e D4ED007A 		vldr.32	s15, [r4]
 645 0162 07EE106A 		vmov	s14, r6
 646 0166 06EE907A 		vmov	s13, r7
 647 016a E7EE267A 		vfma.f32	s15, s14, s13
 648 016e C4ED007A 		vstr.32	s15, [r4]
 649 0172 DFE7     		b	.L37
 650              	.LVL70:
 651              	.L60:
 652              	.LBE41:
 653              	.LBB42:
 654              		.loc 1 3239 0
 655 0174 1A44     		add	r2, r2, r3
 656              	.LVL71:
 657 0176 02EBD272 		add	r2, r2, r2, lsr #31
 658 017a 1648     		ldr	r0, .L62+36
 659 017c 5410     		asrs	r4, r2, #1
 660              	.LVL72:
 661 017e 80FB0450 		smull	r5, r0, r0, r4
 662 0182 D217     		asrs	r2, r2, #31
 663 0184 C2EBA012 		rsb	r2, r2, r0, asr #6
 664 0188 C820     		movs	r0, #200
 665 018a 00FB1242 		mls	r2, r0, r2, r4
 666 018e A4E7     		b	.L56
 667              	.LVL73:
 668              	.L53:
 669              	.LBE42:
 670              	.LBB43:
 671              		.loc 1 3260 0
 672 0190 80EE287A 		vdiv.f32	s14, s0, s17
 673 0194 D4ED007A 		vldr.32	s15, [r4]
 674 0198 77EEC77A 		vsub.f32	s15, s15, s14
 675 019c C4ED007A 		vstr.32	s15, [r4]
 676 01a0 C8E7     		b	.L37
 677              	.LVL74:
 678              	.L59:
 679 01a2 0D4C     		ldr	r4, .L62+40
 680              	.LVL75:
 681 01a4 BCE7     		b	.L32
 682              	.LVL76:
 683              	.L61:
 684              	.LBE43:
ARM GAS  /tmp/ccDgV6Fa.s 			page 13


 685              	.LBE46:
 686              		.loc 1 3274 0
 687 01a6 114B     		ldr	r3, .L62+60
 688 01a8 93ED000A 		vldr.32	s0, [r3]
 689              	.LVL77:
 690 01ac 4BE7     		b	.L25
 691              	.L63:
 692 01ae 00BF     		.align	2
 693              	.L62:
 694 01b0 5077D63D 		.word	1037465424
 695 01b4 00000000 		.word	.LANCHOR0
 696 01b8 00000000 		.word	.LANCHOR3
 697 01bc CDCCCC3D 		.word	1036831949
 698 01c0 00000000 		.word	.LANCHOR4
 699 01c4 00004843 		.word	1128792064
 700 01c8 0000B443 		.word	1135869952
 701 01cc DB0F4940 		.word	1078530011
 702 01d0 00003443 		.word	1127481344
 703 01d4 1F85EB51 		.word	1374389535
 704 01d8 00000000 		.word	.LANCHOR5
 705 01dc 00000000 		.word	.LANCHOR6
 706 01e0 00000000 		.word	.LANCHOR7
 707 01e4 0000C842 		.word	1120403456
 708 01e8 920A063F 		.word	1057360530
 709 01ec 00000000 		.word	.LANCHOR8
 710              	.LBE50:
 711              		.cfi_endproc
 712              	.LFE331:
 713              		.size	correct_hall, .-correct_hall
 714              		.section	.text.timer_thread,"ax",%progbits
 715              		.align	1
 716              		.p2align 4,,15
 717              		.syntax unified
 718              		.thumb
 719              		.thumb_func
 720              		.fpu fpv4-sp-d16
 721              		.type	timer_thread, %function
 722              	timer_thread:
 723              	.LFB319:
 724              		.loc 1 2445 0
 725              		.cfi_startproc
 726              		@ args = 0, pretend = 0, frame = 40
 727              		@ frame_needed = 0, uses_anonymous_args = 0
 728              	.LVL78:
 729              	.LBB59:
 730              	.LBB60:
 731              		.file 2 "ChibiOS_3.0.2/os/rt/include/chregistry.h"
 732              		.loc 2 135 0
 733 0000 CB4B     		ldr	r3, .L150
 734 0002 CC49     		ldr	r1, .L150+4
 735 0004 9A69     		ldr	r2, [r3, #24]
 736              	.LBE60:
 737              	.LBE59:
 738              	.LBB62:
 739              		.loc 1 2451 0
 740 0006 CC4B     		ldr	r3, .L150+8
 741              	.LBE62:
ARM GAS  /tmp/ccDgV6Fa.s 			page 14


 742              	.LBB75:
 743              	.LBB61:
 744              		.loc 2 135 0
 745 0008 9161     		str	r1, [r2, #24]
 746              	.LBE61:
 747              	.LBE75:
 748              	.LBB76:
 749              		.loc 1 2451 0
 750 000a 1B78     		ldrb	r3, [r3]	@ zero_extendqisi2
 751 000c 002B     		cmp	r3, #0
 752 000e 40F06882 		bne	.L137
 753              	.LBE76:
 754              		.loc 1 2445 0
 755 0012 2DE9F04F 		push	{r4, r5, r6, r7, r8, r9, r10, fp, lr}
 756              		.cfi_def_cfa_offset 36
 757              		.cfi_offset 4, -36
 758              		.cfi_offset 5, -32
 759              		.cfi_offset 6, -28
 760              		.cfi_offset 7, -24
 761              		.cfi_offset 8, -20
 762              		.cfi_offset 9, -16
 763              		.cfi_offset 10, -12
 764              		.cfi_offset 11, -8
 765              		.cfi_offset 14, -4
 766 0016 2DED088B 		vpush.64	{d8, d9, d10, d11}
 767              		.cfi_def_cfa_offset 68
 768              		.cfi_offset 80, -68
 769              		.cfi_offset 81, -64
 770              		.cfi_offset 82, -60
 771              		.cfi_offset 83, -56
 772              		.cfi_offset 84, -52
 773              		.cfi_offset 85, -48
 774              		.cfi_offset 86, -44
 775              		.cfi_offset 87, -40
 776 001a C84C     		ldr	r4, .L150+12
 777 001c C84D     		ldr	r5, .L150+16
 778 001e DFF854B3 		ldr	fp, .L150+68
 779 0022 C84E     		ldr	r6, .L150+20
 780 0024 DFF868A3 		ldr	r10, .L150+96
 781 0028 C74F     		ldr	r7, .L150+24
 782 002a DFF86893 		ldr	r9, .L150+100
 783 002e DFF85083 		ldr	r8, .L150+80
 784              	.LBB77:
 785              		.loc 1 2456 0
 786 0032 9FEDC68A 		vldr.32	s16, .L150+28
 787              		.loc 1 2463 0
 788 0036 9FEDC6AA 		vldr.32	s20, .L150+32
 789 003a DFEDC69A 		vldr.32	s19, .L150+36
 790              		.loc 1 2471 0
 791 003e 9FEDC69A 		vldr.32	s18, .L150+40
 792              		.loc 1 2492 0
 793 0042 DFEDC6AA 		vldr.32	s21, .L150+44
 794              	.LBE77:
 795              		.loc 1 2445 0
 796 0046 8BB0     		sub	sp, sp, #44
 797              		.cfi_def_cfa_offset 112
 798 0048 6FE0     		b	.L65
ARM GAS  /tmp/ccDgV6Fa.s 			page 15


 799              	.LVL79:
 800              	.L142:
 801              	.LBB78:
 802              		.loc 1 2479 0 discriminator 1
 803 004a 2B68     		ldr	r3, [r5]
 804 004c D6ED007A 		vldr.32	s15, [r6]
 805 0050 93ED417A 		vldr.32	s14, [r3, #260]
 806 0054 B4EEE77A 		vcmpe.f32	s14, s15
 807 0058 F1EE10FA 		vmrs	APSR_nzcv, FPSCR
 808 005c 40F3A880 		ble	.L71
 809              		.loc 1 2486 0
 810 0060 9AF80020 		ldrb	r2, [r10]	@ zero_extendqisi2
 811              		.loc 1 2480 0
 812 0064 77EE897A 		vadd.f32	s15, s15, s18
 813              		.loc 1 2486 0
 814 0068 032A     		cmp	r2, #3
 815              		.loc 1 2480 0
 816 006a C6ED007A 		vstr.32	s15, [r6]
 817              		.loc 1 2486 0
 818 006e 00F0AD80 		beq	.L75
 819              	.L143:
 820              		.loc 1 2486 0 is_stmt 0 discriminator 1
 821 0072 D4ED037A 		vldr.32	s15, [r4, #12]
 822 0076 F0EEE77A 		vabs.f32	s15, s15
 823 007a F4EEC97A 		vcmpe.f32	s15, s18
 824 007e F1EE10FA 		vmrs	APSR_nzcv, FPSCR
 825 0082 00F1A380 		bmi	.L75
 826 0086 96ED007A 		vldr.32	s14, [r6]
 827              	.LVL80:
 828              		.loc 1 2492 0 is_stmt 1
 829 008a D3ED417A 		vldr.32	s15, [r3, #260]
 830 008e F4EEC77A 		vcmpe.f32	s15, s14
 831 0092 F1EE10FA 		vmrs	APSR_nzcv, FPSCR
 832 0096 40F1A880 		bpl	.L133
 833              	.L144:
 834              		.loc 1 2492 0 is_stmt 0 discriminator 1
 835 009a D7ED007A 		vldr.32	s15, [r7]
 836 009e F4EEEA7A 		vcmpe.f32	s15, s21
 837 00a2 F1EE10FA 		vmrs	APSR_nzcv, FPSCR
 838 00a6 00F2A080 		bhi	.L133
 839              		.loc 1 2493 0 is_stmt 1
 840 00aa D3F80821 		ldr	r2, [r3, #264]	@ float
 841 00ae 3A60     		str	r2, [r7]	@ float
 842              	.LVL81:
 843              		.loc 1 2497 0
 844 00b0 99F80020 		ldrb	r2, [r9]	@ zero_extendqisi2
 845 00b4 022A     		cmp	r2, #2
 846              		.loc 1 2494 0
 847 00b6 4FF00101 		mov	r1, #1
 848              	.LVL82:
 849              		.loc 1 2497 0
 850 00ba 00F09D80 		beq	.L80
 851              	.L145:
 852              		.loc 1 2498 0
 853 00be 87ED008A 		vstr.32	s16, [r7]
 854              	.L81:
 855              		.loc 1 2519 0
ARM GAS  /tmp/ccDgV6Fa.s 			page 16


 856 00c2 A74A     		ldr	r2, .L150+48
 857 00c4 1168     		ldr	r1, [r2]	@ float
 858              	.LVL83:
 859 00c6 C8F80010 		str	r1, [r8]	@ float
 860              		.loc 1 2520 0
 861 00ca A649     		ldr	r1, .L150+52
 862 00cc 0022     		movs	r2, #0
 863 00ce 0A70     		strb	r2, [r1]
 864              		.loc 1 2524 0
 865 00d0 99F80020 		ldrb	r2, [r9]	@ zero_extendqisi2
 866 00d4 022A     		cmp	r2, #2
 867 00d6 00F0C380 		beq	.L140
 868              	.LVL84:
 869              	.L87:
 870              		.loc 1 2536 0
 871 00da 94ED030A 		vldr.32	s0, [r4, #12]
 872              		.loc 1 2537 0
 873 00de D3ED3A1A 		vldr.32	s3, [r3, #232]
 874 00e2 D3ED3B7A 		vldr.32	s15, [r3, #236]
 875              		.loc 1 2536 0
 876 00e6 93ED3A2A 		vldr.32	s4, [r3, #232]
 877 00ea B0EEC00A 		vabs.f32	s0, s0
 878 00ee 61EEA71A 		vmul.f32	s3, s3, s15
 879 00f2 B7EE001A 		vmov.f32	s2, #1.0e+0
 880 00f6 F0EE480A 		vmov.f32	s1, s16
 881 00fa FFF7FEFF 		bl	utils_map
 882              	.LVL85:
 883 00fe 9A4B     		ldr	r3, .L150+56
 884 0100 83ED000A 		vstr.32	s0, [r3]
 885              	.LVL86:
 886              	.LBB63:
 887              	.LBB64:
 888              		.loc 1 3063 0
 889 0104 9AF80030 		ldrb	r3, [r10]	@ zero_extendqisi2
 890 0108 012B     		cmp	r3, #1
 891 010a 00F0EA80 		beq	.L90
 892              		.loc 1 3064 0
 893 010e 974B     		ldr	r3, .L150+60
 894 0110 83ED008A 		vstr.32	s16, [r3]
 895              		.loc 1 3065 0
 896 0114 964B     		ldr	r3, .L150+64
 897 0116 83ED008A 		vstr.32	s16, [r3]
 898              	.LVL87:
 899              	.L103:
 900              	.LBE64:
 901              	.LBE63:
 902              		.loc 1 2540 0
 903 011a 0A20     		movs	r0, #10
 904 011c FFF7FEFF 		bl	chThdSleep
 905              	.LVL88:
 906              		.loc 1 2451 0
 907 0120 854B     		ldr	r3, .L150+8
 908 0122 1B78     		ldrb	r3, [r3]	@ zero_extendqisi2
 909 0124 002B     		cmp	r3, #0
 910 0126 40F0FB80 		bne	.L141
 911              	.LVL89:
 912              	.L65:
ARM GAS  /tmp/ccDgV6Fa.s 			page 17


 913              		.loc 1 2457 0
 914 012a 2B68     		ldr	r3, [r5]
 915              		.loc 1 2456 0
 916 012c 94ED010A 		vldr.32	s0, [r4, #4]
 917 0130 DFED860A 		vldr.32	s1, .L150+28
 918 0134 93ED011A 		vldr.32	s2, [r3, #4]
 919 0138 93ED402A 		vldr.32	s4, [r3, #256]
 920 013c F0EE481A 		vmov.f32	s3, s16
 921 0140 B0EEC00A 		vabs.f32	s0, s0
 922 0144 FFF7FEFF 		bl	utils_map
 923              	.LVL90:
 924              		.loc 1 2460 0
 925 0148 2B68     		ldr	r3, [r5]
 926              		.loc 1 2456 0
 927 014a 8DED030A 		vstr.32	s0, [sp, #12]
 928              		.loc 1 2460 0
 929 014e D3ED407A 		vldr.32	s15, [r3, #256]
 930 0152 03A8     		add	r0, sp, #12
 931 0154 B0EE670A 		vmov.f32	s0, s15
 932 0158 FFF7FEFF 		bl	utils_truncate_number_abs
 933              	.LVL91:
 934              		.loc 1 2463 0
 935 015c DDED037A 		vldr.32	s15, [sp, #12]
 936              		.loc 1 2468 0
 937 0160 94ED037A 		vldr.32	s14, [r4, #12]
 938              		.loc 1 2476 0
 939 0164 8348     		ldr	r0, .L150+68
 940              		.loc 1 2463 0
 941 0166 77EEA77A 		vadd.f32	s15, s15, s15
 942              		.loc 1 2468 0
 943 016a B5EEC07A 		vcmpe.f32	s14, #0
 944              		.loc 1 2463 0
 945 016e 67EE8A7A 		vmul.f32	s15, s15, s20
 946              		.loc 1 2468 0
 947 0172 F1EE10FA 		vmrs	APSR_nzcv, FPSCR
 948              		.loc 1 2463 0
 949 0176 87EEA9BA 		vdiv.f32	s22, s15, s19
 950              	.LVL92:
 951              		.loc 1 2475 0
 952 017a DBED007A 		vldr.32	s15, [fp]
 953              		.loc 1 2469 0
 954 017e CCBF     		ite	gt
 955 0180 6BEE098A 		vmulgt.f32	s17, s22, s18
 956              	.LVL93:
 957              		.loc 1 2471 0
 958 0184 6BEE498A 		vnmulle.f32	s17, s22, s18
 959              	.LVL94:
 960              		.loc 1 2475 0
 961 0188 77EEA87A 		vadd.f32	s15, s15, s17
 962 018c CBED007A 		vstr.32	s15, [fp]
 963              		.loc 1 2476 0
 964 0190 FFF7FEFF 		bl	utils_norm_angle_rad
 965              	.LVL95:
 966              		.loc 1 2479 0
 967 0194 784B     		ldr	r3, .L150+72
 968 0196 D3ED007A 		vldr.32	s15, [r3]
 969 019a F0EEE77A 		vabs.f32	s15, s15
ARM GAS  /tmp/ccDgV6Fa.s 			page 18


 970 019e F4EECB7A 		vcmpe.f32	s15, s22
 971 01a2 F1EE10FA 		vmrs	APSR_nzcv, FPSCR
 972 01a6 3FF550AF 		bmi	.L142
 973 01aa D6ED007A 		vldr.32	s15, [r6]
 974 01ae 2B68     		ldr	r3, [r5]
 975              	.L71:
 976              		.loc 1 2486 0
 977 01b0 9AF80020 		ldrb	r2, [r10]	@ zero_extendqisi2
 978              		.loc 1 2481 0
 979 01b4 F5EEC07A 		vcmpe.f32	s15, #0
 980 01b8 F1EE10FA 		vmrs	APSR_nzcv, FPSCR
 981              		.loc 1 2482 0
 982 01bc C4BF     		itt	gt
 983 01be 77EEC97A 		vsubgt.f32	s15, s15, s18
 984 01c2 C6ED007A 		vstrgt.32	s15, [r6]
 985              		.loc 1 2486 0
 986 01c6 032A     		cmp	r2, #3
 987 01c8 7FF453AF 		bne	.L143
 988              	.L75:
 989              		.loc 1 2488 0
 990 01cc 6549     		ldr	r1, .L150+52
 991              		.loc 1 2487 0
 992 01ce 86ED008A 		vstr.32	s16, [r6]
 993              		.loc 1 2488 0
 994 01d2 0022     		movs	r2, #0
 995 01d4 0A70     		strb	r2, [r1]
 996              	.LVL96:
 997              		.loc 1 2492 0
 998 01d6 D3ED417A 		vldr.32	s15, [r3, #260]
 999              		.loc 1 2488 0
 1000 01da B0EE487A 		vmov.f32	s14, s16
 1001              		.loc 1 2492 0
 1002 01de F4EEC77A 		vcmpe.f32	s15, s14
 1003 01e2 F1EE10FA 		vmrs	APSR_nzcv, FPSCR
 1004 01e6 3FF558AF 		bmi	.L144
 1005              	.L133:
 1006              		.loc 1 2497 0
 1007 01ea 99F80020 		ldrb	r2, [r9]	@ zero_extendqisi2
 1008 01ee 022A     		cmp	r2, #2
 1009              		.loc 1 2491 0
 1010 01f0 4FF00001 		mov	r1, #0
 1011              	.LVL97:
 1012              		.loc 1 2497 0
 1013 01f4 7FF463AF 		bne	.L145
 1014              	.L80:
 1015              		.loc 1 2501 0
 1016 01f8 D7ED007A 		vldr.32	s15, [r7]
 1017 01fc F5EEC07A 		vcmpe.f32	s15, #0
 1018 0200 F1EE10FA 		vmrs	APSR_nzcv, FPSCR
 1019 0204 7FF75DAF 		ble	.L81
 1020              		.loc 1 2502 0
 1021 0208 D8ED007A 		vldr.32	s15, [r8]
 1022 020c 77EEA88A 		vadd.f32	s17, s15, s17
 1023              	.LVL98:
 1024 0210 C8ED008A 		vstr.32	s17, [r8]
 1025              		.loc 1 2506 0
 1026 0214 81B1     		cbz	r1, .L83
ARM GAS  /tmp/ccDgV6Fa.s 			page 19


 1027              		.loc 1 2507 0
 1028 0216 D4ED037A 		vldr.32	s15, [r4, #12]
 1029              		.loc 1 2508 0
 1030 021a 98ED007A 		vldr.32	s14, [r8]
 1031              		.loc 1 2507 0
 1032 021e F5EEC07A 		vcmpe.f32	s15, #0
 1033              		.loc 1 2508 0
 1034 0222 DFED567A 		vldr.32	s15, .L150+76
 1035              		.loc 1 2507 0
 1036 0226 F1EE10FA 		vmrs	APSR_nzcv, FPSCR
 1037              		.loc 1 2508 0
 1038 022a CCBF     		ite	gt
 1039 022c 77EE277A 		vaddgt.f32	s15, s14, s15
 1040              		.loc 1 2510 0
 1041 0230 77EE677A 		vsuble.f32	s15, s14, s15
 1042 0234 C8ED007A 		vstr.32	s15, [r8]
 1043              	.L83:
 1044              		.loc 1 2514 0
 1045 0238 5148     		ldr	r0, .L150+80
 1046 023a FFF7FEFF 		bl	utils_norm_angle_rad
 1047              	.LVL99:
 1048              		.loc 1 2515 0
 1049 023e 494A     		ldr	r2, .L150+52
 1050              		.loc 1 2516 0
 1051 0240 D7ED007A 		vldr.32	s15, [r7]
 1052              		.loc 1 2517 0
 1053 0244 86ED008A 		vstr.32	s16, [r6]
 1054              		.loc 1 2515 0
 1055 0248 0123     		movs	r3, #1
 1056 024a 1370     		strb	r3, [r2]
 1057              		.loc 1 2524 0
 1058 024c 99F80020 		ldrb	r2, [r9]	@ zero_extendqisi2
 1059 0250 2B68     		ldr	r3, [r5]
 1060              		.loc 1 2516 0
 1061 0252 77EEC97A 		vsub.f32	s15, s15, s18
 1062              		.loc 1 2524 0
 1063 0256 022A     		cmp	r2, #2
 1064              		.loc 1 2516 0
 1065 0258 C7ED007A 		vstr.32	s15, [r7]
 1066              		.loc 1 2524 0
 1067 025c 7FF43DAF 		bne	.L87
 1068              	.L140:
 1069              	.LBB71:
 1070              		.loc 1 2525 0
 1071 0260 E26C     		ldr	r2, [r4, #76]	@ float
 1072 0262 0492     		str	r2, [sp, #16]	@ float
 1073              		.loc 1 2526 0
 1074 0264 226D     		ldr	r2, [r4, #80]	@ float
 1075 0266 0592     		str	r2, [sp, #20]	@ float
 1076              		.loc 1 2527 0
 1077 0268 E26B     		ldr	r2, [r4, #60]	@ float
 1078 026a 0692     		str	r2, [sp, #24]	@ float
 1079              		.loc 1 2528 0
 1080 026c 226C     		ldr	r2, [r4, #64]	@ float
 1081 026e 0792     		str	r2, [sp, #28]	@ float
 1082              		.loc 1 2530 0
 1083 0270 DDED066A 		vldr.32	s13, [sp, #24]
ARM GAS  /tmp/ccDgV6Fa.s 			page 20


 1084 0274 9DED067A 		vldr.32	s14, [sp, #24]
 1085 0278 DDED077A 		vldr.32	s15, [sp, #28]
 1086 027c 9DED070A 		vldr.32	s0, [sp, #28]
 1087 0280 27EE800A 		vmul.f32	s0, s15, s0
 1088 0284 A6EE870A 		vfma.f32	s0, s13, s14
 1089 0288 B5EE400A 		vcmp.f32	s0, #0
 1090 028c F1EE10FA 		vmrs	APSR_nzcv, FPSCR
 1091 0290 F1EEC08A 		vsqrt.f32	s17, s0
 1092 0294 00F12981 		bmi	.L146
 1093              	.L88:
 1094 0298 3A4A     		ldr	r2, .L150+84
 1095 029a D2ED017A 		vldr.32	s15, [r2, #4]
 1096 029e 77EEA88A 		vadd.f32	s17, s15, s17
 1097 02a2 C2ED018A 		vstr.32	s17, [r2, #4]
 1098              		.loc 1 2531 0
 1099 02a6 DDED046A 		vldr.32	s13, [sp, #16]
 1100 02aa 9DED047A 		vldr.32	s14, [sp, #16]
 1101 02ae DDED057A 		vldr.32	s15, [sp, #20]
 1102 02b2 9DED050A 		vldr.32	s0, [sp, #20]
 1103 02b6 27EE800A 		vmul.f32	s0, s15, s0
 1104 02ba A6EE870A 		vfma.f32	s0, s13, s14
 1105 02be B5EE400A 		vcmp.f32	s0, #0
 1106 02c2 F1EE10FA 		vmrs	APSR_nzcv, FPSCR
 1107 02c6 F1EEC08A 		vsqrt.f32	s17, s0
 1108 02ca 00F11381 		bmi	.L147
 1109              	.L89:
 1110 02ce D2ED027A 		vldr.32	s15, [r2, #8]
 1111 02d2 77EEA88A 		vadd.f32	s17, s15, s17
 1112 02d6 C2ED028A 		vstr.32	s17, [r2, #8]
 1113              		.loc 1 2532 0
 1114 02da 1168     		ldr	r1, [r2]
 1115 02dc 0131     		adds	r1, r1, #1
 1116 02de 1160     		str	r1, [r2]
 1117 02e0 FBE6     		b	.L87
 1118              	.LVL100:
 1119              	.L90:
 1120              	.LBE71:
 1121              	.LBB72:
 1122              	.LBB69:
 1123              	.LBB65:
 1124              	.LBB66:
 1125              		.loc 1 850 0
 1126 02e2 254B     		ldr	r3, .L150+72
 1127 02e4 DFED286A 		vldr.32	s13, .L150+88
 1128 02e8 93ED006A 		vldr.32	s12, [r3]
 1129              	.LBE66:
 1130              	.LBE65:
 1131              		.loc 1 3070 0
 1132 02ec 274A     		ldr	r2, .L150+92
 1133              		.loc 1 3073 0
 1134 02ee 2B68     		ldr	r3, [r5]
 1135              		.loc 1 3070 0
 1136 02f0 D2ED008A 		vldr.32	s17, [r2]
 1137              		.loc 1 3073 0
 1138 02f4 D2ED007A 		vldr.32	s15, [r2]
 1139 02f8 93ED577A 		vldr.32	s14, [r3, #348]
 1140              	.LBB68:
ARM GAS  /tmp/ccDgV6Fa.s 			page 21


 1141              	.LBB67:
 1142              		.loc 1 850 0
 1143 02fc C6EE26BA 		vdiv.f32	s23, s12, s13
 1144              	.LBE67:
 1145              	.LBE68:
 1146              		.loc 1 3073 0
 1147 0300 F0EEE77A 		vabs.f32	s15, s15
 1148 0304 F4EEC77A 		vcmpe.f32	s15, s14
 1149 0308 F1EE10FA 		vmrs	APSR_nzcv, FPSCR
 1150              		.loc 1 3070 0
 1151 030c 78EEEB8A 		vsub.f32	s17, s17, s23
 1152              	.LVL101:
 1153              		.loc 1 3073 0
 1154 0310 42D5     		bpl	.L135
 1155              		.loc 1 3074 0
 1156 0312 164B     		ldr	r3, .L150+60
 1157 0314 83ED008A 		vstr.32	s16, [r3]
 1158              		.loc 1 3075 0
 1159 0318 154B     		ldr	r3, .L150+64
 1160 031a C3ED008A 		vstr.32	s17, [r3]
 1161 031e FCE6     		b	.L103
 1162              	.LVL102:
 1163              	.L141:
 1164              	.LBE69:
 1165              	.LBE72:
 1166              		.loc 1 2452 0
 1167 0320 054A     		ldr	r2, .L150+8
 1168 0322 0023     		movs	r3, #0
 1169 0324 1370     		strb	r3, [r2]
 1170              	.LBE78:
 1171              		.loc 1 2542 0
 1172 0326 0BB0     		add	sp, sp, #44
 1173              		.cfi_remember_state
 1174              		.cfi_def_cfa_offset 68
 1175              		@ sp needed
 1176 0328 BDEC088B 		vldm	sp!, {d8-d11}
 1177              		.cfi_restore 86
 1178              		.cfi_restore 87
 1179              		.cfi_restore 84
 1180              		.cfi_restore 85
 1181              		.cfi_restore 82
 1182              		.cfi_restore 83
 1183              		.cfi_restore 80
 1184              		.cfi_restore 81
 1185              		.cfi_def_cfa_offset 36
 1186 032c BDE8F08F 		pop	{r4, r5, r6, r7, r8, r9, r10, fp, pc}
 1187              	.L151:
 1188              		.align	2
 1189              	.L150:
 1190 0330 00000000 		.word	ch
 1191 0334 00000000 		.word	.LC0
 1192 0338 00000000 		.word	.LANCHOR9
 1193 033c 00000000 		.word	.LANCHOR10
 1194 0340 00000000 		.word	.LANCHOR0
 1195 0344 00000000 		.word	.LANCHOR13
 1196 0348 00000000 		.word	.LANCHOR15
 1197 034c 00000000 		.word	0
ARM GAS  /tmp/ccDgV6Fa.s 			page 22


 1198 0350 DB0F4940 		.word	1078530011
 1199 0354 00007042 		.word	1114636288
 1200 0358 6F12833A 		.word	981668463
 1201 035c 17B7D138 		.word	953267991
 1202 0360 00000000 		.word	.LANCHOR16
 1203 0364 00000000 		.word	.LANCHOR6
 1204 0368 00000000 		.word	.LANCHOR18
 1205 036c 00000000 		.word	.LANCHOR19
 1206 0370 00000000 		.word	.LANCHOR20
 1207 0374 00000000 		.word	.LANCHOR11
 1208 0378 00000000 		.word	.LANCHOR12
 1209 037c DB0FC93F 		.word	1070141403
 1210 0380 00000000 		.word	.LANCHOR8
 1211 0384 00000000 		.word	.LANCHOR17
 1212 0388 5077D63D 		.word	1037465424
 1213 038c 00000000 		.word	.LANCHOR21
 1214 0390 00000000 		.word	.LANCHOR14
 1215 0394 00000000 		.word	.LANCHOR7
 1216              	.LVL103:
 1217              	.L135:
 1218              		.cfi_restore_state
 1219              	.LBB79:
 1220              	.LBB73:
 1221              	.LBB70:
 1222              		.loc 1 3080 0
 1223 0398 93ED536A 		vldr.32	s12, [r3, #332]
 1224              		.loc 1 3081 0
 1225 039c D3ED545A 		vldr.32	s11, [r3, #336]
 1226              		.loc 1 3082 0
 1227 03a0 93ED554A 		vldr.32	s8, [r3, #340]
 1228              	.LVL104:
 1229 03a4 574A     		ldr	r2, .L152
 1230              		.loc 1 3080 0
 1231 03a6 DFED584A 		vldr.32	s9, .L152+4
 1232              		.loc 1 3082 0
 1233 03aa 92ED007A 		vldr.32	s14, [r2]
 1234              		.loc 1 3086 0
 1235 03ae 574A     		ldr	r2, .L152+8
 1236              		.loc 1 3081 0
 1237 03b0 5749     		ldr	r1, .L152+12
 1238              		.loc 1 3086 0
 1239 03b2 D2ED007A 		vldr.32	s15, [r2]
 1240              		.loc 1 3081 0
 1241 03b6 91ED005A 		vldr.32	s10, [r1]
 1242              		.loc 1 3086 0
 1243 03ba D3ED563A 		vldr.32	s7, [r3, #344]
 1244              		.loc 1 3082 0
 1245 03be C4EE096A 		vdiv.f32	s13, s8, s18
 1246              		.loc 1 3080 0
 1247 03c2 0AA8     		add	r0, sp, #40
 1248              		.loc 1 3082 0
 1249 03c4 38EEC77A 		vsub.f32	s14, s17, s14
 1250              		.loc 1 3086 0
 1251 03c8 B0EE674A 		vmov.f32	s8, s15
 1252              	.LVL105:
 1253 03cc 26EEC77A 		vnmul.f32	s14, s13, s14
 1254              		.loc 1 3081 0
ARM GAS  /tmp/ccDgV6Fa.s 			page 23


 1255 03d0 65EE895A 		vmul.f32	s11, s11, s18
 1256              		.loc 1 3086 0
 1257 03d4 A7EE244A 		vfma.f32	s8, s14, s9
 1258              		.loc 1 3080 0
 1259 03d8 68EE866A 		vmul.f32	s13, s17, s12
 1260              		.loc 1 3081 0
 1261 03dc 25EEA86A 		vmul.f32	s12, s11, s17
 1262              		.loc 1 3080 0
 1263 03e0 26EEA47A 		vmul.f32	s14, s13, s9
 1264              		.loc 1 3081 0
 1265 03e4 F0EE456A 		vmov.f32	s13, s10
 1266              		.loc 1 3086 0
 1267 03e8 E3EEC47A 		vfms.f32	s15, s7, s8
 1268              		.loc 1 3081 0
 1269 03ec E6EE246A 		vfma.f32	s13, s12, s9
 1270              		.loc 1 3080 0
 1271 03f0 17EE103A 		vmov	r3, s14
 1272              		.loc 1 3090 0
 1273 03f4 F7EE000A 		vmov.f32	s1, #1.0e+0
 1274              		.loc 1 3080 0
 1275 03f8 40F8083D 		str	r3, [r0, #-8]!	@ float
 1276              		.loc 1 3090 0
 1277 03fc BFEE000A 		vmov.f32	s0, #-1.0e+0
 1278              		.loc 1 3081 0
 1279 0400 C1ED006A 		vstr.32	s13, [r1]
 1280              		.loc 1 3086 0
 1281 0404 B0EE67BA 		vmov.f32	s22, s15
 1282              	.LVL106:
 1283 0408 C2ED007A 		vstr.32	s15, [r2]
 1284              	.LVL107:
 1285              		.loc 1 3090 0
 1286 040c FFF7FEFF 		bl	utils_truncate_number
 1287              	.LVL108:
 1288              		.loc 1 3091 0
 1289 0410 3F49     		ldr	r1, .L152+12
 1290 0412 9DED087A 		vldr.32	s14, [sp, #32]
 1291 0416 D1ED007A 		vldr.32	s15, [r1]
 1292 041a 77EE277A 		vadd.f32	s15, s14, s15
 1293 041e F7EE006A 		vmov.f32	s13, #1.0e+0
 1294 0422 F4EEE67A 		vcmpe.f32	s15, s13
 1295 0426 F1EE10FA 		vmrs	APSR_nzcv, FPSCR
 1296 042a 05DD     		ble	.L94
 1297              		.loc 1 3092 0
 1298 042c 76EEC76A 		vsub.f32	s13, s13, s14
 1299 0430 77EE267A 		vadd.f32	s15, s14, s13
 1300 0434 C1ED006A 		vstr.32	s13, [r1]
 1301              	.L94:
 1302              		.loc 1 3094 0
 1303 0438 FFEE006A 		vmov.f32	s13, #-1.0e+0
 1304 043c F4EEE67A 		vcmpe.f32	s15, s13
 1305 0440 F1EE10FA 		vmrs	APSR_nzcv, FPSCR
 1306 0444 3AD4     		bmi	.L148
 1307              	.L96:
 1308              		.loc 1 3097 0
 1309 0446 F7EE000A 		vmov.f32	s1, #1.0e+0
 1310 044a BFEE000A 		vmov.f32	s0, #-1.0e+0
 1311 044e 3048     		ldr	r0, .L152+12
ARM GAS  /tmp/ccDgV6Fa.s 			page 24


 1312 0450 FFF7FEFF 		bl	utils_truncate_number
 1313              	.LVL109:
 1314              		.loc 1 3103 0
 1315 0454 2E4B     		ldr	r3, .L152+12
 1316 0456 DDED087A 		vldr.32	s15, [sp, #32]
 1317 045a 93ED007A 		vldr.32	s14, [r3]
 1318              		.loc 1 3100 0
 1319 045e 294B     		ldr	r3, .L152
 1320              		.loc 1 3103 0
 1321 0460 77EE877A 		vadd.f32	s15, s15, s14
 1322 0464 0AA8     		add	r0, sp, #40
 1323 0466 77EE8B7A 		vadd.f32	s15, s15, s22
 1324              		.loc 1 3104 0
 1325 046a F7EE000A 		vmov.f32	s1, #1.0e+0
 1326              		.loc 1 3103 0
 1327 046e 60ED017A 		vstmdb.32	r0!, {s15}
 1328              		.loc 1 3104 0
 1329 0472 BFEE000A 		vmov.f32	s0, #-1.0e+0
 1330              		.loc 1 3100 0
 1331 0476 C3ED008A 		vstr.32	s17, [r3]
 1332              		.loc 1 3104 0
 1333 047a FFF7FEFF 		bl	utils_truncate_number
 1334              	.LVL110:
 1335              		.loc 1 3107 0
 1336 047e 2B68     		ldr	r3, [r5]
 1337 0480 93F86021 		ldrb	r2, [r3, #352]	@ zero_extendqisi2
 1338 0484 82B9     		cbnz	r2, .L149
 1339              		.loc 1 3108 0
 1340 0486 B3EE047A 		vmov.f32	s14, #2.0e+1
 1341 048a F4EEC7BA 		vcmpe.f32	s23, s14
 1342 048e F1EE10FA 		vmrs	APSR_nzcv, FPSCR
 1343 0492 DDED097A 		vldr.32	s15, [sp, #36]
 1344 0496 17DD     		ble	.L100
 1345 0498 F5EEC07A 		vcmpe.f32	s15, #0
 1346 049c F1EE10FA 		vmrs	APSR_nzcv, FPSCR
 1347 04a0 12D5     		bpl	.L100
 1348              	.L108:
 1349              		.loc 1 3112 0
 1350 04a2 F0EE487A 		vmov.f32	s15, s16
 1351 04a6 01E0     		b	.L99
 1352              	.L149:
 1353 04a8 DDED097A 		vldr.32	s15, [sp, #36]
 1354              	.L99:
 1355              		.loc 1 3117 0
 1356 04ac 93ED1B7A 		vldr.32	s14, [r3, #108]
 1357 04b0 184B     		ldr	r3, .L152+16
 1358 04b2 67EE277A 		vmul.f32	s15, s14, s15
 1359 04b6 C3ED007A 		vstr.32	s15, [r3]
 1360 04ba 2EE6     		b	.L103
 1361              	.L148:
 1362              		.loc 1 3095 0
 1363 04bc 36EEC77A 		vsub.f32	s14, s13, s14
 1364 04c0 134B     		ldr	r3, .L152+12
 1365 04c2 83ED007A 		vstr.32	s14, [r3]
 1366 04c6 BEE7     		b	.L96
 1367              	.L100:
 1368              		.loc 1 3112 0
ARM GAS  /tmp/ccDgV6Fa.s 			page 25


 1369 04c8 BBEE047A 		vmov.f32	s14, #-2.0e+1
 1370 04cc F4EEC7BA 		vcmpe.f32	s23, s14
 1371 04d0 F1EE10FA 		vmrs	APSR_nzcv, FPSCR
 1372 04d4 EAD5     		bpl	.L99
 1373 04d6 F5EEC07A 		vcmpe.f32	s15, #0
 1374 04da F1EE10FA 		vmrs	APSR_nzcv, FPSCR
 1375 04de E0DC     		bgt	.L108
 1376 04e0 E4E7     		b	.L99
 1377              	.LVL111:
 1378              	.L137:
 1379              		.cfi_def_cfa_offset 0
 1380              		.cfi_restore 4
 1381              		.cfi_restore 5
 1382              		.cfi_restore 6
 1383              		.cfi_restore 7
 1384              		.cfi_restore 8
 1385              		.cfi_restore 9
 1386              		.cfi_restore 10
 1387              		.cfi_restore 11
 1388              		.cfi_restore 14
 1389              		.cfi_restore 80
 1390              		.cfi_restore 81
 1391              		.cfi_restore 82
 1392              		.cfi_restore 83
 1393              		.cfi_restore 84
 1394              		.cfi_restore 85
 1395              		.cfi_restore 86
 1396              		.cfi_restore 87
 1397              	.LBE70:
 1398              	.LBE73:
 1399              		.loc 1 2452 0
 1400 04e2 0D4A     		ldr	r2, .L152+20
 1401 04e4 0023     		movs	r3, #0
 1402 04e6 1370     		strb	r3, [r2]
 1403 04e8 7047     		bx	lr
 1404              	.LVL112:
 1405              	.L146:
 1406              		.cfi_def_cfa_offset 112
 1407              		.cfi_offset 4, -36
 1408              		.cfi_offset 5, -32
 1409              		.cfi_offset 6, -28
 1410              		.cfi_offset 7, -24
 1411              		.cfi_offset 8, -20
 1412              		.cfi_offset 9, -16
 1413              		.cfi_offset 10, -12
 1414              		.cfi_offset 11, -8
 1415              		.cfi_offset 14, -4
 1416              		.cfi_offset 80, -68
 1417              		.cfi_offset 81, -64
 1418              		.cfi_offset 82, -60
 1419              		.cfi_offset 83, -56
 1420              		.cfi_offset 84, -52
 1421              		.cfi_offset 85, -48
 1422              		.cfi_offset 86, -44
 1423              		.cfi_offset 87, -40
 1424 04ea 0093     		str	r3, [sp]
 1425              	.LBB74:
ARM GAS  /tmp/ccDgV6Fa.s 			page 26


 1426              		.loc 1 2530 0
 1427 04ec FFF7FEFF 		bl	sqrtf
 1428              	.LVL113:
 1429 04f0 009B     		ldr	r3, [sp]
 1430 04f2 D1E6     		b	.L88
 1431              	.L147:
 1432 04f4 CDE90032 		strd	r3, r2, [sp]
 1433              		.loc 1 2531 0
 1434 04f8 FFF7FEFF 		bl	sqrtf
 1435              	.LVL114:
 1436 04fc DDE90032 		ldrd	r3, r2, [sp]
 1437 0500 E5E6     		b	.L89
 1438              	.L153:
 1439 0502 00BF     		.align	2
 1440              	.L152:
 1441 0504 00000000 		.word	.LANCHOR20
 1442 0508 CDCC4C3D 		.word	1028443341
 1443 050c 00000000 		.word	.LANCHOR22
 1444 0510 00000000 		.word	.LANCHOR19
 1445 0514 00000000 		.word	.LANCHOR23
 1446 0518 00000000 		.word	.LANCHOR9
 1447              	.LBE74:
 1448              	.LBE79:
 1449              		.cfi_endproc
 1450              	.LFE319:
 1451              		.size	timer_thread, .-timer_thread
 1452              		.section	.text.mcpwm_foc_init,"ax",%progbits
 1453              		.align	1
 1454              		.p2align 4,,15
 1455              		.global	mcpwm_foc_init
 1456              		.syntax unified
 1457              		.thumb
 1458              		.thumb_func
 1459              		.fpu fpv4-sp-d16
 1460              		.type	mcpwm_foc_init, %function
 1461              	mcpwm_foc_init:
 1462              	.LFB256:
 1463              		.loc 1 200 0
 1464              		.cfi_startproc
 1465              		@ args = 0, pretend = 0, frame = 160
 1466              		@ frame_needed = 0, uses_anonymous_args = 0
 1467              	.LVL115:
 1468 0000 2DE9F04F 		push	{r4, r5, r6, r7, r8, r9, r10, fp, lr}
 1469              		.cfi_def_cfa_offset 36
 1470              		.cfi_offset 4, -36
 1471              		.cfi_offset 5, -32
 1472              		.cfi_offset 6, -28
 1473              		.cfi_offset 7, -24
 1474              		.cfi_offset 8, -20
 1475              		.cfi_offset 9, -16
 1476              		.cfi_offset 10, -12
 1477              		.cfi_offset 11, -8
 1478              		.cfi_offset 14, -4
 1479 0004 ABB0     		sub	sp, sp, #172
 1480              		.cfi_def_cfa_offset 208
 1481              		.loc 1 209 0
 1482 0006 CA4F     		ldr	r7, .L166
ARM GAS  /tmp/ccDgV6Fa.s 			page 27


 1483              		.loc 1 200 0
 1484 0008 0390     		str	r0, [sp, #12]
 1485              		.loc 1 201 0
 1486 000a FFF7FEFF 		bl	utils_sys_lock_cnt
 1487              	.LVL116:
 1488              		.loc 1 209 0
 1489 000e 0398     		ldr	r0, [sp, #12]
 1490 0010 3860     		str	r0, [r7]
 1491              		.loc 1 203 0
 1492 0012 C848     		ldr	r0, .L166+4
 1493              		.loc 1 212 0
 1494 0014 DFF8C4B3 		ldr	fp, .L166+172
 1495              		.loc 1 213 0
 1496 0018 C74A     		ldr	r2, .L166+8
 1497              		.loc 1 215 0
 1498 001a C84B     		ldr	r3, .L166+12
 1499              		.loc 1 214 0
 1500 001c DFF8C093 		ldr	r9, .L166+176
 1501              		.loc 1 216 0
 1502 0020 DFF8C0E3 		ldr	lr, .L166+180
 1503              		.loc 1 217 0
 1504 0024 DFF8C083 		ldr	r8, .L166+184
 1505              		.loc 1 220 0
 1506 0028 DFEDC57A 		vldr.32	s15, .L166+16
 1507              		.loc 1 219 0
 1508 002c DFF8BCA3 		ldr	r10, .L166+188
 1509              		.loc 1 220 0
 1510 0030 DFF8BCC3 		ldr	ip, .L166+192
 1511              		.loc 1 222 0
 1512 0034 C349     		ldr	r1, .L166+20
 1513              		.loc 1 257 0
 1514 0036 C44D     		ldr	r5, .L166+24
 1515              		.loc 1 258 0
 1516 0038 C44E     		ldr	r6, .L166+28
 1517              		.loc 1 203 0
 1518 003a 0024     		movs	r4, #0
 1519 003c 0470     		strb	r4, [r0]
 1520              		.loc 1 213 0
 1521 003e 0A20     		movs	r0, #10
 1522              		.loc 1 212 0
 1523 0040 8BF80040 		strb	r4, [fp]
 1524              		.loc 1 213 0
 1525 0044 1070     		strb	r0, [r2]
 1526              		.loc 1 214 0
 1527 0046 C9F80040 		str	r4, [r9]
 1528              		.loc 1 215 0
 1529 004a 1C60     		str	r4, [r3]
 1530              		.loc 1 218 0
 1531 004c C04B     		ldr	r3, .L166+32
 1532              		.loc 1 216 0
 1533 004e CEF80040 		str	r4, [lr]
 1534              		.loc 1 217 0
 1535 0052 C8F80040 		str	r4, [r8]
 1536              		.loc 1 218 0
 1537 0056 1C70     		strb	r4, [r3]
 1538              		.loc 1 221 0
 1539 0058 BE4B     		ldr	r3, .L166+36
ARM GAS  /tmp/ccDgV6Fa.s 			page 28


 1540              		.loc 1 223 0
 1541 005a BF4A     		ldr	r2, .L166+40
 1542              		.loc 1 224 0
 1543 005c BF48     		ldr	r0, .L166+44
 1544              		.loc 1 219 0
 1545 005e 8AF80040 		strb	r4, [r10]
 1546              		.loc 1 225 0
 1547 0062 DFF890E3 		ldr	lr, .L166+196
 1548              		.loc 1 220 0
 1549 0066 CCED007A 		vstr.32	s15, [ip]
 1550              		.loc 1 221 0
 1551 006a C3ED007A 		vstr.32	s15, [r3]
 1552              		.loc 1 226 0
 1553 006e DFF888C3 		ldr	ip, .L166+200
 1554              		.loc 1 227 0
 1555 0072 BB4B     		ldr	r3, .L166+48
 1556              		.loc 1 222 0
 1557 0074 C1ED007A 		vstr.32	s15, [r1]
 1558              		.loc 1 223 0
 1559 0078 C2ED007A 		vstr.32	s15, [r2]
 1560              		.loc 1 228 0
 1561 007c B949     		ldr	r1, .L166+52
 1562              		.loc 1 224 0
 1563 007e C0ED007A 		vstr.32	s15, [r0]
 1564              		.loc 1 229 0
 1565 0082 B94A     		ldr	r2, .L166+56
 1566              		.loc 1 230 0
 1567 0084 B948     		ldr	r0, .L166+60
 1568              		.loc 1 225 0
 1569 0086 CEED007A 		vstr.32	s15, [lr]
 1570              		.loc 1 226 0
 1571 008a 8CF80040 		strb	r4, [ip]
 1572              		.loc 1 231 0
 1573 008e DFF86CE3 		ldr	lr, .L166+204
 1574              		.loc 1 227 0
 1575 0092 C3ED007A 		vstr.32	s15, [r3]
 1576              		.loc 1 232 0
 1577 0096 DFF868C3 		ldr	ip, .L166+208
 1578              		.loc 1 233 0
 1579 009a B54B     		ldr	r3, .L166+64
 1580              		.loc 1 228 0
 1581 009c C1ED007A 		vstr.32	s15, [r1]
 1582              		.loc 1 229 0
 1583 00a0 C2ED007A 		vstr.32	s15, [r2]
 1584              		.loc 1 234 0
 1585 00a4 B349     		ldr	r1, .L166+68
 1586              		.loc 1 230 0
 1587 00a6 C0ED007A 		vstr.32	s15, [r0]
 1588              		.loc 1 235 0
 1589 00aa B34A     		ldr	r2, .L166+72
 1590              		.loc 1 238 0
 1591 00ac B348     		ldr	r0, .L166+76
 1592              		.loc 1 231 0
 1593 00ae 8EF80040 		strb	r4, [lr]
 1594              		.loc 1 232 0
 1595 00b2 CCED007A 		vstr.32	s15, [ip]
 1596              		.loc 1 239 0
ARM GAS  /tmp/ccDgV6Fa.s 			page 29


 1597 00b6 DFF84CE3 		ldr	lr, .L166+212
 1598              		.loc 1 233 0
 1599 00ba C3ED007A 		vstr.32	s15, [r3]
 1600              		.loc 1 240 0
 1601 00be DFF848C3 		ldr	ip, .L166+216
 1602              		.loc 1 236 0
 1603 00c2 AF4B     		ldr	r3, .L166+80
 1604              		.loc 1 234 0
 1605 00c4 C1ED007A 		vstr.32	s15, [r1]
 1606              		.loc 1 235 0
 1607 00c8 C2ED007A 		vstr.32	s15, [r2]
 1608              		.loc 1 237 0
 1609 00cc AD49     		ldr	r1, .L166+84
 1610              		.loc 1 238 0
 1611 00ce C0ED007A 		vstr.32	s15, [r0]
 1612              		.loc 1 241 0
 1613 00d2 AD4A     		ldr	r2, .L166+88
 1614              		.loc 1 242 0
 1615 00d4 AD48     		ldr	r0, .L166+92
 1616              		.loc 1 239 0
 1617 00d6 CEED007A 		vstr.32	s15, [lr]
 1618              		.loc 1 236 0
 1619 00da C3ED007A 		vstr.32	s15, [r3]
 1620              		.loc 1 243 0
 1621 00de DFF82CE3 		ldr	lr, .L166+220
 1622              		.loc 1 240 0
 1623 00e2 CCF80040 		str	r4, [ip]
 1624              		.loc 1 245 0
 1625 00e6 AA4B     		ldr	r3, .L166+96
 1626              		.loc 1 244 0
 1627 00e8 DFF824C3 		ldr	ip, .L166+224
 1628              		.loc 1 237 0
 1629 00ec C1ED007A 		vstr.32	s15, [r1]
 1630              		.loc 1 241 0
 1631 00f0 1460     		str	r4, [r2]
 1632              		.loc 1 246 0
 1633 00f2 2146     		mov	r1, r4
 1634              		.loc 1 242 0
 1635 00f4 C0ED007A 		vstr.32	s15, [r0]
 1636              		.loc 1 246 0
 1637 00f8 6022     		movs	r2, #96
 1638 00fa A648     		ldr	r0, .L166+100
 1639              		.loc 1 243 0
 1640 00fc CEED007A 		vstr.32	s15, [lr]
 1641              		.loc 1 244 0
 1642 0100 CCED007A 		vstr.32	s15, [ip]
 1643              		.loc 1 245 0
 1644 0104 1C70     		strb	r4, [r3]
 1645              		.loc 1 246 0
 1646 0106 FFF7FEFF 		bl	memset
 1647              	.LVL117:
 1648              		.loc 1 247 0
 1649 010a A34B     		ldr	r3, .L166+104
 1650 010c 1C60     		str	r4, [r3]
 1651 010e 5C60     		str	r4, [r3, #4]
 1652 0110 9C60     		str	r4, [r3, #8]
 1653 0112 DC60     		str	r4, [r3, #12]
ARM GAS  /tmp/ccDgV6Fa.s 			page 30


 1654 0114 1C61     		str	r4, [r3, #16]
 1655              		.loc 1 249 0
 1656 0116 FFF7FEFF 		bl	virtual_motor_init
 1657              	.LVL118:
 1658              		.loc 1 254 0
 1659 011a A04B     		ldr	r3, .L166+108
 1660              		.loc 1 257 0
 1661 011c 2846     		mov	r0, r5
 1662              		.loc 1 254 0
 1663 011e 1C60     		str	r4, [r3]
 1664              		.loc 1 257 0
 1665 0120 FFF7FEFF 		bl	TIM_DeInit
 1666              	.LVL119:
 1667              		.loc 1 258 0
 1668 0124 3046     		mov	r0, r6
 1669 0126 FFF7FEFF 		bl	TIM_DeInit
 1670              	.LVL120:
 1671              		.loc 1 263 0
 1672 012a 0121     		movs	r1, #1
 1673              		.loc 1 259 0
 1674 012c 6C62     		str	r4, [r5, #36]
 1675              		.loc 1 263 0
 1676 012e 0846     		mov	r0, r1
 1677              		.loc 1 260 0
 1678 0130 7462     		str	r4, [r6, #36]
 1679              		.loc 1 263 0
 1680 0132 FFF7FEFF 		bl	RCC_APB2PeriphClockCmd
 1681              	.LVL121:
 1682              		.loc 1 268 0
 1683 0136 3B68     		ldr	r3, [r7]
 1684 0138 994A     		ldr	r2, .L166+112
 1685 013a D3ED2D7A 		vldr.32	s15, [r3, #180]
 1686              		.loc 1 269 0
 1687 013e ADF81C40 		strh	r4, [sp, #28]	@ movhi
 1688              		.loc 1 268 0
 1689 0142 FDEEE77A 		vcvt.s32.f32	s15, s15
 1690              		.loc 1 272 0
 1691 0146 2846     		mov	r0, r5
 1692              		.loc 1 268 0
 1693 0148 17EE903A 		vmov	r3, s15	@ int
 1694              		.loc 1 272 0
 1695 014c 05A9     		add	r1, sp, #20
 1696              		.loc 1 266 0
 1697 014e 4FF40017 		mov	r7, #2097152
 1698              		.loc 1 268 0
 1699 0152 92FBF3F3 		sdiv	r3, r2, r3
 1700              		.loc 1 270 0
 1701 0156 8DF81E40 		strb	r4, [sp, #30]
 1702              		.loc 1 266 0
 1703 015a 0597     		str	r7, [sp, #20]
 1704              		.loc 1 268 0
 1705 015c 0693     		str	r3, [sp, #24]
 1706              		.loc 1 272 0
 1707 015e FFF7FEFF 		bl	TIM_TimeBaseInit
 1708              	.LVL122:
 1709              		.loc 1 278 0
 1710 0162 EB6A     		ldr	r3, [r5, #44]
ARM GAS  /tmp/ccDgV6Fa.s 			page 31


 1711              		.loc 1 275 0
 1712 0164 8F4A     		ldr	r2, .L166+116
 1713              		.loc 1 280 0
 1714 0166 904F     		ldr	r7, .L166+120
 1715              		.loc 1 275 0
 1716 0168 1092     		str	r2, [sp, #64]
 1717              		.loc 1 278 0
 1718 016a 5B08     		lsrs	r3, r3, #1
 1719              		.loc 1 284 0
 1720 016c 2846     		mov	r0, r5
 1721              		.loc 1 276 0
 1722 016e 4FF0040A 		mov	r10, #4
 1723              		.loc 1 284 0
 1724 0172 10A9     		add	r1, sp, #64
 1725              		.loc 1 279 0
 1726 0174 CDE91234 		strd	r3, r4, [sp, #72]
 1727              		.loc 1 280 0
 1728 0178 1497     		str	r7, [sp, #80]
 1729              		.loc 1 276 0
 1730 017a ADF844A0 		strh	r10, [sp, #68]	@ movhi
 1731              		.loc 1 284 0
 1732 017e FFF7FEFF 		bl	TIM_OC1Init
 1733              	.LVL123:
 1734              		.loc 1 285 0
 1735 0182 2846     		mov	r0, r5
 1736 0184 10A9     		add	r1, sp, #64
 1737 0186 FFF7FEFF 		bl	TIM_OC2Init
 1738              	.LVL124:
 1739              		.loc 1 286 0
 1740 018a 2846     		mov	r0, r5
 1741 018c 10A9     		add	r1, sp, #64
 1742 018e FFF7FEFF 		bl	TIM_OC3Init
 1743              	.LVL125:
 1744              		.loc 1 287 0
 1745 0192 2846     		mov	r0, r5
 1746 0194 10A9     		add	r1, sp, #64
 1747 0196 FFF7FEFF 		bl	TIM_OC4Init
 1748              	.LVL126:
 1749              		.loc 1 289 0
 1750 019a 2846     		mov	r0, r5
 1751 019c 0821     		movs	r1, #8
 1752 019e FFF7FEFF 		bl	TIM_OC1PreloadConfig
 1753              	.LVL127:
 1754              		.loc 1 290 0
 1755 01a2 2846     		mov	r0, r5
 1756 01a4 0821     		movs	r1, #8
 1757 01a6 FFF7FEFF 		bl	TIM_OC2PreloadConfig
 1758              	.LVL128:
 1759              		.loc 1 291 0
 1760 01aa 2846     		mov	r0, r5
 1761 01ac 0821     		movs	r1, #8
 1762 01ae FFF7FEFF 		bl	TIM_OC3PreloadConfig
 1763              	.LVL129:
 1764              		.loc 1 292 0
 1765 01b2 2846     		mov	r0, r5
 1766 01b4 0821     		movs	r1, #8
 1767 01b6 FFF7FEFF 		bl	TIM_OC4PreloadConfig
ARM GAS  /tmp/ccDgV6Fa.s 			page 32


 1768              	.LVL130:
 1769              		.loc 1 298 0
 1770 01ba DFED7C0A 		vldr.32	s1, .L166+124
 1771 01be 9FED7C0A 		vldr.32	s0, .L166+128
 1772              		.loc 1 295 0
 1773 01c2 7C4B     		ldr	r3, .L166+132
 1774 01c4 0893     		str	r3, [sp, #32]
 1775              		.loc 1 296 0
 1776 01c6 ADF82440 		strh	r4, [sp, #36]	@ movhi
 1777              		.loc 1 298 0
 1778 01ca FFF7FEFF 		bl	conf_general_calculate_deadtime
 1779              	.LVL131:
 1780              		.loc 1 299 0
 1781 01ce 4FF0005B 		mov	fp, #536870912
 1782              		.loc 1 298 0
 1783 01d2 ADF82600 		strh	r0, [sp, #38]	@ movhi
 1784              		.loc 1 303 0
 1785 01d6 08A9     		add	r1, sp, #32
 1786 01d8 2846     		mov	r0, r5
 1787              		.loc 1 300 0
 1788 01da ADF82C40 		strh	r4, [sp, #44]	@ movhi
 1789              		.loc 1 299 0
 1790 01de CDF828B0 		str	fp, [sp, #40]
 1791              		.loc 1 303 0
 1792 01e2 FFF7FEFF 		bl	TIM_BDTRConfig
 1793              	.LVL132:
 1794              		.loc 1 304 0
 1795 01e6 2846     		mov	r0, r5
 1796 01e8 0121     		movs	r1, #1
 1797 01ea FFF7FEFF 		bl	TIM_CCPreloadControl
 1798              	.LVL133:
 1799              		.loc 1 305 0
 1800 01ee 2846     		mov	r0, r5
 1801 01f0 0121     		movs	r1, #1
 1802 01f2 FFF7FEFF 		bl	TIM_ARRPreloadConfig
 1803              	.LVL134:
 1804              		.loc 1 315 0
 1805 01f6 0121     		movs	r1, #1
 1806 01f8 6F48     		ldr	r0, .L166+136
 1807 01fa FFF7FEFF 		bl	RCC_AHB1PeriphClockCmd
 1808              	.LVL135:
 1809              		.loc 1 316 0
 1810 01fe 0121     		movs	r1, #1
 1811 0200 4FF4E060 		mov	r0, #1792
 1812 0204 FFF7FEFF 		bl	RCC_APB2PeriphClockCmd
 1813              	.LVL136:
 1814              		.loc 1 318 0
 1815 0208 2346     		mov	r3, r4
 1816 020a 5146     		mov	r1, r10
 1817 020c 6B4A     		ldr	r2, .L166+140
 1818 020e 6C48     		ldr	r0, .L166+144
 1819 0210 FFF7FEFF 		bl	dmaStreamAllocate
 1820              	.LVL137:
 1821              		.loc 1 325 0
 1822 0214 6B4A     		ldr	r2, .L166+148
 1823              		.loc 1 326 0
 1824 0216 6C4B     		ldr	r3, .L166+152
ARM GAS  /tmp/ccDgV6Fa.s 			page 33


 1825              		.loc 1 325 0
 1826 0218 1D92     		str	r2, [sp, #116]
 1827              		.loc 1 328 0
 1828 021a 0F21     		movs	r1, #15
 1829              		.loc 1 330 0
 1830 021c 4FF48062 		mov	r2, #1024
 1831              		.loc 1 326 0
 1832 0220 1C93     		str	r3, [sp, #112]
 1833              		.loc 1 328 0
 1834 0222 1F91     		str	r1, [sp, #124]
 1835              		.loc 1 331 0
 1836 0224 4FF40063 		mov	r3, #2048
 1837              		.loc 1 332 0
 1838 0228 4FF40051 		mov	r1, #8192
 1839              		.loc 1 339 0
 1840 022c 6748     		ldr	r0, .L166+156
 1841              		.loc 1 330 0
 1842 022e 2192     		str	r2, [sp, #132]
 1843              		.loc 1 331 0
 1844 0230 2293     		str	r3, [sp, #136]
 1845              		.loc 1 333 0
 1846 0232 4FF48072 		mov	r2, #256
 1847              		.loc 1 334 0
 1848 0236 4FF40033 		mov	r3, #131072
 1849              		.loc 1 332 0
 1850 023a 2391     		str	r1, [sp, #140]
 1851              		.loc 1 339 0
 1852 023c 1BA9     		add	r1, sp, #108
 1853              		.loc 1 334 0
 1854 023e CDE92423 		strd	r2, r3, [sp, #144]
 1855              		.loc 1 324 0
 1856 0242 1B94     		str	r4, [sp, #108]
 1857              		.loc 1 327 0
 1858 0244 1E94     		str	r4, [sp, #120]
 1859              		.loc 1 329 0
 1860 0246 2094     		str	r4, [sp, #128]
 1861              		.loc 1 336 0
 1862 0248 CDE92644 		strd	r4, r4, [sp, #152]
 1863              		.loc 1 338 0
 1864 024c CDE92844 		strd	r4, r4, [sp, #160]
 1865              		.loc 1 339 0
 1866 0250 FFF7FEFF 		bl	DMA_Init
 1867              	.LVL138:
 1868              		.loc 1 342 0
 1869 0254 0121     		movs	r1, #1
 1870 0256 5D48     		ldr	r0, .L166+156
 1871 0258 FFF7FEFF 		bl	DMA_Cmd
 1872              	.LVL139:
 1873              		.loc 1 345 0
 1874 025c 1021     		movs	r1, #16
 1875 025e 0122     		movs	r2, #1
 1876 0260 5A48     		ldr	r0, .L166+156
 1877 0262 FFF7FEFF 		bl	DMA_ITConfig
 1878              	.LVL140:
 1879              		.loc 1 350 0
 1880 0266 1622     		movs	r2, #22
 1881              		.loc 1 352 0
ARM GAS  /tmp/ccDgV6Fa.s 			page 34


 1882 0268 4FF48043 		mov	r3, #16384
 1883              		.loc 1 354 0
 1884 026c 0CA8     		add	r0, sp, #48
 1885              		.loc 1 358 0
 1886 026e 0127     		movs	r7, #1
 1887              		.loc 1 351 0
 1888 0270 0D94     		str	r4, [sp, #52]
 1889              		.loc 1 353 0
 1890 0272 0F94     		str	r4, [sp, #60]
 1891              		.loc 1 350 0
 1892 0274 0C92     		str	r2, [sp, #48]
 1893              		.loc 1 352 0
 1894 0276 0E93     		str	r3, [sp, #56]
 1895              		.loc 1 354 0
 1896 0278 FFF7FEFF 		bl	ADC_CommonInit
 1897              	.LVL141:
 1898              		.loc 1 363 0
 1899 027c 0523     		movs	r3, #5
 1900              		.loc 1 361 0
 1901 027e 4FF05062 		mov	r2, #218103808
 1902              		.loc 1 365 0
 1903 0282 15A9     		add	r1, sp, #84
 1904 0284 5248     		ldr	r0, .L166+160
 1905              		.loc 1 363 0
 1906 0286 8DF86830 		strb	r3, [sp, #104]
 1907 028a 0393     		str	r3, [sp, #12]
 1908              	.LVL142:
 1909              		.loc 1 361 0
 1910 028c 1892     		str	r2, [sp, #96]
 1911              		.loc 1 357 0
 1912 028e 1594     		str	r4, [sp, #84]
 1913              		.loc 1 359 0
 1914 0290 8DF85940 		strb	r4, [sp, #89]
 1915              		.loc 1 362 0
 1916 0294 1994     		str	r4, [sp, #100]
 1917              		.loc 1 360 0
 1918 0296 CDF85CB0 		str	fp, [sp, #92]
 1919              		.loc 1 358 0
 1920 029a 8DF85870 		strb	r7, [sp, #88]
 1921              		.loc 1 365 0
 1922 029e FFF7FEFF 		bl	ADC_Init
 1923              	.LVL143:
 1924              		.loc 1 368 0
 1925 02a2 15A9     		add	r1, sp, #84
 1926 02a4 4B48     		ldr	r0, .L166+164
 1927              		.loc 1 367 0
 1928 02a6 CDE91744 		strd	r4, r4, [sp, #92]
 1929              		.loc 1 368 0
 1930 02aa FFF7FEFF 		bl	ADC_Init
 1931              	.LVL144:
 1932              		.loc 1 369 0
 1933 02ae 15A9     		add	r1, sp, #84
 1934 02b0 4948     		ldr	r0, .L166+168
 1935 02b2 FFF7FEFF 		bl	ADC_Init
 1936              	.LVL145:
 1937              		.loc 1 372 0
 1938 02b6 3846     		mov	r0, r7
ARM GAS  /tmp/ccDgV6Fa.s 			page 35


 1939 02b8 FFF7FEFF 		bl	ADC_TempSensorVrefintCmd
 1940              	.LVL146:
 1941              		.loc 1 375 0
 1942 02bc 3846     		mov	r0, r7
 1943 02be FFF7FEFF 		bl	ADC_MultiModeDMARequestAfterLastTransferCmd
 1944              	.LVL147:
 1945              		.loc 1 377 0
 1946 02c2 FFF7FEFF 		bl	hw_setup_adc_channels
 1947              	.LVL148:
 1948              		.loc 1 380 0
 1949 02c6 3946     		mov	r1, r7
 1950 02c8 4148     		ldr	r0, .L166+160
 1951 02ca FFF7FEFF 		bl	ADC_Cmd
 1952              	.LVL149:
 1953              		.loc 1 383 0
 1954 02ce 3946     		mov	r1, r7
 1955 02d0 4048     		ldr	r0, .L166+164
 1956 02d2 FFF7FEFF 		bl	ADC_Cmd
 1957              	.LVL150:
 1958              		.loc 1 386 0
 1959 02d6 3946     		mov	r1, r7
 1960 02d8 3F48     		ldr	r0, .L166+168
 1961 02da FFF7FEFF 		bl	ADC_Cmd
 1962              	.LVL151:
 1963              		.loc 1 390 0
 1964 02de 3946     		mov	r1, r7
 1965 02e0 0220     		movs	r0, #2
 1966 02e2 FFF7FEFF 		bl	RCC_APB2PeriphClockCmd
 1967              	.LVL152:
 1968              		.loc 1 393 0
 1969 02e6 4FF6FF72 		movw	r2, #65535
 1970              		.loc 1 397 0
 1971 02ea 05A9     		add	r1, sp, #20
 1972 02ec 3046     		mov	r0, r6
 1973              		.loc 1 392 0
 1974 02ee 0594     		str	r4, [sp, #20]
 1975              		.loc 1 394 0
 1976 02f0 ADF81C40 		strh	r4, [sp, #28]	@ movhi
 1977              		.loc 1 395 0
 1978 02f4 8DF81E40 		strb	r4, [sp, #30]
 1979              		.loc 1 393 0
 1980 02f8 0692     		str	r2, [sp, #24]
 1981              		.loc 1 397 0
 1982 02fa FFF7FEFF 		bl	TIM_TimeBaseInit
 1983              	.LVL153:
 1984              		.loc 1 399 0
 1985 02fe 294B     		ldr	r3, .L166+116
 1986 0300 1093     		str	r3, [sp, #64]
 1987              		.loc 1 401 0
 1988 0302 4FF4FA72 		mov	r2, #500
 1989              		.loc 1 403 0
 1990 0306 284B     		ldr	r3, .L166+120
 1991 0308 1493     		str	r3, [sp, #80]
 1992              		.loc 1 406 0
 1993 030a 10A9     		add	r1, sp, #64
 1994 030c 3046     		mov	r0, r6
 1995              		.loc 1 401 0
ARM GAS  /tmp/ccDgV6Fa.s 			page 36


 1996 030e 1292     		str	r2, [sp, #72]
 1997 0310 1394     		str	r4, [sp, #76]
 1998              		.loc 1 406 0
 1999 0312 FFF7FEFF 		bl	TIM_OC1Init
 2000              	.LVL154:
 2001              		.loc 1 407 0
 2002 0316 3046     		mov	r0, r6
 2003 0318 0821     		movs	r1, #8
 2004 031a FFF7FEFF 		bl	TIM_OC1PreloadConfig
 2005              	.LVL155:
 2006              		.loc 1 408 0
 2007 031e 10A9     		add	r1, sp, #64
 2008 0320 3046     		mov	r0, r6
 2009 0322 FFF7FEFF 		bl	TIM_OC2Init
 2010              	.LVL156:
 2011              		.loc 1 409 0
 2012 0326 3046     		mov	r0, r6
 2013 0328 0821     		movs	r1, #8
 2014 032a FFF7FEFF 		bl	TIM_OC2PreloadConfig
 2015              	.LVL157:
 2016 032e 71E0     		b	.L167
 2017              	.L168:
 2018              		.align	2
 2019              	.L166:
 2020 0330 00000000 		.word	.LANCHOR0
 2021 0334 00000000 		.word	.LANCHOR24
 2022 0338 00000000 		.word	.LANCHOR14
 2023 033c 00000000 		.word	.LANCHOR26
 2024 0340 00000000 		.word	0
 2025 0344 00000000 		.word	.LANCHOR33
 2026 0348 00000140 		.word	1073807360
 2027 034c 00040140 		.word	1073808384
 2028 0350 00000000 		.word	.LANCHOR29
 2029 0354 00000000 		.word	.LANCHOR32
 2030 0358 00000000 		.word	.LANCHOR23
 2031 035c 00000000 		.word	.LANCHOR34
 2032 0360 00000000 		.word	.LANCHOR36
 2033 0364 00000000 		.word	.LANCHOR21
 2034 0368 00000000 		.word	.LANCHOR16
 2035 036c 00000000 		.word	.LANCHOR8
 2036 0370 00000000 		.word	.LANCHOR11
 2037 0374 00000000 		.word	.LANCHOR38
 2038 0378 00000000 		.word	.LANCHOR39
 2039 037c 00000000 		.word	.LANCHOR42
 2040 0380 00000000 		.word	.LANCHOR40
 2041 0384 00000000 		.word	.LANCHOR41
 2042 0388 00000000 		.word	.LANCHOR44
 2043 038c 00000000 		.word	.LANCHOR45
 2044 0390 00000000 		.word	.LANCHOR1
 2045 0394 00000000 		.word	.LANCHOR10
 2046 0398 00000000 		.word	.LANCHOR17
 2047 039c 00000000 		.word	.LANCHOR47
 2048 03a0 007A030A 		.word	168000000
 2049 03a4 60000100 		.word	65632
 2050 03a8 00010002 		.word	33554688
 2051 03ac A037204D 		.word	1293957024
 2052 03b0 0000C843 		.word	1137180672
ARM GAS  /tmp/ccDgV6Fa.s 			page 37


 2053 03b4 00080004 		.word	67110912
 2054 03b8 05004000 		.word	4194309
 2055 03bc 00000000 		.word	mcpwm_foc_adc_int_handler
 2056 03c0 90000000 		.word	_stm32_dma_streams+144
 2057 03c4 00000000 		.word	ADC_Value
 2058 03c8 08230140 		.word	1073816328
 2059 03cc 70640240 		.word	1073898608
 2060 03d0 00200140 		.word	1073815552
 2061 03d4 00210140 		.word	1073815808
 2062 03d8 00220140 		.word	1073816064
 2063 03dc 00000000 		.word	.LANCHOR7
 2064 03e0 00000000 		.word	.LANCHOR25
 2065 03e4 00000000 		.word	.LANCHOR27
 2066 03e8 00000000 		.word	.LANCHOR28
 2067 03ec 00000000 		.word	.LANCHOR30
 2068 03f0 00000000 		.word	.LANCHOR31
 2069 03f4 00000000 		.word	.LANCHOR35
 2070 03f8 00000000 		.word	.LANCHOR2
 2071 03fc 00000000 		.word	.LANCHOR6
 2072 0400 00000000 		.word	.LANCHOR37
 2073 0404 00000000 		.word	.LANCHOR12
 2074 0408 00000000 		.word	.LANCHOR43
 2075 040c 00000000 		.word	.LANCHOR46
 2076 0410 00000000 		.word	.LANCHOR18
 2077              	.L167:
 2078              		.loc 1 410 0
 2079 0414 10A9     		add	r1, sp, #64
 2080 0416 3046     		mov	r0, r6
 2081 0418 FFF7FEFF 		bl	TIM_OC3Init
 2082              	.LVL158:
 2083              		.loc 1 411 0
 2084 041c 3046     		mov	r0, r6
 2085 041e 0821     		movs	r1, #8
 2086 0420 FFF7FEFF 		bl	TIM_OC3PreloadConfig
 2087              	.LVL159:
 2088              		.loc 1 413 0
 2089 0424 3946     		mov	r1, r7
 2090 0426 3046     		mov	r0, r6
 2091 0428 FFF7FEFF 		bl	TIM_ARRPreloadConfig
 2092              	.LVL160:
 2093              		.loc 1 414 0
 2094 042c 3946     		mov	r1, r7
 2095 042e 3046     		mov	r0, r6
 2096 0430 FFF7FEFF 		bl	TIM_CCPreloadControl
 2097              	.LVL161:
 2098              		.loc 1 417 0
 2099 0434 3946     		mov	r1, r7
 2100 0436 3046     		mov	r0, r6
 2101 0438 FFF7FEFF 		bl	TIM_CtrlPWMOutputs
 2102              	.LVL162:
 2103              		.loc 1 420 0
 2104 043c 2846     		mov	r0, r5
 2105 043e 2021     		movs	r1, #32
 2106 0440 FFF7FEFF 		bl	TIM_SelectOutputTrigger
 2107              	.LVL163:
 2108              		.loc 1 421 0
 2109 0444 2846     		mov	r0, r5
ARM GAS  /tmp/ccDgV6Fa.s 			page 38


 2110 0446 8021     		movs	r1, #128
 2111 0448 FFF7FEFF 		bl	TIM_SelectMasterSlaveMode
 2112              	.LVL164:
 2113              		.loc 1 422 0
 2114 044c 2146     		mov	r1, r4
 2115 044e 3046     		mov	r0, r6
 2116 0450 FFF7FEFF 		bl	TIM_SelectInputTrigger
 2117              	.LVL165:
 2118              		.loc 1 423 0
 2119 0454 5146     		mov	r1, r10
 2120 0456 3046     		mov	r0, r6
 2121 0458 FFF7FEFF 		bl	TIM_SelectSlaveMode
 2122              	.LVL166:
 2123              		.loc 1 426 0
 2124 045c 2846     		mov	r0, r5
 2125 045e 3946     		mov	r1, r7
 2126 0460 FFF7FEFF 		bl	TIM_Cmd
 2127              	.LVL167:
 2128              		.loc 1 427 0
 2129 0464 3946     		mov	r1, r7
 2130 0466 3046     		mov	r0, r6
 2131 0468 FFF7FEFF 		bl	TIM_Cmd
 2132              	.LVL168:
 2133              		.loc 1 430 0
 2134 046c 2846     		mov	r0, r5
 2135 046e 3946     		mov	r1, r7
 2136 0470 FFF7FEFF 		bl	TIM_CtrlPWMOutputs
 2137              	.LVL169:
 2138              		.loc 1 433 0
 2139 0474 FFF7FEFF 		bl	stop_pwm_hw
 2140              	.LVL170:
 2141              		.loc 1 437 0
 2142 0478 039B     		ldr	r3, [sp, #12]
 2143 047a 7363     		str	r3, [r6, #52]
 2144              		.loc 1 440 0
 2145 047c 3A46     		mov	r2, r7
 2146 047e 3046     		mov	r0, r6
 2147 0480 0221     		movs	r1, #2
 2148 0482 FFF7FEFF 		bl	TIM_ITConfig
 2149              	.LVL171:
 2150              		.loc 1 441 0
 2151 0486 0621     		movs	r1, #6
 2152 0488 2E20     		movs	r0, #46
 2153 048a FFF7FEFF 		bl	nvicEnableVector
 2154              	.LVL172:
 2155              		.loc 1 443 0
 2156 048e FFF7FEFF 		bl	utils_sys_unlock_cnt
 2157              	.LVL173:
 2158              		.loc 1 448 0
 2159 0492 2D4A     		ldr	r2, .L169
 2160 0494 2023     		movs	r3, #32
 2161 0496 1383     		strh	r3, [r2, #24]	@ movhi
 2162              		.loc 1 449 0
 2163 0498 FFF7FEFF 		bl	drv8350_dccal_off
 2164              	.LVL174:
 2165              	.LBB82:
 2166              	.LBB83:
ARM GAS  /tmp/ccDgV6Fa.s 			page 39


 2167              		.loc 1 2549 0
 2168 049c 05F58235 		add	r5, r5, #66560
 2169              		.loc 1 2545 0
 2170 04a0 FFF7FEFF 		bl	drv8350_dccal_on
 2171              	.LVL175:
 2172 04a4 41F28934 		movw	r4, #5001
 2173 04a8 03E0     		b	.L155
 2174              	.LVL176:
 2175              	.L157:
 2176              		.loc 1 2550 0
 2177 04aa FFF7FEFF 		bl	chThdSleep
 2178              	.LVL177:
 2179              		.loc 1 2552 0
 2180 04ae 013C     		subs	r4, r4, #1
 2181              	.LVL178:
 2182 04b0 04D0     		beq	.L158
 2183              	.LVL179:
 2184              	.L155:
 2185              		.loc 1 2549 0
 2186 04b2 2B69     		ldr	r3, [r5, #16]
 2187 04b4 1B06     		lsls	r3, r3, #24
 2188              		.loc 1 2550 0
 2189 04b6 4FF00A00 		mov	r0, #10
 2190              		.loc 1 2549 0
 2191 04ba F6D5     		bpl	.L157
 2192              	.LVL180:
 2193              	.L158:
 2194              		.loc 1 2557 0
 2195 04bc 42F21070 		movw	r0, #10000
 2196 04c0 FFF7FEFF 		bl	chThdSleep
 2197              	.LVL181:
 2198              		.loc 1 2559 0
 2199 04c4 214A     		ldr	r2, .L169+4
 2200              		.loc 1 2558 0
 2201 04c6 0023     		movs	r3, #0
 2202 04c8 C9F80030 		str	r3, [r9]
 2203              		.loc 1 2559 0
 2204 04cc 1360     		str	r3, [r2]
 2205              		.loc 1 2561 0
 2206 04ce 204A     		ldr	r2, .L169+8
 2207 04d0 1360     		str	r3, [r2]
 2208              		.loc 1 2563 0
 2209 04d2 C8F80030 		str	r3, [r8]
 2210              	.L156:
 2211              		.loc 1 2564 0
 2212 04d6 D8F80030 		ldr	r3, [r8]
 2213 04da B3F57A6F 		cmp	r3, #4000
 2214 04de FADB     		blt	.L156
 2215              		.loc 1 2565 0
 2216 04e0 1C4A     		ldr	r2, .L169+12
 2217 04e2 D9F80030 		ldr	r3, [r9]
 2218 04e6 D8F80010 		ldr	r1, [r8]
 2219 04ea 93FBF1F3 		sdiv	r3, r3, r1
 2220              		.loc 1 2566 0
 2221 04ee 1A49     		ldr	r1, .L169+16
 2222              		.loc 1 2565 0
 2223 04f0 1360     		str	r3, [r2]
ARM GAS  /tmp/ccDgV6Fa.s 			page 40


 2224              		.loc 1 2566 0
 2225 04f2 164B     		ldr	r3, .L169+4
 2226              		.loc 1 2568 0
 2227 04f4 194A     		ldr	r2, .L169+20
 2228              		.loc 1 2566 0
 2229 04f6 1B68     		ldr	r3, [r3]
 2230 04f8 D8F80000 		ldr	r0, [r8]
 2231 04fc 93FBF0F3 		sdiv	r3, r3, r0
 2232 0500 0B60     		str	r3, [r1]
 2233              		.loc 1 2568 0
 2234 0502 134B     		ldr	r3, .L169+8
 2235              	.LBE83:
 2236              	.LBE82:
 2237              		.loc 1 453 0
 2238 0504 164D     		ldr	r5, .L169+24
 2239              	.LBB87:
 2240              	.LBB84:
 2241              		.loc 1 2571 0
 2242 0506 174E     		ldr	r6, .L169+28
 2243              		.loc 1 2568 0
 2244 0508 1B68     		ldr	r3, [r3]
 2245 050a D8F80010 		ldr	r1, [r8]
 2246 050e 93FBF1F3 		sdiv	r3, r3, r1
 2247              	.LBE84:
 2248              	.LBE87:
 2249              		.loc 1 453 0
 2250 0512 0024     		movs	r4, #0
 2251              	.LBB88:
 2252              	.LBB85:
 2253              		.loc 1 2568 0
 2254 0514 1360     		str	r3, [r2]
 2255              		.loc 1 2570 0
 2256 0516 FFF7FEFF 		bl	drv8350_dccal_off
 2257              	.LVL182:
 2258              		.loc 1 2571 0
 2259 051a 0121     		movs	r1, #1
 2260              	.LBE85:
 2261              	.LBE88:
 2262              		.loc 1 454 0
 2263 051c 0094     		str	r4, [sp]
 2264 051e 124B     		ldr	r3, .L169+32
 2265              	.LBB89:
 2266              	.LBB86:
 2267              		.loc 1 2571 0
 2268 0520 3170     		strb	r1, [r6]
 2269              	.LBE86:
 2270              	.LBE89:
 2271              		.loc 1 454 0
 2272 0522 4022     		movs	r2, #64
 2273 0524 40F69811 		movw	r1, #2456
 2274 0528 1048     		ldr	r0, .L169+36
 2275              		.loc 1 453 0
 2276 052a 2C70     		strb	r4, [r5]
 2277              		.loc 1 454 0
 2278 052c FFF7FEFF 		bl	chThdCreateStatic
 2279              	.LVL183:
 2280              		.loc 1 457 0
ARM GAS  /tmp/ccDgV6Fa.s 			page 41


 2281 0530 FFF7FEFF 		bl	timeout_had_IWDG_reset
 2282              	.LVL184:
 2283 0534 10B1     		cbz	r0, .L159
 2284              		.loc 1 458 0
 2285 0536 0A20     		movs	r0, #10
 2286 0538 FFF7FEFF 		bl	mc_interface_fault_stop
 2287              	.LVL185:
 2288              	.L159:
 2289              		.loc 1 461 0
 2290 053c 0C4A     		ldr	r2, .L169+40
 2291 053e 0123     		movs	r3, #1
 2292 0540 1370     		strb	r3, [r2]
 2293              		.loc 1 462 0
 2294 0542 2BB0     		add	sp, sp, #172
 2295              		.cfi_def_cfa_offset 36
 2296              		@ sp needed
 2297 0544 BDE8F08F 		pop	{r4, r5, r6, r7, r8, r9, r10, fp, pc}
 2298              	.L170:
 2299              		.align	2
 2300              	.L169:
 2301 0548 00040240 		.word	1073873920
 2302 054c 00000000 		.word	.LANCHOR26
 2303 0550 00000000 		.word	.LANCHOR47
 2304 0554 00000000 		.word	.LANCHOR48
 2305 0558 00000000 		.word	.LANCHOR49
 2306 055c 00000000 		.word	.LANCHOR50
 2307 0560 00000000 		.word	.LANCHOR9
 2308 0564 00000000 		.word	.LANCHOR29
 2309 0568 00000000 		.word	timer_thread
 2310 056c 00000000 		.word	.LANCHOR51
 2311 0570 00000000 		.word	.LANCHOR24
 2312              		.cfi_endproc
 2313              	.LFE256:
 2314              		.size	mcpwm_foc_init, .-mcpwm_foc_init
 2315              		.section	.text.mcpwm_foc_deinit,"ax",%progbits
 2316              		.align	1
 2317              		.p2align 4,,15
 2318              		.global	mcpwm_foc_deinit
 2319              		.syntax unified
 2320              		.thumb
 2321              		.thumb_func
 2322              		.fpu fpv4-sp-d16
 2323              		.type	mcpwm_foc_deinit, %function
 2324              	mcpwm_foc_deinit:
 2325              	.LFB257:
 2326              		.loc 1 464 0
 2327              		.cfi_startproc
 2328              		@ args = 0, pretend = 0, frame = 0
 2329              		@ frame_needed = 0, uses_anonymous_args = 0
 2330              		.loc 1 465 0
 2331 0000 124B     		ldr	r3, .L182
 2332 0002 1A78     		ldrb	r2, [r3]	@ zero_extendqisi2
 2333 0004 02B3     		cbz	r2, .L171
 2334              		.loc 1 464 0
 2335 0006 10B5     		push	{r4, lr}
 2336              		.cfi_def_cfa_offset 8
 2337              		.cfi_offset 4, -8
ARM GAS  /tmp/ccDgV6Fa.s 			page 42


 2338              		.cfi_offset 14, -4
 2339              		.loc 1 471 0
 2340 0008 114C     		ldr	r4, .L182+4
 2341              		.loc 1 469 0
 2342 000a 0021     		movs	r1, #0
 2343              		.loc 1 471 0
 2344 000c 0122     		movs	r2, #1
 2345              		.loc 1 469 0
 2346 000e 1970     		strb	r1, [r3]
 2347              		.loc 1 471 0
 2348 0010 2270     		strb	r2, [r4]
 2349              		.loc 1 473 0
 2350 0012 2378     		ldrb	r3, [r4]	@ zero_extendqisi2
 2351 0014 2BB1     		cbz	r3, .L173
 2352              	.L174:
 2353              		.loc 1 474 0
 2354 0016 0A20     		movs	r0, #10
 2355 0018 FFF7FEFF 		bl	chThdSleep
 2356              	.LVL186:
 2357              		.loc 1 473 0
 2358 001c 2378     		ldrb	r3, [r4]	@ zero_extendqisi2
 2359 001e 002B     		cmp	r3, #0
 2360 0020 F9D1     		bne	.L174
 2361              	.L173:
 2362              		.loc 1 477 0
 2363 0022 0C48     		ldr	r0, .L182+8
 2364 0024 FFF7FEFF 		bl	TIM_DeInit
 2365              	.LVL187:
 2366              		.loc 1 478 0
 2367 0028 0B48     		ldr	r0, .L182+12
 2368 002a FFF7FEFF 		bl	TIM_DeInit
 2369              	.LVL188:
 2370              		.loc 1 479 0
 2371 002e FFF7FEFF 		bl	ADC_DeInit
 2372              	.LVL189:
 2373              		.loc 1 480 0
 2374 0032 0A48     		ldr	r0, .L182+16
 2375 0034 FFF7FEFF 		bl	DMA_DeInit
 2376              	.LVL190:
 2377              		.loc 1 481 0
 2378 0038 1220     		movs	r0, #18
 2379 003a FFF7FEFF 		bl	nvicDisableVector
 2380              	.LVL191:
 2381              		.loc 1 482 0
 2382 003e 0848     		ldr	r0, .L182+20
 2383              		.loc 1 483 0
 2384 0040 BDE81040 		pop	{r4, lr}
 2385              		.cfi_restore 14
 2386              		.cfi_restore 4
 2387              		.cfi_def_cfa_offset 0
 2388              		.loc 1 482 0
 2389 0044 FFF7FEBF 		b	dmaStreamRelease
 2390              	.LVL192:
 2391              	.L171:
 2392 0048 7047     		bx	lr
 2393              	.L183:
 2394 004a 00BF     		.align	2
ARM GAS  /tmp/ccDgV6Fa.s 			page 43


 2395              	.L182:
 2396 004c 00000000 		.word	.LANCHOR24
 2397 0050 00000000 		.word	.LANCHOR9
 2398 0054 00000140 		.word	1073807360
 2399 0058 00040140 		.word	1073808384
 2400 005c 70640240 		.word	1073898608
 2401 0060 90000000 		.word	_stm32_dma_streams+144
 2402              		.cfi_endproc
 2403              	.LFE257:
 2404              		.size	mcpwm_foc_deinit, .-mcpwm_foc_deinit
 2405              		.section	.text.mcpwm_foc_init_done,"ax",%progbits
 2406              		.align	1
 2407              		.p2align 4,,15
 2408              		.global	mcpwm_foc_init_done
 2409              		.syntax unified
 2410              		.thumb
 2411              		.thumb_func
 2412              		.fpu fpv4-sp-d16
 2413              		.type	mcpwm_foc_init_done, %function
 2414              	mcpwm_foc_init_done:
 2415              	.LFB258:
 2416              		.loc 1 485 0
 2417              		.cfi_startproc
 2418              		@ args = 0, pretend = 0, frame = 0
 2419              		@ frame_needed = 0, uses_anonymous_args = 0
 2420              		@ link register save eliminated.
 2421              		.loc 1 486 0
 2422 0000 014B     		ldr	r3, .L185
 2423 0002 1878     		ldrb	r0, [r3]	@ zero_extendqisi2
 2424              		.loc 1 487 0
 2425 0004 7047     		bx	lr
 2426              	.L186:
 2427 0006 00BF     		.align	2
 2428              	.L185:
 2429 0008 00000000 		.word	.LANCHOR24
 2430              		.cfi_endproc
 2431              	.LFE258:
 2432              		.size	mcpwm_foc_init_done, .-mcpwm_foc_init_done
 2433              		.section	.text.mcpwm_foc_set_configuration,"ax",%progbits
 2434              		.align	1
 2435              		.p2align 4,,15
 2436              		.global	mcpwm_foc_set_configuration
 2437              		.syntax unified
 2438              		.thumb
 2439              		.thumb_func
 2440              		.fpu fpv4-sp-d16
 2441              		.type	mcpwm_foc_set_configuration, %function
 2442              	mcpwm_foc_set_configuration:
 2443              	.LFB259:
 2444              		.loc 1 489 0
 2445              		.cfi_startproc
 2446              		@ args = 0, pretend = 0, frame = 0
 2447              		@ frame_needed = 0, uses_anonymous_args = 0
 2448              	.LVL193:
 2449              		.loc 1 492 0
 2450 0000 D0ED2D7A 		vldr.32	s15, [r0, #180]
 2451              		.loc 1 489 0
ARM GAS  /tmp/ccDgV6Fa.s 			page 44


 2452 0004 38B5     		push	{r3, r4, r5, lr}
 2453              		.cfi_def_cfa_offset 16
 2454              		.cfi_offset 3, -16
 2455              		.cfi_offset 4, -12
 2456              		.cfi_offset 5, -8
 2457              		.cfi_offset 14, -4
 2458              		.loc 1 492 0
 2459 0006 FDEEE77A 		vcvt.s32.f32	s15, s15
 2460              		.loc 1 490 0
 2461 000a 144B     		ldr	r3, .L190
 2462              		.loc 1 493 0
 2463 000c 144C     		ldr	r4, .L190+4
 2464              		.loc 1 490 0
 2465 000e 1860     		str	r0, [r3]
 2466              		.loc 1 492 0
 2467 0010 17EE902A 		vmov	r2, s15	@ int
 2468              		.loc 1 493 0
 2469 0014 E36A     		ldr	r3, [r4, #44]
 2470              		.loc 1 492 0
 2471 0016 134D     		ldr	r5, .L190+8
 2472 0018 95FBF2F5 		sdiv	r5, r5, r2
 2473              	.LVL194:
 2474              		.loc 1 493 0
 2475 001c AB42     		cmp	r3, r5
 2476 001e 1BD0     		beq	.L187
 2477              		.loc 1 494 0
 2478 0020 1149     		ldr	r1, .L190+12
 2479              		.loc 1 495 0
 2480 0022 124B     		ldr	r3, .L190+16
 2481 0024 0022     		movs	r2, #0
 2482              		.loc 1 494 0
 2483 0026 0A20     		movs	r0, #10
 2484              	.LVL195:
 2485 0028 0870     		strb	r0, [r1]
 2486              		.loc 1 495 0
 2487 002a 1A70     		strb	r2, [r3]
 2488              		.loc 1 496 0
 2489 002c FFF7FEFF 		bl	stop_pwm_hw
 2490              	.LVL196:
 2491              		.loc 1 497 0
 2492 0030 2268     		ldr	r2, [r4]
 2493 0032 0F4B     		ldr	r3, .L190+20
 2494 0034 42F00202 		orr	r2, r2, #2
 2495 0038 2260     		str	r2, [r4]
 2496 003a 1A68     		ldr	r2, [r3]
 2497 003c 0521     		movs	r1, #5
 2498 003e 42F00202 		orr	r2, r2, #2
 2499 0042 1A60     		str	r2, [r3]
 2500 0044 E562     		str	r5, [r4, #44]
 2501 0046 5963     		str	r1, [r3, #52]
 2502 0048 2268     		ldr	r2, [r4]
 2503 004a 22F00202 		bic	r2, r2, #2
 2504 004e 2260     		str	r2, [r4]
 2505 0050 1A68     		ldr	r2, [r3]
 2506 0052 22F00202 		bic	r2, r2, #2
 2507 0056 1A60     		str	r2, [r3]
 2508              	.L187:
ARM GAS  /tmp/ccDgV6Fa.s 			page 45


 2509              		.loc 1 499 0
 2510 0058 38BD     		pop	{r3, r4, r5, pc}
 2511              	.LVL197:
 2512              	.L191:
 2513 005a 00BF     		.align	2
 2514              	.L190:
 2515 005c 00000000 		.word	.LANCHOR0
 2516 0060 00000140 		.word	1073807360
 2517 0064 007A030A 		.word	168000000
 2518 0068 00000000 		.word	.LANCHOR14
 2519 006c 00000000 		.word	.LANCHOR7
 2520 0070 00040140 		.word	1073808384
 2521              		.cfi_endproc
 2522              	.LFE259:
 2523              		.size	mcpwm_foc_set_configuration, .-mcpwm_foc_set_configuration
 2524              		.section	.text.mcpwm_foc_get_state,"ax",%progbits
 2525              		.align	1
 2526              		.p2align 4,,15
 2527              		.global	mcpwm_foc_get_state
 2528              		.syntax unified
 2529              		.thumb
 2530              		.thumb_func
 2531              		.fpu fpv4-sp-d16
 2532              		.type	mcpwm_foc_get_state, %function
 2533              	mcpwm_foc_get_state:
 2534              	.LFB260:
 2535              		.loc 1 501 0
 2536              		.cfi_startproc
 2537              		@ args = 0, pretend = 0, frame = 0
 2538              		@ frame_needed = 0, uses_anonymous_args = 0
 2539              		@ link register save eliminated.
 2540              		.loc 1 502 0
 2541 0000 014B     		ldr	r3, .L193
 2542 0002 1878     		ldrb	r0, [r3]	@ zero_extendqisi2
 2543              		.loc 1 503 0
 2544 0004 7047     		bx	lr
 2545              	.L194:
 2546 0006 00BF     		.align	2
 2547              	.L193:
 2548 0008 00000000 		.word	.LANCHOR7
 2549              		.cfi_endproc
 2550              	.LFE260:
 2551              		.size	mcpwm_foc_get_state, .-mcpwm_foc_get_state
 2552              		.section	.text.mcpwm_foc_is_dccal_done,"ax",%progbits
 2553              		.align	1
 2554              		.p2align 4,,15
 2555              		.global	mcpwm_foc_is_dccal_done
 2556              		.syntax unified
 2557              		.thumb
 2558              		.thumb_func
 2559              		.fpu fpv4-sp-d16
 2560              		.type	mcpwm_foc_is_dccal_done, %function
 2561              	mcpwm_foc_is_dccal_done:
 2562              	.LFB261:
 2563              		.loc 1 505 0
 2564              		.cfi_startproc
 2565              		@ args = 0, pretend = 0, frame = 0
ARM GAS  /tmp/ccDgV6Fa.s 			page 46


 2566              		@ frame_needed = 0, uses_anonymous_args = 0
 2567              		@ link register save eliminated.
 2568              		.loc 1 506 0
 2569 0000 014B     		ldr	r3, .L196
 2570 0002 1878     		ldrb	r0, [r3]	@ zero_extendqisi2
 2571              		.loc 1 507 0
 2572 0004 7047     		bx	lr
 2573              	.L197:
 2574 0006 00BF     		.align	2
 2575              	.L196:
 2576 0008 00000000 		.word	.LANCHOR29
 2577              		.cfi_endproc
 2578              	.LFE261:
 2579              		.size	mcpwm_foc_is_dccal_done, .-mcpwm_foc_is_dccal_done
 2580              		.section	.text.app_spicontrol_init,"ax",%progbits
 2581              		.align	1
 2582              		.p2align 4,,15
 2583              		.global	app_spicontrol_init
 2584              		.syntax unified
 2585              		.thumb
 2586              		.thumb_func
 2587              		.fpu fpv4-sp-d16
 2588              		.type	app_spicontrol_init, %function
 2589              	app_spicontrol_init:
 2590              	.LFB262:
 2591              		.loc 1 513 0
 2592              		.cfi_startproc
 2593              		@ args = 0, pretend = 0, frame = 0
 2594              		@ frame_needed = 0, uses_anonymous_args = 0
 2595              		@ link register save eliminated.
 2596              		.loc 1 514 0
 2597 0000 7047     		bx	lr
 2598              		.cfi_endproc
 2599              	.LFE262:
 2600              		.size	app_spicontrol_init, .-app_spicontrol_init
 2601 0002 00BF     		.section	.text.mcpwm_foc_set_duty,"ax",%progbits
 2602              		.align	1
 2603              		.p2align 4,,15
 2604              		.global	mcpwm_foc_set_duty
 2605              		.syntax unified
 2606              		.thumb
 2607              		.thumb_func
 2608              		.fpu fpv4-sp-d16
 2609              		.type	mcpwm_foc_set_duty, %function
 2610              	mcpwm_foc_set_duty:
 2611              	.LFB264:
 2612              		.loc 1 531 0
 2613              		.cfi_startproc
 2614              		@ args = 0, pretend = 0, frame = 0
 2615              		@ frame_needed = 0, uses_anonymous_args = 0
 2616              		@ link register save eliminated.
 2617              	.LVL198:
 2618              		.loc 1 533 0
 2619 0000 064A     		ldr	r2, .L204
 2620              		.loc 1 532 0
 2621 0002 0749     		ldr	r1, .L204+4
 2622              		.loc 1 535 0
ARM GAS  /tmp/ccDgV6Fa.s 			page 47


 2623 0004 074B     		ldr	r3, .L204+8
 2624              		.loc 1 532 0
 2625 0006 0020     		movs	r0, #0
 2626 0008 0870     		strb	r0, [r1]
 2627              		.loc 1 533 0
 2628 000a 82ED000A 		vstr.32	s0, [r2]
 2629              		.loc 1 535 0
 2630 000e 1A78     		ldrb	r2, [r3]	@ zero_extendqisi2
 2631 0010 022A     		cmp	r2, #2
 2632              		.loc 1 536 0
 2633 0012 1CBF     		itt	ne
 2634 0014 0222     		movne	r2, #2
 2635 0016 1A70     		strbne	r2, [r3]
 2636              		.loc 1 538 0
 2637 0018 7047     		bx	lr
 2638              	.L205:
 2639 001a 00BF     		.align	2
 2640              	.L204:
 2641 001c 00000000 		.word	.LANCHOR32
 2642 0020 00000000 		.word	.LANCHOR14
 2643 0024 00000000 		.word	.LANCHOR7
 2644              		.cfi_endproc
 2645              	.LFE264:
 2646              		.size	mcpwm_foc_set_duty, .-mcpwm_foc_set_duty
 2647              		.section	.text.mcpwm_foc_set_duty_noramp,"ax",%progbits
 2648              		.align	1
 2649              		.p2align 4,,15
 2650              		.global	mcpwm_foc_set_duty_noramp
 2651              		.syntax unified
 2652              		.thumb
 2653              		.thumb_func
 2654              		.fpu fpv4-sp-d16
 2655              		.type	mcpwm_foc_set_duty_noramp, %function
 2656              	mcpwm_foc_set_duty_noramp:
 2657              	.LFB265:
 2658              		.loc 1 550 0
 2659              		.cfi_startproc
 2660              		@ args = 0, pretend = 0, frame = 0
 2661              		@ frame_needed = 0, uses_anonymous_args = 0
 2662              		@ link register save eliminated.
 2663              	.LVL199:
 2664              	.LBB90:
 2665              	.LBB91:
 2666              		.loc 1 533 0
 2667 0000 064A     		ldr	r2, .L211
 2668              		.loc 1 532 0
 2669 0002 0749     		ldr	r1, .L211+4
 2670              		.loc 1 535 0
 2671 0004 074B     		ldr	r3, .L211+8
 2672              		.loc 1 532 0
 2673 0006 0020     		movs	r0, #0
 2674 0008 0870     		strb	r0, [r1]
 2675              		.loc 1 533 0
 2676 000a 82ED000A 		vstr.32	s0, [r2]
 2677              		.loc 1 535 0
 2678 000e 1A78     		ldrb	r2, [r3]	@ zero_extendqisi2
 2679 0010 022A     		cmp	r2, #2
ARM GAS  /tmp/ccDgV6Fa.s 			page 48


 2680              		.loc 1 536 0
 2681 0012 1CBF     		itt	ne
 2682 0014 0222     		movne	r2, #2
 2683 0016 1A70     		strbne	r2, [r3]
 2684              	.LVL200:
 2685              	.LBE91:
 2686              	.LBE90:
 2687              		.loc 1 553 0
 2688 0018 7047     		bx	lr
 2689              	.L212:
 2690 001a 00BF     		.align	2
 2691              	.L211:
 2692 001c 00000000 		.word	.LANCHOR32
 2693 0020 00000000 		.word	.LANCHOR14
 2694 0024 00000000 		.word	.LANCHOR7
 2695              		.cfi_endproc
 2696              	.LFE265:
 2697              		.size	mcpwm_foc_set_duty_noramp, .-mcpwm_foc_set_duty_noramp
 2698              		.section	.text.mcpwm_foc_set_pid_speed,"ax",%progbits
 2699              		.align	1
 2700              		.p2align 4,,15
 2701              		.global	mcpwm_foc_set_pid_speed
 2702              		.syntax unified
 2703              		.thumb
 2704              		.thumb_func
 2705              		.fpu fpv4-sp-d16
 2706              		.type	mcpwm_foc_set_pid_speed, %function
 2707              	mcpwm_foc_set_pid_speed:
 2708              	.LFB266:
 2709              		.loc 1 562 0
 2710              		.cfi_startproc
 2711              		@ args = 0, pretend = 0, frame = 0
 2712              		@ frame_needed = 0, uses_anonymous_args = 0
 2713              		@ link register save eliminated.
 2714              	.LVL201:
 2715              		.loc 1 564 0
 2716 0000 064A     		ldr	r2, .L218
 2717              		.loc 1 563 0
 2718 0002 0749     		ldr	r1, .L218+4
 2719              		.loc 1 566 0
 2720 0004 074B     		ldr	r3, .L218+8
 2721              		.loc 1 563 0
 2722 0006 0120     		movs	r0, #1
 2723 0008 0870     		strb	r0, [r1]
 2724              		.loc 1 564 0
 2725 000a 82ED000A 		vstr.32	s0, [r2]
 2726              		.loc 1 566 0
 2727 000e 1A78     		ldrb	r2, [r3]	@ zero_extendqisi2
 2728 0010 022A     		cmp	r2, #2
 2729              		.loc 1 567 0
 2730 0012 1CBF     		itt	ne
 2731 0014 0222     		movne	r2, #2
 2732 0016 1A70     		strbne	r2, [r3]
 2733              		.loc 1 569 0
 2734 0018 7047     		bx	lr
 2735              	.L219:
 2736 001a 00BF     		.align	2
ARM GAS  /tmp/ccDgV6Fa.s 			page 49


 2737              	.L218:
 2738 001c 00000000 		.word	.LANCHOR21
 2739 0020 00000000 		.word	.LANCHOR14
 2740 0024 00000000 		.word	.LANCHOR7
 2741              		.cfi_endproc
 2742              	.LFE266:
 2743              		.size	mcpwm_foc_set_pid_speed, .-mcpwm_foc_set_pid_speed
 2744              		.section	.text.mcpwm_foc_set_pid_pos,"ax",%progbits
 2745              		.align	1
 2746              		.p2align 4,,15
 2747              		.global	mcpwm_foc_set_pid_pos
 2748              		.syntax unified
 2749              		.thumb
 2750              		.thumb_func
 2751              		.fpu fpv4-sp-d16
 2752              		.type	mcpwm_foc_set_pid_pos, %function
 2753              	mcpwm_foc_set_pid_pos:
 2754              	.LFB267:
 2755              		.loc 1 578 0
 2756              		.cfi_startproc
 2757              		@ args = 0, pretend = 0, frame = 0
 2758              		@ frame_needed = 0, uses_anonymous_args = 0
 2759              		@ link register save eliminated.
 2760              	.LVL202:
 2761              		.loc 1 580 0
 2762 0000 064A     		ldr	r2, .L225
 2763              		.loc 1 579 0
 2764 0002 0749     		ldr	r1, .L225+4
 2765              		.loc 1 582 0
 2766 0004 074B     		ldr	r3, .L225+8
 2767              		.loc 1 579 0
 2768 0006 0420     		movs	r0, #4
 2769 0008 0870     		strb	r0, [r1]
 2770              		.loc 1 580 0
 2771 000a 82ED000A 		vstr.32	s0, [r2]
 2772              		.loc 1 582 0
 2773 000e 1A78     		ldrb	r2, [r3]	@ zero_extendqisi2
 2774 0010 022A     		cmp	r2, #2
 2775              		.loc 1 583 0
 2776 0012 1CBF     		itt	ne
 2777 0014 0222     		movne	r2, #2
 2778 0016 1A70     		strbne	r2, [r3]
 2779              		.loc 1 585 0
 2780 0018 7047     		bx	lr
 2781              	.L226:
 2782 001a 00BF     		.align	2
 2783              	.L225:
 2784 001c 00000000 		.word	.LANCHOR36
 2785 0020 00000000 		.word	.LANCHOR14
 2786 0024 00000000 		.word	.LANCHOR7
 2787              		.cfi_endproc
 2788              	.LFE267:
 2789              		.size	mcpwm_foc_set_pid_pos, .-mcpwm_foc_set_pid_pos
 2790              		.section	.text.mcpwm_foc_set_current,"ax",%progbits
 2791              		.align	1
 2792              		.p2align 4,,15
 2793              		.global	mcpwm_foc_set_current
ARM GAS  /tmp/ccDgV6Fa.s 			page 50


 2794              		.syntax unified
 2795              		.thumb
 2796              		.thumb_func
 2797              		.fpu fpv4-sp-d16
 2798              		.type	mcpwm_foc_set_current, %function
 2799              	mcpwm_foc_set_current:
 2800              	.LFB268:
 2801              		.loc 1 595 0
 2802              		.cfi_startproc
 2803              		@ args = 0, pretend = 0, frame = 0
 2804              		@ frame_needed = 0, uses_anonymous_args = 0
 2805              	.LVL203:
 2806 0000 08B5     		push	{r3, lr}
 2807              		.cfi_def_cfa_offset 8
 2808              		.cfi_offset 3, -8
 2809              		.cfi_offset 14, -4
 2810 0002 2DED028B 		vpush.64	{d8}
 2811              		.cfi_def_cfa_offset 16
 2812              		.cfi_offset 80, -16
 2813              		.cfi_offset 81, -12
 2814              		.loc 1 595 0
 2815 0006 B0EE408A 		vmov.f32	s16, s0
 2816              		.loc 1 596 0
 2817 000a FFF7FEFF 		bl	mc_interface_get_enviro
 2818              	.LVL204:
 2819 000e 4304     		lsls	r3, r0, #17
 2820 0010 1AD4     		bmi	.L231
 2821              		.loc 1 596 0 is_stmt 0 discriminator 1
 2822 0012 1C4B     		ldr	r3, .L239
 2823 0014 1B68     		ldr	r3, [r3]
 2824 0016 D3ED5F7A 		vldr.32	s15, [r3, #380]
 2825 001a B0EEC87A 		vabs.f32	s14, s16
 2826 001e B4EEE77A 		vcmpe.f32	s14, s15
 2827 0022 F1EE10FA 		vmrs	APSR_nzcv, FPSCR
 2828 0026 1FD5     		bpl	.L229
 2829              	.LBB98:
 2830              	.LBB99:
 2831              		.loc 1 850 0 is_stmt 1
 2832 0028 174B     		ldr	r3, .L239+4
 2833 002a DFED186A 		vldr.32	s13, .L239+8
 2834 002e 93ED006A 		vldr.32	s12, [r3]
 2835              	.LBE99:
 2836              	.LBE98:
 2837              		.loc 1 596 0
 2838 0032 9FED177A 		vldr.32	s14, .L239+12
 2839              	.LBB101:
 2840              	.LBB100:
 2841              		.loc 1 850 0
 2842 0036 C6EE267A 		vdiv.f32	s15, s12, s13
 2843              	.LBE100:
 2844              	.LBE101:
 2845              		.loc 1 596 0
 2846 003a F0EEE77A 		vabs.f32	s15, s15
 2847 003e F4EEC77A 		vcmpe.f32	s15, s14
 2848 0042 F1EE10FA 		vmrs	APSR_nzcv, FPSCR
 2849 0046 0BD5     		bpl	.L238
 2850              	.L231:
ARM GAS  /tmp/ccDgV6Fa.s 			page 51


 2851              		.loc 1 610 0
 2852 0048 BDEC028B 		vldm	sp!, {d8}
 2853              		.cfi_remember_state
 2854              		.cfi_restore 80
 2855              		.cfi_restore 81
 2856              		.cfi_def_cfa_offset 8
 2857              	.LVL205:
 2858              		.loc 1 599 0
 2859 004c 114B     		ldr	r3, .L239+16
 2860              		.loc 1 598 0
 2861 004e 1249     		ldr	r1, .L239+20
 2862 0050 0A20     		movs	r0, #10
 2863              		.loc 1 599 0
 2864 0052 0022     		movs	r2, #0
 2865              		.loc 1 598 0
 2866 0054 0870     		strb	r0, [r1]
 2867              		.loc 1 599 0
 2868 0056 1A70     		strb	r2, [r3]
 2869              		.loc 1 610 0
 2870 0058 BDE80840 		pop	{r3, lr}
 2871              		.cfi_restore 14
 2872              		.cfi_restore 3
 2873              		.cfi_def_cfa_offset 0
 2874              		.loc 1 600 0
 2875 005c FFF7FEBF 		b	stop_pwm_hw
 2876              	.LVL206:
 2877              	.L238:
 2878              		.cfi_restore_state
 2879              		.loc 1 596 0 discriminator 3
 2880 0060 FFF7FEFF 		bl	mc_interface_get_fault
 2881              	.LVL207:
 2882 0064 0028     		cmp	r0, #0
 2883 0066 EFD1     		bne	.L231
 2884              	.L229:
 2885              	.LVL208:
 2886              	.LBB102:
 2887              	.LBB103:
 2888              		.loc 1 605 0
 2889 0068 0C49     		ldr	r1, .L239+24
 2890              		.loc 1 604 0
 2891 006a 0B48     		ldr	r0, .L239+20
 2892              		.loc 1 607 0
 2893 006c 094B     		ldr	r3, .L239+16
 2894              		.loc 1 604 0
 2895 006e 0222     		movs	r2, #2
 2896 0070 0270     		strb	r2, [r0]
 2897              		.loc 1 605 0
 2898 0072 81ED008A 		vstr.32	s16, [r1]
 2899              	.LBE103:
 2900              	.LBE102:
 2901              		.loc 1 610 0
 2902 0076 BDEC028B 		vldm	sp!, {d8}
 2903              		.cfi_restore 80
 2904              		.cfi_restore 81
 2905              		.cfi_def_cfa_offset 8
 2906              	.LVL209:
 2907              	.LBB105:
ARM GAS  /tmp/ccDgV6Fa.s 			page 52


 2908              	.LBB104:
 2909              		.loc 1 607 0
 2910 007a 1978     		ldrb	r1, [r3]	@ zero_extendqisi2
 2911 007c 9142     		cmp	r1, r2
 2912              		.loc 1 608 0
 2913 007e 18BF     		it	ne
 2914 0080 1A70     		strbne	r2, [r3]
 2915              	.LBE104:
 2916              	.LBE105:
 2917              		.loc 1 610 0
 2918 0082 08BD     		pop	{r3, pc}
 2919              	.L240:
 2920              		.align	2
 2921              	.L239:
 2922 0084 00000000 		.word	.LANCHOR0
 2923 0088 00000000 		.word	.LANCHOR12
 2924 008c 5077D63D 		.word	1037465424
 2925 0090 0000C842 		.word	1120403456
 2926 0094 00000000 		.word	.LANCHOR7
 2927 0098 00000000 		.word	.LANCHOR14
 2928 009c 00000000 		.word	.LANCHOR23
 2929              		.cfi_endproc
 2930              	.LFE268:
 2931              		.size	mcpwm_foc_set_current, .-mcpwm_foc_set_current
 2932              		.section	.text.mcpwm_foc_stop_pwm,"ax",%progbits
 2933              		.align	1
 2934              		.p2align 4,,15
 2935              		.global	mcpwm_foc_stop_pwm
 2936              		.syntax unified
 2937              		.thumb
 2938              		.thumb_func
 2939              		.fpu fpv4-sp-d16
 2940              		.type	mcpwm_foc_stop_pwm, %function
 2941              	mcpwm_foc_stop_pwm:
 2942              	.LFB263:
 2943              		.loc 1 520 0
 2944              		.cfi_startproc
 2945              		@ args = 0, pretend = 0, frame = 0
 2946              		@ frame_needed = 0, uses_anonymous_args = 0
 2947              		@ link register save eliminated.
 2948              		.loc 1 521 0
 2949 0000 9FED010A 		vldr.32	s0, .L242
 2950 0004 FFF7FEBF 		b	mcpwm_foc_set_current
 2951              	.LVL210:
 2952              	.L243:
 2953              		.align	2
 2954              	.L242:
 2955 0008 00000000 		.word	0
 2956              		.cfi_endproc
 2957              	.LFE263:
 2958              		.size	mcpwm_foc_stop_pwm, .-mcpwm_foc_stop_pwm
 2959              		.section	.text.mcpwm_foc_set_brake_current,"ax",%progbits
 2960              		.align	1
 2961              		.p2align 4,,15
 2962              		.global	mcpwm_foc_set_brake_current
 2963              		.syntax unified
 2964              		.thumb
ARM GAS  /tmp/ccDgV6Fa.s 			page 53


 2965              		.thumb_func
 2966              		.fpu fpv4-sp-d16
 2967              		.type	mcpwm_foc_set_brake_current, %function
 2968              	mcpwm_foc_set_brake_current:
 2969              	.LFB269:
 2970              		.loc 1 619 0
 2971              		.cfi_startproc
 2972              		@ args = 0, pretend = 0, frame = 0
 2973              		@ frame_needed = 0, uses_anonymous_args = 0
 2974              	.LVL211:
 2975 0000 08B5     		push	{r3, lr}
 2976              		.cfi_def_cfa_offset 8
 2977              		.cfi_offset 3, -8
 2978              		.cfi_offset 14, -4
 2979 0002 2DED028B 		vpush.64	{d8}
 2980              		.cfi_def_cfa_offset 16
 2981              		.cfi_offset 80, -16
 2982              		.cfi_offset 81, -12
 2983              		.loc 1 619 0
 2984 0006 B0EE408A 		vmov.f32	s16, s0
 2985              		.loc 1 620 0
 2986 000a FFF7FEFF 		bl	mc_interface_get_enviro
 2987              	.LVL212:
 2988 000e 4304     		lsls	r3, r0, #17
 2989 0010 0AD4     		bmi	.L246
 2990              		.loc 1 620 0 is_stmt 0 discriminator 1
 2991 0012 154B     		ldr	r3, .L253
 2992 0014 1B68     		ldr	r3, [r3]
 2993 0016 D3ED5F7A 		vldr.32	s15, [r3, #380]
 2994 001a B0EEC87A 		vabs.f32	s14, s16
 2995 001e B4EEE77A 		vcmpe.f32	s14, s15
 2996 0022 F1EE10FA 		vmrs	APSR_nzcv, FPSCR
 2997 0026 0BD5     		bpl	.L252
 2998              	.L246:
 2999              		.loc 1 633 0 is_stmt 1
 3000 0028 BDEC028B 		vldm	sp!, {d8}
 3001              		.cfi_remember_state
 3002              		.cfi_restore 80
 3003              		.cfi_restore 81
 3004              		.cfi_def_cfa_offset 8
 3005              	.LVL213:
 3006              		.loc 1 622 0
 3007 002c 0F4B     		ldr	r3, .L253+4
 3008              		.loc 1 621 0
 3009 002e 1049     		ldr	r1, .L253+8
 3010 0030 0A20     		movs	r0, #10
 3011              		.loc 1 622 0
 3012 0032 0022     		movs	r2, #0
 3013              		.loc 1 621 0
 3014 0034 0870     		strb	r0, [r1]
 3015              		.loc 1 622 0
 3016 0036 1A70     		strb	r2, [r3]
 3017              		.loc 1 633 0
 3018 0038 BDE80840 		pop	{r3, lr}
 3019              		.cfi_restore 14
 3020              		.cfi_restore 3
 3021              		.cfi_def_cfa_offset 0
ARM GAS  /tmp/ccDgV6Fa.s 			page 54


 3022              		.loc 1 623 0
 3023 003c FFF7FEBF 		b	stop_pwm_hw
 3024              	.LVL214:
 3025              	.L252:
 3026              		.cfi_restore_state
 3027              		.loc 1 620 0 discriminator 2
 3028 0040 FFF7FEFF 		bl	mc_interface_get_fault
 3029              	.LVL215:
 3030 0044 0028     		cmp	r0, #0
 3031 0046 EFD1     		bne	.L246
 3032              		.loc 1 628 0
 3033 0048 0A4A     		ldr	r2, .L253+12
 3034              		.loc 1 627 0
 3035 004a 0949     		ldr	r1, .L253+8
 3036              		.loc 1 630 0
 3037 004c 074B     		ldr	r3, .L253+4
 3038              		.loc 1 627 0
 3039 004e 0320     		movs	r0, #3
 3040 0050 0870     		strb	r0, [r1]
 3041              		.loc 1 628 0
 3042 0052 82ED008A 		vstr.32	s16, [r2]
 3043              		.loc 1 633 0
 3044 0056 BDEC028B 		vldm	sp!, {d8}
 3045              		.cfi_restore 80
 3046              		.cfi_restore 81
 3047              		.cfi_def_cfa_offset 8
 3048              	.LVL216:
 3049              		.loc 1 630 0
 3050 005a 1A78     		ldrb	r2, [r3]	@ zero_extendqisi2
 3051 005c 022A     		cmp	r2, #2
 3052              		.loc 1 631 0
 3053 005e 1CBF     		itt	ne
 3054 0060 0222     		movne	r2, #2
 3055 0062 1A70     		strbne	r2, [r3]
 3056              		.loc 1 633 0
 3057 0064 08BD     		pop	{r3, pc}
 3058              	.L254:
 3059 0066 00BF     		.align	2
 3060              	.L253:
 3061 0068 00000000 		.word	.LANCHOR0
 3062 006c 00000000 		.word	.LANCHOR7
 3063 0070 00000000 		.word	.LANCHOR14
 3064 0074 00000000 		.word	.LANCHOR23
 3065              		.cfi_endproc
 3066              	.LFE269:
 3067              		.size	mcpwm_foc_set_brake_current, .-mcpwm_foc_set_brake_current
 3068              		.section	.text.mcpwm_foc_set_handbrake,"ax",%progbits
 3069              		.align	1
 3070              		.p2align 4,,15
 3071              		.global	mcpwm_foc_set_handbrake
 3072              		.syntax unified
 3073              		.thumb
 3074              		.thumb_func
 3075              		.fpu fpv4-sp-d16
 3076              		.type	mcpwm_foc_set_handbrake, %function
 3077              	mcpwm_foc_set_handbrake:
 3078              	.LFB270:
ARM GAS  /tmp/ccDgV6Fa.s 			page 55


 3079              		.loc 1 642 0
 3080              		.cfi_startproc
 3081              		@ args = 0, pretend = 0, frame = 0
 3082              		@ frame_needed = 0, uses_anonymous_args = 0
 3083              		@ link register save eliminated.
 3084              	.LVL217:
 3085              		.loc 1 643 0
 3086 0000 0F4B     		ldr	r3, .L265
 3087              		.loc 1 644 0
 3088 0002 1049     		ldr	r1, .L265+4
 3089              		.loc 1 643 0
 3090 0004 1B68     		ldr	r3, [r3]
 3091 0006 D3ED5F7A 		vldr.32	s15, [r3, #380]
 3092 000a B0EEC07A 		vabs.f32	s14, s0
 3093 000e B4EEE77A 		vcmpe.f32	s14, s15
 3094 0012 F1EE10FA 		vmrs	APSR_nzcv, FPSCR
 3095 0016 0BD4     		bmi	.L264
 3096              		.loc 1 651 0
 3097 0018 0B4A     		ldr	r2, .L265+8
 3098              		.loc 1 653 0
 3099 001a 0C4B     		ldr	r3, .L265+12
 3100              		.loc 1 650 0
 3101 001c 0520     		movs	r0, #5
 3102 001e 0870     		strb	r0, [r1]
 3103              		.loc 1 651 0
 3104 0020 82ED000A 		vstr.32	s0, [r2]
 3105              		.loc 1 653 0
 3106 0024 1A78     		ldrb	r2, [r3]	@ zero_extendqisi2
 3107 0026 022A     		cmp	r2, #2
 3108              		.loc 1 654 0
 3109 0028 1CBF     		itt	ne
 3110 002a 0222     		movne	r2, #2
 3111 002c 1A70     		strbne	r2, [r3]
 3112              		.loc 1 656 0
 3113 002e 7047     		bx	lr
 3114              	.L264:
 3115              		.loc 1 645 0
 3116 0030 064B     		ldr	r3, .L265+12
 3117              		.loc 1 644 0
 3118 0032 0A20     		movs	r0, #10
 3119              		.loc 1 645 0
 3120 0034 0022     		movs	r2, #0
 3121              		.loc 1 644 0
 3122 0036 0870     		strb	r0, [r1]
 3123              		.loc 1 645 0
 3124 0038 1A70     		strb	r2, [r3]
 3125              		.loc 1 646 0
 3126 003a FFF7FEBF 		b	stop_pwm_hw
 3127              	.LVL218:
 3128              	.L266:
 3129 003e 00BF     		.align	2
 3130              	.L265:
 3131 0040 00000000 		.word	.LANCHOR0
 3132 0044 00000000 		.word	.LANCHOR14
 3133 0048 00000000 		.word	.LANCHOR23
 3134 004c 00000000 		.word	.LANCHOR7
 3135              		.cfi_endproc
ARM GAS  /tmp/ccDgV6Fa.s 			page 56


 3136              	.LFE270:
 3137              		.size	mcpwm_foc_set_handbrake, .-mcpwm_foc_set_handbrake
 3138              		.section	.text.mcpwm_foc_set_openloop,"ax",%progbits
 3139              		.align	1
 3140              		.p2align 4,,15
 3141              		.global	mcpwm_foc_set_openloop
 3142              		.syntax unified
 3143              		.thumb
 3144              		.thumb_func
 3145              		.fpu fpv4-sp-d16
 3146              		.type	mcpwm_foc_set_openloop, %function
 3147              	mcpwm_foc_set_openloop:
 3148              	.LFB271:
 3149              		.loc 1 667 0
 3150              		.cfi_startproc
 3151              		@ args = 0, pretend = 0, frame = 8
 3152              		@ frame_needed = 0, uses_anonymous_args = 0
 3153              	.LVL219:
 3154 0000 30B5     		push	{r4, r5, lr}
 3155              		.cfi_def_cfa_offset 12
 3156              		.cfi_offset 4, -12
 3157              		.cfi_offset 5, -8
 3158              		.cfi_offset 14, -4
 3159              		.loc 1 668 0
 3160 0002 224B     		ldr	r3, .L278
 3161 0004 1B68     		ldr	r3, [r3]
 3162              		.loc 1 667 0
 3163 0006 2DED028B 		vpush.64	{d8}
 3164              		.cfi_def_cfa_offset 20
 3165              		.cfi_offset 80, -20
 3166              		.cfi_offset 81, -16
 3167              		.loc 1 668 0
 3168 000a D3ED5F7A 		vldr.32	s15, [r3, #380]
 3169 000e B0EEC07A 		vabs.f32	s14, s0
 3170 0012 B4EEE77A 		vcmpe.f32	s14, s15
 3171              		.loc 1 667 0
 3172 0016 83B0     		sub	sp, sp, #12
 3173              		.cfi_def_cfa_offset 32
 3174              		.loc 1 668 0
 3175 0018 F1EE10FA 		vmrs	APSR_nzcv, FPSCR
 3176              		.loc 1 667 0
 3177 001c 8DED010A 		vstr.32	s0, [sp, #4]
 3178              		.loc 1 668 0
 3179 0020 27D4     		bmi	.L277
 3180              		.loc 1 675 0
 3181 0022 93ED010A 		vldr.32	s0, [r3, #4]
 3182              	.LVL220:
 3183 0026 93ED197A 		vldr.32	s14, [r3, #100]
 3184              		.loc 1 678 0
 3185 002a 194C     		ldr	r4, .L278+4
 3186 002c B0EE608A 		vmov.f32	s16, s1
 3187              		.loc 1 676 0
 3188 0030 D3ED010A 		vldr.32	s1, [r3, #4]
 3189              	.LVL221:
 3190 0034 D3ED197A 		vldr.32	s15, [r3, #100]
 3191              		.loc 1 675 0
 3192 0038 20EE470A 		vnmul.f32	s0, s0, s14
ARM GAS  /tmp/ccDgV6Fa.s 			page 57


 3193 003c 60EEA70A 		vmul.f32	s1, s1, s15
 3194 0040 01A8     		add	r0, sp, #4
 3195              	.LVL222:
 3196 0042 FFF7FEFF 		bl	utils_truncate_number
 3197              	.LVL223:
 3198              		.loc 1 680 0
 3199 0046 DFED137A 		vldr.32	s15, .L278+8
 3200              		.loc 1 679 0
 3201 004a 1349     		ldr	r1, .L278+12
 3202              		.loc 1 680 0
 3203 004c 134A     		ldr	r2, .L278+16
 3204              		.loc 1 682 0
 3205 004e 144B     		ldr	r3, .L278+20
 3206              		.loc 1 679 0
 3207 0050 0198     		ldr	r0, [sp, #4]	@ float
 3208              		.loc 1 680 0
 3209 0052 28EE278A 		vmul.f32	s16, s16, s15
 3210              	.LVL224:
 3211              		.loc 1 678 0
 3212 0056 0625     		movs	r5, #6
 3213 0058 2570     		strb	r5, [r4]
 3214              		.loc 1 679 0
 3215 005a 0860     		str	r0, [r1]	@ float
 3216              		.loc 1 680 0
 3217 005c 82ED008A 		vstr.32	s16, [r2]
 3218              		.loc 1 682 0
 3219 0060 1A78     		ldrb	r2, [r3]	@ zero_extendqisi2
 3220 0062 022A     		cmp	r2, #2
 3221              		.loc 1 683 0
 3222 0064 1CBF     		itt	ne
 3223 0066 0222     		movne	r2, #2
 3224 0068 1A70     		strbne	r2, [r3]
 3225              		.loc 1 685 0
 3226 006a 03B0     		add	sp, sp, #12
 3227              		.cfi_remember_state
 3228              		.cfi_def_cfa_offset 20
 3229              		@ sp needed
 3230 006c BDEC028B 		vldm	sp!, {d8}
 3231              		.cfi_restore 80
 3232              		.cfi_restore 81
 3233              		.cfi_def_cfa_offset 12
 3234 0070 30BD     		pop	{r4, r5, pc}
 3235              	.LVL225:
 3236              	.L277:
 3237              		.cfi_restore_state
 3238              		.loc 1 669 0
 3239 0072 0749     		ldr	r1, .L278+4
 3240              		.loc 1 670 0
 3241 0074 0A4B     		ldr	r3, .L278+20
 3242              		.loc 1 669 0
 3243 0076 0A20     		movs	r0, #10
 3244              		.loc 1 670 0
 3245 0078 0022     		movs	r2, #0
 3246              		.loc 1 669 0
 3247 007a 0870     		strb	r0, [r1]
 3248              		.loc 1 670 0
 3249 007c 1A70     		strb	r2, [r3]
ARM GAS  /tmp/ccDgV6Fa.s 			page 58


 3250              		.loc 1 671 0
 3251 007e FFF7FEFF 		bl	stop_pwm_hw
 3252              	.LVL226:
 3253              		.loc 1 685 0
 3254 0082 03B0     		add	sp, sp, #12
 3255              		.cfi_def_cfa_offset 20
 3256              		@ sp needed
 3257 0084 BDEC028B 		vldm	sp!, {d8}
 3258              		.cfi_restore 80
 3259              		.cfi_restore 81
 3260              		.cfi_def_cfa_offset 12
 3261 0088 30BD     		pop	{r4, r5, pc}
 3262              	.L279:
 3263 008a 00BF     		.align	2
 3264              	.L278:
 3265 008c 00000000 		.word	.LANCHOR0
 3266 0090 00000000 		.word	.LANCHOR14
 3267 0094 5077D63D 		.word	1037465424
 3268 0098 00000000 		.word	.LANCHOR23
 3269 009c 00000000 		.word	.LANCHOR34
 3270 00a0 00000000 		.word	.LANCHOR7
 3271              		.cfi_endproc
 3272              	.LFE271:
 3273              		.size	mcpwm_foc_set_openloop, .-mcpwm_foc_set_openloop
 3274              		.section	.text.mcpwm_foc_set_openloop_phase,"ax",%progbits
 3275              		.align	1
 3276              		.p2align 4,,15
 3277              		.global	mcpwm_foc_set_openloop_phase
 3278              		.syntax unified
 3279              		.thumb
 3280              		.thumb_func
 3281              		.fpu fpv4-sp-d16
 3282              		.type	mcpwm_foc_set_openloop_phase, %function
 3283              	mcpwm_foc_set_openloop_phase:
 3284              	.LFB272:
 3285              		.loc 1 696 0
 3286              		.cfi_startproc
 3287              		@ args = 0, pretend = 0, frame = 8
 3288              		@ frame_needed = 0, uses_anonymous_args = 0
 3289              	.LVL227:
 3290 0000 30B5     		push	{r4, r5, lr}
 3291              		.cfi_def_cfa_offset 12
 3292              		.cfi_offset 4, -12
 3293              		.cfi_offset 5, -8
 3294              		.cfi_offset 14, -4
 3295              		.loc 1 697 0
 3296 0002 254B     		ldr	r3, .L291
 3297 0004 1B68     		ldr	r3, [r3]
 3298              		.loc 1 696 0
 3299 0006 2DED028B 		vpush.64	{d8}
 3300              		.cfi_def_cfa_offset 20
 3301              		.cfi_offset 80, -20
 3302              		.cfi_offset 81, -16
 3303              		.loc 1 697 0
 3304 000a D3ED5F7A 		vldr.32	s15, [r3, #380]
 3305 000e B0EEC07A 		vabs.f32	s14, s0
 3306 0012 B4EEE77A 		vcmpe.f32	s14, s15
ARM GAS  /tmp/ccDgV6Fa.s 			page 59


 3307              		.loc 1 696 0
 3308 0016 83B0     		sub	sp, sp, #12
 3309              		.cfi_def_cfa_offset 32
 3310              		.loc 1 697 0
 3311 0018 F1EE10FA 		vmrs	APSR_nzcv, FPSCR
 3312              		.loc 1 696 0
 3313 001c 8DED010A 		vstr.32	s0, [sp, #4]
 3314              		.loc 1 697 0
 3315 0020 2ED4     		bmi	.L290
 3316              		.loc 1 704 0
 3317 0022 93ED010A 		vldr.32	s0, [r3, #4]
 3318              	.LVL228:
 3319 0026 93ED197A 		vldr.32	s14, [r3, #100]
 3320              		.loc 1 707 0
 3321 002a 1C4C     		ldr	r4, .L291+4
 3322 002c B0EE608A 		vmov.f32	s16, s1
 3323              		.loc 1 705 0
 3324 0030 D3ED010A 		vldr.32	s1, [r3, #4]
 3325              	.LVL229:
 3326 0034 D3ED197A 		vldr.32	s15, [r3, #100]
 3327              		.loc 1 704 0
 3328 0038 20EE470A 		vnmul.f32	s0, s0, s14
 3329 003c 60EEA70A 		vmul.f32	s1, s1, s15
 3330 0040 01A8     		add	r0, sp, #4
 3331              	.LVL230:
 3332 0042 FFF7FEFF 		bl	utils_truncate_number
 3333              	.LVL231:
 3334              		.loc 1 710 0
 3335 0046 DFED167A 		vldr.32	s15, .L291+8
 3336 004a 9FED167A 		vldr.32	s14, .L291+12
 3337 004e 164B     		ldr	r3, .L291+16
 3338              		.loc 1 708 0
 3339 0050 164A     		ldr	r2, .L291+20
 3340 0052 0199     		ldr	r1, [sp, #4]	@ float
 3341              		.loc 1 710 0
 3342 0054 28EE278A 		vmul.f32	s16, s16, s15
 3343              	.LVL232:
 3344              		.loc 1 711 0
 3345 0058 1846     		mov	r0, r3
 3346              		.loc 1 710 0
 3347 005a C8EE077A 		vdiv.f32	s15, s16, s14
 3348              		.loc 1 707 0
 3349 005e 0725     		movs	r5, #7
 3350 0060 2570     		strb	r5, [r4]
 3351              		.loc 1 708 0
 3352 0062 1160     		str	r1, [r2]	@ float
 3353              		.loc 1 710 0
 3354 0064 C3ED007A 		vstr.32	s15, [r3]
 3355              		.loc 1 711 0
 3356 0068 FFF7FEFF 		bl	utils_norm_angle_rad
 3357              	.LVL233:
 3358              		.loc 1 713 0
 3359 006c 104B     		ldr	r3, .L291+24
 3360 006e 1A78     		ldrb	r2, [r3]	@ zero_extendqisi2
 3361 0070 022A     		cmp	r2, #2
 3362              		.loc 1 714 0
 3363 0072 1CBF     		itt	ne
ARM GAS  /tmp/ccDgV6Fa.s 			page 60


 3364 0074 0222     		movne	r2, #2
 3365 0076 1A70     		strbne	r2, [r3]
 3366              		.loc 1 716 0
 3367 0078 03B0     		add	sp, sp, #12
 3368              		.cfi_remember_state
 3369              		.cfi_def_cfa_offset 20
 3370              		@ sp needed
 3371 007a BDEC028B 		vldm	sp!, {d8}
 3372              		.cfi_restore 80
 3373              		.cfi_restore 81
 3374              		.cfi_def_cfa_offset 12
 3375 007e 30BD     		pop	{r4, r5, pc}
 3376              	.LVL234:
 3377              	.L290:
 3378              		.cfi_restore_state
 3379              		.loc 1 698 0
 3380 0080 0649     		ldr	r1, .L291+4
 3381              		.loc 1 699 0
 3382 0082 0B4B     		ldr	r3, .L291+24
 3383              		.loc 1 698 0
 3384 0084 0A20     		movs	r0, #10
 3385              		.loc 1 699 0
 3386 0086 0022     		movs	r2, #0
 3387              		.loc 1 698 0
 3388 0088 0870     		strb	r0, [r1]
 3389              		.loc 1 699 0
 3390 008a 1A70     		strb	r2, [r3]
 3391              		.loc 1 700 0
 3392 008c FFF7FEFF 		bl	stop_pwm_hw
 3393              	.LVL235:
 3394              		.loc 1 716 0
 3395 0090 03B0     		add	sp, sp, #12
 3396              		.cfi_def_cfa_offset 20
 3397              		@ sp needed
 3398 0092 BDEC028B 		vldm	sp!, {d8}
 3399              		.cfi_restore 80
 3400              		.cfi_restore 81
 3401              		.cfi_def_cfa_offset 12
 3402 0096 30BD     		pop	{r4, r5, pc}
 3403              	.L292:
 3404              		.align	2
 3405              	.L291:
 3406 0098 00000000 		.word	.LANCHOR0
 3407 009c 00000000 		.word	.LANCHOR14
 3408 00a0 DB0F4940 		.word	1078530011
 3409 00a4 00003443 		.word	1127481344
 3410 00a8 00000000 		.word	.LANCHOR35
 3411 00ac 00000000 		.word	.LANCHOR23
 3412 00b0 00000000 		.word	.LANCHOR7
 3413              		.cfi_endproc
 3414              	.LFE272:
 3415              		.size	mcpwm_foc_set_openloop_phase, .-mcpwm_foc_set_openloop_phase
 3416              		.section	.text.mcpwm_foc_set_current_offsets,"ax",%progbits
 3417              		.align	1
 3418              		.p2align 4,,15
 3419              		.global	mcpwm_foc_set_current_offsets
 3420              		.syntax unified
ARM GAS  /tmp/ccDgV6Fa.s 			page 61


 3421              		.thumb
 3422              		.thumb_func
 3423              		.fpu fpv4-sp-d16
 3424              		.type	mcpwm_foc_set_current_offsets, %function
 3425              	mcpwm_foc_set_current_offsets:
 3426              	.LFB273:
 3427              		.loc 1 725 0
 3428              		.cfi_startproc
 3429              		@ args = 0, pretend = 0, frame = 16
 3430              		@ frame_needed = 0, uses_anonymous_args = 0
 3431              		@ link register save eliminated.
 3432              	.LVL236:
 3433 0000 84B0     		sub	sp, sp, #16
 3434              		.cfi_def_cfa_offset 16
 3435              		.loc 1 726 0
 3436 0002 074B     		ldr	r3, .L295
 3437              		.loc 1 725 0
 3438 0004 0390     		str	r0, [sp, #12]
 3439 0006 0291     		str	r1, [sp, #8]
 3440 0008 0192     		str	r2, [sp, #4]
 3441              		.loc 1 726 0
 3442 000a 039A     		ldr	r2, [sp, #12]
 3443              	.LVL237:
 3444 000c 1A60     		str	r2, [r3]
 3445              	.LVL238:
 3446              		.loc 1 727 0
 3447 000e 054B     		ldr	r3, .L295+4
 3448 0010 029A     		ldr	r2, [sp, #8]
 3449 0012 1A60     		str	r2, [r3]
 3450              		.loc 1 729 0
 3451 0014 019A     		ldr	r2, [sp, #4]
 3452 0016 044B     		ldr	r3, .L295+8
 3453 0018 1A60     		str	r2, [r3]
 3454              		.loc 1 733 0
 3455 001a 04B0     		add	sp, sp, #16
 3456              		.cfi_def_cfa_offset 0
 3457              		@ sp needed
 3458 001c 7047     		bx	lr
 3459              	.L296:
 3460 001e 00BF     		.align	2
 3461              	.L295:
 3462 0020 00000000 		.word	.LANCHOR48
 3463 0024 00000000 		.word	.LANCHOR49
 3464 0028 00000000 		.word	.LANCHOR50
 3465              		.cfi_endproc
 3466              	.LFE273:
 3467              		.size	mcpwm_foc_set_current_offsets, .-mcpwm_foc_set_current_offsets
 3468              		.section	.text.mcpwm_foc_set_openloop_duty,"ax",%progbits
 3469              		.align	1
 3470              		.p2align 4,,15
 3471              		.global	mcpwm_foc_set_openloop_duty
 3472              		.syntax unified
 3473              		.thumb
 3474              		.thumb_func
 3475              		.fpu fpv4-sp-d16
 3476              		.type	mcpwm_foc_set_openloop_duty, %function
 3477              	mcpwm_foc_set_openloop_duty:
ARM GAS  /tmp/ccDgV6Fa.s 			page 62


 3478              	.LFB274:
 3479              		.loc 1 744 0
 3480              		.cfi_startproc
 3481              		@ args = 0, pretend = 0, frame = 0
 3482              		@ frame_needed = 0, uses_anonymous_args = 0
 3483              		@ link register save eliminated.
 3484              	.LVL239:
 3485              		.loc 1 747 0
 3486 0000 DFED0B7A 		vldr.32	s15, .L303
 3487 0004 0B4A     		ldr	r2, .L303+4
 3488              		.loc 1 745 0
 3489 0006 0C48     		ldr	r0, .L303+8
 3490              		.loc 1 746 0
 3491 0008 0C49     		ldr	r1, .L303+12
 3492              		.loc 1 749 0
 3493 000a 0D4B     		ldr	r3, .L303+16
 3494              		.loc 1 747 0
 3495 000c 60EEA70A 		vmul.f32	s1, s1, s15
 3496              	.LVL240:
 3497              		.loc 1 744 0
 3498 0010 10B4     		push	{r4}
 3499              		.cfi_def_cfa_offset 4
 3500              		.cfi_offset 4, -4
 3501              		.loc 1 745 0
 3502 0012 0824     		movs	r4, #8
 3503 0014 0470     		strb	r4, [r0]
 3504              		.loc 1 746 0
 3505 0016 81ED000A 		vstr.32	s0, [r1]
 3506              		.loc 1 747 0
 3507 001a C2ED000A 		vstr.32	s1, [r2]
 3508              		.loc 1 749 0
 3509 001e 1A78     		ldrb	r2, [r3]	@ zero_extendqisi2
 3510              		.loc 1 752 0
 3511 0020 5DF8044B 		ldr	r4, [sp], #4
 3512              		.cfi_restore 4
 3513              		.cfi_def_cfa_offset 0
 3514              		.loc 1 749 0
 3515 0024 022A     		cmp	r2, #2
 3516              		.loc 1 750 0
 3517 0026 1CBF     		itt	ne
 3518 0028 0222     		movne	r2, #2
 3519 002a 1A70     		strbne	r2, [r3]
 3520              		.loc 1 752 0
 3521 002c 7047     		bx	lr
 3522              	.L304:
 3523 002e 00BF     		.align	2
 3524              	.L303:
 3525 0030 5077D63D 		.word	1037465424
 3526 0034 00000000 		.word	.LANCHOR34
 3527 0038 00000000 		.word	.LANCHOR14
 3528 003c 00000000 		.word	.LANCHOR32
 3529 0040 00000000 		.word	.LANCHOR7
 3530              		.cfi_endproc
 3531              	.LFE274:
 3532              		.size	mcpwm_foc_set_openloop_duty, .-mcpwm_foc_set_openloop_duty
 3533              		.section	.text.mcpwm_foc_set_openloop_duty_phase,"ax",%progbits
 3534              		.align	1
ARM GAS  /tmp/ccDgV6Fa.s 			page 63


 3535              		.p2align 4,,15
 3536              		.global	mcpwm_foc_set_openloop_duty_phase
 3537              		.syntax unified
 3538              		.thumb
 3539              		.thumb_func
 3540              		.fpu fpv4-sp-d16
 3541              		.type	mcpwm_foc_set_openloop_duty_phase, %function
 3542              	mcpwm_foc_set_openloop_duty_phase:
 3543              	.LFB275:
 3544              		.loc 1 763 0
 3545              		.cfi_startproc
 3546              		@ args = 0, pretend = 0, frame = 0
 3547              		@ frame_needed = 0, uses_anonymous_args = 0
 3548              	.LVL241:
 3549              		.loc 1 766 0
 3550 0000 DFED0D7A 		vldr.32	s15, .L311
 3551 0004 9FED0D7A 		vldr.32	s14, .L311+4
 3552 0008 0D4B     		ldr	r3, .L311+8
 3553              		.loc 1 765 0
 3554 000a 0E4A     		ldr	r2, .L311+12
 3555              		.loc 1 764 0
 3556 000c 0E49     		ldr	r1, .L311+16
 3557              		.loc 1 766 0
 3558 000e 60EEA70A 		vmul.f32	s1, s1, s15
 3559              	.LVL242:
 3560              		.loc 1 763 0
 3561 0012 10B5     		push	{r4, lr}
 3562              		.cfi_def_cfa_offset 8
 3563              		.cfi_offset 4, -8
 3564              		.cfi_offset 14, -4
 3565              		.loc 1 766 0
 3566 0014 C0EE877A 		vdiv.f32	s15, s1, s14
 3567              		.loc 1 767 0
 3568 0018 1846     		mov	r0, r3
 3569              		.loc 1 764 0
 3570 001a 0924     		movs	r4, #9
 3571 001c 0C70     		strb	r4, [r1]
 3572              		.loc 1 765 0
 3573 001e 82ED000A 		vstr.32	s0, [r2]
 3574              		.loc 1 766 0
 3575 0022 C3ED007A 		vstr.32	s15, [r3]
 3576              		.loc 1 767 0
 3577 0026 FFF7FEFF 		bl	utils_norm_angle_rad
 3578              	.LVL243:
 3579              		.loc 1 769 0
 3580 002a 084B     		ldr	r3, .L311+20
 3581 002c 1A78     		ldrb	r2, [r3]	@ zero_extendqisi2
 3582 002e 022A     		cmp	r2, #2
 3583              		.loc 1 770 0
 3584 0030 1CBF     		itt	ne
 3585 0032 0222     		movne	r2, #2
 3586 0034 1A70     		strbne	r2, [r3]
 3587              		.loc 1 772 0
 3588 0036 10BD     		pop	{r4, pc}
 3589              	.L312:
 3590              		.align	2
 3591              	.L311:
ARM GAS  /tmp/ccDgV6Fa.s 			page 64


 3592 0038 DB0F4940 		.word	1078530011
 3593 003c 00003443 		.word	1127481344
 3594 0040 00000000 		.word	.LANCHOR35
 3595 0044 00000000 		.word	.LANCHOR32
 3596 0048 00000000 		.word	.LANCHOR14
 3597 004c 00000000 		.word	.LANCHOR7
 3598              		.cfi_endproc
 3599              	.LFE275:
 3600              		.size	mcpwm_foc_set_openloop_duty_phase, .-mcpwm_foc_set_openloop_duty_phase
 3601              		.section	.text.mcpwm_foc_get_duty_cycle_set,"ax",%progbits
 3602              		.align	1
 3603              		.p2align 4,,15
 3604              		.global	mcpwm_foc_get_duty_cycle_set
 3605              		.syntax unified
 3606              		.thumb
 3607              		.thumb_func
 3608              		.fpu fpv4-sp-d16
 3609              		.type	mcpwm_foc_get_duty_cycle_set, %function
 3610              	mcpwm_foc_get_duty_cycle_set:
 3611              	.LFB276:
 3612              		.loc 1 774 0
 3613              		.cfi_startproc
 3614              		@ args = 0, pretend = 0, frame = 0
 3615              		@ frame_needed = 0, uses_anonymous_args = 0
 3616              		@ link register save eliminated.
 3617              		.loc 1 775 0
 3618 0000 014B     		ldr	r3, .L314
 3619 0002 93ED000A 		vldr.32	s0, [r3]
 3620              		.loc 1 776 0
 3621 0006 7047     		bx	lr
 3622              	.L315:
 3623              		.align	2
 3624              	.L314:
 3625 0008 00000000 		.word	.LANCHOR32
 3626              		.cfi_endproc
 3627              	.LFE276:
 3628              		.size	mcpwm_foc_get_duty_cycle_set, .-mcpwm_foc_get_duty_cycle_set
 3629              		.section	.text.mcpwm_foc_get_duty_cycle_now,"ax",%progbits
 3630              		.align	1
 3631              		.p2align 4,,15
 3632              		.global	mcpwm_foc_get_duty_cycle_now
 3633              		.syntax unified
 3634              		.thumb
 3635              		.thumb_func
 3636              		.fpu fpv4-sp-d16
 3637              		.type	mcpwm_foc_get_duty_cycle_now, %function
 3638              	mcpwm_foc_get_duty_cycle_now:
 3639              	.LFB277:
 3640              		.loc 1 778 0
 3641              		.cfi_startproc
 3642              		@ args = 0, pretend = 0, frame = 0
 3643              		@ frame_needed = 0, uses_anonymous_args = 0
 3644              		@ link register save eliminated.
 3645              		.loc 1 779 0
 3646 0000 014B     		ldr	r3, .L317
 3647 0002 93ED030A 		vldr.32	s0, [r3, #12]
 3648              		.loc 1 780 0
ARM GAS  /tmp/ccDgV6Fa.s 			page 65


 3649 0006 7047     		bx	lr
 3650              	.L318:
 3651              		.align	2
 3652              	.L317:
 3653 0008 00000000 		.word	.LANCHOR10
 3654              		.cfi_endproc
 3655              	.LFE277:
 3656              		.size	mcpwm_foc_get_duty_cycle_now, .-mcpwm_foc_get_duty_cycle_now
 3657              		.section	.text.mcpwm_foc_get_mod_q_now,"ax",%progbits
 3658              		.align	1
 3659              		.p2align 4,,15
 3660              		.global	mcpwm_foc_get_mod_q_now
 3661              		.syntax unified
 3662              		.thumb
 3663              		.thumb_func
 3664              		.fpu fpv4-sp-d16
 3665              		.type	mcpwm_foc_get_mod_q_now, %function
 3666              	mcpwm_foc_get_mod_q_now:
 3667              	.LFB278:
 3668              		.loc 1 782 0
 3669              		.cfi_startproc
 3670              		@ args = 0, pretend = 0, frame = 0
 3671              		@ frame_needed = 0, uses_anonymous_args = 0
 3672              		@ link register save eliminated.
 3673              		.loc 1 783 0
 3674 0000 014B     		ldr	r3, .L320
 3675 0002 93ED0E0A 		vldr.32	s0, [r3, #56]
 3676              		.loc 1 784 0
 3677 0006 7047     		bx	lr
 3678              	.L321:
 3679              		.align	2
 3680              	.L320:
 3681 0008 00000000 		.word	.LANCHOR10
 3682              		.cfi_endproc
 3683              	.LFE278:
 3684              		.size	mcpwm_foc_get_mod_q_now, .-mcpwm_foc_get_mod_q_now
 3685              		.section	.text.mcpwm_foc_get_pid_pos_set,"ax",%progbits
 3686              		.align	1
 3687              		.p2align 4,,15
 3688              		.global	mcpwm_foc_get_pid_pos_set
 3689              		.syntax unified
 3690              		.thumb
 3691              		.thumb_func
 3692              		.fpu fpv4-sp-d16
 3693              		.type	mcpwm_foc_get_pid_pos_set, %function
 3694              	mcpwm_foc_get_pid_pos_set:
 3695              	.LFB279:
 3696              		.loc 1 786 0
 3697              		.cfi_startproc
 3698              		@ args = 0, pretend = 0, frame = 0
 3699              		@ frame_needed = 0, uses_anonymous_args = 0
 3700              		@ link register save eliminated.
 3701              		.loc 1 787 0
 3702 0000 014B     		ldr	r3, .L323
 3703 0002 93ED000A 		vldr.32	s0, [r3]
 3704              		.loc 1 788 0
 3705 0006 7047     		bx	lr
ARM GAS  /tmp/ccDgV6Fa.s 			page 66


 3706              	.L324:
 3707              		.align	2
 3708              	.L323:
 3709 0008 00000000 		.word	.LANCHOR36
 3710              		.cfi_endproc
 3711              	.LFE279:
 3712              		.size	mcpwm_foc_get_pid_pos_set, .-mcpwm_foc_get_pid_pos_set
 3713              		.section	.text.mcpwm_foc_get_pid_pos_now,"ax",%progbits
 3714              		.align	1
 3715              		.p2align 4,,15
 3716              		.global	mcpwm_foc_get_pid_pos_now
 3717              		.syntax unified
 3718              		.thumb
 3719              		.thumb_func
 3720              		.fpu fpv4-sp-d16
 3721              		.type	mcpwm_foc_get_pid_pos_now, %function
 3722              	mcpwm_foc_get_pid_pos_now:
 3723              	.LFB280:
 3724              		.loc 1 790 0
 3725              		.cfi_startproc
 3726              		@ args = 0, pretend = 0, frame = 0
 3727              		@ frame_needed = 0, uses_anonymous_args = 0
 3728              		@ link register save eliminated.
 3729              		.loc 1 791 0
 3730 0000 014B     		ldr	r3, .L326
 3731 0002 93ED000A 		vldr.32	s0, [r3]
 3732              		.loc 1 792 0
 3733 0006 7047     		bx	lr
 3734              	.L327:
 3735              		.align	2
 3736              	.L326:
 3737 0008 00000000 		.word	.LANCHOR46
 3738              		.cfi_endproc
 3739              	.LFE280:
 3740              		.size	mcpwm_foc_get_pid_pos_now, .-mcpwm_foc_get_pid_pos_now
 3741              		.section	.text.mcpwm_foc_get_switching_frequency_now,"ax",%progbits
 3742              		.align	1
 3743              		.p2align 4,,15
 3744              		.global	mcpwm_foc_get_switching_frequency_now
 3745              		.syntax unified
 3746              		.thumb
 3747              		.thumb_func
 3748              		.fpu fpv4-sp-d16
 3749              		.type	mcpwm_foc_get_switching_frequency_now, %function
 3750              	mcpwm_foc_get_switching_frequency_now:
 3751              	.LFB281:
 3752              		.loc 1 800 0
 3753              		.cfi_startproc
 3754              		@ args = 0, pretend = 0, frame = 0
 3755              		@ frame_needed = 0, uses_anonymous_args = 0
 3756              		@ link register save eliminated.
 3757              		.loc 1 801 0
 3758 0000 024B     		ldr	r3, .L329
 3759 0002 1B68     		ldr	r3, [r3]
 3760 0004 93ED2D0A 		vldr.32	s0, [r3, #180]
 3761              		.loc 1 802 0
 3762 0008 7047     		bx	lr
ARM GAS  /tmp/ccDgV6Fa.s 			page 67


 3763              	.L330:
 3764 000a 00BF     		.align	2
 3765              	.L329:
 3766 000c 00000000 		.word	.LANCHOR0
 3767              		.cfi_endproc
 3768              	.LFE281:
 3769              		.size	mcpwm_foc_get_switching_frequency_now, .-mcpwm_foc_get_switching_frequency_now
 3770              		.section	.text.mcpwm_foc_get_sampling_frequency_now,"ax",%progbits
 3771              		.align	1
 3772              		.p2align 4,,15
 3773              		.global	mcpwm_foc_get_sampling_frequency_now
 3774              		.syntax unified
 3775              		.thumb
 3776              		.thumb_func
 3777              		.fpu fpv4-sp-d16
 3778              		.type	mcpwm_foc_get_sampling_frequency_now, %function
 3779              	mcpwm_foc_get_sampling_frequency_now:
 3780              	.LFB282:
 3781              		.loc 1 810 0
 3782              		.cfi_startproc
 3783              		@ args = 0, pretend = 0, frame = 0
 3784              		@ frame_needed = 0, uses_anonymous_args = 0
 3785              		@ link register save eliminated.
 3786              		.loc 1 818 0
 3787 0000 044B     		ldr	r3, .L332
 3788 0002 1B68     		ldr	r3, [r3]
 3789 0004 93ED2D0A 		vldr.32	s0, [r3, #180]
 3790 0008 F6EE007A 		vmov.f32	s15, #5.0e-1
 3791              		.loc 1 820 0
 3792 000c 20EE270A 		vmul.f32	s0, s0, s15
 3793 0010 7047     		bx	lr
 3794              	.L333:
 3795 0012 00BF     		.align	2
 3796              	.L332:
 3797 0014 00000000 		.word	.LANCHOR0
 3798              		.cfi_endproc
 3799              	.LFE282:
 3800              		.size	mcpwm_foc_get_sampling_frequency_now, .-mcpwm_foc_get_sampling_frequency_now
 3801              		.section	.text.mcpwm_foc_get_ts,"ax",%progbits
 3802              		.align	1
 3803              		.p2align 4,,15
 3804              		.global	mcpwm_foc_get_ts
 3805              		.syntax unified
 3806              		.thumb
 3807              		.thumb_func
 3808              		.fpu fpv4-sp-d16
 3809              		.type	mcpwm_foc_get_ts, %function
 3810              	mcpwm_foc_get_ts:
 3811              	.LFB283:
 3812              		.loc 1 825 0
 3813              		.cfi_startproc
 3814              		@ args = 0, pretend = 0, frame = 0
 3815              		@ frame_needed = 0, uses_anonymous_args = 0
 3816              		@ link register save eliminated.
 3817              		.loc 1 833 0
 3818 0000 044B     		ldr	r3, .L335
 3819 0002 1B68     		ldr	r3, [r3]
ARM GAS  /tmp/ccDgV6Fa.s 			page 68


 3820 0004 D3ED2D7A 		vldr.32	s15, [r3, #180]
 3821 0008 B7EE000A 		vmov.f32	s0, #1.0e+0
 3822              		.loc 1 835 0
 3823 000c 80EE270A 		vdiv.f32	s0, s0, s15
 3824 0010 7047     		bx	lr
 3825              	.L336:
 3826 0012 00BF     		.align	2
 3827              	.L335:
 3828 0014 00000000 		.word	.LANCHOR0
 3829              		.cfi_endproc
 3830              	.LFE283:
 3831              		.size	mcpwm_foc_get_ts, .-mcpwm_foc_get_ts
 3832              		.section	.text.mcpwm_foc_is_using_encoder,"ax",%progbits
 3833              		.align	1
 3834              		.p2align 4,,15
 3835              		.global	mcpwm_foc_is_using_encoder
 3836              		.syntax unified
 3837              		.thumb
 3838              		.thumb_func
 3839              		.fpu fpv4-sp-d16
 3840              		.type	mcpwm_foc_is_using_encoder, %function
 3841              	mcpwm_foc_is_using_encoder:
 3842              	.LFB284:
 3843              		.loc 1 837 0
 3844              		.cfi_startproc
 3845              		@ args = 0, pretend = 0, frame = 0
 3846              		@ frame_needed = 0, uses_anonymous_args = 0
 3847              		@ link register save eliminated.
 3848              		.loc 1 838 0
 3849 0000 014B     		ldr	r3, .L338
 3850 0002 1878     		ldrb	r0, [r3]	@ zero_extendqisi2
 3851              		.loc 1 839 0
 3852 0004 7047     		bx	lr
 3853              	.L339:
 3854 0006 00BF     		.align	2
 3855              	.L338:
 3856 0008 00000000 		.word	.LANCHOR1
 3857              		.cfi_endproc
 3858              	.LFE284:
 3859              		.size	mcpwm_foc_is_using_encoder, .-mcpwm_foc_is_using_encoder
 3860              		.section	.text.mcpwm_foc_get_rpm,"ax",%progbits
 3861              		.align	1
 3862              		.p2align 4,,15
 3863              		.global	mcpwm_foc_get_rpm
 3864              		.syntax unified
 3865              		.thumb
 3866              		.thumb_func
 3867              		.fpu fpv4-sp-d16
 3868              		.type	mcpwm_foc_get_rpm, %function
 3869              	mcpwm_foc_get_rpm:
 3870              	.LFB285:
 3871              		.loc 1 849 0
 3872              		.cfi_startproc
 3873              		@ args = 0, pretend = 0, frame = 0
 3874              		@ frame_needed = 0, uses_anonymous_args = 0
 3875              		@ link register save eliminated.
 3876              		.loc 1 850 0
ARM GAS  /tmp/ccDgV6Fa.s 			page 69


 3877 0000 034B     		ldr	r3, .L341
 3878 0002 DFED047A 		vldr.32	s15, .L341+4
 3879 0006 93ED000A 		vldr.32	s0, [r3]
 3880              		.loc 1 851 0
 3881 000a 80EE270A 		vdiv.f32	s0, s0, s15
 3882 000e 7047     		bx	lr
 3883              	.L342:
 3884              		.align	2
 3885              	.L341:
 3886 0010 00000000 		.word	.LANCHOR12
 3887 0014 5077D63D 		.word	1037465424
 3888              		.cfi_endproc
 3889              	.LFE285:
 3890              		.size	mcpwm_foc_get_rpm, .-mcpwm_foc_get_rpm
 3891              		.section	.text.mcpwm_foc_get_tot_current,"ax",%progbits
 3892              		.align	1
 3893              		.p2align 4,,15
 3894              		.global	mcpwm_foc_get_tot_current
 3895              		.syntax unified
 3896              		.thumb
 3897              		.thumb_func
 3898              		.fpu fpv4-sp-d16
 3899              		.type	mcpwm_foc_get_tot_current, %function
 3900              	mcpwm_foc_get_tot_current:
 3901              	.LFB286:
 3902              		.loc 1 861 0
 3903              		.cfi_startproc
 3904              		@ args = 0, pretend = 0, frame = 0
 3905              		@ frame_needed = 0, uses_anonymous_args = 0
 3906              		@ link register save eliminated.
 3907              		.loc 1 862 0
 3908 0000 094B     		ldr	r3, .L346
 3909 0002 D3ED147A 		vldr.32	s15, [r3, #80]
 3910 0006 93ED100A 		vldr.32	s0, [r3, #64]
 3911 000a F5EEC07A 		vcmpe.f32	s15, #0
 3912 000e F1EE10FA 		vmrs	APSR_nzcv, FPSCR
 3913 0012 B7EE007A 		vmov.f32	s14, #1.0e+0
 3914 0016 FFEE007A 		vmov.f32	s15, #-1.0e+0
 3915 001a 58BF     		it	pl
 3916 001c F0EE477A 		vmovpl.f32	s15, s14
 3917              		.loc 1 863 0
 3918 0020 20EE270A 		vmul.f32	s0, s0, s15
 3919 0024 7047     		bx	lr
 3920              	.L347:
 3921 0026 00BF     		.align	2
 3922              	.L346:
 3923 0028 00000000 		.word	.LANCHOR10
 3924              		.cfi_endproc
 3925              	.LFE286:
 3926              		.size	mcpwm_foc_get_tot_current, .-mcpwm_foc_get_tot_current
 3927              		.section	.text.mcpwm_foc_get_tot_current_filtered,"ax",%progbits
 3928              		.align	1
 3929              		.p2align 4,,15
 3930              		.global	mcpwm_foc_get_tot_current_filtered
 3931              		.syntax unified
 3932              		.thumb
 3933              		.thumb_func
ARM GAS  /tmp/ccDgV6Fa.s 			page 70


 3934              		.fpu fpv4-sp-d16
 3935              		.type	mcpwm_foc_get_tot_current_filtered, %function
 3936              	mcpwm_foc_get_tot_current_filtered:
 3937              	.LFB287:
 3938              		.loc 1 873 0
 3939              		.cfi_startproc
 3940              		@ args = 0, pretend = 0, frame = 0
 3941              		@ frame_needed = 0, uses_anonymous_args = 0
 3942              		@ link register save eliminated.
 3943              		.loc 1 874 0
 3944 0000 094B     		ldr	r3, .L351
 3945 0002 D3ED147A 		vldr.32	s15, [r3, #80]
 3946 0006 93ED120A 		vldr.32	s0, [r3, #72]
 3947 000a F5EEC07A 		vcmpe.f32	s15, #0
 3948 000e F1EE10FA 		vmrs	APSR_nzcv, FPSCR
 3949 0012 B7EE007A 		vmov.f32	s14, #1.0e+0
 3950 0016 FFEE007A 		vmov.f32	s15, #-1.0e+0
 3951 001a 58BF     		it	pl
 3952 001c F0EE477A 		vmovpl.f32	s15, s14
 3953              		.loc 1 875 0
 3954 0020 20EE270A 		vmul.f32	s0, s0, s15
 3955 0024 7047     		bx	lr
 3956              	.L352:
 3957 0026 00BF     		.align	2
 3958              	.L351:
 3959 0028 00000000 		.word	.LANCHOR10
 3960              		.cfi_endproc
 3961              	.LFE287:
 3962              		.size	mcpwm_foc_get_tot_current_filtered, .-mcpwm_foc_get_tot_current_filtered
 3963              		.section	.text.mcpwm_foc_get_abs_motor_current,"ax",%progbits
 3964              		.align	1
 3965              		.p2align 4,,15
 3966              		.global	mcpwm_foc_get_abs_motor_current
 3967              		.syntax unified
 3968              		.thumb
 3969              		.thumb_func
 3970              		.fpu fpv4-sp-d16
 3971              		.type	mcpwm_foc_get_abs_motor_current, %function
 3972              	mcpwm_foc_get_abs_motor_current:
 3973              	.LFB288:
 3974              		.loc 1 884 0
 3975              		.cfi_startproc
 3976              		@ args = 0, pretend = 0, frame = 0
 3977              		@ frame_needed = 0, uses_anonymous_args = 0
 3978              		@ link register save eliminated.
 3979              		.loc 1 885 0
 3980 0000 014B     		ldr	r3, .L354
 3981 0002 93ED070A 		vldr.32	s0, [r3, #28]
 3982              		.loc 1 886 0
 3983 0006 7047     		bx	lr
 3984              	.L355:
 3985              		.align	2
 3986              	.L354:
 3987 0008 00000000 		.word	.LANCHOR10
 3988              		.cfi_endproc
 3989              	.LFE288:
 3990              		.size	mcpwm_foc_get_abs_motor_current, .-mcpwm_foc_get_abs_motor_current
ARM GAS  /tmp/ccDgV6Fa.s 			page 71


 3991              		.section	.text.mcpwm_foc_get_abs_motor_current_unbalance,"ax",%progbits
 3992              		.align	1
 3993              		.p2align 4,,15
 3994              		.global	mcpwm_foc_get_abs_motor_current_unbalance
 3995              		.syntax unified
 3996              		.thumb
 3997              		.thumb_func
 3998              		.fpu fpv4-sp-d16
 3999              		.type	mcpwm_foc_get_abs_motor_current_unbalance, %function
 4000              	mcpwm_foc_get_abs_motor_current_unbalance:
 4001              	.LFB289:
 4002              		.loc 1 894 0
 4003              		.cfi_startproc
 4004              		@ args = 0, pretend = 0, frame = 0
 4005              		@ frame_needed = 0, uses_anonymous_args = 0
 4006              		@ link register save eliminated.
 4007              		.loc 1 895 0
 4008 0000 044B     		ldr	r3, .L357
 4009 0002 DFED057A 		vldr.32	s15, .L357+4
 4010 0006 93ED000A 		vldr.32	s0, [r3]	@ int
 4011 000a B8EEC00A 		vcvt.f32.s32	s0, s0
 4012              		.loc 1 896 0
 4013 000e 20EE270A 		vmul.f32	s0, s0, s15
 4014 0012 7047     		bx	lr
 4015              	.L358:
 4016              		.align	2
 4017              	.L357:
 4018 0014 00000000 		.word	.LANCHOR27
 4019 0018 AD70243E 		.word	1042575533
 4020              		.cfi_endproc
 4021              	.LFE289:
 4022              		.size	mcpwm_foc_get_abs_motor_current_unbalance, .-mcpwm_foc_get_abs_motor_current_unbalance
 4023              		.section	.text.mcpwm_foc_get_abs_motor_voltage,"ax",%progbits
 4024              		.align	1
 4025              		.p2align 4,,15
 4026              		.global	mcpwm_foc_get_abs_motor_voltage
 4027              		.syntax unified
 4028              		.thumb
 4029              		.thumb_func
 4030              		.fpu fpv4-sp-d16
 4031              		.type	mcpwm_foc_get_abs_motor_voltage, %function
 4032              	mcpwm_foc_get_abs_motor_voltage:
 4033              	.LFB290:
 4034              		.loc 1 904 0
 4035              		.cfi_startproc
 4036              		@ args = 0, pretend = 0, frame = 0
 4037              		@ frame_needed = 0, uses_anonymous_args = 0
 4038 0000 08B5     		push	{r3, lr}
 4039              		.cfi_def_cfa_offset 8
 4040              		.cfi_offset 3, -8
 4041              		.cfi_offset 14, -4
 4042              		.loc 1 905 0
 4043 0002 0D4B     		ldr	r3, .L363
 4044 0004 D3ED137A 		vldr.32	s15, [r3, #76]
 4045              	.LVL244:
 4046              		.loc 1 906 0
 4047 0008 93ED140A 		vldr.32	s0, [r3, #80]
ARM GAS  /tmp/ccDgV6Fa.s 			page 72


 4048              	.LVL245:
 4049              		.loc 1 907 0
 4050 000c 20EE000A 		vmul.f32	s0, s0, s0
 4051              	.LVL246:
 4052              		.loc 1 904 0
 4053 0010 2DED028B 		vpush.64	{d8}
 4054              		.cfi_def_cfa_offset 16
 4055              		.cfi_offset 80, -16
 4056              		.cfi_offset 81, -12
 4057              		.loc 1 907 0
 4058 0014 A7EEA70A 		vfma.f32	s0, s15, s15
 4059 0018 B5EE400A 		vcmp.f32	s0, #0
 4060 001c F1EE10FA 		vmrs	APSR_nzcv, FPSCR
 4061 0020 B1EEC08A 		vsqrt.f32	s16, s0
 4062 0024 04D4     		bmi	.L362
 4063              	.LVL247:
 4064              	.L359:
 4065              		.loc 1 908 0
 4066 0026 B0EE480A 		vmov.f32	s0, s16
 4067 002a BDEC028B 		vldm	sp!, {d8}
 4068              		.cfi_remember_state
 4069              		.cfi_restore 80
 4070              		.cfi_restore 81
 4071              		.cfi_def_cfa_offset 8
 4072 002e 08BD     		pop	{r3, pc}
 4073              	.LVL248:
 4074              	.L362:
 4075              		.cfi_restore_state
 4076              		.loc 1 907 0
 4077 0030 FFF7FEFF 		bl	sqrtf
 4078              	.LVL249:
 4079 0034 F7E7     		b	.L359
 4080              	.L364:
 4081 0036 00BF     		.align	2
 4082              	.L363:
 4083 0038 00000000 		.word	.LANCHOR10
 4084              		.cfi_endproc
 4085              	.LFE290:
 4086              		.size	mcpwm_foc_get_abs_motor_voltage, .-mcpwm_foc_get_abs_motor_voltage
 4087              		.section	.text.mcpwm_foc_get_abs_motor_current_filtered,"ax",%progbits
 4088              		.align	1
 4089              		.p2align 4,,15
 4090              		.global	mcpwm_foc_get_abs_motor_current_filtered
 4091              		.syntax unified
 4092              		.thumb
 4093              		.thumb_func
 4094              		.fpu fpv4-sp-d16
 4095              		.type	mcpwm_foc_get_abs_motor_current_filtered, %function
 4096              	mcpwm_foc_get_abs_motor_current_filtered:
 4097              	.LFB291:
 4098              		.loc 1 917 0
 4099              		.cfi_startproc
 4100              		@ args = 0, pretend = 0, frame = 0
 4101              		@ frame_needed = 0, uses_anonymous_args = 0
 4102              		@ link register save eliminated.
 4103              		.loc 1 918 0
 4104 0000 014B     		ldr	r3, .L366
ARM GAS  /tmp/ccDgV6Fa.s 			page 73


 4105 0002 93ED080A 		vldr.32	s0, [r3, #32]
 4106              		.loc 1 919 0
 4107 0006 7047     		bx	lr
 4108              	.L367:
 4109              		.align	2
 4110              	.L366:
 4111 0008 00000000 		.word	.LANCHOR10
 4112              		.cfi_endproc
 4113              	.LFE291:
 4114              		.size	mcpwm_foc_get_abs_motor_current_filtered, .-mcpwm_foc_get_abs_motor_current_filtered
 4115              		.section	.text.mcpwm_foc_get_tot_current_directional,"ax",%progbits
 4116              		.align	1
 4117              		.p2align 4,,15
 4118              		.global	mcpwm_foc_get_tot_current_directional
 4119              		.syntax unified
 4120              		.thumb
 4121              		.thumb_func
 4122              		.fpu fpv4-sp-d16
 4123              		.type	mcpwm_foc_get_tot_current_directional, %function
 4124              	mcpwm_foc_get_tot_current_directional:
 4125              	.LFB292:
 4126              		.loc 1 928 0
 4127              		.cfi_startproc
 4128              		@ args = 0, pretend = 0, frame = 0
 4129              		@ frame_needed = 0, uses_anonymous_args = 0
 4130              		@ link register save eliminated.
 4131              		.loc 1 929 0
 4132 0000 014B     		ldr	r3, .L369
 4133 0002 93ED100A 		vldr.32	s0, [r3, #64]
 4134              		.loc 1 930 0
 4135 0006 7047     		bx	lr
 4136              	.L370:
 4137              		.align	2
 4138              	.L369:
 4139 0008 00000000 		.word	.LANCHOR10
 4140              		.cfi_endproc
 4141              	.LFE292:
 4142              		.size	mcpwm_foc_get_tot_current_directional, .-mcpwm_foc_get_tot_current_directional
 4143              		.section	.text.mcpwm_foc_get_tot_current_directional_filtered,"ax",%progbits
 4144              		.align	1
 4145              		.p2align 4,,15
 4146              		.global	mcpwm_foc_get_tot_current_directional_filtered
 4147              		.syntax unified
 4148              		.thumb
 4149              		.thumb_func
 4150              		.fpu fpv4-sp-d16
 4151              		.type	mcpwm_foc_get_tot_current_directional_filtered, %function
 4152              	mcpwm_foc_get_tot_current_directional_filtered:
 4153              	.LFB293:
 4154              		.loc 1 939 0
 4155              		.cfi_startproc
 4156              		@ args = 0, pretend = 0, frame = 0
 4157              		@ frame_needed = 0, uses_anonymous_args = 0
 4158              		@ link register save eliminated.
 4159              		.loc 1 940 0
 4160 0000 014B     		ldr	r3, .L372
 4161 0002 93ED120A 		vldr.32	s0, [r3, #72]
ARM GAS  /tmp/ccDgV6Fa.s 			page 74


 4162              		.loc 1 941 0
 4163 0006 7047     		bx	lr
 4164              	.L373:
 4165              		.align	2
 4166              	.L372:
 4167 0008 00000000 		.word	.LANCHOR10
 4168              		.cfi_endproc
 4169              	.LFE293:
 4170              		.size	mcpwm_foc_get_tot_current_directional_filtered, .-mcpwm_foc_get_tot_current_directional_filt
 4171              		.section	.text.mcpwm_foc_get_id,"ax",%progbits
 4172              		.align	1
 4173              		.p2align 4,,15
 4174              		.global	mcpwm_foc_get_id
 4175              		.syntax unified
 4176              		.thumb
 4177              		.thumb_func
 4178              		.fpu fpv4-sp-d16
 4179              		.type	mcpwm_foc_get_id, %function
 4180              	mcpwm_foc_get_id:
 4181              	.LFB294:
 4182              		.loc 1 949 0
 4183              		.cfi_startproc
 4184              		@ args = 0, pretend = 0, frame = 0
 4185              		@ frame_needed = 0, uses_anonymous_args = 0
 4186              		@ link register save eliminated.
 4187              		.loc 1 950 0
 4188 0000 014B     		ldr	r3, .L375
 4189 0002 93ED0F0A 		vldr.32	s0, [r3, #60]
 4190              		.loc 1 951 0
 4191 0006 7047     		bx	lr
 4192              	.L376:
 4193              		.align	2
 4194              	.L375:
 4195 0008 00000000 		.word	.LANCHOR10
 4196              		.cfi_endproc
 4197              	.LFE294:
 4198              		.size	mcpwm_foc_get_id, .-mcpwm_foc_get_id
 4199              		.section	.text.mcpwm_foc_get_iq,"ax",%progbits
 4200              		.align	1
 4201              		.p2align 4,,15
 4202              		.global	mcpwm_foc_get_iq
 4203              		.syntax unified
 4204              		.thumb
 4205              		.thumb_func
 4206              		.fpu fpv4-sp-d16
 4207              		.type	mcpwm_foc_get_iq, %function
 4208              	mcpwm_foc_get_iq:
 4209              	.LFB334:
 4210              		.cfi_startproc
 4211              		@ args = 0, pretend = 0, frame = 0
 4212              		@ frame_needed = 0, uses_anonymous_args = 0
 4213              		@ link register save eliminated.
 4214 0000 014B     		ldr	r3, .L378
 4215 0002 93ED100A 		vldr.32	s0, [r3, #64]
 4216 0006 7047     		bx	lr
 4217              	.L379:
 4218              		.align	2
ARM GAS  /tmp/ccDgV6Fa.s 			page 75


 4219              	.L378:
 4220 0008 00000000 		.word	.LANCHOR10
 4221              		.cfi_endproc
 4222              	.LFE334:
 4223              		.size	mcpwm_foc_get_iq, .-mcpwm_foc_get_iq
 4224              		.section	.text.mcpwm_foc_get_tot_current_in,"ax",%progbits
 4225              		.align	1
 4226              		.p2align 4,,15
 4227              		.global	mcpwm_foc_get_tot_current_in
 4228              		.syntax unified
 4229              		.thumb
 4230              		.thumb_func
 4231              		.fpu fpv4-sp-d16
 4232              		.type	mcpwm_foc_get_tot_current_in, %function
 4233              	mcpwm_foc_get_tot_current_in:
 4234              	.LFB296:
 4235              		.loc 1 969 0
 4236              		.cfi_startproc
 4237              		@ args = 0, pretend = 0, frame = 0
 4238              		@ frame_needed = 0, uses_anonymous_args = 0
 4239              		@ link register save eliminated.
 4240              		.loc 1 970 0
 4241 0000 014B     		ldr	r3, .L381
 4242 0002 93ED090A 		vldr.32	s0, [r3, #36]
 4243              		.loc 1 971 0
 4244 0006 7047     		bx	lr
 4245              	.L382:
 4246              		.align	2
 4247              	.L381:
 4248 0008 00000000 		.word	.LANCHOR10
 4249              		.cfi_endproc
 4250              	.LFE296:
 4251              		.size	mcpwm_foc_get_tot_current_in, .-mcpwm_foc_get_tot_current_in
 4252              		.section	.text.mcpwm_foc_get_tot_current_in_filtered,"ax",%progbits
 4253              		.align	1
 4254              		.p2align 4,,15
 4255              		.global	mcpwm_foc_get_tot_current_in_filtered
 4256              		.syntax unified
 4257              		.thumb
 4258              		.thumb_func
 4259              		.fpu fpv4-sp-d16
 4260              		.type	mcpwm_foc_get_tot_current_in_filtered, %function
 4261              	mcpwm_foc_get_tot_current_in_filtered:
 4262              	.LFB336:
 4263              		.cfi_startproc
 4264              		@ args = 0, pretend = 0, frame = 0
 4265              		@ frame_needed = 0, uses_anonymous_args = 0
 4266              		@ link register save eliminated.
 4267 0000 014B     		ldr	r3, .L384
 4268 0002 93ED090A 		vldr.32	s0, [r3, #36]
 4269 0006 7047     		bx	lr
 4270              	.L385:
 4271              		.align	2
 4272              	.L384:
 4273 0008 00000000 		.word	.LANCHOR10
 4274              		.cfi_endproc
 4275              	.LFE336:
ARM GAS  /tmp/ccDgV6Fa.s 			page 76


 4276              		.size	mcpwm_foc_get_tot_current_in_filtered, .-mcpwm_foc_get_tot_current_in_filtered
 4277              		.section	.text.mcpwm_foc_set_tachometer_value,"ax",%progbits
 4278              		.align	1
 4279              		.p2align 4,,15
 4280              		.global	mcpwm_foc_set_tachometer_value
 4281              		.syntax unified
 4282              		.thumb
 4283              		.thumb_func
 4284              		.fpu fpv4-sp-d16
 4285              		.type	mcpwm_foc_set_tachometer_value, %function
 4286              	mcpwm_foc_set_tachometer_value:
 4287              	.LFB298:
 4288              		.loc 1 995 0
 4289              		.cfi_startproc
 4290              		@ args = 0, pretend = 0, frame = 0
 4291              		@ frame_needed = 0, uses_anonymous_args = 0
 4292              		@ link register save eliminated.
 4293              	.LVL250:
 4294              		.loc 1 996 0
 4295 0000 024B     		ldr	r3, .L387
 4296 0002 1A68     		ldr	r2, [r3]
 4297              	.LVL251:
 4298              		.loc 1 998 0
 4299 0004 1860     		str	r0, [r3]
 4300              		.loc 1 1001 0
 4301 0006 1046     		mov	r0, r2
 4302              	.LVL252:
 4303 0008 7047     		bx	lr
 4304              	.L388:
 4305 000a 00BF     		.align	2
 4306              	.L387:
 4307 000c 00000000 		.word	.LANCHOR43
 4308              		.cfi_endproc
 4309              	.LFE298:
 4310              		.size	mcpwm_foc_set_tachometer_value, .-mcpwm_foc_set_tachometer_value
 4311              		.section	.text.mcpwm_foc_get_tachometer_value,"ax",%progbits
 4312              		.align	1
 4313              		.p2align 4,,15
 4314              		.global	mcpwm_foc_get_tachometer_value
 4315              		.syntax unified
 4316              		.thumb
 4317              		.thumb_func
 4318              		.fpu fpv4-sp-d16
 4319              		.type	mcpwm_foc_get_tachometer_value, %function
 4320              	mcpwm_foc_get_tachometer_value:
 4321              	.LFB299:
 4322              		.loc 1 1014 0
 4323              		.cfi_startproc
 4324              		@ args = 0, pretend = 0, frame = 0
 4325              		@ frame_needed = 0, uses_anonymous_args = 0
 4326              		@ link register save eliminated.
 4327              	.LVL253:
 4328              		.loc 1 1015 0
 4329 0000 034B     		ldr	r3, .L394
 4330 0002 1A68     		ldr	r2, [r3]
 4331              	.LVL254:
 4332              		.loc 1 1017 0
ARM GAS  /tmp/ccDgV6Fa.s 			page 77


 4333 0004 08B1     		cbz	r0, .L389
 4334              		.loc 1 1018 0
 4335 0006 0021     		movs	r1, #0
 4336 0008 1960     		str	r1, [r3]
 4337              	.L389:
 4338              		.loc 1 1022 0
 4339 000a 1046     		mov	r0, r2
 4340              	.LVL255:
 4341 000c 7047     		bx	lr
 4342              	.L395:
 4343 000e 00BF     		.align	2
 4344              	.L394:
 4345 0010 00000000 		.word	.LANCHOR43
 4346              		.cfi_endproc
 4347              	.LFE299:
 4348              		.size	mcpwm_foc_get_tachometer_value, .-mcpwm_foc_get_tachometer_value
 4349              		.section	.text.mcpwm_foc_get_tachometer_abs_value,"ax",%progbits
 4350              		.align	1
 4351              		.p2align 4,,15
 4352              		.global	mcpwm_foc_get_tachometer_abs_value
 4353              		.syntax unified
 4354              		.thumb
 4355              		.thumb_func
 4356              		.fpu fpv4-sp-d16
 4357              		.type	mcpwm_foc_get_tachometer_abs_value, %function
 4358              	mcpwm_foc_get_tachometer_abs_value:
 4359              	.LFB300:
 4360              		.loc 1 1034 0
 4361              		.cfi_startproc
 4362              		@ args = 0, pretend = 0, frame = 0
 4363              		@ frame_needed = 0, uses_anonymous_args = 0
 4364              		@ link register save eliminated.
 4365              	.LVL256:
 4366              		.loc 1 1049 0
 4367 0000 034B     		ldr	r3, .L401
 4368 0002 1A68     		ldr	r2, [r3]
 4369              	.LVL257:
 4370              		.loc 1 1051 0
 4371 0004 08B1     		cbz	r0, .L396
 4372              		.loc 1 1052 0
 4373 0006 0021     		movs	r1, #0
 4374 0008 1960     		str	r1, [r3]
 4375              	.L396:
 4376              		.loc 1 1056 0
 4377 000a 1046     		mov	r0, r2
 4378              	.LVL258:
 4379 000c 7047     		bx	lr
 4380              	.L402:
 4381 000e 00BF     		.align	2
 4382              	.L401:
 4383 0010 00000000 		.word	.LANCHOR44
 4384              		.cfi_endproc
 4385              	.LFE300:
 4386              		.size	mcpwm_foc_get_tachometer_abs_value, .-mcpwm_foc_get_tachometer_abs_value
 4387              		.section	.text.mcpwm_foc_set_tachometer_abs_value,"ax",%progbits
 4388              		.align	1
 4389              		.p2align 4,,15
ARM GAS  /tmp/ccDgV6Fa.s 			page 78


 4390              		.global	mcpwm_foc_set_tachometer_abs_value
 4391              		.syntax unified
 4392              		.thumb
 4393              		.thumb_func
 4394              		.fpu fpv4-sp-d16
 4395              		.type	mcpwm_foc_set_tachometer_abs_value, %function
 4396              	mcpwm_foc_set_tachometer_abs_value:
 4397              	.LFB301:
 4398              		.loc 1 1058 0
 4399              		.cfi_startproc
 4400              		@ args = 0, pretend = 0, frame = 0
 4401              		@ frame_needed = 0, uses_anonymous_args = 0
 4402              		@ link register save eliminated.
 4403              	.LVL259:
 4404              		.loc 1 1059 0
 4405 0000 024A     		ldr	r2, .L404
 4406 0002 1368     		ldr	r3, [r2]
 4407 0004 1844     		add	r0, r0, r3
 4408              	.LVL260:
 4409 0006 1060     		str	r0, [r2]
 4410              		.loc 1 1060 0
 4411 0008 7047     		bx	lr
 4412              	.L405:
 4413 000a 00BF     		.align	2
 4414              	.L404:
 4415 000c 00000000 		.word	.LANCHOR44
 4416              		.cfi_endproc
 4417              	.LFE301:
 4418              		.size	mcpwm_foc_set_tachometer_abs_value, .-mcpwm_foc_set_tachometer_abs_value
 4419              		.section	.text.mcpwm_foc_get_phase,"ax",%progbits
 4420              		.align	1
 4421              		.p2align 4,,15
 4422              		.global	mcpwm_foc_get_phase
 4423              		.syntax unified
 4424              		.thumb
 4425              		.thumb_func
 4426              		.fpu fpv4-sp-d16
 4427              		.type	mcpwm_foc_get_phase, %function
 4428              	mcpwm_foc_get_phase:
 4429              	.LFB302:
 4430              		.loc 1 1068 0
 4431              		.cfi_startproc
 4432              		@ args = 0, pretend = 0, frame = 8
 4433              		@ frame_needed = 0, uses_anonymous_args = 0
 4434 0000 00B5     		push	{lr}
 4435              		.cfi_def_cfa_offset 4
 4436              		.cfi_offset 14, -4
 4437              		.loc 1 1069 0
 4438 0002 094B     		ldr	r3, .L408
 4439 0004 9FED097A 		vldr.32	s14, .L408+4
 4440 0008 D3ED047A 		vldr.32	s15, [r3, #16]
 4441              		.loc 1 1068 0
 4442 000c 83B0     		sub	sp, sp, #12
 4443              		.cfi_def_cfa_offset 16
 4444              		.loc 1 1069 0
 4445 000e 67EE877A 		vmul.f32	s15, s15, s14
 4446 0012 02A8     		add	r0, sp, #8
ARM GAS  /tmp/ccDgV6Fa.s 			page 79


 4447 0014 60ED017A 		vstmdb.32	r0!, {s15}
 4448              		.loc 1 1070 0
 4449 0018 FFF7FEFF 		bl	utils_norm_angle
 4450              	.LVL261:
 4451              		.loc 1 1072 0
 4452 001c 9DED010A 		vldr.32	s0, [sp, #4]
 4453 0020 03B0     		add	sp, sp, #12
 4454              		.cfi_def_cfa_offset 4
 4455              		@ sp needed
 4456 0022 5DF804FB 		ldr	pc, [sp], #4
 4457              	.L409:
 4458 0026 00BF     		.align	2
 4459              	.L408:
 4460 0028 00000000 		.word	.LANCHOR10
 4461 002c E02E6542 		.word	1113927392
 4462              		.cfi_endproc
 4463              	.LFE302:
 4464              		.size	mcpwm_foc_get_phase, .-mcpwm_foc_get_phase
 4465              		.section	.text.mcpwm_foc_get_phase_observer,"ax",%progbits
 4466              		.align	1
 4467              		.p2align 4,,15
 4468              		.global	mcpwm_foc_get_phase_observer
 4469              		.syntax unified
 4470              		.thumb
 4471              		.thumb_func
 4472              		.fpu fpv4-sp-d16
 4473              		.type	mcpwm_foc_get_phase_observer, %function
 4474              	mcpwm_foc_get_phase_observer:
 4475              	.LFB303:
 4476              		.loc 1 1080 0
 4477              		.cfi_startproc
 4478              		@ args = 0, pretend = 0, frame = 8
 4479              		@ frame_needed = 0, uses_anonymous_args = 0
 4480 0000 00B5     		push	{lr}
 4481              		.cfi_def_cfa_offset 4
 4482              		.cfi_offset 14, -4
 4483              		.loc 1 1081 0
 4484 0002 094B     		ldr	r3, .L412
 4485 0004 9FED097A 		vldr.32	s14, .L412+4
 4486 0008 D3ED007A 		vldr.32	s15, [r3]
 4487              		.loc 1 1080 0
 4488 000c 83B0     		sub	sp, sp, #12
 4489              		.cfi_def_cfa_offset 16
 4490              		.loc 1 1081 0
 4491 000e 67EE877A 		vmul.f32	s15, s15, s14
 4492 0012 02A8     		add	r0, sp, #8
 4493 0014 60ED017A 		vstmdb.32	r0!, {s15}
 4494              		.loc 1 1082 0
 4495 0018 FFF7FEFF 		bl	utils_norm_angle
 4496              	.LVL262:
 4497              		.loc 1 1084 0
 4498 001c 9DED010A 		vldr.32	s0, [sp, #4]
 4499 0020 03B0     		add	sp, sp, #12
 4500              		.cfi_def_cfa_offset 4
 4501              		@ sp needed
 4502 0022 5DF804FB 		ldr	pc, [sp], #4
 4503              	.L413:
ARM GAS  /tmp/ccDgV6Fa.s 			page 80


 4504 0026 00BF     		.align	2
 4505              	.L412:
 4506 0028 00000000 		.word	.LANCHOR16
 4507 002c E02E6542 		.word	1113927392
 4508              		.cfi_endproc
 4509              	.LFE303:
 4510              		.size	mcpwm_foc_get_phase_observer, .-mcpwm_foc_get_phase_observer
 4511              		.section	.text.mcpwm_foc_get_phase_encoder,"ax",%progbits
 4512              		.align	1
 4513              		.p2align 4,,15
 4514              		.global	mcpwm_foc_get_phase_encoder
 4515              		.syntax unified
 4516              		.thumb
 4517              		.thumb_func
 4518              		.fpu fpv4-sp-d16
 4519              		.type	mcpwm_foc_get_phase_encoder, %function
 4520              	mcpwm_foc_get_phase_encoder:
 4521              	.LFB304:
 4522              		.loc 1 1092 0
 4523              		.cfi_startproc
 4524              		@ args = 0, pretend = 0, frame = 8
 4525              		@ frame_needed = 0, uses_anonymous_args = 0
 4526 0000 00B5     		push	{lr}
 4527              		.cfi_def_cfa_offset 4
 4528              		.cfi_offset 14, -4
 4529              		.loc 1 1093 0
 4530 0002 094B     		ldr	r3, .L416
 4531 0004 9FED097A 		vldr.32	s14, .L416+4
 4532 0008 D3ED007A 		vldr.32	s15, [r3]
 4533              		.loc 1 1092 0
 4534 000c 83B0     		sub	sp, sp, #12
 4535              		.cfi_def_cfa_offset 16
 4536              		.loc 1 1093 0
 4537 000e 67EE877A 		vmul.f32	s15, s15, s14
 4538 0012 02A8     		add	r0, sp, #8
 4539 0014 60ED017A 		vstmdb.32	r0!, {s15}
 4540              		.loc 1 1094 0
 4541 0018 FFF7FEFF 		bl	utils_norm_angle
 4542              	.LVL263:
 4543              		.loc 1 1096 0
 4544 001c 9DED010A 		vldr.32	s0, [sp, #4]
 4545 0020 03B0     		add	sp, sp, #12
 4546              		.cfi_def_cfa_offset 4
 4547              		@ sp needed
 4548 0022 5DF804FB 		ldr	pc, [sp], #4
 4549              	.L417:
 4550 0026 00BF     		.align	2
 4551              	.L416:
 4552 0028 00000000 		.word	.LANCHOR37
 4553 002c E02E6542 		.word	1113927392
 4554              		.cfi_endproc
 4555              	.LFE304:
 4556              		.size	mcpwm_foc_get_phase_encoder, .-mcpwm_foc_get_phase_encoder
 4557              		.section	.text.mcpwm_foc_get_vd,"ax",%progbits
 4558              		.align	1
 4559              		.p2align 4,,15
 4560              		.global	mcpwm_foc_get_vd
ARM GAS  /tmp/ccDgV6Fa.s 			page 81


 4561              		.syntax unified
 4562              		.thumb
 4563              		.thumb_func
 4564              		.fpu fpv4-sp-d16
 4565              		.type	mcpwm_foc_get_vd, %function
 4566              	mcpwm_foc_get_vd:
 4567              	.LFB305:
 4568              		.loc 1 1098 0
 4569              		.cfi_startproc
 4570              		@ args = 0, pretend = 0, frame = 0
 4571              		@ frame_needed = 0, uses_anonymous_args = 0
 4572              		@ link register save eliminated.
 4573              		.loc 1 1099 0
 4574 0000 014B     		ldr	r3, .L419
 4575 0002 93ED130A 		vldr.32	s0, [r3, #76]
 4576              		.loc 1 1100 0
 4577 0006 7047     		bx	lr
 4578              	.L420:
 4579              		.align	2
 4580              	.L419:
 4581 0008 00000000 		.word	.LANCHOR10
 4582              		.cfi_endproc
 4583              	.LFE305:
 4584              		.size	mcpwm_foc_get_vd, .-mcpwm_foc_get_vd
 4585              		.section	.text.mcpwm_foc_get_vq,"ax",%progbits
 4586              		.align	1
 4587              		.p2align 4,,15
 4588              		.global	mcpwm_foc_get_vq
 4589              		.syntax unified
 4590              		.thumb
 4591              		.thumb_func
 4592              		.fpu fpv4-sp-d16
 4593              		.type	mcpwm_foc_get_vq, %function
 4594              	mcpwm_foc_get_vq:
 4595              	.LFB306:
 4596              		.loc 1 1102 0
 4597              		.cfi_startproc
 4598              		@ args = 0, pretend = 0, frame = 0
 4599              		@ frame_needed = 0, uses_anonymous_args = 0
 4600              		@ link register save eliminated.
 4601              		.loc 1 1103 0
 4602 0000 014B     		ldr	r3, .L422
 4603 0002 93ED140A 		vldr.32	s0, [r3, #80]
 4604              		.loc 1 1104 0
 4605 0006 7047     		bx	lr
 4606              	.L423:
 4607              		.align	2
 4608              	.L422:
 4609 0008 00000000 		.word	.LANCHOR10
 4610              		.cfi_endproc
 4611              	.LFE306:
 4612              		.size	mcpwm_foc_get_vq, .-mcpwm_foc_get_vq
 4613              		.section	.text.mcpwm_foc_get_current_offsets,"ax",%progbits
 4614              		.align	1
 4615              		.p2align 4,,15
 4616              		.global	mcpwm_foc_get_current_offsets
 4617              		.syntax unified
ARM GAS  /tmp/ccDgV6Fa.s 			page 82


 4618              		.thumb
 4619              		.thumb_func
 4620              		.fpu fpv4-sp-d16
 4621              		.type	mcpwm_foc_get_current_offsets, %function
 4622              	mcpwm_foc_get_current_offsets:
 4623              	.LFB307:
 4624              		.loc 1 1111 0
 4625              		.cfi_startproc
 4626              		@ args = 0, pretend = 0, frame = 0
 4627              		@ frame_needed = 0, uses_anonymous_args = 0
 4628              		@ link register save eliminated.
 4629              	.LVL264:
 4630              		.loc 1 1112 0
 4631 0000 054B     		ldr	r3, .L426
 4632              		.loc 1 1111 0
 4633 0002 30B4     		push	{r4, r5}
 4634              		.cfi_def_cfa_offset 8
 4635              		.cfi_offset 4, -8
 4636              		.cfi_offset 5, -4
 4637              		.loc 1 1112 0
 4638 0004 1D68     		ldr	r5, [r3]
 4639              		.loc 1 1113 0
 4640 0006 054C     		ldr	r4, .L426+4
 4641              		.loc 1 1112 0
 4642 0008 0560     		str	r5, [r0]
 4643              		.loc 1 1113 0
 4644 000a 2068     		ldr	r0, [r4]
 4645              	.LVL265:
 4646              		.loc 1 1115 0
 4647 000c 044B     		ldr	r3, .L426+8
 4648              		.loc 1 1113 0
 4649 000e 0860     		str	r0, [r1]
 4650              		.loc 1 1115 0
 4651 0010 1B68     		ldr	r3, [r3]
 4652 0012 1360     		str	r3, [r2]
 4653              		.loc 1 1119 0
 4654 0014 30BC     		pop	{r4, r5}
 4655              		.cfi_restore 5
 4656              		.cfi_restore 4
 4657              		.cfi_def_cfa_offset 0
 4658 0016 7047     		bx	lr
 4659              	.L427:
 4660              		.align	2
 4661              	.L426:
 4662 0018 00000000 		.word	.LANCHOR48
 4663 001c 00000000 		.word	.LANCHOR49
 4664 0020 00000000 		.word	.LANCHOR50
 4665              		.cfi_endproc
 4666              	.LFE307:
 4667              		.size	mcpwm_foc_get_current_offsets, .-mcpwm_foc_get_current_offsets
 4668              		.global	__aeabi_f2d
 4669              		.section	.text.mcpwm_foc_encoder_detect,"ax",%progbits
 4670              		.align	1
 4671              		.p2align 4,,15
 4672              		.global	mcpwm_foc_encoder_detect
 4673              		.syntax unified
 4674              		.thumb
ARM GAS  /tmp/ccDgV6Fa.s 			page 83


 4675              		.thumb_func
 4676              		.fpu fpv4-sp-d16
 4677              		.type	mcpwm_foc_encoder_detect, %function
 4678              	mcpwm_foc_encoder_detect:
 4679              	.LFB308:
 4680              		.loc 1 1136 0
 4681              		.cfi_startproc
 4682              		@ args = 0, pretend = 0, frame = 24
 4683              		@ frame_needed = 0, uses_anonymous_args = 0
 4684              	.LVL266:
 4685 0000 2DE9F04F 		push	{r4, r5, r6, r7, r8, r9, r10, fp, lr}
 4686              		.cfi_def_cfa_offset 36
 4687              		.cfi_offset 4, -36
 4688              		.cfi_offset 5, -32
 4689              		.cfi_offset 6, -28
 4690              		.cfi_offset 7, -24
 4691              		.cfi_offset 8, -20
 4692              		.cfi_offset 9, -16
 4693              		.cfi_offset 10, -12
 4694              		.cfi_offset 11, -8
 4695              		.cfi_offset 14, -4
 4696 0004 2DED0E8B 		vpush.64	{d8, d9, d10, d11, d12, d13, d14}
 4697              		.cfi_def_cfa_offset 92
 4698              		.cfi_offset 80, -92
 4699              		.cfi_offset 81, -88
 4700              		.cfi_offset 82, -84
 4701              		.cfi_offset 83, -80
 4702              		.cfi_offset 84, -76
 4703              		.cfi_offset 85, -72
 4704              		.cfi_offset 86, -68
 4705              		.cfi_offset 87, -64
 4706              		.cfi_offset 88, -60
 4707              		.cfi_offset 89, -56
 4708              		.cfi_offset 90, -52
 4709              		.cfi_offset 91, -48
 4710              		.cfi_offset 92, -44
 4711              		.cfi_offset 93, -40
 4712 0008 87B0     		sub	sp, sp, #28
 4713              		.cfi_def_cfa_offset 120
 4714              		.loc 1 1136 0
 4715 000a B0EE409A 		vmov.f32	s18, s0
 4716 000e CDE90223 		strd	r2, r3, [sp, #8]
 4717 0012 0746     		mov	r7, r0
 4718 0014 8B46     		mov	fp, r1
 4719              		.loc 1 1137 0
 4720 0016 FFF7FEFF 		bl	mc_interface_lock
 4721              	.LVL267:
 4722              		.loc 1 1139 0
 4723 001a DA49     		ldr	r1, .L515
 4724              		.loc 1 1141 0
 4725 001c 9FEDDA8A 		vldr.32	s16, .L515+4
 4726              		.loc 1 1152 0
 4727 0020 DFF8A0A3 		ldr	r10, .L515+64
 4728              	.LBB106:
 4729              		.loc 1 1163 0
 4730 0024 DFEDD98A 		vldr.32	s17, .L515+8
 4731 0028 D94C     		ldr	r4, .L515+12
ARM GAS  /tmp/ccDgV6Fa.s 			page 84


 4732              	.LBE106:
 4733              		.loc 1 1139 0
 4734 002a 0122     		movs	r2, #1
 4735 002c 0A70     		strb	r2, [r1]
 4736              		.loc 1 1140 0
 4737 002e D94A     		ldr	r2, .L515+16
 4738 0030 82ED009A 		vstr.32	s18, [r2]
 4739              		.loc 1 1141 0
 4740 0034 D84A     		ldr	r2, .L515+20
 4741 0036 82ED008A 		vstr.32	s16, [r2]
 4742              		.loc 1 1142 0
 4743 003a D84A     		ldr	r2, .L515+24
 4744 003c 0223     		movs	r3, #2
 4745 003e 1370     		strb	r3, [r2]
 4746              		.loc 1 1143 0
 4747 0040 D74A     		ldr	r2, .L515+28
 4748 0042 1370     		strb	r3, [r2]
 4749              		.loc 1 1146 0
 4750 0044 FFF7FEFF 		bl	timeout_get_timeout_msec
 4751              	.LVL268:
 4752 0048 0190     		str	r0, [sp, #4]
 4753              	.LVL269:
 4754              		.loc 1 1147 0
 4755 004a FFF7FEFF 		bl	timeout_get_brake_current
 4756              	.LVL270:
 4757 004e F0EE409A 		vmov.f32	s19, s0
 4758              	.LVL271:
 4759              		.loc 1 1148 0
 4760 0052 FFF7FEFF 		bl	timeout_reset
 4761              	.LVL272:
 4762              		.loc 1 1149 0
 4763 0056 B0EE480A 		vmov.f32	s0, s16
 4764 005a D248     		ldr	r0, .L515+32
 4765 005c FFF7FEFF 		bl	timeout_configure
 4766              	.LVL273:
 4767              		.loc 1 1152 0
 4768 0060 DAF80030 		ldr	r3, [r10]
 4769 0064 93ED2FAA 		vldr.32	s20, [r3, #188]
 4770              	.LVL274:
 4771              		.loc 1 1153 0
 4772 0068 93F8C020 		ldrb	r2, [r3, #192]	@ zero_extendqisi2
 4773              		.loc 1 1154 0
 4774 006c D3ED31AA 		vldr.32	s21, [r3, #196]
 4775              		.loc 1 1156 0
 4776 0070 83ED2F8A 		vstr.32	s16, [r3, #188]
 4777              		.loc 1 1153 0
 4778 0074 09EE102A 		vmov	s18, r2	@ int
 4779              	.LVL275:
 4780              		.loc 1 1157 0
 4781 0078 0022     		movs	r2, #0
 4782 007a 83F8C020 		strb	r2, [r3, #192]
 4783              		.loc 1 1153 0
 4784 007e B8EE499A 		vcvt.f32.u32	s18, s18
 4785              	.LVL276:
 4786              		.loc 1 1158 0
 4787 0082 4FF07E52 		mov	r2, #1065353216
 4788 0086 C3F8C420 		str	r2, [r3, #196]	@ float
ARM GAS  /tmp/ccDgV6Fa.s 			page 85


 4789              		.loc 1 1162 0
 4790 008a 1F25     		movs	r5, #31
 4791              	.LVL277:
 4792              	.L429:
 4793 008c FFF7FEFF 		bl	encoder_index_found
 4794              	.LVL278:
 4795 0090 70B9     		cbnz	r0, .L433
 4796              	.LBB107:
 4797              		.loc 1 1163 0
 4798 0092 9FEDBD8A 		vldr.32	s16, .L515+4
 4799              	.LBE107:
 4800 0096 4FF4FA76 		mov	r6, #500
 4801              	.L430:
 4802              	.LVL279:
 4803              	.LBB108:
 4804              		.loc 1 1165 0 discriminator 3
 4805 009a 0A20     		movs	r0, #10
 4806              		.loc 1 1164 0 discriminator 3
 4807 009c 84ED008A 		vstr.32	s16, [r4]
 4808              		.loc 1 1165 0 discriminator 3
 4809 00a0 FFF7FEFF 		bl	chThdSleep
 4810              	.LVL280:
 4811              		.loc 1 1163 0 discriminator 3
 4812 00a4 013E     		subs	r6, r6, #1
 4813 00a6 38EE288A 		vadd.f32	s16, s16, s17
 4814              	.LVL281:
 4815 00aa F6D1     		bne	.L430
 4816              	.LVL282:
 4817              	.LBE108:
 4818              		.loc 1 1169 0
 4819 00ac 013D     		subs	r5, r5, #1
 4820              	.LVL283:
 4821 00ae EDD1     		bne	.L429
 4822              	.LVL284:
 4823              	.L433:
 4824              		.loc 1 1175 0
 4825 00b0 17B1     		cbz	r7, .L432
 4826              		.loc 1 1176 0
 4827 00b2 BD48     		ldr	r0, .L515+36
 4828 00b4 FFF7FEFF 		bl	commands_printf
 4829              	.LVL285:
 4830              	.L432:
 4831              		.loc 1 1162 0 discriminator 1
 4832 00b8 9FEDB38A 		vldr.32	s16, .L515+4
 4833              	.LBB109:
 4834              		.loc 1 1180 0 discriminator 1
 4835 00bc DFEDB38A 		vldr.32	s17, .L515+8
 4836              	.LBE109:
 4837              		.loc 1 1162 0 discriminator 1
 4838 00c0 4FF4FA75 		mov	r5, #500
 4839              	.LVL286:
 4840              	.L434:
 4841              	.LBB110:
 4842              		.loc 1 1182 0 discriminator 3
 4843 00c4 0A20     		movs	r0, #10
 4844              		.loc 1 1181 0 discriminator 3
 4845 00c6 84ED008A 		vstr.32	s16, [r4]
ARM GAS  /tmp/ccDgV6Fa.s 			page 86


 4846              		.loc 1 1182 0 discriminator 3
 4847 00ca FFF7FEFF 		bl	chThdSleep
 4848              	.LVL287:
 4849              		.loc 1 1180 0 discriminator 3
 4850 00ce 013D     		subs	r5, r5, #1
 4851 00d0 38EE288A 		vadd.f32	s16, s16, s17
 4852              	.LVL288:
 4853 00d4 F6D1     		bne	.L434
 4854              	.LBE110:
 4855              		.loc 1 1185 0
 4856 00d6 17B1     		cbz	r7, .L435
 4857              		.loc 1 1186 0
 4858 00d8 B448     		ldr	r0, .L515+40
 4859 00da FFF7FEFF 		bl	commands_printf
 4860              	.LVL289:
 4861              	.L435:
 4862              		.loc 1 1195 0
 4863 00de B44D     		ldr	r5, .L515+44
 4864              		.loc 1 1194 0
 4865 00e0 DFEDA9BA 		vldr.32	s23, .L515+4
 4866              	.LBB111:
 4867              	.LBB112:
 4868              	.LBB113:
 4869              		.loc 1 1200 0
 4870 00e4 DFEDB3CA 		vldr.32	s25, .L515+48
 4871              		.loc 1 1201 0
 4872 00e8 9FEDA8BA 		vldr.32	s22, .L515+8
 4873              	.LBE113:
 4874              		.loc 1 1205 0
 4875 00ec DFF8A082 		ldr	r8, .L515+12
 4876              		.loc 1 1215 0
 4877 00f0 9FEDB1EA 		vldr.32	s28, .L515+52
 4878 00f4 DFEDB1DA 		vldr.32	s27, .L515+56
 4879 00f8 DFF8CC92 		ldr	r9, .L515+68
 4880              	.LBE112:
 4881              	.LBE111:
 4882              		.loc 1 1190 0
 4883 00fc 42F21070 		movw	r0, #10000
 4884 0100 FFF7FEFF 		bl	chThdSleep
 4885              	.LVL290:
 4886              		.loc 1 1195 0
 4887 0104 95ED00DA 		vldr.32	s26, [r5]
 4888              	.LVL291:
 4889              		.loc 1 1193 0
 4890 0108 B0EE6BCA 		vmov.f32	s24, s23
 4891              	.LBB117:
 4892              		.loc 1 1197 0
 4893 010c 0026     		movs	r6, #0
 4894              	.LVL292:
 4895              	.L441:
 4896              	.LBB115:
 4897              		.loc 1 1198 0
 4898 010e D5ED00EA 		vldr.32	s29, [r5]
 4899              	.LVL293:
 4900              		.loc 1 1199 0
 4901 0112 94ED008A 		vldr.32	s16, [r4]
 4902              	.LVL294:
ARM GAS  /tmp/ccDgV6Fa.s 			page 87


 4903              	.LBB114:
 4904              		.loc 1 1200 0
 4905 0116 78EE2C8A 		vadd.f32	s17, s16, s25
 4906 011a F4EEC88A 		vcmpe.f32	s17, s16
 4907 011e F1EE10FA 		vmrs	APSR_nzcv, FPSCR
 4908 0122 0BDD     		ble	.L436
 4909              	.LVL295:
 4910              	.L438:
 4911              		.loc 1 1203 0
 4912 0124 0A20     		movs	r0, #10
 4913              		.loc 1 1202 0
 4914 0126 84ED008A 		vstr.32	s16, [r4]
 4915              		.loc 1 1203 0
 4916 012a FFF7FEFF 		bl	chThdSleep
 4917              	.LVL296:
 4918              		.loc 1 1201 0
 4919 012e 38EE0B8A 		vadd.f32	s16, s16, s22
 4920              	.LVL297:
 4921              		.loc 1 1200 0
 4922 0132 F4EEC88A 		vcmpe.f32	s17, s16
 4923 0136 F1EE10FA 		vmrs	APSR_nzcv, FPSCR
 4924 013a F3DC     		bgt	.L438
 4925              	.L436:
 4926              	.LBE114:
 4927              		.loc 1 1205 0
 4928 013c 4046     		mov	r0, r8
 4929 013e FFF7FEFF 		bl	utils_norm_angle_rad
 4930              	.LVL298:
 4931              		.loc 1 1206 0
 4932 0142 40F6B830 		movw	r0, #3000
 4933 0146 FFF7FEFF 		bl	chThdSleep
 4934              	.LVL299:
 4935              		.loc 1 1207 0
 4936 014a F0EE6E0A 		vmov.f32	s1, s29
 4937 014e 95ED000A 		vldr.32	s0, [r5]
 4938 0152 FFF7FEFF 		bl	utils_angle_difference_rad
 4939              	.LVL300:
 4940              		.loc 1 1210 0
 4941 0156 05A9     		add	r1, sp, #20
 4942 0158 04A8     		add	r0, sp, #16
 4943              		.loc 1 1207 0
 4944 015a B0EE408A 		vmov.f32	s16, s0
 4945              	.LVL301:
 4946              		.loc 1 1210 0
 4947 015e FFF7FEFF 		bl	sincosf
 4948              	.LVL302:
 4949              		.loc 1 1211 0
 4950 0162 9DED047A 		vldr.32	s14, [sp, #16]
 4951              		.loc 1 1212 0
 4952 0166 DDED057A 		vldr.32	s15, [sp, #20]
 4953              		.loc 1 1211 0
 4954 016a 3CEE07CA 		vadd.f32	s24, s24, s14
 4955              	.LVL303:
 4956              		.loc 1 1212 0
 4957 016e 7BEEA7BA 		vadd.f32	s23, s23, s15
 4958              	.LVL304:
 4959              		.loc 1 1214 0
ARM GAS  /tmp/ccDgV6Fa.s 			page 88


 4960 0172 002F     		cmp	r7, #0
 4961 0174 40F09D81 		bne	.L507
 4962              	.L439:
 4963              		.loc 1 1218 0
 4964 0178 032E     		cmp	r6, #3
 4965 017a 12DD     		ble	.L443
 4966              		.loc 1 1218 0 is_stmt 0 discriminator 1
 4967 017c 95ED000A 		vldr.32	s0, [r5]
 4968 0180 F0EE4D0A 		vmov.f32	s1, s26
 4969 0184 FFF7FEFF 		bl	utils_angle_difference_rad
 4970              	.LVL305:
 4971 0188 F6EE007A 		vmov.f32	s15, #5.0e-1
 4972 018c 28EE278A 		vmul.f32	s16, s16, s15
 4973              	.LVL306:
 4974 0190 B0EEC00A 		vabs.f32	s0, s0
 4975 0194 B0EEC88A 		vabs.f32	s16, s16
 4976 0198 B4EEC80A 		vcmpe.f32	s0, s16
 4977 019c F1EE10FA 		vmrs	APSR_nzcv, FPSCR
 4978 01a0 02D4     		bmi	.L442
 4979              	.L443:
 4980              	.LBE115:
 4981              		.loc 1 1197 0 is_stmt 1
 4982 01a2 0136     		adds	r6, r6, #1
 4983              	.LVL307:
 4984 01a4 142E     		cmp	r6, #20
 4985 01a6 B2D1     		bne	.L441
 4986              	.L442:
 4987              	.LBE117:
 4988              		.loc 1 1223 0
 4989 01a8 95ED00DA 		vldr.32	s26, [r5]
 4990              	.LVL308:
 4991              	.LBB118:
 4992              	.LBB119:
 4993              	.LBB120:
 4994              		.loc 1 1228 0
 4995 01ac DFED81CA 		vldr.32	s25, .L515+48
 4996              		.loc 1 1229 0
 4997 01b0 9FED76BA 		vldr.32	s22, .L515+8
 4998              	.LBE120:
 4999              		.loc 1 1233 0
 5000 01b4 DFF8D881 		ldr	r8, .L515+12
 5001              		.loc 1 1243 0
 5002 01b8 9FED7FEA 		vldr.32	s28, .L515+52
 5003 01bc DFED7FDA 		vldr.32	s27, .L515+56
 5004 01c0 DFF80492 		ldr	r9, .L515+68
 5005              	.LBE119:
 5006              		.loc 1 1225 0
 5007 01c4 0026     		movs	r6, #0
 5008              	.LVL309:
 5009              	.L450:
 5010              	.LBB122:
 5011              		.loc 1 1226 0
 5012 01c6 D5ED00EA 		vldr.32	s29, [r5]
 5013              	.LVL310:
 5014              		.loc 1 1227 0
 5015 01ca 94ED008A 		vldr.32	s16, [r4]
 5016              	.LVL311:
ARM GAS  /tmp/ccDgV6Fa.s 			page 89


 5017              	.LBB121:
 5018              		.loc 1 1228 0
 5019 01ce 78EE6C8A 		vsub.f32	s17, s16, s25
 5020 01d2 B4EEE88A 		vcmpe.f32	s16, s17
 5021 01d6 F1EE10FA 		vmrs	APSR_nzcv, FPSCR
 5022 01da 0BDD     		ble	.L445
 5023              	.LVL312:
 5024              	.L447:
 5025              		.loc 1 1231 0
 5026 01dc 0A20     		movs	r0, #10
 5027              		.loc 1 1230 0
 5028 01de 84ED008A 		vstr.32	s16, [r4]
 5029              		.loc 1 1231 0
 5030 01e2 FFF7FEFF 		bl	chThdSleep
 5031              	.LVL313:
 5032              		.loc 1 1229 0
 5033 01e6 38EE4B8A 		vsub.f32	s16, s16, s22
 5034              	.LVL314:
 5035              		.loc 1 1228 0
 5036 01ea B4EEE88A 		vcmpe.f32	s16, s17
 5037 01ee F1EE10FA 		vmrs	APSR_nzcv, FPSCR
 5038 01f2 F3DC     		bgt	.L447
 5039              	.L445:
 5040              	.LBE121:
 5041              		.loc 1 1233 0
 5042 01f4 4046     		mov	r0, r8
 5043 01f6 FFF7FEFF 		bl	utils_norm_angle_rad
 5044              	.LVL315:
 5045              		.loc 1 1234 0
 5046 01fa 40F6B830 		movw	r0, #3000
 5047 01fe FFF7FEFF 		bl	chThdSleep
 5048              	.LVL316:
 5049              		.loc 1 1235 0
 5050 0202 D5ED000A 		vldr.32	s1, [r5]
 5051 0206 B0EE6E0A 		vmov.f32	s0, s29
 5052 020a FFF7FEFF 		bl	utils_angle_difference_rad
 5053              	.LVL317:
 5054              		.loc 1 1238 0
 5055 020e 05A9     		add	r1, sp, #20
 5056 0210 04A8     		add	r0, sp, #16
 5057              		.loc 1 1235 0
 5058 0212 B0EE408A 		vmov.f32	s16, s0
 5059              	.LVL318:
 5060              		.loc 1 1238 0
 5061 0216 FFF7FEFF 		bl	sincosf
 5062              	.LVL319:
 5063              		.loc 1 1239 0
 5064 021a 9DED047A 		vldr.32	s14, [sp, #16]
 5065              		.loc 1 1240 0
 5066 021e DDED057A 		vldr.32	s15, [sp, #20]
 5067              		.loc 1 1239 0
 5068 0222 3CEE07CA 		vadd.f32	s24, s24, s14
 5069              	.LVL320:
 5070              		.loc 1 1240 0
 5071 0226 7BEEA7BA 		vadd.f32	s23, s23, s15
 5072              	.LVL321:
 5073              		.loc 1 1242 0
ARM GAS  /tmp/ccDgV6Fa.s 			page 90


 5074 022a 002F     		cmp	r7, #0
 5075 022c 40F04F81 		bne	.L508
 5076              	.L448:
 5077              		.loc 1 1246 0
 5078 0230 032E     		cmp	r6, #3
 5079 0232 12DD     		ble	.L452
 5080              		.loc 1 1246 0 is_stmt 0 discriminator 1
 5081 0234 95ED000A 		vldr.32	s0, [r5]
 5082 0238 F0EE4D0A 		vmov.f32	s1, s26
 5083 023c FFF7FEFF 		bl	utils_angle_difference_rad
 5084              	.LVL322:
 5085 0240 F6EE007A 		vmov.f32	s15, #5.0e-1
 5086 0244 28EE278A 		vmul.f32	s16, s16, s15
 5087              	.LVL323:
 5088 0248 B0EEC00A 		vabs.f32	s0, s0
 5089 024c B0EEC88A 		vabs.f32	s16, s16
 5090 0250 B4EEC80A 		vcmpe.f32	s0, s16
 5091 0254 F1EE10FA 		vmrs	APSR_nzcv, FPSCR
 5092 0258 02D4     		bmi	.L451
 5093              	.L452:
 5094              	.LBE122:
 5095              		.loc 1 1225 0 is_stmt 1
 5096 025a 0136     		adds	r6, r6, #1
 5097              	.LVL324:
 5098 025c 142E     		cmp	r6, #20
 5099 025e B2D1     		bne	.L450
 5100              	.L451:
 5101              	.LBE118:
 5102              		.loc 1 1251 0
 5103 0260 F0EE6B0A 		vmov.f32	s1, s23
 5104 0264 B0EE4C0A 		vmov.f32	s0, s24
 5105 0268 FFF7FEFF 		bl	atan2f
 5106              	.LVL325:
 5107 026c DFED527A 		vldr.32	s15, .L515+52
 5108 0270 DFED526A 		vldr.32	s13, .L515+56
 5109              		.loc 1 1252 0
 5110 0274 039B     		ldr	r3, [sp, #12]
 5111              		.loc 1 1253 0
 5112 0276 9FED527A 		vldr.32	s14, .L515+60
 5113              		.loc 1 1251 0
 5114 027a 20EE270A 		vmul.f32	s0, s0, s15
 5115 027e C0EE267A 		vdiv.f32	s15, s0, s13
 5116              	.LVL326:
 5117              		.loc 1 1252 0
 5118 0282 F5EEC07A 		vcmpe.f32	s15, #0
 5119 0286 F1EE10FA 		vmrs	APSR_nzcv, FPSCR
 5120 028a 4CBF     		ite	mi
 5121 028c 0126     		movmi	r6, #1
 5122              	.LVL327:
 5123 028e 0026     		movpl	r6, #0
 5124              		.loc 1 1254 0
 5125 0290 F0EEE77A 		vabs.f32	s15, s15
 5126              	.LVL328:
 5127              		.loc 1 1252 0
 5128 0294 1E70     		strb	r6, [r3]
 5129              		.loc 1 1253 0
 5130 0296 87EE270A 		vdiv.f32	s0, s14, s15
ARM GAS  /tmp/ccDgV6Fa.s 			page 91


 5131              	.LVL329:
 5132 029a FFF7FEFF 		bl	roundf
 5133              	.LVL330:
 5134              		.loc 1 1256 0
 5135 029e DAF80030 		ldr	r3, [r10]
 5136              		.loc 1 1253 0
 5137 02a2 029A     		ldr	r2, [sp, #8]
 5138 02a4 82ED000A 		vstr.32	s0, [r2]
 5139              		.loc 1 1256 0
 5140 02a8 83F8C060 		strb	r6, [r3, #192]
 5141              		.loc 1 1257 0
 5142 02ac 83ED310A 		vstr.32	s0, [r3, #196]
 5143              		.loc 1 1259 0
 5144 02b0 002F     		cmp	r7, #0
 5145 02b2 40F07681 		bne	.L509
 5146              	.LBB124:
 5147              		.loc 1 1264 0
 5148 02b6 94ED008A 		vldr.32	s16, [r4]
 5149              	.LVL331:
 5150 02ba DFED447A 		vldr.32	s15, .L515+72
 5151 02be B4EEE78A 		vcmpe.f32	s16, s15
 5152 02c2 F1EE10FA 		vmrs	APSR_nzcv, FPSCR
 5153 02c6 14D5     		bpl	.L460
 5154              	.L455:
 5155              		.loc 1 1264 0 is_stmt 0 discriminator 3
 5156 02c8 9FED30BA 		vldr.32	s22, .L515+8
 5157 02cc DFED3F8A 		vldr.32	s17, .L515+72
 5158              	.L458:
 5159              		.loc 1 1265 0 is_stmt 1 discriminator 3
 5160 02d0 84ED008A 		vstr.32	s16, [r4]
 5161              		.loc 1 1266 0 discriminator 3
 5162 02d4 1420     		movs	r0, #20
 5163 02d6 FFF7FEFF 		bl	chThdSleep
 5164              	.LVL332:
 5165              		.loc 1 1264 0 discriminator 3
 5166 02da 38EE0B8A 		vadd.f32	s16, s16, s22
 5167              	.LVL333:
 5168 02de B4EEE88A 		vcmpe.f32	s16, s17
 5169 02e2 F1EE10FA 		vmrs	APSR_nzcv, FPSCR
 5170 02e6 F3D4     		bmi	.L458
 5171              	.LBE124:
 5172              		.loc 1 1269 0
 5173 02e8 002F     		cmp	r7, #0
 5174 02ea 40F06781 		bne	.L459
 5175 02ee DAF80030 		ldr	r3, [r10]
 5176              	.L460:
 5177              		.loc 1 1274 0
 5178 02f2 D3ED317A 		vldr.32	s15, [r3, #196]
 5179 02f6 B0EE087A 		vmov.f32	s14, #3.0e+0
 5180 02fa 67EE877A 		vmul.f32	s15, s15, s14
 5181 02fe FDEEE77A 		vcvt.s32.f32	s15, s15
 5182 0302 17EE909A 		vmov	r9, s15	@ int
 5183              	.LVL334:
 5184              	.LBB125:
 5185              		.loc 1 1278 0
 5186 0306 B9F1000F 		cmp	r9, #0
 5187 030a 40F38A81 		ble	.L510
ARM GAS  /tmp/ccDgV6Fa.s 			page 92


 5188              	.L456:
 5189 030e 07EE909A 		vmov	s15, r9	@ int
 5190              	.LBE125:
 5191              		.loc 1 1276 0
 5192 0312 9FED1DBA 		vldr.32	s22, .L515+4
 5193              	.LBB129:
 5194              	.LBB126:
 5195              		.loc 1 1279 0
 5196 0316 DFED2DCA 		vldr.32	s25, .L515+72
 5197              		.loc 1 1283 0
 5198 031a 9FED2DDA 		vldr.32	s26, .L515+76
 5199              	.LVL335:
 5200 031e DFF87080 		ldr	r8, .L515+12
 5201              		.loc 1 1296 0
 5202 0322 9FED25EA 		vldr.32	s28, .L515+52
 5203 0326 DFED25DA 		vldr.32	s27, .L515+56
 5204 032a B8EEE7CA 		vcvt.f32.s32	s24, s15
 5205              	.LBE126:
 5206              	.LBE129:
 5207              		.loc 1 1275 0
 5208 032e F0EE4BBA 		vmov.f32	s23, s22
 5209              	.LBB130:
 5210              		.loc 1 1278 0
 5211 0332 0026     		movs	r6, #0
 5212              	.LVL336:
 5213              	.L464:
 5214              	.LBB127:
 5215              		.loc 1 1279 0
 5216 0334 D3ED317A 		vldr.32	s15, [r3, #196]
 5217              		.loc 1 1282 0
 5218 0338 D4ED006A 		vldr.32	s13, [r4]
 5219              		.loc 1 1279 0
 5220 033c 67EEAC7A 		vmul.f32	s15, s15, s25
 5221 0340 87EE8C7A 		vdiv.f32	s14, s15, s24
 5222              	.LVL337:
 5223              		.loc 1 1280 0
 5224 0344 07EE906A 		vmov	s15, r6	@ int
 5225 0348 B8EEE78A 		vcvt.f32.s32	s16, s15
 5226 034c 28EE078A 		vmul.f32	s16, s16, s14
 5227              	.LVL338:
 5228              		.loc 1 1282 0
 5229 0350 F4EE486A 		vcmp.f32	s13, s16
 5230 0354 F1EE10FA 		vmrs	APSR_nzcv, FPSCR
 5231 0358 3CD0     		beq	.L461
 5232              		.loc 1 1283 0
 5233 035a C7EE0D8A 		vdiv.f32	s17, s14, s26
 5234              	.LVL339:
 5235              	.L462:
 5236 035e 4046     		mov	r0, r8
 5237 0360 F0EE680A 		vmov.f32	s1, s17
 5238 0364 B0EE480A 		vmov.f32	s0, s16
 5239 0368 FFF7FEFF 		bl	utils_step_towards
 5240              	.LVL340:
 5241              		.loc 1 1284 0
 5242 036c 2820     		movs	r0, #40
 5243 036e FFF7FEFF 		bl	chThdSleep
 5244              	.LVL341:
ARM GAS  /tmp/ccDgV6Fa.s 			page 93


 5245              		.loc 1 1282 0
 5246 0372 D4ED007A 		vldr.32	s15, [r4]
 5247 0376 F4EE487A 		vcmp.f32	s15, s16
 5248 037a F1EE10FA 		vmrs	APSR_nzcv, FPSCR
 5249 037e EED1     		bne	.L462
 5250 0380 28E0     		b	.L516
 5251              	.L517:
 5252 0382 00BF     		.align	2
 5253              	.L515:
 5254 0384 00000000 		.word	.LANCHOR30
 5255 0388 00000000 		.word	0
 5256 038c 2EE34D3C 		.word	1011737390
 5257 0390 00000000 		.word	.LANCHOR31
 5258 0394 00000000 		.word	.LANCHOR33
 5259 0398 00000000 		.word	.LANCHOR23
 5260 039c 00000000 		.word	.LANCHOR14
 5261 03a0 00000000 		.word	.LANCHOR7
 5262 03a4 C0270900 		.word	600000
 5263 03a8 00000000 		.word	.LC1
 5264 03ac 0C000000 		.word	.LC2
 5265 03b0 00000000 		.word	.LANCHOR37
 5266 03b4 920A0640 		.word	1074137746
 5267 03b8 00003443 		.word	1127481344
 5268 03bc DB0F4940 		.word	1078530011
 5269 03c0 0000F042 		.word	1123024896
 5270 03c4 00000000 		.word	.LANCHOR0
 5271 03c8 20000000 		.word	.LC3
 5272 03cc DB0FC940 		.word	1086918619
 5273 03d0 0000C842 		.word	1120403456
 5274              	.L516:
 5275              	.L461:
 5276              		.loc 1 1287 0
 5277 03d4 4FF47A70 		mov	r0, #1000
 5278 03d8 FFF7FEFF 		bl	chThdSleep
 5279              	.LVL342:
 5280              		.loc 1 1289 0
 5281 03dc 95ED000A 		vldr.32	s0, [r5]
 5282 03e0 D4ED000A 		vldr.32	s1, [r4]
 5283 03e4 FFF7FEFF 		bl	utils_angle_difference_rad
 5284              	.LVL343:
 5285              		.loc 1 1291 0
 5286 03e8 05A9     		add	r1, sp, #20
 5287 03ea 04A8     		add	r0, sp, #16
 5288              		.loc 1 1289 0
 5289 03ec B0EE408A 		vmov.f32	s16, s0
 5290              	.LVL344:
 5291              		.loc 1 1291 0
 5292 03f0 FFF7FEFF 		bl	sincosf
 5293              	.LVL345:
 5294              		.loc 1 1292 0
 5295 03f4 9DED047A 		vldr.32	s14, [sp, #16]
 5296              		.loc 1 1293 0
 5297 03f8 DDED057A 		vldr.32	s15, [sp, #20]
 5298              		.loc 1 1292 0
 5299 03fc 7BEE87BA 		vadd.f32	s23, s23, s14
 5300              	.LVL346:
 5301              		.loc 1 1293 0
ARM GAS  /tmp/ccDgV6Fa.s 			page 94


 5302 0400 3BEE27BA 		vadd.f32	s22, s22, s15
 5303              	.LVL347:
 5304              		.loc 1 1295 0
 5305 0404 002F     		cmp	r7, #0
 5306 0406 70D1     		bne	.L511
 5307              	.LVL348:
 5308              	.L463:
 5309              	.LBE127:
 5310              		.loc 1 1278 0 discriminator 2
 5311 0408 0136     		adds	r6, r6, #1
 5312              	.LVL349:
 5313 040a B145     		cmp	r9, r6
 5314 040c DAF80030 		ldr	r3, [r10]
 5315 0410 90D1     		bne	.L464
 5316              	.LBE130:
 5317              	.LBB131:
 5318              	.LBB132:
 5319              		.loc 1 1301 0
 5320 0412 5FED12CA 		vldr.32	s25, .L515+72
 5321              		.loc 1 1305 0
 5322 0416 1FED12DA 		vldr.32	s26, .L515+76
 5323 041a DFF84C82 		ldr	r8, .L518+60
 5324              		.loc 1 1318 0
 5325 041e 9FED83EA 		vldr.32	s28, .L518
 5326 0422 DFED83DA 		vldr.32	s27, .L518+4
 5327 0426 DFF80C92 		ldr	r9, .L518+8
 5328              	.LVL350:
 5329              	.L468:
 5330              		.loc 1 1301 0
 5331 042a D3ED317A 		vldr.32	s15, [r3, #196]
 5332              		.loc 1 1304 0
 5333 042e D4ED006A 		vldr.32	s13, [r4]
 5334              		.loc 1 1301 0
 5335 0432 67EEAC7A 		vmul.f32	s15, s15, s25
 5336 0436 87EE8C7A 		vdiv.f32	s14, s15, s24
 5337              	.LVL351:
 5338              		.loc 1 1302 0
 5339 043a 07EE906A 		vmov	s15, r6	@ int
 5340 043e B8EEE78A 		vcvt.f32.s32	s16, s15
 5341 0442 28EE078A 		vmul.f32	s16, s16, s14
 5342              	.LVL352:
 5343              		.loc 1 1304 0
 5344 0446 B4EE668A 		vcmp.f32	s16, s13
 5345 044a F1EE10FA 		vmrs	APSR_nzcv, FPSCR
 5346 044e 12D0     		beq	.L465
 5347              		.loc 1 1305 0
 5348 0450 C7EE0D8A 		vdiv.f32	s17, s14, s26
 5349              	.LVL353:
 5350              	.L466:
 5351 0454 4046     		mov	r0, r8
 5352 0456 F0EE680A 		vmov.f32	s1, s17
 5353 045a B0EE480A 		vmov.f32	s0, s16
 5354 045e FFF7FEFF 		bl	utils_step_towards
 5355              	.LVL354:
 5356              		.loc 1 1306 0
 5357 0462 2820     		movs	r0, #40
 5358 0464 FFF7FEFF 		bl	chThdSleep
ARM GAS  /tmp/ccDgV6Fa.s 			page 95


 5359              	.LVL355:
 5360              		.loc 1 1304 0
 5361 0468 D4ED007A 		vldr.32	s15, [r4]
 5362 046c F4EE487A 		vcmp.f32	s15, s16
 5363 0470 F1EE10FA 		vmrs	APSR_nzcv, FPSCR
 5364 0474 EED1     		bne	.L466
 5365              	.L465:
 5366              		.loc 1 1309 0
 5367 0476 4FF47A70 		mov	r0, #1000
 5368 047a FFF7FEFF 		bl	chThdSleep
 5369              	.LVL356:
 5370              		.loc 1 1311 0
 5371 047e 95ED000A 		vldr.32	s0, [r5]
 5372 0482 D4ED000A 		vldr.32	s1, [r4]
 5373 0486 FFF7FEFF 		bl	utils_angle_difference_rad
 5374              	.LVL357:
 5375              		.loc 1 1313 0
 5376 048a 05A9     		add	r1, sp, #20
 5377 048c 04A8     		add	r0, sp, #16
 5378              		.loc 1 1311 0
 5379 048e B0EE408A 		vmov.f32	s16, s0
 5380              	.LVL358:
 5381              		.loc 1 1313 0
 5382 0492 FFF7FEFF 		bl	sincosf
 5383              	.LVL359:
 5384              		.loc 1 1314 0
 5385 0496 9DED047A 		vldr.32	s14, [sp, #16]
 5386              		.loc 1 1315 0
 5387 049a DDED057A 		vldr.32	s15, [sp, #20]
 5388              		.loc 1 1314 0
 5389 049e 7BEE87BA 		vadd.f32	s23, s23, s14
 5390              	.LVL360:
 5391              		.loc 1 1315 0
 5392 04a2 3BEE27BA 		vadd.f32	s22, s22, s15
 5393              	.LVL361:
 5394              		.loc 1 1317 0
 5395 04a6 77BB     		cbnz	r7, .L512
 5396              	.LVL362:
 5397              	.LBE132:
 5398              		.loc 1 1300 0 discriminator 2
 5399 04a8 013E     		subs	r6, r6, #1
 5400              	.LVL363:
 5401 04aa 3BD0     		beq	.L457
 5402              	.LVL364:
 5403              	.L513:
 5404 04ac DAF80030 		ldr	r3, [r10]
 5405 04b0 BBE7     		b	.L468
 5406              	.LVL365:
 5407              	.L507:
 5408              	.LBE131:
 5409              	.LBB134:
 5410              	.LBB116:
 5411              		.loc 1 1215 0
 5412 04b2 68EE0E7A 		vmul.f32	s15, s16, s28
 5413 04b6 C7EEAD7A 		vdiv.f32	s15, s15, s27
 5414 04ba 17EE900A 		vmov	r0, s15
 5415 04be FFF7FEFF 		bl	__aeabi_f2d
ARM GAS  /tmp/ccDgV6Fa.s 			page 96


 5416              	.LVL366:
 5417 04c2 0246     		mov	r2, r0
 5418 04c4 0B46     		mov	r3, r1
 5419 04c6 4846     		mov	r0, r9
 5420 04c8 FFF7FEFF 		bl	commands_printf
 5421              	.LVL367:
 5422 04cc 54E6     		b	.L439
 5423              	.LVL368:
 5424              	.L508:
 5425              	.LBE116:
 5426              	.LBE134:
 5427              	.LBB135:
 5428              	.LBB123:
 5429              		.loc 1 1243 0
 5430 04ce 68EE0E7A 		vmul.f32	s15, s16, s28
 5431 04d2 C7EEAD7A 		vdiv.f32	s15, s15, s27
 5432 04d6 17EE900A 		vmov	r0, s15
 5433 04da FFF7FEFF 		bl	__aeabi_f2d
 5434              	.LVL369:
 5435 04de 0246     		mov	r2, r0
 5436 04e0 0B46     		mov	r3, r1
 5437 04e2 4846     		mov	r0, r9
 5438 04e4 FFF7FEFF 		bl	commands_printf
 5439              	.LVL370:
 5440 04e8 A2E6     		b	.L448
 5441              	.LVL371:
 5442              	.L511:
 5443              	.LBE123:
 5444              	.LBE135:
 5445              	.LBB136:
 5446              	.LBB128:
 5447              		.loc 1 1296 0
 5448 04ea 28EE0E8A 		vmul.f32	s16, s16, s28
 5449              	.LVL372:
 5450 04ee C8EE2D7A 		vdiv.f32	s15, s16, s27
 5451 04f2 17EE900A 		vmov	r0, s15
 5452 04f6 FFF7FEFF 		bl	__aeabi_f2d
 5453              	.LVL373:
 5454 04fa 0246     		mov	r2, r0
 5455 04fc 0B46     		mov	r3, r1
 5456 04fe 4D48     		ldr	r0, .L518+8
 5457 0500 FFF7FEFF 		bl	commands_printf
 5458              	.LVL374:
 5459 0504 80E7     		b	.L463
 5460              	.LVL375:
 5461              	.L512:
 5462              	.LBE128:
 5463              	.LBE136:
 5464              	.LBB137:
 5465              	.LBB133:
 5466              		.loc 1 1318 0
 5467 0506 28EE0E8A 		vmul.f32	s16, s16, s28
 5468              	.LVL376:
 5469 050a C8EE2D7A 		vdiv.f32	s15, s16, s27
 5470 050e 17EE900A 		vmov	r0, s15
 5471 0512 FFF7FEFF 		bl	__aeabi_f2d
 5472              	.LVL377:
ARM GAS  /tmp/ccDgV6Fa.s 			page 97


 5473 0516 0246     		mov	r2, r0
 5474 0518 0B46     		mov	r3, r1
 5475 051a 4846     		mov	r0, r9
 5476 051c FFF7FEFF 		bl	commands_printf
 5477              	.LVL378:
 5478              	.LBE133:
 5479              		.loc 1 1300 0
 5480 0520 013E     		subs	r6, r6, #1
 5481              	.LVL379:
 5482 0522 C3D1     		bne	.L513
 5483              	.LVL380:
 5484              	.L457:
 5485              	.LBE137:
 5486              		.loc 1 1322 0
 5487 0524 F0EE4B0A 		vmov.f32	s1, s22
 5488 0528 B0EE6B0A 		vmov.f32	s0, s23
 5489 052c FFF7FEFF 		bl	atan2f
 5490              	.LVL381:
 5491 0530 DFED3E7A 		vldr.32	s15, .L518
 5492 0534 DFED3E6A 		vldr.32	s13, .L518+4
 5493 0538 60EE277A 		vmul.f32	s15, s0, s15
 5494 053c 87EEA67A 		vdiv.f32	s14, s15, s13
 5495 0540 8BED007A 		vstr.32	s14, [fp]
 5496              		.loc 1 1324 0
 5497 0544 002F     		cmp	r7, #0
 5498 0546 5CD1     		bne	.L514
 5499              	.L469:
 5500              		.loc 1 1328 0
 5501 0548 5846     		mov	r0, fp
 5502 054a FFF7FEFF 		bl	utils_norm_angle
 5503              	.LVL382:
 5504              	.L470:
 5505              		.loc 1 1335 0
 5506 054e 3A48     		ldr	r0, .L518+12
 5507              		.loc 1 1334 0
 5508 0550 3A49     		ldr	r1, .L518+16
 5509 0552 0022     		movs	r2, #0
 5510 0554 0A60     		str	r2, [r1]	@ float
 5511              		.loc 1 1335 0
 5512 0556 0260     		str	r2, [r0]	@ float
 5513              		.loc 1 1336 0
 5514 0558 394A     		ldr	r2, .L518+20
 5515 055a 0023     		movs	r3, #0
 5516 055c 1370     		strb	r3, [r2]
 5517              		.loc 1 1337 0
 5518 055e 394A     		ldr	r2, .L518+24
 5519 0560 0A21     		movs	r1, #10
 5520 0562 1170     		strb	r1, [r2]
 5521              		.loc 1 1338 0
 5522 0564 384A     		ldr	r2, .L518+28
 5523 0566 1370     		strb	r3, [r2]
 5524              		.loc 1 1339 0
 5525 0568 FFF7FEFF 		bl	stop_pwm_hw
 5526              	.LVL383:
 5527              		.loc 1 1342 0
 5528 056c B5EE409A 		vcmp.f32	s18, #0
 5529 0570 DAF80030 		ldr	r3, [r10]
ARM GAS  /tmp/ccDgV6Fa.s 			page 98


 5530              		.loc 1 1347 0
 5531 0574 0198     		ldr	r0, [sp, #4]
 5532              		.loc 1 1342 0
 5533 0576 F1EE10FA 		vmrs	APSR_nzcv, FPSCR
 5534 057a 14BF     		ite	ne
 5535 057c 0122     		movne	r2, #1
 5536 057e 0022     		moveq	r2, #0
 5537 0580 83F8C020 		strb	r2, [r3, #192]
 5538              		.loc 1 1347 0
 5539 0584 B0EE690A 		vmov.f32	s0, s19
 5540              		.loc 1 1343 0
 5541 0588 83ED2FAA 		vstr.32	s20, [r3, #188]
 5542              		.loc 1 1344 0
 5543 058c C3ED31AA 		vstr.32	s21, [r3, #196]
 5544              		.loc 1 1347 0
 5545 0590 FFF7FEFF 		bl	timeout_configure
 5546              	.LVL384:
 5547              		.loc 1 1350 0
 5548 0594 07B0     		add	sp, sp, #28
 5549              		.cfi_remember_state
 5550              		.cfi_def_cfa_offset 92
 5551              		@ sp needed
 5552 0596 BDEC0E8B 		vldm	sp!, {d8-d14}
 5553              		.cfi_restore 92
 5554              		.cfi_restore 93
 5555              		.cfi_restore 90
 5556              		.cfi_restore 91
 5557              		.cfi_restore 88
 5558              		.cfi_restore 89
 5559              		.cfi_restore 86
 5560              		.cfi_restore 87
 5561              		.cfi_restore 84
 5562              		.cfi_restore 85
 5563              		.cfi_restore 82
 5564              		.cfi_restore 83
 5565              		.cfi_restore 80
 5566              		.cfi_restore 81
 5567              		.cfi_def_cfa_offset 36
 5568              	.LVL385:
 5569 059a BDE8F04F 		pop	{r4, r5, r6, r7, r8, r9, r10, fp, lr}
 5570              		.cfi_restore 14
 5571              		.cfi_restore 11
 5572              		.cfi_restore 10
 5573              		.cfi_restore 9
 5574              		.cfi_restore 8
 5575              		.cfi_restore 7
 5576              		.cfi_restore 6
 5577              		.cfi_restore 5
 5578              		.cfi_restore 4
 5579              		.cfi_def_cfa_offset 0
 5580              	.LVL386:
 5581              		.loc 1 1349 0
 5582 059e FFF7FEBF 		b	mc_interface_unlock
 5583              	.LVL387:
 5584              	.L509:
 5585              		.cfi_restore_state
 5586              		.loc 1 1260 0
ARM GAS  /tmp/ccDgV6Fa.s 			page 99


 5587 05a2 2A48     		ldr	r0, .L518+32
 5588 05a4 FFF7FEFF 		bl	commands_printf
 5589              	.LVL388:
 5590              	.LBB138:
 5591              		.loc 1 1264 0
 5592 05a8 94ED008A 		vldr.32	s16, [r4]
 5593              	.LVL389:
 5594 05ac DFED287A 		vldr.32	s15, .L518+36
 5595 05b0 B4EEE78A 		vcmpe.f32	s16, s15
 5596 05b4 F1EE10FA 		vmrs	APSR_nzcv, FPSCR
 5597 05b8 3FF586AE 		bmi	.L455
 5598              	.L459:
 5599              	.LBE138:
 5600              		.loc 1 1270 0
 5601 05bc 2548     		ldr	r0, .L518+40
 5602 05be FFF7FEFF 		bl	commands_printf
 5603              	.LVL390:
 5604              		.loc 1 1271 0
 5605 05c2 FFF7FEFF 		bl	encoder_read_deg
 5606              	.LVL391:
 5607 05c6 10EE100A 		vmov	r0, s0
 5608 05ca FFF7FEFF 		bl	__aeabi_f2d
 5609              	.LVL392:
 5610 05ce 0246     		mov	r2, r0
 5611 05d0 0B46     		mov	r3, r1
 5612 05d2 2148     		ldr	r0, .L518+44
 5613 05d4 FFF7FEFF 		bl	commands_printf
 5614              	.LVL393:
 5615 05d8 DAF80030 		ldr	r3, [r10]
 5616              		.loc 1 1274 0
 5617 05dc D3ED317A 		vldr.32	s15, [r3, #196]
 5618 05e0 B0EE087A 		vmov.f32	s14, #3.0e+0
 5619 05e4 67EE877A 		vmul.f32	s15, s15, s14
 5620 05e8 FDEEE77A 		vcvt.s32.f32	s15, s15
 5621 05ec 17EE909A 		vmov	r9, s15	@ int
 5622              	.LVL394:
 5623              	.LBB139:
 5624              		.loc 1 1278 0
 5625 05f0 B9F1000F 		cmp	r9, #0
 5626 05f4 3FF78BAE 		bgt	.L456
 5627              	.LBE139:
 5628              		.loc 1 1276 0
 5629 05f8 9FED18BA 		vldr.32	s22, .L518+48
 5630              		.loc 1 1275 0
 5631 05fc F0EE4BBA 		vmov.f32	s23, s22
 5632 0600 90E7     		b	.L457
 5633              	.LVL395:
 5634              	.L514:
 5635              		.loc 1 1325 0
 5636 0602 17EE100A 		vmov	r0, s14
 5637 0606 FFF7FEFF 		bl	__aeabi_f2d
 5638              	.LVL396:
 5639 060a 0246     		mov	r2, r0
 5640 060c 0B46     		mov	r3, r1
 5641 060e 1448     		ldr	r0, .L518+52
 5642 0610 FFF7FEFF 		bl	commands_printf
 5643              	.LVL397:
ARM GAS  /tmp/ccDgV6Fa.s 			page 100


 5644              		.loc 1 1328 0
 5645 0614 5846     		mov	r0, fp
 5646 0616 FFF7FEFF 		bl	utils_norm_angle
 5647              	.LVL398:
 5648              		.loc 1 1331 0
 5649 061a 1248     		ldr	r0, .L518+56
 5650 061c FFF7FEFF 		bl	commands_printf
 5651              	.LVL399:
 5652 0620 95E7     		b	.L470
 5653              	.LVL400:
 5654              	.L510:
 5655              		.loc 1 1322 0
 5656 0622 0023     		movs	r3, #0
 5657 0624 CBF80030 		str	r3, [fp]	@ float
 5658 0628 8EE7     		b	.L469
 5659              	.L519:
 5660 062a 00BF     		.align	2
 5661              	.L518:
 5662 062c 00003443 		.word	1127481344
 5663 0630 DB0F4940 		.word	1078530011
 5664 0634 20000000 		.word	.LC3
 5665 0638 00000000 		.word	.LANCHOR23
 5666 063c 00000000 		.word	.LANCHOR33
 5667 0640 00000000 		.word	.LANCHOR30
 5668 0644 00000000 		.word	.LANCHOR14
 5669 0648 00000000 		.word	.LANCHOR7
 5670 064c 28000000 		.word	.LC4
 5671 0650 DB0FC940 		.word	1086918619
 5672 0654 0C000000 		.word	.LC2
 5673 0658 48000000 		.word	.LC5
 5674 065c 00000000 		.word	0
 5675 0660 54000000 		.word	.LC6
 5676 0664 60000000 		.word	.LC7
 5677 0668 00000000 		.word	.LANCHOR31
 5678              		.cfi_endproc
 5679              	.LFE308:
 5680              		.size	mcpwm_foc_encoder_detect, .-mcpwm_foc_encoder_detect
 5681              		.section	.text.mcpwm_foc_measure_resistance,"ax",%progbits
 5682              		.align	1
 5683              		.p2align 4,,15
 5684              		.global	mcpwm_foc_measure_resistance
 5685              		.syntax unified
 5686              		.thumb
 5687              		.thumb_func
 5688              		.fpu fpv4-sp-d16
 5689              		.type	mcpwm_foc_measure_resistance, %function
 5690              	mcpwm_foc_measure_resistance:
 5691              	.LFB309:
 5692              		.loc 1 1365 0
 5693              		.cfi_startproc
 5694              		@ args = 0, pretend = 0, frame = 8
 5695              		@ frame_needed = 0, uses_anonymous_args = 0
 5696              	.LVL401:
 5697 0000 2DE9F04F 		push	{r4, r5, r6, r7, r8, r9, r10, fp, lr}
 5698              		.cfi_def_cfa_offset 36
 5699              		.cfi_offset 4, -36
 5700              		.cfi_offset 5, -32
ARM GAS  /tmp/ccDgV6Fa.s 			page 101


 5701              		.cfi_offset 6, -28
 5702              		.cfi_offset 7, -24
 5703              		.cfi_offset 8, -20
 5704              		.cfi_offset 9, -16
 5705              		.cfi_offset 10, -12
 5706              		.cfi_offset 11, -8
 5707              		.cfi_offset 14, -4
 5708 0004 2DED048B 		vpush.64	{d8, d9}
 5709              		.cfi_def_cfa_offset 52
 5710              		.cfi_offset 80, -52
 5711              		.cfi_offset 81, -48
 5712              		.cfi_offset 82, -44
 5713              		.cfi_offset 83, -40
 5714 0008 83B0     		sub	sp, sp, #12
 5715              		.cfi_def_cfa_offset 64
 5716              		.loc 1 1365 0
 5717 000a F0EE408A 		vmov.f32	s17, s0
 5718              		.loc 1 1369 0
 5719 000e 9FED498A 		vldr.32	s16, .L530
 5720              		.loc 1 1368 0
 5721 0012 DFF834A1 		ldr	r10, .L530+20
 5722              		.loc 1 1370 0
 5723 0016 DFF834B1 		ldr	fp, .L530+24
 5724              		.loc 1 1371 0
 5725 001a DFF83491 		ldr	r9, .L530+28
 5726              		.loc 1 1372 0
 5727 001e 464F     		ldr	r7, .L530+4
 5728              		.loc 1 1373 0
 5729 0020 DFF83081 		ldr	r8, .L530+32
 5730              		.loc 1 1385 0
 5731 0024 454D     		ldr	r5, .L530+8
 5732              		.loc 1 1365 0
 5733 0026 0646     		mov	r6, r0
 5734              		.loc 1 1366 0
 5735 0028 FFF7FEFF 		bl	mc_interface_lock
 5736              	.LVL402:
 5737              		.loc 1 1369 0
 5738 002c 444A     		ldr	r2, .L530+12
 5739              		.loc 1 1372 0
 5740 002e 0223     		movs	r3, #2
 5741              		.loc 1 1368 0
 5742 0030 0121     		movs	r1, #1
 5743 0032 8AF80010 		strb	r1, [r10]
 5744              		.loc 1 1369 0
 5745 0036 82ED008A 		vstr.32	s16, [r2]
 5746              		.loc 1 1370 0
 5747 003a 8BED008A 		vstr.32	s16, [fp]
 5748              		.loc 1 1371 0
 5749 003e C9ED008A 		vstr.32	s17, [r9]
 5750              		.loc 1 1372 0
 5751 0042 3B70     		strb	r3, [r7]
 5752              		.loc 1 1373 0
 5753 0044 88F80030 		strb	r3, [r8]
 5754              		.loc 1 1376 0
 5755 0048 FFF7FEFF 		bl	timeout_get_timeout_msec
 5756              	.LVL403:
 5757 004c 0190     		str	r0, [sp, #4]
ARM GAS  /tmp/ccDgV6Fa.s 			page 102


 5758              	.LVL404:
 5759              		.loc 1 1377 0
 5760 004e FFF7FEFF 		bl	timeout_get_brake_current
 5761              	.LVL405:
 5762 0052 F0EE408A 		vmov.f32	s17, s0
 5763              	.LVL406:
 5764              		.loc 1 1378 0
 5765 0056 FFF7FEFF 		bl	timeout_reset
 5766              	.LVL407:
 5767              		.loc 1 1379 0
 5768 005a B0EE480A 		vmov.f32	s0, s16
 5769 005e 4EF66020 		movw	r0, #60000
 5770 0062 FFF7FEFF 		bl	timeout_configure
 5771              	.LVL408:
 5772              		.loc 1 1382 0
 5773 0066 41F28830 		movw	r0, #5000
 5774 006a FFF7FEFF 		bl	chThdSleep
 5775              	.LVL409:
 5776              		.loc 1 1387 0
 5777 006e 0023     		movs	r3, #0
 5778              		.loc 1 1385 0
 5779 0070 85ED018A 		vstr.32	s16, [r5, #4]
 5780              		.loc 1 1390 0
 5781 0074 42F21174 		movw	r4, #10001
 5782              		.loc 1 1386 0
 5783 0078 85ED028A 		vstr.32	s16, [r5, #8]
 5784              		.loc 1 1387 0
 5785 007c 2B60     		str	r3, [r5]
 5786              	.LVL410:
 5787              		.loc 1 1390 0
 5788 007e 06E0     		b	.L521
 5789              	.LVL411:
 5790              	.L524:
 5791              		.loc 1 1391 0
 5792 0080 FFF7FEFF 		bl	chThdSleep
 5793              	.LVL412:
 5794              		.loc 1 1394 0
 5795 0084 013C     		subs	r4, r4, #1
 5796              	.LVL413:
 5797 0086 07D0     		beq	.L525
 5798              		.loc 1 1398 0
 5799 0088 FFF7FEFF 		bl	mc_interface_get_fault
 5800              	.LVL414:
 5801 008c A0BB     		cbnz	r0, .L529
 5802              	.LVL415:
 5803              	.L521:
 5804              		.loc 1 1390 0
 5805 008e 2B68     		ldr	r3, [r5]
 5806 0090 B342     		cmp	r3, r6
 5807              		.loc 1 1391 0
 5808 0092 4FF00A00 		mov	r0, #10
 5809              		.loc 1 1390 0
 5810 0096 F3DB     		blt	.L524
 5811              	.LVL416:
 5812              	.L525:
 5813              		.loc 1 1413 0
 5814 0098 95ED016A 		vldr.32	s12, [r5, #4]
ARM GAS  /tmp/ccDgV6Fa.s 			page 103


 5815 009c 95ED007A 		vldr.32	s14, [r5]	@ int
 5816              		.loc 1 1414 0
 5817 00a0 D5ED026A 		vldr.32	s13, [r5, #8]
 5818 00a4 D5ED007A 		vldr.32	s15, [r5]	@ int
 5819              		.loc 1 1413 0
 5820 00a8 B8EEC77A 		vcvt.f32.s32	s14, s14
 5821              		.loc 1 1414 0
 5822 00ac F8EEE77A 		vcvt.f32.s32	s15, s15
 5823              		.loc 1 1413 0
 5824 00b0 86EE078A 		vdiv.f32	s16, s12, s14
 5825              	.LVL417:
 5826              		.loc 1 1417 0
 5827 00b4 0022     		movs	r2, #0
 5828              		.loc 1 1419 0
 5829 00b6 0023     		movs	r3, #0
 5830              		.loc 1 1420 0
 5831 00b8 0A21     		movs	r1, #10
 5832              		.loc 1 1417 0
 5833 00ba CBF80020 		str	r2, [fp]	@ float
 5834              		.loc 1 1418 0
 5835 00be C9F80020 		str	r2, [r9]	@ float
 5836              		.loc 1 1419 0
 5837 00c2 8AF80030 		strb	r3, [r10]
 5838              		.loc 1 1420 0
 5839 00c6 3970     		strb	r1, [r7]
 5840              		.loc 1 1421 0
 5841 00c8 88F80030 		strb	r3, [r8]
 5842              		.loc 1 1414 0
 5843 00cc 86EEA79A 		vdiv.f32	s18, s13, s15
 5844              	.LVL418:
 5845              		.loc 1 1422 0
 5846 00d0 FFF7FEFF 		bl	stop_pwm_hw
 5847              	.LVL419:
 5848              		.loc 1 1425 0
 5849 00d4 0198     		ldr	r0, [sp, #4]
 5850 00d6 B0EE680A 		vmov.f32	s0, s17
 5851 00da FFF7FEFF 		bl	timeout_configure
 5852              	.LVL420:
 5853              		.loc 1 1427 0
 5854 00de FFF7FEFF 		bl	mc_interface_unlock
 5855              	.LVL421:
 5856              		.loc 1 1429 0
 5857 00e2 89EE080A 		vdiv.f32	s0, s18, s16
 5858 00e6 DFED177A 		vldr.32	s15, .L530+16
 5859 00ea 20EE270A 		vmul.f32	s0, s0, s15
 5860              		.loc 1 1430 0
 5861 00ee 03B0     		add	sp, sp, #12
 5862              		.cfi_remember_state
 5863              		.cfi_def_cfa_offset 52
 5864              		@ sp needed
 5865 00f0 BDEC048B 		vldm	sp!, {d8-d9}
 5866              		.cfi_restore 82
 5867              		.cfi_restore 83
 5868              		.cfi_restore 80
 5869              		.cfi_restore 81
 5870              		.cfi_def_cfa_offset 36
 5871              	.LVL422:
ARM GAS  /tmp/ccDgV6Fa.s 			page 104


 5872 00f4 BDE8F08F 		pop	{r4, r5, r6, r7, r8, r9, r10, fp, pc}
 5873              	.LVL423:
 5874              	.L529:
 5875              		.cfi_restore_state
 5876              		.loc 1 1399 0
 5877 00f8 9FED0E8A 		vldr.32	s16, .L530
 5878              		.loc 1 1401 0
 5879 00fc 0023     		movs	r3, #0
 5880              		.loc 1 1402 0
 5881 00fe 0A22     		movs	r2, #10
 5882              		.loc 1 1399 0
 5883 0100 8BED008A 		vstr.32	s16, [fp]
 5884              		.loc 1 1400 0
 5885 0104 89ED008A 		vstr.32	s16, [r9]
 5886              		.loc 1 1401 0
 5887 0108 8AF80030 		strb	r3, [r10]
 5888              		.loc 1 1402 0
 5889 010c 3A70     		strb	r2, [r7]
 5890              		.loc 1 1403 0
 5891 010e 88F80030 		strb	r3, [r8]
 5892              		.loc 1 1404 0
 5893 0112 FFF7FEFF 		bl	stop_pwm_hw
 5894              	.LVL424:
 5895              		.loc 1 1406 0
 5896 0116 B0EE680A 		vmov.f32	s0, s17
 5897 011a 0198     		ldr	r0, [sp, #4]
 5898 011c FFF7FEFF 		bl	timeout_configure
 5899              	.LVL425:
 5900              		.loc 1 1407 0
 5901 0120 FFF7FEFF 		bl	mc_interface_unlock
 5902              	.LVL426:
 5903              		.loc 1 1409 0
 5904 0124 B0EE480A 		vmov.f32	s0, s16
 5905              		.loc 1 1430 0
 5906 0128 03B0     		add	sp, sp, #12
 5907              		.cfi_def_cfa_offset 52
 5908              		@ sp needed
 5909 012a BDEC048B 		vldm	sp!, {d8-d9}
 5910              		.cfi_restore 82
 5911              		.cfi_restore 83
 5912              		.cfi_restore 80
 5913              		.cfi_restore 81
 5914              		.cfi_def_cfa_offset 36
 5915 012e BDE8F08F 		pop	{r4, r5, r6, r7, r8, r9, r10, fp, pc}
 5916              	.LVL427:
 5917              	.L531:
 5918 0132 00BF     		.align	2
 5919              	.L530:
 5920 0134 00000000 		.word	0
 5921 0138 00000000 		.word	.LANCHOR14
 5922 013c 00000000 		.word	.LANCHOR17
 5923 0140 00000000 		.word	.LANCHOR31
 5924 0144 ABAA2A3F 		.word	1059760811
 5925 0148 00000000 		.word	.LANCHOR30
 5926 014c 00000000 		.word	.LANCHOR33
 5927 0150 00000000 		.word	.LANCHOR23
 5928 0154 00000000 		.word	.LANCHOR7
ARM GAS  /tmp/ccDgV6Fa.s 			page 105


 5929              		.cfi_endproc
 5930              	.LFE309:
 5931              		.size	mcpwm_foc_measure_resistance, .-mcpwm_foc_measure_resistance
 5932              		.section	.text.mcpwm_foc_measure_inductance,"ax",%progbits
 5933              		.align	1
 5934              		.p2align 4,,15
 5935              		.global	mcpwm_foc_measure_inductance
 5936              		.syntax unified
 5937              		.thumb
 5938              		.thumb_func
 5939              		.fpu fpv4-sp-d16
 5940              		.type	mcpwm_foc_measure_inductance, %function
 5941              	mcpwm_foc_measure_inductance:
 5942              	.LFB310:
 5943              		.loc 1 1447 0
 5944              		.cfi_startproc
 5945              		@ args = 0, pretend = 0, frame = 0
 5946              		@ frame_needed = 0, uses_anonymous_args = 0
 5947              	.LVL428:
 5948 0000 2DE9F84F 		push	{r3, r4, r5, r6, r7, r8, r9, r10, fp, lr}
 5949              		.cfi_def_cfa_offset 40
 5950              		.cfi_offset 3, -40
 5951              		.cfi_offset 4, -36
 5952              		.cfi_offset 5, -32
 5953              		.cfi_offset 6, -28
 5954              		.cfi_offset 7, -24
 5955              		.cfi_offset 8, -20
 5956              		.cfi_offset 9, -16
 5957              		.cfi_offset 10, -12
 5958              		.cfi_offset 11, -8
 5959              		.cfi_offset 14, -4
 5960              		.loc 1 1448 0
 5961 0004 3A4D     		ldr	r5, .L548
 5962              		.loc 1 1447 0
 5963 0006 2DED028B 		vpush.64	{d8}
 5964              		.cfi_def_cfa_offset 48
 5965              		.cfi_offset 80, -48
 5966              		.cfi_offset 81, -44
 5967              		.loc 1 1448 0
 5968 000a DFED3A8A 		vldr.32	s17, .L548+4
 5969              		.loc 1 1450 0
 5970 000e 0027     		movs	r7, #0
 5971              		.loc 1 1447 0
 5972 0010 8A46     		mov	r10, r1
 5973              		.loc 1 1448 0
 5974 0012 C5ED018A 		vstr.32	s17, [r5, #4]
 5975              		.loc 1 1447 0
 5976 0016 8046     		mov	r8, r0
 5977              		.loc 1 1449 0
 5978 0018 C5ED028A 		vstr.32	s17, [r5, #8]
 5979              		.loc 1 1450 0
 5980 001c 2F60     		str	r7, [r5]
 5981              		.loc 1 1451 0
 5982 001e 85ED040A 		vstr.32	s0, [r5, #16]
 5983              		.loc 1 1454 0
 5984 0022 FFF7FEFF 		bl	timeout_get_timeout_msec
 5985              	.LVL429:
ARM GAS  /tmp/ccDgV6Fa.s 			page 106


 5986 0026 8346     		mov	fp, r0
 5987              	.LVL430:
 5988              		.loc 1 1455 0
 5989 0028 FFF7FEFF 		bl	timeout_get_brake_current
 5990              	.LVL431:
 5991 002c B0EE408A 		vmov.f32	s16, s0
 5992              	.LVL432:
 5993              		.loc 1 1456 0
 5994 0030 FFF7FEFF 		bl	timeout_reset
 5995              	.LVL433:
 5996              		.loc 1 1457 0
 5997 0034 B0EE680A 		vmov.f32	s0, s17
 5998 0038 4EF66020 		movw	r0, #60000
 5999 003c FFF7FEFF 		bl	timeout_configure
 6000              	.LVL434:
 6001              		.loc 1 1459 0
 6002 0040 FFF7FEFF 		bl	mc_interface_lock
 6003              	.LVL435:
 6004              	.LBB140:
 6005              		.loc 1 1464 0
 6006 0044 B845     		cmp	r8, r7
 6007 0046 10DD     		ble	.L533
 6008              	.LBE140:
 6009              		.loc 1 1463 0
 6010 0048 3C46     		mov	r4, r7
 6011              	.LBB141:
 6012              		.loc 1 1465 0
 6013 004a 4FF00109 		mov	r9, #1
 6014              		.loc 1 1470 0
 6015 004e 4CF25036 		movw	r6, #50000
 6016              	.LVL436:
 6017              	.L537:
 6018              		.loc 1 1465 0
 6019 0052 85F80C90 		strb	r9, [r5, #12]
 6020 0056 02E0     		b	.L534
 6021              	.L547:
 6022              		.loc 1 1473 0
 6023 0058 2B7B     		ldrb	r3, [r5, #12]	@ zero_extendqisi2
 6024 005a 002B     		cmp	r3, #0
 6025 005c 44D0     		beq	.L546
 6026              	.L534:
 6027              		.loc 1 1469 0
 6028 005e 0134     		adds	r4, r4, #1
 6029              	.LVL437:
 6030              		.loc 1 1468 0
 6031 0060 0120     		movs	r0, #1
 6032 0062 FFF7FEFF 		bl	chThdSleep
 6033              	.LVL438:
 6034              		.loc 1 1470 0
 6035 0066 B442     		cmp	r4, r6
 6036 0068 F6DD     		ble	.L547
 6037              	.LVL439:
 6038              	.L533:
 6039              	.LBE141:
 6040              		.loc 1 1483 0
 6041 006a B0EE480A 		vmov.f32	s0, s16
 6042 006e 5846     		mov	r0, fp
ARM GAS  /tmp/ccDgV6Fa.s 			page 107


 6043 0070 FFF7FEFF 		bl	timeout_configure
 6044              	.LVL440:
 6045              		.loc 1 1485 0
 6046 0074 FFF7FEFF 		bl	mc_interface_unlock
 6047              	.LVL441:
 6048              		.loc 1 1489 0
 6049 0078 1F4B     		ldr	r3, .L548+8
 6050              		.loc 1 1487 0
 6051 007a D5ED014A 		vldr.32	s9, [r5, #4]
 6052 007e 95ED006A 		vldr.32	s12, [r5]	@ int
 6053              		.loc 1 1488 0
 6054 0082 D5ED025A 		vldr.32	s11, [r5, #8]
 6055 0086 D5ED006A 		vldr.32	s13, [r5]	@ int
 6056              		.loc 1 1489 0
 6057 008a 93ED0B7A 		vldr.32	s14, [r3, #44]	@ int
 6058 008e D5ED047A 		vldr.32	s15, [r5, #16]
 6059 0092 9FED1A4A 		vldr.32	s8, .L548+12
 6060 0096 9FED1A5A 		vldr.32	s10, .L548+16
 6061 009a B8EE477A 		vcvt.f32.u32	s14, s14
 6062              		.loc 1 1487 0
 6063 009e B8EEC66A 		vcvt.f32.s32	s12, s12
 6064              		.loc 1 1489 0
 6065 00a2 27EE277A 		vmul.f32	s14, s14, s15
 6066              		.loc 1 1488 0
 6067 00a6 F8EEE66A 		vcvt.f32.s32	s13, s13
 6068              		.loc 1 1489 0
 6069 00aa C7EE047A 		vdiv.f32	s15, s14, s8
 6070              		.loc 1 1487 0
 6071 00ae 84EE864A 		vdiv.f32	s8, s9, s12
 6072              	.LVL442:
 6073              		.loc 1 1489 0
 6074 00b2 77EEC57A 		vsub.f32	s15, s15, s10
 6075              		.loc 1 1488 0
 6076 00b6 85EEA67A 		vdiv.f32	s14, s11, s13
 6077              	.LVL443:
 6078              		.loc 1 1489 0
 6079 00ba 77EEA77A 		vadd.f32	s15, s15, s15
 6080              	.LVL444:
 6081              		.loc 1 1492 0
 6082 00be BAF1000F 		cmp	r10, #0
 6083 00c2 01D0     		beq	.L536
 6084              		.loc 1 1493 0
 6085 00c4 8AED004A 		vstr.32	s8, [r10]
 6086              	.L536:
 6087              		.loc 1 1496 0
 6088 00c8 67EE277A 		vmul.f32	s15, s14, s15
 6089              	.LVL445:
 6090              		.loc 1 1497 0
 6091 00cc BDEC028B 		vldm	sp!, {d8}
 6092              		.cfi_remember_state
 6093              		.cfi_restore 80
 6094              		.cfi_restore 81
 6095              		.cfi_def_cfa_offset 40
 6096              	.LVL446:
 6097              		.loc 1 1496 0
 6098 00d0 87EE840A 		vdiv.f32	s0, s15, s8
 6099 00d4 DFED0B6A 		vldr.32	s13, .L548+20
ARM GAS  /tmp/ccDgV6Fa.s 			page 108


 6100 00d8 9FED0B7A 		vldr.32	s14, .L548+24
 6101              	.LVL447:
 6102 00dc 20EE260A 		vmul.f32	s0, s0, s13
 6103 00e0 20EE070A 		vmul.f32	s0, s0, s14
 6104              		.loc 1 1497 0
 6105 00e4 BDE8F88F 		pop	{r3, r4, r5, r6, r7, r8, r9, r10, fp, pc}
 6106              	.LVL448:
 6107              	.L546:
 6108              		.cfi_restore_state
 6109              	.LBB142:
 6110              		.loc 1 1464 0
 6111 00e8 0137     		adds	r7, r7, #1
 6112              	.LVL449:
 6113 00ea B845     		cmp	r8, r7
 6114 00ec B1D1     		bne	.L537
 6115 00ee BCE7     		b	.L533
 6116              	.L549:
 6117              		.align	2
 6118              	.L548:
 6119 00f0 00000000 		.word	.LANCHOR17
 6120 00f4 00000000 		.word	0
 6121 00f8 00000140 		.word	1073807360
 6122 00fc A037204D 		.word	1293957024
 6123 0100 57BDBF34 		.word	884981079
 6124 0104 00247449 		.word	1232348160
 6125 0108 ABAA2A3F 		.word	1059760811
 6126              	.LBE142:
 6127              		.cfi_endproc
 6128              	.LFE310:
 6129              		.size	mcpwm_foc_measure_inductance, .-mcpwm_foc_measure_inductance
 6130              		.section	.text.mcpwm_foc_measure_inductance2,"ax",%progbits
 6131              		.align	1
 6132              		.p2align 4,,15
 6133              		.global	mcpwm_foc_measure_inductance2
 6134              		.syntax unified
 6135              		.thumb
 6136              		.thumb_func
 6137              		.fpu fpv4-sp-d16
 6138              		.type	mcpwm_foc_measure_inductance2, %function
 6139              	mcpwm_foc_measure_inductance2:
 6140              	.LFB311:
 6141              		.loc 1 1499 0
 6142              		.cfi_startproc
 6143              		@ args = 0, pretend = 0, frame = 8
 6144              		@ frame_needed = 0, uses_anonymous_args = 0
 6145              	.LVL450:
 6146 0000 2DE9F04F 		push	{r4, r5, r6, r7, r8, r9, r10, fp, lr}
 6147              		.cfi_def_cfa_offset 36
 6148              		.cfi_offset 4, -36
 6149              		.cfi_offset 5, -32
 6150              		.cfi_offset 6, -28
 6151              		.cfi_offset 7, -24
 6152              		.cfi_offset 8, -20
 6153              		.cfi_offset 9, -16
 6154              		.cfi_offset 10, -12
 6155              		.cfi_offset 11, -8
 6156              		.cfi_offset 14, -4
ARM GAS  /tmp/ccDgV6Fa.s 			page 109


 6157              		.loc 1 1505 0
 6158 0004 684D     		ldr	r5, .L567
 6159              		.loc 1 1500 0
 6160 0006 694C     		ldr	r4, .L567+4
 6161              		.loc 1 1505 0
 6162 0008 2D68     		ldr	r5, [r5]
 6163              		.loc 1 1509 0
 6164 000a 694F     		ldr	r7, .L567+8
 6165              		.loc 1 1508 0
 6166 000c DFF8B4E1 		ldr	lr, .L567+28
 6167              		.loc 1 1499 0
 6168 0010 2DED048B 		vpush.64	{d8, d9}
 6169              		.cfi_def_cfa_offset 52
 6170              		.cfi_offset 80, -52
 6171              		.cfi_offset 81, -48
 6172              		.cfi_offset 82, -44
 6173              		.cfi_offset 83, -40
 6174              		.loc 1 1500 0
 6175 0014 9FED679A 		vldr.32	s18, .L567+12
 6176              		.loc 1 1502 0
 6177 0018 0026     		movs	r6, #0
 6178              		.loc 1 1500 0
 6179 001a 84ED019A 		vstr.32	s18, [r4, #4]
 6180              		.loc 1 1501 0
 6181 001e 84ED029A 		vstr.32	s18, [r4, #8]
 6182              		.loc 1 1502 0
 6183 0022 2660     		str	r6, [r4]
 6184              		.loc 1 1503 0
 6185 0024 C4ED040A 		vstr.32	s1, [r4, #16]
 6186              		.loc 1 1505 0
 6187 0028 95ED2D8A 		vldr.32	s16, [r5, #180]
 6188              	.LVL451:
 6189              		.loc 1 1506 0
 6190 002c 85ED2D0A 		vstr.32	s0, [r5, #180]
 6191              		.loc 1 1508 0
 6192 0030 D5ED2D7A 		vldr.32	s15, [r5, #180]
 6193              		.loc 1 1509 0
 6194 0034 D7F800C0 		ldr	ip, [r7]
 6195 0038 5F4D     		ldr	r5, .L567+16
 6196 003a 4CF0020C 		orr	ip, ip, #2
 6197 003e C7F800C0 		str	ip, [r7]
 6198 0042 D5F800C0 		ldr	ip, [r5]
 6199              		.loc 1 1508 0
 6200 0046 FDEEE77A 		vcvt.s32.f32	s15, s15
 6201              		.loc 1 1509 0
 6202 004a 4CF0020C 		orr	ip, ip, #2
 6203 004e C5F800C0 		str	ip, [r5]
 6204              		.loc 1 1508 0
 6205 0052 17EE90CA 		vmov	ip, s15	@ int
 6206              		.loc 1 1509 0
 6207 0056 4FF00A08 		mov	r8, #10
 6208              		.loc 1 1508 0
 6209 005a 9EFBFCFC 		sdiv	ip, lr, ip
 6210              	.LVL452:
 6211              		.loc 1 1509 0
 6212 005e C7F82CC0 		str	ip, [r7, #44]
 6213 0062 C5F83480 		str	r8, [r5, #52]
ARM GAS  /tmp/ccDgV6Fa.s 			page 110


 6214 0066 D7F800C0 		ldr	ip, [r7]
 6215              	.LVL453:
 6216 006a 2CF0020C 		bic	ip, ip, #2
 6217 006e C7F800C0 		str	ip, [r7]
 6218 0072 2F68     		ldr	r7, [r5]
 6219 0074 27F00207 		bic	r7, r7, #2
 6220              		.loc 1 1499 0
 6221 0078 83B0     		sub	sp, sp, #12
 6222              		.cfi_def_cfa_offset 64
 6223              		.loc 1 1509 0
 6224 007a 2F60     		str	r7, [r5]
 6225              		.loc 1 1499 0
 6226 007c 8946     		mov	r9, r1
 6227 007e CDE90023 		strd	r2, r3, [sp]
 6228 0082 0746     		mov	r7, r0
 6229              		.loc 1 1512 0
 6230 0084 FFF7FEFF 		bl	timeout_get_timeout_msec
 6231              	.LVL454:
 6232 0088 8246     		mov	r10, r0
 6233              	.LVL455:
 6234              		.loc 1 1513 0
 6235 008a FFF7FEFF 		bl	timeout_get_brake_current
 6236              	.LVL456:
 6237 008e F0EE408A 		vmov.f32	s17, s0
 6238              	.LVL457:
 6239              		.loc 1 1514 0
 6240 0092 FFF7FEFF 		bl	timeout_reset
 6241              	.LVL458:
 6242              		.loc 1 1515 0
 6243 0096 B0EE490A 		vmov.f32	s0, s18
 6244 009a 4EF66020 		movw	r0, #60000
 6245 009e FFF7FEFF 		bl	timeout_configure
 6246              	.LVL459:
 6247              		.loc 1 1517 0
 6248 00a2 FFF7FEFF 		bl	mc_interface_lock
 6249              	.LVL460:
 6250              	.LBB143:
 6251              		.loc 1 1522 0
 6252 00a6 B742     		cmp	r7, r6
 6253 00a8 11DD     		ble	.L551
 6254              	.LBE143:
 6255              		.loc 1 1521 0
 6256 00aa B346     		mov	fp, r6
 6257              	.LBB144:
 6258              		.loc 1 1523 0
 6259 00ac 4FF00108 		mov	r8, #1
 6260              		.loc 1 1528 0
 6261 00b0 4CF25035 		movw	r5, #50000
 6262              	.LVL461:
 6263              	.L555:
 6264              		.loc 1 1523 0
 6265 00b4 84F80C80 		strb	r8, [r4, #12]
 6266 00b8 02E0     		b	.L552
 6267              	.L566:
 6268              		.loc 1 1531 0
 6269 00ba 237B     		ldrb	r3, [r4, #12]	@ zero_extendqisi2
 6270 00bc 002B     		cmp	r3, #0
ARM GAS  /tmp/ccDgV6Fa.s 			page 111


 6271 00be 6ED0     		beq	.L565
 6272              	.L552:
 6273              		.loc 1 1527 0
 6274 00c0 0BF1010B 		add	fp, fp, #1
 6275              	.LVL462:
 6276              		.loc 1 1526 0
 6277 00c4 0120     		movs	r0, #1
 6278 00c6 FFF7FEFF 		bl	chThdSleep
 6279              	.LVL463:
 6280              		.loc 1 1528 0
 6281 00ca AB45     		cmp	fp, r5
 6282 00cc F5DD     		ble	.L566
 6283              	.LVL464:
 6284              	.L551:
 6285              	.LBE144:
 6286              		.loc 1 1541 0
 6287 00ce B0EE680A 		vmov.f32	s0, s17
 6288 00d2 5046     		mov	r0, r10
 6289 00d4 FFF7FEFF 		bl	timeout_configure
 6290              	.LVL465:
 6291              		.loc 1 1543 0
 6292 00d8 FFF7FEFF 		bl	mc_interface_unlock
 6293              	.LVL466:
 6294              		.loc 1 1547 0
 6295 00dc 344B     		ldr	r3, .L567+8
 6296              		.loc 1 1545 0
 6297 00de D4ED014A 		vldr.32	s9, [r4, #4]
 6298 00e2 94ED006A 		vldr.32	s12, [r4]	@ int
 6299              		.loc 1 1546 0
 6300 00e6 D4ED025A 		vldr.32	s11, [r4, #8]
 6301 00ea D4ED006A 		vldr.32	s13, [r4]	@ int
 6302              		.loc 1 1547 0
 6303 00ee 93ED0B7A 		vldr.32	s14, [r3, #44]	@ int
 6304 00f2 D4ED047A 		vldr.32	s15, [r4, #16]
 6305 00f6 9FED314A 		vldr.32	s8, .L567+20
 6306 00fa 9FED315A 		vldr.32	s10, .L567+24
 6307 00fe B8EE477A 		vcvt.f32.u32	s14, s14
 6308              		.loc 1 1545 0
 6309 0102 B8EEC66A 		vcvt.f32.s32	s12, s12
 6310              		.loc 1 1547 0
 6311 0106 27EE277A 		vmul.f32	s14, s14, s15
 6312              		.loc 1 1546 0
 6313 010a F8EEE66A 		vcvt.f32.s32	s13, s13
 6314              		.loc 1 1547 0
 6315 010e C7EE047A 		vdiv.f32	s15, s14, s8
 6316              		.loc 1 1545 0
 6317 0112 84EE864A 		vdiv.f32	s8, s9, s12
 6318              	.LVL467:
 6319              		.loc 1 1547 0
 6320 0116 77EEC57A 		vsub.f32	s15, s15, s10
 6321              		.loc 1 1546 0
 6322 011a 85EEA67A 		vdiv.f32	s14, s11, s13
 6323              	.LVL468:
 6324              		.loc 1 1547 0
 6325 011e 77EEA77A 		vadd.f32	s15, s15, s15
 6326              	.LVL469:
 6327              		.loc 1 1550 0
ARM GAS  /tmp/ccDgV6Fa.s 			page 112


 6328 0122 B9F1000F 		cmp	r9, #0
 6329 0126 07D0     		beq	.L554
 6330              		.loc 1 1552 0
 6331 0128 009B     		ldr	r3, [sp]
 6332              		.loc 1 1551 0
 6333 012a 89ED004A 		vstr.32	s8, [r9]
 6334              		.loc 1 1552 0
 6335 012e 83ED007A 		vstr.32	s14, [r3]
 6336              		.loc 1 1553 0
 6337 0132 019B     		ldr	r3, [sp, #4]
 6338 0134 C3ED007A 		vstr.32	s15, [r3]
 6339              	.L554:
 6340              		.loc 1 1556 0
 6341 0138 1B4B     		ldr	r3, .L567
 6342              		.loc 1 1559 0
 6343 013a 1D4A     		ldr	r2, .L567+8
 6344              		.loc 1 1556 0
 6345 013c 1968     		ldr	r1, [r3]
 6346              		.loc 1 1559 0
 6347 013e 1E4B     		ldr	r3, .L567+16
 6348              		.loc 1 1556 0
 6349 0140 81ED2D8A 		vstr.32	s16, [r1, #180]
 6350              		.loc 1 1562 0
 6351 0144 67EE277A 		vmul.f32	s15, s14, s15
 6352              	.LVL470:
 6353              		.loc 1 1559 0
 6354 0148 0524     		movs	r4, #5
 6355              		.loc 1 1562 0
 6356 014a 87EE840A 		vdiv.f32	s0, s15, s8
 6357              		.loc 1 1558 0
 6358 014e 1D48     		ldr	r0, .L567+28
 6359 0150 D1ED2D7A 		vldr.32	s15, [r1, #180]
 6360              		.loc 1 1559 0
 6361 0154 1168     		ldr	r1, [r2]
 6362              		.loc 1 1562 0
 6363 0156 DFED1C6A 		vldr.32	s13, .L567+32
 6364 015a 9FED1C7A 		vldr.32	s14, .L567+36
 6365              	.LVL471:
 6366              		.loc 1 1559 0
 6367 015e 41F00201 		orr	r1, r1, #2
 6368 0162 1160     		str	r1, [r2]
 6369 0164 1968     		ldr	r1, [r3]
 6370              		.loc 1 1558 0
 6371 0166 FDEEE77A 		vcvt.s32.f32	s15, s15
 6372              		.loc 1 1559 0
 6373 016a 41F00201 		orr	r1, r1, #2
 6374 016e 1960     		str	r1, [r3]
 6375              		.loc 1 1558 0
 6376 0170 17EE901A 		vmov	r1, s15	@ int
 6377 0174 90FBF1F1 		sdiv	r1, r0, r1
 6378              	.LVL472:
 6379              		.loc 1 1559 0
 6380 0178 D162     		str	r1, [r2, #44]
 6381 017a 5C63     		str	r4, [r3, #52]
 6382 017c 1168     		ldr	r1, [r2]
 6383              	.LVL473:
 6384 017e 21F00201 		bic	r1, r1, #2
ARM GAS  /tmp/ccDgV6Fa.s 			page 113


 6385 0182 1160     		str	r1, [r2]
 6386              		.loc 1 1562 0
 6387 0184 20EE260A 		vmul.f32	s0, s0, s13
 6388              		.loc 1 1559 0
 6389 0188 1A68     		ldr	r2, [r3]
 6390              		.loc 1 1562 0
 6391 018a 20EE070A 		vmul.f32	s0, s0, s14
 6392              		.loc 1 1559 0
 6393 018e 22F00202 		bic	r2, r2, #2
 6394 0192 1A60     		str	r2, [r3]
 6395              		.loc 1 1563 0
 6396 0194 03B0     		add	sp, sp, #12
 6397              		.cfi_remember_state
 6398              		.cfi_def_cfa_offset 52
 6399              	.LVL474:
 6400              		@ sp needed
 6401 0196 BDEC048B 		vldm	sp!, {d8-d9}
 6402              		.cfi_restore 82
 6403              		.cfi_restore 83
 6404              		.cfi_restore 80
 6405              		.cfi_restore 81
 6406              		.cfi_def_cfa_offset 36
 6407              	.LVL475:
 6408 019a BDE8F08F 		pop	{r4, r5, r6, r7, r8, r9, r10, fp, pc}
 6409              	.LVL476:
 6410              	.L565:
 6411              		.cfi_restore_state
 6412              	.LBB145:
 6413              		.loc 1 1522 0
 6414 019e 0136     		adds	r6, r6, #1
 6415              	.LVL477:
 6416 01a0 B742     		cmp	r7, r6
 6417 01a2 87D1     		bne	.L555
 6418 01a4 93E7     		b	.L551
 6419              	.L568:
 6420 01a6 00BF     		.align	2
 6421              	.L567:
 6422 01a8 00000000 		.word	.LANCHOR0
 6423 01ac 00000000 		.word	.LANCHOR17
 6424 01b0 00000140 		.word	1073807360
 6425 01b4 00000000 		.word	0
 6426 01b8 00040140 		.word	1073808384
 6427 01bc A037204D 		.word	1293957024
 6428 01c0 57BDBF34 		.word	884981079
 6429 01c4 007A030A 		.word	168000000
 6430 01c8 00247449 		.word	1232348160
 6431 01cc ABAA2A3F 		.word	1059760811
 6432              	.LBE145:
 6433              		.cfi_endproc
 6434              	.LFE311:
 6435              		.size	mcpwm_foc_measure_inductance2, .-mcpwm_foc_measure_inductance2
 6436              		.section	.text.mcpwm_foc_measure_inductance_current,"ax",%progbits
 6437              		.align	1
 6438              		.p2align 4,,15
 6439              		.global	mcpwm_foc_measure_inductance_current
 6440              		.syntax unified
 6441              		.thumb
ARM GAS  /tmp/ccDgV6Fa.s 			page 114


 6442              		.thumb_func
 6443              		.fpu fpv4-sp-d16
 6444              		.type	mcpwm_foc_measure_inductance_current, %function
 6445              	mcpwm_foc_measure_inductance_current:
 6446              	.LFB312:
 6447              		.loc 1 1583 0
 6448              		.cfi_startproc
 6449              		@ args = 0, pretend = 0, frame = 8
 6450              		@ frame_needed = 0, uses_anonymous_args = 0
 6451              	.LVL478:
 6452 0000 2DE9F041 		push	{r4, r5, r6, r7, r8, lr}
 6453              		.cfi_def_cfa_offset 24
 6454              		.cfi_offset 4, -24
 6455              		.cfi_offset 5, -20
 6456              		.cfi_offset 6, -16
 6457              		.cfi_offset 7, -12
 6458              		.cfi_offset 8, -8
 6459              		.cfi_offset 14, -4
 6460              		.loc 1 1584 0
 6461 0004 394D     		ldr	r5, .L575
 6462              		.loc 1 1588 0
 6463 0006 3A4A     		ldr	r2, .L575+4
 6464              		.loc 1 1584 0
 6465 0008 2B68     		ldr	r3, [r5]
 6466              		.loc 1 1585 0
 6467 000a 3A4C     		ldr	r4, .L575+8
 6468              		.loc 1 1584 0
 6469 000c D3F8B470 		ldr	r7, [r3, #180]	@ float
 6470              	.LVL479:
 6471              		.loc 1 1587 0
 6472 0010 394E     		ldr	r6, .L575+12
 6473              		.loc 1 1583 0
 6474 0012 2DED048B 		vpush.64	{d8, d9}
 6475              		.cfi_def_cfa_offset 40
 6476              		.cfi_offset 80, -40
 6477              		.cfi_offset 81, -36
 6478              		.cfi_offset 82, -32
 6479              		.cfi_offset 83, -28
 6480              		.loc 1 1585 0
 6481 0016 C3F8B440 		str	r4, [r3, #180]	@ float
 6482              		.loc 1 1587 0
 6483 001a D3ED2D7A 		vldr.32	s15, [r3, #180]
 6484              		.loc 1 1588 0
 6485 001e 1468     		ldr	r4, [r2]
 6486 0020 364B     		ldr	r3, .L575+16
 6487              	.LBB146:
 6488              		.loc 1 1591 0
 6489 0022 9FED378A 		vldr.32	s16, .L575+20
 6490              	.LBE146:
 6491              		.loc 1 1588 0
 6492 0026 44F00204 		orr	r4, r4, #2
 6493 002a 1460     		str	r4, [r2]
 6494 002c 1C68     		ldr	r4, [r3]
 6495              		.loc 1 1587 0
 6496 002e FDEEE77A 		vcvt.s32.f32	s15, s15
 6497              		.loc 1 1588 0
 6498 0032 44F00204 		orr	r4, r4, #2
ARM GAS  /tmp/ccDgV6Fa.s 			page 115


 6499 0036 1C60     		str	r4, [r3]
 6500              		.loc 1 1587 0
 6501 0038 17EE904A 		vmov	r4, s15	@ int
 6502              		.loc 1 1588 0
 6503 003c 4FF00A0C 		mov	ip, #10
 6504              		.loc 1 1587 0
 6505 0040 96FBF4F4 		sdiv	r4, r6, r4
 6506              	.LVL480:
 6507              		.loc 1 1588 0
 6508 0044 D462     		str	r4, [r2, #44]
 6509 0046 C3F834C0 		str	ip, [r3, #52]
 6510 004a 1468     		ldr	r4, [r2]
 6511              	.LVL481:
 6512 004c 24F00204 		bic	r4, r4, #2
 6513 0050 1460     		str	r4, [r2]
 6514 0052 1A68     		ldr	r2, [r3]
 6515 0054 22F00202 		bic	r2, r2, #2
 6516              		.loc 1 1583 0
 6517 0058 82B0     		sub	sp, sp, #8
 6518              		.cfi_def_cfa_offset 48
 6519              		.loc 1 1583 0
 6520 005a F0EE408A 		vmov.f32	s17, s0
 6521 005e 0646     		mov	r6, r0
 6522              	.LVL482:
 6523 0060 8846     		mov	r8, r1
 6524              		.loc 1 1588 0
 6525 0062 1A60     		str	r2, [r3]
