ARM GAS  /tmp/ccGM3W3I.s 			page 1


   1              		.cpu cortex-m4
   2              		.eabi_attribute 27, 1
   3              		.eabi_attribute 28, 1
   4              		.eabi_attribute 20, 1
   5              		.eabi_attribute 21, 1
   6              		.eabi_attribute 23, 3
   7              		.eabi_attribute 24, 1
   8              		.eabi_attribute 25, 1
   9              		.eabi_attribute 26, 1
  10              		.eabi_attribute 30, 2
  11              		.eabi_attribute 34, 1
  12              		.eabi_attribute 18, 4
  13              		.file	"serial.c"
  14              		.text
  15              	.Ltext0:
  16              		.cfi_sections	.debug_frame
  17              		.section	.text.readt,"ax",%progbits
  18              		.align	1
  19              		.p2align 4,,15
  20              		.syntax unified
  21              		.thumb
  22              		.thumb_func
  23              		.fpu fpv4-sp-d16
  24              		.type	readt, %function
  25              	readt:
  26              	.LFB263:
  27              		.file 1 "ChibiOS_3.0.2/os/hal/src/serial.c"
  28              		.loc 1 87 0
  29              		.cfi_startproc
  30              		@ args = 0, pretend = 0, frame = 0
  31              		@ frame_needed = 0, uses_anonymous_args = 0
  32              		@ link register save eliminated.
  33              	.LVL0:
  34              		.loc 1 89 0
  35 0000 0C30     		adds	r0, r0, #12
  36              	.LVL1:
  37 0002 FFF7FEBF 		b	chIQReadTimeout
  38              	.LVL2:
  39              		.cfi_endproc
  40              	.LFE263:
  41              		.size	readt, .-readt
  42 0006 00BF     		.section	.text.read,"ax",%progbits
  43              		.align	1
  44              		.p2align 4,,15
  45              		.syntax unified
  46              		.thumb
  47              		.thumb_func
  48              		.fpu fpv4-sp-d16
  49              		.type	read, %function
  50              	read:
  51              	.LFB257:
  52              		.loc 1 56 0
  53              		.cfi_startproc
  54              		@ args = 0, pretend = 0, frame = 0
  55              		@ frame_needed = 0, uses_anonymous_args = 0
  56              		@ link register save eliminated.
  57              	.LVL3:
ARM GAS  /tmp/ccGM3W3I.s 			page 2


  58              		.loc 1 58 0
  59 0000 0C30     		adds	r0, r0, #12
  60              	.LVL4:
  61 0002 4FF0FF33 		mov	r3, #-1
  62 0006 FFF7FEBF 		b	chIQReadTimeout
  63              	.LVL5:
  64              		.cfi_endproc
  65              	.LFE257:
  66              		.size	read, .-read
  67 000a 00BF     		.section	.text.writet,"ax",%progbits
  68              		.align	1
  69              		.p2align 4,,15
  70              		.syntax unified
  71              		.thumb
  72              		.thumb_func
  73              		.fpu fpv4-sp-d16
  74              		.type	writet, %function
  75              	writet:
  76              	.LFB262:
  77              		.loc 1 82 0
  78              		.cfi_startproc
  79              		@ args = 0, pretend = 0, frame = 0
  80              		@ frame_needed = 0, uses_anonymous_args = 0
  81              		@ link register save eliminated.
  82              	.LVL6:
  83              		.loc 1 84 0
  84 0000 3030     		adds	r0, r0, #48
  85              	.LVL7:
  86 0002 FFF7FEBF 		b	chOQWriteTimeout
  87              	.LVL8:
  88              		.cfi_endproc
  89              	.LFE262:
  90              		.size	writet, .-writet
  91 0006 00BF     		.section	.text.write,"ax",%progbits
  92              		.align	1
  93              		.p2align 4,,15
  94              		.syntax unified
  95              		.thumb
  96              		.thumb_func
  97              		.fpu fpv4-sp-d16
  98              		.type	write, %function
  99              	write:
 100              	.LFB256:
 101              		.loc 1 50 0
 102              		.cfi_startproc
 103              		@ args = 0, pretend = 0, frame = 0
 104              		@ frame_needed = 0, uses_anonymous_args = 0
 105              		@ link register save eliminated.
 106              	.LVL9:
 107              		.loc 1 52 0
 108 0000 3030     		adds	r0, r0, #48
 109              	.LVL10:
 110 0002 4FF0FF33 		mov	r3, #-1
 111 0006 FFF7FEBF 		b	chOQWriteTimeout
 112              	.LVL11:
 113              		.cfi_endproc
 114              	.LFE256:
ARM GAS  /tmp/ccGM3W3I.s 			page 3


 115              		.size	write, .-write
 116 000a 00BF     		.section	.text.gett,"ax",%progbits
 117              		.align	1
 118              		.p2align 4,,15
 119              		.syntax unified
 120              		.thumb
 121              		.thumb_func
 122              		.fpu fpv4-sp-d16
 123              		.type	gett, %function
 124              	gett:
 125              	.LFB261:
 126              		.loc 1 77 0
 127              		.cfi_startproc
 128              		@ args = 0, pretend = 0, frame = 0
 129              		@ frame_needed = 0, uses_anonymous_args = 0
 130              		@ link register save eliminated.
 131              	.LVL12:
 132              		.loc 1 79 0
 133 0000 0C30     		adds	r0, r0, #12
 134              	.LVL13:
 135 0002 FFF7FEBF 		b	chIQGetTimeout
 136              	.LVL14:
 137              		.cfi_endproc
 138              	.LFE261:
 139              		.size	gett, .-gett
 140 0006 00BF     		.section	.text.get,"ax",%progbits
 141              		.align	1
 142              		.p2align 4,,15
 143              		.syntax unified
 144              		.thumb
 145              		.thumb_func
 146              		.fpu fpv4-sp-d16
 147              		.type	get, %function
 148              	get:
 149              	.LFB259:
 150              		.loc 1 67 0
 151              		.cfi_startproc
 152              		@ args = 0, pretend = 0, frame = 0
 153              		@ frame_needed = 0, uses_anonymous_args = 0
 154              		@ link register save eliminated.
 155              	.LVL15:
 156              		.loc 1 69 0
 157 0000 0C30     		adds	r0, r0, #12
 158              	.LVL16:
 159 0002 4FF0FF31 		mov	r1, #-1
 160 0006 FFF7FEBF 		b	chIQGetTimeout
 161              	.LVL17:
 162              		.cfi_endproc
 163              	.LFE259:
 164              		.size	get, .-get
 165 000a 00BF     		.section	.text.putt,"ax",%progbits
 166              		.align	1
 167              		.p2align 4,,15
 168              		.syntax unified
 169              		.thumb
 170              		.thumb_func
 171              		.fpu fpv4-sp-d16
ARM GAS  /tmp/ccGM3W3I.s 			page 4


 172              		.type	putt, %function
 173              	putt:
 174              	.LFB260:
 175              		.loc 1 72 0
 176              		.cfi_startproc
 177              		@ args = 0, pretend = 0, frame = 0
 178              		@ frame_needed = 0, uses_anonymous_args = 0
 179              		@ link register save eliminated.
 180              	.LVL18:
 181              		.loc 1 74 0
 182 0000 3030     		adds	r0, r0, #48
 183              	.LVL19:
 184 0002 FFF7FEBF 		b	chOQPutTimeout
 185              	.LVL20:
 186              		.cfi_endproc
 187              	.LFE260:
 188              		.size	putt, .-putt
 189 0006 00BF     		.section	.text.put,"ax",%progbits
 190              		.align	1
 191              		.p2align 4,,15
 192              		.syntax unified
 193              		.thumb
 194              		.thumb_func
 195              		.fpu fpv4-sp-d16
 196              		.type	put, %function
 197              	put:
 198              	.LFB258:
 199              		.loc 1 62 0
 200              		.cfi_startproc
 201              		@ args = 0, pretend = 0, frame = 0
 202              		@ frame_needed = 0, uses_anonymous_args = 0
 203              		@ link register save eliminated.
 204              	.LVL21:
 205              		.loc 1 64 0
 206 0000 3030     		adds	r0, r0, #48
 207              	.LVL22:
 208 0002 4FF0FF32 		mov	r2, #-1
 209 0006 FFF7FEBF 		b	chOQPutTimeout
 210              	.LVL23:
 211              		.cfi_endproc
 212              	.LFE258:
 213              		.size	put, .-put
 214 000a 00BF     		.section	.text.sdInit,"ax",%progbits
 215              		.align	1
 216              		.p2align 4,,15
 217              		.global	sdInit
 218              		.syntax unified
 219              		.thumb
 220              		.thumb_func
 221              		.fpu fpv4-sp-d16
 222              		.type	sdInit, %function
 223              	sdInit:
 224              	.LFB264:
 225              		.loc 1 108 0
 226              		.cfi_startproc
 227              		@ args = 0, pretend = 0, frame = 0
 228              		@ frame_needed = 0, uses_anonymous_args = 0
ARM GAS  /tmp/ccGM3W3I.s 			page 5


 229              		@ link register save eliminated.
 230              		.loc 1 110 0
 231 0000 FFF7FEBF 		b	sd_lld_init
 232              	.LVL24:
 233              		.cfi_endproc
 234              	.LFE264:
 235              		.size	sdInit, .-sdInit
 236              		.section	.text.sdObjectInit,"ax",%progbits
 237              		.align	1
 238              		.p2align 4,,15
 239              		.global	sdObjectInit
 240              		.syntax unified
 241              		.thumb
 242              		.thumb_func
 243              		.fpu fpv4-sp-d16
 244              		.type	sdObjectInit, %function
 245              	sdObjectInit:
 246              	.LFB265:
 247              		.loc 1 128 0
 248              		.cfi_startproc
 249              		@ args = 0, pretend = 0, frame = 0
 250              		@ frame_needed = 0, uses_anonymous_args = 0
 251              	.LVL25:
 252 0000 70B5     		push	{r4, r5, r6, lr}
 253              		.cfi_def_cfa_offset 16
 254              		.cfi_offset 4, -16
 255              		.cfi_offset 5, -12
 256              		.cfi_offset 6, -8
 257              		.cfi_offset 14, -4
 258              		.loc 1 130 0
 259 0002 0E4B     		ldr	r3, .L13
 260              		.loc 1 128 0
 261 0004 0446     		mov	r4, r0
 262 0006 82B0     		sub	sp, sp, #8
 263              		.cfi_def_cfa_offset 24
 264              		.loc 1 130 0
 265 0008 40F8043B 		str	r3, [r0], #4
 266              	.LVL26:
 267              		.loc 1 132 0
 268 000c 0126     		movs	r6, #1
 269              		.loc 1 133 0
 270 000e 0094     		str	r4, [sp]
 271              		.loc 1 128 0
 272 0010 1546     		mov	r5, r2
 273              		.loc 1 133 0
 274 0012 0B46     		mov	r3, r1
 275              	.LBB66:
 276              	.LBB67:
 277              	.LBB68:
 278              		.file 2 "ChibiOS_3.0.2/os/rt/include/chevents.h"
 279              		.loc 2 172 0
 280 0014 6060     		str	r0, [r4, #4]
 281              	.LVL27:
 282              	.LBE68:
 283              	.LBE67:
 284              	.LBE66:
 285              		.loc 1 133 0
ARM GAS  /tmp/ccGM3W3I.s 			page 6


 286 0016 04F15401 		add	r1, r4, #84
 287              	.LVL28:
 288 001a 04F10C00 		add	r0, r4, #12
 289              		.loc 1 132 0
 290 001e 2672     		strb	r6, [r4, #8]
 291              		.loc 1 133 0
 292 0020 8022     		movs	r2, #128
 293              	.LVL29:
 294 0022 FFF7FEFF 		bl	chIQObjectInit
 295              	.LVL30:
 296              		.loc 1 134 0
 297 0026 0094     		str	r4, [sp]
 298 0028 2B46     		mov	r3, r5
 299 002a 04F1D401 		add	r1, r4, #212
 300 002e 04F13000 		add	r0, r4, #48
 301 0032 8022     		movs	r2, #128
 302 0034 FFF7FEFF 		bl	chOQObjectInit
 303              	.LVL31:
 304              		.loc 1 135 0
 305 0038 02B0     		add	sp, sp, #8
 306              		.cfi_def_cfa_offset 16
 307              		@ sp needed
 308 003a 70BD     		pop	{r4, r5, r6, pc}
 309              	.LVL32:
 310              	.L14:
 311              		.align	2
 312              	.L13:
 313 003c 00000000 		.word	.LANCHOR0
 314              		.cfi_endproc
 315              	.LFE265:
 316              		.size	sdObjectInit, .-sdObjectInit
 317              		.section	.text.sdStart,"ax",%progbits
 318              		.align	1
 319              		.p2align 4,,15
 320              		.global	sdStart
 321              		.syntax unified
 322              		.thumb
 323              		.thumb_func
 324              		.fpu fpv4-sp-d16
 325              		.type	sdStart, %function
 326              	sdStart:
 327              	.LFB266:
 328              		.loc 1 147 0
 329              		.cfi_startproc
 330              		@ args = 0, pretend = 0, frame = 0
 331              		@ frame_needed = 0, uses_anonymous_args = 0
 332              	.LVL33:
 333 0000 10B5     		push	{r4, lr}
 334              		.cfi_def_cfa_offset 8
 335              		.cfi_offset 4, -8
 336              		.cfi_offset 14, -4
 337              		.loc 1 147 0
 338 0002 0446     		mov	r4, r0
 339              	.LBB69:
 340              	.LBB70:
 341              	.LBB71:
 342              	.LBB72:
ARM GAS  /tmp/ccGM3W3I.s 			page 7


 343              	.LBB73:
 344              		.file 3 "ChibiOS_3.0.2/os/ext/CMSIS/include/core_cmFunc.h"
 345              		.loc 3 342 0
 346              		.syntax unified
 347              	@ 342 "ChibiOS_3.0.2/os/ext/CMSIS/include/core_cmFunc.h" 1
 348 0004 72B6     		cpsid i
 349              	@ 0 "" 2
 350              		.thumb
 351              		.syntax unified
 352              	.LBE73:
 353              	.LBE72:
 354              	.LBE71:
 355              	.LBE70:
 356              	.LBE69:
 357              		.loc 1 154 0
 358 0006 FFF7FEFF 		bl	sd_lld_start
 359              	.LVL34:
 360              		.loc 1 155 0
 361 000a 0223     		movs	r3, #2
 362 000c 2372     		strb	r3, [r4, #8]
 363              	.LBB74:
 364              	.LBB75:
 365              	.LBB76:
 366              	.LBB77:
 367              	.LBB78:
 368              	.LBB79:
 369              		.loc 3 331 0
 370              		.syntax unified
 371              	@ 331 "ChibiOS_3.0.2/os/ext/CMSIS/include/core_cmFunc.h" 1
 372 000e 62B6     		cpsie i
 373              	@ 0 "" 2
 374              		.thumb
 375              		.syntax unified
 376              	.LBE79:
 377              	.LBE78:
 378              	.LBE77:
 379              	.LBE76:
 380              	.LBE75:
 381              	.LBE74:
 382              		.loc 1 157 0
 383 0010 10BD     		pop	{r4, pc}
 384              		.cfi_endproc
 385              	.LFE266:
 386              		.size	sdStart, .-sdStart
 387 0012 00BF     		.section	.text.sdStop,"ax",%progbits
 388              		.align	1
 389              		.p2align 4,,15
 390              		.global	sdStop
 391              		.syntax unified
 392              		.thumb
 393              		.thumb_func
 394              		.fpu fpv4-sp-d16
 395              		.type	sdStop, %function
 396              	sdStop:
 397              	.LFB267:
 398              		.loc 1 168 0
 399              		.cfi_startproc
ARM GAS  /tmp/ccGM3W3I.s 			page 8


 400              		@ args = 0, pretend = 0, frame = 0
 401              		@ frame_needed = 0, uses_anonymous_args = 0
 402              	.LVL35:
 403 0000 10B5     		push	{r4, lr}
 404              		.cfi_def_cfa_offset 8
 405              		.cfi_offset 4, -8
 406              		.cfi_offset 14, -4
 407              		.loc 1 168 0
 408 0002 0446     		mov	r4, r0
 409              	.LBB80:
 410              	.LBB81:
 411              	.LBB82:
 412              	.LBB83:
 413              	.LBB84:
 414              		.loc 3 342 0
 415              		.syntax unified
 416              	@ 342 "ChibiOS_3.0.2/os/ext/CMSIS/include/core_cmFunc.h" 1
 417 0004 72B6     		cpsid i
 418              	@ 0 "" 2
 419              		.thumb
 420              		.syntax unified
 421              	.LBE84:
 422              	.LBE83:
 423              	.LBE82:
 424              	.LBE81:
 425              	.LBE80:
 426              		.loc 1 175 0
 427 0006 FFF7FEFF 		bl	sd_lld_stop
 428              	.LVL36:
 429              		.loc 1 176 0
 430 000a 0123     		movs	r3, #1
 431 000c 2372     		strb	r3, [r4, #8]
 432              		.loc 1 177 0
 433 000e 04F13000 		add	r0, r4, #48
 434 0012 FFF7FEFF 		bl	chOQResetI
 435              	.LVL37:
 436              		.loc 1 178 0
 437 0016 04F10C00 		add	r0, r4, #12
 438 001a FFF7FEFF 		bl	chIQResetI
 439              	.LVL38:
 440              	.LBB85:
 441              	.LBB86:
 442              		.file 4 "ChibiOS_3.0.2/os/hal/osal/rt/osal.h"
 443              		.loc 4 600 0
 444 001e FFF7FEFF 		bl	chSchRescheduleS
 445              	.LVL39:
 446              	.LBE86:
 447              	.LBE85:
 448              	.LBB87:
 449              	.LBB88:
 450              	.LBB89:
 451              	.LBB90:
 452              	.LBB91:
 453              	.LBB92:
 454              		.loc 3 331 0
 455              		.syntax unified
 456              	@ 331 "ChibiOS_3.0.2/os/ext/CMSIS/include/core_cmFunc.h" 1
ARM GAS  /tmp/ccGM3W3I.s 			page 9


 457 0022 62B6     		cpsie i
 458              	@ 0 "" 2
 459              		.thumb
 460              		.syntax unified
 461              	.LBE92:
 462              	.LBE91:
 463              	.LBE90:
 464              	.LBE89:
 465              	.LBE88:
 466              	.LBE87:
 467              		.loc 1 181 0
 468 0024 10BD     		pop	{r4, pc}
 469              		.cfi_endproc
 470              	.LFE267:
 471              		.size	sdStop, .-sdStop
 472 0026 00BF     		.section	.text.sdIncomingDataI,"ax",%progbits
 473              		.align	1
 474              		.p2align 4,,15
 475              		.global	sdIncomingDataI
 476              		.syntax unified
 477              		.thumb
 478              		.thumb_func
 479              		.fpu fpv4-sp-d16
 480              		.type	sdIncomingDataI, %function
 481              	sdIncomingDataI:
 482              	.LFB268:
 483              		.loc 1 199 0
 484              		.cfi_startproc
 485              		@ args = 0, pretend = 0, frame = 0
 486              		@ frame_needed = 0, uses_anonymous_args = 0
 487              	.LVL40:
 488 0000 38B5     		push	{r3, r4, r5, lr}
 489              		.cfi_def_cfa_offset 16
 490              		.cfi_offset 3, -16
 491              		.cfi_offset 4, -12
 492              		.cfi_offset 5, -8
 493              		.cfi_offset 14, -4
 494              	.LBB93:
 495              	.LBB94:
 496              		.file 5 "ChibiOS_3.0.2/os/rt/include/chqueues.h"
 497              		.loc 5 307 0
 498 0002 4369     		ldr	r3, [r0, #20]
 499              	.LBE94:
 500              	.LBE93:
 501              		.loc 1 199 0
 502 0004 0446     		mov	r4, r0
 503              	.LVL41:
 504 0006 0D46     		mov	r5, r1
 505              		.loc 1 204 0
 506 0008 3BB1     		cbz	r3, .L23
 507              		.loc 1 206 0
 508 000a 2946     		mov	r1, r5
 509              	.LVL42:
 510 000c 04F10C00 		add	r0, r4, #12
 511              	.LVL43:
 512 0010 FFF7FEFF 		bl	chIQPutI
 513              	.LVL44:
ARM GAS  /tmp/ccGM3W3I.s 			page 10


 514 0014 0028     		cmp	r0, #0
 515 0016 0BDB     		blt	.L24
 516              	.L19:
 517              		.loc 1 208 0
 518 0018 38BD     		pop	{r3, r4, r5, pc}
 519              	.LVL45:
 520              	.L23:
 521              	.LBB95:
 522              	.LBB96:
 523              		.loc 4 844 0
 524 001a 0421     		movs	r1, #4
 525              	.LVL46:
 526 001c 0844     		add	r0, r0, r1
 527              	.LVL47:
 528 001e FFF7FEFF 		bl	chEvtBroadcastFlagsI
 529              	.LVL48:
 530              	.LBE96:
 531              	.LBE95:
 532              		.loc 1 206 0
 533 0022 2946     		mov	r1, r5
 534 0024 04F10C00 		add	r0, r4, #12
 535 0028 FFF7FEFF 		bl	chIQPutI
 536              	.LVL49:
 537 002c 0028     		cmp	r0, #0
 538 002e F3DA     		bge	.L19
 539              	.LVL50:
 540              	.L24:
 541              	.LBB97:
 542              	.LBB98:
 543              		.loc 4 844 0
 544 0030 201D     		adds	r0, r4, #4
 545              	.LVL51:
 546 0032 8021     		movs	r1, #128
 547              	.LBE98:
 548              	.LBE97:
 549              		.loc 1 208 0
 550 0034 BDE83840 		pop	{r3, r4, r5, lr}
 551              		.cfi_restore 14
 552              		.cfi_restore 5
 553              		.cfi_restore 4
 554              		.cfi_restore 3
 555              		.cfi_def_cfa_offset 0
 556              	.LVL52:
 557              	.LBB100:
 558              	.LBB99:
 559              		.loc 4 844 0
 560 0038 FFF7FEBF 		b	chEvtBroadcastFlagsI
 561              	.LVL53:
 562              	.LBE99:
 563              	.LBE100:
 564              		.cfi_endproc
 565              	.LFE268:
 566              		.size	sdIncomingDataI, .-sdIncomingDataI
 567              		.section	.text.sdRequestDataI,"ax",%progbits
 568              		.align	1
 569              		.p2align 4,,15
 570              		.global	sdRequestDataI
ARM GAS  /tmp/ccGM3W3I.s 			page 11


 571              		.syntax unified
 572              		.thumb
 573              		.thumb_func
 574              		.fpu fpv4-sp-d16
 575              		.type	sdRequestDataI, %function
 576              	sdRequestDataI:
 577              	.LFB269:
 578              		.loc 1 225 0
 579              		.cfi_startproc
 580              		@ args = 0, pretend = 0, frame = 0
 581              		@ frame_needed = 0, uses_anonymous_args = 0
 582              	.LVL54:
 583 0000 38B5     		push	{r3, r4, r5, lr}
 584              		.cfi_def_cfa_offset 16
 585              		.cfi_offset 3, -16
 586              		.cfi_offset 4, -12
 587              		.cfi_offset 5, -8
 588              		.cfi_offset 14, -4
 589              		.loc 1 225 0
 590 0002 0446     		mov	r4, r0
 591              		.loc 1 231 0
 592 0004 3030     		adds	r0, r0, #48
 593              	.LVL55:
 594 0006 FFF7FEFF 		bl	chOQGetI
 595              	.LVL56:
 596              		.loc 1 232 0
 597 000a 051E     		subs	r5, r0, #0
 598 000c 01DB     		blt	.L28
 599              		.loc 1 235 0
 600 000e 2846     		mov	r0, r5
 601 0010 38BD     		pop	{r3, r4, r5, pc}
 602              	.LVL57:
 603              	.L28:
 604              	.LBB101:
 605              	.LBB102:
 606              		.loc 4 844 0
 607 0012 201D     		adds	r0, r4, #4
 608              	.LVL58:
 609 0014 0821     		movs	r1, #8
 610 0016 FFF7FEFF 		bl	chEvtBroadcastFlagsI
 611              	.LVL59:
 612              	.LBE102:
 613              	.LBE101:
 614              		.loc 1 235 0
 615 001a 2846     		mov	r0, r5
 616 001c 38BD     		pop	{r3, r4, r5, pc}
 617              		.cfi_endproc
 618              	.LFE269:
 619              		.size	sdRequestDataI, .-sdRequestDataI
 620 001e 00BF     		.section	.rodata.vmt,"a",%progbits
 621              		.align	2
 622              		.set	.LANCHOR0,. + 0
 623              		.type	vmt, %object
 624              		.size	vmt, 32
 625              	vmt:
 626 0000 00000000 		.word	write
 627 0004 00000000 		.word	read
ARM GAS  /tmp/ccGM3W3I.s 			page 12


 628 0008 00000000 		.word	put
 629 000c 00000000 		.word	get
 630 0010 00000000 		.word	putt
 631 0014 00000000 		.word	gett
 632 0018 00000000 		.word	writet
 633 001c 00000000 		.word	readt
 634              		.text
 635              	.Letext0:
 636              		.file 6 "/usr/lib/gcc/arm-none-eabi/7.3.1/include/stddef.h"
 637              		.file 7 "/usr/arm-none-eabi/include/machine/_default_types.h"
 638              		.file 8 "/usr/arm-none-eabi/include/sys/_stdint.h"
 639              		.file 9 "ChibiOS_3.0.2/os/rt/ports/ARMCMx/compilers/GCC/chtypes.h"
 640              		.file 10 "ChibiOS_3.0.2/os/rt/include/chsystypes.h"
 641              		.file 11 "ChibiOS_3.0.2/os/rt/include/chschd.h"
 642              		.file 12 "ChibiOS_3.0.2/os/ext/CMSIS/include/core_cm4.h"
 643              		.file 13 "ChibiOS_3.0.2/os/ext/CMSIS/ST/system_stm32f4xx.h"
 644              		.file 14 "ChibiOS_3.0.2/os/ext/CMSIS/ST/stm32f407xx.h"
 645              		.file 15 "ChibiOS_3.0.2/os/rt/ports/ARMCMx/chcore.h"
 646              		.file 16 "ChibiOS_3.0.2/os/rt/ports/ARMCMx/chcore_v7m.h"
 647              		.file 17 "ChibiOS_3.0.2/os/rt/include/chtm.h"
 648              		.file 18 "ChibiOS_3.0.2/os/rt/include/chsem.h"
 649              		.file 19 "ChibiOS_3.0.2/os/rt/include/chmtx.h"
 650              		.file 20 "ChibiOS_3.0.2/os/rt/include/chregistry.h"
 651              		.file 21 "./conf_general.h"
 652              		.file 22 "ChibiOS_3.0.2/os/hal/ports/STM32/STM32F4xx/stm32_dma.h"
 653              		.file 23 "ChibiOS_3.0.2/os/hal/ports/STM32/LLD/GPIOv2/pal_lld.h"
 654              		.file 24 "ChibiOS_3.0.2/os/hal/include/can.h"
 655              		.file 25 "ChibiOS_3.0.2/os/hal/ports/STM32/LLD/can_lld.h"
 656              		.file 26 "ChibiOS_3.0.2/os/hal/include/i2c.h"
 657              		.file 27 "ChibiOS_3.0.2/os/hal/ports/STM32/LLD/I2Cv1/i2c_lld.h"
 658              		.file 28 "ChibiOS_3.0.2/os/hal/include/icu.h"
 659              		.file 29 "ChibiOS_3.0.2/os/hal/ports/STM32/LLD/TIMv1/icu_lld.h"
 660              		.file 30 "ChibiOS_3.0.2/os/hal/ports/STM32/LLD/TIMv1/stm32_tim.h"
 661              		.file 31 "ChibiOS_3.0.2/os/hal/include/serial.h"
 662              		.file 32 "ChibiOS_3.0.2/os/hal/ports/STM32/LLD/USARTv1/serial_lld.h"
 663              		.file 33 "ChibiOS_3.0.2/os/hal/include/spi.h"
 664              		.file 34 "ChibiOS_3.0.2/os/hal/ports/STM32/LLD/SPIv1/spi_lld.h"
 665              		.file 35 "ChibiOS_3.0.2/os/hal/include/usb.h"
 666              		.file 36 "ChibiOS_3.0.2/os/hal/ports/STM32/LLD/OTGv1/usb_lld.h"
 667              		.file 37 "ChibiOS_3.0.2/os/hal/ports/STM32/LLD/OTGv1/stm32_otg.h"
 668              		.file 38 "ChibiOS_3.0.2/os/rt/include/chsys.h"