ARM GAS  /tmp/cc4eRZ3W.s 			page 1


   1              		.cpu cortex-m4
   2              		.eabi_attribute 27, 1
   3              		.eabi_attribute 28, 1
   4              		.eabi_attribute 20, 1
   5              		.eabi_attribute 21, 1
   6              		.eabi_attribute 23, 3
   7              		.eabi_attribute 24, 1
   8              		.eabi_attribute 25, 1
   9              		.eabi_attribute 26, 1
  10              		.eabi_attribute 30, 2
  11              		.eabi_attribute 34, 1
  12              		.eabi_attribute 18, 4
  13              		.file	"st_lld.c"
  14              		.text
  15              	.Ltext0:
  16              		.cfi_sections	.debug_frame
  17              		.section	.text.SysTick_Handler,"ax",%progbits
  18              		.align	1
  19              		.p2align 4,,15
  20              		.global	SysTick_Handler
  21              		.syntax unified
  22              		.thumb
  23              		.thumb_func
  24              		.fpu fpv4-sp-d16
  25              		.type	SysTick_Handler, %function
  26              	SysTick_Handler:
  27              	.LFB256:
  28              		.file 1 "ChibiOS_3.0.2/os/hal/ports/STM32/LLD/TIMv1/st_lld.c"
  29              		.loc 1 154 0
  30              		.cfi_startproc
  31              		@ args = 0, pretend = 0, frame = 0
  32              		@ frame_needed = 0, uses_anonymous_args = 0
  33 0000 08B5     		push	{r3, lr}
  34              		.cfi_def_cfa_offset 8
  35              		.cfi_offset 3, -8
  36              		.cfi_offset 14, -4
  37              	.LBB52:
  38              	.LBB53:
  39              	.LBB54:
  40              	.LBB55:
  41              	.LBB56:
  42              	.LBB57:
  43              		.file 2 "ChibiOS_3.0.2/os/ext/CMSIS/include/core_cmFunc.h"
  44              		.loc 2 342 0
  45              		.syntax unified
  46              	@ 342 "ChibiOS_3.0.2/os/ext/CMSIS/include/core_cmFunc.h" 1
  47 0002 72B6     		cpsid i
  48              	@ 0 "" 2
  49              		.thumb
  50              		.syntax unified
  51              	.LBE57:
  52              	.LBE56:
  53              	.LBE55:
  54              	.LBE54:
  55              	.LBE53:
  56              	.LBE52:
  57              	.LBB58:
ARM GAS  /tmp/cc4eRZ3W.s 			page 2


  58              	.LBB59:
  59              		.file 3 "ChibiOS_3.0.2/os/hal/osal/rt/osal.h"
  60              		.loc 3 585 0
  61 0004 FFF7FEFF 		bl	chSysTimerHandlerI
  62              	.LVL0:
  63              	.LBE59:
  64              	.LBE58:
  65              	.LBB60:
  66              	.LBB61:
  67              	.LBB62:
  68              	.LBB63:
  69              	.LBB64:
  70              	.LBB65:
  71              		.loc 2 331 0
  72              		.syntax unified
  73              	@ 331 "ChibiOS_3.0.2/os/ext/CMSIS/include/core_cmFunc.h" 1
  74 0008 62B6     		cpsie i
  75              	@ 0 "" 2
  76              		.thumb
  77              		.syntax unified
  78              	.LBE65:
  79              	.LBE64:
  80              	.LBE63:
  81              	.LBE62:
  82              	.LBE61:
  83              	.LBE60:
  84              		.loc 1 163 0
  85 000a BDE80840 		pop	{r3, lr}
  86              		.cfi_restore 14
  87              		.cfi_restore 3
  88              		.cfi_def_cfa_offset 0
  89              		.loc 1 162 0
  90 000e FFF7FEBF 		b	_port_irq_epilogue
  91              	.LVL1:
  92              		.cfi_endproc
  93              	.LFE256:
  94              		.size	SysTick_Handler, .-SysTick_Handler
  95 0012 00BF     		.section	.text.st_lld_init,"ax",%progbits
  96              		.align	1
  97              		.p2align 4,,15
  98              		.global	st_lld_init
  99              		.syntax unified
 100              		.thumb
 101              		.thumb_func
 102              		.fpu fpv4-sp-d16
 103              		.type	st_lld_init, %function
 104              	st_lld_init:
 105              	.LFB257:
 106              		.loc 1 201 0
 107              		.cfi_startproc
 108              		@ args = 0, pretend = 0, frame = 0
 109              		@ frame_needed = 0, uses_anonymous_args = 0
 110              		@ link register save eliminated.
 111              		.loc 1 229 0
 112 0000 054B     		ldr	r3, .L5
 113 0002 44F29F11 		movw	r1, #16799
 114              		.loc 1 230 0
ARM GAS  /tmp/cc4eRZ3W.s 			page 3


 115 0006 0020     		movs	r0, #0
 116              		.loc 1 231 0
 117 0008 0722     		movs	r2, #7
 118              		.loc 1 229 0
 119 000a 5960     		str	r1, [r3, #4]
 120              		.loc 1 230 0
 121 000c 9860     		str	r0, [r3, #8]
 122              		.loc 1 236 0
 123 000e 0821     		movs	r1, #8
 124 0010 0B20     		movs	r0, #11
 125              		.loc 1 231 0
 126 0012 1A60     		str	r2, [r3]
 127              		.loc 1 236 0
 128 0014 FFF7FEBF 		b	nvicSetSystemHandlerPriority
 129              	.LVL2:
 130              	.L6:
 131              		.align	2
 132              	.L5:
 133 0018 10E000E0 		.word	-536813552
 134              		.cfi_endproc
 135              	.LFE257:
 136              		.size	st_lld_init, .-st_lld_init
 137              		.text
 138              	.Letext0:
 139              		.file 4 "/usr/lib/gcc/arm-none-eabi/7.3.1/include/stddef.h"
 140              		.file 5 "/usr/arm-none-eabi/include/machine/_default_types.h"
 141              		.file 6 "/usr/arm-none-eabi/include/sys/_stdint.h"
 142              		.file 7 "ChibiOS_3.0.2/os/rt/ports/ARMCMx/compilers/GCC/chtypes.h"
 143              		.file 8 "ChibiOS_3.0.2/os/rt/include/chsystypes.h"
 144              		.file 9 "ChibiOS_3.0.2/os/rt/include/chschd.h"
 145              		.file 10 "ChibiOS_3.0.2/os/ext/CMSIS/include/core_cm4.h"
 146              		.file 11 "ChibiOS_3.0.2/os/ext/CMSIS/ST/system_stm32f4xx.h"
 147              		.file 12 "ChibiOS_3.0.2/os/ext/CMSIS/ST/stm32f407xx.h"
 148              		.file 13 "ChibiOS_3.0.2/os/rt/ports/ARMCMx/chcore.h"
 149              		.file 14 "ChibiOS_3.0.2/os/rt/ports/ARMCMx/chcore_v7m.h"
 150              		.file 15 "ChibiOS_3.0.2/os/rt/include/chtm.h"
 151              		.file 16 "ChibiOS_3.0.2/os/rt/include/chsem.h"
 152              		.file 17 "ChibiOS_3.0.2/os/rt/include/chmtx.h"
 153              		.file 18 "ChibiOS_3.0.2/os/rt/include/chregistry.h"
 154              		.file 19 "ChibiOS_3.0.2/os/rt/include/chevents.h"
 155              		.file 20 "ChibiOS_3.0.2/os/rt/include/chqueues.h"
 156              		.file 21 "./conf_general.h"
 157              		.file 22 "ChibiOS_3.0.2/os/hal/ports/STM32/STM32F4xx/stm32_dma.h"
 158              		.file 23 "ChibiOS_3.0.2/os/hal/ports/STM32/LLD/GPIOv2/pal_lld.h"
 159              		.file 24 "ChibiOS_3.0.2/os/hal/include/can.h"
 160              		.file 25 "ChibiOS_3.0.2/os/hal/ports/STM32/LLD/can_lld.h"
 161              		.file 26 "ChibiOS_3.0.2/os/hal/include/i2c.h"
 162              		.file 27 "ChibiOS_3.0.2/os/hal/ports/STM32/LLD/I2Cv1/i2c_lld.h"
 163              		.file 28 "ChibiOS_3.0.2/os/hal/include/icu.h"
 164              		.file 29 "ChibiOS_3.0.2/os/hal/ports/STM32/LLD/TIMv1/icu_lld.h"
 165              		.file 30 "ChibiOS_3.0.2/os/hal/ports/STM32/LLD/TIMv1/stm32_tim.h"
 166              		.file 31 "ChibiOS_3.0.2/os/hal/include/serial.h"
 167              		.file 32 "ChibiOS_3.0.2/os/hal/ports/STM32/LLD/USARTv1/serial_lld.h"
 168              		.file 33 "ChibiOS_3.0.2/os/hal/include/spi.h"
 169              		.file 34 "ChibiOS_3.0.2/os/hal/ports/STM32/LLD/SPIv1/spi_lld.h"
 170              		.file 35 "ChibiOS_3.0.2/os/hal/include/usb.h"
 171              		.file 36 "ChibiOS_3.0.2/os/hal/ports/STM32/LLD/OTGv1/usb_lld.h"
ARM GAS  /tmp/cc4eRZ3W.s 			page 4


 172              		.file 37 "ChibiOS_3.0.2/os/hal/ports/STM32/LLD/OTGv1/stm32_otg.h"
 173              		.file 38 "ChibiOS_3.0.2/os/rt/include/chsys.h"
 174              		.file 39 "ChibiOS_3.0.2/os/hal/ports/common/ARMCMx/nvic.h"