ARM GAS  /tmp/cctDEYCU.s 			page 1


   1              		.cpu cortex-m4
   2              		.eabi_attribute 27, 1
   3              		.eabi_attribute 28, 1
   4              		.eabi_attribute 20, 1
   5              		.eabi_attribute 21, 1
   6              		.eabi_attribute 23, 3
   7              		.eabi_attribute 24, 1
   8              		.eabi_attribute 25, 1
   9              		.eabi_attribute 26, 1
  10              		.eabi_attribute 30, 2
  11              		.eabi_attribute 34, 1
  12              		.eabi_attribute 18, 4
  13              		.file	"usb.c"
  14              		.text
  15              	.Ltext0:
  16              		.cfi_sections	.debug_frame
  17              		.section	.text.usbInit,"ax",%progbits
  18              		.align	1
  19              		.p2align 4,,15
  20              		.global	usbInit
  21              		.syntax unified
  22              		.thumb
  23              		.thumb_func
  24              		.fpu fpv4-sp-d16
  25              		.type	usbInit, %function
  26              	usbInit:
  27              	.LFB259:
  28              		.file 1 "ChibiOS_3.0.2/os/hal/src/usb.c"
  29              		.loc 1 254 0
  30              		.cfi_startproc
  31              		@ args = 0, pretend = 0, frame = 0
  32              		@ frame_needed = 0, uses_anonymous_args = 0
  33              		@ link register save eliminated.
  34              		.loc 1 256 0
  35 0000 FFF7FEBF 		b	usb_lld_init
  36              	.LVL0:
  37              		.cfi_endproc
  38              	.LFE259:
  39              		.size	usbInit, .-usbInit
  40              		.section	.text.usbObjectInit,"ax",%progbits
  41              		.align	1
  42              		.p2align 4,,15
  43              		.global	usbObjectInit
  44              		.syntax unified
  45              		.thumb
  46              		.thumb_func
  47              		.fpu fpv4-sp-d16
  48              		.type	usbObjectInit, %function
  49              	usbObjectInit:
  50              	.LFB260:
  51              		.loc 1 266 0
  52              		.cfi_startproc
  53              		@ args = 0, pretend = 0, frame = 0
  54              		@ frame_needed = 0, uses_anonymous_args = 0
  55              		@ link register save eliminated.
  56              	.LVL1:
  57              		.loc 1 272 0
ARM GAS  /tmp/cctDEYCU.s 			page 2


  58 0000 0023     		movs	r3, #0
  59              		.loc 1 269 0
  60 0002 0122     		movs	r2, #1
  61 0004 0270     		strb	r2, [r0]
  62              	.LVL2:
  63              		.loc 1 272 0
  64 0006 C361     		str	r3, [r0, #28]
  65              		.loc 1 273 0
  66 0008 8362     		str	r3, [r0, #40]
  67              	.LVL3:
  68              		.loc 1 272 0
  69 000a 0362     		str	r3, [r0, #32]
  70              		.loc 1 273 0
  71 000c C362     		str	r3, [r0, #44]
  72              	.LVL4:
  73              		.loc 1 272 0
  74 000e 4362     		str	r3, [r0, #36]
  75              		.loc 1 273 0
  76 0010 0363     		str	r3, [r0, #48]
  77              	.LVL5:
  78              		.loc 1 270 0
  79 0012 C0E90133 		strd	r3, r3, [r0, #4]
  80              		.loc 1 277 0
  81 0016 7047     		bx	lr
  82              		.cfi_endproc
  83              	.LFE260:
  84              		.size	usbObjectInit, .-usbObjectInit
  85              		.section	.text.usbStart,"ax",%progbits
  86              		.align	1
  87              		.p2align 4,,15
  88              		.global	usbStart
  89              		.syntax unified
  90              		.thumb
  91              		.thumb_func
  92              		.fpu fpv4-sp-d16
  93              		.type	usbStart, %function
  94              	usbStart:
  95              	.LFB261:
  96              		.loc 1 287 0
  97              		.cfi_startproc
  98              		@ args = 0, pretend = 0, frame = 0
  99              		@ frame_needed = 0, uses_anonymous_args = 0
 100              	.LVL6:
 101 0000 10B5     		push	{r4, lr}
 102              		.cfi_def_cfa_offset 8
 103              		.cfi_offset 4, -8
 104              		.cfi_offset 14, -4
 105              		.loc 1 287 0
 106 0002 0446     		mov	r4, r0
 107              	.LBB212:
 108              	.LBB213:
 109              	.LBB214:
 110              	.LBB215:
 111              	.LBB216:
 112              		.file 2 "ChibiOS_3.0.2/os/ext/CMSIS/include/core_cmFunc.h"
 113              		.loc 2 342 0
 114              		.syntax unified
ARM GAS  /tmp/cctDEYCU.s 			page 3


 115              	@ 342 "ChibiOS_3.0.2/os/ext/CMSIS/include/core_cmFunc.h" 1
 116 0004 72B6     		cpsid i
 117              	@ 0 "" 2
 118              		.thumb
 119              		.syntax unified
 120              	.LBE216:
 121              	.LBE215:
 122              	.LBE214:
 123              	.LBE213:
 124              	.LBE212:
 125              		.loc 1 297 0
 126 0006 0023     		movs	r3, #0
 127 0008 C0E90333 		strd	r3, r3, [r0, #12]
 128 000c C0E90533 		strd	r3, r3, [r0, #20]
 129              		.loc 1 295 0
 130 0010 4160     		str	r1, [r0, #4]
 131              	.LVL7:
 132              		.loc 1 299 0
 133 0012 FFF7FEFF 		bl	usb_lld_start
 134              	.LVL8:
 135              		.loc 1 300 0
 136 0016 0223     		movs	r3, #2
 137 0018 2370     		strb	r3, [r4]
 138              	.LBB217:
 139              	.LBB218:
 140              	.LBB219:
 141              	.LBB220:
 142              	.LBB221:
 143              	.LBB222:
 144              		.loc 2 331 0
 145              		.syntax unified
 146              	@ 331 "ChibiOS_3.0.2/os/ext/CMSIS/include/core_cmFunc.h" 1
 147 001a 62B6     		cpsie i
 148              	@ 0 "" 2
 149              		.thumb
 150              		.syntax unified
 151              	.LBE222:
 152              	.LBE221:
 153              	.LBE220:
 154              	.LBE219:
 155              	.LBE218:
 156              	.LBE217:
 157              		.loc 1 302 0
 158 001c 10BD     		pop	{r4, pc}
 159              		.cfi_endproc
 160              	.LFE261:
 161              		.size	usbStart, .-usbStart
 162 001e 00BF     		.section	.text.usbStop,"ax",%progbits
 163              		.align	1
 164              		.p2align 4,,15
 165              		.global	usbStop
 166              		.syntax unified
 167              		.thumb
 168              		.thumb_func
 169              		.fpu fpv4-sp-d16
 170              		.type	usbStop, %function
 171              	usbStop:
ARM GAS  /tmp/cctDEYCU.s 			page 4


 172              	.LFB262:
 173              		.loc 1 311 0
 174              		.cfi_startproc
 175              		@ args = 0, pretend = 0, frame = 0
 176              		@ frame_needed = 0, uses_anonymous_args = 0
 177              	.LVL9:
 178 0000 10B5     		push	{r4, lr}
 179              		.cfi_def_cfa_offset 8
 180              		.cfi_offset 4, -8
 181              		.cfi_offset 14, -4
 182              		.loc 1 311 0
 183 0002 0446     		mov	r4, r0
 184              	.LBB223:
 185              	.LBB224:
 186              	.LBB225:
 187              	.LBB226:
 188              	.LBB227:
 189              		.loc 2 342 0
 190              		.syntax unified
 191              	@ 342 "ChibiOS_3.0.2/os/ext/CMSIS/include/core_cmFunc.h" 1
 192 0004 72B6     		cpsid i
 193              	@ 0 "" 2
 194              		.thumb
 195              		.syntax unified
 196              	.LBE227:
 197              	.LBE226:
 198              	.LBE225:
 199              	.LBE224:
 200              	.LBE223:
 201              		.loc 1 319 0
 202 0006 FFF7FEFF 		bl	usb_lld_stop
 203              	.LVL10:
 204              		.loc 1 320 0
 205 000a 0123     		movs	r3, #1
 206 000c 2370     		strb	r3, [r4]
 207              	.LBB228:
 208              	.LBB229:
 209              	.LBB230:
 210              	.LBB231:
 211              	.LBB232:
 212              	.LBB233:
 213              		.loc 2 331 0
 214              		.syntax unified
 215              	@ 331 "ChibiOS_3.0.2/os/ext/CMSIS/include/core_cmFunc.h" 1
 216 000e 62B6     		cpsie i
 217              	@ 0 "" 2
 218              		.thumb
 219              		.syntax unified
 220              	.LBE233:
 221              	.LBE232:
 222              	.LBE231:
 223              	.LBE230:
 224              	.LBE229:
 225              	.LBE228:
 226              		.loc 1 322 0
 227 0010 10BD     		pop	{r4, pc}
 228              		.cfi_endproc
ARM GAS  /tmp/cctDEYCU.s 			page 5


 229              	.LFE262:
 230              		.size	usbStop, .-usbStop
 231 0012 00BF     		.section	.text.usbInitEndpointI,"ax",%progbits
 232              		.align	1
 233              		.p2align 4,,15
 234              		.global	usbInitEndpointI
 235              		.syntax unified
 236              		.thumb
 237              		.thumb_func
 238              		.fpu fpv4-sp-d16
 239              		.type	usbInitEndpointI, %function
 240              	usbInitEndpointI:
 241              	.LFB263:
 242              		.loc 1 338 0
 243              		.cfi_startproc
 244              		@ args = 0, pretend = 0, frame = 0
 245              		@ frame_needed = 0, uses_anonymous_args = 0
 246              		@ link register save eliminated.
 247              	.LVL11:
 248              		.loc 1 347 0
 249 0000 5369     		ldr	r3, [r2, #20]
 250              		.loc 1 338 0
 251 0002 10B4     		push	{r4}
 252              		.cfi_def_cfa_offset 4
 253              		.cfi_offset 4, -4
 254              		.loc 1 347 0
 255 0004 2BB1     		cbz	r3, .L9
 256              		.loc 1 348 0
 257 0006 0024     		movs	r4, #0
 258 0008 1C60     		str	r4, [r3]	@ unaligned
 259 000a 5C60     		str	r4, [r3, #4]	@ unaligned
 260 000c 9C60     		str	r4, [r3, #8]	@ unaligned
 261 000e DC60     		str	r4, [r3, #12]	@ unaligned
 262 0010 1C61     		str	r4, [r3, #16]	@ unaligned
 263              	.L9:
 264              		.loc 1 350 0
 265 0012 9369     		ldr	r3, [r2, #24]
 266 0014 2BB1     		cbz	r3, .L10
 267              		.loc 1 351 0
 268 0016 0024     		movs	r4, #0
 269 0018 1C60     		str	r4, [r3]	@ unaligned
 270 001a 5C60     		str	r4, [r3, #4]	@ unaligned
 271 001c 9C60     		str	r4, [r3, #8]	@ unaligned
 272 001e DC60     		str	r4, [r3, #12]	@ unaligned
 273 0020 1C61     		str	r4, [r3, #16]	@ unaligned
 274              	.L10:
 275              		.loc 1 354 0
 276 0022 00EB8103 		add	r3, r0, r1, lsl #2
 277              		.loc 1 358 0
 278 0026 5DF8044B 		ldr	r4, [sp], #4
 279              		.cfi_restore 4
 280              		.cfi_def_cfa_offset 0
 281              		.loc 1 354 0
 282 002a DA60     		str	r2, [r3, #12]
 283              		.loc 1 357 0
 284 002c FFF7FEBF 		b	usb_lld_init_endpoint
 285              	.LVL12:
ARM GAS  /tmp/cctDEYCU.s 			page 6


 286              		.cfi_endproc
 287              	.LFE263:
 288              		.size	usbInitEndpointI, .-usbInitEndpointI
 289              		.section	.text.usbDisableEndpointsI,"ax",%progbits
 290              		.align	1
 291              		.p2align 4,,15
 292              		.global	usbDisableEndpointsI
 293              		.syntax unified
 294              		.thumb
 295              		.thumb_func
 296              		.fpu fpv4-sp-d16
 297              		.type	usbDisableEndpointsI, %function
 298              	usbDisableEndpointsI:
 299              	.LFB264:
 300              		.loc 1 371 0
 301              		.cfi_startproc
 302              		@ args = 0, pretend = 0, frame = 0
 303              		@ frame_needed = 0, uses_anonymous_args = 0
 304              		@ link register save eliminated.
 305              	.LVL13:
 306 0000 10B4     		push	{r4}
 307              		.cfi_def_cfa_offset 4
 308              		.cfi_offset 4, -4
 309              		.loc 1 379 0
 310 0002 4189     		ldrh	r1, [r0, #10]
 311              		.loc 1 378 0
 312 0004 0489     		ldrh	r4, [r0, #8]
 313              		.loc 1 381 0
 314 0006 0022     		movs	r2, #0
 315              		.loc 1 378 0
 316 0008 24F00104 		bic	r4, r4, #1
 317              		.loc 1 379 0
 318 000c 21F00101 		bic	r1, r1, #1
 319              		.loc 1 378 0
 320 0010 0481     		strh	r4, [r0, #8]	@ movhi
 321              		.loc 1 381 0
 322 0012 0261     		str	r2, [r0, #16]
 323              		.loc 1 379 0
 324 0014 4181     		strh	r1, [r0, #10]	@ movhi
 325              	.LVL14:
 326              		.loc 1 381 0
 327 0016 C0E90522 		strd	r2, r2, [r0, #20]
 328              	.LVL15:
 329              		.loc 1 386 0
 330 001a 5DF8044B 		ldr	r4, [sp], #4
 331              		.cfi_restore 4
 332              		.cfi_def_cfa_offset 0
 333              		.loc 1 385 0
 334 001e FFF7FEBF 		b	usb_lld_disable_endpoints
 335              	.LVL16:
 336              		.cfi_endproc
 337              	.LFE264:
 338              		.size	usbDisableEndpointsI, .-usbDisableEndpointsI
 339 0022 00BF     		.section	.text.usbPrepareReceive,"ax",%progbits
 340              		.align	1
 341              		.p2align 4,,15
 342              		.global	usbPrepareReceive
ARM GAS  /tmp/cctDEYCU.s 			page 7


 343              		.syntax unified
 344              		.thumb
 345              		.thumb_func
 346              		.fpu fpv4-sp-d16
 347              		.type	usbPrepareReceive, %function
 348              	usbPrepareReceive:
 349              	.LFB265:
 350              		.loc 1 400 0
 351              		.cfi_startproc
 352              		@ args = 0, pretend = 0, frame = 0
 353              		@ frame_needed = 0, uses_anonymous_args = 0
 354              		@ link register save eliminated.
 355              	.LVL17:
 356 0000 30B4     		push	{r4, r5}
 357              		.cfi_def_cfa_offset 8
 358              		.cfi_offset 4, -8
 359              		.cfi_offset 5, -4
 360              		.loc 1 401 0
 361 0002 00EB8104 		add	r4, r0, r1, lsl #2
 362              		.loc 1 403 0
 363 0006 0025     		movs	r5, #0
 364              		.loc 1 401 0
 365 0008 E468     		ldr	r4, [r4, #12]
 366 000a A469     		ldr	r4, [r4, #24]
 367              	.LVL18:
 368              		.loc 1 404 0
 369 000c E260     		str	r2, [r4, #12]
 370              		.loc 1 405 0
 371 000e 6360     		str	r3, [r4, #4]
 372              		.loc 1 403 0
 373 0010 2570     		strb	r5, [r4]
 374              		.loc 1 406 0
 375 0012 A560     		str	r5, [r4, #8]
 376              		.loc 1 409 0
 377 0014 30BC     		pop	{r4, r5}
 378              		.cfi_restore 5
 379              		.cfi_restore 4
 380              		.cfi_def_cfa_offset 0
 381              	.LVL19:
 382              		.loc 1 408 0
 383 0016 FFF7FEBF 		b	usb_lld_prepare_receive
 384              	.LVL20:
 385              		.cfi_endproc
 386              	.LFE265:
 387              		.size	usbPrepareReceive, .-usbPrepareReceive
 388 001a 00BF     		.section	.text.usbPrepareTransmit,"ax",%progbits
 389              		.align	1
 390              		.p2align 4,,15
 391              		.global	usbPrepareTransmit
 392              		.syntax unified
 393              		.thumb
 394              		.thumb_func
 395              		.fpu fpv4-sp-d16
 396              		.type	usbPrepareTransmit, %function
 397              	usbPrepareTransmit:
 398              	.LFB266:
 399              		.loc 1 426 0
ARM GAS  /tmp/cctDEYCU.s 			page 8


 400              		.cfi_startproc
 401              		@ args = 0, pretend = 0, frame = 0
 402              		@ frame_needed = 0, uses_anonymous_args = 0
 403              		@ link register save eliminated.
 404              	.LVL21:
 405 0000 30B4     		push	{r4, r5}
 406              		.cfi_def_cfa_offset 8
 407              		.cfi_offset 4, -8
 408              		.cfi_offset 5, -4
 409              		.loc 1 427 0
 410 0002 00EB8104 		add	r4, r0, r1, lsl #2
 411              		.loc 1 429 0
 412 0006 0025     		movs	r5, #0
 413              		.loc 1 427 0
 414 0008 E468     		ldr	r4, [r4, #12]
 415 000a 6469     		ldr	r4, [r4, #20]
 416              	.LVL22:
 417              		.loc 1 430 0
 418 000c E260     		str	r2, [r4, #12]
 419              		.loc 1 431 0
 420 000e 6360     		str	r3, [r4, #4]
 421              		.loc 1 429 0
 422 0010 2570     		strb	r5, [r4]
 423              		.loc 1 432 0
 424 0012 A560     		str	r5, [r4, #8]
 425              		.loc 1 435 0
 426 0014 30BC     		pop	{r4, r5}
 427              		.cfi_restore 5
 428              		.cfi_restore 4
 429              		.cfi_def_cfa_offset 0
 430              	.LVL23:
 431              		.loc 1 434 0
 432 0016 FFF7FEBF 		b	usb_lld_prepare_transmit
 433              	.LVL24:
 434              		.cfi_endproc
 435              	.LFE266:
 436              		.size	usbPrepareTransmit, .-usbPrepareTransmit
 437 001a 00BF     		.section	.text.usbPrepareQueuedReceive,"ax",%progbits
 438              		.align	1
 439              		.p2align 4,,15
 440              		.global	usbPrepareQueuedReceive
 441              		.syntax unified
 442              		.thumb
 443              		.thumb_func
 444              		.fpu fpv4-sp-d16
 445              		.type	usbPrepareQueuedReceive, %function
 446              	usbPrepareQueuedReceive:
 447              	.LFB267:
 448              		.loc 1 455 0
 449              		.cfi_startproc
 450              		@ args = 0, pretend = 0, frame = 0
 451              		@ frame_needed = 0, uses_anonymous_args = 0
 452              		@ link register save eliminated.
 453              	.LVL25:
 454 0000 30B4     		push	{r4, r5}
 455              		.cfi_def_cfa_offset 8
 456              		.cfi_offset 4, -8
ARM GAS  /tmp/cctDEYCU.s 			page 9


 457              		.cfi_offset 5, -4
 458              		.loc 1 456 0
 459 0002 00EB8104 		add	r4, r0, r1, lsl #2
 460              		.loc 1 458 0
 461 0006 0125     		movs	r5, #1
 462              		.loc 1 456 0
 463 0008 E468     		ldr	r4, [r4, #12]
 464 000a A469     		ldr	r4, [r4, #24]
 465              	.LVL26:
 466              		.loc 1 459 0
 467 000c E260     		str	r2, [r4, #12]
 468              		.loc 1 461 0
 469 000e 0022     		movs	r2, #0
 470              	.LVL27:
 471              		.loc 1 460 0
 472 0010 6360     		str	r3, [r4, #4]
 473              		.loc 1 458 0
 474 0012 2570     		strb	r5, [r4]
 475              		.loc 1 461 0
 476 0014 A260     		str	r2, [r4, #8]
 477              		.loc 1 464 0
 478 0016 30BC     		pop	{r4, r5}
 479              		.cfi_restore 5
 480              		.cfi_restore 4
 481              		.cfi_def_cfa_offset 0
 482              	.LVL28:
 483              		.loc 1 463 0
 484 0018 FFF7FEBF 		b	usb_lld_prepare_receive
 485              	.LVL29:
 486              		.cfi_endproc
 487              	.LFE267:
 488              		.size	usbPrepareQueuedReceive, .-usbPrepareQueuedReceive
 489              		.section	.text.usbPrepareQueuedTransmit,"ax",%progbits
 490              		.align	1
 491              		.p2align 4,,15
 492              		.global	usbPrepareQueuedTransmit
 493              		.syntax unified
 494              		.thumb
 495              		.thumb_func
 496              		.fpu fpv4-sp-d16
 497              		.type	usbPrepareQueuedTransmit, %function
 498              	usbPrepareQueuedTransmit:
 499              	.LFB268:
 500              		.loc 1 481 0
 501              		.cfi_startproc
 502              		@ args = 0, pretend = 0, frame = 0
 503              		@ frame_needed = 0, uses_anonymous_args = 0
 504              		@ link register save eliminated.
 505              	.LVL30:
 506 0000 30B4     		push	{r4, r5}
 507              		.cfi_def_cfa_offset 8
 508              		.cfi_offset 4, -8
 509              		.cfi_offset 5, -4
 510              		.loc 1 482 0
 511 0002 00EB8104 		add	r4, r0, r1, lsl #2
 512              		.loc 1 484 0
 513 0006 0125     		movs	r5, #1
ARM GAS  /tmp/cctDEYCU.s 			page 10


 514              		.loc 1 482 0
 515 0008 E468     		ldr	r4, [r4, #12]
 516 000a 6469     		ldr	r4, [r4, #20]
 517              	.LVL31:
 518              		.loc 1 485 0
 519 000c E260     		str	r2, [r4, #12]
 520              		.loc 1 487 0
 521 000e 0022     		movs	r2, #0
 522              	.LVL32:
 523              		.loc 1 486 0
 524 0010 6360     		str	r3, [r4, #4]
 525              		.loc 1 484 0
 526 0012 2570     		strb	r5, [r4]
 527              		.loc 1 487 0
 528 0014 A260     		str	r2, [r4, #8]
 529              		.loc 1 490 0
 530 0016 30BC     		pop	{r4, r5}
 531              		.cfi_restore 5
 532              		.cfi_restore 4
 533              		.cfi_def_cfa_offset 0
 534              	.LVL33:
 535              		.loc 1 489 0
 536 0018 FFF7FEBF 		b	usb_lld_prepare_transmit
 537              	.LVL34:
 538              		.cfi_endproc
 539              	.LFE268:
 540              		.size	usbPrepareQueuedTransmit, .-usbPrepareQueuedTransmit
 541              		.section	.text.usbStartReceiveI,"ax",%progbits
 542              		.align	1
 543              		.p2align 4,,15
 544              		.global	usbStartReceiveI
 545              		.syntax unified
 546              		.thumb
 547              		.thumb_func
 548              		.fpu fpv4-sp-d16
 549              		.type	usbStartReceiveI, %function
 550              	usbStartReceiveI:
 551              	.LFB269:
 552              		.loc 1 506 0
 553              		.cfi_startproc
 554              		@ args = 0, pretend = 0, frame = 0
 555              		@ frame_needed = 0, uses_anonymous_args = 0
 556              	.LVL35:
 557              		.loc 1 511 0
 558 0000 0122     		movs	r2, #1
 559              		.loc 1 506 0
 560 0002 70B5     		push	{r4, r5, r6, lr}
 561              		.cfi_def_cfa_offset 16
 562              		.cfi_offset 4, -16
 563              		.cfi_offset 5, -12
 564              		.cfi_offset 6, -8
 565              		.cfi_offset 14, -4
 566              		.loc 1 511 0
 567 0004 02FA01F3 		lsl	r3, r2, r1
 568 0008 4489     		ldrh	r4, [r0, #10]
 569 000a 9BB2     		uxth	r3, r3
 570 000c 14EA0306 		ands	r6, r4, r3
ARM GAS  /tmp/cctDEYCU.s 			page 11


 571 0010 01D0     		beq	.L32
 572              		.loc 1 512 0
 573 0012 1046     		mov	r0, r2
 574              	.LVL36:
 575              		.loc 1 518 0
 576 0014 70BD     		pop	{r4, r5, r6, pc}
 577              	.LVL37:
 578              	.L32:
 579              		.loc 1 515 0
 580 0016 2343     		orrs	r3, r3, r4
 581 0018 4381     		strh	r3, [r0, #10]	@ movhi
 582              		.loc 1 516 0
 583 001a FFF7FEFF 		bl	usb_lld_start_out
 584              	.LVL38:
 585              		.loc 1 517 0
 586 001e 3046     		mov	r0, r6
 587              		.loc 1 518 0
 588 0020 70BD     		pop	{r4, r5, r6, pc}
 589              		.cfi_endproc
 590              	.LFE269:
 591              		.size	usbStartReceiveI, .-usbStartReceiveI
 592 0022 00BF     		.section	.text.usbStartTransmitI,"ax",%progbits
 593              		.align	1
 594              		.p2align 4,,15
 595              		.global	usbStartTransmitI
 596              		.syntax unified
 597              		.thumb
 598              		.thumb_func
 599              		.fpu fpv4-sp-d16
 600              		.type	usbStartTransmitI, %function
 601              	usbStartTransmitI:
 602              	.LFB270:
 603              		.loc 1 534 0
 604              		.cfi_startproc
 605              		@ args = 0, pretend = 0, frame = 0
 606              		@ frame_needed = 0, uses_anonymous_args = 0
 607              	.LVL39:
 608              		.loc 1 539 0
 609 0000 0122     		movs	r2, #1
 610              		.loc 1 534 0
 611 0002 70B5     		push	{r4, r5, r6, lr}
 612              		.cfi_def_cfa_offset 16
 613              		.cfi_offset 4, -16
 614              		.cfi_offset 5, -12
 615              		.cfi_offset 6, -8
 616              		.cfi_offset 14, -4
 617              		.loc 1 539 0
 618 0004 02FA01F3 		lsl	r3, r2, r1
 619 0008 0489     		ldrh	r4, [r0, #8]
 620 000a 9BB2     		uxth	r3, r3
 621 000c 14EA0306 		ands	r6, r4, r3
 622 0010 01D0     		beq	.L37
 623              		.loc 1 540 0
 624 0012 1046     		mov	r0, r2
 625              	.LVL40:
 626              		.loc 1 546 0
 627 0014 70BD     		pop	{r4, r5, r6, pc}
ARM GAS  /tmp/cctDEYCU.s 			page 12


 628              	.LVL41:
 629              	.L37:
 630              		.loc 1 543 0
 631 0016 2343     		orrs	r3, r3, r4
 632 0018 0381     		strh	r3, [r0, #8]	@ movhi
 633              		.loc 1 544 0
 634 001a FFF7FEFF 		bl	usb_lld_start_in
 635              	.LVL42:
 636              		.loc 1 545 0
 637 001e 3046     		mov	r0, r6
 638              		.loc 1 546 0
 639 0020 70BD     		pop	{r4, r5, r6, pc}
 640              		.cfi_endproc
 641              	.LFE270:
 642              		.size	usbStartTransmitI, .-usbStartTransmitI
 643 0022 00BF     		.section	.text.usbStallReceiveI,"ax",%progbits
 644              		.align	1
 645              		.p2align 4,,15
 646              		.global	usbStallReceiveI
 647              		.syntax unified
 648              		.thumb
 649              		.thumb_func
 650              		.fpu fpv4-sp-d16
 651              		.type	usbStallReceiveI, %function
 652              	usbStallReceiveI:
 653              	.LFB271:
 654              		.loc 1 560 0
 655              		.cfi_startproc
 656              		@ args = 0, pretend = 0, frame = 0
 657              		@ frame_needed = 0, uses_anonymous_args = 0
 658              	.LVL43:
 659 0000 10B5     		push	{r4, lr}
 660              		.cfi_def_cfa_offset 8
 661              		.cfi_offset 4, -8
 662              		.cfi_offset 14, -4
 663              		.loc 1 565 0
 664 0002 0123     		movs	r3, #1
 665 0004 4489     		ldrh	r4, [r0, #10]
 666 0006 03FA01F2 		lsl	r2, r3, r1
 667 000a 1440     		ands	r4, r2, r4
 668 000c 01D0     		beq	.L42
 669              		.loc 1 566 0
 670 000e 1846     		mov	r0, r3
 671              	.LVL44:
 672              		.loc 1 571 0
 673 0010 10BD     		pop	{r4, pc}
 674              	.LVL45:
 675              	.L42:
 676              		.loc 1 569 0
 677 0012 FFF7FEFF 		bl	usb_lld_stall_out
 678              	.LVL46:
 679              		.loc 1 570 0
 680 0016 2046     		mov	r0, r4
 681              		.loc 1 571 0
 682 0018 10BD     		pop	{r4, pc}
 683              		.cfi_endproc
 684              	.LFE271:
ARM GAS  /tmp/cctDEYCU.s 			page 13


 685              		.size	usbStallReceiveI, .-usbStallReceiveI
 686 001a 00BF     		.section	.text.usbStallTransmitI,"ax",%progbits
 687              		.align	1
 688              		.p2align 4,,15
 689              		.global	usbStallTransmitI
 690              		.syntax unified
 691              		.thumb
 692              		.thumb_func
 693              		.fpu fpv4-sp-d16
 694              		.type	usbStallTransmitI, %function
 695              	usbStallTransmitI:
 696              	.LFB272:
 697              		.loc 1 585 0
 698              		.cfi_startproc
 699              		@ args = 0, pretend = 0, frame = 0
 700              		@ frame_needed = 0, uses_anonymous_args = 0
 701              	.LVL47:
 702 0000 10B5     		push	{r4, lr}
 703              		.cfi_def_cfa_offset 8
 704              		.cfi_offset 4, -8
 705              		.cfi_offset 14, -4
 706              		.loc 1 590 0
 707 0002 0123     		movs	r3, #1
 708 0004 0489     		ldrh	r4, [r0, #8]
 709 0006 03FA01F2 		lsl	r2, r3, r1
 710 000a 1440     		ands	r4, r2, r4
 711 000c 01D0     		beq	.L47
 712              		.loc 1 591 0
 713 000e 1846     		mov	r0, r3
 714              	.LVL48:
 715              		.loc 1 596 0
 716 0010 10BD     		pop	{r4, pc}
 717              	.LVL49:
 718              	.L47:
 719              		.loc 1 594 0
 720 0012 FFF7FEFF 		bl	usb_lld_stall_in
 721              	.LVL50:
 722              		.loc 1 595 0
 723 0016 2046     		mov	r0, r4
 724              		.loc 1 596 0
 725 0018 10BD     		pop	{r4, pc}
 726              		.cfi_endproc
 727              	.LFE272:
 728              		.size	usbStallTransmitI, .-usbStallTransmitI
 729 001a 00BF     		.section	.text._usb_reset,"ax",%progbits
 730              		.align	1
 731              		.p2align 4,,15
 732              		.global	_usb_reset
 733              		.syntax unified
 734              		.thumb
 735              		.thumb_func
 736              		.fpu fpv4-sp-d16
 737              		.type	_usb_reset, %function
 738              	_usb_reset:
 739              	.LFB273:
 740              		.loc 1 607 0
 741              		.cfi_startproc
ARM GAS  /tmp/cctDEYCU.s 			page 14


 742              		@ args = 0, pretend = 0, frame = 0
 743              		@ frame_needed = 0, uses_anonymous_args = 0
 744              		@ link register save eliminated.
 745              	.LVL51:
 746              		.loc 1 611 0
 747 0000 0022     		movs	r2, #0
 748              		.loc 1 610 0
 749 0002 0221     		movs	r1, #2
 750 0004 0170     		strb	r1, [r0]
 751              		.loc 1 611 0
 752 0006 C264     		str	r2, [r0, #76]
 753              	.LVL52:
 754              		.loc 1 615 0
 755 0008 C0E90222 		strd	r2, r2, [r0, #8]
 756              		.loc 1 619 0
 757 000c C0E90422 		strd	r2, r2, [r0, #16]
 758 0010 8261     		str	r2, [r0, #24]
 759              	.LVL53:
 760              		.loc 1 623 0
 761 0012 80F83420 		strb	r2, [r0, #52]
 762              		.loc 1 626 0
 763 0016 FFF7FEBF 		b	usb_lld_reset
 764              	.LVL54:
 765              		.cfi_endproc
 766              	.LFE273:
 767              		.size	_usb_reset, .-_usb_reset
 768 001a 00BF     		.section	.text._usb_ep0setup,"ax",%progbits
 769              		.align	1
 770              		.p2align 4,,15
 771              		.global	_usb_ep0setup
 772              		.syntax unified
 773              		.thumb
 774              		.thumb_func
 775              		.fpu fpv4-sp-d16
 776              		.type	_usb_ep0setup, %function
 777              	_usb_ep0setup:
 778              	.LFB274:
 779              		.loc 1 639 0
 780              		.cfi_startproc
 781              		@ args = 0, pretend = 0, frame = 0
 782              		@ frame_needed = 0, uses_anonymous_args = 0
 783              	.LVL55:
 784 0000 70B5     		push	{r4, r5, r6, lr}
 785              		.cfi_def_cfa_offset 16
 786              		.cfi_offset 4, -16
 787              		.cfi_offset 5, -12
 788              		.cfi_offset 6, -8
 789              		.cfi_offset 14, -4
 790              		.loc 1 642 0
 791 0002 0023     		movs	r3, #0
 792              		.loc 1 639 0
 793 0004 0446     		mov	r4, r0
 794              		.loc 1 642 0
 795 0006 80F83430 		strb	r3, [r0, #52]
 796              		.loc 1 643 0
 797 000a 00F14402 		add	r2, r0, #68
 798 000e FFF7FEFF 		bl	usb_lld_read_setup
ARM GAS  /tmp/cctDEYCU.s 			page 15


 799              	.LVL56:
 800              		.loc 1 648 0
 801 0012 6368     		ldr	r3, [r4, #4]
 802 0014 9B68     		ldr	r3, [r3, #8]
 803 0016 002B     		cmp	r3, #0
 804 0018 2FD0     		beq	.L54
 805              		.loc 1 649 0 discriminator 1
 806 001a 2046     		mov	r0, r4
 807 001c 9847     		blx	r3
 808              	.LVL57:
 809              		.loc 1 648 0 discriminator 1
 810 001e 60B3     		cbz	r0, .L54
 811 0020 E16B     		ldr	r1, [r4, #60]
 812 0022 94F84430 		ldrb	r3, [r4, #68]	@ zero_extendqisi2
 813              	.L71:
 814              	.LBB306:
 815              	.LBB307:
 816              		.loc 1 55 0
 817 0026 94F84B00 		ldrb	r0, [r4, #75]	@ zero_extendqisi2
 818 002a 94F84A20 		ldrb	r2, [r4, #74]	@ zero_extendqisi2
 819              	.LBE307:
 820              	.LBE306:
 821              		.loc 1 676 0
 822 002e 42EA0022 		orr	r2, r2, r0, lsl #8
 823              	.LVL58:
 824              		.loc 1 678 0
 825 0032 8A42     		cmp	r2, r1
 826 0034 2CBF     		ite	cs
 827 0036 0A46     		movcs	r2, r1
 828              	.LVL59:
 829              		.loc 1 679 0
 830 0038 E263     		strcc	r2, [r4, #60]
 831              		.loc 1 681 0
 832 003a 1806     		lsls	r0, r3, #24
 833              	.LVL60:
 834 003c E168     		ldr	r1, [r4, #12]
 835 003e 00F19380 		bmi	.L141
 836              		.loc 1 707 0
 837 0042 002A     		cmp	r2, #0
 838 0044 77D0     		beq	.L93
 839              	.LBB308:
 840              	.LBB309:
 841              		.loc 1 401 0
 842 0046 8B69     		ldr	r3, [r1, #24]
 843              	.LBE309:
 844              	.LBE308:
 845              		.loc 1 710 0
 846 0048 A06B     		ldr	r0, [r4, #56]
 847              	.LVL61:
 848              	.LBB312:
 849              	.LBB310:
 850              		.loc 1 403 0
 851 004a 0021     		movs	r1, #0
 852              	.LBE310:
 853              	.LBE312:
 854              		.loc 1 709 0
 855 004c 0425     		movs	r5, #4
ARM GAS  /tmp/cctDEYCU.s 			page 16


 856 004e 84F83450 		strb	r5, [r4, #52]
 857              	.LBB313:
 858              	.LBB311:
 859              		.loc 1 404 0
 860 0052 D860     		str	r0, [r3, #12]
 861              	.LVL62:
 862              		.loc 1 405 0
 863 0054 5A60     		str	r2, [r3, #4]
 864              		.loc 1 403 0
 865 0056 1970     		strb	r1, [r3]
 866              		.loc 1 406 0
 867 0058 9960     		str	r1, [r3, #8]
 868              	.LVL63:
 869              	.L140:
 870              		.loc 1 408 0
 871 005a 2046     		mov	r0, r4
 872 005c FFF7FEFF 		bl	usb_lld_prepare_receive
 873              	.LVL64:
 874              	.LBE311:
 875              	.LBE313:
 876              	.LBB314:
 877              	.LBB315:
 878              	.LBB316:
 879              	.LBB317:
 880              	.LBB318:
 881              	.LBB319:
 882              		.loc 2 342 0
 883              		.syntax unified
 884              	@ 342 "ChibiOS_3.0.2/os/ext/CMSIS/include/core_cmFunc.h" 1
 885 0060 72B6     		cpsid i
 886              	@ 0 "" 2
 887              	.LVL65:
 888              		.thumb
 889              		.syntax unified
 890              	.LBE319:
 891              	.LBE318:
 892              	.LBE317:
 893              	.LBE316:
 894              	.LBE315:
 895              	.LBE314:
 896              	.LBB320:
 897              	.LBB321:
 898              		.loc 1 511 0
 899 0062 6389     		ldrh	r3, [r4, #10]
 900 0064 13F00101 		ands	r1, r3, #1
 901 0068 05D1     		bne	.L95
 902              		.loc 1 515 0
 903 006a 43F00103 		orr	r3, r3, #1
 904 006e 6381     		strh	r3, [r4, #10]	@ movhi
 905              		.loc 1 516 0
 906 0070 2046     		mov	r0, r4
 907 0072 FFF7FEFF 		bl	usb_lld_start_out
 908              	.LVL66:
 909              	.L95:
 910              	.LBE321:
 911              	.LBE320:
 912              	.LBB322:
ARM GAS  /tmp/cctDEYCU.s 			page 17


 913              	.LBB323:
 914              	.LBB324:
 915              	.LBB325:
 916              	.LBB326:
 917              	.LBB327:
 918              		.loc 2 331 0
 919              		.syntax unified
 920              	@ 331 "ChibiOS_3.0.2/os/ext/CMSIS/include/core_cmFunc.h" 1
 921 0076 62B6     		cpsie i
 922              	@ 0 "" 2
 923              		.thumb
 924              		.syntax unified
 925              	.LBE327:
 926              	.LBE326:
 927              	.LBE325:
 928              	.LBE324:
 929              	.LBE323:
 930              	.LBE322:
 931              		.loc 1 729 0
 932 0078 70BD     		pop	{r4, r5, r6, pc}
 933              	.LVL67:
 934              	.L54:
 935              		.loc 1 654 0
 936 007a 94F84430 		ldrb	r3, [r4, #68]	@ zero_extendqisi2
 937 007e 13F06005 		ands	r5, r3, #96
 938 0082 1846     		mov	r0, r3
 939 0084 11D0     		beq	.L142
 940              	.L70:
 941              		.loc 1 660 0
 942 0086 0021     		movs	r1, #0
 943 0088 2046     		mov	r0, r4
 944 008a FFF7FEFF 		bl	usb_lld_stall_in
 945              	.LVL68:
 946              		.loc 1 661 0
 947 008e 0021     		movs	r1, #0
 948 0090 2046     		mov	r0, r4
 949 0092 FFF7FEFF 		bl	usb_lld_stall_out
 950              	.LVL69:
 951              		.loc 1 662 0
 952 0096 6368     		ldr	r3, [r4, #4]
 953 0098 1B68     		ldr	r3, [r3]
 954 009a 13B1     		cbz	r3, .L85
 955              		.loc 1 662 0 is_stmt 0 discriminator 1
 956 009c 0521     		movs	r1, #5
 957 009e 2046     		mov	r0, r4
 958 00a0 9847     		blx	r3
 959              	.LVL70:
 960              	.L85:
 961              		.loc 1 663 0 is_stmt 1
 962 00a2 0623     		movs	r3, #6
 963 00a4 84F83430 		strb	r3, [r4, #52]
 964              		.loc 1 729 0
 965 00a8 70BD     		pop	{r4, r5, r6, pc}
 966              	.LVL71:
 967              	.L142:
 968              	.LBB328:
 969              	.LBB329:
ARM GAS  /tmp/cctDEYCU.s 			page 18


 970              		.loc 1 90 0
 971 00aa 94F84510 		ldrb	r1, [r4, #69]	@ zero_extendqisi2
 972              		.loc 1 88 0
 973 00ae 03F07F02 		and	r2, r3, #127
 974              		.loc 1 89 0
 975 00b2 42EA0122 		orr	r2, r2, r1, lsl #8
 976              		.loc 1 88 0
 977 00b6 B2F5407F 		cmp	r2, #768
 978 00ba 00F01081 		beq	.L56
 979 00be 17D9     		bls	.L143
 980 00c0 B2F5C06F 		cmp	r2, #1536
 981 00c4 00F0F280 		beq	.L64
 982 00c8 40F29580 		bls	.L144
 983 00cc B2F5106F 		cmp	r2, #2304
 984 00d0 6FD0     		beq	.L68
 985 00d2 40F60241 		movw	r1, #3074
 986 00d6 8A42     		cmp	r2, r1
 987 00d8 00F0CE80 		beq	.L61
 988 00dc B2F5006F 		cmp	r2, #2048
 989 00e0 D1D1     		bne	.L70
 990              		.loc 1 141 0
 991 00e2 04F14F02 		add	r2, r4, #79
 992 00e6 0121     		movs	r1, #1
 993 00e8 2564     		str	r5, [r4, #64]
 994              	.LVL72:
 995 00ea C4E90E21 		strd	r2, r1, [r4, #56]
 996 00ee 9AE7     		b	.L71
 997              	.LVL73:
 998              	.L143:
 999              		.loc 1 88 0
 1000 00f0 022A     		cmp	r2, #2
 1001 00f2 00F0A780 		beq	.L58
 1002 00f6 40F29D80 		bls	.L145
 1003 00fa B2F5807F 		cmp	r2, #256
 1004 00fe 6BD0     		beq	.L62
 1005 0100 B2F5817F 		cmp	r2, #258
 1006 0104 BFD1     		bne	.L70
 1007              		.loc 1 201 0
 1008 0106 94F84630 		ldrb	r3, [r4, #70]	@ zero_extendqisi2
 1009 010a 002B     		cmp	r3, #0
 1010 010c BBD1     		bne	.L70
 1011              		.loc 1 205 0
 1012 010e 94F84830 		ldrb	r3, [r4, #72]	@ zero_extendqisi2
 1013 0112 13F00F01 		ands	r1, r3, #15
 1014 0116 07D0     		beq	.L83
 1015              		.loc 1 206 0
 1016 0118 1E06     		lsls	r6, r3, #24
 1017              		.loc 1 207 0
 1018 011a 2046     		mov	r0, r4
 1019              		.loc 1 206 0
 1020 011c 00F1F780 		bmi	.L146
 1021              	.LVL74:
 1022              		.loc 1 210 0
 1023 0120 FFF7FEFF 		bl	usb_lld_clear_out
 1024              	.LVL75:
 1025 0124 94F84400 		ldrb	r0, [r4, #68]	@ zero_extendqisi2
 1026              	.L83:
ARM GAS  /tmp/cctDEYCU.s 			page 19


 1027              		.loc 1 229 0
 1028 0128 0023     		movs	r3, #0
 1029 012a C4E90E33 		strd	r3, r3, [r4, #56]
 1030 012e 2364     		str	r3, [r4, #64]
 1031              	.LVL76:
 1032              	.L72:
 1033              	.LBE329:
 1034              	.LBE328:
 1035              		.loc 1 681 0
 1036 0130 0306     		lsls	r3, r0, #24
 1037 0132 E168     		ldr	r1, [r4, #12]
 1038 0134 32D4     		bmi	.L90
 1039              	.LVL77:
 1040              	.L93:
 1041              	.LBB337:
 1042              	.LBB338:
 1043              		.loc 1 427 0
 1044 0136 4A69     		ldr	r2, [r1, #20]
 1045              		.loc 1 429 0
 1046 0138 0023     		movs	r3, #0
 1047              	.LBE338:
 1048              	.LBE337:
 1049              		.loc 1 718 0
 1050 013a 0521     		movs	r1, #5
 1051 013c 84F83410 		strb	r1, [r4, #52]
 1052              	.LVL78:
 1053              	.LBB340:
 1054              	.LBB339:
 1055              		.loc 1 434 0
 1056 0140 2046     		mov	r0, r4
 1057 0142 1946     		mov	r1, r3
 1058              		.loc 1 429 0
 1059 0144 1370     		strb	r3, [r2]
 1060              		.loc 1 430 0
 1061 0146 D360     		str	r3, [r2, #12]
 1062              		.loc 1 432 0
 1063 0148 C2E90133 		strd	r3, r3, [r2, #4]
 1064              		.loc 1 434 0
 1065 014c FFF7FEFF 		bl	usb_lld_prepare_transmit
 1066              	.LVL79:
 1067              	.LBE339:
 1068              	.LBE340:
 1069              	.LBB341:
 1070              	.LBB342:
 1071              	.LBB343:
 1072              	.LBB344:
 1073              	.LBB345:
 1074              	.LBB346:
 1075              		.loc 2 342 0
 1076              		.syntax unified
 1077              	@ 342 "ChibiOS_3.0.2/os/ext/CMSIS/include/core_cmFunc.h" 1
 1078 0150 72B6     		cpsid i
 1079              	@ 0 "" 2
 1080              	.LVL80:
 1081              		.thumb
 1082              		.syntax unified
 1083              	.LBE346:
ARM GAS  /tmp/cctDEYCU.s 			page 20


 1084              	.LBE345:
 1085              	.LBE344:
 1086              	.LBE343:
 1087              	.LBE342:
 1088              	.LBE341:
 1089              	.LBB347:
 1090              	.LBB348:
 1091              		.loc 1 539 0
 1092 0152 2389     		ldrh	r3, [r4, #8]
 1093 0154 13F00101 		ands	r1, r3, #1
 1094 0158 8DD1     		bne	.L95
 1095              		.loc 1 543 0
 1096 015a 43F00103 		orr	r3, r3, #1
 1097 015e 2381     		strh	r3, [r4, #8]	@ movhi
 1098              		.loc 1 544 0
 1099 0160 2046     		mov	r0, r4
 1100 0162 FFF7FEFF 		bl	usb_lld_start_in
 1101              	.LVL81:
 1102 0166 86E7     		b	.L95
 1103              	.LVL82:
 1104              	.L141:
 1105              	.LBE348:
 1106              	.LBE347:
 1107              		.loc 1 683 0
 1108 0168 C2B1     		cbz	r2, .L90
 1109              	.LBB349:
 1110              	.LBB350:
 1111              		.loc 1 427 0
 1112 016a 4B69     		ldr	r3, [r1, #20]
 1113              	.LBE350:
 1114              	.LBE349:
 1115              		.loc 1 686 0
 1116 016c A06B     		ldr	r0, [r4, #56]
 1117              	.LVL83:
 1118              	.LBB353:
 1119              	.LBB351:
 1120              		.loc 1 429 0
 1121 016e 0021     		movs	r1, #0
 1122              	.LBE351:
 1123              	.LBE353:
 1124              		.loc 1 685 0
 1125 0170 0125     		movs	r5, #1
 1126 0172 84F83450 		strb	r5, [r4, #52]
 1127              	.LBB354:
 1128              	.LBB352:
 1129              		.loc 1 430 0
 1130 0176 D860     		str	r0, [r3, #12]
 1131              	.LVL84:
 1132              		.loc 1 431 0
 1133 0178 5A60     		str	r2, [r3, #4]
 1134              		.loc 1 429 0
 1135 017a 1970     		strb	r1, [r3]
 1136              		.loc 1 432 0
 1137 017c 9960     		str	r1, [r3, #8]
 1138              		.loc 1 434 0
 1139 017e 2046     		mov	r0, r4
 1140              	.LVL85:
ARM GAS  /tmp/cctDEYCU.s 			page 21


 1141 0180 FFF7FEFF 		bl	usb_lld_prepare_transmit
 1142              	.LVL86:
 1143              	.LBE352:
 1144              	.LBE354:
 1145              	.LBB355:
 1146              	.LBB356:
 1147              	.LBB357:
 1148              	.LBB358:
 1149              	.LBB359:
 1150              	.LBB360:
 1151              		.loc 2 342 0
 1152              		.syntax unified
 1153              	@ 342 "ChibiOS_3.0.2/os/ext/CMSIS/include/core_cmFunc.h" 1
 1154 0184 72B6     		cpsid i
 1155              	@ 0 "" 2
 1156              	.LVL87:
 1157              		.thumb
 1158              		.syntax unified
 1159              	.LBE360:
 1160              	.LBE359:
 1161              	.LBE358:
 1162              	.LBE357:
 1163              	.LBE356:
 1164              	.LBE355:
 1165              	.LBB361:
 1166              	.LBB362:
 1167              		.loc 1 539 0
 1168 0186 2389     		ldrh	r3, [r4, #8]
 1169 0188 13EA0501 		ands	r1, r3, r5
 1170 018c 7FF473AF 		bne	.L95
 1171              		.loc 1 543 0
 1172 0190 2B43     		orrs	r3, r3, r5
 1173 0192 2381     		strh	r3, [r4, #8]	@ movhi
 1174              		.loc 1 544 0
 1175 0194 2046     		mov	r0, r4
 1176 0196 FFF7FEFF 		bl	usb_lld_start_in
 1177              	.LVL88:
 1178 019a 6CE7     		b	.L95
 1179              	.L90:
 1180              	.LBE362:
 1181              	.LBE361:
 1182              	.LBB363:
 1183              	.LBB364:
 1184              		.loc 1 401 0
 1185 019c 8A69     		ldr	r2, [r1, #24]
 1186              		.loc 1 403 0
 1187 019e 0023     		movs	r3, #0
 1188              	.LBE364:
 1189              	.LBE363:
 1190              		.loc 1 694 0
 1191 01a0 0321     		movs	r1, #3
 1192 01a2 84F83410 		strb	r1, [r4, #52]
 1193              	.LVL89:
 1194              	.LBB366:
 1195              	.LBB365:
 1196              		.loc 1 408 0
 1197 01a6 1946     		mov	r1, r3
ARM GAS  /tmp/cctDEYCU.s 			page 22


 1198              		.loc 1 403 0
 1199 01a8 1370     		strb	r3, [r2]
 1200              		.loc 1 404 0
 1201 01aa D360     		str	r3, [r2, #12]
 1202              		.loc 1 406 0
 1203 01ac C2E90133 		strd	r3, r3, [r2, #4]
 1204 01b0 53E7     		b	.L140
 1205              	.LVL90:
 1206              	.L68:
 1207              	.LBE365:
 1208              	.LBE366:
 1209              	.LBB367:
 1210              	.LBB336:
 1211              		.loc 1 145 0
 1212 01b2 94F84630 		ldrb	r3, [r4, #70]	@ zero_extendqisi2
 1213 01b6 84F84F30 		strb	r3, [r4, #79]
 1214              		.loc 1 146 0
 1215 01ba 002B     		cmp	r3, #0
 1216 01bc 40F09E80 		bne	.L75
 1217              		.loc 1 147 0
 1218 01c0 0323     		movs	r3, #3
 1219 01c2 2370     		strb	r3, [r4]
 1220              	.L76:
 1221              		.loc 1 152 0
 1222 01c4 6368     		ldr	r3, [r4, #4]
 1223 01c6 1B68     		ldr	r3, [r3]
 1224 01c8 002B     		cmp	r3, #0
 1225 01ca ADD0     		beq	.L83
 1226 01cc 2046     		mov	r0, r4
 1227 01ce 0221     		movs	r1, #2
 1228 01d0 9847     		blx	r3
 1229              	.LVL91:
 1230 01d2 94F84400 		ldrb	r0, [r4, #68]	@ zero_extendqisi2
 1231 01d6 A7E7     		b	.L83
 1232              	.L62:
 1233              		.loc 1 98 0
 1234 01d8 94F84630 		ldrb	r3, [r4, #70]	@ zero_extendqisi2
 1235 01dc 012B     		cmp	r3, #1
 1236 01de 7FF452AF 		bne	.L70
 1237              		.loc 1 99 0
 1238 01e2 B4F84C30 		ldrh	r3, [r4, #76]
 1239              		.loc 1 100 0
 1240 01e6 A563     		str	r5, [r4, #56]
 1241              		.loc 1 99 0
 1242 01e8 23F00203 		bic	r3, r3, #2
 1243              		.loc 1 100 0
 1244 01ec C4E90F55 		strd	r5, r5, [r4, #60]
 1245              	.LVL92:
 1246              		.loc 1 99 0
 1247 01f0 A4F84C30 		strh	r3, [r4, #76]	@ movhi
 1248 01f4 9CE7     		b	.L72
 1249              	.LVL93:
 1250              	.L144:
 1251              		.loc 1 88 0
 1252 01f6 40F20233 		movw	r3, #770
 1253 01fa 9A42     		cmp	r2, r3
 1254 01fc 43D0     		beq	.L66
ARM GAS  /tmp/cctDEYCU.s 			page 23


 1255 01fe B2F5A06F 		cmp	r2, #1280
 1256 0202 7FF440AF 		bne	.L70
 1257              		.loc 1 118 0
 1258 0206 B4F84430 		ldrh	r3, [r4, #68]
 1259 020a B3F5A06F 		cmp	r3, #1280
 1260 020e 8BD1     		bne	.L83
 1261              	.LVL94:
 1262              	.LBB330:
 1263              	.LBB331:
 1264              		.loc 1 66 0
 1265 0210 94F84630 		ldrb	r3, [r4, #70]	@ zero_extendqisi2
 1266 0214 84F84E30 		strb	r3, [r4, #78]
 1267              		.loc 1 67 0
 1268 0218 2046     		mov	r0, r4
 1269 021a FFF7FEFF 		bl	usb_lld_set_address
 1270              	.LVL95:
 1271              		.loc 1 68 0
 1272 021e 6368     		ldr	r3, [r4, #4]
 1273 0220 1B68     		ldr	r3, [r3]
 1274 0222 13B1     		cbz	r3, .L74
 1275 0224 0121     		movs	r1, #1
 1276 0226 2046     		mov	r0, r4
 1277 0228 9847     		blx	r3
 1278              	.LVL96:
 1279              	.L74:
 1280              		.loc 1 69 0
 1281 022a 0323     		movs	r3, #3
 1282 022c 94F84400 		ldrb	r0, [r4, #68]	@ zero_extendqisi2
 1283 0230 2370     		strb	r3, [r4]
 1284 0232 79E7     		b	.L83
 1285              	.LVL97:
 1286              	.L145:
 1287              	.LBE331:
 1288              	.LBE330:
 1289              		.loc 1 88 0
 1290 0234 EAB9     		cbnz	r2, .L147
 1291              		.loc 1 93 0
 1292 0236 04F14C00 		add	r0, r4, #76
 1293 023a 0221     		movs	r1, #2
 1294 023c 2264     		str	r2, [r4, #64]
 1295              	.LVL98:
 1296 023e C4E90E01 		strd	r0, r1, [r4, #56]
 1297 0242 F0E6     		b	.L71
 1298              	.LVL99:
 1299              	.L58:
 1300              		.loc 1 165 0
 1301 0244 94F84830 		ldrb	r3, [r4, #72]	@ zero_extendqisi2
 1302 0248 03F00F01 		and	r1, r3, #15
 1303 024c 1B06     		lsls	r3, r3, #24
 1304              		.loc 1 166 0
 1305 024e 2046     		mov	r0, r4
 1306              		.loc 1 165 0
 1307 0250 57D4     		bmi	.L148
 1308              	.LVL100:
 1309              		.loc 1 183 0
 1310 0252 FFF7FEFF 		bl	usb_lld_get_status_out
 1311              	.LVL101:
ARM GAS  /tmp/cctDEYCU.s 			page 24


 1312 0256 0128     		cmp	r0, #1
 1313 0258 57D0     		beq	.L79
 1314              	.L137:
 1315 025a 0228     		cmp	r0, #2
 1316 025c 7FF413AF 		bne	.L70
 1317              		.loc 1 174 0
 1318 0260 304B     		ldr	r3, .L150
 1319              	.L138:
 1320 0262 A363     		str	r3, [r4, #56]
 1321 0264 0221     		movs	r1, #2
 1322 0266 0023     		movs	r3, #0
 1323 0268 C4E90F13 		strd	r1, r3, [r4, #60]
 1324              	.LVL102:
 1325 026c 94F84430 		ldrb	r3, [r4, #68]	@ zero_extendqisi2
 1326 0270 D9E6     		b	.L71
 1327              	.LVL103:
 1328              	.L147:
 1329              		.loc 1 88 0
 1330 0272 012A     		cmp	r2, #1
 1331 0274 7FF407AF 		bne	.L70
 1332              	.L61:
 1333              		.loc 1 160 0
 1334 0278 2B4A     		ldr	r2, .L150+4
 1335 027a A263     		str	r2, [r4, #56]
 1336 027c 0221     		movs	r1, #2
 1337 027e 0022     		movs	r2, #0
 1338 0280 C4E90F12 		strd	r1, r2, [r4, #60]
 1339              	.LVL104:
 1340 0284 CFE6     		b	.L71
 1341              	.LVL105:
 1342              	.L66:
 1343              		.loc 1 217 0
 1344 0286 94F84630 		ldrb	r3, [r4, #70]	@ zero_extendqisi2
 1345 028a 002B     		cmp	r3, #0
 1346 028c 7FF4FBAE 		bne	.L70
 1347              		.loc 1 221 0
 1348 0290 94F84830 		ldrb	r3, [r4, #72]	@ zero_extendqisi2
 1349 0294 13F00F01 		ands	r1, r3, #15
 1350 0298 3FF446AF 		beq	.L83
 1351              		.loc 1 222 0
 1352 029c 1D06     		lsls	r5, r3, #24
 1353              		.loc 1 223 0
 1354 029e 2046     		mov	r0, r4
 1355              		.loc 1 222 0
 1356 02a0 3AD4     		bmi	.L149
 1357              	.LVL106:
 1358              		.loc 1 226 0
 1359 02a2 FFF7FEFF 		bl	usb_lld_stall_out
 1360              	.LVL107:
 1361 02a6 94F84400 		ldrb	r0, [r4, #68]	@ zero_extendqisi2
 1362 02aa 3DE7     		b	.L83
 1363              	.L64:
 1364              	.LBB332:
 1365              	.LBB333:
 1366              		.loc 1 55 0
 1367 02ac 94F84900 		ldrb	r0, [r4, #73]	@ zero_extendqisi2
 1368              	.LBE333:
ARM GAS  /tmp/cctDEYCU.s 			page 25


 1369              	.LBE332:
 1370              		.loc 1 129 0
 1371 02b0 6168     		ldr	r1, [r4, #4]
 1372              	.LBB335:
 1373              	.LBB334:
 1374              		.loc 1 55 0
 1375 02b2 94F84830 		ldrb	r3, [r4, #72]	@ zero_extendqisi2
 1376              	.LBE334:
 1377              	.LBE335:
 1378              		.loc 1 129 0
 1379 02b6 4E68     		ldr	r6, [r1, #4]
 1380 02b8 94F84620 		ldrb	r2, [r4, #70]	@ zero_extendqisi2
 1381 02bc 94F84710 		ldrb	r1, [r4, #71]	@ zero_extendqisi2
 1382 02c0 43EA0023 		orr	r3, r3, r0, lsl #8
 1383 02c4 2046     		mov	r0, r4
 1384 02c6 B047     		blx	r6
 1385              	.LVL108:
 1386              		.loc 1 132 0
 1387 02c8 0028     		cmp	r0, #0
 1388 02ca 3FF4DCAE 		beq	.L70
 1389              		.loc 1 136 0
 1390 02ce D0E90013 		ldrd	r1, r3, [r0]
 1391 02d2 2564     		str	r5, [r4, #64]
 1392              	.LVL109:
 1393 02d4 C4E90E31 		strd	r3, r1, [r4, #56]
 1394 02d8 94F84430 		ldrb	r3, [r4, #68]	@ zero_extendqisi2
 1395 02dc A3E6     		b	.L71
 1396              	.LVL110:
 1397              	.L56:
 1398              		.loc 1 107 0
 1399 02de 94F84630 		ldrb	r3, [r4, #70]	@ zero_extendqisi2
 1400 02e2 012B     		cmp	r3, #1
 1401 02e4 7FF4CFAE 		bne	.L70
 1402              		.loc 1 108 0
 1403 02e8 B4F84C30 		ldrh	r3, [r4, #76]
 1404              		.loc 1 109 0
 1405 02ec A563     		str	r5, [r4, #56]
 1406              		.loc 1 108 0
 1407 02ee 43F00203 		orr	r3, r3, #2
 1408              		.loc 1 109 0
 1409 02f2 C4E90F55 		strd	r5, r5, [r4, #60]
 1410              	.LVL111:
 1411              		.loc 1 108 0
 1412 02f6 A4F84C30 		strh	r3, [r4, #76]	@ movhi
 1413 02fa 19E7     		b	.L72
 1414              	.LVL112:
 1415              	.L75:
 1416              		.loc 1 150 0
 1417 02fc 0423     		movs	r3, #4
 1418 02fe 2370     		strb	r3, [r4]
 1419 0300 60E7     		b	.L76
 1420              	.LVL113:
 1421              	.L148:
 1422              		.loc 1 166 0
 1423 0302 FFF7FEFF 		bl	usb_lld_get_status_in
 1424              	.LVL114:
 1425 0306 0128     		cmp	r0, #1
ARM GAS  /tmp/cctDEYCU.s 			page 26


 1426 0308 A7D1     		bne	.L137
 1427              	.L79:
 1428              		.loc 1 169 0
 1429 030a 084B     		ldr	r3, .L150+8
 1430 030c A9E7     		b	.L138
 1431              	.LVL115:
 1432              	.L146:
 1433              		.loc 1 207 0
 1434 030e FFF7FEFF 		bl	usb_lld_clear_in
 1435              	.LVL116:
 1436 0312 94F84400 		ldrb	r0, [r4, #68]	@ zero_extendqisi2
 1437 0316 07E7     		b	.L83
 1438              	.LVL117:
 1439              	.L149:
 1440              		.loc 1 223 0
 1441 0318 FFF7FEFF 		bl	usb_lld_stall_in
 1442              	.LVL118:
 1443 031c 94F84400 		ldrb	r0, [r4, #68]	@ zero_extendqisi2
 1444 0320 02E7     		b	.L83
 1445              	.L151:
 1446 0322 00BF     		.align	2
 1447              	.L150:
 1448 0324 00000000 		.word	.LANCHOR2
 1449 0328 00000000 		.word	.LANCHOR0
 1450 032c 00000000 		.word	.LANCHOR1
 1451              	.LBE336:
 1452              	.LBE367:
 1453              		.cfi_endproc
 1454              	.LFE274:
 1455              		.size	_usb_ep0setup, .-_usb_ep0setup
 1456              		.section	.text._usb_ep0in,"ax",%progbits
 1457              		.align	1
 1458              		.p2align 4,,15
 1459              		.global	_usb_ep0in
 1460              		.syntax unified
 1461              		.thumb
 1462              		.thumb_func
 1463              		.fpu fpv4-sp-d16
 1464              		.type	_usb_ep0in, %function
 1465              	_usb_ep0in:
 1466              	.LFB275:
 1467              		.loc 1 741 0
 1468              		.cfi_startproc
 1469              		@ args = 0, pretend = 0, frame = 0
 1470              		@ frame_needed = 0, uses_anonymous_args = 0
 1471              	.LVL119:
 1472              		.loc 1 745 0
 1473 0000 90F83430 		ldrb	r3, [r0, #52]	@ zero_extendqisi2
 1474              		.loc 1 741 0
 1475 0004 10B5     		push	{r4, lr}
 1476              		.cfi_def_cfa_offset 8
 1477              		.cfi_offset 4, -8
 1478              		.cfi_offset 14, -4
 1479              		.loc 1 741 0
 1480 0006 0446     		mov	r4, r0
 1481              		.loc 1 745 0
 1482 0008 062B     		cmp	r3, #6
ARM GAS  /tmp/cctDEYCU.s 			page 27


 1483 000a 1FD8     		bhi	.L152
 1484 000c DFE803F0 		tbb	[pc, r3]
 1485              	.L155:
 1486 0010 50       		.byte	(.L154-.L155)/2
 1487 0011 26       		.byte	(.L156-.L155)/2
 1488 0012 04       		.byte	(.L157-.L155)/2
 1489 0013 50       		.byte	(.L154-.L155)/2
 1490 0014 50       		.byte	(.L154-.L155)/2
 1491 0015 1F       		.byte	(.L158-.L155)/2
 1492 0016 50       		.byte	(.L154-.L155)/2
 1493 0017 00       		.p2align 1
 1494              	.L157:
 1495 0018 C368     		ldr	r3, [r0, #12]
 1496              	.LVL120:
 1497              	.L159:
 1498              	.LBB368:
 1499              	.LBB369:
 1500              		.loc 1 401 0
 1501 001a 9A69     		ldr	r2, [r3, #24]
 1502              	.LBE369:
 1503              	.LBE368:
 1504              		.loc 1 764 0
 1505 001c 0321     		movs	r1, #3
 1506              	.LBB372:
 1507              	.LBB370:
 1508              		.loc 1 403 0
 1509 001e 0023     		movs	r3, #0
 1510              	.LBE370:
 1511              	.LBE372:
 1512              		.loc 1 764 0
 1513 0020 84F83410 		strb	r1, [r4, #52]
 1514              	.LVL121:
 1515              	.LBB373:
 1516              	.LBB371:
 1517              		.loc 1 408 0
 1518 0024 2046     		mov	r0, r4
 1519 0026 1946     		mov	r1, r3
 1520              		.loc 1 403 0
 1521 0028 1370     		strb	r3, [r2]
 1522              		.loc 1 404 0
 1523 002a D360     		str	r3, [r2, #12]
 1524              		.loc 1 406 0
 1525 002c C2E90133 		strd	r3, r3, [r2, #4]
 1526              		.loc 1 408 0
 1527 0030 FFF7FEFF 		bl	usb_lld_prepare_receive
 1528              	.LVL122:
 1529              	.LBE371:
 1530              	.LBE373:
 1531              	.LBB374:
 1532              	.LBB375:
 1533              	.LBB376:
 1534              	.LBB377:
 1535              	.LBB378:
 1536              	.LBB379:
 1537              		.loc 2 342 0
 1538              		.syntax unified
 1539              	@ 342 "ChibiOS_3.0.2/os/ext/CMSIS/include/core_cmFunc.h" 1
ARM GAS  /tmp/cctDEYCU.s 			page 28


 1540 0034 72B6     		cpsid i
 1541              	@ 0 "" 2
 1542              	.LVL123:
 1543              		.thumb
 1544              		.syntax unified
 1545              	.LBE379:
 1546              	.LBE378:
 1547              	.LBE377:
 1548              	.LBE376:
 1549              	.LBE375:
 1550              	.LBE374:
 1551              	.LBB380:
 1552              	.LBB381:
 1553              		.loc 1 511 0
 1554 0036 6389     		ldrh	r3, [r4, #10]
 1555 0038 13F00101 		ands	r1, r3, #1
 1556 003c 05D1     		bne	.L161
 1557              		.loc 1 515 0
 1558 003e 43F00103 		orr	r3, r3, #1
 1559 0042 6381     		strh	r3, [r4, #10]	@ movhi
 1560              		.loc 1 516 0
 1561 0044 2046     		mov	r0, r4
 1562 0046 FFF7FEFF 		bl	usb_lld_start_out
 1563              	.LVL124:
 1564              	.L161:
 1565              	.LBE381:
 1566              	.LBE380:
 1567              	.LBB382:
 1568              	.LBB383:
 1569              	.LBB384:
 1570              	.LBB385:
 1571              	.LBB386:
 1572              	.LBB387:
 1573              		.loc 2 331 0
 1574              		.syntax unified
 1575              	@ 331 "ChibiOS_3.0.2/os/ext/CMSIS/include/core_cmFunc.h" 1
 1576 004a 62B6     		cpsie i
 1577              	@ 0 "" 2
 1578              		.thumb
 1579              		.syntax unified
 1580              	.L152:
 1581              	.LBE387:
 1582              	.LBE386:
 1583              	.LBE385:
 1584              	.LBE384:
 1585              	.LBE383:
 1586              	.LBE382:
 1587              		.loc 1 800 0
 1588 004c 10BD     		pop	{r4, pc}
 1589              	.LVL125:
 1590              	.L158:
 1591              		.loc 1 776 0
 1592 004e 036C     		ldr	r3, [r0, #64]
 1593 0050 03B1     		cbz	r3, .L162
 1594              		.loc 1 777 0
 1595 0052 9847     		blx	r3
 1596              	.LVL126:
ARM GAS  /tmp/cctDEYCU.s 			page 29


 1597              	.L162:
 1598              		.loc 1 779 0
 1599 0054 0023     		movs	r3, #0
 1600 0056 84F83430 		strb	r3, [r4, #52]
 1601              		.loc 1 800 0
 1602 005a 10BD     		pop	{r4, pc}
 1603              	.LVL127:
 1604              	.L156:
 1605              	.LBB388:
 1606              	.LBB389:
 1607              		.loc 1 55 0
 1608 005c 90F84B00 		ldrb	r0, [r0, #75]	@ zero_extendqisi2
 1609              	.LVL128:
 1610 0060 94F84A20 		ldrb	r2, [r4, #74]	@ zero_extendqisi2
 1611              	.LBE389:
 1612              	.LBE388:
 1613              		.loc 1 751 0
 1614 0064 E16B     		ldr	r1, [r4, #60]
 1615              	.LVL129:
 1616 0066 E368     		ldr	r3, [r4, #12]
 1617              		.loc 1 747 0
 1618 0068 42EA0022 		orr	r2, r2, r0, lsl #8
 1619              		.loc 1 751 0
 1620 006c 9142     		cmp	r1, r2
 1621 006e D4D2     		bcs	.L159
 1622              		.loc 1 752 0 discriminator 1
 1623 0070 188A     		ldrh	r0, [r3, #16]
 1624              	.LVL130:
 1625 0072 B1FBF0F2 		udiv	r2, r1, r0
 1626 0076 00FB1212 		mls	r2, r0, r2, r1
 1627              		.loc 1 751 0 discriminator 1
 1628 007a 002A     		cmp	r2, #0
 1629 007c CDD1     		bne	.L159
 1630              	.LVL131:
 1631              	.LBB390:
 1632              	.LBB391:
 1633              		.loc 1 427 0
 1634 007e 5B69     		ldr	r3, [r3, #20]
 1635              	.LVL132:
 1636              		.loc 1 434 0
 1637 0080 1146     		mov	r1, r2
 1638              		.loc 1 429 0
 1639 0082 1A70     		strb	r2, [r3]
 1640              	.LVL133:
 1641              		.loc 1 430 0
 1642 0084 DA60     		str	r2, [r3, #12]
 1643              		.loc 1 432 0
 1644 0086 C3E90122 		strd	r2, r2, [r3, #4]
 1645              		.loc 1 434 0
 1646 008a 2046     		mov	r0, r4
 1647 008c FFF7FEFF 		bl	usb_lld_prepare_transmit
 1648              	.LVL134:
 1649              	.LBE391:
 1650              	.LBE390:
 1651              	.LBB392:
 1652              	.LBB393:
 1653              	.LBB394:
ARM GAS  /tmp/cctDEYCU.s 			page 30


 1654              	.LBB395:
 1655              	.LBB396:
 1656              	.LBB397:
 1657              		.loc 2 342 0
 1658              		.syntax unified
 1659              	@ 342 "ChibiOS_3.0.2/os/ext/CMSIS/include/core_cmFunc.h" 1
 1660 0090 72B6     		cpsid i
 1661              	@ 0 "" 2
 1662              	.LVL135:
 1663              		.thumb
 1664              		.syntax unified
 1665              	.LBE397:
 1666              	.LBE396:
 1667              	.LBE395:
 1668              	.LBE394:
 1669              	.LBE393:
 1670              	.LBE392:
 1671              	.LBB398:
 1672              	.LBB399:
 1673              		.loc 1 539 0
 1674 0092 2389     		ldrh	r3, [r4, #8]
 1675 0094 13F00101 		ands	r1, r3, #1
 1676 0098 05D1     		bne	.L160
 1677              		.loc 1 543 0
 1678 009a 43F00103 		orr	r3, r3, #1
 1679 009e 2381     		strh	r3, [r4, #8]	@ movhi
 1680              		.loc 1 544 0
 1681 00a0 2046     		mov	r0, r4
 1682 00a2 FFF7FEFF 		bl	usb_lld_start_in
 1683              	.LVL136:
 1684              	.L160:
 1685              	.LBE399:
 1686              	.LBE398:
 1687              	.LBB400:
 1688              	.LBB401:
 1689              	.LBB402:
 1690              	.LBB403:
 1691              	.LBB404:
 1692              	.LBB405:
 1693              		.loc 2 331 0
 1694              		.syntax unified
 1695              	@ 331 "ChibiOS_3.0.2/os/ext/CMSIS/include/core_cmFunc.h" 1
 1696 00a6 62B6     		cpsie i
 1697              	@ 0 "" 2
 1698              		.thumb
 1699              		.syntax unified
 1700              	.LBE405:
 1701              	.LBE404:
 1702              	.LBE403:
 1703              	.LBE402:
 1704              	.LBE401:
 1705              	.LBE400:
 1706              		.loc 1 757 0
 1707 00a8 0223     		movs	r3, #2
 1708 00aa 84F83430 		strb	r3, [r4, #52]
 1709              		.loc 1 800 0
 1710 00ae 10BD     		pop	{r4, pc}
ARM GAS  /tmp/cctDEYCU.s 			page 31


 1711              	.LVL137:
 1712              	.L154:
 1713              		.loc 1 792 0
 1714 00b0 0021     		movs	r1, #0
 1715              	.LVL138:
 1716 00b2 FFF7FEFF 		bl	usb_lld_stall_in
 1717              	.LVL139:
 1718              		.loc 1 793 0
 1719 00b6 0021     		movs	r1, #0
 1720 00b8 2046     		mov	r0, r4
 1721 00ba FFF7FEFF 		bl	usb_lld_stall_out
 1722              	.LVL140:
 1723              		.loc 1 794 0
 1724 00be 6368     		ldr	r3, [r4, #4]
 1725 00c0 1B68     		ldr	r3, [r3]
 1726 00c2 13B1     		cbz	r3, .L163
 1727              		.loc 1 794 0 is_stmt 0 discriminator 1
 1728 00c4 0521     		movs	r1, #5
 1729 00c6 2046     		mov	r0, r4
 1730 00c8 9847     		blx	r3
 1731              	.LVL141:
 1732              	.L163:
 1733              		.loc 1 795 0 is_stmt 1
 1734 00ca 0623     		movs	r3, #6
 1735 00cc 84F83430 		strb	r3, [r4, #52]
 1736              		.loc 1 800 0
 1737 00d0 10BD     		pop	{r4, pc}
 1738              		.cfi_endproc
 1739              	.LFE275:
 1740              		.size	_usb_ep0in, .-_usb_ep0in
 1741              		.section	.text._usb_ep0out,"ax",%progbits
 1742              		.align	1
 1743              		.p2align 4,,15
 1744              		.global	_usb_ep0out
 1745              		.syntax unified
 1746              		.thumb
 1747              		.thumb_func
 1748              		.fpu fpv4-sp-d16
 1749              		.type	_usb_ep0out, %function
 1750              	_usb_ep0out:
 1751              	.LFB276:
 1752              		.loc 1 812 0
 1753              		.cfi_startproc
 1754              		@ args = 0, pretend = 0, frame = 0
 1755              		@ frame_needed = 0, uses_anonymous_args = 0
 1756              	.LVL142:
 1757              		.loc 1 815 0
 1758 0000 90F83420 		ldrb	r2, [r0, #52]	@ zero_extendqisi2
 1759 0004 062A     		cmp	r2, #6
 1760 0006 14D8     		bhi	.L188
 1761 0008 0123     		movs	r3, #1
 1762 000a 9340     		lsls	r3, r3, r2
 1763 000c 13F0670F 		tst	r3, #103
 1764              		.loc 1 812 0
 1765 0010 10B5     		push	{r4, lr}
 1766              		.cfi_def_cfa_offset 8
 1767              		.cfi_offset 4, -8
ARM GAS  /tmp/cctDEYCU.s 			page 32


 1768              		.cfi_offset 14, -4
 1769 0012 0446     		mov	r4, r0
 1770 0014 23D1     		bne	.L173
 1771 0016 13F00802 		ands	r2, r3, #8
 1772 001a 0BD0     		beq	.L191
 1773              		.loc 1 832 0
 1774 001c C368     		ldr	r3, [r0, #12]
 1775 001e 9B69     		ldr	r3, [r3, #24]
 1776 0020 9B68     		ldr	r3, [r3, #8]
 1777 0022 2BB9     		cbnz	r3, .L171
 1778              		.loc 1 836 0
 1779 0024 036C     		ldr	r3, [r0, #64]
 1780 0026 03B1     		cbz	r3, .L176
 1781              		.loc 1 837 0
 1782 0028 9847     		blx	r3
 1783              	.LVL143:
 1784              	.L176:
 1785              		.loc 1 839 0
 1786 002a 0023     		movs	r3, #0
 1787 002c 84F83430 		strb	r3, [r4, #52]
 1788              	.L171:
 1789              		.loc 1 861 0
 1790 0030 10BD     		pop	{r4, pc}
 1791              	.LVL144:
 1792              	.L188:
 1793              		.cfi_def_cfa_offset 0
 1794              		.cfi_restore 4
 1795              		.cfi_restore 14
 1796 0032 7047     		bx	lr
 1797              	.L191:
 1798              		.cfi_def_cfa_offset 8
 1799              		.cfi_offset 4, -8
 1800              		.cfi_offset 14, -4
 1801 0034 DB06     		lsls	r3, r3, #27
 1802 0036 FBD5     		bpl	.L171
 1803              	.LBB406:
 1804              	.LBB407:
 1805              		.loc 1 427 0
 1806 0038 C368     		ldr	r3, [r0, #12]
 1807 003a 5B69     		ldr	r3, [r3, #20]
 1808              	.LBE407:
 1809              	.LBE406:
 1810              		.loc 1 818 0
 1811 003c 0521     		movs	r1, #5
 1812              	.LVL145:
 1813 003e 80F83410 		strb	r1, [r0, #52]
 1814              	.LVL146:
 1815              	.LBB409:
 1816              	.LBB408:
 1817              		.loc 1 434 0
 1818 0042 1146     		mov	r1, r2
 1819              		.loc 1 429 0
 1820 0044 1A70     		strb	r2, [r3]
 1821              		.loc 1 430 0
 1822 0046 DA60     		str	r2, [r3, #12]
 1823              		.loc 1 432 0
 1824 0048 C3E90122 		strd	r2, r2, [r3, #4]
ARM GAS  /tmp/cctDEYCU.s 			page 33


 1825              		.loc 1 434 0
 1826 004c FFF7FEFF 		bl	usb_lld_prepare_transmit
 1827              	.LVL147:
 1828              	.LBE408:
 1829              	.LBE409:
 1830              	.LBB410:
 1831              	.LBB411:
 1832              	.LBB412:
 1833              	.LBB413:
 1834              	.LBB414:
 1835              	.LBB415:
 1836              		.loc 2 342 0
 1837              		.syntax unified
 1838              	@ 342 "ChibiOS_3.0.2/os/ext/CMSIS/include/core_cmFunc.h" 1
 1839 0050 72B6     		cpsid i
 1840              	@ 0 "" 2
 1841              	.LVL148:
 1842              		.thumb
 1843              		.syntax unified
 1844              	.LBE415:
 1845              	.LBE414:
 1846              	.LBE413:
 1847              	.LBE412:
 1848              	.LBE411:
 1849              	.LBE410:
 1850              	.LBB416:
 1851              	.LBB417:
 1852              		.loc 1 539 0
 1853 0052 2389     		ldrh	r3, [r4, #8]
 1854 0054 13F00101 		ands	r1, r3, #1
 1855 0058 12D0     		beq	.L192
 1856              	.L175:
 1857              	.LVL149:
 1858              	.LBE417:
 1859              	.LBE416:
 1860              	.LBB419:
 1861              	.LBB420:
 1862              	.LBB421:
 1863              	.LBB422:
 1864              	.LBB423:
 1865              	.LBB424:
 1866              		.loc 2 331 0
 1867              		.syntax unified
 1868              	@ 331 "ChibiOS_3.0.2/os/ext/CMSIS/include/core_cmFunc.h" 1
 1869 005a 62B6     		cpsie i
 1870              	@ 0 "" 2
 1871              		.thumb
 1872              		.syntax unified
 1873              	.LBE424:
 1874              	.LBE423:
 1875              	.LBE422:
 1876              	.LBE421:
 1877              	.LBE420:
 1878              	.LBE419:
 1879              		.loc 1 861 0
 1880 005c 10BD     		pop	{r4, pc}
 1881              	.LVL150:
ARM GAS  /tmp/cctDEYCU.s 			page 34


 1882              	.L173:
 1883              		.loc 1 853 0
 1884 005e 0021     		movs	r1, #0
 1885              	.LVL151:
 1886 0060 FFF7FEFF 		bl	usb_lld_stall_in
 1887              	.LVL152:
 1888              		.loc 1 854 0
 1889 0064 0021     		movs	r1, #0
 1890 0066 2046     		mov	r0, r4
 1891 0068 FFF7FEFF 		bl	usb_lld_stall_out
 1892              	.LVL153:
 1893              		.loc 1 855 0
 1894 006c 6368     		ldr	r3, [r4, #4]
 1895 006e 1B68     		ldr	r3, [r3]
 1896 0070 13B1     		cbz	r3, .L177
 1897              		.loc 1 855 0 is_stmt 0 discriminator 1
 1898 0072 0521     		movs	r1, #5
 1899 0074 2046     		mov	r0, r4
 1900 0076 9847     		blx	r3
 1901              	.LVL154:
 1902              	.L177:
 1903              		.loc 1 856 0 is_stmt 1
 1904 0078 0623     		movs	r3, #6
 1905 007a 84F83430 		strb	r3, [r4, #52]
 1906              		.loc 1 861 0
 1907 007e 10BD     		pop	{r4, pc}
 1908              	.LVL155:
 1909              	.L192:
 1910              	.LBB425:
 1911              	.LBB418:
 1912              		.loc 1 543 0
 1913 0080 43F00103 		orr	r3, r3, #1
 1914 0084 2381     		strh	r3, [r4, #8]	@ movhi
 1915              		.loc 1 544 0
 1916 0086 2046     		mov	r0, r4
 1917 0088 FFF7FEFF 		bl	usb_lld_start_in
 1918              	.LVL156:
 1919 008c E5E7     		b	.L175
 1920              	.LBE418:
 1921              	.LBE425:
 1922              		.cfi_endproc
 1923              	.LFE276:
 1924              		.size	_usb_ep0out, .-_usb_ep0out
 1925 008e 00BF     		.section	.rodata.active_status,"a",%progbits
 1926              		.align	2
 1927              		.set	.LANCHOR2,. + 0
 1928              		.type	active_status, %object
 1929              		.size	active_status, 2
 1930              	active_status:
 1931 0000 0000     		.space	2
 1932              		.section	.rodata.halted_status,"a",%progbits
 1933              		.align	2
 1934              		.set	.LANCHOR1,. + 0
 1935              		.type	halted_status, %object
 1936              		.size	halted_status, 2
 1937              	halted_status:
 1938 0000 01       		.byte	1
ARM GAS  /tmp/cctDEYCU.s 			page 35


 1939 0001 00       		.byte	0
 1940              		.section	.rodata.zero_status,"a",%progbits
 1941              		.align	2
 1942              		.set	.LANCHOR0,. + 0
 1943              		.type	zero_status, %object
 1944              		.size	zero_status, 2
 1945              	zero_status:
 1946 0000 0000     		.space	2
 1947              		.text
 1948              	.Letext0:
 1949              		.file 3 "/usr/lib/gcc/arm-none-eabi/7.3.1/include/stddef.h"
 1950              		.file 4 "/usr/arm-none-eabi/include/machine/_default_types.h"
 1951              		.file 5 "/usr/arm-none-eabi/include/sys/lock.h"
 1952              		.file 6 "/usr/arm-none-eabi/include/sys/_types.h"
 1953              		.file 7 "/usr/arm-none-eabi/include/sys/reent.h"
 1954              		.file 8 "/usr/arm-none-eabi/include/sys/_stdint.h"
 1955              		.file 9 "ChibiOS_3.0.2/os/rt/ports/ARMCMx/compilers/GCC/chtypes.h"
 1956              		.file 10 "ChibiOS_3.0.2/os/rt/include/chsystypes.h"
 1957              		.file 11 "ChibiOS_3.0.2/os/rt/include/chschd.h"
 1958              		.file 12 "ChibiOS_3.0.2/os/ext/CMSIS/include/core_cm4.h"
 1959              		.file 13 "ChibiOS_3.0.2/os/ext/CMSIS/ST/system_stm32f4xx.h"
 1960              		.file 14 "ChibiOS_3.0.2/os/ext/CMSIS/ST/stm32f407xx.h"
 1961              		.file 15 "ChibiOS_3.0.2/os/rt/ports/ARMCMx/chcore.h"
 1962              		.file 16 "ChibiOS_3.0.2/os/rt/ports/ARMCMx/chcore_v7m.h"
 1963              		.file 17 "ChibiOS_3.0.2/os/rt/include/chtm.h"
 1964              		.file 18 "ChibiOS_3.0.2/os/rt/include/chsem.h"
 1965              		.file 19 "ChibiOS_3.0.2/os/rt/include/chmtx.h"
 1966              		.file 20 "ChibiOS_3.0.2/os/rt/include/chregistry.h"
 1967              		.file 21 "ChibiOS_3.0.2/os/rt/include/chevents.h"
 1968              		.file 22 "ChibiOS_3.0.2/os/rt/include/chqueues.h"
 1969              		.file 23 "./conf_general.h"
 1970              		.file 24 "ChibiOS_3.0.2/os/hal/ports/STM32/STM32F4xx/stm32_dma.h"
 1971              		.file 25 "ChibiOS_3.0.2/os/hal/ports/STM32/LLD/GPIOv2/pal_lld.h"
 1972              		.file 26 "ChibiOS_3.0.2/os/hal/include/can.h"
 1973              		.file 27 "ChibiOS_3.0.2/os/hal/ports/STM32/LLD/can_lld.h"
 1974              		.file 28 "ChibiOS_3.0.2/os/hal/include/i2c.h"
 1975              		.file 29 "ChibiOS_3.0.2/os/hal/ports/STM32/LLD/I2Cv1/i2c_lld.h"
 1976              		.file 30 "ChibiOS_3.0.2/os/hal/include/icu.h"
 1977              		.file 31 "ChibiOS_3.0.2/os/hal/ports/STM32/LLD/TIMv1/icu_lld.h"
 1978              		.file 32 "ChibiOS_3.0.2/os/hal/ports/STM32/LLD/TIMv1/stm32_tim.h"
 1979              		.file 33 "ChibiOS_3.0.2/os/hal/include/serial.h"
 1980              		.file 34 "ChibiOS_3.0.2/os/hal/ports/STM32/LLD/USARTv1/serial_lld.h"
 1981              		.file 35 "ChibiOS_3.0.2/os/hal/include/spi.h"
 1982              		.file 36 "ChibiOS_3.0.2/os/hal/ports/STM32/LLD/SPIv1/spi_lld.h"
 1983              		.file 37 "ChibiOS_3.0.2/os/hal/include/usb.h"
 1984              		.file 38 "ChibiOS_3.0.2/os/hal/ports/STM32/LLD/OTGv1/usb_lld.h"
 1985              		.file 39 "ChibiOS_3.0.2/os/hal/ports/STM32/LLD/OTGv1/stm32_otg.h"
 1986              		.file 40 "ChibiOS_3.0.2/os/hal/osal/rt/osal.h"
 1987              		.file 41 "ChibiOS_3.0.2/os/rt/include/chsys.h"