ARM GAS  /tmp/ccRqN9am.s 			page 1


   1              		.cpu cortex-m4
   2              		.eabi_attribute 27, 1
   3              		.eabi_attribute 28, 1
   4              		.eabi_attribute 20, 1
   5              		.eabi_attribute 21, 1
   6              		.eabi_attribute 23, 3
   7              		.eabi_attribute 24, 1
   8              		.eabi_attribute 25, 1
   9              		.eabi_attribute 26, 1
  10              		.eabi_attribute 30, 2
  11              		.eabi_attribute 34, 1
  12              		.eabi_attribute 18, 4
  13              		.file	"chevents.c"
  14              		.text
  15              	.Ltext0:
  16              		.cfi_sections	.debug_frame
  17              		.section	.text.chEvtRegisterMaskWithFlags,"ax",%progbits
  18              		.align	1
  19              		.p2align 4,,15
  20              		.global	chEvtRegisterMaskWithFlags
  21              		.syntax unified
  22              		.thumb
  23              		.thumb_func
  24              		.fpu fpv4-sp-d16
  25              		.type	chEvtRegisterMaskWithFlags, %function
  26              	chEvtRegisterMaskWithFlags:
  27              	.LFB219:
  28              		.file 1 "ChibiOS_3.0.2/os/rt/src/chevents.c"
  29              		.loc 1 106 0
  30              		.cfi_startproc
  31              		@ args = 0, pretend = 0, frame = 0
  32              		@ frame_needed = 0, uses_anonymous_args = 0
  33              		@ link register save eliminated.
  34              	.LVL0:
  35 0000 30B4     		push	{r4, r5}
  36              		.cfi_def_cfa_offset 8
  37              		.cfi_offset 4, -8
  38              		.cfi_offset 5, -4
  39              	.LBB174:
  40              	.LBB175:
  41              	.LBB176:
  42              	.LBB177:
  43              		.file 2 "ChibiOS_3.0.2/os/ext/CMSIS/include/core_cmFunc.h"
  44              		.loc 2 342 0
  45              		.syntax unified
  46              	@ 342 "ChibiOS_3.0.2/os/ext/CMSIS/include/core_cmFunc.h" 1
  47 0002 72B6     		cpsid i
  48              	@ 0 "" 2
  49              		.thumb
  50              		.syntax unified
  51              	.LBE177:
  52              	.LBE176:
  53              	.LBE175:
  54              	.LBE174:
  55              		.loc 1 113 0
  56 0004 064D     		ldr	r5, .L4
  57              		.loc 1 111 0
ARM GAS  /tmp/ccRqN9am.s 			page 2


  58 0006 0468     		ldr	r4, [r0]
  59              		.loc 1 113 0
  60 0008 AD69     		ldr	r5, [r5, #24]
  61              		.loc 1 111 0
  62 000a 0C60     		str	r4, [r1]
  63              		.loc 1 115 0
  64 000c 0024     		movs	r4, #0
  65              		.loc 1 112 0
  66 000e 0160     		str	r1, [r0]
  67              		.loc 1 114 0
  68 0010 C1E90152 		strd	r5, r2, [r1, #4]
  69              		.loc 1 115 0
  70 0014 C1E90343 		strd	r4, r3, [r1, #12]
  71              	.LBB178:
  72              	.LBB179:
  73              	.LBB180:
  74              	.LBB181:
  75              	.LBB182:
  76              		.loc 2 331 0
  77              		.syntax unified
  78              	@ 331 "ChibiOS_3.0.2/os/ext/CMSIS/include/core_cmFunc.h" 1
  79 0018 62B6     		cpsie i
  80              	@ 0 "" 2
  81              		.thumb
  82              		.syntax unified
  83              	.LBE182:
  84              	.LBE181:
  85              	.LBE180:
  86              	.LBE179:
  87              	.LBE178:
  88              		.loc 1 118 0
  89 001a 30BC     		pop	{r4, r5}
  90              		.cfi_restore 5
  91              		.cfi_restore 4
  92              		.cfi_def_cfa_offset 0
  93 001c 7047     		bx	lr
  94              	.L5:
  95 001e 00BF     		.align	2
  96              	.L4:
  97 0020 00000000 		.word	ch
  98              		.cfi_endproc
  99              	.LFE219:
 100              		.size	chEvtRegisterMaskWithFlags, .-chEvtRegisterMaskWithFlags
 101              		.section	.text.chEvtUnregister,"ax",%progbits
 102              		.align	1
 103              		.p2align 4,,15
 104              		.global	chEvtUnregister
 105              		.syntax unified
 106              		.thumb
 107              		.thumb_func
 108              		.fpu fpv4-sp-d16
 109              		.type	chEvtUnregister, %function
 110              	chEvtUnregister:
 111              	.LFB220:
 112              		.loc 1 133 0
 113              		.cfi_startproc
 114              		@ args = 0, pretend = 0, frame = 0
ARM GAS  /tmp/ccRqN9am.s 			page 3


 115              		@ frame_needed = 0, uses_anonymous_args = 0
 116              		@ link register save eliminated.
 117              	.LVL1:
 118              	.LBB183:
 119              	.LBB184:
 120              	.LBB185:
 121              	.LBB186:
 122              		.loc 2 342 0
 123              		.syntax unified
 124              	@ 342 "ChibiOS_3.0.2/os/ext/CMSIS/include/core_cmFunc.h" 1
 125 0000 72B6     		cpsid i
 126              	@ 0 "" 2
 127              		.thumb
 128              		.syntax unified
 129              	.LBE186:
 130              	.LBE185:
 131              	.LBE184:
 132              	.LBE183:
 133              		.loc 1 139 0
 134 0002 0246     		mov	r2, r0
 135 0004 02E0     		b	.L7
 136              	.LVL2:
 137              	.L9:
 138              		.loc 1 145 0
 139 0006 8B42     		cmp	r3, r1
 140 0008 05D0     		beq	.L11
 141 000a 1A46     		mov	r2, r3
 142              	.LVL3:
 143              	.L7:
 144              		.loc 1 143 0
 145 000c 1368     		ldr	r3, [r2]
 146 000e 8342     		cmp	r3, r0
 147 0010 F9D1     		bne	.L9
 148              	.LBB187:
 149              	.LBB188:
 150              	.LBB189:
 151              	.LBB190:
 152              	.LBB191:
 153              		.loc 2 331 0
 154              		.syntax unified
 155              	@ 331 "ChibiOS_3.0.2/os/ext/CMSIS/include/core_cmFunc.h" 1
 156 0012 62B6     		cpsie i
 157              	@ 0 "" 2
 158              		.thumb
 159              		.syntax unified
 160              	.LBE191:
 161              	.LBE190:
 162              	.LBE189:
 163              	.LBE188:
 164              	.LBE187:
 165              		.loc 1 152 0
 166 0014 7047     		bx	lr
 167              	.L11:
 168              		.loc 1 146 0
 169 0016 0B68     		ldr	r3, [r1]
 170 0018 1360     		str	r3, [r2]
 171              	.LBB196:
ARM GAS  /tmp/ccRqN9am.s 			page 4


 172              	.LBB195:
 173              	.LBB194:
 174              	.LBB193:
 175              	.LBB192:
 176              		.loc 2 331 0
 177              		.syntax unified
 178              	@ 331 "ChibiOS_3.0.2/os/ext/CMSIS/include/core_cmFunc.h" 1
 179 001a 62B6     		cpsie i
 180              	@ 0 "" 2
 181              		.thumb
 182              		.syntax unified
 183              	.LBE192:
 184              	.LBE193:
 185              	.LBE194:
 186              	.LBE195:
 187              	.LBE196:
 188              		.loc 1 152 0
 189 001c 7047     		bx	lr
 190              		.cfi_endproc
 191              	.LFE220:
 192              		.size	chEvtUnregister, .-chEvtUnregister
 193 001e 00BF     		.section	.text.chEvtGetAndClearEvents,"ax",%progbits
 194              		.align	1
 195              		.p2align 4,,15
 196              		.global	chEvtGetAndClearEvents
 197              		.syntax unified
 198              		.thumb
 199              		.thumb_func
 200              		.fpu fpv4-sp-d16
 201              		.type	chEvtGetAndClearEvents, %function
 202              	chEvtGetAndClearEvents:
 203              	.LFB221:
 204              		.loc 1 162 0
 205              		.cfi_startproc
 206              		@ args = 0, pretend = 0, frame = 0
 207              		@ frame_needed = 0, uses_anonymous_args = 0
 208              		@ link register save eliminated.
 209              	.LVL4:
 210              	.LBB197:
 211              	.LBB198:
 212              	.LBB199:
 213              	.LBB200:
 214              		.loc 2 342 0
 215              		.syntax unified
 216              	@ 342 "ChibiOS_3.0.2/os/ext/CMSIS/include/core_cmFunc.h" 1
 217 0000 72B6     		cpsid i
 218              	@ 0 "" 2
 219              		.thumb
 220              		.syntax unified
 221              	.LBE200:
 222              	.LBE199:
 223              	.LBE198:
 224              	.LBE197:
 225              		.loc 1 166 0
 226 0002 044B     		ldr	r3, .L13
 227 0004 9A69     		ldr	r2, [r3, #24]
 228 0006 936B     		ldr	r3, [r2, #56]
ARM GAS  /tmp/ccRqN9am.s 			page 5


 229              	.LVL5:
 230              		.loc 1 167 0
 231 0008 23EA0001 		bic	r1, r3, r0
 232 000c 9163     		str	r1, [r2, #56]
 233              	.LBB201:
 234              	.LBB202:
 235              	.LBB203:
 236              	.LBB204:
 237              	.LBB205:
 238              		.loc 2 331 0
 239              		.syntax unified
 240              	@ 331 "ChibiOS_3.0.2/os/ext/CMSIS/include/core_cmFunc.h" 1
 241 000e 62B6     		cpsie i
 242              	@ 0 "" 2
 243              		.thumb
 244              		.syntax unified
 245              	.LBE205:
 246              	.LBE204:
 247              	.LBE203:
 248              	.LBE202:
 249              	.LBE201:
 250              		.loc 1 171 0
 251 0010 1840     		ands	r0, r0, r3
 252              	.LVL6:
 253 0012 7047     		bx	lr
 254              	.L14:
 255              		.align	2
 256              	.L13:
 257 0014 00000000 		.word	ch
 258              		.cfi_endproc
 259              	.LFE221:
 260              		.size	chEvtGetAndClearEvents, .-chEvtGetAndClearEvents
 261              		.section	.text.chEvtAddEvents,"ax",%progbits
 262              		.align	1
 263              		.p2align 4,,15
 264              		.global	chEvtAddEvents
 265              		.syntax unified
 266              		.thumb
 267              		.thumb_func
 268              		.fpu fpv4-sp-d16
 269              		.type	chEvtAddEvents, %function
 270              	chEvtAddEvents:
 271              	.LFB222:
 272              		.loc 1 182 0
 273              		.cfi_startproc
 274              		@ args = 0, pretend = 0, frame = 0
 275              		@ frame_needed = 0, uses_anonymous_args = 0
 276              		@ link register save eliminated.
 277              	.LVL7:
 278              	.LBB206:
 279              	.LBB207:
 280              	.LBB208:
 281              	.LBB209:
 282              		.loc 2 342 0
 283              		.syntax unified
 284              	@ 342 "ChibiOS_3.0.2/os/ext/CMSIS/include/core_cmFunc.h" 1
 285 0000 72B6     		cpsid i
ARM GAS  /tmp/ccRqN9am.s 			page 6


 286              	@ 0 "" 2
 287              		.thumb
 288              		.syntax unified
 289              	.LBE209:
 290              	.LBE208:
 291              	.LBE207:
 292              	.LBE206:
 293              		.loc 1 185 0
 294 0002 034B     		ldr	r3, .L16
 295 0004 9B69     		ldr	r3, [r3, #24]
 296 0006 9A6B     		ldr	r2, [r3, #56]
 297 0008 1043     		orrs	r0, r0, r2
 298              	.LVL8:
 299 000a 9863     		str	r0, [r3, #56]
 300              	.LVL9:
 301              	.LBB210:
 302              	.LBB211:
 303              	.LBB212:
 304              	.LBB213:
 305              	.LBB214:
 306              		.loc 2 331 0
 307              		.syntax unified
 308              	@ 331 "ChibiOS_3.0.2/os/ext/CMSIS/include/core_cmFunc.h" 1
 309 000c 62B6     		cpsie i
 310              	@ 0 "" 2
 311              		.thumb
 312              		.syntax unified
 313              	.LBE214:
 314              	.LBE213:
 315              	.LBE212:
 316              	.LBE211:
 317              	.LBE210:
 318              		.loc 1 190 0
 319 000e 7047     		bx	lr
 320              	.L17:
 321              		.align	2
 322              	.L16:
 323 0010 00000000 		.word	ch
 324              		.cfi_endproc
 325              	.LFE222:
 326              		.size	chEvtAddEvents, .-chEvtAddEvents
 327              		.section	.text.chEvtGetAndClearFlags,"ax",%progbits
 328              		.align	1
 329              		.p2align 4,,15
 330              		.global	chEvtGetAndClearFlags
 331              		.syntax unified
 332              		.thumb
 333              		.thumb_func
 334              		.fpu fpv4-sp-d16
 335              		.type	chEvtGetAndClearFlags, %function
 336              	chEvtGetAndClearFlags:
 337              	.LFB224:
 338              		.loc 1 241 0
 339              		.cfi_startproc
 340              		@ args = 0, pretend = 0, frame = 0
 341              		@ frame_needed = 0, uses_anonymous_args = 0
 342              		@ link register save eliminated.
ARM GAS  /tmp/ccRqN9am.s 			page 7


 343              	.LVL10:
 344              		.loc 1 241 0
 345 0000 0346     		mov	r3, r0
 346              	.LBB215:
 347              	.LBB216:
 348              	.LBB217:
 349              	.LBB218:
 350              		.loc 2 342 0
 351              		.syntax unified
 352              	@ 342 "ChibiOS_3.0.2/os/ext/CMSIS/include/core_cmFunc.h" 1
 353 0002 72B6     		cpsid i
 354              	@ 0 "" 2
 355              		.thumb
 356              		.syntax unified
 357              	.LBE218:
 358              	.LBE217:
 359              	.LBE216:
 360              	.LBE215:
 361              		.loc 1 246 0
 362 0004 0022     		movs	r2, #0
 363              		.loc 1 245 0
 364 0006 C068     		ldr	r0, [r0, #12]
 365              	.LVL11:
 366              		.loc 1 246 0
 367 0008 DA60     		str	r2, [r3, #12]
 368              	.LBB219:
 369              	.LBB220:
 370              	.LBB221:
 371              	.LBB222:
 372              	.LBB223:
 373              		.loc 2 331 0
 374              		.syntax unified
 375              	@ 331 "ChibiOS_3.0.2/os/ext/CMSIS/include/core_cmFunc.h" 1
 376 000a 62B6     		cpsie i
 377              	@ 0 "" 2
 378              		.thumb
 379              		.syntax unified
 380              	.LBE223:
 381              	.LBE222:
 382              	.LBE221:
 383              	.LBE220:
 384              	.LBE219:
 385              		.loc 1 250 0
 386 000c 7047     		bx	lr
 387              		.cfi_endproc
 388              	.LFE224:
 389              		.size	chEvtGetAndClearFlags, .-chEvtGetAndClearFlags
 390 000e 00BF     		.section	.text.chEvtSignalI,"ax",%progbits
 391              		.align	1
 392              		.p2align 4,,15
 393              		.global	chEvtSignalI
 394              		.syntax unified
 395              		.thumb
 396              		.thumb_func
 397              		.fpu fpv4-sp-d16
 398              		.type	chEvtSignalI, %function
 399              	chEvtSignalI:
ARM GAS  /tmp/ccRqN9am.s 			page 8


 400              	.LFB226:
 401              		.loc 1 282 0
 402              		.cfi_startproc
 403              		@ args = 0, pretend = 0, frame = 0
 404              		@ frame_needed = 0, uses_anonymous_args = 0
 405              		@ link register save eliminated.
 406              	.LVL12:
 407              		.loc 1 287 0
 408 0000 836B     		ldr	r3, [r0, #56]
 409              		.loc 1 289 0
 410 0002 027F     		ldrb	r2, [r0, #28]	@ zero_extendqisi2
 411              		.loc 1 287 0
 412 0004 1943     		orrs	r1, r1, r3
 413              	.LVL13:
 414              		.loc 1 289 0
 415 0006 0A2A     		cmp	r2, #10
 416              		.loc 1 287 0
 417 0008 8163     		str	r1, [r0, #56]
 418              		.loc 1 289 0
 419 000a 09D0     		beq	.L23
 420              		.loc 1 290 0
 421 000c 0B2A     		cmp	r2, #11
 422 000e 00D0     		beq	.L24
 423              	.L19:
 424              		.loc 1 296 0
 425 0010 7047     		bx	lr
 426              	.L24:
 427              		.loc 1 292 0
 428 0012 436A     		ldr	r3, [r0, #36]
 429              		.loc 1 291 0
 430 0014 8B43     		bics	r3, r3, r1
 431 0016 FBD1     		bne	.L19
 432              	.L21:
 433              		.loc 1 293 0
 434 0018 0023     		movs	r3, #0
 435 001a 4362     		str	r3, [r0, #36]
 436              		.loc 1 294 0
 437 001c FFF7FEBF 		b	chSchReadyI
 438              	.LVL14:
 439              	.L23:
 440              		.loc 1 290 0 discriminator 1
 441 0020 436A     		ldr	r3, [r0, #36]
 442              		.loc 1 289 0 discriminator 1
 443 0022 1942     		tst	r1, r3
 444 0024 F8D1     		bne	.L21
 445 0026 7047     		bx	lr
 446              		.cfi_endproc
 447              	.LFE226:
 448              		.size	chEvtSignalI, .-chEvtSignalI
 449              		.section	.text.chEvtBroadcastFlagsI,"ax",%progbits
 450              		.align	1
 451              		.p2align 4,,15
 452              		.global	chEvtBroadcastFlagsI
 453              		.syntax unified
 454              		.thumb
 455              		.thumb_func
 456              		.fpu fpv4-sp-d16
ARM GAS  /tmp/ccRqN9am.s 			page 9


 457              		.type	chEvtBroadcastFlagsI, %function
 458              	chEvtBroadcastFlagsI:
 459              	.LFB223:
 460              		.loc 1 209 0
 461              		.cfi_startproc
 462              		@ args = 0, pretend = 0, frame = 0
 463              		@ frame_needed = 0, uses_anonymous_args = 0
 464              	.LVL15:
 465 0000 70B5     		push	{r4, r5, r6, lr}
 466              		.cfi_def_cfa_offset 16
 467              		.cfi_offset 4, -16
 468              		.cfi_offset 5, -12
 469              		.cfi_offset 6, -8
 470              		.cfi_offset 14, -4
 471              		.loc 1 215 0
 472 0002 0468     		ldr	r4, [r0]
 473              	.LVL16:
 474              		.loc 1 217 0
 475 0004 A042     		cmp	r0, r4
 476 0006 0FD0     		beq	.L25
 477 0008 0646     		mov	r6, r0
 478 000a 0D46     		mov	r5, r1
 479              	.LVL17:
 480              	.L29:
 481              		.loc 1 219 0
 482 000c E368     		ldr	r3, [r4, #12]
 483 000e 2B43     		orrs	r3, r3, r5
 484 0010 E360     		str	r3, [r4, #12]
 485              		.loc 1 222 0
 486 0012 15B1     		cbz	r5, .L27
 487              		.loc 1 223 0 discriminator 1
 488 0014 2269     		ldr	r2, [r4, #16]
 489              		.loc 1 222 0 discriminator 1
 490 0016 1342     		tst	r3, r2
 491 0018 03D0     		beq	.L28
 492              	.L27:
 493              		.loc 1 224 0
 494 001a D4E90101 		ldrd	r0, r1, [r4, #4]
 495 001e FFF7FEFF 		bl	chEvtSignalI
 496              	.LVL18:
 497              	.L28:
 498              		.loc 1 226 0
 499 0022 2468     		ldr	r4, [r4]
 500              	.LVL19:
 501              		.loc 1 217 0
 502 0024 A642     		cmp	r6, r4
 503 0026 F1D1     		bne	.L29
 504              	.LVL20:
 505              	.L25:
 506              		.loc 1 228 0
 507 0028 70BD     		pop	{r4, r5, r6, pc}
 508              		.cfi_endproc
 509              	.LFE223:
 510              		.size	chEvtBroadcastFlagsI, .-chEvtBroadcastFlagsI
 511 002a 00BF     		.section	.text.chEvtSignal,"ax",%progbits
 512              		.align	1
 513              		.p2align 4,,15
ARM GAS  /tmp/ccRqN9am.s 			page 10


 514              		.global	chEvtSignal
 515              		.syntax unified
 516              		.thumb
 517              		.thumb_func
 518              		.fpu fpv4-sp-d16
 519              		.type	chEvtSignal, %function
 520              	chEvtSignal:
 521              	.LFB225:
 522              		.loc 1 260 0
 523              		.cfi_startproc
 524              		@ args = 0, pretend = 0, frame = 0
 525              		@ frame_needed = 0, uses_anonymous_args = 0
 526              	.LVL21:
 527 0000 08B5     		push	{r3, lr}
 528              		.cfi_def_cfa_offset 8
 529              		.cfi_offset 3, -8
 530              		.cfi_offset 14, -4
 531              	.LBB224:
 532              	.LBB225:
 533              	.LBB226:
 534              	.LBB227:
 535              		.loc 2 342 0
 536              		.syntax unified
 537              	@ 342 "ChibiOS_3.0.2/os/ext/CMSIS/include/core_cmFunc.h" 1
 538 0002 72B6     		cpsid i
 539              	@ 0 "" 2
 540              		.thumb
 541              		.syntax unified
 542              	.LBE227:
 543              	.LBE226:
 544              	.LBE225:
 545              	.LBE224:
 546              		.loc 1 265 0
 547 0004 FFF7FEFF 		bl	chEvtSignalI
 548              	.LVL22:
 549              		.loc 1 266 0
 550 0008 FFF7FEFF 		bl	chSchRescheduleS
 551              	.LVL23:
 552              	.LBB228:
 553              	.LBB229:
 554              	.LBB230:
 555              	.LBB231:
 556              	.LBB232:
 557              		.loc 2 331 0
 558              		.syntax unified
 559              	@ 331 "ChibiOS_3.0.2/os/ext/CMSIS/include/core_cmFunc.h" 1
 560 000c 62B6     		cpsie i
 561              	@ 0 "" 2
 562              		.thumb
 563              		.syntax unified
 564              	.LBE232:
 565              	.LBE231:
 566              	.LBE230:
 567              	.LBE229:
 568              	.LBE228:
 569              		.loc 1 268 0
 570 000e 08BD     		pop	{r3, pc}
ARM GAS  /tmp/ccRqN9am.s 			page 11


 571              		.cfi_endproc
 572              	.LFE225:
 573              		.size	chEvtSignal, .-chEvtSignal
 574              		.section	.text.chEvtBroadcastFlags,"ax",%progbits
 575              		.align	1
 576              		.p2align 4,,15
 577              		.global	chEvtBroadcastFlags
 578              		.syntax unified
 579              		.thumb
 580              		.thumb_func
 581              		.fpu fpv4-sp-d16
 582              		.type	chEvtBroadcastFlags, %function
 583              	chEvtBroadcastFlags:
 584              	.LFB227:
 585              		.loc 1 311 0
 586              		.cfi_startproc
 587              		@ args = 0, pretend = 0, frame = 0
 588              		@ frame_needed = 0, uses_anonymous_args = 0
 589              	.LVL24:
 590 0000 08B5     		push	{r3, lr}
 591              		.cfi_def_cfa_offset 8
 592              		.cfi_offset 3, -8
 593              		.cfi_offset 14, -4
 594              	.LBB233:
 595              	.LBB234:
 596              	.LBB235:
 597              	.LBB236:
 598              		.loc 2 342 0
 599              		.syntax unified
 600              	@ 342 "ChibiOS_3.0.2/os/ext/CMSIS/include/core_cmFunc.h" 1
 601 0002 72B6     		cpsid i
 602              	@ 0 "" 2
 603              		.thumb
 604              		.syntax unified
 605              	.LBE236:
 606              	.LBE235:
 607              	.LBE234:
 608              	.LBE233:
 609              		.loc 1 314 0
 610 0004 FFF7FEFF 		bl	chEvtBroadcastFlagsI
 611              	.LVL25:
 612              		.loc 1 315 0
 613 0008 FFF7FEFF 		bl	chSchRescheduleS
 614              	.LVL26:
 615              	.LBB237:
 616              	.LBB238:
 617              	.LBB239:
 618              	.LBB240:
 619              	.LBB241:
 620              		.loc 2 331 0
 621              		.syntax unified
 622              	@ 331 "ChibiOS_3.0.2/os/ext/CMSIS/include/core_cmFunc.h" 1
 623 000c 62B6     		cpsie i
 624              	@ 0 "" 2
 625              		.thumb
 626              		.syntax unified
 627              	.LBE241:
ARM GAS  /tmp/ccRqN9am.s 			page 12


 628              	.LBE240:
 629              	.LBE239:
 630              	.LBE238:
 631              	.LBE237:
 632              		.loc 1 317 0
 633 000e 08BD     		pop	{r3, pc}
 634              		.cfi_endproc
 635              	.LFE227:
 636              		.size	chEvtBroadcastFlags, .-chEvtBroadcastFlags
 637              		.section	.text.chEvtGetAndClearFlagsI,"ax",%progbits
 638              		.align	1
 639              		.p2align 4,,15
 640              		.global	chEvtGetAndClearFlagsI
 641              		.syntax unified
 642              		.thumb
 643              		.thumb_func
 644              		.fpu fpv4-sp-d16
 645              		.type	chEvtGetAndClearFlagsI, %function
 646              	chEvtGetAndClearFlagsI:
 647              	.LFB228:
 648              		.loc 1 330 0
 649              		.cfi_startproc
 650              		@ args = 0, pretend = 0, frame = 0
 651              		@ frame_needed = 0, uses_anonymous_args = 0
 652              		@ link register save eliminated.
 653              	.LVL27:
 654              		.loc 1 330 0
 655 0000 0346     		mov	r3, r0
 656              		.loc 1 334 0
 657 0002 0022     		movs	r2, #0
 658              		.loc 1 333 0
 659 0004 C068     		ldr	r0, [r0, #12]
 660              	.LVL28:
 661              		.loc 1 334 0
 662 0006 DA60     		str	r2, [r3, #12]
 663              		.loc 1 337 0
 664 0008 7047     		bx	lr
 665              		.cfi_endproc
 666              	.LFE228:
 667              		.size	chEvtGetAndClearFlagsI, .-chEvtGetAndClearFlagsI
 668 000a 00BF     		.section	.text.chEvtDispatch,"ax",%progbits
 669              		.align	1
 670              		.p2align 4,,15
 671              		.global	chEvtDispatch
 672              		.syntax unified
 673              		.thumb
 674              		.thumb_func
 675              		.fpu fpv4-sp-d16
 676              		.type	chEvtDispatch, %function
 677              	chEvtDispatch:
 678              	.LFB229:
 679              		.loc 1 348 0
 680              		.cfi_startproc
 681              		@ args = 0, pretend = 0, frame = 0
 682              		@ frame_needed = 0, uses_anonymous_args = 0
 683              	.LVL29:
 684              		.loc 1 354 0
ARM GAS  /tmp/ccRqN9am.s 			page 13


 685 0000 B9B1     		cbz	r1, .L50
 686              		.loc 1 348 0
 687 0002 F8B5     		push	{r3, r4, r5, r6, r7, lr}
 688              		.cfi_def_cfa_offset 24
 689              		.cfi_offset 3, -24
 690              		.cfi_offset 4, -20
 691              		.cfi_offset 5, -16
 692              		.cfi_offset 6, -12
 693              		.cfi_offset 7, -8
 694              		.cfi_offset 14, -4
 695 0004 0746     		mov	r7, r0
 696 0006 0D46     		mov	r5, r1
 697              		.loc 1 353 0
 698 0008 0024     		movs	r4, #0
 699              		.loc 1 357 0
 700 000a 0126     		movs	r6, #1
 701              	.LVL30:
 702              	.L44:
 703              		.loc 1 355 0
 704 000c 25FA04F3 		lsr	r3, r5, r4
 705 0010 13F0010F 		tst	r3, #1
 706              		.loc 1 357 0
 707 0014 06FA04F2 		lsl	r2, r6, r4
 708              		.loc 1 358 0
 709 0018 2046     		mov	r0, r4
 710              		.loc 1 355 0
 711 001a 08D0     		beq	.L46
 712              		.loc 1 358 0
 713 001c 57F82430 		ldr	r3, [r7, r4, lsl #2]
 714              		.loc 1 357 0
 715 0020 25EA0205 		bic	r5, r5, r2
 716              	.LVL31:
 717              		.loc 1 360 0
 718 0024 0134     		adds	r4, r4, #1
 719              	.LVL32:
 720              		.loc 1 358 0
 721 0026 9847     		blx	r3
 722              	.LVL33:
 723              		.loc 1 354 0
 724 0028 002D     		cmp	r5, #0
 725 002a EFD1     		bne	.L44
 726              		.loc 1 362 0
 727 002c F8BD     		pop	{r3, r4, r5, r6, r7, pc}
 728              	.LVL34:
 729              	.L46:
 730              		.loc 1 360 0
 731 002e 0134     		adds	r4, r4, #1
 732              	.LVL35:
 733 0030 ECE7     		b	.L44
 734              	.LVL36:
 735              	.L50:
 736              		.cfi_def_cfa_offset 0
 737              		.cfi_restore 3
 738              		.cfi_restore 4
 739              		.cfi_restore 5
 740              		.cfi_restore 6
 741              		.cfi_restore 7
ARM GAS  /tmp/ccRqN9am.s 			page 14


 742              		.cfi_restore 14
 743 0032 7047     		bx	lr
 744              		.cfi_endproc
 745              	.LFE229:
 746              		.size	chEvtDispatch, .-chEvtDispatch
 747              		.section	.text.chEvtWaitOne,"ax",%progbits
 748              		.align	1
 749              		.p2align 4,,15
 750              		.global	chEvtWaitOne
 751              		.syntax unified
 752              		.thumb
 753              		.thumb_func
 754              		.fpu fpv4-sp-d16
 755              		.type	chEvtWaitOne, %function
 756              	chEvtWaitOne:
 757              	.LFB230:
 758              		.loc 1 383 0
 759              		.cfi_startproc
 760              		@ args = 0, pretend = 0, frame = 0
 761              		@ frame_needed = 0, uses_anonymous_args = 0
 762              	.LVL37:
 763 0000 38B5     		push	{r3, r4, r5, lr}
 764              		.cfi_def_cfa_offset 16
 765              		.cfi_offset 3, -16
 766              		.cfi_offset 4, -12
 767              		.cfi_offset 5, -8
 768              		.cfi_offset 14, -4
 769              		.loc 1 384 0
 770 0002 0A4B     		ldr	r3, .L56
 771 0004 9D69     		ldr	r5, [r3, #24]
 772              	.LVL38:
 773              	.LBB242:
 774              	.LBB243:
 775              	.LBB244:
 776              	.LBB245:
 777              		.loc 2 342 0
 778              		.syntax unified
 779              	@ 342 "ChibiOS_3.0.2/os/ext/CMSIS/include/core_cmFunc.h" 1
 780 0006 72B6     		cpsid i
 781              	@ 0 "" 2
 782              		.thumb
 783              		.syntax unified
 784              	.LBE245:
 785              	.LBE244:
 786              	.LBE243:
 787              	.LBE242:
 788              		.loc 1 388 0
 789 0008 AB6B     		ldr	r3, [r5, #56]
 790              	.LVL39:
 791              		.loc 1 389 0
 792 000a 13EA0004 		ands	r4, r3, r0
 793              	.LVL40:
 794 000e 06D1     		bne	.L54
 795 0010 0446     		mov	r4, r0
 796              	.LVL41:
 797              		.loc 1 390 0
 798 0012 6862     		str	r0, [r5, #36]
ARM GAS  /tmp/ccRqN9am.s 			page 15


 799              		.loc 1 391 0
 800 0014 0A20     		movs	r0, #10
 801              	.LVL42:
 802 0016 FFF7FEFF 		bl	chSchGoSleepS
 803              	.LVL43:
 804              		.loc 1 392 0
 805 001a AB6B     		ldr	r3, [r5, #56]
 806 001c 1C40     		ands	r4, r4, r3
 807              	.LVL44:
 808              	.L54:
 809              		.loc 1 394 0
 810 001e 6042     		negs	r0, r4
 811 0020 2040     		ands	r0, r0, r4
 812              	.LVL45:
 813              		.loc 1 395 0
 814 0022 23EA0003 		bic	r3, r3, r0
 815 0026 AB63     		str	r3, [r5, #56]
 816              	.LBB246:
 817              	.LBB247:
 818              	.LBB248:
 819              	.LBB249:
 820              	.LBB250:
 821              		.loc 2 331 0
 822              		.syntax unified
 823              	@ 331 "ChibiOS_3.0.2/os/ext/CMSIS/include/core_cmFunc.h" 1
 824 0028 62B6     		cpsie i
 825              	@ 0 "" 2
 826              		.thumb
 827              		.syntax unified
 828              	.LBE250:
 829              	.LBE249:
 830              	.LBE248:
 831              	.LBE247:
 832              	.LBE246:
 833              		.loc 1 399 0
 834 002a 38BD     		pop	{r3, r4, r5, pc}
 835              	.LVL46:
 836              	.L57:
 837              		.align	2
 838              	.L56:
 839 002c 00000000 		.word	ch
 840              		.cfi_endproc
 841              	.LFE230:
 842              		.size	chEvtWaitOne, .-chEvtWaitOne
 843              		.section	.text.chEvtWaitAny,"ax",%progbits
 844              		.align	1
 845              		.p2align 4,,15
 846              		.global	chEvtWaitAny
 847              		.syntax unified
 848              		.thumb
 849              		.thumb_func
 850              		.fpu fpv4-sp-d16
 851              		.type	chEvtWaitAny, %function
 852              	chEvtWaitAny:
 853              	.LFB231:
 854              		.loc 1 413 0
 855              		.cfi_startproc
ARM GAS  /tmp/ccRqN9am.s 			page 16


 856              		@ args = 0, pretend = 0, frame = 0
 857              		@ frame_needed = 0, uses_anonymous_args = 0
 858              	.LVL47:
 859 0000 38B5     		push	{r3, r4, r5, lr}
 860              		.cfi_def_cfa_offset 16
 861              		.cfi_offset 3, -16
 862              		.cfi_offset 4, -12
 863              		.cfi_offset 5, -8
 864              		.cfi_offset 14, -4
 865              		.loc 1 414 0
 866 0002 0A4B     		ldr	r3, .L61
 867 0004 9D69     		ldr	r5, [r3, #24]
 868              	.LVL48:
 869              	.LBB251:
 870              	.LBB252:
 871              	.LBB253:
 872              	.LBB254:
 873              		.loc 2 342 0
 874              		.syntax unified
 875              	@ 342 "ChibiOS_3.0.2/os/ext/CMSIS/include/core_cmFunc.h" 1
 876 0006 72B6     		cpsid i
 877              	@ 0 "" 2
 878              		.thumb
 879              		.syntax unified
 880              	.LBE254:
 881              	.LBE253:
 882              	.LBE252:
 883              	.LBE251:
 884              		.loc 1 418 0
 885 0008 AB6B     		ldr	r3, [r5, #56]
 886              	.LVL49:
 887              		.loc 1 419 0
 888 000a 13EA0004 		ands	r4, r3, r0
 889              	.LVL50:
 890 000e 06D1     		bne	.L59
 891 0010 0446     		mov	r4, r0
 892              	.LVL51:
 893              		.loc 1 420 0
 894 0012 6862     		str	r0, [r5, #36]
 895              		.loc 1 421 0
 896 0014 0A20     		movs	r0, #10
 897              	.LVL52:
 898 0016 FFF7FEFF 		bl	chSchGoSleepS
 899              	.LVL53:
 900              		.loc 1 422 0
 901 001a AB6B     		ldr	r3, [r5, #56]
 902 001c 1C40     		ands	r4, r4, r3
 903              	.LVL54:
 904              	.L59:
 905              		.loc 1 424 0
 906 001e 23EA0403 		bic	r3, r3, r4
 907 0022 AB63     		str	r3, [r5, #56]
 908              	.LBB255:
 909              	.LBB256:
 910              	.LBB257:
 911              	.LBB258:
 912              	.LBB259:
ARM GAS  /tmp/ccRqN9am.s 			page 17


 913              		.loc 2 331 0
 914              		.syntax unified
 915              	@ 331 "ChibiOS_3.0.2/os/ext/CMSIS/include/core_cmFunc.h" 1
 916 0024 62B6     		cpsie i
 917              	@ 0 "" 2
 918              		.thumb
 919              		.syntax unified
 920              	.LBE259:
 921              	.LBE258:
 922              	.LBE257:
 923              	.LBE256:
 924              	.LBE255:
 925              		.loc 1 428 0
 926 0026 2046     		mov	r0, r4
 927 0028 38BD     		pop	{r3, r4, r5, pc}
 928              	.LVL55:
 929              	.L62:
 930 002a 00BF     		.align	2
 931              	.L61:
 932 002c 00000000 		.word	ch
 933              		.cfi_endproc
 934              	.LFE231:
 935              		.size	chEvtWaitAny, .-chEvtWaitAny
 936              		.section	.text.chEvtWaitAll,"ax",%progbits
 937              		.align	1
 938              		.p2align 4,,15
 939              		.global	chEvtWaitAll
 940              		.syntax unified
 941              		.thumb
 942              		.thumb_func
 943              		.fpu fpv4-sp-d16
 944              		.type	chEvtWaitAll, %function
 945              	chEvtWaitAll:
 946              	.LFB232:
 947              		.loc 1 441 0
 948              		.cfi_startproc
 949              		@ args = 0, pretend = 0, frame = 0
 950              		@ frame_needed = 0, uses_anonymous_args = 0
 951              	.LVL56:
 952 0000 38B5     		push	{r3, r4, r5, lr}
 953              		.cfi_def_cfa_offset 16
 954              		.cfi_offset 3, -16
 955              		.cfi_offset 4, -12
 956              		.cfi_offset 5, -8
 957              		.cfi_offset 14, -4
 958              		.loc 1 442 0
 959 0002 094B     		ldr	r3, .L66
 960              		.loc 1 441 0
 961 0004 0446     		mov	r4, r0
 962              		.loc 1 442 0
 963 0006 9D69     		ldr	r5, [r3, #24]
 964              	.LVL57:
 965              	.LBB260:
 966              	.LBB261:
 967              	.LBB262:
 968              	.LBB263:
 969              		.loc 2 342 0
ARM GAS  /tmp/ccRqN9am.s 			page 18


 970              		.syntax unified
 971              	@ 342 "ChibiOS_3.0.2/os/ext/CMSIS/include/core_cmFunc.h" 1
 972 0008 72B6     		cpsid i
 973              	@ 0 "" 2
 974              		.thumb
 975              		.syntax unified
 976              	.LBE263:
 977              	.LBE262:
 978              	.LBE261:
 979              	.LBE260:
 980              		.loc 1 445 0
 981 000a AB6B     		ldr	r3, [r5, #56]
 982 000c 30EA0302 		bics	r2, r0, r3
 983 0010 04D0     		beq	.L64
 984              		.loc 1 446 0
 985 0012 6862     		str	r0, [r5, #36]
 986              		.loc 1 447 0
 987 0014 0B20     		movs	r0, #11
 988              	.LVL58:
 989 0016 FFF7FEFF 		bl	chSchGoSleepS
 990              	.LVL59:
 991 001a AB6B     		ldr	r3, [r5, #56]
 992              	.L64:
 993              		.loc 1 449 0
 994 001c 23EA0403 		bic	r3, r3, r4
 995 0020 AB63     		str	r3, [r5, #56]
 996              	.LBB264:
 997              	.LBB265:
 998              	.LBB266:
 999              	.LBB267:
 1000              	.LBB268:
 1001              		.loc 2 331 0
 1002              		.syntax unified
 1003              	@ 331 "ChibiOS_3.0.2/os/ext/CMSIS/include/core_cmFunc.h" 1
 1004 0022 62B6     		cpsie i
 1005              	@ 0 "" 2
 1006              		.thumb
 1007              		.syntax unified
 1008              	.LBE268:
 1009              	.LBE267:
 1010              	.LBE266:
 1011              	.LBE265:
 1012              	.LBE264:
 1013              		.loc 1 453 0
 1014 0024 2046     		mov	r0, r4
 1015 0026 38BD     		pop	{r3, r4, r5, pc}
 1016              	.LVL60:
 1017              	.L67:
 1018              		.align	2
 1019              	.L66:
 1020 0028 00000000 		.word	ch
 1021              		.cfi_endproc
 1022              	.LFE232:
 1023              		.size	chEvtWaitAll, .-chEvtWaitAll
 1024              		.section	.text.chEvtWaitOneTimeout,"ax",%progbits
 1025              		.align	1
 1026              		.p2align 4,,15
ARM GAS  /tmp/ccRqN9am.s 			page 19


 1027              		.global	chEvtWaitOneTimeout
 1028              		.syntax unified
 1029              		.thumb
 1030              		.thumb_func
 1031              		.fpu fpv4-sp-d16
 1032              		.type	chEvtWaitOneTimeout, %function
 1033              	chEvtWaitOneTimeout:
 1034              	.LFB233:
 1035              		.loc 1 479 0
 1036              		.cfi_startproc
 1037              		@ args = 0, pretend = 0, frame = 0
 1038              		@ frame_needed = 0, uses_anonymous_args = 0
 1039              	.LVL61:
 1040              		.loc 1 480 0
 1041 0000 0E4B     		ldr	r3, .L75
 1042              		.loc 1 479 0
 1043 0002 70B5     		push	{r4, r5, r6, lr}
 1044              		.cfi_def_cfa_offset 16
 1045              		.cfi_offset 4, -16
 1046              		.cfi_offset 5, -12
 1047              		.cfi_offset 6, -8
 1048              		.cfi_offset 14, -4
 1049              		.loc 1 480 0
 1050 0004 9E69     		ldr	r6, [r3, #24]
 1051              	.LVL62:
 1052              	.LBB269:
 1053              	.LBB270:
 1054              	.LBB271:
 1055              	.LBB272:
 1056              		.loc 2 342 0
 1057              		.syntax unified
 1058              	@ 342 "ChibiOS_3.0.2/os/ext/CMSIS/include/core_cmFunc.h" 1
 1059 0006 72B6     		cpsid i
 1060              	@ 0 "" 2
 1061              		.thumb
 1062              		.syntax unified
 1063              	.LBE272:
 1064              	.LBE271:
 1065              	.LBE270:
 1066              	.LBE269:
 1067              		.loc 1 484 0
 1068 0008 B36B     		ldr	r3, [r6, #56]
 1069              	.LVL63:
 1070              		.loc 1 485 0
 1071 000a 13EA0004 		ands	r4, r3, r0
 1072              	.LVL64:
 1073 000e 0DD1     		bne	.L69
 1074              		.loc 1 486 0
 1075 0010 11B9     		cbnz	r1, .L70
 1076              	.LVL65:
 1077              	.L74:
 1078              	.LBB273:
 1079              	.LBB274:
 1080              	.LBB275:
 1081              	.LBB276:
 1082              	.LBB277:
 1083              		.loc 2 331 0
ARM GAS  /tmp/ccRqN9am.s 			page 20


 1084              		.syntax unified
 1085              	@ 331 "ChibiOS_3.0.2/os/ext/CMSIS/include/core_cmFunc.h" 1
 1086 0012 62B6     		cpsie i
 1087              	@ 0 "" 2
 1088              		.thumb
 1089              		.syntax unified
 1090              	.LBE277:
 1091              	.LBE276:
 1092              	.LBE275:
 1093              	.LBE274:
 1094              	.LBE273:
 1095              		.loc 1 502 0
 1096 0014 2046     		mov	r0, r4
 1097 0016 70BD     		pop	{r4, r5, r6, pc}
 1098              	.LVL66:
 1099              	.L70:
 1100              		.loc 1 490 0
 1101 0018 7062     		str	r0, [r6, #36]
 1102 001a 0546     		mov	r5, r0
 1103              		.loc 1 491 0
 1104 001c 0A20     		movs	r0, #10
 1105              	.LVL67:
 1106 001e FFF7FEFF 		bl	chSchGoSleepTimeoutS
 1107              	.LVL68:
 1108 0022 0028     		cmp	r0, #0
 1109 0024 F5DB     		blt	.L74
 1110              		.loc 1 495 0
 1111 0026 B36B     		ldr	r3, [r6, #56]
 1112 0028 03EA0504 		and	r4, r3, r5
 1113              	.LVL69:
 1114              	.L69:
 1115              		.loc 1 497 0
 1116 002c 6242     		negs	r2, r4
 1117 002e 1440     		ands	r4, r4, r2
 1118              	.LVL70:
 1119              		.loc 1 498 0
 1120 0030 23EA0403 		bic	r3, r3, r4
 1121 0034 B363     		str	r3, [r6, #56]
 1122              	.LBB282:
 1123              	.LBB281:
 1124              	.LBB280:
 1125              	.LBB279:
 1126              	.LBB278:
 1127              		.loc 2 331 0
 1128              		.syntax unified
 1129              	@ 331 "ChibiOS_3.0.2/os/ext/CMSIS/include/core_cmFunc.h" 1
 1130 0036 62B6     		cpsie i
 1131              	@ 0 "" 2
 1132              		.thumb
 1133              		.syntax unified
 1134              	.LBE278:
 1135              	.LBE279:
 1136              	.LBE280:
 1137              	.LBE281:
 1138              	.LBE282:
 1139              		.loc 1 502 0
 1140 0038 2046     		mov	r0, r4
ARM GAS  /tmp/ccRqN9am.s 			page 21


 1141 003a 70BD     		pop	{r4, r5, r6, pc}
 1142              	.LVL71:
 1143              	.L76:
 1144              		.align	2
 1145              	.L75:
 1146 003c 00000000 		.word	ch
 1147              		.cfi_endproc
 1148              	.LFE233:
 1149              		.size	chEvtWaitOneTimeout, .-chEvtWaitOneTimeout
 1150              		.section	.text.chEvtWaitAnyTimeout,"ax",%progbits
 1151              		.align	1
 1152              		.p2align 4,,15
 1153              		.global	chEvtWaitAnyTimeout
 1154              		.syntax unified
 1155              		.thumb
 1156              		.thumb_func
 1157              		.fpu fpv4-sp-d16
 1158              		.type	chEvtWaitAnyTimeout, %function
 1159              	chEvtWaitAnyTimeout:
 1160              	.LFB234:
 1161              		.loc 1 522 0
 1162              		.cfi_startproc
 1163              		@ args = 0, pretend = 0, frame = 0
 1164              		@ frame_needed = 0, uses_anonymous_args = 0
 1165              	.LVL72:
 1166              		.loc 1 523 0
 1167 0000 0D4B     		ldr	r3, .L84
 1168              		.loc 1 522 0
 1169 0002 70B5     		push	{r4, r5, r6, lr}
 1170              		.cfi_def_cfa_offset 16
 1171              		.cfi_offset 4, -16
 1172              		.cfi_offset 5, -12
 1173              		.cfi_offset 6, -8
 1174              		.cfi_offset 14, -4
 1175              		.loc 1 523 0
 1176 0004 9D69     		ldr	r5, [r3, #24]
 1177              	.LVL73:
 1178              	.LBB283:
 1179              	.LBB284:
 1180              	.LBB285:
 1181              	.LBB286:
 1182              		.loc 2 342 0
 1183              		.syntax unified
 1184              	@ 342 "ChibiOS_3.0.2/os/ext/CMSIS/include/core_cmFunc.h" 1
 1185 0006 72B6     		cpsid i
 1186              	@ 0 "" 2
 1187              		.thumb
 1188              		.syntax unified
 1189              	.LBE286:
 1190              	.LBE285:
 1191              	.LBE284:
 1192              	.LBE283:
 1193              		.loc 1 527 0
 1194 0008 AB6B     		ldr	r3, [r5, #56]
 1195              	.LVL74:
 1196              		.loc 1 528 0
 1197 000a 13EA0006 		ands	r6, r3, r0
ARM GAS  /tmp/ccRqN9am.s 			page 22


 1198              	.LVL75:
 1199 000e 0DD1     		bne	.L78
 1200              		.loc 1 529 0
 1201 0010 11B9     		cbnz	r1, .L79
 1202              	.LVL76:
 1203              	.L83:
 1204              	.LBB287:
 1205              	.LBB288:
 1206              	.LBB289:
 1207              	.LBB290:
 1208              	.LBB291:
 1209              		.loc 2 331 0
 1210              		.syntax unified
 1211              	@ 331 "ChibiOS_3.0.2/os/ext/CMSIS/include/core_cmFunc.h" 1
 1212 0012 62B6     		cpsie i
 1213              	@ 0 "" 2
 1214              		.thumb
 1215              		.syntax unified
 1216              	.LBE291:
 1217              	.LBE290:
 1218              	.LBE289:
 1219              	.LBE288:
 1220              	.LBE287:
 1221              		.loc 1 544 0
 1222 0014 3046     		mov	r0, r6
 1223 0016 70BD     		pop	{r4, r5, r6, pc}
 1224              	.LVL77:
 1225              	.L79:
 1226              		.loc 1 533 0
 1227 0018 6862     		str	r0, [r5, #36]
 1228 001a 0446     		mov	r4, r0
 1229              		.loc 1 534 0
 1230 001c 0A20     		movs	r0, #10
 1231              	.LVL78:
 1232 001e FFF7FEFF 		bl	chSchGoSleepTimeoutS
 1233              	.LVL79:
 1234 0022 0028     		cmp	r0, #0
 1235 0024 F5DB     		blt	.L83
 1236              		.loc 1 538 0
 1237 0026 AB6B     		ldr	r3, [r5, #56]
 1238 0028 03EA0406 		and	r6, r3, r4
 1239              	.LVL80:
 1240              	.L78:
 1241              		.loc 1 540 0
 1242 002c 23EA0603 		bic	r3, r3, r6
 1243 0030 AB63     		str	r3, [r5, #56]
 1244              	.LBB296:
 1245              	.LBB295:
 1246              	.LBB294:
 1247              	.LBB293:
 1248              	.LBB292:
 1249              		.loc 2 331 0
 1250              		.syntax unified
 1251              	@ 331 "ChibiOS_3.0.2/os/ext/CMSIS/include/core_cmFunc.h" 1
 1252 0032 62B6     		cpsie i
 1253              	@ 0 "" 2
 1254              		.thumb
ARM GAS  /tmp/ccRqN9am.s 			page 23


 1255              		.syntax unified
 1256              	.LBE292:
 1257              	.LBE293:
 1258              	.LBE294:
 1259              	.LBE295:
 1260              	.LBE296:
 1261              		.loc 1 544 0
 1262 0034 3046     		mov	r0, r6
 1263 0036 70BD     		pop	{r4, r5, r6, pc}
 1264              	.LVL81:
 1265              	.L85:
 1266              		.align	2
 1267              	.L84:
 1268 0038 00000000 		.word	ch
 1269              		.cfi_endproc
 1270              	.LFE234:
 1271              		.size	chEvtWaitAnyTimeout, .-chEvtWaitAnyTimeout
 1272              		.section	.text.chEvtWaitAllTimeout,"ax",%progbits
 1273              		.align	1
 1274              		.p2align 4,,15
 1275              		.global	chEvtWaitAllTimeout
 1276              		.syntax unified
 1277              		.thumb
 1278              		.thumb_func
 1279              		.fpu fpv4-sp-d16
 1280              		.type	chEvtWaitAllTimeout, %function
 1281              	chEvtWaitAllTimeout:
 1282              	.LFB235:
 1283              		.loc 1 563 0
 1284              		.cfi_startproc
 1285              		@ args = 0, pretend = 0, frame = 0
 1286              		@ frame_needed = 0, uses_anonymous_args = 0
 1287              	.LVL82:
 1288 0000 38B5     		push	{r3, r4, r5, lr}
 1289              		.cfi_def_cfa_offset 16
 1290              		.cfi_offset 3, -16
 1291              		.cfi_offset 4, -12
 1292              		.cfi_offset 5, -8
 1293              		.cfi_offset 14, -4
 1294              		.loc 1 564 0
 1295 0002 0E4B     		ldr	r3, .L92
 1296              		.loc 1 563 0
 1297 0004 0446     		mov	r4, r0
 1298              		.loc 1 564 0
 1299 0006 9D69     		ldr	r5, [r3, #24]
 1300              	.LVL83:
 1301              	.LBB297:
 1302              	.LBB298:
 1303              	.LBB299:
 1304              	.LBB300:
 1305              		.loc 2 342 0
 1306              		.syntax unified
 1307              	@ 342 "ChibiOS_3.0.2/os/ext/CMSIS/include/core_cmFunc.h" 1
 1308 0008 72B6     		cpsid i
 1309              	@ 0 "" 2
 1310              		.thumb
 1311              		.syntax unified
ARM GAS  /tmp/ccRqN9am.s 			page 24


 1312              	.LBE300:
 1313              	.LBE299:
 1314              	.LBE298:
 1315              	.LBE297:
 1316              		.loc 1 567 0
 1317 000a AB6B     		ldr	r3, [r5, #56]
 1318 000c 30EA0302 		bics	r2, r0, r3
 1319 0010 0AD0     		beq	.L87
 1320 0012 0846     		mov	r0, r1
 1321              	.LVL84:
 1322              		.loc 1 568 0
 1323 0014 09B9     		cbnz	r1, .L88
 1324              	.LBB301:
 1325              	.LBB302:
 1326              	.LBB303:
 1327              	.LBB304:
 1328              	.LBB305:
 1329              		.loc 2 331 0
 1330              		.syntax unified
 1331              	@ 331 "ChibiOS_3.0.2/os/ext/CMSIS/include/core_cmFunc.h" 1
 1332 0016 62B6     		cpsie i
 1333              	@ 0 "" 2
 1334              		.thumb
 1335              		.syntax unified
 1336              	.LBE305:
 1337              	.LBE304:
 1338              	.LBE303:
 1339              	.LBE302:
 1340              	.LBE301:
 1341              		.loc 1 582 0
 1342 0018 38BD     		pop	{r3, r4, r5, pc}
 1343              	.LVL85:
 1344              	.L88:
 1345              		.loc 1 572 0
 1346 001a 6C62     		str	r4, [r5, #36]
 1347              		.loc 1 573 0
 1348 001c 0B20     		movs	r0, #11
 1349 001e FFF7FEFF 		bl	chSchGoSleepTimeoutS
 1350              	.LVL86:
 1351 0022 0028     		cmp	r0, #0
 1352 0024 06DB     		blt	.L90
 1353 0026 AB6B     		ldr	r3, [r5, #56]
 1354              	.L87:
 1355              		.loc 1 578 0
 1356 0028 23EA0403 		bic	r3, r3, r4
 1357 002c AB63     		str	r3, [r5, #56]
 1358              	.LBB306:
 1359              	.LBB307:
 1360              	.LBB308:
 1361              	.LBB309:
 1362              	.LBB310:
 1363              		.loc 2 331 0
 1364              		.syntax unified
 1365              	@ 331 "ChibiOS_3.0.2/os/ext/CMSIS/include/core_cmFunc.h" 1
 1366 002e 62B6     		cpsie i
 1367              	@ 0 "" 2
 1368              		.thumb
ARM GAS  /tmp/ccRqN9am.s 			page 25


 1369              		.syntax unified
 1370              	.LBE310:
 1371              	.LBE309:
 1372              	.LBE308:
 1373              	.LBE307:
 1374              	.LBE306:
 1375              		.loc 1 581 0
 1376 0030 2046     		mov	r0, r4
 1377              		.loc 1 582 0
 1378 0032 38BD     		pop	{r3, r4, r5, pc}
 1379              	.LVL87:
 1380              	.L90:
 1381              	.LBB311:
 1382              	.LBB312:
 1383              	.LBB313:
 1384              	.LBB314:
 1385              	.LBB315:
 1386              		.loc 2 331 0
 1387              		.syntax unified
 1388              	@ 331 "ChibiOS_3.0.2/os/ext/CMSIS/include/core_cmFunc.h" 1
 1389 0034 62B6     		cpsie i
 1390              	@ 0 "" 2
 1391              		.thumb
 1392              		.syntax unified
 1393              	.LBE315:
 1394              	.LBE314:
 1395              	.LBE313:
 1396              	.LBE312:
 1397              	.LBE311:
 1398              		.loc 1 575 0
 1399 0036 0020     		movs	r0, #0
 1400              		.loc 1 582 0
 1401 0038 38BD     		pop	{r3, r4, r5, pc}
 1402              	.LVL88:
 1403              	.L93:
 1404 003a 00BF     		.align	2
 1405              	.L92:
 1406 003c 00000000 		.word	ch
 1407              		.cfi_endproc
 1408              	.LFE235:
 1409              		.size	chEvtWaitAllTimeout, .-chEvtWaitAllTimeout
 1410              		.text
 1411              	.Letext0:
 1412              		.file 3 "/usr/arm-none-eabi/include/machine/_default_types.h"
 1413              		.file 4 "/usr/arm-none-eabi/include/sys/_stdint.h"
 1414              		.file 5 "ChibiOS_3.0.2/os/rt/ports/ARMCMx/compilers/GCC/chtypes.h"
 1415              		.file 6 "ChibiOS_3.0.2/os/rt/include/chsystypes.h"
 1416              		.file 7 "ChibiOS_3.0.2/os/rt/include/chschd.h"
 1417              		.file 8 "ChibiOS_3.0.2/os/ext/CMSIS/include/core_cm4.h"
 1418              		.file 9 "ChibiOS_3.0.2/os/ext/CMSIS/ST/system_stm32f4xx.h"
 1419              		.file 10 "ChibiOS_3.0.2/os/rt/ports/ARMCMx/chcore.h"
 1420              		.file 11 "ChibiOS_3.0.2/os/rt/ports/ARMCMx/chcore_v7m.h"
 1421              		.file 12 "ChibiOS_3.0.2/os/rt/include/chtm.h"
 1422              		.file 13 "ChibiOS_3.0.2/os/rt/include/chsem.h"
 1423              		.file 14 "ChibiOS_3.0.2/os/rt/include/chmtx.h"
 1424              		.file 15 "ChibiOS_3.0.2/os/rt/include/chregistry.h"
 1425              		.file 16 "ChibiOS_3.0.2/os/rt/include/chevents.h"
ARM GAS  /tmp/ccRqN9am.s 			page 26


 1426              		.file 17 "ChibiOS_3.0.2/os/rt/include/chsys.h"