ARM GAS  /tmp/ccHCxrbr.s 			page 1


   1              		.cpu cortex-m4
   2              		.eabi_attribute 27, 1
   3              		.eabi_attribute 28, 1
   4              		.eabi_attribute 20, 1
   5              		.eabi_attribute 21, 1
   6              		.eabi_attribute 23, 3
   7              		.eabi_attribute 24, 1
   8              		.eabi_attribute 25, 1
   9              		.eabi_attribute 26, 1
  10              		.eabi_attribute 30, 2
  11              		.eabi_attribute 34, 1
  12              		.eabi_attribute 18, 4
  13              		.file	"main.c"
  14              		.text
  15              	.Ltext0:
  16              		.cfi_sections	.debug_frame
  17              		.section	.text.flash_integrity_check_thread,"ax",%progbits
  18              		.align	1
  19              		.p2align 4,,15
  20              		.syntax unified
  21              		.thumb
  22              		.thumb_func
  23              		.fpu fpv4-sp-d16
  24              		.type	flash_integrity_check_thread, %function
  25              	flash_integrity_check_thread:
  26              	.LFB269:
  27              		.file 1 "main.c"
  28              		.loc 1 83 0
  29              		.cfi_startproc
  30              		@ Volatile: function does not return.
  31              		@ args = 0, pretend = 0, frame = 0
  32              		@ frame_needed = 0, uses_anonymous_args = 0
  33              	.LVL0:
  34 0000 08B5     		push	{r3, lr}
  35              		.cfi_def_cfa_offset 8
  36              		.cfi_offset 3, -8
  37              		.cfi_offset 14, -4
  38              	.LBB34:
  39              	.LBB35:
  40              		.file 2 "ChibiOS_3.0.2/os/rt/include/chregistry.h"
  41              		.loc 2 135 0
  42 0002 0F4B     		ldr	r3, .L7
  43 0004 0F4A     		ldr	r2, .L7+4
  44 0006 9B69     		ldr	r3, [r3, #24]
  45              	.LBE35:
  46              	.LBE34:
  47              		.loc 1 87 0
  48 0008 0121     		movs	r1, #1
  49              	.LBB37:
  50              	.LBB36:
  51              		.loc 2 135 0
  52 000a 9A61     		str	r2, [r3, #24]
  53              	.LVL1:
  54              	.LBE36:
  55              	.LBE37:
  56              		.loc 1 87 0
  57 000c 4FF48050 		mov	r0, #4096
ARM GAS  /tmp/ccHCxrbr.s 			page 2


  58              	.LVL2:
  59 0010 FFF7FEFF 		bl	RCC_AHB1PeriphClockCmd
  60              	.LVL3:
  61 0014 01E0     		b	.L4
  62              	.L2:
  63              		.loc 1 94 0
  64 0016 FFF7FEFF 		bl	chThdSleep
  65              	.LVL4:
  66              	.L4:
  67              		.loc 1 90 0
  68 001a FFF7FEFF 		bl	flash_helper_verify_flash_memory_chunk
  69              	.LVL5:
  70 001e 0E28     		cmp	r0, #14
  71              		.loc 1 94 0
  72 0020 4FF03C00 		mov	r0, #60
  73              		.loc 1 90 0
  74 0024 F7D1     		bne	.L2
  75              	.LBB38:
  76              	.LBB39:
  77              	.LBB40:
  78              	.LBB41:
  79              		.file 3 "ChibiOS_3.0.2/os/ext/CMSIS/include/core_cmInstr.h"
  80              		.loc 3 382 0
  81              		.syntax unified
  82              	@ 382 "ChibiOS_3.0.2/os/ext/CMSIS/include/core_cmInstr.h" 1
  83 0026 BFF34F8F 		dsb
  84              	@ 0 "" 2
  85              		.thumb
  86              		.syntax unified
  87              	.LBE41:
  88              	.LBE40:
  89              		.file 4 "ChibiOS_3.0.2/os/ext/CMSIS/include/core_cm4.h"
  90              		.loc 4 1643 0
  91 002a 0749     		ldr	r1, .L7+8
  92 002c 074B     		ldr	r3, .L7+12
  93 002e CA68     		ldr	r2, [r1, #12]
  94 0030 02F4E062 		and	r2, r2, #1792
  95 0034 1343     		orrs	r3, r3, r2
  96              		.loc 4 1642 0
  97 0036 CB60     		str	r3, [r1, #12]
  98              	.LBB42:
  99              	.LBB43:
 100              		.loc 3 382 0
 101              		.syntax unified
 102              	@ 382 "ChibiOS_3.0.2/os/ext/CMSIS/include/core_cmInstr.h" 1
 103 0038 BFF34F8F 		dsb
 104              	@ 0 "" 2
 105              		.thumb
 106              		.syntax unified
 107              	.L3:
 108 003c FEE7     		b	.L3
 109              	.L8:
 110 003e 00BF     		.align	2
 111              	.L7:
 112 0040 00000000 		.word	ch
 113 0044 00000000 		.word	.LC0
 114 0048 00ED00E0 		.word	-536810240
ARM GAS  /tmp/ccHCxrbr.s 			page 3


 115 004c 0400FA05 		.word	100270084
 116              	.LBE43:
 117              	.LBE42:
 118              	.LBE39:
 119              	.LBE38:
 120              		.cfi_endproc
 121              	.LFE269:
 122              		.size	flash_integrity_check_thread, .-flash_integrity_check_thread
 123              		.section	.text.timer_thread,"ax",%progbits
 124              		.align	1
 125              		.p2align 4,,15
 126              		.syntax unified
 127              		.thumb
 128              		.thumb_func
 129              		.fpu fpv4-sp-d16
 130              		.type	timer_thread, %function
 131              	timer_thread:
 132              	.LFB271:
 133              		.loc 1 166 0
 134              		.cfi_startproc
 135              		@ Volatile: function does not return.
 136              		@ args = 0, pretend = 0, frame = 0
 137              		@ frame_needed = 0, uses_anonymous_args = 0
 138              	.LVL6:
 139 0000 08B5     		push	{r3, lr}
 140              		.cfi_def_cfa_offset 8
 141              		.cfi_offset 3, -8
 142              		.cfi_offset 14, -4
 143              	.LBB44:
 144              	.LBB45:
 145              		.loc 2 135 0
 146 0002 064B     		ldr	r3, .L12
 147 0004 064A     		ldr	r2, .L12+4
 148 0006 9B69     		ldr	r3, [r3, #24]
 149 0008 9A61     		str	r2, [r3, #24]
 150              	.LVL7:
 151              	.L10:
 152              	.LBE45:
 153              	.LBE44:
 154              		.loc 1 172 0 discriminator 1
 155 000a FFF7FEFF 		bl	packet_timerfunc
 156              	.LVL8:
 157              		.loc 1 173 0 discriminator 1
 158 000e 0220     		movs	r0, #2
 159 0010 FFF7FEFF 		bl	timeout_feed_WDT
 160              	.LVL9:
 161              		.loc 1 174 0 discriminator 1
 162 0014 0A20     		movs	r0, #10
 163 0016 FFF7FEFF 		bl	chThdSleep
 164              	.LVL10:
 165 001a F6E7     		b	.L10
 166              	.L13:
 167              		.align	2
 168              	.L12:
 169 001c 00000000 		.word	ch
 170 0020 00000000 		.word	.LC1
 171              		.cfi_endproc
ARM GAS  /tmp/ccHCxrbr.s 			page 4


 172              	.LFE271:
 173              		.size	timer_thread, .-timer_thread
 174              		.section	.text.periodic_thread,"ax",%progbits
 175              		.align	1
 176              		.p2align 4,,15
 177              		.syntax unified
 178              		.thumb
 179              		.thumb_func
 180              		.fpu fpv4-sp-d16
 181              		.type	periodic_thread, %function
 182              	periodic_thread:
 183              	.LFB270:
 184              		.loc 1 98 0
 185              		.cfi_startproc
 186              		@ args = 0, pretend = 0, frame = 0
 187              		@ frame_needed = 0, uses_anonymous_args = 0
 188              	.LVL11:
 189 0000 38B5     		push	{r3, r4, r5, lr}
 190              		.cfi_def_cfa_offset 16
 191              		.cfi_offset 3, -16
 192              		.cfi_offset 4, -12
 193              		.cfi_offset 5, -8
 194              		.cfi_offset 14, -4
 195              	.LBB46:
 196              	.LBB47:
 197              		.loc 2 135 0
 198 0002 474B     		ldr	r3, .L38
 199 0004 474A     		ldr	r2, .L38+4
 200 0006 9B69     		ldr	r3, [r3, #24]
 201              	.LBE47:
 202              	.LBE46:
 203              		.loc 1 98 0
 204 0008 2DED048B 		vpush.64	{d8, d9}
 205              		.cfi_def_cfa_offset 32
 206              		.cfi_offset 80, -32
 207              		.cfi_offset 81, -28
 208              		.cfi_offset 82, -24
 209              		.cfi_offset 83, -20
 210              	.LBB49:
 211              		.loc 1 107 0
 212 000c DFED468A 		vldr.32	s17, .L38+8
 213              	.LBB50:
 214              		.loc 1 115 0
 215 0010 9FED468A 		vldr.32	s16, .L38+12
 216              	.LBE50:
 217              	.LBE49:
 218              	.LBB52:
 219              	.LBB48:
 220              		.loc 2 135 0
 221 0014 9A61     		str	r2, [r3, #24]
 222 0016 2BE0     		b	.L28
 223              	.LVL12:
 224              	.L33:
 225              	.LBE48:
 226              	.LBE52:
 227              	.LBB53:
 228              		.loc 1 121 0
ARM GAS  /tmp/ccHCxrbr.s 			page 5


 229 0018 B0EE480A 		vmov.f32	s0, s16
 230 001c 0120     		movs	r0, #1
 231              	.LVL13:
 232 001e FFF7FEFF 		bl	ledpwm_set_intensity
 233              	.LVL14:
 234              		.loc 1 124 0
 235 0022 FFF7FEFF 		bl	mc_interface_get_state
 236              	.LVL15:
 237 0026 0128     		cmp	r0, #1
 238 0028 50D0     		beq	.L35
 239              	.L19:
 240              		.loc 1 128 0
 241 002a FFF7FEFF 		bl	commands_get_disp_pos_mode
 242              	.LVL16:
 243              		.loc 1 130 0
 244 002e 0428     		cmp	r0, #4
 245              		.loc 1 128 0
 246 0030 0446     		mov	r4, r0
 247              	.LVL17:
 248              		.loc 1 130 0
 249 0032 54D0     		beq	.L21
 250              	.L37:
 251 0034 0528     		cmp	r0, #5
 252 0036 5FD0     		beq	.L22
 253 0038 0328     		cmp	r0, #3
 254 003a 55D0     		beq	.L36
 255              		.loc 1 147 0
 256 003c FFF7FEFF 		bl	mc_interface_get_configuration
 257              	.LVL18:
 258 0040 8378     		ldrb	r3, [r0, #2]	@ zero_extendqisi2
 259 0042 022B     		cmp	r3, #2
 260 0044 11D1     		bne	.L25
 261              		.loc 1 148 0
 262 0046 022C     		cmp	r4, #2
 263 0048 65D0     		beq	.L26
 264 004a 062C     		cmp	r4, #6
 265 004c 0DD1     		bne	.L25
 266              		.loc 1 154 0
 267 004e FFF7FEFF 		bl	mcpwm_foc_get_phase_observer
 268              	.LVL19:
 269 0052 B0EE409A 		vmov.f32	s18, s0
 270 0056 FFF7FEFF 		bl	mcpwm_foc_get_phase_encoder
 271              	.LVL20:
 272 005a F0EE400A 		vmov.f32	s1, s0
 273 005e B0EE490A 		vmov.f32	s0, s18
 274 0062 FFF7FEFF 		bl	utils_angle_difference
 275              	.LVL21:
 276 0066 FFF7FEFF 		bl	commands_send_rotor_pos
 277              	.LVL22:
 278              	.L25:
 279              		.loc 1 162 0
 280 006a 6420     		movs	r0, #100
 281 006c FFF7FEFF 		bl	chThdSleep
 282              	.LVL23:
 283              	.L28:
 284              		.loc 1 104 0
 285 0070 FFF7FEFF 		bl	mc_interface_get_state
ARM GAS  /tmp/ccHCxrbr.s 			page 6


 286              	.LVL24:
 287 0074 0228     		cmp	r0, #2
 288              		.loc 1 105 0
 289 0076 0CBF     		ite	eq
 290 0078 B7EE000A 		vmoveq.f32	s0, #1.0e+0
 291              		.loc 1 107 0
 292 007c B0EE680A 		vmovne.f32	s0, s17
 293 0080 0020     		movs	r0, #0
 294 0082 FFF7FEFF 		bl	ledpwm_set_intensity
 295              	.LVL25:
 296              		.loc 1 110 0
 297 0086 FFF7FEFF 		bl	mc_interface_get_fault
 298              	.LVL26:
 299              		.loc 1 111 0
 300 008a 0546     		mov	r5, r0
 301 008c 0028     		cmp	r0, #0
 302 008e C3D0     		beq	.L33
 303              	.LVL27:
 304              	.LBB51:
 305              		.loc 1 112 0
 306 0090 0024     		movs	r4, #0
 307              	.LVL28:
 308              	.L17:
 309              		.loc 1 113 0 discriminator 3
 310 0092 B7EE000A 		vmov.f32	s0, #1.0e+0
 311 0096 0120     		movs	r0, #1
 312 0098 FFF7FEFF 		bl	ledpwm_set_intensity
 313              	.LVL29:
 314              		.loc 1 114 0 discriminator 3
 315 009c 40F6C410 		movw	r0, #2500
 316 00a0 FFF7FEFF 		bl	chThdSleep
 317              	.LVL30:
 318              		.loc 1 115 0 discriminator 3
 319 00a4 0120     		movs	r0, #1
 320 00a6 B0EE480A 		vmov.f32	s0, s16
 321              		.loc 1 112 0 discriminator 3
 322 00aa 0444     		add	r4, r4, r0
 323              	.LVL31:
 324              		.loc 1 115 0 discriminator 3
 325 00ac FFF7FEFF 		bl	ledpwm_set_intensity
 326              	.LVL32:
 327              		.loc 1 116 0 discriminator 3
 328 00b0 40F6C410 		movw	r0, #2500
 329 00b4 FFF7FEFF 		bl	chThdSleep
 330              	.LVL33:
 331              		.loc 1 112 0 discriminator 3
 332 00b8 AC42     		cmp	r4, r5
 333 00ba EAD1     		bne	.L17
 334              	.LBE51:
 335              		.loc 1 119 0
 336 00bc 41F28830 		movw	r0, #5000
 337 00c0 FFF7FEFF 		bl	chThdSleep
 338              	.LVL34:
 339              		.loc 1 124 0
 340 00c4 FFF7FEFF 		bl	mc_interface_get_state
 341              	.LVL35:
 342 00c8 0128     		cmp	r0, #1
ARM GAS  /tmp/ccHCxrbr.s 			page 7


 343 00ca AED1     		bne	.L19
 344              	.LVL36:
 345              	.L35:
 346              		.loc 1 125 0
 347 00cc FFF7FEFF 		bl	mcpwm_get_detect_pos
 348              	.LVL37:
 349 00d0 FFF7FEFF 		bl	commands_send_rotor_pos
 350              	.LVL38:
 351              		.loc 1 128 0
 352 00d4 FFF7FEFF 		bl	commands_get_disp_pos_mode
 353              	.LVL39:
 354              		.loc 1 130 0
 355 00d8 0428     		cmp	r0, #4
 356              		.loc 1 128 0
 357 00da 0446     		mov	r4, r0
 358              	.LVL40:
 359              		.loc 1 130 0
 360 00dc AAD1     		bne	.L37
 361              	.L21:
 362              		.loc 1 136 0
 363 00de FFF7FEFF 		bl	mc_interface_get_pid_pos_now
 364              	.LVL41:
 365 00e2 FFF7FEFF 		bl	commands_send_rotor_pos
 366              	.LVL42:
 367              		.loc 1 137 0
 368 00e6 03E0     		b	.L24
 369              	.LVL43:
 370              	.L36:
 371              		.loc 1 132 0
 372 00e8 FFF7FEFF 		bl	encoder_read_deg
 373              	.LVL44:
 374 00ec FFF7FEFF 		bl	commands_send_rotor_pos
 375              	.LVL45:
 376              	.L24:
 377              		.loc 1 147 0
 378 00f0 FFF7FEFF 		bl	mc_interface_get_configuration
 379              	.LVL46:
 380 00f4 8378     		ldrb	r3, [r0, #2]	@ zero_extendqisi2
 381 00f6 B8E7     		b	.L25
 382              	.LVL47:
 383              	.L22:
 384              		.loc 1 140 0
 385 00f8 FFF7FEFF 		bl	mc_interface_get_pid_pos_set
 386              	.LVL48:
 387 00fc B0EE409A 		vmov.f32	s18, s0
 388 0100 FFF7FEFF 		bl	mc_interface_get_pid_pos_now
 389              	.LVL49:
 390 0104 F0EE400A 		vmov.f32	s1, s0
 391 0108 B0EE490A 		vmov.f32	s0, s18
 392 010c FFF7FEFF 		bl	utils_angle_difference
 393              	.LVL50:
 394 0110 FFF7FEFF 		bl	commands_send_rotor_pos
 395              	.LVL51:
 396              		.loc 1 141 0
 397 0114 ECE7     		b	.L24
 398              	.L26:
 399              		.loc 1 150 0
ARM GAS  /tmp/ccHCxrbr.s 			page 8


 400 0116 FFF7FEFF 		bl	mcpwm_foc_get_phase_observer
 401              	.LVL52:
 402 011a FFF7FEFF 		bl	commands_send_rotor_pos
 403              	.LVL53:
 404              		.loc 1 151 0
 405 011e A4E7     		b	.L25
 406              	.L39:
 407              		.align	2
 408              	.L38:
 409 0120 00000000 		.word	ch
 410 0124 00000000 		.word	.LC2
 411 0128 CDCC4C3E 		.word	1045220557
 412 012c 00000000 		.word	0
 413              	.LBE53:
 414              		.cfi_endproc
 415              	.LFE270:
 416              		.size	periodic_thread, .-periodic_thread
 417              		.section	.text.crchil,"ax",%progbits
 418              		.align	1
 419              		.p2align 4,,15
 420              		.global	crchil
 421              		.syntax unified
 422              		.thumb
 423              		.thumb_func
 424              		.fpu fpv4-sp-d16
 425              		.type	crchil, %function
 426              	crchil:
 427              	.LFB259:
 428              		.file 5 "spi_hil.c"
 429              		.loc 5 3 0
 430              		.cfi_startproc
 431              		@ args = 0, pretend = 0, frame = 0
 432              		@ frame_needed = 0, uses_anonymous_args = 0
 433              		@ link register save eliminated.
 434              	.LVL54:
 435              	.LBB54:
 436              		.loc 5 5 0
 437 0000 B9B1     		cbz	r1, .L45
 438              	.LBE54:
 439              		.loc 5 3 0
 440 0002 30B4     		push	{r4, r5}
 441              		.cfi_def_cfa_offset 8
 442              		.cfi_offset 4, -8
 443              		.cfi_offset 5, -4
 444 0004 451E     		subs	r5, r0, #1
 445              	.LBB57:
 446              	.LBB55:
 447              		.loc 5 9 0
 448 0006 0C4C     		ldr	r4, .L55
 449 0008 2944     		add	r1, r1, r5
 450              	.LVL55:
 451              	.LBE55:
 452              	.LBE57:
 453              		.loc 5 4 0
 454 000a 4FF0FF30 		mov	r0, #-1
 455              	.LVL56:
 456              	.L44:
ARM GAS  /tmp/ccHCxrbr.s 			page 9


 457              	.LBB58:
 458              		.loc 5 6 0
 459 000e 15F8012F 		ldrb	r2, [r5, #1]!	@ zero_extendqisi2
 460              	.LVL57:
 461 0012 0823     		movs	r3, #8
 462 0014 5040     		eors	r0, r0, r2
 463              	.LVL58:
 464              	.L43:
 465              	.LBB56:
 466              		.loc 5 8 0
 467 0016 00F00102 		and	r2, r0, #1
 468 001a 013B     		subs	r3, r3, #1
 469              	.LVL59:
 470 001c 4008     		lsrs	r0, r0, #1
 471              	.LVL60:
 472 001e 02B1     		cbz	r2, .L42
 473              		.loc 5 9 0
 474 0020 6040     		eors	r0, r0, r4
 475              	.LVL61:
 476              	.L42:
 477              		.loc 5 7 0 discriminator 2
 478 0022 13F0FF03 		ands	r3, r3, #255
 479 0026 F6D1     		bne	.L43
 480              	.LVL62:
 481              	.LBE56:
 482              		.loc 5 5 0 discriminator 2
 483 0028 8D42     		cmp	r5, r1
 484 002a F0D1     		bne	.L44
 485 002c C043     		mvns	r0, r0
 486              	.LVL63:
 487              	.LBE58:
 488              		.loc 5 15 0
 489 002e 30BC     		pop	{r4, r5}
 490              		.cfi_restore 5
 491              		.cfi_restore 4
 492              		.cfi_def_cfa_offset 0
 493              	.LVL64:
 494 0030 7047     		bx	lr
 495              	.LVL65:
 496              	.L45:
 497              	.LBB59:
 498              		.loc 5 5 0
 499 0032 0846     		mov	r0, r1
 500              	.LVL66:
 501              	.LBE59:
 502              		.loc 5 15 0
 503 0034 7047     		bx	lr
 504              	.L56:
 505 0036 00BF     		.align	2
 506              	.L55:
 507 0038 2083B8ED 		.word	-306674912
 508              		.cfi_endproc
 509              	.LFE259:
 510              		.size	crchil, .-crchil
 511              		.section	.text.arraybau,"ax",%progbits
 512              		.align	1
 513              		.p2align 4,,15
ARM GAS  /tmp/ccHCxrbr.s 			page 10


 514              		.global	arraybau
 515              		.syntax unified
 516              		.thumb
 517              		.thumb_func
 518              		.fpu fpv4-sp-d16
 519              		.type	arraybau, %function
 520              	arraybau:
 521              	.LFB260:
 522              		.loc 5 18 0
 523              		.cfi_startproc
 524              		@ args = 0, pretend = 0, frame = 0
 525              		@ frame_needed = 0, uses_anonymous_args = 0
 526 0000 F8B5     		push	{r3, r4, r5, r6, r7, lr}
 527              		.cfi_def_cfa_offset 24
 528              		.cfi_offset 3, -24
 529              		.cfi_offset 4, -20
 530              		.cfi_offset 5, -16
 531              		.cfi_offset 6, -12
 532              		.cfi_offset 7, -8
 533              		.cfi_offset 14, -4
 534 0002 2DED028B 		vpush.64	{d8}
 535              		.cfi_def_cfa_offset 32
 536              		.cfi_offset 80, -32
 537              		.cfi_offset 81, -28
 538              		.loc 5 19 0
 539 0006 FFF7FEFF 		bl	mcpwm_foc_get_rpm
 540              	.LVL67:
 541 000a B0EE408A 		vmov.f32	s16, s0
 542              	.LVL68:
 543              		.loc 5 20 0
 544 000e FFF7FEFF 		bl	mcpwm_foc_get_tot_current_filtered
 545              	.LVL69:
 546              		.loc 5 22 0
 547 0012 DFED1F7A 		vldr.32	s15, .L67
 548              		.loc 5 25 0
 549 0016 1F4C     		ldr	r4, .L67+4
 550              	.LBB60:
 551              	.LBB61:
 552              	.LBB62:
 553              	.LBB63:
 554              		.loc 5 9 0
 555 0018 1F48     		ldr	r0, .L67+8
 556              	.LBE63:
 557              	.LBE62:
 558              	.LBE61:
 559              	.LBE60:
 560              		.loc 5 22 0
 561 001a 28EE277A 		vmul.f32	s14, s16, s15
 562              		.loc 5 23 0
 563 001e 60EE277A 		vmul.f32	s15, s0, s15
 564              		.loc 5 22 0
 565 0022 BDEEC77A 		vcvt.s32.f32	s14, s14
 566              		.loc 5 23 0
 567 0026 FDEEE77A 		vcvt.s32.f32	s15, s15
 568              		.loc 5 22 0
 569 002a 17EE101A 		vmov	r1, s14	@ int
 570              		.loc 5 23 0
ARM GAS  /tmp/ccHCxrbr.s 			page 11


 571 002e 17EE903A 		vmov	r3, s15	@ int
 572              		.loc 5 22 0
 573 0032 01F5F411 		add	r1, r1, #1998848
 574 0036 01F59061 		add	r1, r1, #1152
 575              	.LVL70:
 576              		.loc 5 23 0
 577 003a 03F5F412 		add	r2, r3, #1998848
 578 003e 02F59062 		add	r2, r2, #1152
 579              	.LVL71:
 580              		.loc 5 26 0
 581 0042 0D0C     		lsrs	r5, r1, #16
 582              		.loc 5 27 0
 583 0044 0E0A     		lsrs	r6, r1, #8
 584              		.loc 5 25 0
 585 0046 0B0E     		lsrs	r3, r1, #24
 586              		.loc 5 31 0
 587 0048 170E     		lsrs	r7, r2, #24
 588              		.loc 5 28 0
 589 004a E170     		strb	r1, [r4, #3]
 590              		.loc 5 26 0
 591 004c 6570     		strb	r5, [r4, #1]
 592              		.loc 5 33 0
 593 004e 110A     		lsrs	r1, r2, #8
 594              	.LVL72:
 595              		.loc 5 32 0
 596 0050 150C     		lsrs	r5, r2, #16
 597              		.loc 5 27 0
 598 0052 A670     		strb	r6, [r4, #2]
 599              		.loc 5 34 0
 600 0054 E271     		strb	r2, [r4, #7]
 601              	.LVL73:
 602              		.loc 5 32 0
 603 0056 6571     		strb	r5, [r4, #5]
 604              		.loc 5 25 0
 605 0058 2370     		strb	r3, [r4]
 606 005a 2646     		mov	r6, r4
 607              		.loc 5 31 0
 608 005c 2771     		strb	r7, [r4, #4]
 609              		.loc 5 33 0
 610 005e A171     		strb	r1, [r4, #6]
 611 0060 E51D     		adds	r5, r4, #7
 612              	.LBB67:
 613              	.LBB66:
 614              		.loc 5 4 0
 615 0062 4FF0FF32 		mov	r2, #-1
 616              	.LVL74:
 617              	.L61:
 618              	.LBB65:
 619              		.loc 5 6 0
 620 0066 5A40     		eors	r2, r2, r3
 621              	.LVL75:
 622 0068 0823     		movs	r3, #8
 623              	.LVL76:
 624              	.L59:
 625              	.LBB64:
 626              		.loc 5 8 0
 627 006a 02F00101 		and	r1, r2, #1
ARM GAS  /tmp/ccHCxrbr.s 			page 12


 628 006e 013B     		subs	r3, r3, #1
 629              	.LVL77:
 630 0070 5208     		lsrs	r2, r2, #1
 631              	.LVL78:
 632 0072 01B1     		cbz	r1, .L58
 633              		.loc 5 9 0
 634 0074 4240     		eors	r2, r2, r0
 635              	.LVL79:
 636              	.L58:
 637              		.loc 5 7 0
 638 0076 13F0FF03 		ands	r3, r3, #255
 639 007a F6D1     		bne	.L59
 640              	.LVL80:
 641              	.LBE64:
 642              		.loc 5 5 0
 643 007c A542     		cmp	r5, r4
 644 007e 02D0     		beq	.L60
 645 0080 14F8013F 		ldrb	r3, [r4, #1]!	@ zero_extendqisi2
 646              	.LVL81:
 647 0084 EFE7     		b	.L61
 648              	.LVL82:
 649              	.L60:
 650              	.LBE65:
 651              		.loc 5 14 0
 652 0086 D243     		mvns	r2, r2
 653              	.LBE66:
 654              	.LBE67:
 655              		.loc 5 36 0
 656 0088 3272     		strb	r2, [r6, #8]
 657              		.loc 5 37 0
 658 008a BDEC028B 		vldm	sp!, {d8}
 659              		.cfi_restore 80
 660              		.cfi_restore 81
 661              		.cfi_def_cfa_offset 24
 662              	.LVL83:
 663 008e F8BD     		pop	{r3, r4, r5, r6, r7, pc}
 664              	.L68:
 665              		.align	2
 666              	.L67:
 667 0090 00007A44 		.word	1148846080
 668 0094 00000000 		.word	.LANCHOR0
 669 0098 2083B8ED 		.word	-306674912
 670              		.cfi_endproc
 671              	.LFE260:
 672              		.size	arraybau, .-arraybau
 673              		.section	.text.SPI_Config,"ax",%progbits
 674              		.align	1
 675              		.p2align 4,,15
 676              		.global	SPI_Config
 677              		.syntax unified
 678              		.thumb
 679              		.thumb_func
 680              		.fpu fpv4-sp-d16
 681              		.type	SPI_Config, %function
 682              	SPI_Config:
 683              	.LFB261:
 684              		.loc 5 40 0
ARM GAS  /tmp/ccHCxrbr.s 			page 13


 685              		.cfi_startproc
 686              		@ args = 0, pretend = 0, frame = 0
 687              		@ frame_needed = 0, uses_anonymous_args = 0
 688              		@ link register save eliminated.
 689              		.loc 5 41 0
 690 0000 1249     		ldr	r1, .L70
 691              		.loc 5 43 0
 692 0002 134B     		ldr	r3, .L70+4
 693              		.loc 5 41 0
 694 0004 4A6C     		ldr	r2, [r1, #68]
 695 0006 42F48052 		orr	r2, r2, #4096
 696 000a 4A64     		str	r2, [r1, #68]
 697              		.loc 5 43 0
 698 000c 1A68     		ldr	r2, [r3]
 699 000e 42F00302 		orr	r2, r2, #3
 700 0012 1A60     		str	r2, [r3]
 701              		.loc 5 45 0
 702 0014 1A68     		ldr	r2, [r3]
 703 0016 42F00402 		orr	r2, r2, #4
 704 001a 1A60     		str	r2, [r3]
 705              		.loc 5 47 0
 706 001c 1A68     		ldr	r2, [r3]
 707 001e 42F03802 		orr	r2, r2, #56
 708 0022 1A60     		str	r2, [r3]
 709              		.loc 5 49 0
 710 0024 1A68     		ldr	r2, [r3]
 711 0026 22F08002 		bic	r2, r2, #128
 712 002a 1A60     		str	r2, [r3]
 713              		.loc 5 51 0
 714 002c 1A68     		ldr	r2, [r3]
 715 002e 42F44072 		orr	r2, r2, #768
 716 0032 1A60     		str	r2, [r3]
 717              		.loc 5 53 0
 718 0034 1A68     		ldr	r2, [r3]
 719 0036 22F48062 		bic	r2, r2, #1024
 720 003a 1A60     		str	r2, [r3]
 721              		.loc 5 55 0
 722 003c 1A68     		ldr	r2, [r3]
 723              		.loc 5 57 0
 724 003e 0021     		movs	r1, #0
 725              		.loc 5 55 0
 726 0040 22F40062 		bic	r2, r2, #2048
 727 0044 1A60     		str	r2, [r3]
 728              		.loc 5 57 0
 729 0046 5960     		str	r1, [r3, #4]
 730              		.loc 5 58 0
 731 0048 7047     		bx	lr
 732              	.L71:
 733 004a 00BF     		.align	2
 734              	.L70:
 735 004c 00380240 		.word	1073887232
 736 0050 00300140 		.word	1073819648
 737              		.cfi_endproc
 738              	.LFE261:
 739              		.size	SPI_Config, .-SPI_Config
 740              		.section	.text.GPIOConfig,"ax",%progbits
 741              		.align	1
ARM GAS  /tmp/ccHCxrbr.s 			page 14


 742              		.p2align 4,,15
 743              		.global	GPIOConfig
 744              		.syntax unified
 745              		.thumb
 746              		.thumb_func
 747              		.fpu fpv4-sp-d16
 748              		.type	GPIOConfig, %function
 749              	GPIOConfig:
 750              	.LFB262:
 751              		.loc 5 61 0
 752              		.cfi_startproc
 753              		@ args = 0, pretend = 0, frame = 0
 754              		@ frame_needed = 0, uses_anonymous_args = 0
 755              		@ link register save eliminated.
 756              		.loc 5 62 0
 757 0000 0A49     		ldr	r1, .L73
 758              		.loc 5 64 0
 759 0002 0B4B     		ldr	r3, .L73+4
 760              		.loc 5 62 0
 761 0004 0A6B     		ldr	r2, [r1, #48]
 762 0006 42F00102 		orr	r2, r2, #1
 763 000a 0A63     		str	r2, [r1, #48]
 764              		.loc 5 64 0
 765 000c 1A68     		ldr	r2, [r3]
 766 000e 42F42942 		orr	r2, r2, #43264
 767 0012 1A60     		str	r2, [r3]
 768              		.loc 5 66 0
 769 0014 9A68     		ldr	r2, [r3, #8]
 770 0016 42F47F42 		orr	r2, r2, #65280
 771 001a 9A60     		str	r2, [r3, #8]
 772              		.loc 5 68 0
 773 001c 1A6A     		ldr	r2, [r3, #32]
 774 001e 42F0AA42 		orr	r2, r2, #1426063360
 775 0022 42F4A002 		orr	r2, r2, #5242880
 776 0026 1A62     		str	r2, [r3, #32]
 777              		.loc 5 69 0
 778 0028 7047     		bx	lr
 779              	.L74:
 780 002a 00BF     		.align	2
 781              	.L73:
 782 002c 00380240 		.word	1073887232
 783 0030 00000240 		.word	1073872896
 784              		.cfi_endproc
 785              	.LFE262:
 786              		.size	GPIOConfig, .-GPIOConfig
 787              		.section	.text.SPI_Enable,"ax",%progbits
 788              		.align	1
 789              		.p2align 4,,15
 790              		.global	SPI_Enable
 791              		.syntax unified
 792              		.thumb
 793              		.thumb_func
 794              		.fpu fpv4-sp-d16
 795              		.type	SPI_Enable, %function
 796              	SPI_Enable:
 797              	.LFB263:
 798              		.loc 5 72 0
ARM GAS  /tmp/ccHCxrbr.s 			page 15


 799              		.cfi_startproc
 800              		@ args = 0, pretend = 0, frame = 0
 801              		@ frame_needed = 0, uses_anonymous_args = 0
 802              		@ link register save eliminated.
 803              		.loc 5 73 0
 804 0000 024A     		ldr	r2, .L76
 805 0002 1368     		ldr	r3, [r2]
 806 0004 43F04003 		orr	r3, r3, #64
 807 0008 1360     		str	r3, [r2]
 808              		.loc 5 74 0
 809 000a 7047     		bx	lr
 810              	.L77:
 811              		.align	2
 812              	.L76:
 813 000c 00300140 		.word	1073819648
 814              		.cfi_endproc
 815              	.LFE263:
 816              		.size	SPI_Enable, .-SPI_Enable
 817              		.section	.text.SPI_Disable,"ax",%progbits
 818              		.align	1
 819              		.p2align 4,,15
 820              		.global	SPI_Disable
 821              		.syntax unified
 822              		.thumb
 823              		.thumb_func
 824              		.fpu fpv4-sp-d16
 825              		.type	SPI_Disable, %function
 826              	SPI_Disable:
 827              	.LFB264:
 828              		.loc 5 77 0
 829              		.cfi_startproc
 830              		@ args = 0, pretend = 0, frame = 0
 831              		@ frame_needed = 0, uses_anonymous_args = 0
 832              		@ link register save eliminated.
 833              		.loc 5 78 0
 834 0000 024A     		ldr	r2, .L79
 835 0002 1368     		ldr	r3, [r2]
 836 0004 23F04003 		bic	r3, r3, #64
 837 0008 1360     		str	r3, [r2]
 838              		.loc 5 79 0
 839 000a 7047     		bx	lr
 840              	.L80:
 841              		.align	2
 842              	.L79:
 843 000c 00300140 		.word	1073819648
 844              		.cfi_endproc
 845              	.LFE264:
 846              		.size	SPI_Disable, .-SPI_Disable
 847              		.section	.text.CS_Enable,"ax",%progbits
 848              		.align	1
 849              		.p2align 4,,15
 850              		.global	CS_Enable
 851              		.syntax unified
 852              		.thumb
 853              		.thumb_func
 854              		.fpu fpv4-sp-d16
 855              		.type	CS_Enable, %function
ARM GAS  /tmp/ccHCxrbr.s 			page 16


 856              	CS_Enable:
 857              	.LFB265:
 858              		.loc 5 82 0
 859              		.cfi_startproc
 860              		@ args = 0, pretend = 0, frame = 0
 861              		@ frame_needed = 0, uses_anonymous_args = 0
 862              		@ link register save eliminated.
 863              		.loc 5 84 0
 864 0000 014B     		ldr	r3, .L82
 865 0002 1022     		movs	r2, #16
 866 0004 5A83     		strh	r2, [r3, #26]	@ movhi
 867              		.loc 5 85 0
 868 0006 7047     		bx	lr
 869              	.L83:
 870              		.align	2
 871              	.L82:
 872 0008 00000240 		.word	1073872896
 873              		.cfi_endproc
 874              	.LFE265:
 875              		.size	CS_Enable, .-CS_Enable
 876              		.section	.text.CS_Disable,"ax",%progbits
 877              		.align	1
 878              		.p2align 4,,15
 879              		.global	CS_Disable
 880              		.syntax unified
 881              		.thumb
 882              		.thumb_func
 883              		.fpu fpv4-sp-d16
 884              		.type	CS_Disable, %function
 885              	CS_Disable:
 886              	.LFB266:
 887              		.loc 5 88 0
 888              		.cfi_startproc
 889              		@ args = 0, pretend = 0, frame = 0
 890              		@ frame_needed = 0, uses_anonymous_args = 0
 891              		@ link register save eliminated.
 892              		.loc 5 89 0
 893 0000 014B     		ldr	r3, .L85
 894 0002 1022     		movs	r2, #16
 895 0004 1A83     		strh	r2, [r3, #24]	@ movhi
 896              		.loc 5 90 0
 897 0006 7047     		bx	lr
 898              	.L86:
 899              		.align	2
 900              	.L85:
 901 0008 00000240 		.word	1073872896
 902              		.cfi_endproc
 903              	.LFE266:
 904              		.size	CS_Disable, .-CS_Disable
 905              		.section	.text.SPI_Transmit,"ax",%progbits
 906              		.align	1
 907              		.p2align 4,,15
 908              		.global	SPI_Transmit
 909              		.syntax unified
 910              		.thumb
 911              		.thumb_func
 912              		.fpu fpv4-sp-d16
ARM GAS  /tmp/ccHCxrbr.s 			page 17


 913              		.type	SPI_Transmit, %function
 914              	SPI_Transmit:
 915              	.LFB267:
 916              		.loc 5 93 0
 917              		.cfi_startproc
 918              		@ args = 0, pretend = 0, frame = 8
 919              		@ frame_needed = 0, uses_anonymous_args = 0
 920              		@ link register save eliminated.
 921              	.LVL84:
 922              		.loc 5 103 0
 923 0000 0029     		cmp	r1, #0
 924              		.loc 5 93 0
 925 0002 82B0     		sub	sp, sp, #8
 926              		.cfi_def_cfa_offset 8
 927              		.loc 5 103 0
 928 0004 0ADD     		ble	.L88
 929 0006 0138     		subs	r0, r0, #1
 930              	.LVL85:
 931              		.loc 5 105 0
 932 0008 0D4A     		ldr	r2, .L100
 933 000a 0144     		add	r1, r1, r0
 934              	.LVL86:
 935              	.L89:
 936              		.loc 5 105 0 is_stmt 0 discriminator 1
 937 000c 9368     		ldr	r3, [r2, #8]
 938 000e 9B07     		lsls	r3, r3, #30
 939 0010 FCD5     		bpl	.L89
 940              		.loc 5 106 0 is_stmt 1
 941 0012 10F8013F 		ldrb	r3, [r0, #1]!	@ zero_extendqisi2
 942 0016 D360     		str	r3, [r2, #12]
 943              	.LVL87:
 944              		.loc 5 103 0
 945 0018 8842     		cmp	r0, r1
 946 001a F7D1     		bne	.L89
 947              	.LVL88:
 948              	.L88:
 949              		.loc 5 116 0
 950 001c 084A     		ldr	r2, .L100
 951              	.L91:
 952              		.loc 5 116 0 is_stmt 0 discriminator 1
 953 001e 9368     		ldr	r3, [r2, #8]
 954 0020 9907     		lsls	r1, r3, #30
 955 0022 FCD5     		bpl	.L91
 956              		.loc 5 117 0 is_stmt 1
 957 0024 064A     		ldr	r2, .L100
 958              	.L92:
 959              		.loc 5 117 0 is_stmt 0 discriminator 1
 960 0026 9368     		ldr	r3, [r2, #8]
 961 0028 1B06     		lsls	r3, r3, #24
 962 002a FCD4     		bmi	.L92
 963              		.loc 5 120 0 is_stmt 1
 964 002c D368     		ldr	r3, [r2, #12]
 965 002e DBB2     		uxtb	r3, r3
 966 0030 8DF80730 		strb	r3, [sp, #7]
 967              		.loc 5 121 0
 968 0034 9368     		ldr	r3, [r2, #8]
 969 0036 DBB2     		uxtb	r3, r3
ARM GAS  /tmp/ccHCxrbr.s 			page 18


 970 0038 8DF80730 		strb	r3, [sp, #7]
 971              		.loc 5 122 0
 972 003c 02B0     		add	sp, sp, #8
 973              		.cfi_def_cfa_offset 0
 974              		@ sp needed
 975 003e 7047     		bx	lr
 976              	.L101:
 977              		.align	2
 978              	.L100:
 979 0040 00300140 		.word	1073819648
 980              		.cfi_endproc
 981              	.LFE267:
 982              		.size	SPI_Transmit, .-SPI_Transmit
 983              		.section	.text.senddata,"ax",%progbits
 984              		.align	1
 985              		.p2align 4,,15
 986              		.global	senddata
 987              		.syntax unified
 988              		.thumb
 989              		.thumb_func
 990              		.fpu fpv4-sp-d16
 991              		.type	senddata, %function
 992              	senddata:
 993              	.LFB268:
 994              		.loc 5 125 0
 995              		.cfi_startproc
 996              		@ args = 0, pretend = 0, frame = 0
 997              		@ frame_needed = 0, uses_anonymous_args = 0
 998 0000 38B5     		push	{r3, r4, r5, lr}
 999              		.cfi_def_cfa_offset 16
 1000              		.cfi_offset 3, -16
 1001              		.cfi_offset 4, -12
 1002              		.cfi_offset 5, -8
 1003              		.cfi_offset 14, -4
 1004              	.LBB68:
 1005              	.LBB69:
 1006              		.loc 5 84 0
 1007 0002 054C     		ldr	r4, .L104
 1008 0004 1025     		movs	r5, #16
 1009              	.LBE69:
 1010              	.LBE68:
 1011              		.loc 5 126 0
 1012 0006 FFF7FEFF 		bl	arraybau
 1013              	.LVL89:
 1014              	.LBB71:
 1015              	.LBB70:
 1016              		.loc 5 84 0
 1017 000a 6583     		strh	r5, [r4, #26]	@ movhi
 1018              	.LBE70:
 1019              	.LBE71:
 1020              		.loc 5 128 0
 1021 000c 0821     		movs	r1, #8
 1022 000e 0348     		ldr	r0, .L104+4
 1023 0010 FFF7FEFF 		bl	SPI_Transmit
 1024              	.LVL90:
 1025              	.LBB72:
 1026              	.LBB73:
ARM GAS  /tmp/ccHCxrbr.s 			page 19


 1027              		.loc 5 89 0
 1028 0014 2583     		strh	r5, [r4, #24]	@ movhi
 1029              	.LBE73:
 1030              	.LBE72:
 1031              		.loc 5 130 0
 1032 0016 38BD     		pop	{r3, r4, r5, pc}
 1033              	.L105:
 1034              		.align	2
 1035              	.L104:
 1036 0018 00000240 		.word	1073872896
 1037 001c 00000000 		.word	.LANCHOR0
 1038              		.cfi_endproc
 1039              	.LFE268:
 1040              		.size	senddata, .-senddata
 1041              		.section	.text.assert_failed,"ax",%progbits
 1042              		.align	1
 1043              		.p2align 4,,15
 1044              		.global	assert_failed
 1045              		.syntax unified
 1046              		.thumb
 1047              		.thumb_func
 1048              		.fpu fpv4-sp-d16
 1049              		.type	assert_failed, %function
 1050              	assert_failed:
 1051              	.LFB272:
 1052              		.loc 1 179 0
 1053              		.cfi_startproc
 1054              		@ Volatile: function does not return.
 1055              		@ args = 0, pretend = 0, frame = 0
 1056              		@ frame_needed = 0, uses_anonymous_args = 0
 1057              	.LVL91:
 1058              		.loc 1 180 0
 1059 0000 0A46     		mov	r2, r1
 1060              		.loc 1 179 0
 1061 0002 08B5     		push	{r3, lr}
 1062              		.cfi_def_cfa_offset 8
 1063              		.cfi_offset 3, -8
 1064              		.cfi_offset 14, -4
 1065              		.loc 1 180 0
 1066 0004 0146     		mov	r1, r0
 1067              	.LVL92:
 1068 0006 0448     		ldr	r0, .L109
 1069              	.LVL93:
 1070 0008 FFF7FEFF 		bl	commands_printf
 1071              	.LVL94:
 1072              		.loc 1 181 0
 1073 000c FFF7FEFF 		bl	mc_interface_release_motor
 1074              	.LVL95:
 1075              	.L107:
 1076              		.loc 1 183 0 discriminator 1
 1077 0010 0A20     		movs	r0, #10
 1078 0012 FFF7FEFF 		bl	chThdSleep
 1079              	.LVL96:
 1080 0016 FBE7     		b	.L107
 1081              	.L110:
 1082              		.align	2
 1083              	.L109:
ARM GAS  /tmp/ccHCxrbr.s 			page 20


 1084 0018 00000000 		.word	.LC3
 1085              		.cfi_endproc
 1086              	.LFE272:
 1087              		.size	assert_failed, .-assert_failed
 1088              		.section	.text.startup.main,"ax",%progbits
 1089              		.align	1
 1090              		.p2align 4,,15
 1091              		.global	main
 1092              		.syntax unified
 1093              		.thumb
 1094              		.thumb_func
 1095              		.fpu fpv4-sp-d16
 1096              		.type	main, %function
 1097              	main:
 1098              	.LFB273:
 1099              		.loc 1 187 0
 1100              		.cfi_startproc
 1101              		@ Volatile: function does not return.
 1102              		@ args = 0, pretend = 0, frame = 840
 1103              		@ frame_needed = 0, uses_anonymous_args = 0
 1104 0000 00B5     		push	{lr}
 1105              		.cfi_def_cfa_offset 4
 1106              		.cfi_offset 14, -4
 1107 0002 ADF5557D 		sub	sp, sp, #852
 1108              		.cfi_def_cfa_offset 856
 1109              		.loc 1 188 0
 1110 0006 FFF7FEFF 		bl	halInit
 1111              	.LVL97:
 1112              		.loc 1 189 0
 1113 000a FFF7FEFF 		bl	chSysInit
 1114              	.LVL98:
 1115              	.LBB74:
 1116              	.LBB75:
 1117              		.loc 5 62 0
 1118 000e 3F49     		ldr	r1, .L116
 1119              		.loc 5 64 0
 1120 0010 3F4B     		ldr	r3, .L116+4
 1121              		.loc 5 62 0
 1122 0012 0A6B     		ldr	r2, [r1, #48]
 1123              	.LBE75:
 1124              	.LBE74:
 1125              		.loc 1 206 0
 1126 0014 3F4D     		ldr	r5, .L116+8
 1127              	.LBB77:
 1128              	.LBB76:
 1129              		.loc 5 62 0
 1130 0016 42F00102 		orr	r2, r2, #1
 1131 001a 0A63     		str	r2, [r1, #48]
 1132              		.loc 5 64 0
 1133 001c 1A68     		ldr	r2, [r3]
 1134 001e 42F42942 		orr	r2, r2, #43264
 1135 0022 1A60     		str	r2, [r3]
 1136              		.loc 5 66 0
 1137 0024 9A68     		ldr	r2, [r3, #8]
 1138 0026 42F47F42 		orr	r2, r2, #65280
 1139 002a 9A60     		str	r2, [r3, #8]
 1140              		.loc 5 68 0
ARM GAS  /tmp/ccHCxrbr.s 			page 21


 1141 002c 1A6A     		ldr	r2, [r3, #32]
 1142 002e 42F0AA42 		orr	r2, r2, #1426063360
 1143 0032 42F4A002 		orr	r2, r2, #5242880
 1144 0036 1A62     		str	r2, [r3, #32]
 1145              	.LBE76:
 1146              	.LBE77:
 1147              		.loc 1 191 0
 1148 0038 FFF7FEFF 		bl	SPI_Config
 1149              	.LVL99:
 1150              	.LBB78:
 1151              	.LBB79:
 1152              		.loc 5 73 0
 1153 003c 364A     		ldr	r2, .L116+12
 1154 003e 1368     		ldr	r3, [r2]
 1155 0040 43F04003 		orr	r3, r3, #64
 1156 0044 1360     		str	r3, [r2]
 1157              	.LBE79:
 1158              	.LBE78:
 1159              		.loc 1 203 0
 1160 0046 4FF47A70 		mov	r0, #1000
 1161 004a FFF7FEFF 		bl	chThdSleep
 1162              	.LVL100:
 1163              		.loc 1 206 0
 1164 004e 0224     		movs	r4, #2
 1165              		.loc 1 205 0
 1166 0050 FFF7FEFF 		bl	hw_init_gpio
 1167              	.LVL101:
 1168              		.loc 1 207 0
 1169 0054 0123     		movs	r3, #1
 1170              		.loc 1 206 0
 1171 0056 6C83     		strh	r4, [r5, #26]	@ movhi
 1172              		.loc 1 207 0
 1173 0058 6B83     		strh	r3, [r5, #26]	@ movhi
 1174              		.loc 1 209 0
 1175 005a FFF7FEFF 		bl	timer_init
 1176              	.LVL102:
 1177              		.loc 1 210 0
 1178 005e FFF7FEFF 		bl	conf_general_init
 1179              	.LVL103:
 1180              		.loc 1 212 0
 1181 0062 FFF7FEFF 		bl	flash_helper_verify_flash_memory
 1182              	.LVL104:
 1183 0066 0E28     		cmp	r0, #14
 1184 0068 44D0     		beq	.L113
 1185              		.loc 1 222 0
 1186 006a FFF7FEFF 		bl	ledpwm_init
 1187              	.LVL105:
 1188              		.loc 1 225 0
 1189 006e 62A8     		add	r0, sp, #392
 1190 0070 FFF7FEFF 		bl	conf_general_read_mc_configuration
 1191              	.LVL106:
 1192              		.loc 1 227 0
 1193 0074 62A8     		add	r0, sp, #392
 1194 0076 FFF7FEFF 		bl	mc_interface_init
 1195              	.LVL107:
 1196              		.loc 1 230 0
 1197 007a 03A8     		add	r0, sp, #12
ARM GAS  /tmp/ccHCxrbr.s 			page 22


 1198 007c FFF7FEFF 		bl	conf_general_read_custom_configuration
 1199              	.LVL108:
 1200              		.loc 1 232 0
 1201 0080 FFF7FEFF 		bl	commands_init
 1202              	.LVL109:
 1203              		.loc 1 236 0
 1204 0084 FFF7FEFF 		bl	comm_usb_init
 1205              	.LVL110:
 1206              		.loc 1 240 0
 1207 0088 FFF7FEFF 		bl	comm_can_init
 1208              	.LVL111:
 1209              		.loc 1 244 0
 1210 008c 04A8     		add	r0, sp, #16
 1211 008e FFF7FEFF 		bl	conf_general_read_app_configuration
 1212              	.LVL112:
 1213              		.loc 1 245 0
 1214 0092 04A8     		add	r0, sp, #16
 1215 0094 FFF7FEFF 		bl	app_set_configuration
 1216              	.LVL113:
 1217              		.loc 1 284 0
 1218 0098 0025     		movs	r5, #0
 1219              		.loc 1 251 0
 1220 009a 0398     		ldr	r0, [sp, #12]
 1221 009c FFF7FEFF 		bl	mc_interface_set_odo_value
 1222              	.LVL114:
 1223              		.loc 1 253 0
 1224 00a0 FFF7FEFF 		bl	app_uartcomm_start_permanent
 1225              	.LVL115:
 1226              		.loc 1 284 0
 1227 00a4 1D4B     		ldr	r3, .L116+16
 1228 00a6 0095     		str	r5, [sp]
 1229 00a8 4022     		movs	r2, #64
 1230 00aa 4FF4B361 		mov	r1, #1432
 1231 00ae 1C48     		ldr	r0, .L116+20
 1232 00b0 FFF7FEFF 		bl	chThdCreateStatic
 1233              	.LVL116:
 1234              		.loc 1 285 0
 1235 00b4 1B4B     		ldr	r3, .L116+24
 1236 00b6 0095     		str	r5, [sp]
 1237 00b8 4022     		movs	r2, #64
 1238 00ba 4FF40671 		mov	r1, #536
 1239 00be 1A48     		ldr	r0, .L116+28
 1240 00c0 FFF7FEFF 		bl	chThdCreateStatic
 1241              	.LVL117:
 1242              		.loc 1 286 0
 1243 00c4 2246     		mov	r2, r4
 1244 00c6 194B     		ldr	r3, .L116+32
 1245 00c8 0095     		str	r5, [sp]
 1246 00ca 4FF42671 		mov	r1, #664
 1247 00ce 1848     		ldr	r0, .L116+36
 1248 00d0 FFF7FEFF 		bl	chThdCreateStatic
 1249              	.LVL118:
 1250              		.loc 1 348 0
 1251 00d4 FFF7FEFF 		bl	timeout_init
 1252              	.LVL119:
 1253              		.loc 1 349 0
 1254 00d8 9DED060A 		vldr.32	s0, [sp, #24]
ARM GAS  /tmp/ccHCxrbr.s 			page 23


 1255 00dc 0598     		ldr	r0, [sp, #20]
 1256 00de FFF7FEFF 		bl	timeout_configure
 1257              	.LVL120:
 1258              		.loc 1 350 0
 1259 00e2 4FA8     		add	r0, sp, #316
 1260 00e4 FFF7FEFF 		bl	imu_init
 1261              	.LVL121:
 1262              		.loc 1 353 0
 1263 00e8 FFF7FEFF 		bl	bm_init
 1264              	.LVL122:
 1265              	.L114:
 1266              		.loc 1 361 0 discriminator 1
 1267 00ec 6420     		movs	r0, #100
 1268 00ee FFF7FEFF 		bl	chThdSleep
 1269              	.LVL123:
 1270 00f2 FBE7     		b	.L114
 1271              	.L113:
 1272              		.loc 1 215 0 discriminator 1
 1273 00f4 4FF47A70 		mov	r0, #1000
 1274 00f8 FFF7FEFF 		bl	chThdSleep
 1275              	.LVL124:
 1276              		.loc 1 216 0 discriminator 1
 1277 00fc 2C83     		strh	r4, [r5, #24]	@ movhi
 1278              		.loc 1 217 0 discriminator 1
 1279 00fe 40F2EE20 		movw	r0, #750
 1280 0102 FFF7FEFF 		bl	chThdSleep
 1281              	.LVL125:
 1282              		.loc 1 218 0 discriminator 1
 1283 0106 6C83     		strh	r4, [r5, #26]	@ movhi
 1284 0108 F4E7     		b	.L113
 1285              	.L117:
 1286 010a 00BF     		.align	2
 1287              	.L116:
 1288 010c 00380240 		.word	1073887232
 1289 0110 00000240 		.word	1073872896
 1290 0114 00040240 		.word	1073873920
 1291 0118 00300140 		.word	1073819648
 1292 011c 00000000 		.word	periodic_thread
 1293 0120 00000000 		.word	.LANCHOR1
 1294 0124 00000000 		.word	timer_thread
 1295 0128 00000000 		.word	.LANCHOR2
 1296 012c 00000000 		.word	flash_integrity_check_thread
 1297 0130 00000000 		.word	.LANCHOR3
 1298              		.cfi_endproc
 1299              	.LFE273:
 1300              		.size	main, .-main
 1301              		.global	data
 1302              		.section	.bss.data,"aw",%nobits
 1303              		.align	2
 1304              		.set	.LANCHOR0,. + 0
 1305              		.type	data, %object
 1306              		.size	data, 9
 1307              	data:
 1308 0000 00000000 		.space	9
 1308      00000000 
 1308      00
 1309              		.section	.bss.flash_integrity_check_thread_wa,"aw",%nobits
ARM GAS  /tmp/ccHCxrbr.s 			page 24


 1310              		.align	3
 1311              		.set	.LANCHOR3,. + 0
 1312              		.type	flash_integrity_check_thread_wa, %object
 1313              		.size	flash_integrity_check_thread_wa, 664
 1314              	flash_integrity_check_thread_wa:
 1315 0000 00000000 		.space	664
 1315      00000000 
 1315      00000000 
 1315      00000000 
 1315      00000000 
 1316              		.section	.bss.periodic_thread_wa,"aw",%nobits
 1317              		.align	3
 1318              		.set	.LANCHOR1,. + 0
 1319              		.type	periodic_thread_wa, %object
 1320              		.size	periodic_thread_wa, 1432
 1321              	periodic_thread_wa:
 1322 0000 00000000 		.space	1432
 1322      00000000 
 1322      00000000 
 1322      00000000 
 1322      00000000 
 1323              		.section	.bss.timer_thread_wa,"aw",%nobits
 1324              		.align	3
 1325              		.set	.LANCHOR2,. + 0
 1326              		.type	timer_thread_wa, %object
 1327              		.size	timer_thread_wa, 536
 1328              	timer_thread_wa:
 1329 0000 00000000 		.space	536
 1329      00000000 
 1329      00000000 
 1329      00000000 
 1329      00000000 
 1330              		.section	.rodata.assert_failed.str1.4,"aMS",%progbits,1
 1331              		.align	2
 1332              	.LC3:
 1333 0000 57726F6E 		.ascii	"Wrong parameters value: file %s on line %d\015\012\000"
 1333      67207061 
 1333      72616D65 
 1333      74657273 
 1333      2076616C 
 1334              		.section	.rodata.flash_integrity_check_thread.str1.4,"aMS",%progbits,1
 1335              		.align	2
 1336              	.LC0:
 1337 0000 466C6173 		.ascii	"Flash check\000"
 1337      68206368 
 1337      65636B00 
 1338              		.section	.rodata.periodic_thread.str1.4,"aMS",%progbits,1
 1339              		.align	2
 1340              	.LC2:
 1341 0000 4D61696E 		.ascii	"Main periodic\000"
 1341      20706572 
 1341      696F6469 
 1341      6300
 1342              		.section	.rodata.timer_thread.str1.4,"aMS",%progbits,1
 1343              		.align	2
 1344              	.LC1:
 1345 0000 6D736563 		.ascii	"msec_timer\000"
ARM GAS  /tmp/ccHCxrbr.s 			page 25


 1345      5F74696D 
 1345      657200
 1346              		.text
 1347              	.Letext0:
 1348              		.file 6 "/usr/lib/gcc/arm-none-eabi/7.3.1/include/stddef.h"
 1349              		.file 7 "/usr/arm-none-eabi/include/machine/_default_types.h"
 1350              		.file 8 "/usr/arm-none-eabi/include/sys/_stdint.h"
 1351              		.file 9 "ChibiOS_3.0.2/os/rt/ports/ARMCMx/compilers/GCC/chtypes.h"
 1352              		.file 10 "ChibiOS_3.0.2/os/rt/include/chsystypes.h"
 1353              		.file 11 "ChibiOS_3.0.2/os/rt/include/chschd.h"
 1354              		.file 12 "ChibiOS_3.0.2/os/ext/CMSIS/ST/system_stm32f4xx.h"
 1355              		.file 13 "ChibiOS_3.0.2/os/ext/CMSIS/ST/stm32f407xx.h"
 1356              		.file 14 "ChibiOS_3.0.2/os/rt/ports/ARMCMx/chcore.h"
 1357              		.file 15 "ChibiOS_3.0.2/os/rt/ports/ARMCMx/chcore_v7m.h"
 1358              		.file 16 "ChibiOS_3.0.2/os/rt/include/chtm.h"
 1359              		.file 17 "ChibiOS_3.0.2/os/rt/include/chsem.h"
 1360              		.file 18 "ChibiOS_3.0.2/os/rt/include/chmtx.h"
 1361              		.file 19 "ChibiOS_3.0.2/os/rt/include/chevents.h"
 1362              		.file 20 "ChibiOS_3.0.2/os/rt/include/chqueues.h"
 1363              		.file 21 "ChibiOS_3.0.2/os/ext/CMSIS/ST/stm32f4xx.h"
 1364              		.file 22 "./datatypes.h"
 1365              		.file 23 "./conf_general.h"
 1366              		.file 24 "ChibiOS_3.0.2/os/hal/ports/STM32/STM32F4xx/stm32_dma.h"
 1367              		.file 25 "ChibiOS_3.0.2/os/hal/ports/STM32/LLD/GPIOv2/pal_lld.h"
 1368              		.file 26 "ChibiOS_3.0.2/os/hal/include/can.h"
 1369              		.file 27 "ChibiOS_3.0.2/os/hal/ports/STM32/LLD/can_lld.h"
 1370              		.file 28 "ChibiOS_3.0.2/os/hal/include/i2c.h"
 1371              		.file 29 "ChibiOS_3.0.2/os/hal/ports/STM32/LLD/I2Cv1/i2c_lld.h"
 1372              		.file 30 "ChibiOS_3.0.2/os/hal/include/icu.h"
 1373              		.file 31 "ChibiOS_3.0.2/os/hal/ports/STM32/LLD/TIMv1/icu_lld.h"
 1374              		.file 32 "ChibiOS_3.0.2/os/hal/ports/STM32/LLD/TIMv1/stm32_tim.h"
 1375              		.file 33 "ChibiOS_3.0.2/os/hal/include/serial.h"
 1376              		.file 34 "ChibiOS_3.0.2/os/hal/ports/STM32/LLD/USARTv1/serial_lld.h"
 1377              		.file 35 "ChibiOS_3.0.2/os/hal/include/spi.h"
 1378              		.file 36 "ChibiOS_3.0.2/os/hal/ports/STM32/LLD/SPIv1/spi_lld.h"
 1379              		.file 37 "ChibiOS_3.0.2/os/hal/include/usb.h"
 1380              		.file 38 "ChibiOS_3.0.2/os/hal/ports/STM32/LLD/OTGv1/usb_lld.h"
 1381              		.file 39 "ChibiOS_3.0.2/os/hal/ports/STM32/LLD/OTGv1/stm32_otg.h"
 1382              		.file 40 "/usr/arm-none-eabi/include/sys/lock.h"
 1383              		.file 41 "/usr/arm-none-eabi/include/sys/_types.h"
 1384              		.file 42 "/usr/arm-none-eabi/include/sys/reent.h"
 1385              		.file 43 "/usr/arm-none-eabi/include/math.h"
 1386              		.file 44 "/usr/arm-none-eabi/include/stdlib.h"
 1387              		.file 45 "mc_interface.h"
 1388              		.file 46 "mcpwm.h"
 1389              		.file 47 "timeout.h"
 1390              		.file 48 "ChibiOS_3.0.2/os/hal/include/hal.h"
 1391              		.file 49 "ChibiOS_3.0.2/os/rt/include/chsys.h"
 1392              		.file 50 "ChibiOS_3.0.2/os/rt/include/chthreads.h"
 1393              		.file 51 "hwconf/hw.h"
 1394              		.file 52 "timer.h"
 1395              		.file 53 "flash_helper.h"
 1396              		.file 54 "ledpwm.h"
 1397              		.file 55 "commands.h"
 1398              		.file 56 "comm_usb.h"
 1399              		.file 57 "comm_can.h"
 1400              		.file 58 "applications/app.h"
ARM GAS  /tmp/ccHCxrbr.s 			page 26


 1401              		.file 59 "imu/imu.h"
 1402              		.file 60 "blackmagic/bm_if.h"
 1403              		.file 61 "packet.h"
 1404              		.file 62 "mcpwm_foc.h"
 1405              		.file 63 "utils.h"
 1406              		.file 64 "encoder.h"
 1407              		.file 65 "ChibiOS_3.0.2/ext/stdperiph_stm32f4/inc/stm32f4xx_rcc.h"